   1              		.cpu cortex-m3
   2              		.arch armv7-m
   3              		.fpu softvfp
   4              		.eabi_attribute 20, 1
   5              		.eabi_attribute 21, 1
   6              		.eabi_attribute 23, 3
   7              		.eabi_attribute 24, 1
   8              		.eabi_attribute 25, 1
   9              		.eabi_attribute 26, 1
  10              		.eabi_attribute 30, 1
  11              		.eabi_attribute 34, 1
  12              		.eabi_attribute 18, 4
  13              		.file	"fal_tiger_wol.c"
  14              		.text
  15              	.Ltext0:
  16              		.cfi_sections	.debug_frame
  17              		.file 1 "../Switch/core/fal/tiger/fal_tiger_wol.c"
  18              		.section	.rodata.fal_tiger_wol_ctrl_set.str1.4,"aMS",%progbits,1
  19              		.align	2
  20              	.LC0:
  21 0000 68616C5F 		.ascii	"hal_table_reg_read(unit,42,0,sizeof(wol_ctrl_t),&wo"
  21      7461626C 
  21      655F7265 
  21      675F7265 
  21      61642875 
  22 0033 6C5F6374 		.ascii	"l_ctrl)\000"
  22      726C2900 
  23 003b 00       		.align	2
  24              	.LC1:
  25 003c 25732573 		.ascii	"%s%s of \"%s\" in %s\015\012\000"
  25      206F6620 
  25      22257322 
  25      20696E20 
  25      25730D0A 
  26 0051 000000   		.align	2
  27              	.LC2:
  28 0054 68616C5F 		.ascii	"hal_table_reg_write(unit,42,0,sizeof(wol_ctrl_t),&w"
  28      7461626C 
  28      655F7265 
  28      675F7772 
  28      69746528 
  29 0087 6F6C5F63 		.ascii	"ol_ctrl)\000"
  29      74726C29 
  29      00
  30              		.section	.text.fal_tiger_wol_ctrl_set,"ax",%progbits
  31              		.align	1
  32              		.global	fal_tiger_wol_ctrl_set
  33              		.syntax unified
  34              		.thumb
  35              		.thumb_func
  37              	fal_tiger_wol_ctrl_set:
  38              	.LVL0:
  39              	.LFB3:
   1:../Switch/core/fal/tiger/fal_tiger_wol.c **** #include "fal_tiger_wol.h"
   2:../Switch/core/fal/tiger/fal_tiger_wol.c **** #include "fal_tiger_struct.h"
   3:../Switch/core/fal/tiger/fal_tiger_wol.c **** #include "fal_tiger_entry.h"
   4:../Switch/core/fal/tiger/fal_tiger_wol.c **** 
   5:../Switch/core/fal/tiger/fal_tiger_wol.c **** yt_ret_t  fal_tiger_wol_ctrl_set(yt_unit_t unit, yt_enable_t enable)
   6:../Switch/core/fal/tiger/fal_tiger_wol.c **** {
  40              		.loc 1 6 1 view -0
  41              		.cfi_startproc
  42              		@ args = 0, pretend = 0, frame = 8
  43              		@ frame_needed = 0, uses_anonymous_args = 0
  44              		.loc 1 6 1 is_stmt 0 view .LVU1
  45 0000 70B5     		push	{r4, r5, r6, lr}
  46              		.cfi_def_cfa_offset 16
  47              		.cfi_offset 4, -16
  48              		.cfi_offset 5, -12
  49              		.cfi_offset 6, -8
  50              		.cfi_offset 14, -4
  51 0002 84B0     		sub	sp, sp, #16
  52              		.cfi_def_cfa_offset 32
  53 0004 0546     		mov	r5, r0
  54 0006 0E46     		mov	r6, r1
   7:../Switch/core/fal/tiger/fal_tiger_wol.c ****     wol_ctrl_t wol_ctrl;
  55              		.loc 1 7 5 is_stmt 1 view .LVU2
   8:../Switch/core/fal/tiger/fal_tiger_wol.c ****     cmm_err_t ret = CMM_ERR_OK;
  56              		.loc 1 8 5 view .LVU3
  57              	.LVL1:
   9:../Switch/core/fal/tiger/fal_tiger_wol.c **** 
  10:../Switch/core/fal/tiger/fal_tiger_wol.c ****     CMM_ERR_CHK(HAL_TBL_REG_READ(unit, WOL_CTRLm, 0, sizeof(wol_ctrl_t), &wol_ctrl), ret);
  58              		.loc 1 10 5 view .LVU4
  59              		.loc 1 10 5 view .LVU5
  60 0008 03AB     		add	r3, sp, #12
  61 000a 0093     		str	r3, [sp]
  62 000c 0423     		movs	r3, #4
  63 000e 0022     		movs	r2, #0
  64 0010 2A21     		movs	r1, #42
  65              	.LVL2:
  66              		.loc 1 10 5 is_stmt 0 view .LVU6
  67 0012 FFF7FEFF 		bl	hal_table_reg_read
  68              	.LVL3:
  69              		.loc 1 10 5 view .LVU7
  70 0016 10F0FF03 		ands	r3, r0, #255
  71 001a 17D0     		beq	.L2
  72 001c 0446     		mov	r4, r0
  73              		.loc 1 10 5 is_stmt 1 discriminator 1 view .LVU8
  74              		.loc 1 10 5 discriminator 1 view .LVU9
  75 001e 204A     		ldr	r2, .L11
  76 0020 1278     		ldrb	r2, [r2]	@ zero_extendqisi2
  77 0022 012A     		cmp	r2, #1
  78 0024 02D8     		bhi	.L8
  79              	.LVL4:
  80              	.L3:
  81              		.loc 1 10 5 discriminator 5 view .LVU10
  82              		.loc 1 10 5 discriminator 5 view .LVU11
  83              		.loc 1 10 5 discriminator 5 view .LVU12
  84 0026 E0B2     		uxtb	r0, r4
  85              	.LVL5:
  86              	.L1:
  11:../Switch/core/fal/tiger/fal_tiger_wol.c ****     HAL_FIELD_SET(WOL_CTRLm, WOL_CTRL_WOL_ENf, &wol_ctrl, enable);
  12:../Switch/core/fal/tiger/fal_tiger_wol.c ****     CMM_ERR_CHK(HAL_TBL_REG_WRITE(unit, WOL_CTRLm, 0, sizeof(wol_ctrl_t), &wol_ctrl), ret);
  13:../Switch/core/fal/tiger/fal_tiger_wol.c **** 
  14:../Switch/core/fal/tiger/fal_tiger_wol.c ****     return CMM_ERR_OK;
  15:../Switch/core/fal/tiger/fal_tiger_wol.c **** }
  87              		.loc 1 15 1 is_stmt 0 view .LVU13
  88 0028 04B0     		add	sp, sp, #16
  89              		.cfi_remember_state
  90              		.cfi_def_cfa_offset 16
  91              		@ sp needed
  92 002a 70BD     		pop	{r4, r5, r6, pc}
  93              	.LVL6:
  94              	.L8:
  95              		.cfi_restore_state
  10:../Switch/core/fal/tiger/fal_tiger_wol.c ****     HAL_FIELD_SET(WOL_CTRLm, WOL_CTRL_WOL_ENf, &wol_ctrl, enable);
  96              		.loc 1 10 5 is_stmt 1 discriminator 3 view .LVU14
  97              	.LBB2:
  10:../Switch/core/fal/tiger/fal_tiger_wol.c ****     HAL_FIELD_SET(WOL_CTRLm, WOL_CTRL_WOL_ENf, &wol_ctrl, enable);
  98              		.loc 1 10 5 discriminator 3 view .LVU15
  99 002c 142B     		cmp	r3, #20
 100 002e 28BF     		it	cs
 101 0030 1423     		movcs	r3, #20
 102 0032 1A46     		mov	r2, r3
 103 0034 1B4B     		ldr	r3, .L11+4
 104 0036 0093     		str	r3, [sp]
 105 0038 1B4B     		ldr	r3, .L11+8
 106 003a 1C49     		ldr	r1, .L11+12
 107 003c 51F82220 		ldr	r2, [r1, r2, lsl #2]
 108 0040 1B49     		ldr	r1, .L11+16
 109 0042 8968     		ldr	r1, [r1, #8]
 110 0044 1B48     		ldr	r0, .L11+20
 111              	.LVL7:
  10:../Switch/core/fal/tiger/fal_tiger_wol.c ****     HAL_FIELD_SET(WOL_CTRLm, WOL_CTRL_WOL_ENf, &wol_ctrl, enable);
 112              		.loc 1 10 5 is_stmt 0 discriminator 3 view .LVU16
 113 0046 FFF7FEFF 		bl	osal_printf
 114              	.LVL8:
 115 004a ECE7     		b	.L3
 116              	.LVL9:
 117              	.L2:
  10:../Switch/core/fal/tiger/fal_tiger_wol.c ****     HAL_FIELD_SET(WOL_CTRLm, WOL_CTRL_WOL_ENf, &wol_ctrl, enable);
 118              		.loc 1 10 5 discriminator 3 view .LVU17
 119              	.LBE2:
  10:../Switch/core/fal/tiger/fal_tiger_wol.c ****     HAL_FIELD_SET(WOL_CTRLm, WOL_CTRL_WOL_ENf, &wol_ctrl, enable);
 120              		.loc 1 10 5 is_stmt 1 discriminator 2 view .LVU18
  11:../Switch/core/fal/tiger/fal_tiger_wol.c ****     HAL_FIELD_SET(WOL_CTRLm, WOL_CTRL_WOL_ENf, &wol_ctrl, enable);
 121              		.loc 1 11 5 discriminator 2 view .LVU19
 122 004c 03AC     		add	r4, sp, #12
 123 004e 3346     		mov	r3, r6
 124 0050 2246     		mov	r2, r4
 125 0052 0121     		movs	r1, #1
 126 0054 2A20     		movs	r0, #42
 127              	.LVL10:
  11:../Switch/core/fal/tiger/fal_tiger_wol.c ****     HAL_FIELD_SET(WOL_CTRLm, WOL_CTRL_WOL_ENf, &wol_ctrl, enable);
 128              		.loc 1 11 5 is_stmt 0 discriminator 2 view .LVU20
 129 0056 FFF7FEFF 		bl	hal_tbl_reg_field_set
 130              	.LVL11:
  12:../Switch/core/fal/tiger/fal_tiger_wol.c **** 
 131              		.loc 1 12 5 is_stmt 1 discriminator 2 view .LVU21
  12:../Switch/core/fal/tiger/fal_tiger_wol.c **** 
 132              		.loc 1 12 5 discriminator 2 view .LVU22
 133 005a 0094     		str	r4, [sp]
 134 005c 0423     		movs	r3, #4
 135 005e 0022     		movs	r2, #0
 136 0060 2A21     		movs	r1, #42
 137 0062 2846     		mov	r0, r5
 138 0064 FFF7FEFF 		bl	hal_table_reg_write
 139              	.LVL12:
 140 0068 0446     		mov	r4, r0
 141              	.LVL13:
  12:../Switch/core/fal/tiger/fal_tiger_wol.c **** 
 142              		.loc 1 12 5 is_stmt 0 discriminator 2 view .LVU23
 143 006a 10F0FF03 		ands	r3, r0, #255
 144 006e 01D1     		bne	.L9
  14:../Switch/core/fal/tiger/fal_tiger_wol.c **** }
 145              		.loc 1 14 12 view .LVU24
 146 0070 0020     		movs	r0, #0
 147              	.LVL14:
  14:../Switch/core/fal/tiger/fal_tiger_wol.c **** }
 148              		.loc 1 14 12 view .LVU25
 149 0072 D9E7     		b	.L1
 150              	.LVL15:
 151              	.L9:
  12:../Switch/core/fal/tiger/fal_tiger_wol.c **** 
 152              		.loc 1 12 5 is_stmt 1 discriminator 1 view .LVU26
  12:../Switch/core/fal/tiger/fal_tiger_wol.c **** 
 153              		.loc 1 12 5 discriminator 1 view .LVU27
 154 0074 0A4A     		ldr	r2, .L11
 155 0076 1278     		ldrb	r2, [r2]	@ zero_extendqisi2
 156 0078 012A     		cmp	r2, #1
 157 007a 01D8     		bhi	.L10
 158              	.LVL16:
 159              	.L5:
  12:../Switch/core/fal/tiger/fal_tiger_wol.c **** 
 160              		.loc 1 12 5 discriminator 5 view .LVU28
  12:../Switch/core/fal/tiger/fal_tiger_wol.c **** 
 161              		.loc 1 12 5 discriminator 5 view .LVU29
  12:../Switch/core/fal/tiger/fal_tiger_wol.c **** 
 162              		.loc 1 12 5 discriminator 5 view .LVU30
 163 007c E0B2     		uxtb	r0, r4
 164 007e D3E7     		b	.L1
 165              	.LVL17:
 166              	.L10:
  12:../Switch/core/fal/tiger/fal_tiger_wol.c **** 
 167              		.loc 1 12 5 discriminator 3 view .LVU31
 168              	.LBB3:
  12:../Switch/core/fal/tiger/fal_tiger_wol.c **** 
 169              		.loc 1 12 5 discriminator 3 view .LVU32
 170 0080 142B     		cmp	r3, #20
 171 0082 28BF     		it	cs
 172 0084 1423     		movcs	r3, #20
 173 0086 1A46     		mov	r2, r3
 174 0088 064B     		ldr	r3, .L11+4
 175 008a 0093     		str	r3, [sp]
 176 008c 0A4B     		ldr	r3, .L11+24
 177 008e 0749     		ldr	r1, .L11+12
 178 0090 51F82220 		ldr	r2, [r1, r2, lsl #2]
 179 0094 0649     		ldr	r1, .L11+16
 180 0096 8968     		ldr	r1, [r1, #8]
 181 0098 0648     		ldr	r0, .L11+20
 182              	.LVL18:
  12:../Switch/core/fal/tiger/fal_tiger_wol.c **** 
 183              		.loc 1 12 5 is_stmt 0 discriminator 3 view .LVU33
 184 009a FFF7FEFF 		bl	osal_printf
 185              	.LVL19:
 186 009e EDE7     		b	.L5
 187              	.L12:
 188              		.align	2
 189              	.L11:
 190 00a0 00000000 		.word	yt_debug_level
 191 00a4 00000000 		.word	__FUNCTION__.3
 192 00a8 00000000 		.word	.LC0
 193 00ac 00000000 		.word	_yt_errmsg
 194 00b0 00000000 		.word	_yt_prompt_msg
 195 00b4 3C000000 		.word	.LC1
 196 00b8 54000000 		.word	.LC2
 197              	.LBE3:
 198              		.cfi_endproc
 199              	.LFE3:
 201              		.section	.text.fal_tiger_wol_ctrl_get,"ax",%progbits
 202              		.align	1
 203              		.global	fal_tiger_wol_ctrl_get
 204              		.syntax unified
 205              		.thumb
 206              		.thumb_func
 208              	fal_tiger_wol_ctrl_get:
 209              	.LVL20:
 210              	.LFB4:
  16:../Switch/core/fal/tiger/fal_tiger_wol.c **** 
  17:../Switch/core/fal/tiger/fal_tiger_wol.c **** yt_ret_t  fal_tiger_wol_ctrl_get(yt_unit_t unit, yt_enable_t *pEnable)
  18:../Switch/core/fal/tiger/fal_tiger_wol.c **** {
 211              		.loc 1 18 1 is_stmt 1 view -0
 212              		.cfi_startproc
 213              		@ args = 0, pretend = 0, frame = 8
 214              		@ frame_needed = 0, uses_anonymous_args = 0
 215              		.loc 1 18 1 is_stmt 0 view .LVU35
 216 0000 30B5     		push	{r4, r5, lr}
 217              		.cfi_def_cfa_offset 12
 218              		.cfi_offset 4, -12
 219              		.cfi_offset 5, -8
 220              		.cfi_offset 14, -4
 221 0002 85B0     		sub	sp, sp, #20
 222              		.cfi_def_cfa_offset 32
 223 0004 0D46     		mov	r5, r1
  19:../Switch/core/fal/tiger/fal_tiger_wol.c ****     wol_ctrl_t wol_ctrl;
 224              		.loc 1 19 5 is_stmt 1 view .LVU36
  20:../Switch/core/fal/tiger/fal_tiger_wol.c ****     cmm_err_t ret = CMM_ERR_OK;
 225              		.loc 1 20 5 view .LVU37
 226              	.LVL21:
  21:../Switch/core/fal/tiger/fal_tiger_wol.c ****     uint32_t enable;
 227              		.loc 1 21 5 view .LVU38
  22:../Switch/core/fal/tiger/fal_tiger_wol.c **** 
  23:../Switch/core/fal/tiger/fal_tiger_wol.c ****     CMM_ERR_CHK(HAL_TBL_REG_READ(unit, WOL_CTRLm, 0, sizeof(wol_ctrl_t), &wol_ctrl), ret);
 228              		.loc 1 23 5 view .LVU39
 229              		.loc 1 23 5 view .LVU40
 230 0006 03AB     		add	r3, sp, #12
 231 0008 0093     		str	r3, [sp]
 232 000a 0423     		movs	r3, #4
 233 000c 0022     		movs	r2, #0
 234 000e 2A21     		movs	r1, #42
 235              	.LVL22:
 236              		.loc 1 23 5 is_stmt 0 view .LVU41
 237 0010 FFF7FEFF 		bl	hal_table_reg_read
 238              	.LVL23:
 239              		.loc 1 23 5 view .LVU42
 240 0014 10F0FF03 		ands	r3, r0, #255
 241 0018 17D0     		beq	.L14
 242 001a 0446     		mov	r4, r0
 243              		.loc 1 23 5 is_stmt 1 discriminator 1 view .LVU43
 244              		.loc 1 23 5 discriminator 1 view .LVU44
 245 001c 114A     		ldr	r2, .L19
 246 001e 1278     		ldrb	r2, [r2]	@ zero_extendqisi2
 247 0020 012A     		cmp	r2, #1
 248 0022 02D8     		bhi	.L18
 249              	.LVL24:
 250              	.L15:
 251              		.loc 1 23 5 discriminator 5 view .LVU45
 252              		.loc 1 23 5 discriminator 5 view .LVU46
 253              		.loc 1 23 5 discriminator 5 view .LVU47
 254 0024 E0B2     		uxtb	r0, r4
 255              	.L13:
  24:../Switch/core/fal/tiger/fal_tiger_wol.c ****     HAL_FIELD_GET(WOL_CTRLm, WOL_CTRL_WOL_ENf, &wol_ctrl, &enable);
  25:../Switch/core/fal/tiger/fal_tiger_wol.c ****     *pEnable = enable ? YT_ENABLE : YT_DISABLE;
  26:../Switch/core/fal/tiger/fal_tiger_wol.c **** 
  27:../Switch/core/fal/tiger/fal_tiger_wol.c ****     return CMM_ERR_OK;
  28:../Switch/core/fal/tiger/fal_tiger_wol.c **** }
 256              		.loc 1 28 1 is_stmt 0 view .LVU48
 257 0026 05B0     		add	sp, sp, #20
 258              		.cfi_remember_state
 259              		.cfi_def_cfa_offset 12
 260              		@ sp needed
 261 0028 30BD     		pop	{r4, r5, pc}
 262              	.LVL25:
 263              	.L18:
 264              		.cfi_restore_state
  23:../Switch/core/fal/tiger/fal_tiger_wol.c ****     HAL_FIELD_GET(WOL_CTRLm, WOL_CTRL_WOL_ENf, &wol_ctrl, &enable);
 265              		.loc 1 23 5 is_stmt 1 discriminator 3 view .LVU49
 266              	.LBB4:
  23:../Switch/core/fal/tiger/fal_tiger_wol.c ****     HAL_FIELD_GET(WOL_CTRLm, WOL_CTRL_WOL_ENf, &wol_ctrl, &enable);
 267              		.loc 1 23 5 discriminator 3 view .LVU50
 268 002a 142B     		cmp	r3, #20
 269 002c 28BF     		it	cs
 270 002e 1423     		movcs	r3, #20
 271 0030 1A46     		mov	r2, r3
 272 0032 0D4B     		ldr	r3, .L19+4
 273 0034 0093     		str	r3, [sp]
 274 0036 0D4B     		ldr	r3, .L19+8
 275 0038 0D49     		ldr	r1, .L19+12
 276 003a 51F82220 		ldr	r2, [r1, r2, lsl #2]
 277 003e 0D49     		ldr	r1, .L19+16
 278 0040 8968     		ldr	r1, [r1, #8]
 279 0042 0D48     		ldr	r0, .L19+20
 280              	.LVL26:
  23:../Switch/core/fal/tiger/fal_tiger_wol.c ****     HAL_FIELD_GET(WOL_CTRLm, WOL_CTRL_WOL_ENf, &wol_ctrl, &enable);
 281              		.loc 1 23 5 is_stmt 0 discriminator 3 view .LVU51
 282 0044 FFF7FEFF 		bl	osal_printf
 283              	.LVL27:
 284 0048 ECE7     		b	.L15
 285              	.LVL28:
 286              	.L14:
  23:../Switch/core/fal/tiger/fal_tiger_wol.c ****     HAL_FIELD_GET(WOL_CTRLm, WOL_CTRL_WOL_ENf, &wol_ctrl, &enable);
 287              		.loc 1 23 5 discriminator 3 view .LVU52
 288              	.LBE4:
  23:../Switch/core/fal/tiger/fal_tiger_wol.c ****     HAL_FIELD_GET(WOL_CTRLm, WOL_CTRL_WOL_ENf, &wol_ctrl, &enable);
 289              		.loc 1 23 5 is_stmt 1 discriminator 2 view .LVU53
  24:../Switch/core/fal/tiger/fal_tiger_wol.c ****     HAL_FIELD_GET(WOL_CTRLm, WOL_CTRL_WOL_ENf, &wol_ctrl, &enable);
 290              		.loc 1 24 5 discriminator 2 view .LVU54
 291              	.LBB5:
  24:../Switch/core/fal/tiger/fal_tiger_wol.c ****     HAL_FIELD_GET(WOL_CTRLm, WOL_CTRL_WOL_ENf, &wol_ctrl, &enable);
 292              		.loc 1 24 5 discriminator 2 view .LVU55
  24:../Switch/core/fal/tiger/fal_tiger_wol.c ****     HAL_FIELD_GET(WOL_CTRLm, WOL_CTRL_WOL_ENf, &wol_ctrl, &enable);
 293              		.loc 1 24 5 discriminator 2 view .LVU56
 294 004a 02AB     		add	r3, sp, #8
 295 004c 03AA     		add	r2, sp, #12
 296 004e 0121     		movs	r1, #1
 297 0050 2A20     		movs	r0, #42
 298              	.LVL29:
  24:../Switch/core/fal/tiger/fal_tiger_wol.c ****     HAL_FIELD_GET(WOL_CTRLm, WOL_CTRL_WOL_ENf, &wol_ctrl, &enable);
 299              		.loc 1 24 5 is_stmt 0 discriminator 2 view .LVU57
 300 0052 FFF7FEFF 		bl	hal_tbl_reg_field_get
 301              	.LVL30:
  24:../Switch/core/fal/tiger/fal_tiger_wol.c ****     HAL_FIELD_GET(WOL_CTRLm, WOL_CTRL_WOL_ENf, &wol_ctrl, &enable);
 302              		.loc 1 24 5 is_stmt 1 discriminator 2 view .LVU58
  24:../Switch/core/fal/tiger/fal_tiger_wol.c ****     HAL_FIELD_GET(WOL_CTRLm, WOL_CTRL_WOL_ENf, &wol_ctrl, &enable);
 303              		.loc 1 24 5 is_stmt 0 discriminator 2 view .LVU59
 304              	.LBE5:
  24:../Switch/core/fal/tiger/fal_tiger_wol.c ****     HAL_FIELD_GET(WOL_CTRLm, WOL_CTRL_WOL_ENf, &wol_ctrl, &enable);
 305              		.loc 1 24 5 is_stmt 1 discriminator 2 view .LVU60
  25:../Switch/core/fal/tiger/fal_tiger_wol.c **** 
 306              		.loc 1 25 5 discriminator 2 view .LVU61
  25:../Switch/core/fal/tiger/fal_tiger_wol.c **** 
 307              		.loc 1 25 35 is_stmt 0 discriminator 2 view .LVU62
 308 0056 029B     		ldr	r3, [sp, #8]
 309 0058 003B     		subs	r3, r3, #0
 310 005a 18BF     		it	ne
 311 005c 0123     		movne	r3, #1
  25:../Switch/core/fal/tiger/fal_tiger_wol.c **** 
 312              		.loc 1 25 14 discriminator 2 view .LVU63
 313 005e 2B70     		strb	r3, [r5]
 314              	.LVL31:
  27:../Switch/core/fal/tiger/fal_tiger_wol.c **** }
 315              		.loc 1 27 5 is_stmt 1 discriminator 2 view .LVU64
  27:../Switch/core/fal/tiger/fal_tiger_wol.c **** }
 316              		.loc 1 27 12 is_stmt 0 discriminator 2 view .LVU65
 317 0060 0020     		movs	r0, #0
 318 0062 E0E7     		b	.L13
 319              	.L20:
 320              		.align	2
 321              	.L19:
 322 0064 00000000 		.word	yt_debug_level
 323 0068 00000000 		.word	__FUNCTION__.2
 324 006c 00000000 		.word	.LC0
 325 0070 00000000 		.word	_yt_errmsg
 326 0074 00000000 		.word	_yt_prompt_msg
 327 0078 3C000000 		.word	.LC1
 328              		.cfi_endproc
 329              	.LFE4:
 331              		.section	.text.fal_tiger_wol_ethertype_set,"ax",%progbits
 332              		.align	1
 333              		.global	fal_tiger_wol_ethertype_set
 334              		.syntax unified
 335              		.thumb
 336              		.thumb_func
 338              	fal_tiger_wol_ethertype_set:
 339              	.LVL32:
 340              	.LFB5:
  29:../Switch/core/fal/tiger/fal_tiger_wol.c **** 
  30:../Switch/core/fal/tiger/fal_tiger_wol.c **** yt_ret_t  fal_tiger_wol_ethertype_set(yt_unit_t unit, yt_tpid_t eth_type)
  31:../Switch/core/fal/tiger/fal_tiger_wol.c **** {
 341              		.loc 1 31 1 is_stmt 1 view -0
 342              		.cfi_startproc
 343              		@ args = 0, pretend = 0, frame = 8
 344              		@ frame_needed = 0, uses_anonymous_args = 0
 345              		.loc 1 31 1 is_stmt 0 view .LVU67
 346 0000 70B5     		push	{r4, r5, r6, lr}
 347              		.cfi_def_cfa_offset 16
 348              		.cfi_offset 4, -16
 349              		.cfi_offset 5, -12
 350              		.cfi_offset 6, -8
 351              		.cfi_offset 14, -4
 352 0002 84B0     		sub	sp, sp, #16
 353              		.cfi_def_cfa_offset 32
 354 0004 0546     		mov	r5, r0
 355 0006 0E46     		mov	r6, r1
  32:../Switch/core/fal/tiger/fal_tiger_wol.c ****     wol_ctrl_t wol_ctrl;
 356              		.loc 1 32 5 is_stmt 1 view .LVU68
  33:../Switch/core/fal/tiger/fal_tiger_wol.c ****     cmm_err_t ret = CMM_ERR_OK;
 357              		.loc 1 33 5 view .LVU69
 358              	.LVL33:
  34:../Switch/core/fal/tiger/fal_tiger_wol.c **** 
  35:../Switch/core/fal/tiger/fal_tiger_wol.c ****     CMM_ERR_CHK(HAL_TBL_REG_READ(unit, WOL_CTRLm, 0, sizeof(wol_ctrl_t), &wol_ctrl), ret);
 359              		.loc 1 35 5 view .LVU70
 360              		.loc 1 35 5 view .LVU71
 361 0008 03AB     		add	r3, sp, #12
 362 000a 0093     		str	r3, [sp]
 363 000c 0423     		movs	r3, #4
 364 000e 0022     		movs	r2, #0
 365 0010 2A21     		movs	r1, #42
 366              	.LVL34:
 367              		.loc 1 35 5 is_stmt 0 view .LVU72
 368 0012 FFF7FEFF 		bl	hal_table_reg_read
 369              	.LVL35:
 370              		.loc 1 35 5 view .LVU73
 371 0016 10F0FF03 		ands	r3, r0, #255
 372 001a 17D0     		beq	.L22
 373 001c 0446     		mov	r4, r0
 374              		.loc 1 35 5 is_stmt 1 discriminator 1 view .LVU74
 375              		.loc 1 35 5 discriminator 1 view .LVU75
 376 001e 204A     		ldr	r2, .L31
 377 0020 1278     		ldrb	r2, [r2]	@ zero_extendqisi2
 378 0022 012A     		cmp	r2, #1
 379 0024 02D8     		bhi	.L28
 380              	.LVL36:
 381              	.L23:
 382              		.loc 1 35 5 discriminator 5 view .LVU76
 383              		.loc 1 35 5 discriminator 5 view .LVU77
 384              		.loc 1 35 5 discriminator 5 view .LVU78
 385 0026 E0B2     		uxtb	r0, r4
 386              	.LVL37:
 387              	.L21:
  36:../Switch/core/fal/tiger/fal_tiger_wol.c ****     HAL_FIELD_SET(WOL_CTRLm, WOL_CTRL_WOL_ETH_TYPEf, &wol_ctrl, eth_type);
  37:../Switch/core/fal/tiger/fal_tiger_wol.c ****     CMM_ERR_CHK(HAL_TBL_REG_WRITE(unit, WOL_CTRLm, 0, sizeof(wol_ctrl_t), &wol_ctrl), ret);
  38:../Switch/core/fal/tiger/fal_tiger_wol.c **** 
  39:../Switch/core/fal/tiger/fal_tiger_wol.c ****     return CMM_ERR_OK;
  40:../Switch/core/fal/tiger/fal_tiger_wol.c **** }
 388              		.loc 1 40 1 is_stmt 0 view .LVU79
 389 0028 04B0     		add	sp, sp, #16
 390              		.cfi_remember_state
 391              		.cfi_def_cfa_offset 16
 392              		@ sp needed
 393 002a 70BD     		pop	{r4, r5, r6, pc}
 394              	.LVL38:
 395              	.L28:
 396              		.cfi_restore_state
  35:../Switch/core/fal/tiger/fal_tiger_wol.c ****     HAL_FIELD_SET(WOL_CTRLm, WOL_CTRL_WOL_ETH_TYPEf, &wol_ctrl, eth_type);
 397              		.loc 1 35 5 is_stmt 1 discriminator 3 view .LVU80
 398              	.LBB6:
  35:../Switch/core/fal/tiger/fal_tiger_wol.c ****     HAL_FIELD_SET(WOL_CTRLm, WOL_CTRL_WOL_ETH_TYPEf, &wol_ctrl, eth_type);
 399              		.loc 1 35 5 discriminator 3 view .LVU81
 400 002c 142B     		cmp	r3, #20
 401 002e 28BF     		it	cs
 402 0030 1423     		movcs	r3, #20
 403 0032 1A46     		mov	r2, r3
 404 0034 1B4B     		ldr	r3, .L31+4
 405 0036 0093     		str	r3, [sp]
 406 0038 1B4B     		ldr	r3, .L31+8
 407 003a 1C49     		ldr	r1, .L31+12
 408 003c 51F82220 		ldr	r2, [r1, r2, lsl #2]
 409 0040 1B49     		ldr	r1, .L31+16
 410 0042 8968     		ldr	r1, [r1, #8]
 411 0044 1B48     		ldr	r0, .L31+20
 412              	.LVL39:
  35:../Switch/core/fal/tiger/fal_tiger_wol.c ****     HAL_FIELD_SET(WOL_CTRLm, WOL_CTRL_WOL_ETH_TYPEf, &wol_ctrl, eth_type);
 413              		.loc 1 35 5 is_stmt 0 discriminator 3 view .LVU82
 414 0046 FFF7FEFF 		bl	osal_printf
 415              	.LVL40:
 416 004a ECE7     		b	.L23
 417              	.LVL41:
 418              	.L22:
  35:../Switch/core/fal/tiger/fal_tiger_wol.c ****     HAL_FIELD_SET(WOL_CTRLm, WOL_CTRL_WOL_ETH_TYPEf, &wol_ctrl, eth_type);
 419              		.loc 1 35 5 discriminator 3 view .LVU83
 420              	.LBE6:
  35:../Switch/core/fal/tiger/fal_tiger_wol.c ****     HAL_FIELD_SET(WOL_CTRLm, WOL_CTRL_WOL_ETH_TYPEf, &wol_ctrl, eth_type);
 421              		.loc 1 35 5 is_stmt 1 discriminator 2 view .LVU84
  36:../Switch/core/fal/tiger/fal_tiger_wol.c ****     HAL_FIELD_SET(WOL_CTRLm, WOL_CTRL_WOL_ETH_TYPEf, &wol_ctrl, eth_type);
 422              		.loc 1 36 5 discriminator 2 view .LVU85
 423 004c 03AC     		add	r4, sp, #12
 424 004e 3346     		mov	r3, r6
 425 0050 2246     		mov	r2, r4
 426 0052 0021     		movs	r1, #0
 427 0054 2A20     		movs	r0, #42
 428              	.LVL42:
  36:../Switch/core/fal/tiger/fal_tiger_wol.c ****     HAL_FIELD_SET(WOL_CTRLm, WOL_CTRL_WOL_ETH_TYPEf, &wol_ctrl, eth_type);
 429              		.loc 1 36 5 is_stmt 0 discriminator 2 view .LVU86
 430 0056 FFF7FEFF 		bl	hal_tbl_reg_field_set
 431              	.LVL43:
  37:../Switch/core/fal/tiger/fal_tiger_wol.c **** 
 432              		.loc 1 37 5 is_stmt 1 discriminator 2 view .LVU87
  37:../Switch/core/fal/tiger/fal_tiger_wol.c **** 
 433              		.loc 1 37 5 discriminator 2 view .LVU88
 434 005a 0094     		str	r4, [sp]
 435 005c 0423     		movs	r3, #4
 436 005e 0022     		movs	r2, #0
 437 0060 2A21     		movs	r1, #42
 438 0062 2846     		mov	r0, r5
 439 0064 FFF7FEFF 		bl	hal_table_reg_write
 440              	.LVL44:
 441 0068 0446     		mov	r4, r0
 442              	.LVL45:
  37:../Switch/core/fal/tiger/fal_tiger_wol.c **** 
 443              		.loc 1 37 5 is_stmt 0 discriminator 2 view .LVU89
 444 006a 10F0FF03 		ands	r3, r0, #255
 445 006e 01D1     		bne	.L29
  39:../Switch/core/fal/tiger/fal_tiger_wol.c **** }
 446              		.loc 1 39 12 view .LVU90
 447 0070 0020     		movs	r0, #0
 448              	.LVL46:
  39:../Switch/core/fal/tiger/fal_tiger_wol.c **** }
 449              		.loc 1 39 12 view .LVU91
 450 0072 D9E7     		b	.L21
 451              	.LVL47:
 452              	.L29:
  37:../Switch/core/fal/tiger/fal_tiger_wol.c **** 
 453              		.loc 1 37 5 is_stmt 1 discriminator 1 view .LVU92
  37:../Switch/core/fal/tiger/fal_tiger_wol.c **** 
 454              		.loc 1 37 5 discriminator 1 view .LVU93
 455 0074 0A4A     		ldr	r2, .L31
 456 0076 1278     		ldrb	r2, [r2]	@ zero_extendqisi2
 457 0078 012A     		cmp	r2, #1
 458 007a 01D8     		bhi	.L30
 459              	.LVL48:
 460              	.L25:
  37:../Switch/core/fal/tiger/fal_tiger_wol.c **** 
 461              		.loc 1 37 5 discriminator 5 view .LVU94
  37:../Switch/core/fal/tiger/fal_tiger_wol.c **** 
 462              		.loc 1 37 5 discriminator 5 view .LVU95
  37:../Switch/core/fal/tiger/fal_tiger_wol.c **** 
 463              		.loc 1 37 5 discriminator 5 view .LVU96
 464 007c E0B2     		uxtb	r0, r4
 465 007e D3E7     		b	.L21
 466              	.LVL49:
 467              	.L30:
  37:../Switch/core/fal/tiger/fal_tiger_wol.c **** 
 468              		.loc 1 37 5 discriminator 3 view .LVU97
 469              	.LBB7:
  37:../Switch/core/fal/tiger/fal_tiger_wol.c **** 
 470              		.loc 1 37 5 discriminator 3 view .LVU98
 471 0080 142B     		cmp	r3, #20
 472 0082 28BF     		it	cs
 473 0084 1423     		movcs	r3, #20
 474 0086 1A46     		mov	r2, r3
 475 0088 064B     		ldr	r3, .L31+4
 476 008a 0093     		str	r3, [sp]
 477 008c 0A4B     		ldr	r3, .L31+24
 478 008e 0749     		ldr	r1, .L31+12
 479 0090 51F82220 		ldr	r2, [r1, r2, lsl #2]
 480 0094 0649     		ldr	r1, .L31+16
 481 0096 8968     		ldr	r1, [r1, #8]
 482 0098 0648     		ldr	r0, .L31+20
 483              	.LVL50:
  37:../Switch/core/fal/tiger/fal_tiger_wol.c **** 
 484              		.loc 1 37 5 is_stmt 0 discriminator 3 view .LVU99
 485 009a FFF7FEFF 		bl	osal_printf
 486              	.LVL51:
 487 009e EDE7     		b	.L25
 488              	.L32:
 489              		.align	2
 490              	.L31:
 491 00a0 00000000 		.word	yt_debug_level
 492 00a4 00000000 		.word	__FUNCTION__.1
 493 00a8 00000000 		.word	.LC0
 494 00ac 00000000 		.word	_yt_errmsg
 495 00b0 00000000 		.word	_yt_prompt_msg
 496 00b4 3C000000 		.word	.LC1
 497 00b8 54000000 		.word	.LC2
 498              	.LBE7:
 499              		.cfi_endproc
 500              	.LFE5:
 502              		.section	.text.fal_tiger_wol_ethertype_get,"ax",%progbits
 503              		.align	1
 504              		.global	fal_tiger_wol_ethertype_get
 505              		.syntax unified
 506              		.thumb
 507              		.thumb_func
 509              	fal_tiger_wol_ethertype_get:
 510              	.LVL52:
 511              	.LFB6:
  41:../Switch/core/fal/tiger/fal_tiger_wol.c **** 
  42:../Switch/core/fal/tiger/fal_tiger_wol.c **** yt_ret_t  fal_tiger_wol_ethertype_get(yt_unit_t unit, yt_tpid_t *pEth_type)
  43:../Switch/core/fal/tiger/fal_tiger_wol.c **** {
 512              		.loc 1 43 1 is_stmt 1 view -0
 513              		.cfi_startproc
 514              		@ args = 0, pretend = 0, frame = 8
 515              		@ frame_needed = 0, uses_anonymous_args = 0
 516              		.loc 1 43 1 is_stmt 0 view .LVU101
 517 0000 30B5     		push	{r4, r5, lr}
 518              		.cfi_def_cfa_offset 12
 519              		.cfi_offset 4, -12
 520              		.cfi_offset 5, -8
 521              		.cfi_offset 14, -4
 522 0002 85B0     		sub	sp, sp, #20
 523              		.cfi_def_cfa_offset 32
 524 0004 0D46     		mov	r5, r1
  44:../Switch/core/fal/tiger/fal_tiger_wol.c ****     wol_ctrl_t wol_ctrl;
 525              		.loc 1 44 5 is_stmt 1 view .LVU102
  45:../Switch/core/fal/tiger/fal_tiger_wol.c ****     cmm_err_t ret = CMM_ERR_OK;
 526              		.loc 1 45 5 view .LVU103
 527              	.LVL53:
  46:../Switch/core/fal/tiger/fal_tiger_wol.c ****     uint32_t eth_type;
 528              		.loc 1 46 5 view .LVU104
  47:../Switch/core/fal/tiger/fal_tiger_wol.c **** 
  48:../Switch/core/fal/tiger/fal_tiger_wol.c ****     CMM_ERR_CHK(HAL_TBL_REG_READ(unit, WOL_CTRLm, 0, sizeof(wol_ctrl_t), &wol_ctrl), ret);
 529              		.loc 1 48 5 view .LVU105
 530              		.loc 1 48 5 view .LVU106
 531 0006 03AB     		add	r3, sp, #12
 532 0008 0093     		str	r3, [sp]
 533 000a 0423     		movs	r3, #4
 534 000c 0022     		movs	r2, #0
 535 000e 2A21     		movs	r1, #42
 536              	.LVL54:
 537              		.loc 1 48 5 is_stmt 0 view .LVU107
 538 0010 FFF7FEFF 		bl	hal_table_reg_read
 539              	.LVL55:
 540              		.loc 1 48 5 view .LVU108
 541 0014 10F0FF03 		ands	r3, r0, #255
 542 0018 17D0     		beq	.L34
 543 001a 0446     		mov	r4, r0
 544              		.loc 1 48 5 is_stmt 1 discriminator 1 view .LVU109
 545              		.loc 1 48 5 discriminator 1 view .LVU110
 546 001c 104A     		ldr	r2, .L39
 547 001e 1278     		ldrb	r2, [r2]	@ zero_extendqisi2
 548 0020 012A     		cmp	r2, #1
 549 0022 02D8     		bhi	.L38
 550              	.LVL56:
 551              	.L35:
 552              		.loc 1 48 5 discriminator 5 view .LVU111
 553              		.loc 1 48 5 discriminator 5 view .LVU112
 554              		.loc 1 48 5 discriminator 5 view .LVU113
 555 0024 E0B2     		uxtb	r0, r4
 556              	.L33:
  49:../Switch/core/fal/tiger/fal_tiger_wol.c ****     HAL_FIELD_GET(WOL_CTRLm, WOL_CTRL_WOL_ETH_TYPEf, &wol_ctrl, &eth_type);
  50:../Switch/core/fal/tiger/fal_tiger_wol.c ****     *pEth_type = eth_type;
  51:../Switch/core/fal/tiger/fal_tiger_wol.c **** 
  52:../Switch/core/fal/tiger/fal_tiger_wol.c ****     return CMM_ERR_OK;
  53:../Switch/core/fal/tiger/fal_tiger_wol.c **** }
 557              		.loc 1 53 1 is_stmt 0 view .LVU114
 558 0026 05B0     		add	sp, sp, #20
 559              		.cfi_remember_state
 560              		.cfi_def_cfa_offset 12
 561              		@ sp needed
 562 0028 30BD     		pop	{r4, r5, pc}
 563              	.LVL57:
 564              	.L38:
 565              		.cfi_restore_state
  48:../Switch/core/fal/tiger/fal_tiger_wol.c ****     HAL_FIELD_GET(WOL_CTRLm, WOL_CTRL_WOL_ETH_TYPEf, &wol_ctrl, &eth_type);
 566              		.loc 1 48 5 is_stmt 1 discriminator 3 view .LVU115
 567              	.LBB8:
  48:../Switch/core/fal/tiger/fal_tiger_wol.c ****     HAL_FIELD_GET(WOL_CTRLm, WOL_CTRL_WOL_ETH_TYPEf, &wol_ctrl, &eth_type);
 568              		.loc 1 48 5 discriminator 3 view .LVU116
 569 002a 142B     		cmp	r3, #20
 570 002c 28BF     		it	cs
 571 002e 1423     		movcs	r3, #20
 572 0030 1A46     		mov	r2, r3
 573 0032 0C4B     		ldr	r3, .L39+4
 574 0034 0093     		str	r3, [sp]
 575 0036 0C4B     		ldr	r3, .L39+8
 576 0038 0C49     		ldr	r1, .L39+12
 577 003a 51F82220 		ldr	r2, [r1, r2, lsl #2]
 578 003e 0C49     		ldr	r1, .L39+16
 579 0040 8968     		ldr	r1, [r1, #8]
 580 0042 0C48     		ldr	r0, .L39+20
 581              	.LVL58:
  48:../Switch/core/fal/tiger/fal_tiger_wol.c ****     HAL_FIELD_GET(WOL_CTRLm, WOL_CTRL_WOL_ETH_TYPEf, &wol_ctrl, &eth_type);
 582              		.loc 1 48 5 is_stmt 0 discriminator 3 view .LVU117
 583 0044 FFF7FEFF 		bl	osal_printf
 584              	.LVL59:
 585 0048 ECE7     		b	.L35
 586              	.LVL60:
 587              	.L34:
  48:../Switch/core/fal/tiger/fal_tiger_wol.c ****     HAL_FIELD_GET(WOL_CTRLm, WOL_CTRL_WOL_ETH_TYPEf, &wol_ctrl, &eth_type);
 588              		.loc 1 48 5 discriminator 3 view .LVU118
 589              	.LBE8:
  48:../Switch/core/fal/tiger/fal_tiger_wol.c ****     HAL_FIELD_GET(WOL_CTRLm, WOL_CTRL_WOL_ETH_TYPEf, &wol_ctrl, &eth_type);
 590              		.loc 1 48 5 is_stmt 1 discriminator 2 view .LVU119
  49:../Switch/core/fal/tiger/fal_tiger_wol.c ****     HAL_FIELD_GET(WOL_CTRLm, WOL_CTRL_WOL_ETH_TYPEf, &wol_ctrl, &eth_type);
 591              		.loc 1 49 5 discriminator 2 view .LVU120
 592              	.LBB9:
  49:../Switch/core/fal/tiger/fal_tiger_wol.c ****     HAL_FIELD_GET(WOL_CTRLm, WOL_CTRL_WOL_ETH_TYPEf, &wol_ctrl, &eth_type);
 593              		.loc 1 49 5 discriminator 2 view .LVU121
  49:../Switch/core/fal/tiger/fal_tiger_wol.c ****     HAL_FIELD_GET(WOL_CTRLm, WOL_CTRL_WOL_ETH_TYPEf, &wol_ctrl, &eth_type);
 594              		.loc 1 49 5 discriminator 2 view .LVU122
 595 004a 02AB     		add	r3, sp, #8
 596 004c 03AA     		add	r2, sp, #12
 597 004e 0021     		movs	r1, #0
 598 0050 2A20     		movs	r0, #42
 599              	.LVL61:
  49:../Switch/core/fal/tiger/fal_tiger_wol.c ****     HAL_FIELD_GET(WOL_CTRLm, WOL_CTRL_WOL_ETH_TYPEf, &wol_ctrl, &eth_type);
 600              		.loc 1 49 5 is_stmt 0 discriminator 2 view .LVU123
 601 0052 FFF7FEFF 		bl	hal_tbl_reg_field_get
 602              	.LVL62:
  49:../Switch/core/fal/tiger/fal_tiger_wol.c ****     HAL_FIELD_GET(WOL_CTRLm, WOL_CTRL_WOL_ETH_TYPEf, &wol_ctrl, &eth_type);
 603              		.loc 1 49 5 is_stmt 1 discriminator 2 view .LVU124
 604 0056 029B     		ldr	r3, [sp, #8]
 605              	.LVL63:
  49:../Switch/core/fal/tiger/fal_tiger_wol.c ****     HAL_FIELD_GET(WOL_CTRLm, WOL_CTRL_WOL_ETH_TYPEf, &wol_ctrl, &eth_type);
 606              		.loc 1 49 5 is_stmt 0 discriminator 2 view .LVU125
 607              	.LBE9:
  49:../Switch/core/fal/tiger/fal_tiger_wol.c ****     HAL_FIELD_GET(WOL_CTRLm, WOL_CTRL_WOL_ETH_TYPEf, &wol_ctrl, &eth_type);
 608              		.loc 1 49 5 is_stmt 1 discriminator 2 view .LVU126
  50:../Switch/core/fal/tiger/fal_tiger_wol.c **** 
 609              		.loc 1 50 5 discriminator 2 view .LVU127
  50:../Switch/core/fal/tiger/fal_tiger_wol.c **** 
 610              		.loc 1 50 16 is_stmt 0 discriminator 2 view .LVU128
 611 0058 2B80     		strh	r3, [r5]	@ movhi
  52:../Switch/core/fal/tiger/fal_tiger_wol.c **** }
 612              		.loc 1 52 5 is_stmt 1 discriminator 2 view .LVU129
  52:../Switch/core/fal/tiger/fal_tiger_wol.c **** }
 613              		.loc 1 52 12 is_stmt 0 discriminator 2 view .LVU130
 614 005a 0020     		movs	r0, #0
 615 005c E3E7     		b	.L33
 616              	.L40:
 617 005e 00BF     		.align	2
 618              	.L39:
 619 0060 00000000 		.word	yt_debug_level
 620 0064 00000000 		.word	__FUNCTION__.0
 621 0068 00000000 		.word	.LC0
 622 006c 00000000 		.word	_yt_errmsg
 623 0070 00000000 		.word	_yt_prompt_msg
 624 0074 3C000000 		.word	.LC1
 625              		.cfi_endproc
 626              	.LFE6:
 628              		.section	.rodata.__FUNCTION__.0,"a"
 629              		.align	2
 632              	__FUNCTION__.0:
 633 0000 66616C5F 		.ascii	"fal_tiger_wol_ethertype_get\000"
 633      74696765 
 633      725F776F 
 633      6C5F6574 
 633      68657274 
 634              		.section	.rodata.__FUNCTION__.1,"a"
 635              		.align	2
 638              	__FUNCTION__.1:
 639 0000 66616C5F 		.ascii	"fal_tiger_wol_ethertype_set\000"
 639      74696765 
 639      725F776F 
 639      6C5F6574 
 639      68657274 
 640              		.section	.rodata.__FUNCTION__.2,"a"
 641              		.align	2
 644              	__FUNCTION__.2:
 645 0000 66616C5F 		.ascii	"fal_tiger_wol_ctrl_get\000"
 645      74696765 
 645      725F776F 
 645      6C5F6374 
 645      726C5F67 
 646              		.section	.rodata.__FUNCTION__.3,"a"
 647              		.align	2
 650              	__FUNCTION__.3:
 651 0000 66616C5F 		.ascii	"fal_tiger_wol_ctrl_set\000"
 651      74696765 
 651      725F776F 
 651      6C5F6374 
 651      726C5F73 
 652              		.text
 653              	.Letext0:
 654              		.file 2 "C:\\Users\\Dmitriy\\Desktop\\GD32F10x\\Switch\\common\\include/yt_types.h"
 655              		.file 3 "C:\\Users\\Dmitriy\\Desktop\\GD32F10x\\Switch\\common\\include/yt_error.h"
 656              		.file 4 "../Switch/core/fal/tiger/fal_tiger_entry.h"
 657              		.file 5 "C:\\Users\\Dmitriy\\Desktop\\GD32F10x\\Switch\\core\\hal/hal_mem.h"