   1              		.cpu cortex-m3
   2              		.arch armv7-m
   3              		.fpu softvfp
   4              		.eabi_attribute 20, 1
   5              		.eabi_attribute 21, 1
   6              		.eabi_attribute 23, 3
   7              		.eabi_attribute 24, 1
   8              		.eabi_attribute 25, 1
   9              		.eabi_attribute 26, 1
  10              		.eabi_attribute 30, 1
  11              		.eabi_attribute 34, 1
  12              		.eabi_attribute 18, 4
  13              		.file	"cal_mgm.c"
  14              		.text
  15              	.Ltext0:
  16              		.cfi_sections	.debug_frame
  17              		.file 1 "../switch_sdk/core/cal/cal_mgm.c"
  18              		.section	.rodata.cal_mgm_init.str1.4,"aMS",%progbits,1
  19              		.align	2
  20              	.LC0:
  21 0000 25732573 		.ascii	"%s%s\015\012\000"
  21      0D0A00
  22 0007 00       		.align	2
  23              	.LC1:
  24 0008 63616C5F 		.ascii	"cal_board_profile_init()\000"
  24      626F6172 
  24      645F7072 
  24      6F66696C 
  24      655F696E 
  25 0021 000000   		.align	2
  26              	.LC2:
  27 0024 25732573 		.ascii	"%s%s of \"%s\" in %s\015\012\000"
  27      206F6620 
  27      22257322 
  27      20696E20 
  27      25730D0A 
  28              		.section	.text.cal_mgm_init,"ax",%progbits
  29              		.align	1
  30              		.global	cal_mgm_init
  31              		.syntax unified
  32              		.thumb
  33              		.thumb_func
  35              	cal_mgm_init:
  36              	.LFB3:
   1:../switch_sdk/core/cal/cal_mgm.c **** /*******************************************************************************
   2:../switch_sdk/core/cal/cal_mgm.c **** *                                                                              *
   3:../switch_sdk/core/cal/cal_mgm.c **** *  Copyright (c), 2022, Motorcomm Electronic Technology Co.,Ltd.               *
   4:../switch_sdk/core/cal/cal_mgm.c **** *  Motorcomm Confidential and Proprietary.                                     *
   5:../switch_sdk/core/cal/cal_mgm.c **** *                                                                              *
   6:../switch_sdk/core/cal/cal_mgm.c **** ********************************************************************************
   7:../switch_sdk/core/cal/cal_mgm.c **** */
   8:../switch_sdk/core/cal/cal_mgm.c **** #include "yt_types.h"
   9:../switch_sdk/core/cal/cal_mgm.c **** #include "yt_error.h"
  10:../switch_sdk/core/cal/cal_mgm.c **** #include "cal_mgm.h"
  11:../switch_sdk/core/cal/cal_mgm.c **** #include "cal_bprofile.h"
  12:../switch_sdk/core/cal/cal_mgm.c **** 
  13:../switch_sdk/core/cal/cal_mgm.c **** /*
  14:../switch_sdk/core/cal/cal_mgm.c ****  * Symbol Definition
  15:../switch_sdk/core/cal/cal_mgm.c ****  */
  16:../switch_sdk/core/cal/cal_mgm.c **** 
  17:../switch_sdk/core/cal/cal_mgm.c **** /*
  18:../switch_sdk/core/cal/cal_mgm.c ****  * Macro Declaration
  19:../switch_sdk/core/cal/cal_mgm.c ****  */
  20:../switch_sdk/core/cal/cal_mgm.c **** 
  21:../switch_sdk/core/cal/cal_mgm.c **** /*
  22:../switch_sdk/core/cal/cal_mgm.c ****  * Data Declaration
  23:../switch_sdk/core/cal/cal_mgm.c ****  */
  24:../switch_sdk/core/cal/cal_mgm.c **** uint8_t gcal_inited = FALSE;
  25:../switch_sdk/core/cal/cal_mgm.c **** 
  26:../switch_sdk/core/cal/cal_mgm.c **** /*
  27:../switch_sdk/core/cal/cal_mgm.c ****  * Function Declaration
  28:../switch_sdk/core/cal/cal_mgm.c ****  */
  29:../switch_sdk/core/cal/cal_mgm.c **** 
  30:../switch_sdk/core/cal/cal_mgm.c **** 
  31:../switch_sdk/core/cal/cal_mgm.c **** /*
  32:../switch_sdk/core/cal/cal_mgm.c ****  [Function Name]
  33:../switch_sdk/core/cal/cal_mgm.c ****      
  34:../switch_sdk/core/cal/cal_mgm.c ****  [Input/Output]
  35:../switch_sdk/core/cal/cal_mgm.c ****  
  36:../switch_sdk/core/cal/cal_mgm.c ****  [Description]
  37:../switch_sdk/core/cal/cal_mgm.c **** 
  38:../switch_sdk/core/cal/cal_mgm.c ****  [Return]
  39:../switch_sdk/core/cal/cal_mgm.c ****  
  40:../switch_sdk/core/cal/cal_mgm.c ****  [Note]
  41:../switch_sdk/core/cal/cal_mgm.c **** 
  42:../switch_sdk/core/cal/cal_mgm.c ****  */
  43:../switch_sdk/core/cal/cal_mgm.c **** uint32_t cal_mgm_init(void)
  44:../switch_sdk/core/cal/cal_mgm.c **** {
  37              		.loc 1 44 1 view -0
  38              		.cfi_startproc
  39              		@ args = 0, pretend = 0, frame = 0
  40              		@ frame_needed = 0, uses_anonymous_args = 0
  41 0000 10B5     		push	{r4, lr}
  42              		.cfi_def_cfa_offset 8
  43              		.cfi_offset 4, -8
  44              		.cfi_offset 14, -4
  45 0002 82B0     		sub	sp, sp, #8
  46              		.cfi_def_cfa_offset 16
  45:../switch_sdk/core/cal/cal_mgm.c ****     cmm_err_t ret = CMM_ERR_OK;
  47              		.loc 1 45 5 view .LVU1
  48              	.LVL0:
  46:../switch_sdk/core/cal/cal_mgm.c **** 
  47:../switch_sdk/core/cal/cal_mgm.c ****     CMM_PARAM_CHK((TRUE == gcal_inited), CMM_ERR_OK);
  49              		.loc 1 47 5 view .LVU2
  50              		.loc 1 47 5 view .LVU3
  51 0004 194B     		ldr	r3, .L12
  52 0006 1B78     		ldrb	r3, [r3]	@ zero_extendqisi2
  53 0008 012B     		cmp	r3, #1
  54 000a 0BD0     		beq	.L8
  55              		.loc 1 47 5 discriminator 2 view .LVU4
  48:../switch_sdk/core/cal/cal_mgm.c **** 
  49:../switch_sdk/core/cal/cal_mgm.c ****     CMM_ERR_CHK(cal_board_profile_init(), ret);
  56              		.loc 1 49 5 discriminator 2 view .LVU5
  57              		.loc 1 49 5 discriminator 2 view .LVU6
  58 000c FFF7FEFF 		bl	cal_board_profile_init
  59              	.LVL1:
  60 0010 0446     		mov	r4, r0
  61              	.LVL2:
  62              		.loc 1 49 5 is_stmt 0 discriminator 2 view .LVU7
  63 0012 10F0FF03 		ands	r3, r0, #255
  64 0016 13D1     		bne	.L9
  65              		.loc 1 49 5 is_stmt 1 discriminator 2 view .LVU8
  50:../switch_sdk/core/cal/cal_mgm.c **** 
  51:../switch_sdk/core/cal/cal_mgm.c ****     gcal_inited = TRUE;
  66              		.loc 1 51 5 discriminator 2 view .LVU9
  67              		.loc 1 51 17 is_stmt 0 discriminator 2 view .LVU10
  68 0018 144B     		ldr	r3, .L12
  69 001a 0122     		movs	r2, #1
  70 001c 1A70     		strb	r2, [r3]
  52:../switch_sdk/core/cal/cal_mgm.c ****    
  53:../switch_sdk/core/cal/cal_mgm.c ****     return CMM_ERR_OK;
  71              		.loc 1 53 5 is_stmt 1 discriminator 2 view .LVU11
  72              		.loc 1 53 12 is_stmt 0 discriminator 2 view .LVU12
  73 001e 0020     		movs	r0, #0
  74              	.LVL3:
  75              	.L1:
  54:../switch_sdk/core/cal/cal_mgm.c **** }
  76              		.loc 1 54 1 view .LVU13
  77 0020 02B0     		add	sp, sp, #8
  78              		.cfi_remember_state
  79              		.cfi_def_cfa_offset 8
  80              		@ sp needed
  81 0022 10BD     		pop	{r4, pc}
  82              	.LVL4:
  83              	.L8:
  84              		.cfi_restore_state
  47:../switch_sdk/core/cal/cal_mgm.c **** 
  85              		.loc 1 47 5 is_stmt 1 discriminator 1 view .LVU14
  47:../switch_sdk/core/cal/cal_mgm.c **** 
  86              		.loc 1 47 5 discriminator 1 view .LVU15
  87 0024 124B     		ldr	r3, .L12+4
  88 0026 1B78     		ldrb	r3, [r3]	@ zero_extendqisi2
  89 0028 012B     		cmp	r3, #1
  90 002a 01D8     		bhi	.L10
  91              	.L3:
  47:../switch_sdk/core/cal/cal_mgm.c **** 
  92              		.loc 1 47 5 discriminator 5 view .LVU16
  47:../switch_sdk/core/cal/cal_mgm.c **** 
  93              		.loc 1 47 5 discriminator 5 view .LVU17
  47:../switch_sdk/core/cal/cal_mgm.c **** 
  94              		.loc 1 47 5 discriminator 5 view .LVU18
  95 002c 0020     		movs	r0, #0
  96 002e F7E7     		b	.L1
  97              	.L10:
  47:../switch_sdk/core/cal/cal_mgm.c **** 
  98              		.loc 1 47 5 discriminator 3 view .LVU19
  99              	.LBB2:
  47:../switch_sdk/core/cal/cal_mgm.c **** 
 100              		.loc 1 47 5 discriminator 3 view .LVU20
 101 0030 104B     		ldr	r3, .L12+8
 102 0032 1A68     		ldr	r2, [r3]
 103 0034 104B     		ldr	r3, .L12+12
 104 0036 9968     		ldr	r1, [r3, #8]
 105 0038 1048     		ldr	r0, .L12+16
 106 003a FFF7FEFF 		bl	osal_printf
 107              	.LVL5:
 108 003e F5E7     		b	.L3
 109              	.LVL6:
 110              	.L9:
  47:../switch_sdk/core/cal/cal_mgm.c **** 
 111              		.loc 1 47 5 is_stmt 0 discriminator 3 view .LVU21
 112              	.LBE2:
  49:../switch_sdk/core/cal/cal_mgm.c **** 
 113              		.loc 1 49 5 is_stmt 1 discriminator 1 view .LVU22
  49:../switch_sdk/core/cal/cal_mgm.c **** 
 114              		.loc 1 49 5 discriminator 1 view .LVU23
 115 0040 0B4A     		ldr	r2, .L12+4
 116 0042 1278     		ldrb	r2, [r2]	@ zero_extendqisi2
 117 0044 012A     		cmp	r2, #1
 118 0046 01D8     		bhi	.L11
 119              	.LVL7:
 120              	.L6:
  49:../switch_sdk/core/cal/cal_mgm.c **** 
 121              		.loc 1 49 5 discriminator 5 view .LVU24
  49:../switch_sdk/core/cal/cal_mgm.c **** 
 122              		.loc 1 49 5 discriminator 5 view .LVU25
  49:../switch_sdk/core/cal/cal_mgm.c **** 
 123              		.loc 1 49 5 discriminator 5 view .LVU26
 124 0048 E0B2     		uxtb	r0, r4
 125 004a E9E7     		b	.L1
 126              	.LVL8:
 127              	.L11:
  49:../switch_sdk/core/cal/cal_mgm.c **** 
 128              		.loc 1 49 5 discriminator 3 view .LVU27
 129              	.LBB3:
  49:../switch_sdk/core/cal/cal_mgm.c **** 
 130              		.loc 1 49 5 discriminator 3 view .LVU28
 131 004c 142B     		cmp	r3, #20
 132 004e 28BF     		it	cs
 133 0050 1423     		movcs	r3, #20
 134 0052 1A46     		mov	r2, r3
 135 0054 0A4B     		ldr	r3, .L12+20
 136 0056 0093     		str	r3, [sp]
 137 0058 0A4B     		ldr	r3, .L12+24
 138 005a 0649     		ldr	r1, .L12+8
 139 005c 51F82220 		ldr	r2, [r1, r2, lsl #2]
 140 0060 0549     		ldr	r1, .L12+12
 141 0062 8968     		ldr	r1, [r1, #8]
 142 0064 0848     		ldr	r0, .L12+28
 143              	.LVL9:
  49:../switch_sdk/core/cal/cal_mgm.c **** 
 144              		.loc 1 49 5 is_stmt 0 discriminator 3 view .LVU29
 145 0066 FFF7FEFF 		bl	osal_printf
 146              	.LVL10:
 147 006a EDE7     		b	.L6
 148              	.L13:
 149              		.align	2
 150              	.L12:
 151 006c 00000000 		.word	gcal_inited
 152 0070 00000000 		.word	yt_debug_level
 153 0074 00000000 		.word	_yt_errmsg
 154 0078 00000000 		.word	_yt_prompt_msg
 155 007c 00000000 		.word	.LC0
 156 0080 00000000 		.word	__FUNCTION__.0
 157 0084 08000000 		.word	.LC1
 158 0088 24000000 		.word	.LC2
 159              	.LBE3:
 160              		.cfi_endproc
 161              	.LFE3:
 163              		.section	.rodata.__FUNCTION__.0,"a"
 164              		.align	2
 167              	__FUNCTION__.0:
 168 0000 63616C5F 		.ascii	"cal_mgm_init\000"
 168      6D676D5F 
 168      696E6974 
 168      00
 169              		.global	gcal_inited
 170              		.section	.bss.gcal_inited,"aw",%nobits
 173              	gcal_inited:
 174 0000 00       		.space	1
 175              		.text
 176              	.Letext0:
 177              		.file 2 "C:\\Users\\Dmitriy\\Desktop\\GD32F10x\\switch_sdk\\common\\include/yt_types.h"
 178              		.file 3 "C:\\Users\\Dmitriy\\Desktop\\GD32F10x\\switch_sdk\\common\\include/yt_error.h"
 179              		.file 4 "../switch_sdk/core/cal/cal_mgm.h"
 180              		.file 5 "../switch_sdk/core/cal/cal_bprofile.h"