   1              		.cpu cortex-m3
   2              		.arch armv7-m
   3              		.fpu softvfp
   4              		.eabi_attribute 20, 1
   5              		.eabi_attribute 21, 1
   6              		.eabi_attribute 23, 3
   7              		.eabi_attribute 24, 1
   8              		.eabi_attribute 25, 1
   9              		.eabi_attribute 26, 1
  10              		.eabi_attribute 30, 1
  11              		.eabi_attribute 34, 1
  12              		.eabi_attribute 18, 4
  13              		.file	"fal_tiger_oam.c"
  14              		.text
  15              	.Ltext0:
  16              		.cfi_sections	.debug_frame
  17              		.file 1 "../switch_sdk/core/fal/tiger/fal_tiger_oam.c"
  18              		.section	.rodata.fal_tiger_oam_en_set.str1.4,"aMS",%progbits,1
  19              		.align	2
  20              	.LC0:
  21 0000 68616C5F 		.ascii	"hal_table_reg_read(unit,41,0,sizeof(oam_en_ctrl_t),"
  21      7461626C 
  21      655F7265 
  21      675F7265 
  21      61642875 
  22 0033 26656E74 		.ascii	"&entry)\000"
  22      72792900 
  23 003b 00       		.align	2
  24              	.LC1:
  25 003c 25732573 		.ascii	"%s%s of \"%s\" in %s\015\012\000"
  25      206F6620 
  25      22257322 
  25      20696E20 
  25      25730D0A 
  26 0051 000000   		.align	2
  27              	.LC2:
  28 0054 68616C5F 		.ascii	"hal_table_reg_write(unit,41,0,sizeof(oam_en_ctrl_t)"
  28      7461626C 
  28      655F7265 
  28      675F7772 
  28      69746528 
  29 0087 2C26656E 		.ascii	",&entry)\000"
  29      74727929 
  29      00
  30              		.section	.text.fal_tiger_oam_en_set,"ax",%progbits
  31              		.align	1
  32              		.global	fal_tiger_oam_en_set
  33              		.syntax unified
  34              		.thumb
  35              		.thumb_func
  37              	fal_tiger_oam_en_set:
  38              	.LVL0:
  39              	.LFB3:
   1:../switch_sdk/core/fal/tiger/fal_tiger_oam.c **** /*
   2:../switch_sdk/core/fal/tiger/fal_tiger_oam.c ****  * Include Files
   3:../switch_sdk/core/fal/tiger/fal_tiger_oam.c ****  */
   4:../switch_sdk/core/fal/tiger/fal_tiger_oam.c **** #include "yt_error.h"
   5:../switch_sdk/core/fal/tiger/fal_tiger_oam.c **** //#include "osal_mem.h"
   6:../switch_sdk/core/fal/tiger/fal_tiger_oam.c **** //#include "osal_print.h"
   7:../switch_sdk/core/fal/tiger/fal_tiger_oam.c **** #include "fal_tiger_oam.h"
   8:../switch_sdk/core/fal/tiger/fal_tiger_oam.c **** #include "hal_mem.h"
   9:../switch_sdk/core/fal/tiger/fal_tiger_oam.c **** #include "fal_tiger_struct.h"
  10:../switch_sdk/core/fal/tiger/fal_tiger_oam.c **** #include "fal_tiger_entry.h"
  11:../switch_sdk/core/fal/tiger/fal_tiger_oam.c **** #include "fal_tiger_mem.h"
  12:../switch_sdk/core/fal/tiger/fal_tiger_oam.c **** 
  13:../switch_sdk/core/fal/tiger/fal_tiger_oam.c **** /*
  14:../switch_sdk/core/fal/tiger/fal_tiger_oam.c ****  * Symbol Definition
  15:../switch_sdk/core/fal/tiger/fal_tiger_oam.c ****  */
  16:../switch_sdk/core/fal/tiger/fal_tiger_oam.c **** 
  17:../switch_sdk/core/fal/tiger/fal_tiger_oam.c **** /*
  18:../switch_sdk/core/fal/tiger/fal_tiger_oam.c ****  * Macro Declaration
  19:../switch_sdk/core/fal/tiger/fal_tiger_oam.c ****  */
  20:../switch_sdk/core/fal/tiger/fal_tiger_oam.c **** 
  21:../switch_sdk/core/fal/tiger/fal_tiger_oam.c **** /*
  22:../switch_sdk/core/fal/tiger/fal_tiger_oam.c ****  * Data Declaration
  23:../switch_sdk/core/fal/tiger/fal_tiger_oam.c ****  */
  24:../switch_sdk/core/fal/tiger/fal_tiger_oam.c **** 
  25:../switch_sdk/core/fal/tiger/fal_tiger_oam.c **** /*
  26:../switch_sdk/core/fal/tiger/fal_tiger_oam.c ****  * Function Declaration
  27:../switch_sdk/core/fal/tiger/fal_tiger_oam.c ****  */
  28:../switch_sdk/core/fal/tiger/fal_tiger_oam.c **** 
  29:../switch_sdk/core/fal/tiger/fal_tiger_oam.c **** yt_ret_t fal_tiger_oam_en_set(yt_unit_t unit, yt_port_t port, yt_enable_t enable)
  30:../switch_sdk/core/fal/tiger/fal_tiger_oam.c **** {
  40              		.loc 1 30 1 view -0
  41              		.cfi_startproc
  42              		@ args = 0, pretend = 0, frame = 8
  43              		@ frame_needed = 0, uses_anonymous_args = 0
  44              		.loc 1 30 1 is_stmt 0 view .LVU1
  45 0000 F0B5     		push	{r4, r5, r6, r7, lr}
  46              		.cfi_def_cfa_offset 20
  47              		.cfi_offset 4, -20
  48              		.cfi_offset 5, -16
  49              		.cfi_offset 6, -12
  50              		.cfi_offset 7, -8
  51              		.cfi_offset 14, -4
  52 0002 85B0     		sub	sp, sp, #20
  53              		.cfi_def_cfa_offset 40
  54 0004 0546     		mov	r5, r0
  55 0006 1646     		mov	r6, r2
  31:../switch_sdk/core/fal/tiger/fal_tiger_oam.c ****     oam_en_ctrl_t entry;
  56              		.loc 1 31 5 is_stmt 1 view .LVU2
  32:../switch_sdk/core/fal/tiger/fal_tiger_oam.c ****     cmm_err_t ret = CMM_ERR_OK;
  57              		.loc 1 32 5 view .LVU3
  58              	.LVL1:
  33:../switch_sdk/core/fal/tiger/fal_tiger_oam.c ****     yt_macid_t macid;
  59              		.loc 1 33 5 view .LVU4
  34:../switch_sdk/core/fal/tiger/fal_tiger_oam.c ****     uint32_t enable_mask;
  60              		.loc 1 34 5 view .LVU5
  35:../switch_sdk/core/fal/tiger/fal_tiger_oam.c **** 
  36:../switch_sdk/core/fal/tiger/fal_tiger_oam.c ****     macid = CAL_YTP_TO_MAC(unit,port);
  61              		.loc 1 36 5 view .LVU6
  62              		.loc 1 36 13 is_stmt 0 view .LVU7
  63 0008 364B     		ldr	r3, .L17
  64 000a 1B78     		ldrb	r3, [r3]	@ zero_extendqisi2
  65 000c 53B1     		cbz	r3, .L9
  66              		.loc 1 36 13 discriminator 1 view .LVU8
  67 000e 364B     		ldr	r3, .L17+4
  68 0010 53F82030 		ldr	r3, [r3, r0, lsl #2]
  69 0014 1A7D     		ldrb	r2, [r3, #20]	@ zero_extendqisi2
  70              	.LVL2:
  71              		.loc 1 36 13 discriminator 1 view .LVU9
  72 0016 8A42     		cmp	r2, r1
  73 0018 18D9     		bls	.L10
  74              		.loc 1 36 13 discriminator 3 view .LVU10
  75 001a 0631     		adds	r1, r1, #6
  76              	.LVL3:
  77              		.loc 1 36 13 discriminator 3 view .LVU11
  78 001c 53F82130 		ldr	r3, [r3, r1, lsl #2]
  79 0020 1F78     		ldrb	r7, [r3]	@ zero_extendqisi2
  80 0022 00E0     		b	.L2
  81              	.LVL4:
  82              	.L9:
  83              		.loc 1 36 13 view .LVU12
  84 0024 FF27     		movs	r7, #255
  85              	.LVL5:
  86              	.L2:
  37:../switch_sdk/core/fal/tiger/fal_tiger_oam.c **** 
  38:../switch_sdk/core/fal/tiger/fal_tiger_oam.c ****     CMM_ERR_CHK(HAL_TBL_REG_READ(unit, OAM_EN_CTRLm, 0, sizeof(oam_en_ctrl_t), &entry), ret);
  87              		.loc 1 38 5 is_stmt 1 discriminator 6 view .LVU13
  88              		.loc 1 38 5 discriminator 6 view .LVU14
  89 0026 03AA     		add	r2, sp, #12
  90 0028 0092     		str	r2, [sp]
  91 002a 0423     		movs	r3, #4
  92 002c 0022     		movs	r2, #0
  93 002e 2921     		movs	r1, #41
  94 0030 2846     		mov	r0, r5
  95              	.LVL6:
  96              		.loc 1 38 5 is_stmt 0 discriminator 6 view .LVU15
  97 0032 FFF7FEFF 		bl	hal_table_reg_read
  98              	.LVL7:
  99 0036 0446     		mov	r4, r0
 100              	.LVL8:
 101              		.loc 1 38 5 discriminator 6 view .LVU16
 102 0038 10F0FF03 		ands	r3, r0, #255
 103 003c 18D0     		beq	.L3
 104              		.loc 1 38 5 is_stmt 1 discriminator 1 view .LVU17
 105              		.loc 1 38 5 discriminator 1 view .LVU18
 106 003e 2B4A     		ldr	r2, .L17+8
 107 0040 1278     		ldrb	r2, [r2]	@ zero_extendqisi2
 108 0042 012A     		cmp	r2, #1
 109 0044 04D8     		bhi	.L13
 110              	.LVL9:
 111              	.L4:
 112              		.loc 1 38 5 discriminator 5 view .LVU19
 113              		.loc 1 38 5 discriminator 5 view .LVU20
 114              		.loc 1 38 5 discriminator 5 view .LVU21
 115 0046 E0B2     		uxtb	r0, r4
 116              	.LVL10:
 117              	.L1:
  39:../switch_sdk/core/fal/tiger/fal_tiger_oam.c ****     HAL_FIELD_GET(OAM_EN_CTRLm, OAM_EN_CTRL_ENf, &entry, &enable_mask);
  40:../switch_sdk/core/fal/tiger/fal_tiger_oam.c ****     if (enable == YT_ENABLE)
  41:../switch_sdk/core/fal/tiger/fal_tiger_oam.c ****     {
  42:../switch_sdk/core/fal/tiger/fal_tiger_oam.c ****         enable_mask |= (1 << macid);
  43:../switch_sdk/core/fal/tiger/fal_tiger_oam.c ****     }
  44:../switch_sdk/core/fal/tiger/fal_tiger_oam.c ****     else
  45:../switch_sdk/core/fal/tiger/fal_tiger_oam.c ****     {
  46:../switch_sdk/core/fal/tiger/fal_tiger_oam.c ****         enable_mask &= ~(1 << macid);
  47:../switch_sdk/core/fal/tiger/fal_tiger_oam.c ****     }
  48:../switch_sdk/core/fal/tiger/fal_tiger_oam.c ****     HAL_FIELD_SET(OAM_EN_CTRLm, OAM_EN_CTRL_ENf, &entry, enable_mask);
  49:../switch_sdk/core/fal/tiger/fal_tiger_oam.c ****     CMM_ERR_CHK(HAL_TBL_REG_WRITE(unit, OAM_EN_CTRLm, 0, sizeof(oam_en_ctrl_t), &entry), ret);
  50:../switch_sdk/core/fal/tiger/fal_tiger_oam.c **** 
  51:../switch_sdk/core/fal/tiger/fal_tiger_oam.c ****     return CMM_ERR_OK;
  52:../switch_sdk/core/fal/tiger/fal_tiger_oam.c **** }
 118              		.loc 1 52 1 is_stmt 0 view .LVU22
 119 0048 05B0     		add	sp, sp, #20
 120              		.cfi_remember_state
 121              		.cfi_def_cfa_offset 20
 122              		@ sp needed
 123 004a F0BD     		pop	{r4, r5, r6, r7, pc}
 124              	.LVL11:
 125              	.L10:
 126              		.cfi_restore_state
  36:../switch_sdk/core/fal/tiger/fal_tiger_oam.c **** 
 127              		.loc 1 36 13 view .LVU23
 128 004c FF27     		movs	r7, #255
 129 004e EAE7     		b	.L2
 130              	.LVL12:
 131              	.L13:
  38:../switch_sdk/core/fal/tiger/fal_tiger_oam.c ****     HAL_FIELD_GET(OAM_EN_CTRLm, OAM_EN_CTRL_ENf, &entry, &enable_mask);
 132              		.loc 1 38 5 is_stmt 1 discriminator 3 view .LVU24
 133              	.LBB2:
  38:../switch_sdk/core/fal/tiger/fal_tiger_oam.c ****     HAL_FIELD_GET(OAM_EN_CTRLm, OAM_EN_CTRL_ENf, &entry, &enable_mask);
 134              		.loc 1 38 5 discriminator 3 view .LVU25
 135 0050 142B     		cmp	r3, #20
 136 0052 28BF     		it	cs
 137 0054 1423     		movcs	r3, #20
 138 0056 1A46     		mov	r2, r3
 139 0058 254B     		ldr	r3, .L17+12
 140 005a 0093     		str	r3, [sp]
 141 005c 254B     		ldr	r3, .L17+16
 142 005e 2649     		ldr	r1, .L17+20
 143 0060 51F82220 		ldr	r2, [r1, r2, lsl #2]
 144 0064 2549     		ldr	r1, .L17+24
 145 0066 8968     		ldr	r1, [r1, #8]
 146 0068 2548     		ldr	r0, .L17+28
 147              	.LVL13:
  38:../switch_sdk/core/fal/tiger/fal_tiger_oam.c ****     HAL_FIELD_GET(OAM_EN_CTRLm, OAM_EN_CTRL_ENf, &entry, &enable_mask);
 148              		.loc 1 38 5 is_stmt 0 discriminator 3 view .LVU26
 149 006a FFF7FEFF 		bl	osal_printf
 150              	.LVL14:
 151 006e EAE7     		b	.L4
 152              	.LVL15:
 153              	.L3:
  38:../switch_sdk/core/fal/tiger/fal_tiger_oam.c ****     HAL_FIELD_GET(OAM_EN_CTRLm, OAM_EN_CTRL_ENf, &entry, &enable_mask);
 154              		.loc 1 38 5 discriminator 3 view .LVU27
 155              	.LBE2:
  38:../switch_sdk/core/fal/tiger/fal_tiger_oam.c ****     HAL_FIELD_GET(OAM_EN_CTRLm, OAM_EN_CTRL_ENf, &entry, &enable_mask);
 156              		.loc 1 38 5 is_stmt 1 discriminator 2 view .LVU28
  39:../switch_sdk/core/fal/tiger/fal_tiger_oam.c ****     HAL_FIELD_GET(OAM_EN_CTRLm, OAM_EN_CTRL_ENf, &entry, &enable_mask);
 157              		.loc 1 39 5 discriminator 2 view .LVU29
 158              	.LBB3:
  39:../switch_sdk/core/fal/tiger/fal_tiger_oam.c ****     HAL_FIELD_GET(OAM_EN_CTRLm, OAM_EN_CTRL_ENf, &entry, &enable_mask);
 159              		.loc 1 39 5 discriminator 2 view .LVU30
  39:../switch_sdk/core/fal/tiger/fal_tiger_oam.c ****     HAL_FIELD_GET(OAM_EN_CTRLm, OAM_EN_CTRL_ENf, &entry, &enable_mask);
 160              		.loc 1 39 5 discriminator 2 view .LVU31
 161 0070 02AB     		add	r3, sp, #8
 162 0072 03AA     		add	r2, sp, #12
 163 0074 0021     		movs	r1, #0
 164 0076 2920     		movs	r0, #41
 165              	.LVL16:
  39:../switch_sdk/core/fal/tiger/fal_tiger_oam.c ****     HAL_FIELD_GET(OAM_EN_CTRLm, OAM_EN_CTRL_ENf, &entry, &enable_mask);
 166              		.loc 1 39 5 is_stmt 0 discriminator 2 view .LVU32
 167 0078 FFF7FEFF 		bl	hal_tbl_reg_field_get
 168              	.LVL17:
  39:../switch_sdk/core/fal/tiger/fal_tiger_oam.c ****     HAL_FIELD_GET(OAM_EN_CTRLm, OAM_EN_CTRL_ENf, &entry, &enable_mask);
 169              		.loc 1 39 5 is_stmt 1 discriminator 2 view .LVU33
 170 007c 029B     		ldr	r3, [sp, #8]
 171              	.LVL18:
  39:../switch_sdk/core/fal/tiger/fal_tiger_oam.c ****     HAL_FIELD_GET(OAM_EN_CTRLm, OAM_EN_CTRL_ENf, &entry, &enable_mask);
 172              		.loc 1 39 5 is_stmt 0 discriminator 2 view .LVU34
 173              	.LBE3:
  39:../switch_sdk/core/fal/tiger/fal_tiger_oam.c ****     HAL_FIELD_GET(OAM_EN_CTRLm, OAM_EN_CTRL_ENf, &entry, &enable_mask);
 174              		.loc 1 39 5 is_stmt 1 discriminator 2 view .LVU35
  40:../switch_sdk/core/fal/tiger/fal_tiger_oam.c ****     {
 175              		.loc 1 40 5 discriminator 2 view .LVU36
  40:../switch_sdk/core/fal/tiger/fal_tiger_oam.c ****     {
 176              		.loc 1 40 8 is_stmt 0 discriminator 2 view .LVU37
 177 007e 012E     		cmp	r6, #1
 178 0080 16D0     		beq	.L14
  46:../switch_sdk/core/fal/tiger/fal_tiger_oam.c ****     }
 179              		.loc 1 46 9 is_stmt 1 view .LVU38
  46:../switch_sdk/core/fal/tiger/fal_tiger_oam.c ****     }
 180              		.loc 1 46 28 is_stmt 0 view .LVU39
 181 0082 0122     		movs	r2, #1
 182 0084 BA40     		lsls	r2, r2, r7
  46:../switch_sdk/core/fal/tiger/fal_tiger_oam.c ****     }
 183              		.loc 1 46 21 view .LVU40
 184 0086 23EA0203 		bic	r3, r3, r2
 185              	.LVL19:
 186              	.L7:
  48:../switch_sdk/core/fal/tiger/fal_tiger_oam.c ****     CMM_ERR_CHK(HAL_TBL_REG_WRITE(unit, OAM_EN_CTRLm, 0, sizeof(oam_en_ctrl_t), &entry), ret);
 187              		.loc 1 48 5 is_stmt 1 view .LVU41
 188 008a 03AC     		add	r4, sp, #12
 189 008c 2246     		mov	r2, r4
 190 008e 0021     		movs	r1, #0
 191 0090 2920     		movs	r0, #41
 192 0092 FFF7FEFF 		bl	hal_tbl_reg_field_set
 193              	.LVL20:
  49:../switch_sdk/core/fal/tiger/fal_tiger_oam.c **** 
 194              		.loc 1 49 5 view .LVU42
  49:../switch_sdk/core/fal/tiger/fal_tiger_oam.c **** 
 195              		.loc 1 49 5 view .LVU43
 196 0096 0094     		str	r4, [sp]
 197 0098 0423     		movs	r3, #4
 198 009a 0022     		movs	r2, #0
 199 009c 2921     		movs	r1, #41
 200 009e 2846     		mov	r0, r5
 201 00a0 FFF7FEFF 		bl	hal_table_reg_write
 202              	.LVL21:
 203 00a4 0446     		mov	r4, r0
 204              	.LVL22:
  49:../switch_sdk/core/fal/tiger/fal_tiger_oam.c **** 
 205              		.loc 1 49 5 is_stmt 0 view .LVU44
 206 00a6 10F0FF03 		ands	r3, r0, #255
 207 00aa 05D1     		bne	.L15
  51:../switch_sdk/core/fal/tiger/fal_tiger_oam.c **** }
 208              		.loc 1 51 12 view .LVU45
 209 00ac 0020     		movs	r0, #0
 210              	.LVL23:
  51:../switch_sdk/core/fal/tiger/fal_tiger_oam.c **** }
 211              		.loc 1 51 12 view .LVU46
 212 00ae CBE7     		b	.L1
 213              	.LVL24:
 214              	.L14:
  42:../switch_sdk/core/fal/tiger/fal_tiger_oam.c ****     }
 215              		.loc 1 42 9 is_stmt 1 view .LVU47
  42:../switch_sdk/core/fal/tiger/fal_tiger_oam.c ****     }
 216              		.loc 1 42 27 is_stmt 0 view .LVU48
 217 00b0 0122     		movs	r2, #1
 218 00b2 BA40     		lsls	r2, r2, r7
  42:../switch_sdk/core/fal/tiger/fal_tiger_oam.c ****     }
 219              		.loc 1 42 21 view .LVU49
 220 00b4 1343     		orrs	r3, r3, r2
 221              	.LVL25:
  42:../switch_sdk/core/fal/tiger/fal_tiger_oam.c ****     }
 222              		.loc 1 42 21 view .LVU50
 223 00b6 E8E7     		b	.L7
 224              	.LVL26:
 225              	.L15:
  49:../switch_sdk/core/fal/tiger/fal_tiger_oam.c **** 
 226              		.loc 1 49 5 is_stmt 1 discriminator 1 view .LVU51
  49:../switch_sdk/core/fal/tiger/fal_tiger_oam.c **** 
 227              		.loc 1 49 5 discriminator 1 view .LVU52
 228 00b8 0C4A     		ldr	r2, .L17+8
 229 00ba 1278     		ldrb	r2, [r2]	@ zero_extendqisi2
 230 00bc 012A     		cmp	r2, #1
 231 00be 01D8     		bhi	.L16
 232              	.LVL27:
 233              	.L8:
  49:../switch_sdk/core/fal/tiger/fal_tiger_oam.c **** 
 234              		.loc 1 49 5 discriminator 5 view .LVU53
  49:../switch_sdk/core/fal/tiger/fal_tiger_oam.c **** 
 235              		.loc 1 49 5 discriminator 5 view .LVU54
  49:../switch_sdk/core/fal/tiger/fal_tiger_oam.c **** 
 236              		.loc 1 49 5 discriminator 5 view .LVU55
 237 00c0 E0B2     		uxtb	r0, r4
 238 00c2 C1E7     		b	.L1
 239              	.LVL28:
 240              	.L16:
  49:../switch_sdk/core/fal/tiger/fal_tiger_oam.c **** 
 241              		.loc 1 49 5 discriminator 3 view .LVU56
 242              	.LBB4:
  49:../switch_sdk/core/fal/tiger/fal_tiger_oam.c **** 
 243              		.loc 1 49 5 discriminator 3 view .LVU57
 244 00c4 142B     		cmp	r3, #20
 245 00c6 28BF     		it	cs
 246 00c8 1423     		movcs	r3, #20
 247 00ca 1A46     		mov	r2, r3
 248 00cc 084B     		ldr	r3, .L17+12
 249 00ce 0093     		str	r3, [sp]
 250 00d0 0C4B     		ldr	r3, .L17+32
 251 00d2 0949     		ldr	r1, .L17+20
 252 00d4 51F82220 		ldr	r2, [r1, r2, lsl #2]
 253 00d8 0849     		ldr	r1, .L17+24
 254 00da 8968     		ldr	r1, [r1, #8]
 255 00dc 0848     		ldr	r0, .L17+28
 256              	.LVL29:
  49:../switch_sdk/core/fal/tiger/fal_tiger_oam.c **** 
 257              		.loc 1 49 5 is_stmt 0 discriminator 3 view .LVU58
 258 00de FFF7FEFF 		bl	osal_printf
 259              	.LVL30:
 260 00e2 EDE7     		b	.L8
 261              	.L18:
 262              		.align	2
 263              	.L17:
 264 00e4 00000000 		.word	gcal_inited
 265 00e8 00000000 		.word	gpSwitchUnit
 266 00ec 00000000 		.word	yt_debug_level
 267 00f0 00000000 		.word	__FUNCTION__.7
 268 00f4 00000000 		.word	.LC0
 269 00f8 00000000 		.word	_yt_errmsg
 270 00fc 00000000 		.word	_yt_prompt_msg
 271 0100 3C000000 		.word	.LC1
 272 0104 54000000 		.word	.LC2
 273              	.LBE4:
 274              		.cfi_endproc
 275              	.LFE3:
 277              		.section	.text.fal_tiger_oam_en_get,"ax",%progbits
 278              		.align	1
 279              		.global	fal_tiger_oam_en_get
 280              		.syntax unified
 281              		.thumb
 282              		.thumb_func
 284              	fal_tiger_oam_en_get:
 285              	.LVL31:
 286              	.LFB4:
  53:../switch_sdk/core/fal/tiger/fal_tiger_oam.c **** 
  54:../switch_sdk/core/fal/tiger/fal_tiger_oam.c **** yt_ret_t fal_tiger_oam_en_get(yt_unit_t unit, yt_port_t port, yt_enable_t *pEnable)
  55:../switch_sdk/core/fal/tiger/fal_tiger_oam.c **** {
 287              		.loc 1 55 1 is_stmt 1 view -0
 288              		.cfi_startproc
 289              		@ args = 0, pretend = 0, frame = 8
 290              		@ frame_needed = 0, uses_anonymous_args = 0
 291              		.loc 1 55 1 is_stmt 0 view .LVU60
 292 0000 70B5     		push	{r4, r5, r6, lr}
 293              		.cfi_def_cfa_offset 16
 294              		.cfi_offset 4, -16
 295              		.cfi_offset 5, -12
 296              		.cfi_offset 6, -8
 297              		.cfi_offset 14, -4
 298 0002 84B0     		sub	sp, sp, #16
 299              		.cfi_def_cfa_offset 32
 300 0004 1546     		mov	r5, r2
  56:../switch_sdk/core/fal/tiger/fal_tiger_oam.c ****     oam_en_ctrl_t entry;
 301              		.loc 1 56 5 is_stmt 1 view .LVU61
  57:../switch_sdk/core/fal/tiger/fal_tiger_oam.c ****     cmm_err_t ret = CMM_ERR_OK;
 302              		.loc 1 57 5 view .LVU62
 303              	.LVL32:
  58:../switch_sdk/core/fal/tiger/fal_tiger_oam.c ****     yt_macid_t macid;
 304              		.loc 1 58 5 view .LVU63
  59:../switch_sdk/core/fal/tiger/fal_tiger_oam.c ****     uint32_t enable_mask;
 305              		.loc 1 59 5 view .LVU64
  60:../switch_sdk/core/fal/tiger/fal_tiger_oam.c **** 
  61:../switch_sdk/core/fal/tiger/fal_tiger_oam.c ****     macid = CAL_YTP_TO_MAC(unit,port);
 306              		.loc 1 61 5 view .LVU65
 307              		.loc 1 61 13 is_stmt 0 view .LVU66
 308 0006 204B     		ldr	r3, .L28
 309 0008 1B78     		ldrb	r3, [r3]	@ zero_extendqisi2
 310 000a 53B1     		cbz	r3, .L24
 311              		.loc 1 61 13 discriminator 1 view .LVU67
 312 000c 1F4B     		ldr	r3, .L28+4
 313 000e 53F82030 		ldr	r3, [r3, r0, lsl #2]
 314 0012 1A7D     		ldrb	r2, [r3, #20]	@ zero_extendqisi2
 315              	.LVL33:
 316              		.loc 1 61 13 discriminator 1 view .LVU68
 317 0014 8A42     		cmp	r2, r1
 318 0016 17D9     		bls	.L25
 319              		.loc 1 61 13 discriminator 3 view .LVU69
 320 0018 0631     		adds	r1, r1, #6
 321              	.LVL34:
 322              		.loc 1 61 13 discriminator 3 view .LVU70
 323 001a 53F82130 		ldr	r3, [r3, r1, lsl #2]
 324 001e 1E78     		ldrb	r6, [r3]	@ zero_extendqisi2
 325 0020 00E0     		b	.L20
 326              	.LVL35:
 327              	.L24:
 328              		.loc 1 61 13 view .LVU71
 329 0022 FF26     		movs	r6, #255
 330              	.LVL36:
 331              	.L20:
  62:../switch_sdk/core/fal/tiger/fal_tiger_oam.c **** 
  63:../switch_sdk/core/fal/tiger/fal_tiger_oam.c ****     CMM_ERR_CHK(HAL_TBL_REG_READ(unit, OAM_EN_CTRLm, 0, sizeof(oam_en_ctrl_t), &entry), ret);
 332              		.loc 1 63 5 is_stmt 1 discriminator 6 view .LVU72
 333              		.loc 1 63 5 discriminator 6 view .LVU73
 334 0024 03AB     		add	r3, sp, #12
 335 0026 0093     		str	r3, [sp]
 336 0028 0423     		movs	r3, #4
 337 002a 0022     		movs	r2, #0
 338 002c 2921     		movs	r1, #41
 339 002e FFF7FEFF 		bl	hal_table_reg_read
 340              	.LVL37:
 341              		.loc 1 63 5 is_stmt 0 discriminator 6 view .LVU74
 342 0032 0446     		mov	r4, r0
 343              	.LVL38:
 344              		.loc 1 63 5 discriminator 6 view .LVU75
 345 0034 10F0FF03 		ands	r3, r0, #255
 346 0038 18D0     		beq	.L21
 347              		.loc 1 63 5 is_stmt 1 discriminator 1 view .LVU76
 348              		.loc 1 63 5 discriminator 1 view .LVU77
 349 003a 154A     		ldr	r2, .L28+8
 350 003c 1278     		ldrb	r2, [r2]	@ zero_extendqisi2
 351 003e 012A     		cmp	r2, #1
 352 0040 04D8     		bhi	.L27
 353              	.LVL39:
 354              	.L22:
 355              		.loc 1 63 5 discriminator 5 view .LVU78
 356              		.loc 1 63 5 discriminator 5 view .LVU79
 357              		.loc 1 63 5 discriminator 5 view .LVU80
 358 0042 E0B2     		uxtb	r0, r4
 359              	.L19:
  64:../switch_sdk/core/fal/tiger/fal_tiger_oam.c ****     HAL_FIELD_GET(OAM_EN_CTRLm, OAM_EN_CTRL_ENf, &entry, &enable_mask);
  65:../switch_sdk/core/fal/tiger/fal_tiger_oam.c ****     *pEnable = IS_BIT_SET(enable_mask, macid) ? YT_ENABLE : YT_DISABLE;
  66:../switch_sdk/core/fal/tiger/fal_tiger_oam.c **** 
  67:../switch_sdk/core/fal/tiger/fal_tiger_oam.c ****     return CMM_ERR_OK;
  68:../switch_sdk/core/fal/tiger/fal_tiger_oam.c **** }
 360              		.loc 1 68 1 is_stmt 0 view .LVU81
 361 0044 04B0     		add	sp, sp, #16
 362              		.cfi_remember_state
 363              		.cfi_def_cfa_offset 16
 364              		@ sp needed
 365 0046 70BD     		pop	{r4, r5, r6, pc}
 366              	.LVL40:
 367              	.L25:
 368              		.cfi_restore_state
  61:../switch_sdk/core/fal/tiger/fal_tiger_oam.c **** 
 369              		.loc 1 61 13 view .LVU82
 370 0048 FF26     		movs	r6, #255
 371 004a EBE7     		b	.L20
 372              	.LVL41:
 373              	.L27:
  63:../switch_sdk/core/fal/tiger/fal_tiger_oam.c ****     HAL_FIELD_GET(OAM_EN_CTRLm, OAM_EN_CTRL_ENf, &entry, &enable_mask);
 374              		.loc 1 63 5 is_stmt 1 discriminator 3 view .LVU83
 375              	.LBB5:
  63:../switch_sdk/core/fal/tiger/fal_tiger_oam.c ****     HAL_FIELD_GET(OAM_EN_CTRLm, OAM_EN_CTRL_ENf, &entry, &enable_mask);
 376              		.loc 1 63 5 discriminator 3 view .LVU84
 377 004c 142B     		cmp	r3, #20
 378 004e 28BF     		it	cs
 379 0050 1423     		movcs	r3, #20
 380 0052 1A46     		mov	r2, r3
 381 0054 0F4B     		ldr	r3, .L28+12
 382 0056 0093     		str	r3, [sp]
 383 0058 0F4B     		ldr	r3, .L28+16
 384 005a 1049     		ldr	r1, .L28+20
 385 005c 51F82220 		ldr	r2, [r1, r2, lsl #2]
 386 0060 0F49     		ldr	r1, .L28+24
 387 0062 8968     		ldr	r1, [r1, #8]
 388 0064 0F48     		ldr	r0, .L28+28
 389              	.LVL42:
  63:../switch_sdk/core/fal/tiger/fal_tiger_oam.c ****     HAL_FIELD_GET(OAM_EN_CTRLm, OAM_EN_CTRL_ENf, &entry, &enable_mask);
 390              		.loc 1 63 5 is_stmt 0 discriminator 3 view .LVU85
 391 0066 FFF7FEFF 		bl	osal_printf
 392              	.LVL43:
 393 006a EAE7     		b	.L22
 394              	.LVL44:
 395              	.L21:
  63:../switch_sdk/core/fal/tiger/fal_tiger_oam.c ****     HAL_FIELD_GET(OAM_EN_CTRLm, OAM_EN_CTRL_ENf, &entry, &enable_mask);
 396              		.loc 1 63 5 discriminator 3 view .LVU86
 397              	.LBE5:
  63:../switch_sdk/core/fal/tiger/fal_tiger_oam.c ****     HAL_FIELD_GET(OAM_EN_CTRLm, OAM_EN_CTRL_ENf, &entry, &enable_mask);
 398              		.loc 1 63 5 is_stmt 1 discriminator 2 view .LVU87
  64:../switch_sdk/core/fal/tiger/fal_tiger_oam.c ****     HAL_FIELD_GET(OAM_EN_CTRLm, OAM_EN_CTRL_ENf, &entry, &enable_mask);
 399              		.loc 1 64 5 discriminator 2 view .LVU88
 400              	.LBB6:
  64:../switch_sdk/core/fal/tiger/fal_tiger_oam.c ****     HAL_FIELD_GET(OAM_EN_CTRLm, OAM_EN_CTRL_ENf, &entry, &enable_mask);
 401              		.loc 1 64 5 discriminator 2 view .LVU89
  64:../switch_sdk/core/fal/tiger/fal_tiger_oam.c ****     HAL_FIELD_GET(OAM_EN_CTRLm, OAM_EN_CTRL_ENf, &entry, &enable_mask);
 402              		.loc 1 64 5 discriminator 2 view .LVU90
 403 006c 02AB     		add	r3, sp, #8
 404 006e 03AA     		add	r2, sp, #12
 405 0070 0021     		movs	r1, #0
 406 0072 2920     		movs	r0, #41
 407              	.LVL45:
  64:../switch_sdk/core/fal/tiger/fal_tiger_oam.c ****     HAL_FIELD_GET(OAM_EN_CTRLm, OAM_EN_CTRL_ENf, &entry, &enable_mask);
 408              		.loc 1 64 5 is_stmt 0 discriminator 2 view .LVU91
 409 0074 FFF7FEFF 		bl	hal_tbl_reg_field_get
 410              	.LVL46:
  64:../switch_sdk/core/fal/tiger/fal_tiger_oam.c ****     HAL_FIELD_GET(OAM_EN_CTRLm, OAM_EN_CTRL_ENf, &entry, &enable_mask);
 411              		.loc 1 64 5 is_stmt 1 discriminator 2 view .LVU92
 412 0078 029B     		ldr	r3, [sp, #8]
 413              	.LVL47:
  64:../switch_sdk/core/fal/tiger/fal_tiger_oam.c ****     HAL_FIELD_GET(OAM_EN_CTRLm, OAM_EN_CTRL_ENf, &entry, &enable_mask);
 414              		.loc 1 64 5 is_stmt 0 discriminator 2 view .LVU93
 415              	.LBE6:
  64:../switch_sdk/core/fal/tiger/fal_tiger_oam.c ****     HAL_FIELD_GET(OAM_EN_CTRLm, OAM_EN_CTRL_ENf, &entry, &enable_mask);
 416              		.loc 1 64 5 is_stmt 1 discriminator 2 view .LVU94
  65:../switch_sdk/core/fal/tiger/fal_tiger_oam.c **** 
 417              		.loc 1 65 5 discriminator 2 view .LVU95
  65:../switch_sdk/core/fal/tiger/fal_tiger_oam.c **** 
 418              		.loc 1 65 16 is_stmt 0 discriminator 2 view .LVU96
 419 007a F340     		lsrs	r3, r3, r6
 420              	.LVL48:
  65:../switch_sdk/core/fal/tiger/fal_tiger_oam.c **** 
 421              		.loc 1 65 59 discriminator 2 view .LVU97
 422 007c 03F00103 		and	r3, r3, #1
  65:../switch_sdk/core/fal/tiger/fal_tiger_oam.c **** 
 423              		.loc 1 65 14 discriminator 2 view .LVU98
 424 0080 2B70     		strb	r3, [r5]
 425              	.LVL49:
  67:../switch_sdk/core/fal/tiger/fal_tiger_oam.c **** }
 426              		.loc 1 67 5 is_stmt 1 discriminator 2 view .LVU99
  67:../switch_sdk/core/fal/tiger/fal_tiger_oam.c **** }
 427              		.loc 1 67 12 is_stmt 0 discriminator 2 view .LVU100
 428 0082 0020     		movs	r0, #0
 429 0084 DEE7     		b	.L19
 430              	.L29:
 431 0086 00BF     		.align	2
 432              	.L28:
 433 0088 00000000 		.word	gcal_inited
 434 008c 00000000 		.word	gpSwitchUnit
 435 0090 00000000 		.word	yt_debug_level
 436 0094 00000000 		.word	__FUNCTION__.6
 437 0098 00000000 		.word	.LC0
 438 009c 00000000 		.word	_yt_errmsg
 439 00a0 00000000 		.word	_yt_prompt_msg
 440 00a4 3C000000 		.word	.LC1
 441              		.cfi_endproc
 442              	.LFE4:
 444              		.section	.rodata.fal_tiger_oam_bypass_accessctrl_set.str1.4,"aMS",%progbits,1
 445              		.align	2
 446              	.LC3:
 447 0000 68616C5F 		.ascii	"hal_table_reg_read(unit,167,0,sizeof(oam_par_act_t)"
 447      7461626C 
 447      655F7265 
 447      675F7265 
 447      61642875 
 448 0033 2C26656E 		.ascii	",&entry)\000"
 448      74727929 
 448      00
 449              		.align	2
 450              	.LC4:
 451 003c 68616C5F 		.ascii	"hal_table_reg_write(unit,167,0,sizeof(oam_par_act_t"
 451      7461626C 
 451      655F7265 
 451      675F7772 
 451      69746528 
 452 006f 292C2665 		.ascii	"),&entry)\000"
 452      6E747279 
 452      2900
 453              		.section	.text.fal_tiger_oam_bypass_accessctrl_set,"ax",%progbits
 454              		.align	1
 455              		.global	fal_tiger_oam_bypass_accessctrl_set
 456              		.syntax unified
 457              		.thumb
 458              		.thumb_func
 460              	fal_tiger_oam_bypass_accessctrl_set:
 461              	.LVL50:
 462              	.LFB5:
  69:../switch_sdk/core/fal/tiger/fal_tiger_oam.c **** 
  70:../switch_sdk/core/fal/tiger/fal_tiger_oam.c **** yt_ret_t fal_tiger_oam_bypass_accessctrl_set(yt_unit_t unit, yt_enable_t enable)
  71:../switch_sdk/core/fal/tiger/fal_tiger_oam.c **** {
 463              		.loc 1 71 1 is_stmt 1 view -0
 464              		.cfi_startproc
 465              		@ args = 0, pretend = 0, frame = 8
 466              		@ frame_needed = 0, uses_anonymous_args = 0
 467              		.loc 1 71 1 is_stmt 0 view .LVU102
 468 0000 70B5     		push	{r4, r5, r6, lr}
 469              		.cfi_def_cfa_offset 16
 470              		.cfi_offset 4, -16
 471              		.cfi_offset 5, -12
 472              		.cfi_offset 6, -8
 473              		.cfi_offset 14, -4
 474 0002 84B0     		sub	sp, sp, #16
 475              		.cfi_def_cfa_offset 32
 476 0004 0546     		mov	r5, r0
 477 0006 0E46     		mov	r6, r1
  72:../switch_sdk/core/fal/tiger/fal_tiger_oam.c ****     oam_par_act_t entry;
 478              		.loc 1 72 5 is_stmt 1 view .LVU103
  73:../switch_sdk/core/fal/tiger/fal_tiger_oam.c ****     cmm_err_t ret = CMM_ERR_OK;
 479              		.loc 1 73 5 view .LVU104
 480              	.LVL51:
  74:../switch_sdk/core/fal/tiger/fal_tiger_oam.c **** 
  75:../switch_sdk/core/fal/tiger/fal_tiger_oam.c ****     CMM_ERR_CHK(HAL_TBL_REG_READ(unit, OAM_PAR_ACTm, 0, sizeof(oam_par_act_t), &entry), ret);
 481              		.loc 1 75 5 view .LVU105
 482              		.loc 1 75 5 view .LVU106
 483 0008 03AB     		add	r3, sp, #12
 484 000a 0093     		str	r3, [sp]
 485 000c 0423     		movs	r3, #4
 486 000e 0022     		movs	r2, #0
 487 0010 A721     		movs	r1, #167
 488              	.LVL52:
 489              		.loc 1 75 5 is_stmt 0 view .LVU107
 490 0012 FFF7FEFF 		bl	hal_table_reg_read
 491              	.LVL53:
 492              		.loc 1 75 5 view .LVU108
 493 0016 10F0FF03 		ands	r3, r0, #255
 494 001a 17D0     		beq	.L31
 495 001c 0446     		mov	r4, r0
 496              		.loc 1 75 5 is_stmt 1 discriminator 1 view .LVU109
 497              		.loc 1 75 5 discriminator 1 view .LVU110
 498 001e 204A     		ldr	r2, .L40
 499 0020 1278     		ldrb	r2, [r2]	@ zero_extendqisi2
 500 0022 012A     		cmp	r2, #1
 501 0024 02D8     		bhi	.L37
 502              	.LVL54:
 503              	.L32:
 504              		.loc 1 75 5 discriminator 5 view .LVU111
 505              		.loc 1 75 5 discriminator 5 view .LVU112
 506              		.loc 1 75 5 discriminator 5 view .LVU113
 507 0026 E0B2     		uxtb	r0, r4
 508              	.LVL55:
 509              	.L30:
  76:../switch_sdk/core/fal/tiger/fal_tiger_oam.c ****     HAL_FIELD_SET(OAM_PAR_ACTm, OAM_PAR_ACT_BYPASS_IM_AC_ENf, &entry, enable);
  77:../switch_sdk/core/fal/tiger/fal_tiger_oam.c ****     CMM_ERR_CHK(HAL_TBL_REG_WRITE(unit, OAM_PAR_ACTm, 0, sizeof(oam_par_act_t), &entry), ret);
  78:../switch_sdk/core/fal/tiger/fal_tiger_oam.c **** 
  79:../switch_sdk/core/fal/tiger/fal_tiger_oam.c ****     return CMM_ERR_OK;
  80:../switch_sdk/core/fal/tiger/fal_tiger_oam.c **** }
 510              		.loc 1 80 1 is_stmt 0 view .LVU114
 511 0028 04B0     		add	sp, sp, #16
 512              		.cfi_remember_state
 513              		.cfi_def_cfa_offset 16
 514              		@ sp needed
 515 002a 70BD     		pop	{r4, r5, r6, pc}
 516              	.LVL56:
 517              	.L37:
 518              		.cfi_restore_state
  75:../switch_sdk/core/fal/tiger/fal_tiger_oam.c ****     HAL_FIELD_SET(OAM_PAR_ACTm, OAM_PAR_ACT_BYPASS_IM_AC_ENf, &entry, enable);
 519              		.loc 1 75 5 is_stmt 1 discriminator 3 view .LVU115
 520              	.LBB7:
  75:../switch_sdk/core/fal/tiger/fal_tiger_oam.c ****     HAL_FIELD_SET(OAM_PAR_ACTm, OAM_PAR_ACT_BYPASS_IM_AC_ENf, &entry, enable);
 521              		.loc 1 75 5 discriminator 3 view .LVU116
 522 002c 142B     		cmp	r3, #20
 523 002e 28BF     		it	cs
 524 0030 1423     		movcs	r3, #20
 525 0032 1A46     		mov	r2, r3
 526 0034 1B4B     		ldr	r3, .L40+4
 527 0036 0093     		str	r3, [sp]
 528 0038 1B4B     		ldr	r3, .L40+8
 529 003a 1C49     		ldr	r1, .L40+12
 530 003c 51F82220 		ldr	r2, [r1, r2, lsl #2]
 531 0040 1B49     		ldr	r1, .L40+16
 532 0042 8968     		ldr	r1, [r1, #8]
 533 0044 1B48     		ldr	r0, .L40+20
 534              	.LVL57:
  75:../switch_sdk/core/fal/tiger/fal_tiger_oam.c ****     HAL_FIELD_SET(OAM_PAR_ACTm, OAM_PAR_ACT_BYPASS_IM_AC_ENf, &entry, enable);
 535              		.loc 1 75 5 is_stmt 0 discriminator 3 view .LVU117
 536 0046 FFF7FEFF 		bl	osal_printf
 537              	.LVL58:
 538 004a ECE7     		b	.L32
 539              	.LVL59:
 540              	.L31:
  75:../switch_sdk/core/fal/tiger/fal_tiger_oam.c ****     HAL_FIELD_SET(OAM_PAR_ACTm, OAM_PAR_ACT_BYPASS_IM_AC_ENf, &entry, enable);
 541              		.loc 1 75 5 discriminator 3 view .LVU118
 542              	.LBE7:
  75:../switch_sdk/core/fal/tiger/fal_tiger_oam.c ****     HAL_FIELD_SET(OAM_PAR_ACTm, OAM_PAR_ACT_BYPASS_IM_AC_ENf, &entry, enable);
 543              		.loc 1 75 5 is_stmt 1 discriminator 2 view .LVU119
  76:../switch_sdk/core/fal/tiger/fal_tiger_oam.c ****     HAL_FIELD_SET(OAM_PAR_ACTm, OAM_PAR_ACT_BYPASS_IM_AC_ENf, &entry, enable);
 544              		.loc 1 76 5 discriminator 2 view .LVU120
 545 004c 03AC     		add	r4, sp, #12
 546 004e 3346     		mov	r3, r6
 547 0050 2246     		mov	r2, r4
 548 0052 0121     		movs	r1, #1
 549 0054 A720     		movs	r0, #167
 550              	.LVL60:
  76:../switch_sdk/core/fal/tiger/fal_tiger_oam.c ****     HAL_FIELD_SET(OAM_PAR_ACTm, OAM_PAR_ACT_BYPASS_IM_AC_ENf, &entry, enable);
 551              		.loc 1 76 5 is_stmt 0 discriminator 2 view .LVU121
 552 0056 FFF7FEFF 		bl	hal_tbl_reg_field_set
 553              	.LVL61:
  77:../switch_sdk/core/fal/tiger/fal_tiger_oam.c **** 
 554              		.loc 1 77 5 is_stmt 1 discriminator 2 view .LVU122
  77:../switch_sdk/core/fal/tiger/fal_tiger_oam.c **** 
 555              		.loc 1 77 5 discriminator 2 view .LVU123
 556 005a 0094     		str	r4, [sp]
 557 005c 0423     		movs	r3, #4
 558 005e 0022     		movs	r2, #0
 559 0060 A721     		movs	r1, #167
 560 0062 2846     		mov	r0, r5
 561 0064 FFF7FEFF 		bl	hal_table_reg_write
 562              	.LVL62:
 563 0068 0446     		mov	r4, r0
 564              	.LVL63:
  77:../switch_sdk/core/fal/tiger/fal_tiger_oam.c **** 
 565              		.loc 1 77 5 is_stmt 0 discriminator 2 view .LVU124
 566 006a 10F0FF03 		ands	r3, r0, #255
 567 006e 01D1     		bne	.L38
  79:../switch_sdk/core/fal/tiger/fal_tiger_oam.c **** }
 568              		.loc 1 79 12 view .LVU125
 569 0070 0020     		movs	r0, #0
 570              	.LVL64:
  79:../switch_sdk/core/fal/tiger/fal_tiger_oam.c **** }
 571              		.loc 1 79 12 view .LVU126
 572 0072 D9E7     		b	.L30
 573              	.LVL65:
 574              	.L38:
  77:../switch_sdk/core/fal/tiger/fal_tiger_oam.c **** 
 575              		.loc 1 77 5 is_stmt 1 discriminator 1 view .LVU127
  77:../switch_sdk/core/fal/tiger/fal_tiger_oam.c **** 
 576              		.loc 1 77 5 discriminator 1 view .LVU128
 577 0074 0A4A     		ldr	r2, .L40
 578 0076 1278     		ldrb	r2, [r2]	@ zero_extendqisi2
 579 0078 012A     		cmp	r2, #1
 580 007a 01D8     		bhi	.L39
 581              	.LVL66:
 582              	.L34:
  77:../switch_sdk/core/fal/tiger/fal_tiger_oam.c **** 
 583              		.loc 1 77 5 discriminator 5 view .LVU129
  77:../switch_sdk/core/fal/tiger/fal_tiger_oam.c **** 
 584              		.loc 1 77 5 discriminator 5 view .LVU130
  77:../switch_sdk/core/fal/tiger/fal_tiger_oam.c **** 
 585              		.loc 1 77 5 discriminator 5 view .LVU131
 586 007c E0B2     		uxtb	r0, r4
 587 007e D3E7     		b	.L30
 588              	.LVL67:
 589              	.L39:
  77:../switch_sdk/core/fal/tiger/fal_tiger_oam.c **** 
 590              		.loc 1 77 5 discriminator 3 view .LVU132
 591              	.LBB8:
  77:../switch_sdk/core/fal/tiger/fal_tiger_oam.c **** 
 592              		.loc 1 77 5 discriminator 3 view .LVU133
 593 0080 142B     		cmp	r3, #20
 594 0082 28BF     		it	cs
 595 0084 1423     		movcs	r3, #20
 596 0086 1A46     		mov	r2, r3
 597 0088 064B     		ldr	r3, .L40+4
 598 008a 0093     		str	r3, [sp]
 599 008c 0A4B     		ldr	r3, .L40+24
 600 008e 0749     		ldr	r1, .L40+12
 601 0090 51F82220 		ldr	r2, [r1, r2, lsl #2]
 602 0094 0649     		ldr	r1, .L40+16
 603 0096 8968     		ldr	r1, [r1, #8]
 604 0098 0648     		ldr	r0, .L40+20
 605              	.LVL68:
  77:../switch_sdk/core/fal/tiger/fal_tiger_oam.c **** 
 606              		.loc 1 77 5 is_stmt 0 discriminator 3 view .LVU134
 607 009a FFF7FEFF 		bl	osal_printf
 608              	.LVL69:
 609 009e EDE7     		b	.L34
 610              	.L41:
 611              		.align	2
 612              	.L40:
 613 00a0 00000000 		.word	yt_debug_level
 614 00a4 00000000 		.word	__FUNCTION__.5
 615 00a8 00000000 		.word	.LC3
 616 00ac 00000000 		.word	_yt_errmsg
 617 00b0 00000000 		.word	_yt_prompt_msg
 618 00b4 3C000000 		.word	.LC1
 619 00b8 3C000000 		.word	.LC4
 620              	.LBE8:
 621              		.cfi_endproc
 622              	.LFE5:
 624              		.section	.text.fal_tiger_oam_bypass_accessctrl_get,"ax",%progbits
 625              		.align	1
 626              		.global	fal_tiger_oam_bypass_accessctrl_get
 627              		.syntax unified
 628              		.thumb
 629              		.thumb_func
 631              	fal_tiger_oam_bypass_accessctrl_get:
 632              	.LVL70:
 633              	.LFB6:
  81:../switch_sdk/core/fal/tiger/fal_tiger_oam.c **** 
  82:../switch_sdk/core/fal/tiger/fal_tiger_oam.c **** yt_ret_t fal_tiger_oam_bypass_accessctrl_get(yt_unit_t unit, yt_enable_t *pEnable)
  83:../switch_sdk/core/fal/tiger/fal_tiger_oam.c **** {
 634              		.loc 1 83 1 is_stmt 1 view -0
 635              		.cfi_startproc
 636              		@ args = 0, pretend = 0, frame = 8
 637              		@ frame_needed = 0, uses_anonymous_args = 0
 638              		.loc 1 83 1 is_stmt 0 view .LVU136
 639 0000 30B5     		push	{r4, r5, lr}
 640              		.cfi_def_cfa_offset 12
 641              		.cfi_offset 4, -12
 642              		.cfi_offset 5, -8
 643              		.cfi_offset 14, -4
 644 0002 85B0     		sub	sp, sp, #20
 645              		.cfi_def_cfa_offset 32
 646 0004 0D46     		mov	r5, r1
  84:../switch_sdk/core/fal/tiger/fal_tiger_oam.c ****     oam_par_act_t entry;
 647              		.loc 1 84 5 is_stmt 1 view .LVU137
  85:../switch_sdk/core/fal/tiger/fal_tiger_oam.c ****     cmm_err_t ret = CMM_ERR_OK;
 648              		.loc 1 85 5 view .LVU138
 649              	.LVL71:
  86:../switch_sdk/core/fal/tiger/fal_tiger_oam.c ****     uint32_t enable;
 650              		.loc 1 86 5 view .LVU139
  87:../switch_sdk/core/fal/tiger/fal_tiger_oam.c **** 
  88:../switch_sdk/core/fal/tiger/fal_tiger_oam.c ****     CMM_ERR_CHK(HAL_TBL_REG_READ(unit, OAM_PAR_ACTm, 0, sizeof(oam_par_act_t), &entry), ret);
 651              		.loc 1 88 5 view .LVU140
 652              		.loc 1 88 5 view .LVU141
 653 0006 03AB     		add	r3, sp, #12
 654 0008 0093     		str	r3, [sp]
 655 000a 0423     		movs	r3, #4
 656 000c 0022     		movs	r2, #0
 657 000e A721     		movs	r1, #167
 658              	.LVL72:
 659              		.loc 1 88 5 is_stmt 0 view .LVU142
 660 0010 FFF7FEFF 		bl	hal_table_reg_read
 661              	.LVL73:
 662              		.loc 1 88 5 view .LVU143
 663 0014 10F0FF03 		ands	r3, r0, #255
 664 0018 17D0     		beq	.L43
 665 001a 0446     		mov	r4, r0
 666              		.loc 1 88 5 is_stmt 1 discriminator 1 view .LVU144
 667              		.loc 1 88 5 discriminator 1 view .LVU145
 668 001c 114A     		ldr	r2, .L48
 669 001e 1278     		ldrb	r2, [r2]	@ zero_extendqisi2
 670 0020 012A     		cmp	r2, #1
 671 0022 02D8     		bhi	.L47
 672              	.LVL74:
 673              	.L44:
 674              		.loc 1 88 5 discriminator 5 view .LVU146
 675              		.loc 1 88 5 discriminator 5 view .LVU147
 676              		.loc 1 88 5 discriminator 5 view .LVU148
 677 0024 E0B2     		uxtb	r0, r4
 678              	.L42:
  89:../switch_sdk/core/fal/tiger/fal_tiger_oam.c ****     HAL_FIELD_GET(OAM_PAR_ACTm, OAM_PAR_ACT_BYPASS_IM_AC_ENf, &entry, &enable);
  90:../switch_sdk/core/fal/tiger/fal_tiger_oam.c ****     *pEnable = enable ? YT_ENABLE : YT_DISABLE;
  91:../switch_sdk/core/fal/tiger/fal_tiger_oam.c **** 
  92:../switch_sdk/core/fal/tiger/fal_tiger_oam.c ****     return CMM_ERR_OK;
  93:../switch_sdk/core/fal/tiger/fal_tiger_oam.c **** }
 679              		.loc 1 93 1 is_stmt 0 view .LVU149
 680 0026 05B0     		add	sp, sp, #20
 681              		.cfi_remember_state
 682              		.cfi_def_cfa_offset 12
 683              		@ sp needed
 684 0028 30BD     		pop	{r4, r5, pc}
 685              	.LVL75:
 686              	.L47:
 687              		.cfi_restore_state
  88:../switch_sdk/core/fal/tiger/fal_tiger_oam.c ****     HAL_FIELD_GET(OAM_PAR_ACTm, OAM_PAR_ACT_BYPASS_IM_AC_ENf, &entry, &enable);
 688              		.loc 1 88 5 is_stmt 1 discriminator 3 view .LVU150
 689              	.LBB9:
  88:../switch_sdk/core/fal/tiger/fal_tiger_oam.c ****     HAL_FIELD_GET(OAM_PAR_ACTm, OAM_PAR_ACT_BYPASS_IM_AC_ENf, &entry, &enable);
 690              		.loc 1 88 5 discriminator 3 view .LVU151
 691 002a 142B     		cmp	r3, #20
 692 002c 28BF     		it	cs
 693 002e 1423     		movcs	r3, #20
 694 0030 1A46     		mov	r2, r3
 695 0032 0D4B     		ldr	r3, .L48+4
 696 0034 0093     		str	r3, [sp]
 697 0036 0D4B     		ldr	r3, .L48+8
 698 0038 0D49     		ldr	r1, .L48+12
 699 003a 51F82220 		ldr	r2, [r1, r2, lsl #2]
 700 003e 0D49     		ldr	r1, .L48+16
 701 0040 8968     		ldr	r1, [r1, #8]
 702 0042 0D48     		ldr	r0, .L48+20
 703              	.LVL76:
  88:../switch_sdk/core/fal/tiger/fal_tiger_oam.c ****     HAL_FIELD_GET(OAM_PAR_ACTm, OAM_PAR_ACT_BYPASS_IM_AC_ENf, &entry, &enable);
 704              		.loc 1 88 5 is_stmt 0 discriminator 3 view .LVU152
 705 0044 FFF7FEFF 		bl	osal_printf
 706              	.LVL77:
 707 0048 ECE7     		b	.L44
 708              	.LVL78:
 709              	.L43:
  88:../switch_sdk/core/fal/tiger/fal_tiger_oam.c ****     HAL_FIELD_GET(OAM_PAR_ACTm, OAM_PAR_ACT_BYPASS_IM_AC_ENf, &entry, &enable);
 710              		.loc 1 88 5 discriminator 3 view .LVU153
 711              	.LBE9:
  88:../switch_sdk/core/fal/tiger/fal_tiger_oam.c ****     HAL_FIELD_GET(OAM_PAR_ACTm, OAM_PAR_ACT_BYPASS_IM_AC_ENf, &entry, &enable);
 712              		.loc 1 88 5 is_stmt 1 discriminator 2 view .LVU154
  89:../switch_sdk/core/fal/tiger/fal_tiger_oam.c ****     HAL_FIELD_GET(OAM_PAR_ACTm, OAM_PAR_ACT_BYPASS_IM_AC_ENf, &entry, &enable);
 713              		.loc 1 89 5 discriminator 2 view .LVU155
 714              	.LBB10:
  89:../switch_sdk/core/fal/tiger/fal_tiger_oam.c ****     HAL_FIELD_GET(OAM_PAR_ACTm, OAM_PAR_ACT_BYPASS_IM_AC_ENf, &entry, &enable);
 715              		.loc 1 89 5 discriminator 2 view .LVU156
  89:../switch_sdk/core/fal/tiger/fal_tiger_oam.c ****     HAL_FIELD_GET(OAM_PAR_ACTm, OAM_PAR_ACT_BYPASS_IM_AC_ENf, &entry, &enable);
 716              		.loc 1 89 5 discriminator 2 view .LVU157
 717 004a 02AB     		add	r3, sp, #8
 718 004c 03AA     		add	r2, sp, #12
 719 004e 0121     		movs	r1, #1
 720 0050 A720     		movs	r0, #167
 721              	.LVL79:
  89:../switch_sdk/core/fal/tiger/fal_tiger_oam.c ****     HAL_FIELD_GET(OAM_PAR_ACTm, OAM_PAR_ACT_BYPASS_IM_AC_ENf, &entry, &enable);
 722              		.loc 1 89 5 is_stmt 0 discriminator 2 view .LVU158
 723 0052 FFF7FEFF 		bl	hal_tbl_reg_field_get
 724              	.LVL80:
  89:../switch_sdk/core/fal/tiger/fal_tiger_oam.c ****     HAL_FIELD_GET(OAM_PAR_ACTm, OAM_PAR_ACT_BYPASS_IM_AC_ENf, &entry, &enable);
 725              		.loc 1 89 5 is_stmt 1 discriminator 2 view .LVU159
  89:../switch_sdk/core/fal/tiger/fal_tiger_oam.c ****     HAL_FIELD_GET(OAM_PAR_ACTm, OAM_PAR_ACT_BYPASS_IM_AC_ENf, &entry, &enable);
 726              		.loc 1 89 5 is_stmt 0 discriminator 2 view .LVU160
 727              	.LBE10:
  89:../switch_sdk/core/fal/tiger/fal_tiger_oam.c ****     HAL_FIELD_GET(OAM_PAR_ACTm, OAM_PAR_ACT_BYPASS_IM_AC_ENf, &entry, &enable);
 728              		.loc 1 89 5 is_stmt 1 discriminator 2 view .LVU161
  90:../switch_sdk/core/fal/tiger/fal_tiger_oam.c **** 
 729              		.loc 1 90 5 discriminator 2 view .LVU162
  90:../switch_sdk/core/fal/tiger/fal_tiger_oam.c **** 
 730              		.loc 1 90 35 is_stmt 0 discriminator 2 view .LVU163
 731 0056 029B     		ldr	r3, [sp, #8]
 732 0058 003B     		subs	r3, r3, #0
 733 005a 18BF     		it	ne
 734 005c 0123     		movne	r3, #1
  90:../switch_sdk/core/fal/tiger/fal_tiger_oam.c **** 
 735              		.loc 1 90 14 discriminator 2 view .LVU164
 736 005e 2B70     		strb	r3, [r5]
 737              	.LVL81:
  92:../switch_sdk/core/fal/tiger/fal_tiger_oam.c **** }
 738              		.loc 1 92 5 is_stmt 1 discriminator 2 view .LVU165
  92:../switch_sdk/core/fal/tiger/fal_tiger_oam.c **** }
 739              		.loc 1 92 12 is_stmt 0 discriminator 2 view .LVU166
 740 0060 0020     		movs	r0, #0
 741 0062 E0E7     		b	.L42
 742              	.L49:
 743              		.align	2
 744              	.L48:
 745 0064 00000000 		.word	yt_debug_level
 746 0068 00000000 		.word	__FUNCTION__.4
 747 006c 00000000 		.word	.LC3
 748 0070 00000000 		.word	_yt_errmsg
 749 0074 00000000 		.word	_yt_prompt_msg
 750 0078 3C000000 		.word	.LC1
 751              		.cfi_endproc
 752              	.LFE6:
 754              		.section	.text.fal_tiger_oam_parser_act_set,"ax",%progbits
 755              		.align	1
 756              		.global	fal_tiger_oam_parser_act_set
 757              		.syntax unified
 758              		.thumb
 759              		.thumb_func
 761              	fal_tiger_oam_parser_act_set:
 762              	.LVL82:
 763              	.LFB7:
  94:../switch_sdk/core/fal/tiger/fal_tiger_oam.c **** 
  95:../switch_sdk/core/fal/tiger/fal_tiger_oam.c **** yt_ret_t fal_tiger_oam_parser_act_set(yt_unit_t unit, yt_port_t port, yt_oam_parser_action_t action
  96:../switch_sdk/core/fal/tiger/fal_tiger_oam.c **** {
 764              		.loc 1 96 1 is_stmt 1 view -0
 765              		.cfi_startproc
 766              		@ args = 0, pretend = 0, frame = 8
 767              		@ frame_needed = 0, uses_anonymous_args = 0
 768              		.loc 1 96 1 is_stmt 0 view .LVU168
 769 0000 F0B5     		push	{r4, r5, r6, r7, lr}
 770              		.cfi_def_cfa_offset 20
 771              		.cfi_offset 4, -20
 772              		.cfi_offset 5, -16
 773              		.cfi_offset 6, -12
 774              		.cfi_offset 7, -8
 775              		.cfi_offset 14, -4
 776 0002 85B0     		sub	sp, sp, #20
 777              		.cfi_def_cfa_offset 40
 778 0004 0546     		mov	r5, r0
 779 0006 1746     		mov	r7, r2
  97:../switch_sdk/core/fal/tiger/fal_tiger_oam.c ****     oam_par_act_t entry;
 780              		.loc 1 97 5 is_stmt 1 view .LVU169
  98:../switch_sdk/core/fal/tiger/fal_tiger_oam.c ****     cmm_err_t ret = CMM_ERR_OK;
 781              		.loc 1 98 5 view .LVU170
 782              	.LVL83:
  99:../switch_sdk/core/fal/tiger/fal_tiger_oam.c ****     yt_macid_t macid;
 783              		.loc 1 99 5 view .LVU171
 100:../switch_sdk/core/fal/tiger/fal_tiger_oam.c ****     uint32_t par_act;
 784              		.loc 1 100 5 view .LVU172
 101:../switch_sdk/core/fal/tiger/fal_tiger_oam.c **** 
 102:../switch_sdk/core/fal/tiger/fal_tiger_oam.c ****     macid = CAL_YTP_TO_MAC(unit,port);
 785              		.loc 1 102 5 view .LVU173
 786              		.loc 1 102 13 is_stmt 0 view .LVU174
 787 0008 354B     		ldr	r3, .L63
 788 000a 1B78     		ldrb	r3, [r3]	@ zero_extendqisi2
 789 000c 53B1     		cbz	r3, .L56
 790              		.loc 1 102 13 discriminator 1 view .LVU175
 791 000e 354B     		ldr	r3, .L63+4
 792 0010 53F82030 		ldr	r3, [r3, r0, lsl #2]
 793 0014 1A7D     		ldrb	r2, [r3, #20]	@ zero_extendqisi2
 794              	.LVL84:
 795              		.loc 1 102 13 discriminator 1 view .LVU176
 796 0016 8A42     		cmp	r2, r1
 797 0018 18D9     		bls	.L57
 798              		.loc 1 102 13 discriminator 3 view .LVU177
 799 001a 0631     		adds	r1, r1, #6
 800              	.LVL85:
 801              		.loc 1 102 13 discriminator 3 view .LVU178
 802 001c 53F82130 		ldr	r3, [r3, r1, lsl #2]
 803 0020 1E78     		ldrb	r6, [r3]	@ zero_extendqisi2
 804 0022 00E0     		b	.L51
 805              	.LVL86:
 806              	.L56:
 807              		.loc 1 102 13 view .LVU179
 808 0024 FF26     		movs	r6, #255
 809              	.LVL87:
 810              	.L51:
 103:../switch_sdk/core/fal/tiger/fal_tiger_oam.c **** 
 104:../switch_sdk/core/fal/tiger/fal_tiger_oam.c ****     CMM_ERR_CHK(HAL_TBL_REG_READ(unit, OAM_PAR_ACTm, 0, sizeof(oam_par_act_t), &entry), ret);
 811              		.loc 1 104 5 is_stmt 1 discriminator 6 view .LVU180
 812              		.loc 1 104 5 discriminator 6 view .LVU181
 813 0026 03AB     		add	r3, sp, #12
 814 0028 0093     		str	r3, [sp]
 815 002a 0423     		movs	r3, #4
 816 002c 0022     		movs	r2, #0
 817 002e A721     		movs	r1, #167
 818 0030 2846     		mov	r0, r5
 819              	.LVL88:
 820              		.loc 1 104 5 is_stmt 0 discriminator 6 view .LVU182
 821 0032 FFF7FEFF 		bl	hal_table_reg_read
 822              	.LVL89:
 823 0036 0446     		mov	r4, r0
 824              	.LVL90:
 825              		.loc 1 104 5 discriminator 6 view .LVU183
 826 0038 10F0FF03 		ands	r3, r0, #255
 827 003c 18D0     		beq	.L52
 828              		.loc 1 104 5 is_stmt 1 discriminator 1 view .LVU184
 829              		.loc 1 104 5 discriminator 1 view .LVU185
 830 003e 2A4A     		ldr	r2, .L63+8
 831 0040 1278     		ldrb	r2, [r2]	@ zero_extendqisi2
 832 0042 012A     		cmp	r2, #1
 833 0044 04D8     		bhi	.L60
 834              	.LVL91:
 835              	.L53:
 836              		.loc 1 104 5 discriminator 5 view .LVU186
 837              		.loc 1 104 5 discriminator 5 view .LVU187
 838              		.loc 1 104 5 discriminator 5 view .LVU188
 839 0046 E0B2     		uxtb	r0, r4
 840              	.LVL92:
 841              	.L50:
 105:../switch_sdk/core/fal/tiger/fal_tiger_oam.c ****     HAL_FIELD_GET(OAM_PAR_ACTm, OAM_PAR_ACT_PAR_ACTf, &entry, &par_act);
 106:../switch_sdk/core/fal/tiger/fal_tiger_oam.c ****     par_act &= ~(0x3 << (macid * 2));
 107:../switch_sdk/core/fal/tiger/fal_tiger_oam.c ****     par_act |= (action << (macid * 2));
 108:../switch_sdk/core/fal/tiger/fal_tiger_oam.c ****     HAL_FIELD_SET(OAM_PAR_ACTm, OAM_PAR_ACT_PAR_ACTf, &entry, par_act);
 109:../switch_sdk/core/fal/tiger/fal_tiger_oam.c ****     CMM_ERR_CHK(HAL_TBL_REG_WRITE(unit, OAM_PAR_ACTm, 0, sizeof(oam_par_act_t), &entry), ret);
 110:../switch_sdk/core/fal/tiger/fal_tiger_oam.c **** 
 111:../switch_sdk/core/fal/tiger/fal_tiger_oam.c ****     return CMM_ERR_OK;
 112:../switch_sdk/core/fal/tiger/fal_tiger_oam.c **** }
 842              		.loc 1 112 1 is_stmt 0 view .LVU189
 843 0048 05B0     		add	sp, sp, #20
 844              		.cfi_remember_state
 845              		.cfi_def_cfa_offset 20
 846              		@ sp needed
 847 004a F0BD     		pop	{r4, r5, r6, r7, pc}
 848              	.LVL93:
 849              	.L57:
 850              		.cfi_restore_state
 102:../switch_sdk/core/fal/tiger/fal_tiger_oam.c **** 
 851              		.loc 1 102 13 view .LVU190
 852 004c FF26     		movs	r6, #255
 853 004e EAE7     		b	.L51
 854              	.LVL94:
 855              	.L60:
 104:../switch_sdk/core/fal/tiger/fal_tiger_oam.c ****     HAL_FIELD_GET(OAM_PAR_ACTm, OAM_PAR_ACT_PAR_ACTf, &entry, &par_act);
 856              		.loc 1 104 5 is_stmt 1 discriminator 3 view .LVU191
 857              	.LBB11:
 104:../switch_sdk/core/fal/tiger/fal_tiger_oam.c ****     HAL_FIELD_GET(OAM_PAR_ACTm, OAM_PAR_ACT_PAR_ACTf, &entry, &par_act);
 858              		.loc 1 104 5 discriminator 3 view .LVU192
 859 0050 142B     		cmp	r3, #20
 860 0052 28BF     		it	cs
 861 0054 1423     		movcs	r3, #20
 862 0056 1A46     		mov	r2, r3
 863 0058 244B     		ldr	r3, .L63+12
 864 005a 0093     		str	r3, [sp]
 865 005c 244B     		ldr	r3, .L63+16
 866 005e 2549     		ldr	r1, .L63+20
 867 0060 51F82220 		ldr	r2, [r1, r2, lsl #2]
 868 0064 2449     		ldr	r1, .L63+24
 869 0066 8968     		ldr	r1, [r1, #8]
 870 0068 2448     		ldr	r0, .L63+28
 871              	.LVL95:
 104:../switch_sdk/core/fal/tiger/fal_tiger_oam.c ****     HAL_FIELD_GET(OAM_PAR_ACTm, OAM_PAR_ACT_PAR_ACTf, &entry, &par_act);
 872              		.loc 1 104 5 is_stmt 0 discriminator 3 view .LVU193
 873 006a FFF7FEFF 		bl	osal_printf
 874              	.LVL96:
 875 006e EAE7     		b	.L53
 876              	.LVL97:
 877              	.L52:
 104:../switch_sdk/core/fal/tiger/fal_tiger_oam.c ****     HAL_FIELD_GET(OAM_PAR_ACTm, OAM_PAR_ACT_PAR_ACTf, &entry, &par_act);
 878              		.loc 1 104 5 discriminator 3 view .LVU194
 879              	.LBE11:
 104:../switch_sdk/core/fal/tiger/fal_tiger_oam.c ****     HAL_FIELD_GET(OAM_PAR_ACTm, OAM_PAR_ACT_PAR_ACTf, &entry, &par_act);
 880              		.loc 1 104 5 is_stmt 1 discriminator 2 view .LVU195
 105:../switch_sdk/core/fal/tiger/fal_tiger_oam.c ****     HAL_FIELD_GET(OAM_PAR_ACTm, OAM_PAR_ACT_PAR_ACTf, &entry, &par_act);
 881              		.loc 1 105 5 discriminator 2 view .LVU196
 882              	.LBB12:
 105:../switch_sdk/core/fal/tiger/fal_tiger_oam.c ****     HAL_FIELD_GET(OAM_PAR_ACTm, OAM_PAR_ACT_PAR_ACTf, &entry, &par_act);
 883              		.loc 1 105 5 discriminator 2 view .LVU197
 105:../switch_sdk/core/fal/tiger/fal_tiger_oam.c ****     HAL_FIELD_GET(OAM_PAR_ACTm, OAM_PAR_ACT_PAR_ACTf, &entry, &par_act);
 884              		.loc 1 105 5 discriminator 2 view .LVU198
 885 0070 03AC     		add	r4, sp, #12
 886 0072 02AB     		add	r3, sp, #8
 887 0074 2246     		mov	r2, r4
 888 0076 0021     		movs	r1, #0
 889 0078 A720     		movs	r0, #167
 890              	.LVL98:
 105:../switch_sdk/core/fal/tiger/fal_tiger_oam.c ****     HAL_FIELD_GET(OAM_PAR_ACTm, OAM_PAR_ACT_PAR_ACTf, &entry, &par_act);
 891              		.loc 1 105 5 is_stmt 0 discriminator 2 view .LVU199
 892 007a FFF7FEFF 		bl	hal_tbl_reg_field_get
 893              	.LVL99:
 105:../switch_sdk/core/fal/tiger/fal_tiger_oam.c ****     HAL_FIELD_GET(OAM_PAR_ACTm, OAM_PAR_ACT_PAR_ACTf, &entry, &par_act);
 894              		.loc 1 105 5 is_stmt 1 discriminator 2 view .LVU200
 105:../switch_sdk/core/fal/tiger/fal_tiger_oam.c ****     HAL_FIELD_GET(OAM_PAR_ACTm, OAM_PAR_ACT_PAR_ACTf, &entry, &par_act);
 895              		.loc 1 105 5 is_stmt 0 discriminator 2 view .LVU201
 896              	.LBE12:
 105:../switch_sdk/core/fal/tiger/fal_tiger_oam.c ****     HAL_FIELD_GET(OAM_PAR_ACTm, OAM_PAR_ACT_PAR_ACTf, &entry, &par_act);
 897              		.loc 1 105 5 is_stmt 1 discriminator 2 view .LVU202
 106:../switch_sdk/core/fal/tiger/fal_tiger_oam.c ****     par_act |= (action << (macid * 2));
 898              		.loc 1 106 5 discriminator 2 view .LVU203
 106:../switch_sdk/core/fal/tiger/fal_tiger_oam.c ****     par_act |= (action << (macid * 2));
 899              		.loc 1 106 32 is_stmt 0 discriminator 2 view .LVU204
 900 007e 7600     		lsls	r6, r6, #1
 901              	.LVL100:
 106:../switch_sdk/core/fal/tiger/fal_tiger_oam.c ****     par_act |= (action << (macid * 2));
 902              		.loc 1 106 22 discriminator 2 view .LVU205
 903 0080 0322     		movs	r2, #3
 904 0082 B240     		lsls	r2, r2, r6
 106:../switch_sdk/core/fal/tiger/fal_tiger_oam.c ****     par_act |= (action << (macid * 2));
 905              		.loc 1 106 13 discriminator 2 view .LVU206
 906 0084 029B     		ldr	r3, [sp, #8]
 907 0086 23EA0202 		bic	r2, r3, r2
 908              	.LVL101:
 107:../switch_sdk/core/fal/tiger/fal_tiger_oam.c ****     HAL_FIELD_SET(OAM_PAR_ACTm, OAM_PAR_ACT_PAR_ACTf, &entry, par_act);
 909              		.loc 1 107 5 is_stmt 1 discriminator 2 view .LVU207
 107:../switch_sdk/core/fal/tiger/fal_tiger_oam.c ****     HAL_FIELD_SET(OAM_PAR_ACTm, OAM_PAR_ACT_PAR_ACTf, &entry, par_act);
 910              		.loc 1 107 24 is_stmt 0 discriminator 2 view .LVU208
 911 008a 07FA06F3 		lsl	r3, r7, r6
 912              	.LVL102:
 108:../switch_sdk/core/fal/tiger/fal_tiger_oam.c ****     CMM_ERR_CHK(HAL_TBL_REG_WRITE(unit, OAM_PAR_ACTm, 0, sizeof(oam_par_act_t), &entry), ret);
 913              		.loc 1 108 5 is_stmt 1 discriminator 2 view .LVU209
 914 008e 1343     		orrs	r3, r3, r2
 915              	.LVL103:
 108:../switch_sdk/core/fal/tiger/fal_tiger_oam.c ****     CMM_ERR_CHK(HAL_TBL_REG_WRITE(unit, OAM_PAR_ACTm, 0, sizeof(oam_par_act_t), &entry), ret);
 916              		.loc 1 108 5 is_stmt 0 discriminator 2 view .LVU210
 917 0090 2246     		mov	r2, r4
 918 0092 0021     		movs	r1, #0
 919 0094 A720     		movs	r0, #167
 920 0096 FFF7FEFF 		bl	hal_tbl_reg_field_set
 921              	.LVL104:
 109:../switch_sdk/core/fal/tiger/fal_tiger_oam.c **** 
 922              		.loc 1 109 5 is_stmt 1 discriminator 2 view .LVU211
 109:../switch_sdk/core/fal/tiger/fal_tiger_oam.c **** 
 923              		.loc 1 109 5 discriminator 2 view .LVU212
 924 009a 0094     		str	r4, [sp]
 925 009c 0423     		movs	r3, #4
 926 009e 0022     		movs	r2, #0
 927 00a0 A721     		movs	r1, #167
 928 00a2 2846     		mov	r0, r5
 929 00a4 FFF7FEFF 		bl	hal_table_reg_write
 930              	.LVL105:
 931 00a8 0446     		mov	r4, r0
 932              	.LVL106:
 109:../switch_sdk/core/fal/tiger/fal_tiger_oam.c **** 
 933              		.loc 1 109 5 is_stmt 0 discriminator 2 view .LVU213
 934 00aa 10F0FF03 		ands	r3, r0, #255
 935 00ae 01D1     		bne	.L61
 111:../switch_sdk/core/fal/tiger/fal_tiger_oam.c **** }
 936              		.loc 1 111 12 view .LVU214
 937 00b0 0020     		movs	r0, #0
 938              	.LVL107:
 111:../switch_sdk/core/fal/tiger/fal_tiger_oam.c **** }
 939              		.loc 1 111 12 view .LVU215
 940 00b2 C9E7     		b	.L50
 941              	.LVL108:
 942              	.L61:
 109:../switch_sdk/core/fal/tiger/fal_tiger_oam.c **** 
 943              		.loc 1 109 5 is_stmt 1 discriminator 1 view .LVU216
 109:../switch_sdk/core/fal/tiger/fal_tiger_oam.c **** 
 944              		.loc 1 109 5 discriminator 1 view .LVU217
 945 00b4 0C4A     		ldr	r2, .L63+8
 946 00b6 1278     		ldrb	r2, [r2]	@ zero_extendqisi2
 947 00b8 012A     		cmp	r2, #1
 948 00ba 01D8     		bhi	.L62
 949              	.LVL109:
 950              	.L55:
 109:../switch_sdk/core/fal/tiger/fal_tiger_oam.c **** 
 951              		.loc 1 109 5 discriminator 5 view .LVU218
 109:../switch_sdk/core/fal/tiger/fal_tiger_oam.c **** 
 952              		.loc 1 109 5 discriminator 5 view .LVU219
 109:../switch_sdk/core/fal/tiger/fal_tiger_oam.c **** 
 953              		.loc 1 109 5 discriminator 5 view .LVU220
 954 00bc E0B2     		uxtb	r0, r4
 955 00be C3E7     		b	.L50
 956              	.LVL110:
 957              	.L62:
 109:../switch_sdk/core/fal/tiger/fal_tiger_oam.c **** 
 958              		.loc 1 109 5 discriminator 3 view .LVU221
 959              	.LBB13:
 109:../switch_sdk/core/fal/tiger/fal_tiger_oam.c **** 
 960              		.loc 1 109 5 discriminator 3 view .LVU222
 961 00c0 142B     		cmp	r3, #20
 962 00c2 28BF     		it	cs
 963 00c4 1423     		movcs	r3, #20
 964 00c6 1A46     		mov	r2, r3
 965 00c8 084B     		ldr	r3, .L63+12
 966 00ca 0093     		str	r3, [sp]
 967 00cc 0C4B     		ldr	r3, .L63+32
 968 00ce 0949     		ldr	r1, .L63+20
 969 00d0 51F82220 		ldr	r2, [r1, r2, lsl #2]
 970 00d4 0849     		ldr	r1, .L63+24
 971 00d6 8968     		ldr	r1, [r1, #8]
 972 00d8 0848     		ldr	r0, .L63+28
 973              	.LVL111:
 109:../switch_sdk/core/fal/tiger/fal_tiger_oam.c **** 
 974              		.loc 1 109 5 is_stmt 0 discriminator 3 view .LVU223
 975 00da FFF7FEFF 		bl	osal_printf
 976              	.LVL112:
 977 00de EDE7     		b	.L55
 978              	.L64:
 979              		.align	2
 980              	.L63:
 981 00e0 00000000 		.word	gcal_inited
 982 00e4 00000000 		.word	gpSwitchUnit
 983 00e8 00000000 		.word	yt_debug_level
 984 00ec 00000000 		.word	__FUNCTION__.3
 985 00f0 00000000 		.word	.LC3
 986 00f4 00000000 		.word	_yt_errmsg
 987 00f8 00000000 		.word	_yt_prompt_msg
 988 00fc 3C000000 		.word	.LC1
 989 0100 3C000000 		.word	.LC4
 990              	.LBE13:
 991              		.cfi_endproc
 992              	.LFE7:
 994              		.section	.text.fal_tiger_oam_parser_act_get,"ax",%progbits
 995              		.align	1
 996              		.global	fal_tiger_oam_parser_act_get
 997              		.syntax unified
 998              		.thumb
 999              		.thumb_func
 1001              	fal_tiger_oam_parser_act_get:
 1002              	.LVL113:
 1003              	.LFB8:
 113:../switch_sdk/core/fal/tiger/fal_tiger_oam.c **** 
 114:../switch_sdk/core/fal/tiger/fal_tiger_oam.c **** yt_ret_t fal_tiger_oam_parser_act_get(yt_unit_t unit, yt_port_t port, yt_oam_parser_action_t *pacti
 115:../switch_sdk/core/fal/tiger/fal_tiger_oam.c **** {
 1004              		.loc 1 115 1 is_stmt 1 view -0
 1005              		.cfi_startproc
 1006              		@ args = 0, pretend = 0, frame = 8
 1007              		@ frame_needed = 0, uses_anonymous_args = 0
 1008              		.loc 1 115 1 is_stmt 0 view .LVU225
 1009 0000 70B5     		push	{r4, r5, r6, lr}
 1010              		.cfi_def_cfa_offset 16
 1011              		.cfi_offset 4, -16
 1012              		.cfi_offset 5, -12
 1013              		.cfi_offset 6, -8
 1014              		.cfi_offset 14, -4
 1015 0002 84B0     		sub	sp, sp, #16
 1016              		.cfi_def_cfa_offset 32
 1017 0004 1546     		mov	r5, r2
 116:../switch_sdk/core/fal/tiger/fal_tiger_oam.c ****     oam_par_act_t entry;
 1018              		.loc 1 116 5 is_stmt 1 view .LVU226
 117:../switch_sdk/core/fal/tiger/fal_tiger_oam.c ****     cmm_err_t ret = CMM_ERR_OK;
 1019              		.loc 1 117 5 view .LVU227
 1020              	.LVL114:
 118:../switch_sdk/core/fal/tiger/fal_tiger_oam.c ****     yt_macid_t macid;
 1021              		.loc 1 118 5 view .LVU228
 119:../switch_sdk/core/fal/tiger/fal_tiger_oam.c ****     uint32_t par_act;
 1022              		.loc 1 119 5 view .LVU229
 120:../switch_sdk/core/fal/tiger/fal_tiger_oam.c **** 
 121:../switch_sdk/core/fal/tiger/fal_tiger_oam.c ****     macid = CAL_YTP_TO_MAC(unit,port);
 1023              		.loc 1 121 5 view .LVU230
 1024              		.loc 1 121 13 is_stmt 0 view .LVU231
 1025 0006 204B     		ldr	r3, .L74
 1026 0008 1B78     		ldrb	r3, [r3]	@ zero_extendqisi2
 1027 000a 53B1     		cbz	r3, .L70
 1028              		.loc 1 121 13 discriminator 1 view .LVU232
 1029 000c 1F4B     		ldr	r3, .L74+4
 1030 000e 53F82030 		ldr	r3, [r3, r0, lsl #2]
 1031 0012 1A7D     		ldrb	r2, [r3, #20]	@ zero_extendqisi2
 1032              	.LVL115:
 1033              		.loc 1 121 13 discriminator 1 view .LVU233
 1034 0014 8A42     		cmp	r2, r1
 1035 0016 17D9     		bls	.L71
 1036              		.loc 1 121 13 discriminator 3 view .LVU234
 1037 0018 0631     		adds	r1, r1, #6
 1038              	.LVL116:
 1039              		.loc 1 121 13 discriminator 3 view .LVU235
 1040 001a 53F82130 		ldr	r3, [r3, r1, lsl #2]
 1041 001e 1E78     		ldrb	r6, [r3]	@ zero_extendqisi2
 1042 0020 00E0     		b	.L66
 1043              	.LVL117:
 1044              	.L70:
 1045              		.loc 1 121 13 view .LVU236
 1046 0022 FF26     		movs	r6, #255
 1047              	.LVL118:
 1048              	.L66:
 122:../switch_sdk/core/fal/tiger/fal_tiger_oam.c **** 
 123:../switch_sdk/core/fal/tiger/fal_tiger_oam.c ****     CMM_ERR_CHK(HAL_TBL_REG_READ(unit, OAM_PAR_ACTm, 0, sizeof(oam_par_act_t), &entry), ret);
 1049              		.loc 1 123 5 is_stmt 1 discriminator 6 view .LVU237
 1050              		.loc 1 123 5 discriminator 6 view .LVU238
 1051 0024 03AB     		add	r3, sp, #12
 1052 0026 0093     		str	r3, [sp]
 1053 0028 0423     		movs	r3, #4
 1054 002a 0022     		movs	r2, #0
 1055 002c A721     		movs	r1, #167
 1056 002e FFF7FEFF 		bl	hal_table_reg_read
 1057              	.LVL119:
 1058              		.loc 1 123 5 is_stmt 0 discriminator 6 view .LVU239
 1059 0032 0446     		mov	r4, r0
 1060              	.LVL120:
 1061              		.loc 1 123 5 discriminator 6 view .LVU240
 1062 0034 10F0FF03 		ands	r3, r0, #255
 1063 0038 18D0     		beq	.L67
 1064              		.loc 1 123 5 is_stmt 1 discriminator 1 view .LVU241
 1065              		.loc 1 123 5 discriminator 1 view .LVU242
 1066 003a 154A     		ldr	r2, .L74+8
 1067 003c 1278     		ldrb	r2, [r2]	@ zero_extendqisi2
 1068 003e 012A     		cmp	r2, #1
 1069 0040 04D8     		bhi	.L73
 1070              	.LVL121:
 1071              	.L68:
 1072              		.loc 1 123 5 discriminator 5 view .LVU243
 1073              		.loc 1 123 5 discriminator 5 view .LVU244
 1074              		.loc 1 123 5 discriminator 5 view .LVU245
 1075 0042 E0B2     		uxtb	r0, r4
 1076              	.LVL122:
 1077              	.L65:
 124:../switch_sdk/core/fal/tiger/fal_tiger_oam.c ****     HAL_FIELD_GET(OAM_PAR_ACTm, OAM_PAR_ACT_PAR_ACTf, &entry, &par_act);
 125:../switch_sdk/core/fal/tiger/fal_tiger_oam.c ****     *paction = (par_act >> (macid * 2)) & 0x3;
 126:../switch_sdk/core/fal/tiger/fal_tiger_oam.c **** 
 127:../switch_sdk/core/fal/tiger/fal_tiger_oam.c ****     return CMM_ERR_OK;
 128:../switch_sdk/core/fal/tiger/fal_tiger_oam.c **** }
 1078              		.loc 1 128 1 is_stmt 0 view .LVU246
 1079 0044 04B0     		add	sp, sp, #16
 1080              		.cfi_remember_state
 1081              		.cfi_def_cfa_offset 16
 1082              		@ sp needed
 1083 0046 70BD     		pop	{r4, r5, r6, pc}
 1084              	.LVL123:
 1085              	.L71:
 1086              		.cfi_restore_state
 121:../switch_sdk/core/fal/tiger/fal_tiger_oam.c **** 
 1087              		.loc 1 121 13 view .LVU247
 1088 0048 FF26     		movs	r6, #255
 1089 004a EBE7     		b	.L66
 1090              	.LVL124:
 1091              	.L73:
 123:../switch_sdk/core/fal/tiger/fal_tiger_oam.c ****     HAL_FIELD_GET(OAM_PAR_ACTm, OAM_PAR_ACT_PAR_ACTf, &entry, &par_act);
 1092              		.loc 1 123 5 is_stmt 1 discriminator 3 view .LVU248
 1093              	.LBB14:
 123:../switch_sdk/core/fal/tiger/fal_tiger_oam.c ****     HAL_FIELD_GET(OAM_PAR_ACTm, OAM_PAR_ACT_PAR_ACTf, &entry, &par_act);
 1094              		.loc 1 123 5 discriminator 3 view .LVU249
 1095 004c 142B     		cmp	r3, #20
 1096 004e 28BF     		it	cs
 1097 0050 1423     		movcs	r3, #20
 1098 0052 1A46     		mov	r2, r3
 1099 0054 0F4B     		ldr	r3, .L74+12
 1100 0056 0093     		str	r3, [sp]
 1101 0058 0F4B     		ldr	r3, .L74+16
 1102 005a 1049     		ldr	r1, .L74+20
 1103 005c 51F82220 		ldr	r2, [r1, r2, lsl #2]
 1104 0060 0F49     		ldr	r1, .L74+24
 1105 0062 8968     		ldr	r1, [r1, #8]
 1106 0064 0F48     		ldr	r0, .L74+28
 1107              	.LVL125:
 123:../switch_sdk/core/fal/tiger/fal_tiger_oam.c ****     HAL_FIELD_GET(OAM_PAR_ACTm, OAM_PAR_ACT_PAR_ACTf, &entry, &par_act);
 1108              		.loc 1 123 5 is_stmt 0 discriminator 3 view .LVU250
 1109 0066 FFF7FEFF 		bl	osal_printf
 1110              	.LVL126:
 1111 006a EAE7     		b	.L68
 1112              	.LVL127:
 1113              	.L67:
 123:../switch_sdk/core/fal/tiger/fal_tiger_oam.c ****     HAL_FIELD_GET(OAM_PAR_ACTm, OAM_PAR_ACT_PAR_ACTf, &entry, &par_act);
 1114              		.loc 1 123 5 discriminator 3 view .LVU251
 1115              	.LBE14:
 123:../switch_sdk/core/fal/tiger/fal_tiger_oam.c ****     HAL_FIELD_GET(OAM_PAR_ACTm, OAM_PAR_ACT_PAR_ACTf, &entry, &par_act);
 1116              		.loc 1 123 5 is_stmt 1 discriminator 2 view .LVU252
 124:../switch_sdk/core/fal/tiger/fal_tiger_oam.c ****     HAL_FIELD_GET(OAM_PAR_ACTm, OAM_PAR_ACT_PAR_ACTf, &entry, &par_act);
 1117              		.loc 1 124 5 discriminator 2 view .LVU253
 1118              	.LBB15:
 124:../switch_sdk/core/fal/tiger/fal_tiger_oam.c ****     HAL_FIELD_GET(OAM_PAR_ACTm, OAM_PAR_ACT_PAR_ACTf, &entry, &par_act);
 1119              		.loc 1 124 5 discriminator 2 view .LVU254
 124:../switch_sdk/core/fal/tiger/fal_tiger_oam.c ****     HAL_FIELD_GET(OAM_PAR_ACTm, OAM_PAR_ACT_PAR_ACTf, &entry, &par_act);
 1120              		.loc 1 124 5 discriminator 2 view .LVU255
 1121 006c 02AB     		add	r3, sp, #8
 1122 006e 03AA     		add	r2, sp, #12
 1123 0070 0021     		movs	r1, #0
 1124 0072 A720     		movs	r0, #167
 1125              	.LVL128:
 124:../switch_sdk/core/fal/tiger/fal_tiger_oam.c ****     HAL_FIELD_GET(OAM_PAR_ACTm, OAM_PAR_ACT_PAR_ACTf, &entry, &par_act);
 1126              		.loc 1 124 5 is_stmt 0 discriminator 2 view .LVU256
 1127 0074 FFF7FEFF 		bl	hal_tbl_reg_field_get
 1128              	.LVL129:
 124:../switch_sdk/core/fal/tiger/fal_tiger_oam.c ****     HAL_FIELD_GET(OAM_PAR_ACTm, OAM_PAR_ACT_PAR_ACTf, &entry, &par_act);
 1129              		.loc 1 124 5 is_stmt 1 discriminator 2 view .LVU257
 124:../switch_sdk/core/fal/tiger/fal_tiger_oam.c ****     HAL_FIELD_GET(OAM_PAR_ACTm, OAM_PAR_ACT_PAR_ACTf, &entry, &par_act);
 1130              		.loc 1 124 5 is_stmt 0 discriminator 2 view .LVU258
 1131              	.LBE15:
 124:../switch_sdk/core/fal/tiger/fal_tiger_oam.c ****     HAL_FIELD_GET(OAM_PAR_ACTm, OAM_PAR_ACT_PAR_ACTf, &entry, &par_act);
 1132              		.loc 1 124 5 is_stmt 1 discriminator 2 view .LVU259
 125:../switch_sdk/core/fal/tiger/fal_tiger_oam.c **** 
 1133              		.loc 1 125 5 discriminator 2 view .LVU260
 125:../switch_sdk/core/fal/tiger/fal_tiger_oam.c **** 
 1134              		.loc 1 125 35 is_stmt 0 discriminator 2 view .LVU261
 1135 0078 7600     		lsls	r6, r6, #1
 1136              	.LVL130:
 125:../switch_sdk/core/fal/tiger/fal_tiger_oam.c **** 
 1137              		.loc 1 125 25 discriminator 2 view .LVU262
 1138 007a 029B     		ldr	r3, [sp, #8]
 1139 007c F340     		lsrs	r3, r3, r6
 125:../switch_sdk/core/fal/tiger/fal_tiger_oam.c **** 
 1140              		.loc 1 125 41 discriminator 2 view .LVU263
 1141 007e 03F00303 		and	r3, r3, #3
 125:../switch_sdk/core/fal/tiger/fal_tiger_oam.c **** 
 1142              		.loc 1 125 14 discriminator 2 view .LVU264
 1143 0082 2B70     		strb	r3, [r5]
 1144              	.LVL131:
 127:../switch_sdk/core/fal/tiger/fal_tiger_oam.c **** }
 1145              		.loc 1 127 5 is_stmt 1 discriminator 2 view .LVU265
 127:../switch_sdk/core/fal/tiger/fal_tiger_oam.c **** }
 1146              		.loc 1 127 12 is_stmt 0 discriminator 2 view .LVU266
 1147 0084 0020     		movs	r0, #0
 1148 0086 DDE7     		b	.L65
 1149              	.L75:
 1150              		.align	2
 1151              	.L74:
 1152 0088 00000000 		.word	gcal_inited
 1153 008c 00000000 		.word	gpSwitchUnit
 1154 0090 00000000 		.word	yt_debug_level
 1155 0094 00000000 		.word	__FUNCTION__.2
 1156 0098 00000000 		.word	.LC3
 1157 009c 00000000 		.word	_yt_errmsg
 1158 00a0 00000000 		.word	_yt_prompt_msg
 1159 00a4 3C000000 		.word	.LC1
 1160              		.cfi_endproc
 1161              	.LFE8:
 1163              		.section	.rodata.fal_tiger_oam_mux_act_set.str1.4,"aMS",%progbits,1
 1164              		.align	2
 1165              	.LC5:
 1166 0000 68616C5F 		.ascii	"hal_table_reg_read(unit,166,0,sizeof(oam_mux_act_t)"
 1166      7461626C 
 1166      655F7265 
 1166      675F7265 
 1166      61642875 
 1167 0033 2C26656E 		.ascii	",&entry)\000"
 1167      74727929 
 1167      00
 1168              		.align	2
 1169              	.LC6:
 1170 003c 68616C5F 		.ascii	"hal_table_reg_write(unit,166,0,sizeof(oam_mux_act_t"
 1170      7461626C 
 1170      655F7265 
 1170      675F7772 
 1170      69746528 
 1171 006f 292C2665 		.ascii	"),&entry)\000"
 1171      6E747279 
 1171      2900
 1172              		.section	.text.fal_tiger_oam_mux_act_set,"ax",%progbits
 1173              		.align	1
 1174              		.global	fal_tiger_oam_mux_act_set
 1175              		.syntax unified
 1176              		.thumb
 1177              		.thumb_func
 1179              	fal_tiger_oam_mux_act_set:
 1180              	.LVL132:
 1181              	.LFB9:
 129:../switch_sdk/core/fal/tiger/fal_tiger_oam.c **** 
 130:../switch_sdk/core/fal/tiger/fal_tiger_oam.c **** yt_ret_t fal_tiger_oam_mux_act_set(yt_unit_t unit, yt_port_t port, yt_oam_mux_action_t action)
 131:../switch_sdk/core/fal/tiger/fal_tiger_oam.c **** {
 1182              		.loc 1 131 1 is_stmt 1 view -0
 1183              		.cfi_startproc
 1184              		@ args = 0, pretend = 0, frame = 8
 1185              		@ frame_needed = 0, uses_anonymous_args = 0
 1186              		.loc 1 131 1 is_stmt 0 view .LVU268
 1187 0000 F0B5     		push	{r4, r5, r6, r7, lr}
 1188              		.cfi_def_cfa_offset 20
 1189              		.cfi_offset 4, -20
 1190              		.cfi_offset 5, -16
 1191              		.cfi_offset 6, -12
 1192              		.cfi_offset 7, -8
 1193              		.cfi_offset 14, -4
 1194 0002 85B0     		sub	sp, sp, #20
 1195              		.cfi_def_cfa_offset 40
 1196 0004 0546     		mov	r5, r0
 1197 0006 1746     		mov	r7, r2
 132:../switch_sdk/core/fal/tiger/fal_tiger_oam.c ****     oam_mux_act_t entry;
 1198              		.loc 1 132 5 is_stmt 1 view .LVU269
 133:../switch_sdk/core/fal/tiger/fal_tiger_oam.c ****     cmm_err_t ret = CMM_ERR_OK;
 1199              		.loc 1 133 5 view .LVU270
 1200              	.LVL133:
 134:../switch_sdk/core/fal/tiger/fal_tiger_oam.c ****     yt_macid_t macid;
 1201              		.loc 1 134 5 view .LVU271
 135:../switch_sdk/core/fal/tiger/fal_tiger_oam.c ****     uint32_t mux_act;
 1202              		.loc 1 135 5 view .LVU272
 136:../switch_sdk/core/fal/tiger/fal_tiger_oam.c **** 
 137:../switch_sdk/core/fal/tiger/fal_tiger_oam.c ****     macid = CAL_YTP_TO_MAC(unit,port);
 1203              		.loc 1 137 5 view .LVU273
 1204              		.loc 1 137 13 is_stmt 0 view .LVU274
 1205 0008 354B     		ldr	r3, .L89
 1206 000a 1B78     		ldrb	r3, [r3]	@ zero_extendqisi2
 1207 000c 53B1     		cbz	r3, .L82
 1208              		.loc 1 137 13 discriminator 1 view .LVU275
 1209 000e 354B     		ldr	r3, .L89+4
 1210 0010 53F82030 		ldr	r3, [r3, r0, lsl #2]
 1211 0014 1A7D     		ldrb	r2, [r3, #20]	@ zero_extendqisi2
 1212              	.LVL134:
 1213              		.loc 1 137 13 discriminator 1 view .LVU276
 1214 0016 8A42     		cmp	r2, r1
 1215 0018 18D9     		bls	.L83
 1216              		.loc 1 137 13 discriminator 3 view .LVU277
 1217 001a 0631     		adds	r1, r1, #6
 1218              	.LVL135:
 1219              		.loc 1 137 13 discriminator 3 view .LVU278
 1220 001c 53F82130 		ldr	r3, [r3, r1, lsl #2]
 1221 0020 1E78     		ldrb	r6, [r3]	@ zero_extendqisi2
 1222 0022 00E0     		b	.L77
 1223              	.LVL136:
 1224              	.L82:
 1225              		.loc 1 137 13 view .LVU279
 1226 0024 FF26     		movs	r6, #255
 1227              	.LVL137:
 1228              	.L77:
 138:../switch_sdk/core/fal/tiger/fal_tiger_oam.c **** 
 139:../switch_sdk/core/fal/tiger/fal_tiger_oam.c ****     CMM_ERR_CHK(HAL_TBL_REG_READ(unit, OAM_MUX_ACTm, 0, sizeof(oam_mux_act_t), &entry), ret);
 1229              		.loc 1 139 5 is_stmt 1 discriminator 6 view .LVU280
 1230              		.loc 1 139 5 discriminator 6 view .LVU281
 1231 0026 03AB     		add	r3, sp, #12
 1232 0028 0093     		str	r3, [sp]
 1233 002a 0423     		movs	r3, #4
 1234 002c 0022     		movs	r2, #0
 1235 002e A621     		movs	r1, #166
 1236 0030 2846     		mov	r0, r5
 1237              	.LVL138:
 1238              		.loc 1 139 5 is_stmt 0 discriminator 6 view .LVU282
 1239 0032 FFF7FEFF 		bl	hal_table_reg_read
 1240              	.LVL139:
 1241 0036 0446     		mov	r4, r0
 1242              	.LVL140:
 1243              		.loc 1 139 5 discriminator 6 view .LVU283
 1244 0038 10F0FF03 		ands	r3, r0, #255
 1245 003c 18D0     		beq	.L78
 1246              		.loc 1 139 5 is_stmt 1 discriminator 1 view .LVU284
 1247              		.loc 1 139 5 discriminator 1 view .LVU285
 1248 003e 2A4A     		ldr	r2, .L89+8
 1249 0040 1278     		ldrb	r2, [r2]	@ zero_extendqisi2
 1250 0042 012A     		cmp	r2, #1
 1251 0044 04D8     		bhi	.L86
 1252              	.LVL141:
 1253              	.L79:
 1254              		.loc 1 139 5 discriminator 5 view .LVU286
 1255              		.loc 1 139 5 discriminator 5 view .LVU287
 1256              		.loc 1 139 5 discriminator 5 view .LVU288
 1257 0046 E0B2     		uxtb	r0, r4
 1258              	.LVL142:
 1259              	.L76:
 140:../switch_sdk/core/fal/tiger/fal_tiger_oam.c ****     HAL_FIELD_GET(OAM_MUX_ACTm, OAM_MUX_ACT_MUX_ACTf, &entry, &mux_act);
 141:../switch_sdk/core/fal/tiger/fal_tiger_oam.c ****     mux_act &= ~(0x3 << (macid * 2));
 142:../switch_sdk/core/fal/tiger/fal_tiger_oam.c ****     mux_act |= (action << (macid * 2));
 143:../switch_sdk/core/fal/tiger/fal_tiger_oam.c ****     HAL_FIELD_SET(OAM_MUX_ACTm, OAM_MUX_ACT_MUX_ACTf, &entry, mux_act);
 144:../switch_sdk/core/fal/tiger/fal_tiger_oam.c ****     CMM_ERR_CHK(HAL_TBL_REG_WRITE(unit, OAM_MUX_ACTm, 0, sizeof(oam_mux_act_t), &entry), ret);
 145:../switch_sdk/core/fal/tiger/fal_tiger_oam.c **** 
 146:../switch_sdk/core/fal/tiger/fal_tiger_oam.c ****     return CMM_ERR_OK;
 147:../switch_sdk/core/fal/tiger/fal_tiger_oam.c **** }
 1260              		.loc 1 147 1 is_stmt 0 view .LVU289
 1261 0048 05B0     		add	sp, sp, #20
 1262              		.cfi_remember_state
 1263              		.cfi_def_cfa_offset 20
 1264              		@ sp needed
 1265 004a F0BD     		pop	{r4, r5, r6, r7, pc}
 1266              	.LVL143:
 1267              	.L83:
 1268              		.cfi_restore_state
 137:../switch_sdk/core/fal/tiger/fal_tiger_oam.c **** 
 1269              		.loc 1 137 13 view .LVU290
 1270 004c FF26     		movs	r6, #255
 1271 004e EAE7     		b	.L77
 1272              	.LVL144:
 1273              	.L86:
 139:../switch_sdk/core/fal/tiger/fal_tiger_oam.c ****     HAL_FIELD_GET(OAM_MUX_ACTm, OAM_MUX_ACT_MUX_ACTf, &entry, &mux_act);
 1274              		.loc 1 139 5 is_stmt 1 discriminator 3 view .LVU291
 1275              	.LBB16:
 139:../switch_sdk/core/fal/tiger/fal_tiger_oam.c ****     HAL_FIELD_GET(OAM_MUX_ACTm, OAM_MUX_ACT_MUX_ACTf, &entry, &mux_act);
 1276              		.loc 1 139 5 discriminator 3 view .LVU292
 1277 0050 142B     		cmp	r3, #20
 1278 0052 28BF     		it	cs
 1279 0054 1423     		movcs	r3, #20
 1280 0056 1A46     		mov	r2, r3
 1281 0058 244B     		ldr	r3, .L89+12
 1282 005a 0093     		str	r3, [sp]
 1283 005c 244B     		ldr	r3, .L89+16
 1284 005e 2549     		ldr	r1, .L89+20
 1285 0060 51F82220 		ldr	r2, [r1, r2, lsl #2]
 1286 0064 2449     		ldr	r1, .L89+24
 1287 0066 8968     		ldr	r1, [r1, #8]
 1288 0068 2448     		ldr	r0, .L89+28
 1289              	.LVL145:
 139:../switch_sdk/core/fal/tiger/fal_tiger_oam.c ****     HAL_FIELD_GET(OAM_MUX_ACTm, OAM_MUX_ACT_MUX_ACTf, &entry, &mux_act);
 1290              		.loc 1 139 5 is_stmt 0 discriminator 3 view .LVU293
 1291 006a FFF7FEFF 		bl	osal_printf
 1292              	.LVL146:
 1293 006e EAE7     		b	.L79
 1294              	.LVL147:
 1295              	.L78:
 139:../switch_sdk/core/fal/tiger/fal_tiger_oam.c ****     HAL_FIELD_GET(OAM_MUX_ACTm, OAM_MUX_ACT_MUX_ACTf, &entry, &mux_act);
 1296              		.loc 1 139 5 discriminator 3 view .LVU294
 1297              	.LBE16:
 139:../switch_sdk/core/fal/tiger/fal_tiger_oam.c ****     HAL_FIELD_GET(OAM_MUX_ACTm, OAM_MUX_ACT_MUX_ACTf, &entry, &mux_act);
 1298              		.loc 1 139 5 is_stmt 1 discriminator 2 view .LVU295
 140:../switch_sdk/core/fal/tiger/fal_tiger_oam.c ****     HAL_FIELD_GET(OAM_MUX_ACTm, OAM_MUX_ACT_MUX_ACTf, &entry, &mux_act);
 1299              		.loc 1 140 5 discriminator 2 view .LVU296
 1300              	.LBB17:
 140:../switch_sdk/core/fal/tiger/fal_tiger_oam.c ****     HAL_FIELD_GET(OAM_MUX_ACTm, OAM_MUX_ACT_MUX_ACTf, &entry, &mux_act);
 1301              		.loc 1 140 5 discriminator 2 view .LVU297
 140:../switch_sdk/core/fal/tiger/fal_tiger_oam.c ****     HAL_FIELD_GET(OAM_MUX_ACTm, OAM_MUX_ACT_MUX_ACTf, &entry, &mux_act);
 1302              		.loc 1 140 5 discriminator 2 view .LVU298
 1303 0070 03AC     		add	r4, sp, #12
 1304 0072 02AB     		add	r3, sp, #8
 1305 0074 2246     		mov	r2, r4
 1306 0076 0021     		movs	r1, #0
 1307 0078 A620     		movs	r0, #166
 1308              	.LVL148:
 140:../switch_sdk/core/fal/tiger/fal_tiger_oam.c ****     HAL_FIELD_GET(OAM_MUX_ACTm, OAM_MUX_ACT_MUX_ACTf, &entry, &mux_act);
 1309              		.loc 1 140 5 is_stmt 0 discriminator 2 view .LVU299
 1310 007a FFF7FEFF 		bl	hal_tbl_reg_field_get
 1311              	.LVL149:
 140:../switch_sdk/core/fal/tiger/fal_tiger_oam.c ****     HAL_FIELD_GET(OAM_MUX_ACTm, OAM_MUX_ACT_MUX_ACTf, &entry, &mux_act);
 1312              		.loc 1 140 5 is_stmt 1 discriminator 2 view .LVU300
 140:../switch_sdk/core/fal/tiger/fal_tiger_oam.c ****     HAL_FIELD_GET(OAM_MUX_ACTm, OAM_MUX_ACT_MUX_ACTf, &entry, &mux_act);
 1313              		.loc 1 140 5 is_stmt 0 discriminator 2 view .LVU301
 1314              	.LBE17:
 140:../switch_sdk/core/fal/tiger/fal_tiger_oam.c ****     HAL_FIELD_GET(OAM_MUX_ACTm, OAM_MUX_ACT_MUX_ACTf, &entry, &mux_act);
 1315              		.loc 1 140 5 is_stmt 1 discriminator 2 view .LVU302
 141:../switch_sdk/core/fal/tiger/fal_tiger_oam.c ****     mux_act |= (action << (macid * 2));
 1316              		.loc 1 141 5 discriminator 2 view .LVU303
 141:../switch_sdk/core/fal/tiger/fal_tiger_oam.c ****     mux_act |= (action << (macid * 2));
 1317              		.loc 1 141 32 is_stmt 0 discriminator 2 view .LVU304
 1318 007e 7600     		lsls	r6, r6, #1
 1319              	.LVL150:
 141:../switch_sdk/core/fal/tiger/fal_tiger_oam.c ****     mux_act |= (action << (macid * 2));
 1320              		.loc 1 141 22 discriminator 2 view .LVU305
 1321 0080 0322     		movs	r2, #3
 1322 0082 B240     		lsls	r2, r2, r6
 141:../switch_sdk/core/fal/tiger/fal_tiger_oam.c ****     mux_act |= (action << (macid * 2));
 1323              		.loc 1 141 13 discriminator 2 view .LVU306
 1324 0084 029B     		ldr	r3, [sp, #8]
 1325 0086 23EA0202 		bic	r2, r3, r2
 1326              	.LVL151:
 142:../switch_sdk/core/fal/tiger/fal_tiger_oam.c ****     HAL_FIELD_SET(OAM_MUX_ACTm, OAM_MUX_ACT_MUX_ACTf, &entry, mux_act);
 1327              		.loc 1 142 5 is_stmt 1 discriminator 2 view .LVU307
 142:../switch_sdk/core/fal/tiger/fal_tiger_oam.c ****     HAL_FIELD_SET(OAM_MUX_ACTm, OAM_MUX_ACT_MUX_ACTf, &entry, mux_act);
 1328              		.loc 1 142 24 is_stmt 0 discriminator 2 view .LVU308
 1329 008a 07FA06F3 		lsl	r3, r7, r6
 1330              	.LVL152:
 143:../switch_sdk/core/fal/tiger/fal_tiger_oam.c ****     CMM_ERR_CHK(HAL_TBL_REG_WRITE(unit, OAM_MUX_ACTm, 0, sizeof(oam_mux_act_t), &entry), ret);
 1331              		.loc 1 143 5 is_stmt 1 discriminator 2 view .LVU309
 1332 008e 1343     		orrs	r3, r3, r2
 1333              	.LVL153:
 143:../switch_sdk/core/fal/tiger/fal_tiger_oam.c ****     CMM_ERR_CHK(HAL_TBL_REG_WRITE(unit, OAM_MUX_ACTm, 0, sizeof(oam_mux_act_t), &entry), ret);
 1334              		.loc 1 143 5 is_stmt 0 discriminator 2 view .LVU310
 1335 0090 2246     		mov	r2, r4
 1336 0092 0021     		movs	r1, #0
 1337 0094 A620     		movs	r0, #166
 1338 0096 FFF7FEFF 		bl	hal_tbl_reg_field_set
 1339              	.LVL154:
 144:../switch_sdk/core/fal/tiger/fal_tiger_oam.c **** 
 1340              		.loc 1 144 5 is_stmt 1 discriminator 2 view .LVU311
 144:../switch_sdk/core/fal/tiger/fal_tiger_oam.c **** 
 1341              		.loc 1 144 5 discriminator 2 view .LVU312
 1342 009a 0094     		str	r4, [sp]
 1343 009c 0423     		movs	r3, #4
 1344 009e 0022     		movs	r2, #0
 1345 00a0 A621     		movs	r1, #166
 1346 00a2 2846     		mov	r0, r5
 1347 00a4 FFF7FEFF 		bl	hal_table_reg_write
 1348              	.LVL155:
 1349 00a8 0446     		mov	r4, r0
 1350              	.LVL156:
 144:../switch_sdk/core/fal/tiger/fal_tiger_oam.c **** 
 1351              		.loc 1 144 5 is_stmt 0 discriminator 2 view .LVU313
 1352 00aa 10F0FF03 		ands	r3, r0, #255
 1353 00ae 01D1     		bne	.L87
 146:../switch_sdk/core/fal/tiger/fal_tiger_oam.c **** }
 1354              		.loc 1 146 12 view .LVU314
 1355 00b0 0020     		movs	r0, #0
 1356              	.LVL157:
 146:../switch_sdk/core/fal/tiger/fal_tiger_oam.c **** }
 1357              		.loc 1 146 12 view .LVU315
 1358 00b2 C9E7     		b	.L76
 1359              	.LVL158:
 1360              	.L87:
 144:../switch_sdk/core/fal/tiger/fal_tiger_oam.c **** 
 1361              		.loc 1 144 5 is_stmt 1 discriminator 1 view .LVU316
 144:../switch_sdk/core/fal/tiger/fal_tiger_oam.c **** 
 1362              		.loc 1 144 5 discriminator 1 view .LVU317
 1363 00b4 0C4A     		ldr	r2, .L89+8
 1364 00b6 1278     		ldrb	r2, [r2]	@ zero_extendqisi2
 1365 00b8 012A     		cmp	r2, #1
 1366 00ba 01D8     		bhi	.L88
 1367              	.LVL159:
 1368              	.L81:
 144:../switch_sdk/core/fal/tiger/fal_tiger_oam.c **** 
 1369              		.loc 1 144 5 discriminator 5 view .LVU318
 144:../switch_sdk/core/fal/tiger/fal_tiger_oam.c **** 
 1370              		.loc 1 144 5 discriminator 5 view .LVU319
 144:../switch_sdk/core/fal/tiger/fal_tiger_oam.c **** 
 1371              		.loc 1 144 5 discriminator 5 view .LVU320
 1372 00bc E0B2     		uxtb	r0, r4
 1373 00be C3E7     		b	.L76
 1374              	.LVL160:
 1375              	.L88:
 144:../switch_sdk/core/fal/tiger/fal_tiger_oam.c **** 
 1376              		.loc 1 144 5 discriminator 3 view .LVU321
 1377              	.LBB18:
 144:../switch_sdk/core/fal/tiger/fal_tiger_oam.c **** 
 1378              		.loc 1 144 5 discriminator 3 view .LVU322
 1379 00c0 142B     		cmp	r3, #20
 1380 00c2 28BF     		it	cs
 1381 00c4 1423     		movcs	r3, #20
 1382 00c6 1A46     		mov	r2, r3
 1383 00c8 084B     		ldr	r3, .L89+12
 1384 00ca 0093     		str	r3, [sp]
 1385 00cc 0C4B     		ldr	r3, .L89+32
 1386 00ce 0949     		ldr	r1, .L89+20
 1387 00d0 51F82220 		ldr	r2, [r1, r2, lsl #2]
 1388 00d4 0849     		ldr	r1, .L89+24
 1389 00d6 8968     		ldr	r1, [r1, #8]
 1390 00d8 0848     		ldr	r0, .L89+28
 1391              	.LVL161:
 144:../switch_sdk/core/fal/tiger/fal_tiger_oam.c **** 
 1392              		.loc 1 144 5 is_stmt 0 discriminator 3 view .LVU323
 1393 00da FFF7FEFF 		bl	osal_printf
 1394              	.LVL162:
 1395 00de EDE7     		b	.L81
 1396              	.L90:
 1397              		.align	2
 1398              	.L89:
 1399 00e0 00000000 		.word	gcal_inited
 1400 00e4 00000000 		.word	gpSwitchUnit
 1401 00e8 00000000 		.word	yt_debug_level
 1402 00ec 00000000 		.word	__FUNCTION__.1
 1403 00f0 00000000 		.word	.LC5
 1404 00f4 00000000 		.word	_yt_errmsg
 1405 00f8 00000000 		.word	_yt_prompt_msg
 1406 00fc 3C000000 		.word	.LC1
 1407 0100 3C000000 		.word	.LC6
 1408              	.LBE18:
 1409              		.cfi_endproc
 1410              	.LFE9:
 1412              		.section	.text.fal_tiger_oam_mux_act_get,"ax",%progbits
 1413              		.align	1
 1414              		.global	fal_tiger_oam_mux_act_get
 1415              		.syntax unified
 1416              		.thumb
 1417              		.thumb_func
 1419              	fal_tiger_oam_mux_act_get:
 1420              	.LVL163:
 1421              	.LFB10:
 148:../switch_sdk/core/fal/tiger/fal_tiger_oam.c **** 
 149:../switch_sdk/core/fal/tiger/fal_tiger_oam.c **** yt_ret_t fal_tiger_oam_mux_act_get(yt_unit_t unit, yt_port_t port, yt_oam_mux_action_t *paction)
 150:../switch_sdk/core/fal/tiger/fal_tiger_oam.c **** {
 1422              		.loc 1 150 1 is_stmt 1 view -0
 1423              		.cfi_startproc
 1424              		@ args = 0, pretend = 0, frame = 8
 1425              		@ frame_needed = 0, uses_anonymous_args = 0
 1426              		.loc 1 150 1 is_stmt 0 view .LVU325
 1427 0000 70B5     		push	{r4, r5, r6, lr}
 1428              		.cfi_def_cfa_offset 16
 1429              		.cfi_offset 4, -16
 1430              		.cfi_offset 5, -12
 1431              		.cfi_offset 6, -8
 1432              		.cfi_offset 14, -4
 1433 0002 84B0     		sub	sp, sp, #16
 1434              		.cfi_def_cfa_offset 32
 1435 0004 1546     		mov	r5, r2
 151:../switch_sdk/core/fal/tiger/fal_tiger_oam.c ****     oam_mux_act_t entry;
 1436              		.loc 1 151 5 is_stmt 1 view .LVU326
 152:../switch_sdk/core/fal/tiger/fal_tiger_oam.c ****     cmm_err_t ret = CMM_ERR_OK;
 1437              		.loc 1 152 5 view .LVU327
 1438              	.LVL164:
 153:../switch_sdk/core/fal/tiger/fal_tiger_oam.c ****     yt_macid_t macid;
 1439              		.loc 1 153 5 view .LVU328
 154:../switch_sdk/core/fal/tiger/fal_tiger_oam.c ****     uint32_t mux_act;
 1440              		.loc 1 154 5 view .LVU329
 155:../switch_sdk/core/fal/tiger/fal_tiger_oam.c **** 
 156:../switch_sdk/core/fal/tiger/fal_tiger_oam.c ****     macid = CAL_YTP_TO_MAC(unit,port);
 1441              		.loc 1 156 5 view .LVU330
 1442              		.loc 1 156 13 is_stmt 0 view .LVU331
 1443 0006 204B     		ldr	r3, .L100
 1444 0008 1B78     		ldrb	r3, [r3]	@ zero_extendqisi2
 1445 000a 53B1     		cbz	r3, .L96
 1446              		.loc 1 156 13 discriminator 1 view .LVU332
 1447 000c 1F4B     		ldr	r3, .L100+4
 1448 000e 53F82030 		ldr	r3, [r3, r0, lsl #2]
 1449 0012 1A7D     		ldrb	r2, [r3, #20]	@ zero_extendqisi2
 1450              	.LVL165:
 1451              		.loc 1 156 13 discriminator 1 view .LVU333
 1452 0014 8A42     		cmp	r2, r1
 1453 0016 17D9     		bls	.L97
 1454              		.loc 1 156 13 discriminator 3 view .LVU334
 1455 0018 0631     		adds	r1, r1, #6
 1456              	.LVL166:
 1457              		.loc 1 156 13 discriminator 3 view .LVU335
 1458 001a 53F82130 		ldr	r3, [r3, r1, lsl #2]
 1459 001e 1E78     		ldrb	r6, [r3]	@ zero_extendqisi2
 1460 0020 00E0     		b	.L92
 1461              	.LVL167:
 1462              	.L96:
 1463              		.loc 1 156 13 view .LVU336
 1464 0022 FF26     		movs	r6, #255
 1465              	.LVL168:
 1466              	.L92:
 157:../switch_sdk/core/fal/tiger/fal_tiger_oam.c **** 
 158:../switch_sdk/core/fal/tiger/fal_tiger_oam.c ****     CMM_ERR_CHK(HAL_TBL_REG_READ(unit, OAM_MUX_ACTm, 0, sizeof(oam_mux_act_t), &entry), ret);
 1467              		.loc 1 158 5 is_stmt 1 discriminator 6 view .LVU337
 1468              		.loc 1 158 5 discriminator 6 view .LVU338
 1469 0024 03AB     		add	r3, sp, #12
 1470 0026 0093     		str	r3, [sp]
 1471 0028 0423     		movs	r3, #4
 1472 002a 0022     		movs	r2, #0
 1473 002c A621     		movs	r1, #166
 1474 002e FFF7FEFF 		bl	hal_table_reg_read
 1475              	.LVL169:
 1476              		.loc 1 158 5 is_stmt 0 discriminator 6 view .LVU339
 1477 0032 0446     		mov	r4, r0
 1478              	.LVL170:
 1479              		.loc 1 158 5 discriminator 6 view .LVU340
 1480 0034 10F0FF03 		ands	r3, r0, #255
 1481 0038 18D0     		beq	.L93
 1482              		.loc 1 158 5 is_stmt 1 discriminator 1 view .LVU341
 1483              		.loc 1 158 5 discriminator 1 view .LVU342
 1484 003a 154A     		ldr	r2, .L100+8
 1485 003c 1278     		ldrb	r2, [r2]	@ zero_extendqisi2
 1486 003e 012A     		cmp	r2, #1
 1487 0040 04D8     		bhi	.L99
 1488              	.LVL171:
 1489              	.L94:
 1490              		.loc 1 158 5 discriminator 5 view .LVU343
 1491              		.loc 1 158 5 discriminator 5 view .LVU344
 1492              		.loc 1 158 5 discriminator 5 view .LVU345
 1493 0042 E0B2     		uxtb	r0, r4
 1494              	.LVL172:
 1495              	.L91:
 159:../switch_sdk/core/fal/tiger/fal_tiger_oam.c ****     HAL_FIELD_GET(OAM_MUX_ACTm, OAM_MUX_ACT_MUX_ACTf, &entry, &mux_act);
 160:../switch_sdk/core/fal/tiger/fal_tiger_oam.c ****     *paction = (mux_act >> (macid * 2)) & 0x3;
 161:../switch_sdk/core/fal/tiger/fal_tiger_oam.c **** 
 162:../switch_sdk/core/fal/tiger/fal_tiger_oam.c ****     return CMM_ERR_OK;
 163:../switch_sdk/core/fal/tiger/fal_tiger_oam.c **** }
 1496              		.loc 1 163 1 is_stmt 0 view .LVU346
 1497 0044 04B0     		add	sp, sp, #16
 1498              		.cfi_remember_state
 1499              		.cfi_def_cfa_offset 16
 1500              		@ sp needed
 1501 0046 70BD     		pop	{r4, r5, r6, pc}
 1502              	.LVL173:
 1503              	.L97:
 1504              		.cfi_restore_state
 156:../switch_sdk/core/fal/tiger/fal_tiger_oam.c **** 
 1505              		.loc 1 156 13 view .LVU347
 1506 0048 FF26     		movs	r6, #255
 1507 004a EBE7     		b	.L92
 1508              	.LVL174:
 1509              	.L99:
 158:../switch_sdk/core/fal/tiger/fal_tiger_oam.c ****     HAL_FIELD_GET(OAM_MUX_ACTm, OAM_MUX_ACT_MUX_ACTf, &entry, &mux_act);
 1510              		.loc 1 158 5 is_stmt 1 discriminator 3 view .LVU348
 1511              	.LBB19:
 158:../switch_sdk/core/fal/tiger/fal_tiger_oam.c ****     HAL_FIELD_GET(OAM_MUX_ACTm, OAM_MUX_ACT_MUX_ACTf, &entry, &mux_act);
 1512              		.loc 1 158 5 discriminator 3 view .LVU349
 1513 004c 142B     		cmp	r3, #20
 1514 004e 28BF     		it	cs
 1515 0050 1423     		movcs	r3, #20
 1516 0052 1A46     		mov	r2, r3
 1517 0054 0F4B     		ldr	r3, .L100+12
 1518 0056 0093     		str	r3, [sp]
 1519 0058 0F4B     		ldr	r3, .L100+16
 1520 005a 1049     		ldr	r1, .L100+20
 1521 005c 51F82220 		ldr	r2, [r1, r2, lsl #2]
 1522 0060 0F49     		ldr	r1, .L100+24
 1523 0062 8968     		ldr	r1, [r1, #8]
 1524 0064 0F48     		ldr	r0, .L100+28
 1525              	.LVL175:
 158:../switch_sdk/core/fal/tiger/fal_tiger_oam.c ****     HAL_FIELD_GET(OAM_MUX_ACTm, OAM_MUX_ACT_MUX_ACTf, &entry, &mux_act);
 1526              		.loc 1 158 5 is_stmt 0 discriminator 3 view .LVU350
 1527 0066 FFF7FEFF 		bl	osal_printf
 1528              	.LVL176:
 1529 006a EAE7     		b	.L94
 1530              	.LVL177:
 1531              	.L93:
 158:../switch_sdk/core/fal/tiger/fal_tiger_oam.c ****     HAL_FIELD_GET(OAM_MUX_ACTm, OAM_MUX_ACT_MUX_ACTf, &entry, &mux_act);
 1532              		.loc 1 158 5 discriminator 3 view .LVU351
 1533              	.LBE19:
 158:../switch_sdk/core/fal/tiger/fal_tiger_oam.c ****     HAL_FIELD_GET(OAM_MUX_ACTm, OAM_MUX_ACT_MUX_ACTf, &entry, &mux_act);
 1534              		.loc 1 158 5 is_stmt 1 discriminator 2 view .LVU352
 159:../switch_sdk/core/fal/tiger/fal_tiger_oam.c ****     HAL_FIELD_GET(OAM_MUX_ACTm, OAM_MUX_ACT_MUX_ACTf, &entry, &mux_act);
 1535              		.loc 1 159 5 discriminator 2 view .LVU353
 1536              	.LBB20:
 159:../switch_sdk/core/fal/tiger/fal_tiger_oam.c ****     HAL_FIELD_GET(OAM_MUX_ACTm, OAM_MUX_ACT_MUX_ACTf, &entry, &mux_act);
 1537              		.loc 1 159 5 discriminator 2 view .LVU354
 159:../switch_sdk/core/fal/tiger/fal_tiger_oam.c ****     HAL_FIELD_GET(OAM_MUX_ACTm, OAM_MUX_ACT_MUX_ACTf, &entry, &mux_act);
 1538              		.loc 1 159 5 discriminator 2 view .LVU355
 1539 006c 02AB     		add	r3, sp, #8
 1540 006e 03AA     		add	r2, sp, #12
 1541 0070 0021     		movs	r1, #0
 1542 0072 A620     		movs	r0, #166
 1543              	.LVL178:
 159:../switch_sdk/core/fal/tiger/fal_tiger_oam.c ****     HAL_FIELD_GET(OAM_MUX_ACTm, OAM_MUX_ACT_MUX_ACTf, &entry, &mux_act);
 1544              		.loc 1 159 5 is_stmt 0 discriminator 2 view .LVU356
 1545 0074 FFF7FEFF 		bl	hal_tbl_reg_field_get
 1546              	.LVL179:
 159:../switch_sdk/core/fal/tiger/fal_tiger_oam.c ****     HAL_FIELD_GET(OAM_MUX_ACTm, OAM_MUX_ACT_MUX_ACTf, &entry, &mux_act);
 1547              		.loc 1 159 5 is_stmt 1 discriminator 2 view .LVU357
 159:../switch_sdk/core/fal/tiger/fal_tiger_oam.c ****     HAL_FIELD_GET(OAM_MUX_ACTm, OAM_MUX_ACT_MUX_ACTf, &entry, &mux_act);
 1548              		.loc 1 159 5 is_stmt 0 discriminator 2 view .LVU358
 1549              	.LBE20:
 159:../switch_sdk/core/fal/tiger/fal_tiger_oam.c ****     HAL_FIELD_GET(OAM_MUX_ACTm, OAM_MUX_ACT_MUX_ACTf, &entry, &mux_act);
 1550              		.loc 1 159 5 is_stmt 1 discriminator 2 view .LVU359
 160:../switch_sdk/core/fal/tiger/fal_tiger_oam.c **** 
 1551              		.loc 1 160 5 discriminator 2 view .LVU360
 160:../switch_sdk/core/fal/tiger/fal_tiger_oam.c **** 
 1552              		.loc 1 160 35 is_stmt 0 discriminator 2 view .LVU361
 1553 0078 7600     		lsls	r6, r6, #1
 1554              	.LVL180:
 160:../switch_sdk/core/fal/tiger/fal_tiger_oam.c **** 
 1555              		.loc 1 160 25 discriminator 2 view .LVU362
 1556 007a 029B     		ldr	r3, [sp, #8]
 1557 007c F340     		lsrs	r3, r3, r6
 160:../switch_sdk/core/fal/tiger/fal_tiger_oam.c **** 
 1558              		.loc 1 160 41 discriminator 2 view .LVU363
 1559 007e 03F00303 		and	r3, r3, #3
 160:../switch_sdk/core/fal/tiger/fal_tiger_oam.c **** 
 1560              		.loc 1 160 14 discriminator 2 view .LVU364
 1561 0082 2B70     		strb	r3, [r5]
 1562              	.LVL181:
 162:../switch_sdk/core/fal/tiger/fal_tiger_oam.c **** }
 1563              		.loc 1 162 5 is_stmt 1 discriminator 2 view .LVU365
 162:../switch_sdk/core/fal/tiger/fal_tiger_oam.c **** }
 1564              		.loc 1 162 12 is_stmt 0 discriminator 2 view .LVU366
 1565 0084 0020     		movs	r0, #0
 1566 0086 DDE7     		b	.L91
 1567              	.L101:
 1568              		.align	2
 1569              	.L100:
 1570 0088 00000000 		.word	gcal_inited
 1571 008c 00000000 		.word	gpSwitchUnit
 1572 0090 00000000 		.word	yt_debug_level
 1573 0094 00000000 		.word	__FUNCTION__.0
 1574 0098 00000000 		.word	.LC5
 1575 009c 00000000 		.word	_yt_errmsg
 1576 00a0 00000000 		.word	_yt_prompt_msg
 1577 00a4 3C000000 		.word	.LC1
 1578              		.cfi_endproc
 1579              	.LFE10:
 1581              		.section	.rodata.__FUNCTION__.0,"a"
 1582              		.align	2
 1585              	__FUNCTION__.0:
 1586 0000 66616C5F 		.ascii	"fal_tiger_oam_mux_act_get\000"
 1586      74696765 
 1586      725F6F61 
 1586      6D5F6D75 
 1586      785F6163 
 1587              		.section	.rodata.__FUNCTION__.1,"a"
 1588              		.align	2
 1591              	__FUNCTION__.1:
 1592 0000 66616C5F 		.ascii	"fal_tiger_oam_mux_act_set\000"
 1592      74696765 
 1592      725F6F61 
 1592      6D5F6D75 
 1592      785F6163 
 1593              		.section	.rodata.__FUNCTION__.2,"a"
 1594              		.align	2
 1597              	__FUNCTION__.2:
 1598 0000 66616C5F 		.ascii	"fal_tiger_oam_parser_act_get\000"
 1598      74696765 
 1598      725F6F61 
 1598      6D5F7061 
 1598      72736572 
 1599              		.section	.rodata.__FUNCTION__.3,"a"
 1600              		.align	2
 1603              	__FUNCTION__.3:
 1604 0000 66616C5F 		.ascii	"fal_tiger_oam_parser_act_set\000"
 1604      74696765 
 1604      725F6F61 
 1604      6D5F7061 
 1604      72736572 
 1605              		.section	.rodata.__FUNCTION__.4,"a"
 1606              		.align	2
 1609              	__FUNCTION__.4:
 1610 0000 66616C5F 		.ascii	"fal_tiger_oam_bypass_accessctrl_get\000"
 1610      74696765 
 1610      725F6F61 
 1610      6D5F6279 
 1610      70617373 
 1611              		.section	.rodata.__FUNCTION__.5,"a"
 1612              		.align	2
 1615              	__FUNCTION__.5:
 1616 0000 66616C5F 		.ascii	"fal_tiger_oam_bypass_accessctrl_set\000"
 1616      74696765 
 1616      725F6F61 
 1616      6D5F6279 
 1616      70617373 
 1617              		.section	.rodata.__FUNCTION__.6,"a"
 1618              		.align	2
 1621              	__FUNCTION__.6:
 1622 0000 66616C5F 		.ascii	"fal_tiger_oam_en_get\000"
 1622      74696765 
 1622      725F6F61 
 1622      6D5F656E 
 1622      5F676574 
 1623              		.section	.rodata.__FUNCTION__.7,"a"
 1624              		.align	2
 1627              	__FUNCTION__.7:
 1628 0000 66616C5F 		.ascii	"fal_tiger_oam_en_set\000"
 1628      74696765 
 1628      725F6F61 
 1628      6D5F656E 
 1628      5F736574 
 1629              		.text
 1630              	.Letext0:
 1631              		.file 2 "C:\\Users\\Dmitriy\\Desktop\\GD32F10x\\switch_sdk\\common\\include/yt_types.h"
 1632              		.file 3 "C:\\Users\\Dmitriy\\Desktop\\GD32F10x\\switch_sdk\\common\\include/yt_error.h"
 1633              		.file 4 "C:\\Users\\Dmitriy\\Desktop\\GD32F10x\\switch_sdk\\core\\fal\\chipdef/chipdef.h"
 1634              		.file 5 "C:\\Users\\Dmitriy\\Desktop\\GD32F10x\\switch_sdk\\core\\cal/cal_bprofile.h"
 1635              		.file 6 "C:\\Users\\Dmitriy\\Desktop\\GD32F10x\\switch_sdk\\core\\cal/cal_mgm.h"
 1636              		.file 7 "C:\\Users\\Dmitriy\\Desktop\\GD32F10x\\switch_sdk\\include/yt_oam.h"
 1637              		.file 8 "../switch_sdk/core/fal/tiger/fal_tiger_entry.h"
 1638              		.file 9 "C:\\Users\\Dmitriy\\Desktop\\GD32F10x\\switch_sdk\\core\\hal/hal_mem.h"