   1              		.cpu cortex-m3
   2              		.arch armv7-m
   3              		.fpu softvfp
   4              		.eabi_attribute 20, 1
   5              		.eabi_attribute 21, 1
   6              		.eabi_attribute 23, 3
   7              		.eabi_attribute 24, 1
   8              		.eabi_attribute 25, 1
   9              		.eabi_attribute 26, 1
  10              		.eabi_attribute 30, 1
  11              		.eabi_attribute 34, 1
  12              		.eabi_attribute 18, 4
  13              		.file	"fal_tiger_stat.c"
  14              		.text
  15              	.Ltext0:
  16              		.cfi_sections	.debug_frame
  17              		.file 1 "../switch_sdk/core/fal/tiger/fal_tiger_stat.c"
  18              		.section	.text.fal_tiger_stat_mib_init,"ax",%progbits
  19              		.align	1
  20              		.global	fal_tiger_stat_mib_init
  21              		.syntax unified
  22              		.thumb
  23              		.thumb_func
  25              	fal_tiger_stat_mib_init:
  26              	.LVL0:
  27              	.LFB3:
   1:../switch_sdk/core/fal/tiger/fal_tiger_stat.c **** /*
   2:../switch_sdk/core/fal/tiger/fal_tiger_stat.c ****  * Include Files
   3:../switch_sdk/core/fal/tiger/fal_tiger_stat.c ****  */
   4:../switch_sdk/core/fal/tiger/fal_tiger_stat.c **** #include "yt_error.h"
   5:../switch_sdk/core/fal/tiger/fal_tiger_stat.c **** //#include "osal_mem.h"
   6:../switch_sdk/core/fal/tiger/fal_tiger_stat.c **** //#include "osal_print.h"
   7:../switch_sdk/core/fal/tiger/fal_tiger_stat.c **** #include "fal_tiger_stat.h"
   8:../switch_sdk/core/fal/tiger/fal_tiger_stat.c **** #include "hal_mem.h"
   9:../switch_sdk/core/fal/tiger/fal_tiger_stat.c **** #include "fal_tiger_struct.h"
  10:../switch_sdk/core/fal/tiger/fal_tiger_stat.c **** #include "fal_tiger_entry.h"
  11:../switch_sdk/core/fal/tiger/fal_tiger_stat.c **** #include "fal_tiger_mem.h"
  12:../switch_sdk/core/fal/tiger/fal_tiger_stat.c **** 
  13:../switch_sdk/core/fal/tiger/fal_tiger_stat.c **** yt_ret_t fal_tiger_stat_mib_init(yt_unit_t unit)
  14:../switch_sdk/core/fal/tiger/fal_tiger_stat.c **** {
  28              		.loc 1 14 1 view -0
  29              		.cfi_startproc
  30              		@ args = 0, pretend = 0, frame = 0
  31              		@ frame_needed = 0, uses_anonymous_args = 0
  32              		.loc 1 14 1 is_stmt 0 view .LVU1
  33 0000 08B5     		push	{r3, lr}
  34              		.cfi_def_cfa_offset 8
  35              		.cfi_offset 3, -8
  36              		.cfi_offset 14, -4
  15:../switch_sdk/core/fal/tiger/fal_tiger_stat.c ****     CMM_UNUSED_PARAM(unit);
  37              		.loc 1 15 5 is_stmt 1 view .LVU2
  16:../switch_sdk/core/fal/tiger/fal_tiger_stat.c ****     STAT_LOCK_INIT();
  38              		.loc 1 16 5 view .LVU3
  39 0002 0720     		movs	r0, #7
  40              	.LVL1:
  41              		.loc 1 16 5 is_stmt 0 view .LVU4
  42 0004 FFF7FEFF 		bl	YT_LOCK_INIT
  43              	.LVL2:
  17:../switch_sdk/core/fal/tiger/fal_tiger_stat.c **** 
  18:../switch_sdk/core/fal/tiger/fal_tiger_stat.c ****     return CMM_ERR_OK;
  44              		.loc 1 18 5 is_stmt 1 view .LVU5
  19:../switch_sdk/core/fal/tiger/fal_tiger_stat.c **** }
  45              		.loc 1 19 1 is_stmt 0 view .LVU6
  46 0008 0020     		movs	r0, #0
  47 000a 08BD     		pop	{r3, pc}
  48              		.cfi_endproc
  49              	.LFE3:
  51              		.section	.rodata.fal_tiger_stat_mib_enable_set.str1.4,"aMS",%progbits,1
  52              		.align	2
  53              	.LC0:
  54 0000 68616C5F 		.ascii	"hal_table_reg_read(unit,1,0,sizeof(global_ctrl1_t),"
  54      7461626C 
  54      655F7265 
  54      675F7265 
  54      61642875 
  55 0033 26656E74 		.ascii	"&entry)\000"
  55      72792900 
  56 003b 00       		.align	2
  57              	.LC1:
  58 003c 25732573 		.ascii	"%s%s of \"%s\" in %s\015\012\000"
  58      206F6620 
  58      22257322 
  58      20696E20 
  58      25730D0A 
  59 0051 000000   		.align	2
  60              	.LC2:
  61 0054 68616C5F 		.ascii	"hal_table_reg_write(unit,1,0,sizeof(global_ctrl1_t)"
  61      7461626C 
  61      655F7265 
  61      675F7772 
  61      69746528 
  62 0087 2C26656E 		.ascii	",&entry)\000"
  62      74727929 
  62      00
  63              		.section	.text.fal_tiger_stat_mib_enable_set,"ax",%progbits
  64              		.align	1
  65              		.global	fal_tiger_stat_mib_enable_set
  66              		.syntax unified
  67              		.thumb
  68              		.thumb_func
  70              	fal_tiger_stat_mib_enable_set:
  71              	.LVL3:
  72              	.LFB4:
  20:../switch_sdk/core/fal/tiger/fal_tiger_stat.c **** 
  21:../switch_sdk/core/fal/tiger/fal_tiger_stat.c **** yt_ret_t fal_tiger_stat_mib_enable_set (yt_unit_t unit, yt_enable_t enable)
  22:../switch_sdk/core/fal/tiger/fal_tiger_stat.c **** {
  73              		.loc 1 22 1 is_stmt 1 view -0
  74              		.cfi_startproc
  75              		@ args = 0, pretend = 0, frame = 8
  76              		@ frame_needed = 0, uses_anonymous_args = 0
  77              		.loc 1 22 1 is_stmt 0 view .LVU8
  78 0000 70B5     		push	{r4, r5, r6, lr}
  79              		.cfi_def_cfa_offset 16
  80              		.cfi_offset 4, -16
  81              		.cfi_offset 5, -12
  82              		.cfi_offset 6, -8
  83              		.cfi_offset 14, -4
  84 0002 84B0     		sub	sp, sp, #16
  85              		.cfi_def_cfa_offset 32
  86 0004 0546     		mov	r5, r0
  87 0006 0E46     		mov	r6, r1
  23:../switch_sdk/core/fal/tiger/fal_tiger_stat.c ****     global_ctrl1_t entry;
  88              		.loc 1 23 5 is_stmt 1 view .LVU9
  24:../switch_sdk/core/fal/tiger/fal_tiger_stat.c ****     cmm_err_t ret = CMM_ERR_OK;
  89              		.loc 1 24 5 view .LVU10
  90              	.LVL4:
  25:../switch_sdk/core/fal/tiger/fal_tiger_stat.c ****     
  26:../switch_sdk/core/fal/tiger/fal_tiger_stat.c ****     osal_memset(&entry, 0, sizeof(global_ctrl1_t));
  91              		.loc 1 26 5 view .LVU11
  92 0008 03AC     		add	r4, sp, #12
  93 000a 0422     		movs	r2, #4
  94 000c 0021     		movs	r1, #0
  95              	.LVL5:
  96              		.loc 1 26 5 is_stmt 0 view .LVU12
  97 000e 2046     		mov	r0, r4
  98              	.LVL6:
  99              		.loc 1 26 5 view .LVU13
 100 0010 FFF7FEFF 		bl	osal_memset
 101              	.LVL7:
  27:../switch_sdk/core/fal/tiger/fal_tiger_stat.c **** 
  28:../switch_sdk/core/fal/tiger/fal_tiger_stat.c ****     CMM_ERR_CHK(HAL_TBL_REG_READ(unit, GLOBAL_CTRL1m, 0, sizeof(global_ctrl1_t), &entry), ret);
 102              		.loc 1 28 5 is_stmt 1 view .LVU14
 103              		.loc 1 28 5 view .LVU15
 104 0014 0094     		str	r4, [sp]
 105 0016 0423     		movs	r3, #4
 106 0018 0022     		movs	r2, #0
 107 001a 0121     		movs	r1, #1
 108 001c 2846     		mov	r0, r5
 109 001e FFF7FEFF 		bl	hal_table_reg_read
 110              	.LVL8:
 111              		.loc 1 28 5 is_stmt 0 view .LVU16
 112 0022 10F0FF03 		ands	r3, r0, #255
 113 0026 17D0     		beq	.L4
 114 0028 0446     		mov	r4, r0
 115              		.loc 1 28 5 is_stmt 1 discriminator 1 view .LVU17
 116              		.loc 1 28 5 discriminator 1 view .LVU18
 117 002a 204A     		ldr	r2, .L13
 118 002c 1278     		ldrb	r2, [r2]	@ zero_extendqisi2
 119 002e 012A     		cmp	r2, #1
 120 0030 02D8     		bhi	.L10
 121              	.LVL9:
 122              	.L5:
 123              		.loc 1 28 5 discriminator 5 view .LVU19
 124              		.loc 1 28 5 discriminator 5 view .LVU20
 125              		.loc 1 28 5 discriminator 5 view .LVU21
 126 0032 E0B2     		uxtb	r0, r4
 127              	.LVL10:
 128              	.L3:
  29:../switch_sdk/core/fal/tiger/fal_tiger_stat.c ****     HAL_FIELD_SET(GLOBAL_CTRL1m, GLOBAL_CTRL1_MIB_ENf, &entry, enable);
  30:../switch_sdk/core/fal/tiger/fal_tiger_stat.c ****     CMM_ERR_CHK(HAL_TBL_REG_WRITE(unit, GLOBAL_CTRL1m, 0, sizeof(global_ctrl1_t), &entry), ret);
  31:../switch_sdk/core/fal/tiger/fal_tiger_stat.c **** 
  32:../switch_sdk/core/fal/tiger/fal_tiger_stat.c ****     return CMM_ERR_OK;
  33:../switch_sdk/core/fal/tiger/fal_tiger_stat.c **** }
 129              		.loc 1 33 1 is_stmt 0 view .LVU22
 130 0034 04B0     		add	sp, sp, #16
 131              		.cfi_remember_state
 132              		.cfi_def_cfa_offset 16
 133              		@ sp needed
 134 0036 70BD     		pop	{r4, r5, r6, pc}
 135              	.LVL11:
 136              	.L10:
 137              		.cfi_restore_state
  28:../switch_sdk/core/fal/tiger/fal_tiger_stat.c ****     HAL_FIELD_SET(GLOBAL_CTRL1m, GLOBAL_CTRL1_MIB_ENf, &entry, enable);
 138              		.loc 1 28 5 is_stmt 1 discriminator 3 view .LVU23
 139              	.LBB2:
  28:../switch_sdk/core/fal/tiger/fal_tiger_stat.c ****     HAL_FIELD_SET(GLOBAL_CTRL1m, GLOBAL_CTRL1_MIB_ENf, &entry, enable);
 140              		.loc 1 28 5 discriminator 3 view .LVU24
 141 0038 142B     		cmp	r3, #20
 142 003a 28BF     		it	cs
 143 003c 1423     		movcs	r3, #20
 144 003e 1A46     		mov	r2, r3
 145 0040 1B4B     		ldr	r3, .L13+4
 146 0042 0093     		str	r3, [sp]
 147 0044 1B4B     		ldr	r3, .L13+8
 148 0046 1C49     		ldr	r1, .L13+12
 149 0048 51F82220 		ldr	r2, [r1, r2, lsl #2]
 150 004c 1B49     		ldr	r1, .L13+16
 151 004e 8968     		ldr	r1, [r1, #8]
 152 0050 1B48     		ldr	r0, .L13+20
 153              	.LVL12:
  28:../switch_sdk/core/fal/tiger/fal_tiger_stat.c ****     HAL_FIELD_SET(GLOBAL_CTRL1m, GLOBAL_CTRL1_MIB_ENf, &entry, enable);
 154              		.loc 1 28 5 is_stmt 0 discriminator 3 view .LVU25
 155 0052 FFF7FEFF 		bl	osal_printf
 156              	.LVL13:
 157 0056 ECE7     		b	.L5
 158              	.LVL14:
 159              	.L4:
  28:../switch_sdk/core/fal/tiger/fal_tiger_stat.c ****     HAL_FIELD_SET(GLOBAL_CTRL1m, GLOBAL_CTRL1_MIB_ENf, &entry, enable);
 160              		.loc 1 28 5 discriminator 3 view .LVU26
 161              	.LBE2:
  28:../switch_sdk/core/fal/tiger/fal_tiger_stat.c ****     HAL_FIELD_SET(GLOBAL_CTRL1m, GLOBAL_CTRL1_MIB_ENf, &entry, enable);
 162              		.loc 1 28 5 is_stmt 1 discriminator 2 view .LVU27
  29:../switch_sdk/core/fal/tiger/fal_tiger_stat.c ****     HAL_FIELD_SET(GLOBAL_CTRL1m, GLOBAL_CTRL1_MIB_ENf, &entry, enable);
 163              		.loc 1 29 5 discriminator 2 view .LVU28
 164 0058 03AC     		add	r4, sp, #12
 165 005a 3346     		mov	r3, r6
 166 005c 2246     		mov	r2, r4
 167 005e 0321     		movs	r1, #3
 168 0060 0120     		movs	r0, #1
 169              	.LVL15:
  29:../switch_sdk/core/fal/tiger/fal_tiger_stat.c ****     HAL_FIELD_SET(GLOBAL_CTRL1m, GLOBAL_CTRL1_MIB_ENf, &entry, enable);
 170              		.loc 1 29 5 is_stmt 0 discriminator 2 view .LVU29
 171 0062 FFF7FEFF 		bl	hal_tbl_reg_field_set
 172              	.LVL16:
  30:../switch_sdk/core/fal/tiger/fal_tiger_stat.c **** 
 173              		.loc 1 30 5 is_stmt 1 discriminator 2 view .LVU30
  30:../switch_sdk/core/fal/tiger/fal_tiger_stat.c **** 
 174              		.loc 1 30 5 discriminator 2 view .LVU31
 175 0066 0094     		str	r4, [sp]
 176 0068 0423     		movs	r3, #4
 177 006a 0022     		movs	r2, #0
 178 006c 0121     		movs	r1, #1
 179 006e 2846     		mov	r0, r5
 180 0070 FFF7FEFF 		bl	hal_table_reg_write
 181              	.LVL17:
 182 0074 0446     		mov	r4, r0
 183              	.LVL18:
  30:../switch_sdk/core/fal/tiger/fal_tiger_stat.c **** 
 184              		.loc 1 30 5 is_stmt 0 discriminator 2 view .LVU32
 185 0076 10F0FF03 		ands	r3, r0, #255
 186 007a 01D1     		bne	.L11
  32:../switch_sdk/core/fal/tiger/fal_tiger_stat.c **** }
 187              		.loc 1 32 12 view .LVU33
 188 007c 0020     		movs	r0, #0
 189              	.LVL19:
  32:../switch_sdk/core/fal/tiger/fal_tiger_stat.c **** }
 190              		.loc 1 32 12 view .LVU34
 191 007e D9E7     		b	.L3
 192              	.LVL20:
 193              	.L11:
  30:../switch_sdk/core/fal/tiger/fal_tiger_stat.c **** 
 194              		.loc 1 30 5 is_stmt 1 discriminator 1 view .LVU35
  30:../switch_sdk/core/fal/tiger/fal_tiger_stat.c **** 
 195              		.loc 1 30 5 discriminator 1 view .LVU36
 196 0080 0A4A     		ldr	r2, .L13
 197 0082 1278     		ldrb	r2, [r2]	@ zero_extendqisi2
 198 0084 012A     		cmp	r2, #1
 199 0086 01D8     		bhi	.L12
 200              	.LVL21:
 201              	.L7:
  30:../switch_sdk/core/fal/tiger/fal_tiger_stat.c **** 
 202              		.loc 1 30 5 discriminator 5 view .LVU37
  30:../switch_sdk/core/fal/tiger/fal_tiger_stat.c **** 
 203              		.loc 1 30 5 discriminator 5 view .LVU38
  30:../switch_sdk/core/fal/tiger/fal_tiger_stat.c **** 
 204              		.loc 1 30 5 discriminator 5 view .LVU39
 205 0088 E0B2     		uxtb	r0, r4
 206 008a D3E7     		b	.L3
 207              	.LVL22:
 208              	.L12:
  30:../switch_sdk/core/fal/tiger/fal_tiger_stat.c **** 
 209              		.loc 1 30 5 discriminator 3 view .LVU40
 210              	.LBB3:
  30:../switch_sdk/core/fal/tiger/fal_tiger_stat.c **** 
 211              		.loc 1 30 5 discriminator 3 view .LVU41
 212 008c 142B     		cmp	r3, #20
 213 008e 28BF     		it	cs
 214 0090 1423     		movcs	r3, #20
 215 0092 1A46     		mov	r2, r3
 216 0094 064B     		ldr	r3, .L13+4
 217 0096 0093     		str	r3, [sp]
 218 0098 0A4B     		ldr	r3, .L13+24
 219 009a 0749     		ldr	r1, .L13+12
 220 009c 51F82220 		ldr	r2, [r1, r2, lsl #2]
 221 00a0 0649     		ldr	r1, .L13+16
 222 00a2 8968     		ldr	r1, [r1, #8]
 223 00a4 0648     		ldr	r0, .L13+20
 224              	.LVL23:
  30:../switch_sdk/core/fal/tiger/fal_tiger_stat.c **** 
 225              		.loc 1 30 5 is_stmt 0 discriminator 3 view .LVU42
 226 00a6 FFF7FEFF 		bl	osal_printf
 227              	.LVL24:
 228 00aa EDE7     		b	.L7
 229              	.L14:
 230              		.align	2
 231              	.L13:
 232 00ac 00000000 		.word	yt_debug_level
 233 00b0 00000000 		.word	__FUNCTION__.11
 234 00b4 00000000 		.word	.LC0
 235 00b8 00000000 		.word	_yt_errmsg
 236 00bc 00000000 		.word	_yt_prompt_msg
 237 00c0 3C000000 		.word	.LC1
 238 00c4 54000000 		.word	.LC2
 239              	.LBE3:
 240              		.cfi_endproc
 241              	.LFE4:
 243              		.section	.text.fal_tiger_stat_mib_enable_get,"ax",%progbits
 244              		.align	1
 245              		.global	fal_tiger_stat_mib_enable_get
 246              		.syntax unified
 247              		.thumb
 248              		.thumb_func
 250              	fal_tiger_stat_mib_enable_get:
 251              	.LVL25:
 252              	.LFB5:
  34:../switch_sdk/core/fal/tiger/fal_tiger_stat.c **** 
  35:../switch_sdk/core/fal/tiger/fal_tiger_stat.c **** yt_ret_t fal_tiger_stat_mib_enable_get (yt_unit_t unit, yt_enable_t *pEnable)
  36:../switch_sdk/core/fal/tiger/fal_tiger_stat.c **** {
 253              		.loc 1 36 1 is_stmt 1 view -0
 254              		.cfi_startproc
 255              		@ args = 0, pretend = 0, frame = 8
 256              		@ frame_needed = 0, uses_anonymous_args = 0
  37:../switch_sdk/core/fal/tiger/fal_tiger_stat.c ****     global_ctrl1_t entry;
 257              		.loc 1 37 5 view .LVU44
  38:../switch_sdk/core/fal/tiger/fal_tiger_stat.c ****     cmm_err_t ret = CMM_ERR_OK;
 258              		.loc 1 38 5 view .LVU45
  39:../switch_sdk/core/fal/tiger/fal_tiger_stat.c ****     uint32_t enable;
 259              		.loc 1 39 5 view .LVU46
  40:../switch_sdk/core/fal/tiger/fal_tiger_stat.c **** 
  41:../switch_sdk/core/fal/tiger/fal_tiger_stat.c ****     if(NULL == pEnable)
 260              		.loc 1 41 5 view .LVU47
 261              		.loc 1 41 7 is_stmt 0 view .LVU48
 262 0000 0029     		cmp	r1, #0
 263 0002 38D0     		beq	.L19
  36:../switch_sdk/core/fal/tiger/fal_tiger_stat.c ****     global_ctrl1_t entry;
 264              		.loc 1 36 1 view .LVU49
 265 0004 70B5     		push	{r4, r5, r6, lr}
 266              		.cfi_def_cfa_offset 16
 267              		.cfi_offset 4, -16
 268              		.cfi_offset 5, -12
 269              		.cfi_offset 6, -8
 270              		.cfi_offset 14, -4
 271 0006 84B0     		sub	sp, sp, #16
 272              		.cfi_def_cfa_offset 32
 273 0008 0446     		mov	r4, r0
 274 000a 0E46     		mov	r6, r1
  42:../switch_sdk/core/fal/tiger/fal_tiger_stat.c ****         return CMM_ERR_NULL_POINT;
  43:../switch_sdk/core/fal/tiger/fal_tiger_stat.c **** 
  44:../switch_sdk/core/fal/tiger/fal_tiger_stat.c ****     osal_memset(&entry, 0, sizeof(global_ctrl1_t));
 275              		.loc 1 44 5 is_stmt 1 view .LVU50
 276 000c 03AD     		add	r5, sp, #12
 277 000e 0422     		movs	r2, #4
 278 0010 0021     		movs	r1, #0
 279              	.LVL26:
 280              		.loc 1 44 5 is_stmt 0 view .LVU51
 281 0012 2846     		mov	r0, r5
 282              	.LVL27:
 283              		.loc 1 44 5 view .LVU52
 284 0014 FFF7FEFF 		bl	osal_memset
 285              	.LVL28:
  45:../switch_sdk/core/fal/tiger/fal_tiger_stat.c ****     CMM_ERR_CHK(HAL_TBL_REG_READ(unit, GLOBAL_CTRL1m, 0, sizeof(global_ctrl1_t), &entry), ret);
 286              		.loc 1 45 5 is_stmt 1 view .LVU53
 287              		.loc 1 45 5 view .LVU54
 288 0018 0095     		str	r5, [sp]
 289 001a 0423     		movs	r3, #4
 290 001c 0022     		movs	r2, #0
 291 001e 0121     		movs	r1, #1
 292 0020 2046     		mov	r0, r4
 293 0022 FFF7FEFF 		bl	hal_table_reg_read
 294              	.LVL29:
 295 0026 0446     		mov	r4, r0
 296              	.LVL30:
 297              		.loc 1 45 5 is_stmt 0 view .LVU55
 298 0028 10F0FF03 		ands	r3, r0, #255
 299 002c 16D0     		beq	.L17
 300              		.loc 1 45 5 is_stmt 1 discriminator 1 view .LVU56
 301              		.loc 1 45 5 discriminator 1 view .LVU57
 302 002e 134A     		ldr	r2, .L25
 303 0030 1278     		ldrb	r2, [r2]	@ zero_extendqisi2
 304 0032 012A     		cmp	r2, #1
 305 0034 02D8     		bhi	.L24
 306              	.LVL31:
 307              	.L18:
 308              		.loc 1 45 5 discriminator 5 view .LVU58
 309              		.loc 1 45 5 discriminator 5 view .LVU59
 310              		.loc 1 45 5 discriminator 5 view .LVU60
 311 0036 E0B2     		uxtb	r0, r4
 312              	.L15:
  46:../switch_sdk/core/fal/tiger/fal_tiger_stat.c ****     HAL_FIELD_GET(GLOBAL_CTRL1m, GLOBAL_CTRL1_MIB_ENf, &entry, &enable);
  47:../switch_sdk/core/fal/tiger/fal_tiger_stat.c ****     *pEnable = enable ? YT_ENABLE : YT_DISABLE;   
  48:../switch_sdk/core/fal/tiger/fal_tiger_stat.c **** 
  49:../switch_sdk/core/fal/tiger/fal_tiger_stat.c ****     return CMM_ERR_OK;
  50:../switch_sdk/core/fal/tiger/fal_tiger_stat.c **** }
 313              		.loc 1 50 1 is_stmt 0 view .LVU61
 314 0038 04B0     		add	sp, sp, #16
 315              		.cfi_remember_state
 316              		.cfi_def_cfa_offset 16
 317              		@ sp needed
 318 003a 70BD     		pop	{r4, r5, r6, pc}
 319              	.LVL32:
 320              	.L24:
 321              		.cfi_restore_state
  45:../switch_sdk/core/fal/tiger/fal_tiger_stat.c ****     CMM_ERR_CHK(HAL_TBL_REG_READ(unit, GLOBAL_CTRL1m, 0, sizeof(global_ctrl1_t), &entry), ret);
 322              		.loc 1 45 5 is_stmt 1 discriminator 3 view .LVU62
 323              	.LBB4:
  45:../switch_sdk/core/fal/tiger/fal_tiger_stat.c ****     CMM_ERR_CHK(HAL_TBL_REG_READ(unit, GLOBAL_CTRL1m, 0, sizeof(global_ctrl1_t), &entry), ret);
 324              		.loc 1 45 5 discriminator 3 view .LVU63
 325 003c 142B     		cmp	r3, #20
 326 003e 28BF     		it	cs
 327 0040 1423     		movcs	r3, #20
 328 0042 1A46     		mov	r2, r3
 329 0044 0E4B     		ldr	r3, .L25+4
 330 0046 0093     		str	r3, [sp]
 331 0048 0E4B     		ldr	r3, .L25+8
 332 004a 0F49     		ldr	r1, .L25+12
 333 004c 51F82220 		ldr	r2, [r1, r2, lsl #2]
 334 0050 0E49     		ldr	r1, .L25+16
 335 0052 8968     		ldr	r1, [r1, #8]
 336 0054 0E48     		ldr	r0, .L25+20
 337              	.LVL33:
  45:../switch_sdk/core/fal/tiger/fal_tiger_stat.c ****     CMM_ERR_CHK(HAL_TBL_REG_READ(unit, GLOBAL_CTRL1m, 0, sizeof(global_ctrl1_t), &entry), ret);
 338              		.loc 1 45 5 is_stmt 0 discriminator 3 view .LVU64
 339 0056 FFF7FEFF 		bl	osal_printf
 340              	.LVL34:
 341 005a ECE7     		b	.L18
 342              	.LVL35:
 343              	.L17:
  45:../switch_sdk/core/fal/tiger/fal_tiger_stat.c ****     CMM_ERR_CHK(HAL_TBL_REG_READ(unit, GLOBAL_CTRL1m, 0, sizeof(global_ctrl1_t), &entry), ret);
 344              		.loc 1 45 5 discriminator 3 view .LVU65
 345              	.LBE4:
  45:../switch_sdk/core/fal/tiger/fal_tiger_stat.c ****     CMM_ERR_CHK(HAL_TBL_REG_READ(unit, GLOBAL_CTRL1m, 0, sizeof(global_ctrl1_t), &entry), ret);
 346              		.loc 1 45 5 is_stmt 1 discriminator 2 view .LVU66
  46:../switch_sdk/core/fal/tiger/fal_tiger_stat.c ****     HAL_FIELD_GET(GLOBAL_CTRL1m, GLOBAL_CTRL1_MIB_ENf, &entry, &enable);
 347              		.loc 1 46 5 discriminator 2 view .LVU67
 348              	.LBB5:
  46:../switch_sdk/core/fal/tiger/fal_tiger_stat.c ****     HAL_FIELD_GET(GLOBAL_CTRL1m, GLOBAL_CTRL1_MIB_ENf, &entry, &enable);
 349              		.loc 1 46 5 discriminator 2 view .LVU68
  46:../switch_sdk/core/fal/tiger/fal_tiger_stat.c ****     HAL_FIELD_GET(GLOBAL_CTRL1m, GLOBAL_CTRL1_MIB_ENf, &entry, &enable);
 350              		.loc 1 46 5 discriminator 2 view .LVU69
 351 005c 02AB     		add	r3, sp, #8
 352 005e 03AA     		add	r2, sp, #12
 353 0060 0321     		movs	r1, #3
 354 0062 0120     		movs	r0, #1
 355              	.LVL36:
  46:../switch_sdk/core/fal/tiger/fal_tiger_stat.c ****     HAL_FIELD_GET(GLOBAL_CTRL1m, GLOBAL_CTRL1_MIB_ENf, &entry, &enable);
 356              		.loc 1 46 5 is_stmt 0 discriminator 2 view .LVU70
 357 0064 FFF7FEFF 		bl	hal_tbl_reg_field_get
 358              	.LVL37:
  46:../switch_sdk/core/fal/tiger/fal_tiger_stat.c ****     HAL_FIELD_GET(GLOBAL_CTRL1m, GLOBAL_CTRL1_MIB_ENf, &entry, &enable);
 359              		.loc 1 46 5 is_stmt 1 discriminator 2 view .LVU71
  46:../switch_sdk/core/fal/tiger/fal_tiger_stat.c ****     HAL_FIELD_GET(GLOBAL_CTRL1m, GLOBAL_CTRL1_MIB_ENf, &entry, &enable);
 360              		.loc 1 46 5 is_stmt 0 discriminator 2 view .LVU72
 361              	.LBE5:
  46:../switch_sdk/core/fal/tiger/fal_tiger_stat.c ****     HAL_FIELD_GET(GLOBAL_CTRL1m, GLOBAL_CTRL1_MIB_ENf, &entry, &enable);
 362              		.loc 1 46 5 is_stmt 1 discriminator 2 view .LVU73
  47:../switch_sdk/core/fal/tiger/fal_tiger_stat.c **** 
 363              		.loc 1 47 5 discriminator 2 view .LVU74
  47:../switch_sdk/core/fal/tiger/fal_tiger_stat.c **** 
 364              		.loc 1 47 35 is_stmt 0 discriminator 2 view .LVU75
 365 0068 029B     		ldr	r3, [sp, #8]
 366 006a 003B     		subs	r3, r3, #0
 367 006c 18BF     		it	ne
 368 006e 0123     		movne	r3, #1
  47:../switch_sdk/core/fal/tiger/fal_tiger_stat.c **** 
 369              		.loc 1 47 14 discriminator 2 view .LVU76
 370 0070 3370     		strb	r3, [r6]
 371              	.LVL38:
  49:../switch_sdk/core/fal/tiger/fal_tiger_stat.c **** }
 372              		.loc 1 49 5 is_stmt 1 discriminator 2 view .LVU77
  49:../switch_sdk/core/fal/tiger/fal_tiger_stat.c **** }
 373              		.loc 1 49 12 is_stmt 0 discriminator 2 view .LVU78
 374 0072 0020     		movs	r0, #0
 375 0074 E0E7     		b	.L15
 376              	.LVL39:
 377              	.L19:
 378              		.cfi_def_cfa_offset 0
 379              		.cfi_restore 4
 380              		.cfi_restore 5
 381              		.cfi_restore 6
 382              		.cfi_restore 14
  42:../switch_sdk/core/fal/tiger/fal_tiger_stat.c **** 
 383              		.loc 1 42 16 view .LVU79
 384 0076 0220     		movs	r0, #2
 385              	.LVL40:
 386              		.loc 1 50 1 view .LVU80
 387 0078 7047     		bx	lr
 388              	.L26:
 389 007a 00BF     		.align	2
 390              	.L25:
 391 007c 00000000 		.word	yt_debug_level
 392 0080 00000000 		.word	__FUNCTION__.10
 393 0084 00000000 		.word	.LC0
 394 0088 00000000 		.word	_yt_errmsg
 395 008c 00000000 		.word	_yt_prompt_msg
 396 0090 3C000000 		.word	.LC1
 397              		.cfi_endproc
 398              	.LFE5:
 400              		.section	.rodata.fal_tiger_stat_mib_clear.str1.4,"aMS",%progbits,1
 401              		.align	2
 402              	.LC3:
 403 0000 68616C5F 		.ascii	"hal_mem32_read(unit, (0xc0004), &ctrl_data)\000"
 403      6D656D33 
 403      325F7265 
 403      61642875 
 403      6E69742C 
 404              		.align	2
 405              	.LC4:
 406 002c 68616C5F 		.ascii	"hal_mem32_write(unit, (0xc0004), ctrl_data)\000"
 406      6D656D33 
 406      325F7772 
 406      69746528 
 406      756E6974 
 407              		.section	.text.fal_tiger_stat_mib_clear,"ax",%progbits
 408              		.align	1
 409              		.global	fal_tiger_stat_mib_clear
 410              		.syntax unified
 411              		.thumb
 412              		.thumb_func
 414              	fal_tiger_stat_mib_clear:
 415              	.LVL41:
 416              	.LFB6:
  51:../switch_sdk/core/fal/tiger/fal_tiger_stat.c **** 
  52:../switch_sdk/core/fal/tiger/fal_tiger_stat.c **** yt_ret_t fal_tiger_stat_mib_clear (yt_unit_t unit, yt_port_t port)
  53:../switch_sdk/core/fal/tiger/fal_tiger_stat.c **** {
 417              		.loc 1 53 1 is_stmt 1 view -0
 418              		.cfi_startproc
 419              		@ args = 0, pretend = 0, frame = 8
 420              		@ frame_needed = 0, uses_anonymous_args = 0
 421              		.loc 1 53 1 is_stmt 0 view .LVU82
 422 0000 70B5     		push	{r4, r5, r6, lr}
 423              		.cfi_def_cfa_offset 16
 424              		.cfi_offset 4, -16
 425              		.cfi_offset 5, -12
 426              		.cfi_offset 6, -8
 427              		.cfi_offset 14, -4
 428 0002 84B0     		sub	sp, sp, #16
 429              		.cfi_def_cfa_offset 32
 430 0004 0546     		mov	r5, r0
  54:../switch_sdk/core/fal/tiger/fal_tiger_stat.c ****     uint32_t ctrl_data = 0;
 431              		.loc 1 54 5 is_stmt 1 view .LVU83
 432              		.loc 1 54 14 is_stmt 0 view .LVU84
 433 0006 0023     		movs	r3, #0
 434 0008 0393     		str	r3, [sp, #12]
  55:../switch_sdk/core/fal/tiger/fal_tiger_stat.c ****     yt_port_t port_mac_id;
 435              		.loc 1 55 5 is_stmt 1 view .LVU85
  56:../switch_sdk/core/fal/tiger/fal_tiger_stat.c ****     cmm_err_t ret = CMM_ERR_OK;
 436              		.loc 1 56 5 view .LVU86
 437              	.LVL42:
  57:../switch_sdk/core/fal/tiger/fal_tiger_stat.c **** 
  58:../switch_sdk/core/fal/tiger/fal_tiger_stat.c ****     port_mac_id = CAL_YTP_TO_MAC(unit,port);
 438              		.loc 1 58 5 view .LVU87
 439              		.loc 1 58 19 is_stmt 0 view .LVU88
 440 000a 3B4B     		ldr	r3, .L43
 441 000c 1B78     		ldrb	r3, [r3]	@ zero_extendqisi2
 442 000e 53B1     		cbz	r3, .L35
 443              		.loc 1 58 19 discriminator 1 view .LVU89
 444 0010 3A4B     		ldr	r3, .L43+4
 445 0012 53F82030 		ldr	r3, [r3, r0, lsl #2]
 446 0016 1A7D     		ldrb	r2, [r3, #20]	@ zero_extendqisi2
 447 0018 8A42     		cmp	r2, r1
 448 001a 15D9     		bls	.L36
 449              		.loc 1 58 19 discriminator 3 view .LVU90
 450 001c 0631     		adds	r1, r1, #6
 451              	.LVL43:
 452              		.loc 1 58 19 discriminator 3 view .LVU91
 453 001e 53F82130 		ldr	r3, [r3, r1, lsl #2]
 454 0022 1E78     		ldrb	r6, [r3]	@ zero_extendqisi2
 455 0024 00E0     		b	.L28
 456              	.LVL44:
 457              	.L35:
 458              		.loc 1 58 19 view .LVU92
 459 0026 FF26     		movs	r6, #255
 460              	.LVL45:
 461              	.L28:
  59:../switch_sdk/core/fal/tiger/fal_tiger_stat.c ****     
  60:../switch_sdk/core/fal/tiger/fal_tiger_stat.c ****     CMM_ERR_CHK(HAL_MEM_DIRECT_READ(unit, MIB_OP_ADDR, &ctrl_data), ret);
 462              		.loc 1 60 5 is_stmt 1 discriminator 6 view .LVU93
 463              		.loc 1 60 5 discriminator 6 view .LVU94
 464 0028 03AA     		add	r2, sp, #12
 465 002a 3549     		ldr	r1, .L43+8
 466 002c 2846     		mov	r0, r5
 467              	.LVL46:
 468              		.loc 1 60 5 is_stmt 0 discriminator 6 view .LVU95
 469 002e FFF7FEFF 		bl	hal_mem32_read
 470              	.LVL47:
 471 0032 0446     		mov	r4, r0
 472              	.LVL48:
 473              		.loc 1 60 5 discriminator 6 view .LVU96
 474 0034 10F0FF03 		ands	r3, r0, #255
 475 0038 18D0     		beq	.L29
 476              		.loc 1 60 5 is_stmt 1 discriminator 1 view .LVU97
 477              		.loc 1 60 5 discriminator 1 view .LVU98
 478 003a 324A     		ldr	r2, .L43+12
 479 003c 1278     		ldrb	r2, [r2]	@ zero_extendqisi2
 480 003e 012A     		cmp	r2, #1
 481 0040 04D8     		bhi	.L39
 482              	.LVL49:
 483              	.L30:
 484              		.loc 1 60 5 discriminator 5 view .LVU99
 485              		.loc 1 60 5 discriminator 5 view .LVU100
 486              		.loc 1 60 5 discriminator 5 view .LVU101
 487 0042 E0B2     		uxtb	r0, r4
 488              	.LVL50:
 489              	.L27:
  61:../switch_sdk/core/fal/tiger/fal_tiger_stat.c ****     ctrl_data = port_mac_id << 3 | 0x2 << 0;
  62:../switch_sdk/core/fal/tiger/fal_tiger_stat.c ****     CMM_ERR_CHK(HAL_MEM_DIRECT_WRITE(unit, MIB_OP_ADDR, ctrl_data), ret);
  63:../switch_sdk/core/fal/tiger/fal_tiger_stat.c ****     ctrl_data |= 1 << 30;
  64:../switch_sdk/core/fal/tiger/fal_tiger_stat.c ****     CMM_ERR_CHK(HAL_MEM_DIRECT_WRITE(unit, MIB_OP_ADDR, ctrl_data), ret);
  65:../switch_sdk/core/fal/tiger/fal_tiger_stat.c **** 
  66:../switch_sdk/core/fal/tiger/fal_tiger_stat.c ****     return CMM_ERR_OK;
  67:../switch_sdk/core/fal/tiger/fal_tiger_stat.c **** }
 490              		.loc 1 67 1 is_stmt 0 view .LVU102
 491 0044 04B0     		add	sp, sp, #16
 492              		.cfi_remember_state
 493              		.cfi_def_cfa_offset 16
 494              		@ sp needed
 495 0046 70BD     		pop	{r4, r5, r6, pc}
 496              	.LVL51:
 497              	.L36:
 498              		.cfi_restore_state
  58:../switch_sdk/core/fal/tiger/fal_tiger_stat.c ****     
 499              		.loc 1 58 19 view .LVU103
 500 0048 FF26     		movs	r6, #255
 501 004a EDE7     		b	.L28
 502              	.LVL52:
 503              	.L39:
  60:../switch_sdk/core/fal/tiger/fal_tiger_stat.c ****     ctrl_data = port_mac_id << 3 | 0x2 << 0;
 504              		.loc 1 60 5 is_stmt 1 discriminator 3 view .LVU104
 505              	.LBB6:
  60:../switch_sdk/core/fal/tiger/fal_tiger_stat.c ****     ctrl_data = port_mac_id << 3 | 0x2 << 0;
 506              		.loc 1 60 5 discriminator 3 view .LVU105
 507 004c 142B     		cmp	r3, #20
 508 004e 28BF     		it	cs
 509 0050 1423     		movcs	r3, #20
 510 0052 1A46     		mov	r2, r3
 511 0054 2C4B     		ldr	r3, .L43+16
 512 0056 0093     		str	r3, [sp]
 513 0058 2C4B     		ldr	r3, .L43+20
 514 005a 2D49     		ldr	r1, .L43+24
 515 005c 51F82220 		ldr	r2, [r1, r2, lsl #2]
 516 0060 2C49     		ldr	r1, .L43+28
 517 0062 8968     		ldr	r1, [r1, #8]
 518 0064 2C48     		ldr	r0, .L43+32
 519              	.LVL53:
  60:../switch_sdk/core/fal/tiger/fal_tiger_stat.c ****     ctrl_data = port_mac_id << 3 | 0x2 << 0;
 520              		.loc 1 60 5 is_stmt 0 discriminator 3 view .LVU106
 521 0066 FFF7FEFF 		bl	osal_printf
 522              	.LVL54:
 523 006a EAE7     		b	.L30
 524              	.LVL55:
 525              	.L29:
  60:../switch_sdk/core/fal/tiger/fal_tiger_stat.c ****     ctrl_data = port_mac_id << 3 | 0x2 << 0;
 526              		.loc 1 60 5 discriminator 3 view .LVU107
 527              	.LBE6:
  60:../switch_sdk/core/fal/tiger/fal_tiger_stat.c ****     ctrl_data = port_mac_id << 3 | 0x2 << 0;
 528              		.loc 1 60 5 is_stmt 1 discriminator 2 view .LVU108
  61:../switch_sdk/core/fal/tiger/fal_tiger_stat.c ****     ctrl_data = port_mac_id << 3 | 0x2 << 0;
 529              		.loc 1 61 5 discriminator 2 view .LVU109
  61:../switch_sdk/core/fal/tiger/fal_tiger_stat.c ****     ctrl_data = port_mac_id << 3 | 0x2 << 0;
 530              		.loc 1 61 29 is_stmt 0 discriminator 2 view .LVU110
 531 006c F200     		lsls	r2, r6, #3
  61:../switch_sdk/core/fal/tiger/fal_tiger_stat.c ****     ctrl_data = port_mac_id << 3 | 0x2 << 0;
 532              		.loc 1 61 34 discriminator 2 view .LVU111
 533 006e 42F00202 		orr	r2, r2, #2
  61:../switch_sdk/core/fal/tiger/fal_tiger_stat.c ****     ctrl_data = port_mac_id << 3 | 0x2 << 0;
 534              		.loc 1 61 15 discriminator 2 view .LVU112
 535 0072 0392     		str	r2, [sp, #12]
  62:../switch_sdk/core/fal/tiger/fal_tiger_stat.c ****     ctrl_data |= 1 << 30;
 536              		.loc 1 62 5 is_stmt 1 discriminator 2 view .LVU113
  62:../switch_sdk/core/fal/tiger/fal_tiger_stat.c ****     ctrl_data |= 1 << 30;
 537              		.loc 1 62 5 discriminator 2 view .LVU114
 538 0074 2249     		ldr	r1, .L43+8
 539 0076 2846     		mov	r0, r5
 540              	.LVL56:
  62:../switch_sdk/core/fal/tiger/fal_tiger_stat.c ****     ctrl_data |= 1 << 30;
 541              		.loc 1 62 5 is_stmt 0 discriminator 2 view .LVU115
 542 0078 FFF7FEFF 		bl	hal_mem32_write
 543              	.LVL57:
 544 007c 0446     		mov	r4, r0
 545              	.LVL58:
  62:../switch_sdk/core/fal/tiger/fal_tiger_stat.c ****     ctrl_data |= 1 << 30;
 546              		.loc 1 62 5 discriminator 2 view .LVU116
 547 007e 10F0FF03 		ands	r3, r0, #255
 548 0082 15D0     		beq	.L32
  62:../switch_sdk/core/fal/tiger/fal_tiger_stat.c ****     ctrl_data |= 1 << 30;
 549              		.loc 1 62 5 is_stmt 1 discriminator 1 view .LVU117
  62:../switch_sdk/core/fal/tiger/fal_tiger_stat.c ****     ctrl_data |= 1 << 30;
 550              		.loc 1 62 5 discriminator 1 view .LVU118
 551 0084 1F4A     		ldr	r2, .L43+12
 552 0086 1278     		ldrb	r2, [r2]	@ zero_extendqisi2
 553 0088 012A     		cmp	r2, #1
 554 008a 01D8     		bhi	.L40
 555              	.LVL59:
 556              	.L33:
  62:../switch_sdk/core/fal/tiger/fal_tiger_stat.c ****     ctrl_data |= 1 << 30;
 557              		.loc 1 62 5 discriminator 5 view .LVU119
  62:../switch_sdk/core/fal/tiger/fal_tiger_stat.c ****     ctrl_data |= 1 << 30;
 558              		.loc 1 62 5 discriminator 5 view .LVU120
  62:../switch_sdk/core/fal/tiger/fal_tiger_stat.c ****     ctrl_data |= 1 << 30;
 559              		.loc 1 62 5 discriminator 5 view .LVU121
 560 008c E0B2     		uxtb	r0, r4
 561 008e D9E7     		b	.L27
 562              	.LVL60:
 563              	.L40:
  62:../switch_sdk/core/fal/tiger/fal_tiger_stat.c ****     ctrl_data |= 1 << 30;
 564              		.loc 1 62 5 discriminator 3 view .LVU122
 565              	.LBB7:
  62:../switch_sdk/core/fal/tiger/fal_tiger_stat.c ****     ctrl_data |= 1 << 30;
 566              		.loc 1 62 5 discriminator 3 view .LVU123
 567 0090 142B     		cmp	r3, #20
 568 0092 28BF     		it	cs
 569 0094 1423     		movcs	r3, #20
 570 0096 1A46     		mov	r2, r3
 571 0098 1B4B     		ldr	r3, .L43+16
 572 009a 0093     		str	r3, [sp]
 573 009c 1F4B     		ldr	r3, .L43+36
 574 009e 1C49     		ldr	r1, .L43+24
 575 00a0 51F82220 		ldr	r2, [r1, r2, lsl #2]
 576 00a4 1B49     		ldr	r1, .L43+28
 577 00a6 8968     		ldr	r1, [r1, #8]
 578 00a8 1B48     		ldr	r0, .L43+32
 579              	.LVL61:
  62:../switch_sdk/core/fal/tiger/fal_tiger_stat.c ****     ctrl_data |= 1 << 30;
 580              		.loc 1 62 5 is_stmt 0 discriminator 3 view .LVU124
 581 00aa FFF7FEFF 		bl	osal_printf
 582              	.LVL62:
 583 00ae EDE7     		b	.L33
 584              	.LVL63:
 585              	.L32:
  62:../switch_sdk/core/fal/tiger/fal_tiger_stat.c ****     ctrl_data |= 1 << 30;
 586              		.loc 1 62 5 discriminator 3 view .LVU125
 587              	.LBE7:
  62:../switch_sdk/core/fal/tiger/fal_tiger_stat.c ****     ctrl_data |= 1 << 30;
 588              		.loc 1 62 5 is_stmt 1 discriminator 2 view .LVU126
  63:../switch_sdk/core/fal/tiger/fal_tiger_stat.c ****     CMM_ERR_CHK(HAL_MEM_DIRECT_WRITE(unit, MIB_OP_ADDR, ctrl_data), ret);
 589              		.loc 1 63 5 discriminator 2 view .LVU127
  63:../switch_sdk/core/fal/tiger/fal_tiger_stat.c ****     CMM_ERR_CHK(HAL_MEM_DIRECT_WRITE(unit, MIB_OP_ADDR, ctrl_data), ret);
 590              		.loc 1 63 15 is_stmt 0 discriminator 2 view .LVU128
 591 00b0 039A     		ldr	r2, [sp, #12]
 592 00b2 42F08042 		orr	r2, r2, #1073741824
 593 00b6 0392     		str	r2, [sp, #12]
  64:../switch_sdk/core/fal/tiger/fal_tiger_stat.c **** 
 594              		.loc 1 64 5 is_stmt 1 discriminator 2 view .LVU129
  64:../switch_sdk/core/fal/tiger/fal_tiger_stat.c **** 
 595              		.loc 1 64 5 discriminator 2 view .LVU130
 596 00b8 1149     		ldr	r1, .L43+8
 597 00ba 2846     		mov	r0, r5
 598              	.LVL64:
  64:../switch_sdk/core/fal/tiger/fal_tiger_stat.c **** 
 599              		.loc 1 64 5 is_stmt 0 discriminator 2 view .LVU131
 600 00bc FFF7FEFF 		bl	hal_mem32_write
 601              	.LVL65:
 602 00c0 0446     		mov	r4, r0
 603              	.LVL66:
  64:../switch_sdk/core/fal/tiger/fal_tiger_stat.c **** 
 604              		.loc 1 64 5 discriminator 2 view .LVU132
 605 00c2 10F0FF03 		ands	r3, r0, #255
 606 00c6 01D1     		bne	.L41
  66:../switch_sdk/core/fal/tiger/fal_tiger_stat.c **** }
 607              		.loc 1 66 12 view .LVU133
 608 00c8 0020     		movs	r0, #0
 609              	.LVL67:
  66:../switch_sdk/core/fal/tiger/fal_tiger_stat.c **** }
 610              		.loc 1 66 12 view .LVU134
 611 00ca BBE7     		b	.L27
 612              	.LVL68:
 613              	.L41:
  64:../switch_sdk/core/fal/tiger/fal_tiger_stat.c **** 
 614              		.loc 1 64 5 is_stmt 1 discriminator 1 view .LVU135
  64:../switch_sdk/core/fal/tiger/fal_tiger_stat.c **** 
 615              		.loc 1 64 5 discriminator 1 view .LVU136
 616 00cc 0D4A     		ldr	r2, .L43+12
 617 00ce 1278     		ldrb	r2, [r2]	@ zero_extendqisi2
 618 00d0 012A     		cmp	r2, #1
 619 00d2 01D8     		bhi	.L42
 620              	.LVL69:
 621              	.L34:
  64:../switch_sdk/core/fal/tiger/fal_tiger_stat.c **** 
 622              		.loc 1 64 5 discriminator 5 view .LVU137
  64:../switch_sdk/core/fal/tiger/fal_tiger_stat.c **** 
 623              		.loc 1 64 5 discriminator 5 view .LVU138
  64:../switch_sdk/core/fal/tiger/fal_tiger_stat.c **** 
 624              		.loc 1 64 5 discriminator 5 view .LVU139
 625 00d4 E0B2     		uxtb	r0, r4
 626 00d6 B5E7     		b	.L27
 627              	.LVL70:
 628              	.L42:
  64:../switch_sdk/core/fal/tiger/fal_tiger_stat.c **** 
 629              		.loc 1 64 5 discriminator 3 view .LVU140
 630              	.LBB8:
  64:../switch_sdk/core/fal/tiger/fal_tiger_stat.c **** 
 631              		.loc 1 64 5 discriminator 3 view .LVU141
 632 00d8 142B     		cmp	r3, #20
 633 00da 28BF     		it	cs
 634 00dc 1423     		movcs	r3, #20
 635 00de 1A46     		mov	r2, r3
 636 00e0 094B     		ldr	r3, .L43+16
 637 00e2 0093     		str	r3, [sp]
 638 00e4 0D4B     		ldr	r3, .L43+36
 639 00e6 0A49     		ldr	r1, .L43+24
 640 00e8 51F82220 		ldr	r2, [r1, r2, lsl #2]
 641 00ec 0949     		ldr	r1, .L43+28
 642 00ee 8968     		ldr	r1, [r1, #8]
 643 00f0 0948     		ldr	r0, .L43+32
 644              	.LVL71:
  64:../switch_sdk/core/fal/tiger/fal_tiger_stat.c **** 
 645              		.loc 1 64 5 is_stmt 0 discriminator 3 view .LVU142
 646 00f2 FFF7FEFF 		bl	osal_printf
 647              	.LVL72:
 648 00f6 EDE7     		b	.L34
 649              	.L44:
 650              		.align	2
 651              	.L43:
 652 00f8 00000000 		.word	gcal_inited
 653 00fc 00000000 		.word	gpSwitchUnit
 654 0100 04000C00 		.word	786436
 655 0104 00000000 		.word	yt_debug_level
 656 0108 00000000 		.word	__FUNCTION__.9
 657 010c 00000000 		.word	.LC3
 658 0110 00000000 		.word	_yt_errmsg
 659 0114 00000000 		.word	_yt_prompt_msg
 660 0118 3C000000 		.word	.LC1
 661 011c 2C000000 		.word	.LC4
 662              	.LBE8:
 663              		.cfi_endproc
 664              	.LFE6:
 666              		.section	.text.fal_tiger_stat_mib_clear_all,"ax",%progbits
 667              		.align	1
 668              		.global	fal_tiger_stat_mib_clear_all
 669              		.syntax unified
 670              		.thumb
 671              		.thumb_func
 673              	fal_tiger_stat_mib_clear_all:
 674              	.LVL73:
 675              	.LFB7:
  68:../switch_sdk/core/fal/tiger/fal_tiger_stat.c **** 
  69:../switch_sdk/core/fal/tiger/fal_tiger_stat.c **** yt_ret_t fal_tiger_stat_mib_clear_all (yt_unit_t unit)
  70:../switch_sdk/core/fal/tiger/fal_tiger_stat.c **** {
 676              		.loc 1 70 1 is_stmt 1 view -0
 677              		.cfi_startproc
 678              		@ args = 0, pretend = 0, frame = 8
 679              		@ frame_needed = 0, uses_anonymous_args = 0
 680              		.loc 1 70 1 is_stmt 0 view .LVU144
 681 0000 30B5     		push	{r4, r5, lr}
 682              		.cfi_def_cfa_offset 12
 683              		.cfi_offset 4, -12
 684              		.cfi_offset 5, -8
 685              		.cfi_offset 14, -4
 686 0002 85B0     		sub	sp, sp, #20
 687              		.cfi_def_cfa_offset 32
 688 0004 0546     		mov	r5, r0
  71:../switch_sdk/core/fal/tiger/fal_tiger_stat.c ****     uint32_t ctrl_data = 0;
 689              		.loc 1 71 5 is_stmt 1 view .LVU145
 690              		.loc 1 71 14 is_stmt 0 view .LVU146
 691 0006 0023     		movs	r3, #0
 692 0008 0393     		str	r3, [sp, #12]
  72:../switch_sdk/core/fal/tiger/fal_tiger_stat.c ****     cmm_err_t ret = CMM_ERR_OK;
 693              		.loc 1 72 5 is_stmt 1 view .LVU147
 694              	.LVL74:
  73:../switch_sdk/core/fal/tiger/fal_tiger_stat.c **** 
  74:../switch_sdk/core/fal/tiger/fal_tiger_stat.c ****     CMM_ERR_CHK(HAL_MEM_DIRECT_READ(unit, MIB_OP_ADDR, &ctrl_data), ret);
 695              		.loc 1 74 5 view .LVU148
 696              		.loc 1 74 5 view .LVU149
 697 000a 03AA     		add	r2, sp, #12
 698 000c 3049     		ldr	r1, .L58
 699 000e FFF7FEFF 		bl	hal_mem32_read
 700              	.LVL75:
 701              		.loc 1 74 5 is_stmt 0 view .LVU150
 702 0012 10F0FF03 		ands	r3, r0, #255
 703 0016 17D0     		beq	.L46
 704 0018 0446     		mov	r4, r0
 705              		.loc 1 74 5 is_stmt 1 discriminator 1 view .LVU151
 706              		.loc 1 74 5 discriminator 1 view .LVU152
 707 001a 2E4A     		ldr	r2, .L58+4
 708 001c 1278     		ldrb	r2, [r2]	@ zero_extendqisi2
 709 001e 012A     		cmp	r2, #1
 710 0020 02D8     		bhi	.L54
 711              	.LVL76:
 712              	.L47:
 713              		.loc 1 74 5 discriminator 5 view .LVU153
 714              		.loc 1 74 5 discriminator 5 view .LVU154
 715              		.loc 1 74 5 discriminator 5 view .LVU155
 716 0022 E0B2     		uxtb	r0, r4
 717              	.LVL77:
 718              	.L45:
  75:../switch_sdk/core/fal/tiger/fal_tiger_stat.c ****     ctrl_data = 0;
  76:../switch_sdk/core/fal/tiger/fal_tiger_stat.c ****     CMM_ERR_CHK(HAL_MEM_DIRECT_WRITE(unit, MIB_OP_ADDR, ctrl_data), ret);
  77:../switch_sdk/core/fal/tiger/fal_tiger_stat.c ****     ctrl_data |= 1 << 30;
  78:../switch_sdk/core/fal/tiger/fal_tiger_stat.c ****     CMM_ERR_CHK(HAL_MEM_DIRECT_WRITE(unit, MIB_OP_ADDR, ctrl_data), ret);
  79:../switch_sdk/core/fal/tiger/fal_tiger_stat.c **** 
  80:../switch_sdk/core/fal/tiger/fal_tiger_stat.c ****     return CMM_ERR_OK;
  81:../switch_sdk/core/fal/tiger/fal_tiger_stat.c **** }
 719              		.loc 1 81 1 is_stmt 0 view .LVU156
 720 0024 05B0     		add	sp, sp, #20
 721              		.cfi_remember_state
 722              		.cfi_def_cfa_offset 12
 723              		@ sp needed
 724 0026 30BD     		pop	{r4, r5, pc}
 725              	.LVL78:
 726              	.L54:
 727              		.cfi_restore_state
  74:../switch_sdk/core/fal/tiger/fal_tiger_stat.c ****     ctrl_data = 0;
 728              		.loc 1 74 5 is_stmt 1 discriminator 3 view .LVU157
 729              	.LBB9:
  74:../switch_sdk/core/fal/tiger/fal_tiger_stat.c ****     ctrl_data = 0;
 730              		.loc 1 74 5 discriminator 3 view .LVU158
 731 0028 142B     		cmp	r3, #20
 732 002a 28BF     		it	cs
 733 002c 1423     		movcs	r3, #20
 734 002e 1A46     		mov	r2, r3
 735 0030 294B     		ldr	r3, .L58+8
 736 0032 0093     		str	r3, [sp]
 737 0034 294B     		ldr	r3, .L58+12
 738 0036 2A49     		ldr	r1, .L58+16
 739 0038 51F82220 		ldr	r2, [r1, r2, lsl #2]
 740 003c 2949     		ldr	r1, .L58+20
 741 003e 8968     		ldr	r1, [r1, #8]
 742 0040 2948     		ldr	r0, .L58+24
 743              	.LVL79:
  74:../switch_sdk/core/fal/tiger/fal_tiger_stat.c ****     ctrl_data = 0;
 744              		.loc 1 74 5 is_stmt 0 discriminator 3 view .LVU159
 745 0042 FFF7FEFF 		bl	osal_printf
 746              	.LVL80:
 747 0046 ECE7     		b	.L47
 748              	.LVL81:
 749              	.L46:
  74:../switch_sdk/core/fal/tiger/fal_tiger_stat.c ****     ctrl_data = 0;
 750              		.loc 1 74 5 discriminator 3 view .LVU160
 751              	.LBE9:
  74:../switch_sdk/core/fal/tiger/fal_tiger_stat.c ****     ctrl_data = 0;
 752              		.loc 1 74 5 is_stmt 1 discriminator 2 view .LVU161
  75:../switch_sdk/core/fal/tiger/fal_tiger_stat.c ****     ctrl_data = 0;
 753              		.loc 1 75 5 discriminator 2 view .LVU162
  75:../switch_sdk/core/fal/tiger/fal_tiger_stat.c ****     ctrl_data = 0;
 754              		.loc 1 75 15 is_stmt 0 discriminator 2 view .LVU163
 755 0048 0022     		movs	r2, #0
 756 004a 0392     		str	r2, [sp, #12]
  76:../switch_sdk/core/fal/tiger/fal_tiger_stat.c ****     ctrl_data |= 1 << 30;
 757              		.loc 1 76 5 is_stmt 1 discriminator 2 view .LVU164
  76:../switch_sdk/core/fal/tiger/fal_tiger_stat.c ****     ctrl_data |= 1 << 30;
 758              		.loc 1 76 5 discriminator 2 view .LVU165
 759 004c 2049     		ldr	r1, .L58
 760 004e 2846     		mov	r0, r5
 761              	.LVL82:
  76:../switch_sdk/core/fal/tiger/fal_tiger_stat.c ****     ctrl_data |= 1 << 30;
 762              		.loc 1 76 5 is_stmt 0 discriminator 2 view .LVU166
 763 0050 FFF7FEFF 		bl	hal_mem32_write
 764              	.LVL83:
 765 0054 0446     		mov	r4, r0
 766              	.LVL84:
  76:../switch_sdk/core/fal/tiger/fal_tiger_stat.c ****     ctrl_data |= 1 << 30;
 767              		.loc 1 76 5 discriminator 2 view .LVU167
 768 0056 10F0FF03 		ands	r3, r0, #255
 769 005a 15D0     		beq	.L49
  76:../switch_sdk/core/fal/tiger/fal_tiger_stat.c ****     ctrl_data |= 1 << 30;
 770              		.loc 1 76 5 is_stmt 1 discriminator 1 view .LVU168
  76:../switch_sdk/core/fal/tiger/fal_tiger_stat.c ****     ctrl_data |= 1 << 30;
 771              		.loc 1 76 5 discriminator 1 view .LVU169
 772 005c 1D4A     		ldr	r2, .L58+4
 773 005e 1278     		ldrb	r2, [r2]	@ zero_extendqisi2
 774 0060 012A     		cmp	r2, #1
 775 0062 01D8     		bhi	.L55
 776              	.LVL85:
 777              	.L50:
  76:../switch_sdk/core/fal/tiger/fal_tiger_stat.c ****     ctrl_data |= 1 << 30;
 778              		.loc 1 76 5 discriminator 5 view .LVU170
  76:../switch_sdk/core/fal/tiger/fal_tiger_stat.c ****     ctrl_data |= 1 << 30;
 779              		.loc 1 76 5 discriminator 5 view .LVU171
  76:../switch_sdk/core/fal/tiger/fal_tiger_stat.c ****     ctrl_data |= 1 << 30;
 780              		.loc 1 76 5 discriminator 5 view .LVU172
 781 0064 E0B2     		uxtb	r0, r4
 782 0066 DDE7     		b	.L45
 783              	.LVL86:
 784              	.L55:
  76:../switch_sdk/core/fal/tiger/fal_tiger_stat.c ****     ctrl_data |= 1 << 30;
 785              		.loc 1 76 5 discriminator 3 view .LVU173
 786              	.LBB10:
  76:../switch_sdk/core/fal/tiger/fal_tiger_stat.c ****     ctrl_data |= 1 << 30;
 787              		.loc 1 76 5 discriminator 3 view .LVU174
 788 0068 142B     		cmp	r3, #20
 789 006a 28BF     		it	cs
 790 006c 1423     		movcs	r3, #20
 791 006e 1A46     		mov	r2, r3
 792 0070 194B     		ldr	r3, .L58+8
 793 0072 0093     		str	r3, [sp]
 794 0074 1D4B     		ldr	r3, .L58+28
 795 0076 1A49     		ldr	r1, .L58+16
 796 0078 51F82220 		ldr	r2, [r1, r2, lsl #2]
 797 007c 1949     		ldr	r1, .L58+20
 798 007e 8968     		ldr	r1, [r1, #8]
 799 0080 1948     		ldr	r0, .L58+24
 800              	.LVL87:
  76:../switch_sdk/core/fal/tiger/fal_tiger_stat.c ****     ctrl_data |= 1 << 30;
 801              		.loc 1 76 5 is_stmt 0 discriminator 3 view .LVU175
 802 0082 FFF7FEFF 		bl	osal_printf
 803              	.LVL88:
 804 0086 EDE7     		b	.L50
 805              	.LVL89:
 806              	.L49:
  76:../switch_sdk/core/fal/tiger/fal_tiger_stat.c ****     ctrl_data |= 1 << 30;
 807              		.loc 1 76 5 discriminator 3 view .LVU176
 808              	.LBE10:
  76:../switch_sdk/core/fal/tiger/fal_tiger_stat.c ****     ctrl_data |= 1 << 30;
 809              		.loc 1 76 5 is_stmt 1 discriminator 2 view .LVU177
  77:../switch_sdk/core/fal/tiger/fal_tiger_stat.c ****     CMM_ERR_CHK(HAL_MEM_DIRECT_WRITE(unit, MIB_OP_ADDR, ctrl_data), ret);
 810              		.loc 1 77 5 discriminator 2 view .LVU178
  77:../switch_sdk/core/fal/tiger/fal_tiger_stat.c ****     CMM_ERR_CHK(HAL_MEM_DIRECT_WRITE(unit, MIB_OP_ADDR, ctrl_data), ret);
 811              		.loc 1 77 15 is_stmt 0 discriminator 2 view .LVU179
 812 0088 039A     		ldr	r2, [sp, #12]
 813 008a 42F08042 		orr	r2, r2, #1073741824
 814 008e 0392     		str	r2, [sp, #12]
  78:../switch_sdk/core/fal/tiger/fal_tiger_stat.c **** 
 815              		.loc 1 78 5 is_stmt 1 discriminator 2 view .LVU180
  78:../switch_sdk/core/fal/tiger/fal_tiger_stat.c **** 
 816              		.loc 1 78 5 discriminator 2 view .LVU181
 817 0090 0F49     		ldr	r1, .L58
 818 0092 2846     		mov	r0, r5
 819              	.LVL90:
  78:../switch_sdk/core/fal/tiger/fal_tiger_stat.c **** 
 820              		.loc 1 78 5 is_stmt 0 discriminator 2 view .LVU182
 821 0094 FFF7FEFF 		bl	hal_mem32_write
 822              	.LVL91:
 823 0098 0446     		mov	r4, r0
 824              	.LVL92:
  78:../switch_sdk/core/fal/tiger/fal_tiger_stat.c **** 
 825              		.loc 1 78 5 discriminator 2 view .LVU183
 826 009a 10F0FF03 		ands	r3, r0, #255
 827 009e 01D1     		bne	.L56
  80:../switch_sdk/core/fal/tiger/fal_tiger_stat.c **** }
 828              		.loc 1 80 12 view .LVU184
 829 00a0 0020     		movs	r0, #0
 830              	.LVL93:
  80:../switch_sdk/core/fal/tiger/fal_tiger_stat.c **** }
 831              		.loc 1 80 12 view .LVU185
 832 00a2 BFE7     		b	.L45
 833              	.LVL94:
 834              	.L56:
  78:../switch_sdk/core/fal/tiger/fal_tiger_stat.c **** 
 835              		.loc 1 78 5 is_stmt 1 discriminator 1 view .LVU186
  78:../switch_sdk/core/fal/tiger/fal_tiger_stat.c **** 
 836              		.loc 1 78 5 discriminator 1 view .LVU187
 837 00a4 0B4A     		ldr	r2, .L58+4
 838 00a6 1278     		ldrb	r2, [r2]	@ zero_extendqisi2
 839 00a8 012A     		cmp	r2, #1
 840 00aa 01D8     		bhi	.L57
 841              	.LVL95:
 842              	.L51:
  78:../switch_sdk/core/fal/tiger/fal_tiger_stat.c **** 
 843              		.loc 1 78 5 discriminator 5 view .LVU188
  78:../switch_sdk/core/fal/tiger/fal_tiger_stat.c **** 
 844              		.loc 1 78 5 discriminator 5 view .LVU189
  78:../switch_sdk/core/fal/tiger/fal_tiger_stat.c **** 
 845              		.loc 1 78 5 discriminator 5 view .LVU190
 846 00ac E0B2     		uxtb	r0, r4
 847 00ae B9E7     		b	.L45
 848              	.LVL96:
 849              	.L57:
  78:../switch_sdk/core/fal/tiger/fal_tiger_stat.c **** 
 850              		.loc 1 78 5 discriminator 3 view .LVU191
 851              	.LBB11:
  78:../switch_sdk/core/fal/tiger/fal_tiger_stat.c **** 
 852              		.loc 1 78 5 discriminator 3 view .LVU192
 853 00b0 142B     		cmp	r3, #20
 854 00b2 28BF     		it	cs
 855 00b4 1423     		movcs	r3, #20
 856 00b6 1A46     		mov	r2, r3
 857 00b8 074B     		ldr	r3, .L58+8
 858 00ba 0093     		str	r3, [sp]
 859 00bc 0B4B     		ldr	r3, .L58+28
 860 00be 0849     		ldr	r1, .L58+16
 861 00c0 51F82220 		ldr	r2, [r1, r2, lsl #2]
 862 00c4 0749     		ldr	r1, .L58+20
 863 00c6 8968     		ldr	r1, [r1, #8]
 864 00c8 0748     		ldr	r0, .L58+24
 865              	.LVL97:
  78:../switch_sdk/core/fal/tiger/fal_tiger_stat.c **** 
 866              		.loc 1 78 5 is_stmt 0 discriminator 3 view .LVU193
 867 00ca FFF7FEFF 		bl	osal_printf
 868              	.LVL98:
 869 00ce EDE7     		b	.L51
 870              	.L59:
 871              		.align	2
 872              	.L58:
 873 00d0 04000C00 		.word	786436
 874 00d4 00000000 		.word	yt_debug_level
 875 00d8 00000000 		.word	__FUNCTION__.8
 876 00dc 00000000 		.word	.LC3
 877 00e0 00000000 		.word	_yt_errmsg
 878 00e4 00000000 		.word	_yt_prompt_msg
 879 00e8 3C000000 		.word	.LC1
 880 00ec 2C000000 		.word	.LC4
 881              	.LBE11:
 882              		.cfi_endproc
 883              	.LFE7:
 885              		.section	.rodata.fal_tiger_stat_mib_port_get.str1.4,"aMS",%progbits,1
 886              		.align	2
 887              	.LC5:
 888 0000 68616C5F 		.ascii	"hal_mem32_read(unit, (0xc0100) + 0x100 * port_mac_i"
 888      6D656D33 
 888      325F7265 
 888      61642875 
 888      6E69742C 
 889 0033 64202B20 		.ascii	"d + 0x4 * mib_index, &mib_data)\000"
 889      30783420 
 889      2A206D69 
 889      625F696E 
 889      6465782C 
 890 0053 00       		.align	2
 891              	.LC6:
 892 0054 68616C5F 		.ascii	"hal_mem32_read(unit, (0xc0100) + 0x100 * port_mac_i"
 892      6D656D33 
 892      325F7265 
 892      61642875 
 892      6E69742C 
 893 0087 64202B20 		.ascii	"d + 0x4 *(mib_index + 1), &tmp_data)\000"
 893      30783420 
 893      2A286D69 
 893      625F696E 
 893      64657820 
 894              		.section	.text.fal_tiger_stat_mib_port_get,"ax",%progbits
 895              		.align	1
 896              		.global	fal_tiger_stat_mib_port_get
 897              		.syntax unified
 898              		.thumb
 899              		.thumb_func
 901              	fal_tiger_stat_mib_port_get:
 902              	.LVL99:
 903              	.LFB8:
  82:../switch_sdk/core/fal/tiger/fal_tiger_stat.c **** 
  83:../switch_sdk/core/fal/tiger/fal_tiger_stat.c **** yt_ret_t fal_tiger_stat_mib_port_get (yt_unit_t unit, yt_port_t port, yt_stat_mib_port_cnt_t *pcnt)
  84:../switch_sdk/core/fal/tiger/fal_tiger_stat.c **** {
 904              		.loc 1 84 1 is_stmt 1 view -0
 905              		.cfi_startproc
 906              		@ args = 0, pretend = 0, frame = 8
 907              		@ frame_needed = 0, uses_anonymous_args = 0
 908              		.loc 1 84 1 is_stmt 0 view .LVU195
 909 0000 2DE9F047 		push	{r4, r5, r6, r7, r8, r9, r10, lr}
 910              		.cfi_def_cfa_offset 32
 911              		.cfi_offset 4, -32
 912              		.cfi_offset 5, -28
 913              		.cfi_offset 6, -24
 914              		.cfi_offset 7, -20
 915              		.cfi_offset 8, -16
 916              		.cfi_offset 9, -12
 917              		.cfi_offset 10, -8
 918              		.cfi_offset 14, -4
 919 0004 84B0     		sub	sp, sp, #16
 920              		.cfi_def_cfa_offset 48
  85:../switch_sdk/core/fal/tiger/fal_tiger_stat.c ****     cmm_err_t ret = CMM_ERR_OK;
 921              		.loc 1 85 5 is_stmt 1 view .LVU196
 922              	.LVL100:
  86:../switch_sdk/core/fal/tiger/fal_tiger_stat.c ****     uint32 *port_cnt;
 923              		.loc 1 86 5 view .LVU197
  87:../switch_sdk/core/fal/tiger/fal_tiger_stat.c ****     uint32_t mib_index = 0;
 924              		.loc 1 87 5 view .LVU198
  88:../switch_sdk/core/fal/tiger/fal_tiger_stat.c ****     uint32 mib_data = 0;
 925              		.loc 1 88 5 view .LVU199
 926              		.loc 1 88 12 is_stmt 0 view .LVU200
 927 0006 0023     		movs	r3, #0
 928 0008 0393     		str	r3, [sp, #12]
  89:../switch_sdk/core/fal/tiger/fal_tiger_stat.c ****     uint32 tmp_data = 0;
 929              		.loc 1 89 5 is_stmt 1 view .LVU201
 930              		.loc 1 89 12 is_stmt 0 view .LVU202
 931 000a 0293     		str	r3, [sp, #8]
  90:../switch_sdk/core/fal/tiger/fal_tiger_stat.c ****     uint64 result_data = 0;
 932              		.loc 1 90 5 is_stmt 1 view .LVU203
 933              	.LVL101:
  91:../switch_sdk/core/fal/tiger/fal_tiger_stat.c ****     yt_port_t port_mac_id;
 934              		.loc 1 91 5 view .LVU204
  92:../switch_sdk/core/fal/tiger/fal_tiger_stat.c **** 
  93:../switch_sdk/core/fal/tiger/fal_tiger_stat.c ****     if(NULL == pcnt)
 935              		.loc 1 93 5 view .LVU205
 936              		.loc 1 93 7 is_stmt 0 view .LVU206
 937 000c 002A     		cmp	r2, #0
 938 000e 00F0EB80 		beq	.L77
 939 0012 8146     		mov	r9, r0
 940 0014 1746     		mov	r7, r2
  94:../switch_sdk/core/fal/tiger/fal_tiger_stat.c ****         return CMM_ERR_NULL_POINT;
  95:../switch_sdk/core/fal/tiger/fal_tiger_stat.c **** 
  96:../switch_sdk/core/fal/tiger/fal_tiger_stat.c ****     port_mac_id = CAL_YTP_TO_MAC(unit,port);
 941              		.loc 1 96 5 is_stmt 1 view .LVU207
 942              		.loc 1 96 19 is_stmt 0 view .LVU208
 943 0016 754B     		ldr	r3, .L86
 944 0018 1B78     		ldrb	r3, [r3]	@ zero_extendqisi2
 945 001a 5BB1     		cbz	r3, .L78
 946              		.loc 1 96 19 discriminator 1 view .LVU209
 947 001c 744B     		ldr	r3, .L86+4
 948 001e 53F82030 		ldr	r3, [r3, r0, lsl #2]
 949 0022 1A7D     		ldrb	r2, [r3, #20]	@ zero_extendqisi2
 950              	.LVL102:
 951              		.loc 1 96 19 discriminator 1 view .LVU210
 952 0024 8A42     		cmp	r2, r1
 953 0026 0AD9     		bls	.L79
 954              		.loc 1 96 19 discriminator 3 view .LVU211
 955 0028 0631     		adds	r1, r1, #6
 956              	.LVL103:
 957              		.loc 1 96 19 discriminator 3 view .LVU212
 958 002a 53F82130 		ldr	r3, [r3, r1, lsl #2]
 959 002e 93F800A0 		ldrb	r10, [r3]	@ zero_extendqisi2
 960 0032 01E0     		b	.L62
 961              	.LVL104:
 962              	.L78:
 963              		.loc 1 96 19 view .LVU213
 964 0034 4FF0FF0A 		mov	r10, #255
 965              	.LVL105:
 966              	.L62:
  97:../switch_sdk/core/fal/tiger/fal_tiger_stat.c ****     port_cnt = (uint32 *)pcnt;
 967              		.loc 1 97 5 is_stmt 1 discriminator 6 view .LVU214
  98:../switch_sdk/core/fal/tiger/fal_tiger_stat.c ****     for(mib_index = 0; mib_index < YT_STAT_MAX; mib_index ++ )
 968              		.loc 1 98 5 discriminator 6 view .LVU215
  97:../switch_sdk/core/fal/tiger/fal_tiger_stat.c ****     port_cnt = (uint32 *)pcnt;
 969              		.loc 1 97 14 is_stmt 0 discriminator 6 view .LVU216
 970 0038 B846     		mov	r8, r7
 971              		.loc 1 98 19 discriminator 6 view .LVU217
 972 003a 0025     		movs	r5, #0
 973              		.loc 1 98 5 discriminator 6 view .LVU218
 974 003c 5BE0     		b	.L63
 975              	.LVL106:
 976              	.L79:
  96:../switch_sdk/core/fal/tiger/fal_tiger_stat.c ****     port_cnt = (uint32 *)pcnt;
 977              		.loc 1 96 19 view .LVU219
 978 003e 4FF0FF0A 		mov	r10, #255
 979 0042 F9E7     		b	.L62
 980              	.LVL107:
 981              	.L85:
  99:../switch_sdk/core/fal/tiger/fal_tiger_stat.c ****     {
 100:../switch_sdk/core/fal/tiger/fal_tiger_stat.c ****         CMM_ERR_CHK(HAL_MEM_DIRECT_READ(unit, MIB_TBL_BASE_ADDR0 + 0x100 * port_mac_id + 0x4 * mib_
 982              		.loc 1 100 9 is_stmt 1 discriminator 1 view .LVU220
 983              		.loc 1 100 9 discriminator 1 view .LVU221
 984 0044 6B4A     		ldr	r2, .L86+8
 985 0046 1278     		ldrb	r2, [r2]	@ zero_extendqisi2
 986 0048 012A     		cmp	r2, #1
 987 004a 01D8     		bhi	.L81
 988              	.LVL108:
 989              	.L65:
 990              		.loc 1 100 9 discriminator 5 view .LVU222
 991              		.loc 1 100 9 discriminator 5 view .LVU223
 992              		.loc 1 100 9 discriminator 5 view .LVU224
 993 004c E0B2     		uxtb	r0, r4
 994 004e C8E0     		b	.L60
 995              	.LVL109:
 996              	.L81:
 997              		.loc 1 100 9 discriminator 3 view .LVU225
 998              	.LBB12:
 999              		.loc 1 100 9 discriminator 3 view .LVU226
 1000 0050 142B     		cmp	r3, #20
 1001 0052 28BF     		it	cs
 1002 0054 1423     		movcs	r3, #20
 1003 0056 1A46     		mov	r2, r3
 1004 0058 674B     		ldr	r3, .L86+12
 1005 005a 0093     		str	r3, [sp]
 1006 005c 674B     		ldr	r3, .L86+16
 1007 005e 6849     		ldr	r1, .L86+20
 1008 0060 51F82220 		ldr	r2, [r1, r2, lsl #2]
 1009 0064 6749     		ldr	r1, .L86+24
 1010 0066 8968     		ldr	r1, [r1, #8]
 1011 0068 6748     		ldr	r0, .L86+28
 1012              	.LVL110:
 1013              		.loc 1 100 9 is_stmt 0 discriminator 3 view .LVU227
 1014 006a FFF7FEFF 		bl	osal_printf
 1015              	.LVL111:
 1016 006e EDE7     		b	.L65
 1017              	.LVL112:
 1018              	.L70:
 1019              		.loc 1 100 9 discriminator 3 view .LVU228
 1020              	.LBE12:
 101:../switch_sdk/core/fal/tiger/fal_tiger_stat.c ****         if(mib_index == RX_OKBYTE || mib_index == RX_NOT_OKBYTE || mib_index == TX_OKBYTE)
 102:../switch_sdk/core/fal/tiger/fal_tiger_stat.c ****         {
 103:../switch_sdk/core/fal/tiger/fal_tiger_stat.c ****             CMM_ERR_CHK(HAL_MEM_DIRECT_READ(unit, MIB_TBL_BASE_ADDR0 + 0x100 * port_mac_id + 0x4 *(
 1021              		.loc 1 103 13 is_stmt 1 view .LVU229
 1022              		.loc 1 103 13 view .LVU230
 1023 0070 711C     		adds	r1, r6, #1
 1024 0072 02AA     		add	r2, sp, #8
 1025 0074 8900     		lsls	r1, r1, #2
 1026 0076 4846     		mov	r0, r9
 1027              	.LVL113:
 1028              		.loc 1 103 13 is_stmt 0 view .LVU231
 1029 0078 FFF7FEFF 		bl	hal_mem32_read
 1030              	.LVL114:
 1031 007c 0446     		mov	r4, r0
 1032              	.LVL115:
 1033              		.loc 1 103 13 view .LVU232
 1034 007e 10F0FF03 		ands	r3, r0, #255
 1035 0082 09D1     		bne	.L82
 1036              		.loc 1 103 13 is_stmt 1 discriminator 2 view .LVU233
 104:../switch_sdk/core/fal/tiger/fal_tiger_stat.c ****             result_data = tmp_data;
 1037              		.loc 1 104 13 discriminator 2 view .LVU234
 1038              	.LVL116:
 105:../switch_sdk/core/fal/tiger/fal_tiger_stat.c **** 
 106:../switch_sdk/core/fal/tiger/fal_tiger_stat.c ****             *(uint64 *)port_cnt = (result_data << 32) |mib_data;
 1039              		.loc 1 106 13 discriminator 2 view .LVU235
 1040              		.loc 1 106 55 is_stmt 0 discriminator 2 view .LVU236
 1041 0084 039B     		ldr	r3, [sp, #12]
 1042              		.loc 1 106 33 discriminator 2 view .LVU237
 1043 0086 C8F80030 		str	r3, [r8]
 1044              	.LVL117:
 1045              		.loc 1 106 33 discriminator 2 view .LVU238
 1046 008a 029B     		ldr	r3, [sp, #8]
 1047 008c C8F80430 		str	r3, [r8, #4]
 107:../switch_sdk/core/fal/tiger/fal_tiger_stat.c ****             mib_index += 1;
 1048              		.loc 1 107 13 is_stmt 1 discriminator 2 view .LVU239
 1049              		.loc 1 107 23 is_stmt 0 discriminator 2 view .LVU240
 1050 0090 0135     		adds	r5, r5, #1
 1051              	.LVL118:
 108:../switch_sdk/core/fal/tiger/fal_tiger_stat.c ****             result_data = 0;
 1052              		.loc 1 108 13 is_stmt 1 discriminator 2 view .LVU241
 109:../switch_sdk/core/fal/tiger/fal_tiger_stat.c ****             port_cnt += 2;
 1053              		.loc 1 109 13 discriminator 2 view .LVU242
 1054              		.loc 1 109 22 is_stmt 0 discriminator 2 view .LVU243
 1055 0092 08F10808 		add	r8, r8, #8
 1056              	.LVL119:
 1057              		.loc 1 109 22 discriminator 2 view .LVU244
 1058 0096 2DE0     		b	.L75
 1059              	.L82:
 103:../switch_sdk/core/fal/tiger/fal_tiger_stat.c ****             result_data = tmp_data;
 1060              		.loc 1 103 13 is_stmt 1 discriminator 1 view .LVU245
 103:../switch_sdk/core/fal/tiger/fal_tiger_stat.c ****             result_data = tmp_data;
 1061              		.loc 1 103 13 discriminator 1 view .LVU246
 1062 0098 564A     		ldr	r2, .L86+8
 1063 009a 1278     		ldrb	r2, [r2]	@ zero_extendqisi2
 1064 009c 012A     		cmp	r2, #1
 1065 009e 01D8     		bhi	.L83
 1066              	.LVL120:
 1067              	.L74:
 103:../switch_sdk/core/fal/tiger/fal_tiger_stat.c ****             result_data = tmp_data;
 1068              		.loc 1 103 13 discriminator 5 view .LVU247
 103:../switch_sdk/core/fal/tiger/fal_tiger_stat.c ****             result_data = tmp_data;
 1069              		.loc 1 103 13 discriminator 5 view .LVU248
 103:../switch_sdk/core/fal/tiger/fal_tiger_stat.c ****             result_data = tmp_data;
 1070              		.loc 1 103 13 discriminator 5 view .LVU249
 1071 00a0 E0B2     		uxtb	r0, r4
 1072 00a2 9EE0     		b	.L60
 1073              	.LVL121:
 1074              	.L83:
 103:../switch_sdk/core/fal/tiger/fal_tiger_stat.c ****             result_data = tmp_data;
 1075              		.loc 1 103 13 discriminator 3 view .LVU250
 1076              	.LBB13:
 103:../switch_sdk/core/fal/tiger/fal_tiger_stat.c ****             result_data = tmp_data;
 1077              		.loc 1 103 13 discriminator 3 view .LVU251
 1078 00a4 142B     		cmp	r3, #20
 1079 00a6 28BF     		it	cs
 1080 00a8 1423     		movcs	r3, #20
 1081 00aa 1A46     		mov	r2, r3
 1082 00ac 524B     		ldr	r3, .L86+12
 1083 00ae 0093     		str	r3, [sp]
 1084 00b0 564B     		ldr	r3, .L86+32
 1085 00b2 5349     		ldr	r1, .L86+20
 1086 00b4 51F82220 		ldr	r2, [r1, r2, lsl #2]
 1087 00b8 5249     		ldr	r1, .L86+24
 1088 00ba 8968     		ldr	r1, [r1, #8]
 1089 00bc 5248     		ldr	r0, .L86+28
 1090              	.LVL122:
 103:../switch_sdk/core/fal/tiger/fal_tiger_stat.c ****             result_data = tmp_data;
 1091              		.loc 1 103 13 is_stmt 0 discriminator 3 view .LVU252
 1092 00be FFF7FEFF 		bl	osal_printf
 1093              	.LVL123:
 1094 00c2 EDE7     		b	.L74
 1095              	.LVL124:
 1096              	.L69:
 103:../switch_sdk/core/fal/tiger/fal_tiger_stat.c ****             result_data = tmp_data;
 1097              		.loc 1 103 13 discriminator 3 view .LVU253
 1098              	.LBE13:
 110:../switch_sdk/core/fal/tiger/fal_tiger_stat.c ****         }
 111:../switch_sdk/core/fal/tiger/fal_tiger_stat.c ****         else if(mib_index == RX_UNICAST)
 112:../switch_sdk/core/fal/tiger/fal_tiger_stat.c ****         {
 113:../switch_sdk/core/fal/tiger/fal_tiger_stat.c ****             *port_cnt = pcnt->RX_64B + pcnt->RX_65_127B + pcnt->RX_128_255B + pcnt->RX_256_511B + p
 1099              		.loc 1 113 13 is_stmt 1 view .LVU254
 1100              		.loc 1 113 29 is_stmt 0 view .LVU255
 1101 00c4 FB69     		ldr	r3, [r7, #28]
 1102              		.loc 1 113 44 view .LVU256
 1103 00c6 3A6A     		ldr	r2, [r7, #32]
 1104              		.loc 1 113 38 view .LVU257
 1105 00c8 1344     		add	r3, r3, r2
 1106              		.loc 1 113 63 view .LVU258
 1107 00ca 7A6A     		ldr	r2, [r7, #36]
 1108              		.loc 1 113 57 view .LVU259
 1109 00cc 1344     		add	r3, r3, r2
 1110              		.loc 1 113 83 view .LVU260
 1111 00ce BA6A     		ldr	r2, [r7, #40]
 1112              		.loc 1 113 77 view .LVU261
 1113 00d0 1344     		add	r3, r3, r2
 1114              		.loc 1 113 103 view .LVU262
 1115 00d2 FA6A     		ldr	r2, [r7, #44]
 1116              		.loc 1 113 97 view .LVU263
 1117 00d4 1344     		add	r3, r3, r2
 114:../switch_sdk/core/fal/tiger/fal_tiger_stat.c ****                             + pcnt->RX_1024_1518B + pcnt->RX_JUMBO - pcnt->RX_MULTICAST - pcnt->RX_
 1118              		.loc 1 114 35 view .LVU264
 1119 00d6 3A6B     		ldr	r2, [r7, #48]
 1120              		.loc 1 114 29 view .LVU265
 1121 00d8 1344     		add	r3, r3, r2
 1122              		.loc 1 114 57 view .LVU266
 1123 00da 7A6B     		ldr	r2, [r7, #52]
 1124              		.loc 1 114 51 view .LVU267
 1125 00dc 1344     		add	r3, r3, r2
 1126              		.loc 1 114 74 view .LVU268
 1127 00de BA68     		ldr	r2, [r7, #8]
 1128              		.loc 1 114 68 view .LVU269
 1129 00e0 9B1A     		subs	r3, r3, r2
 1130              		.loc 1 114 95 view .LVU270
 1131 00e2 3A68     		ldr	r2, [r7]
 1132              		.loc 1 114 89 view .LVU271
 1133 00e4 9B1A     		subs	r3, r3, r2
 1134              		.loc 1 114 116 view .LVU272
 1135 00e6 7A68     		ldr	r2, [r7, #4]
 1136              		.loc 1 114 110 view .LVU273
 1137 00e8 9B1A     		subs	r3, r3, r2
 1138              		.loc 1 114 133 view .LVU274
 1139 00ea D7F8A020 		ldr	r2, [r7, #160]
 1140              		.loc 1 114 127 view .LVU275
 1141 00ee 9B1A     		subs	r3, r3, r2
 113:../switch_sdk/core/fal/tiger/fal_tiger_stat.c ****                             + pcnt->RX_1024_1518B + pcnt->RX_JUMBO - pcnt->RX_MULTICAST - pcnt->RX_
 1142              		.loc 1 113 23 view .LVU276
 1143 00f0 48F8043B 		str	r3, [r8], #4
 1144              	.LVL125:
 115:../switch_sdk/core/fal/tiger/fal_tiger_stat.c ****             port_cnt += 1;
 1145              		.loc 1 115 13 is_stmt 1 view .LVU277
 1146              	.L75:
  98:../switch_sdk/core/fal/tiger/fal_tiger_stat.c ****     {
 1147              		.loc 1 98 59 discriminator 2 view .LVU278
 1148 00f4 0135     		adds	r5, r5, #1
 1149              	.LVL126:
 1150              	.L63:
  98:../switch_sdk/core/fal/tiger/fal_tiger_stat.c ****     {
 1151              		.loc 1 98 34 discriminator 1 view .LVU279
 1152 00f6 2D2D     		cmp	r5, #45
 1153 00f8 72D8     		bhi	.L84
 100:../switch_sdk/core/fal/tiger/fal_tiger_stat.c ****         if(mib_index == RX_OKBYTE || mib_index == RX_NOT_OKBYTE || mib_index == TX_OKBYTE)
 1154              		.loc 1 100 9 view .LVU280
 100:../switch_sdk/core/fal/tiger/fal_tiger_stat.c ****         if(mib_index == RX_OKBYTE || mib_index == RX_NOT_OKBYTE || mib_index == TX_OKBYTE)
 1155              		.loc 1 100 9 view .LVU281
 1156 00fa 0AF60146 		addw	r6, r10, #3073
 1157 00fe 05EB8616 		add	r6, r5, r6, lsl #6
 1158 0102 03AA     		add	r2, sp, #12
 1159 0104 B100     		lsls	r1, r6, #2
 1160 0106 4846     		mov	r0, r9
 1161 0108 FFF7FEFF 		bl	hal_mem32_read
 1162              	.LVL127:
 1163 010c 0446     		mov	r4, r0
 1164              	.LVL128:
 100:../switch_sdk/core/fal/tiger/fal_tiger_stat.c ****         if(mib_index == RX_OKBYTE || mib_index == RX_NOT_OKBYTE || mib_index == TX_OKBYTE)
 1165              		.loc 1 100 9 is_stmt 0 view .LVU282
 1166 010e 10F0FF03 		ands	r3, r0, #255
 1167 0112 97D1     		bne	.L85
 100:../switch_sdk/core/fal/tiger/fal_tiger_stat.c ****         if(mib_index == RX_OKBYTE || mib_index == RX_NOT_OKBYTE || mib_index == TX_OKBYTE)
 1168              		.loc 1 100 9 is_stmt 1 view .LVU283
 101:../switch_sdk/core/fal/tiger/fal_tiger_stat.c ****         {
 1169              		.loc 1 101 9 view .LVU284
 1170 0114 A5F10D03 		sub	r3, r5, #13
 1171 0118 202B     		cmp	r3, #32
 1172 011a 5DD8     		bhi	.L66
 1173 011c 01A2     		adr	r2, .L68
 1174 011e 52F823F0 		ldr	pc, [r2, r3, lsl #2]
 1175 0122 00BF     		.p2align 2
 1176              	.L68:
 1177 0124 C5010000 		.word	.L72+1
 1178 0128 D9010000 		.word	.L66+1
 1179 012c 71000000 		.word	.L70+1
 1180 0130 D9010000 		.word	.L66+1
 1181 0134 71000000 		.word	.L70+1
 1182 0138 D9010000 		.word	.L66+1
 1183 013c D9010000 		.word	.L66+1
 1184 0140 D9010000 		.word	.L66+1
 1185 0144 D9010000 		.word	.L66+1
 1186 0148 D9010000 		.word	.L66+1
 1187 014c D9010000 		.word	.L66+1
 1188 0150 D9010000 		.word	.L66+1
 1189 0154 D9010000 		.word	.L66+1
 1190 0158 D9010000 		.word	.L66+1
 1191 015c D9010000 		.word	.L66+1
 1192 0160 D9010000 		.word	.L66+1
 1193 0164 D9010000 		.word	.L66+1
 1194 0168 D9010000 		.word	.L66+1
 1195 016c CF010000 		.word	.L71+1
 1196 0170 D9010000 		.word	.L66+1
 1197 0174 71000000 		.word	.L70+1
 1198 0178 D9010000 		.word	.L66+1
 1199 017c D9010000 		.word	.L66+1
 1200 0180 D9010000 		.word	.L66+1
 1201 0184 D9010000 		.word	.L66+1
 1202 0188 D9010000 		.word	.L66+1
 1203 018c D9010000 		.word	.L66+1
 1204 0190 D9010000 		.word	.L66+1
 1205 0194 D9010000 		.word	.L66+1
 1206 0198 D9010000 		.word	.L66+1
 1207 019c D9010000 		.word	.L66+1
 1208 01a0 C5000000 		.word	.L69+1
 1209 01a4 A9010000 		.word	.L67+1
 1210              		.p2align 1
 1211              	.L67:
 116:../switch_sdk/core/fal/tiger/fal_tiger_stat.c ****         }
 117:../switch_sdk/core/fal/tiger/fal_tiger_stat.c ****         else if(mib_index == TX_UNICAST)
 118:../switch_sdk/core/fal/tiger/fal_tiger_stat.c ****         {
 119:../switch_sdk/core/fal/tiger/fal_tiger_stat.c ****             *port_cnt = pcnt->TX_OK_PKT - pcnt->TX_MULTICAST - pcnt->TX_BROADCAST - pcnt->TX_PAUSE 
 1212              		.loc 1 119 13 view .LVU285
 1213              		.loc 1 119 29 is_stmt 0 view .LVU286
 1214 01a8 D7F89430 		ldr	r3, [r7, #148]
 1215              		.loc 1 119 47 view .LVU287
 1216 01ac BA6D     		ldr	r2, [r7, #88]
 1217              		.loc 1 119 41 view .LVU288
 1218 01ae 9B1A     		subs	r3, r3, r2
 1219              		.loc 1 119 68 view .LVU289
 1220 01b0 3A6D     		ldr	r2, [r7, #80]
 1221              		.loc 1 119 62 view .LVU290
 1222 01b2 9B1A     		subs	r3, r3, r2
 1223              		.loc 1 119 89 view .LVU291
 1224 01b4 7A6D     		ldr	r2, [r7, #84]
 1225              		.loc 1 119 83 view .LVU292
 1226 01b6 9B1A     		subs	r3, r3, r2
 1227              		.loc 1 119 106 view .LVU293
 1228 01b8 D7F8A420 		ldr	r2, [r7, #164]
 1229              		.loc 1 119 100 view .LVU294
 1230 01bc 9B1A     		subs	r3, r3, r2
 1231              		.loc 1 119 23 view .LVU295
 1232 01be 48F8043B 		str	r3, [r8], #4
 1233              	.LVL129:
 120:../switch_sdk/core/fal/tiger/fal_tiger_stat.c ****             port_cnt += 1;
 1234              		.loc 1 120 13 is_stmt 1 view .LVU296
 1235              		.loc 1 120 13 is_stmt 0 view .LVU297
 1236 01c2 97E7     		b	.L75
 1237              	.L72:
 121:../switch_sdk/core/fal/tiger/fal_tiger_stat.c ****         }
 122:../switch_sdk/core/fal/tiger/fal_tiger_stat.c ****         else if(mib_index == RX_JUMBO)
 123:../switch_sdk/core/fal/tiger/fal_tiger_stat.c ****         {
 124:../switch_sdk/core/fal/tiger/fal_tiger_stat.c ****             *port_cnt = mib_data;
 1238              		.loc 1 124 13 is_stmt 1 view .LVU298
 1239              		.loc 1 124 23 is_stmt 0 view .LVU299
 1240 01c4 039B     		ldr	r3, [sp, #12]
 1241 01c6 48F8043B 		str	r3, [r8], #4
 1242              	.LVL130:
 125:../switch_sdk/core/fal/tiger/fal_tiger_stat.c ****             port_cnt += 1;
 1243              		.loc 1 125 13 is_stmt 1 view .LVU300
 126:../switch_sdk/core/fal/tiger/fal_tiger_stat.c ****             mib_index += 1;
 1244              		.loc 1 126 13 view .LVU301
 1245              		.loc 1 126 23 is_stmt 0 view .LVU302
 1246 01ca 0135     		adds	r5, r5, #1
 1247              	.LVL131:
 1248              		.loc 1 126 23 view .LVU303
 1249 01cc 92E7     		b	.L75
 1250              	.L71:
 127:../switch_sdk/core/fal/tiger/fal_tiger_stat.c ****         }
 128:../switch_sdk/core/fal/tiger/fal_tiger_stat.c ****         else if(mib_index == TX_JUMBO)
 129:../switch_sdk/core/fal/tiger/fal_tiger_stat.c ****         {
 130:../switch_sdk/core/fal/tiger/fal_tiger_stat.c ****             *port_cnt = mib_data;
 1251              		.loc 1 130 13 is_stmt 1 view .LVU304
 1252              		.loc 1 130 23 is_stmt 0 view .LVU305
 1253 01ce 039B     		ldr	r3, [sp, #12]
 1254 01d0 48F8043B 		str	r3, [r8], #4
 1255              	.LVL132:
 131:../switch_sdk/core/fal/tiger/fal_tiger_stat.c ****             port_cnt += 1;
 1256              		.loc 1 131 13 is_stmt 1 view .LVU306
 132:../switch_sdk/core/fal/tiger/fal_tiger_stat.c ****             mib_index += 1;
 1257              		.loc 1 132 13 view .LVU307
 1258              		.loc 1 132 23 is_stmt 0 view .LVU308
 1259 01d4 0135     		adds	r5, r5, #1
 1260              	.LVL133:
 1261              		.loc 1 132 23 view .LVU309
 1262 01d6 8DE7     		b	.L75
 1263              	.L66:
 133:../switch_sdk/core/fal/tiger/fal_tiger_stat.c ****         }
 134:../switch_sdk/core/fal/tiger/fal_tiger_stat.c ****         else
 135:../switch_sdk/core/fal/tiger/fal_tiger_stat.c ****         {
 136:../switch_sdk/core/fal/tiger/fal_tiger_stat.c ****             *port_cnt = mib_data;
 1264              		.loc 1 136 13 is_stmt 1 view .LVU310
 1265              		.loc 1 136 23 is_stmt 0 view .LVU311
 1266 01d8 039B     		ldr	r3, [sp, #12]
 1267 01da 48F8043B 		str	r3, [r8], #4
 1268              	.LVL134:
 137:../switch_sdk/core/fal/tiger/fal_tiger_stat.c ****             port_cnt += 1;
 1269              		.loc 1 137 13 is_stmt 1 view .LVU312
 1270              		.loc 1 137 13 is_stmt 0 view .LVU313
 1271 01de 89E7     		b	.L75
 1272              	.LVL135:
 1273              	.L84:
 138:../switch_sdk/core/fal/tiger/fal_tiger_stat.c ****         }
 139:../switch_sdk/core/fal/tiger/fal_tiger_stat.c ****     }
 140:../switch_sdk/core/fal/tiger/fal_tiger_stat.c **** 
 141:../switch_sdk/core/fal/tiger/fal_tiger_stat.c ****     return CMM_ERR_OK;
 1274              		.loc 1 141 12 view .LVU314
 1275 01e0 0020     		movs	r0, #0
 1276              	.LVL136:
 1277              	.L60:
 142:../switch_sdk/core/fal/tiger/fal_tiger_stat.c **** }
 1278              		.loc 1 142 1 view .LVU315
 1279 01e2 04B0     		add	sp, sp, #16
 1280              		.cfi_remember_state
 1281              		.cfi_def_cfa_offset 32
 1282              		@ sp needed
 1283 01e4 BDE8F087 		pop	{r4, r5, r6, r7, r8, r9, r10, pc}
 1284              	.LVL137:
 1285              	.L77:
 1286              		.cfi_restore_state
  94:../switch_sdk/core/fal/tiger/fal_tiger_stat.c **** 
 1287              		.loc 1 94 16 view .LVU316
 1288 01e8 0220     		movs	r0, #2
 1289              	.LVL138:
  94:../switch_sdk/core/fal/tiger/fal_tiger_stat.c **** 
 1290              		.loc 1 94 16 view .LVU317
 1291 01ea FAE7     		b	.L60
 1292              	.L87:
 1293              		.align	2
 1294              	.L86:
 1295 01ec 00000000 		.word	gcal_inited
 1296 01f0 00000000 		.word	gpSwitchUnit
 1297 01f4 00000000 		.word	yt_debug_level
 1298 01f8 00000000 		.word	__FUNCTION__.7
 1299 01fc 00000000 		.word	.LC5
 1300 0200 00000000 		.word	_yt_errmsg
 1301 0204 00000000 		.word	_yt_prompt_msg
 1302 0208 3C000000 		.word	.LC1
 1303 020c 54000000 		.word	.LC6
 1304              		.cfi_endproc
 1305              	.LFE8:
 1307              		.section	.rodata.fal_tiger_stat_mib_port_index_get.str1.4,"aMS",%progbits,1
 1308              		.align	2
 1309              	.LC7:
 1310 0000 68616C5F 		.ascii	"hal_mem32_read(unit, (0xc0100) + 0x100 * port_mac_i"
 1310      6D656D33 
 1310      325F7265 
 1310      61642875 
 1310      6E69742C 
 1311 0033 64202B20 		.ascii	"d + 0x4 * RX_64B, &mib_data)\000"
 1311      30783420 
 1311      2A205258 
 1311      5F363442 
 1311      2C20266D 
 1312              		.align	2
 1313              	.LC8:
 1314 0050 68616C5F 		.ascii	"hal_mem32_read(unit, (0xc0100) + 0x100 * port_mac_i"
 1314      6D656D33 
 1314      325F7265 
 1314      61642875 
 1314      6E69742C 
 1315 0083 64202B20 		.ascii	"d + 0x4 * RX_65_127B, &mib_data)\000"
 1315      30783420 
 1315      2A205258 
 1315      5F36355F 
 1315      31323742 
 1316              		.align	2
 1317              	.LC9:
 1318 00a4 68616C5F 		.ascii	"hal_mem32_read(unit, (0xc0100) + 0x100 * port_mac_i"
 1318      6D656D33 
 1318      325F7265 
 1318      61642875 
 1318      6E69742C 
 1319 00d7 64202B20 		.ascii	"d + 0x4 * RX_128_255B, &mib_data)\000"
 1319      30783420 
 1319      2A205258 
 1319      5F313238 
 1319      5F323535 
 1320 00f9 000000   		.align	2
 1321              	.LC10:
 1322 00fc 68616C5F 		.ascii	"hal_mem32_read(unit, (0xc0100) + 0x100 * port_mac_i"
 1322      6D656D33 
 1322      325F7265 
 1322      61642875 
 1322      6E69742C 
 1323 012f 64202B20 		.ascii	"d + 0x4 * RX_256_511B, &mib_data)\000"
 1323      30783420 
 1323      2A205258 
 1323      5F323536 
 1323      5F353131 
 1324 0151 000000   		.align	2
 1325              	.LC11:
 1326 0154 68616C5F 		.ascii	"hal_mem32_read(unit, (0xc0100) + 0x100 * port_mac_i"
 1326      6D656D33 
 1326      325F7265 
 1326      61642875 
 1326      6E69742C 
 1327 0187 64202B20 		.ascii	"d + 0x4 * RX_512_1023B, &mib_data)\000"
 1327      30783420 
 1327      2A205258 
 1327      5F353132 
 1327      5F313032 
 1328 01aa 0000     		.align	2
 1329              	.LC12:
 1330 01ac 68616C5F 		.ascii	"hal_mem32_read(unit, (0xc0100) + 0x100 * port_mac_i"
 1330      6D656D33 
 1330      325F7265 
 1330      61642875 
 1330      6E69742C 
 1331 01df 64202B20 		.ascii	"d + 0x4 * RX_1024_1518B, &mib_data)\000"
 1331      30783420 
 1331      2A205258 
 1331      5F313032 
 1331      345F3135 
 1332 0203 00       		.align	2
 1333              	.LC13:
 1334 0204 68616C5F 		.ascii	"hal_mem32_read(unit, (0xc0100) + 0x100 * port_mac_i"
 1334      6D656D33 
 1334      325F7265 
 1334      61642875 
 1334      6E69742C 
 1335 0237 64202B20 		.ascii	"d + 0x4 * RX_JUMBO, &mib_data)\000"
 1335      30783420 
 1335      2A205258 
 1335      5F4A554D 
 1335      424F2C20 
 1336 0256 0000     		.align	2
 1337              	.LC14:
 1338 0258 68616C5F 		.ascii	"hal_mem32_read(unit, (0xc0100) + 0x100 * port_mac_i"
 1338      6D656D33 
 1338      325F7265 
 1338      61642875 
 1338      6E69742C 
 1339 028b 64202B20 		.ascii	"d + 0x4 * RX_BROADCAST, &mib_data)\000"
 1339      30783420 
 1339      2A205258 
 1339      5F42524F 
 1339      41444341 
 1340 02ae 0000     		.align	2
 1341              	.LC15:
 1342 02b0 68616C5F 		.ascii	"hal_mem32_read(unit, (0xc0100) + 0x100 * port_mac_i"
 1342      6D656D33 
 1342      325F7265 
 1342      61642875 
 1342      6E69742C 
 1343 02e3 64202B20 		.ascii	"d + 0x4 * RX_MULTICAST, &mib_data)\000"
 1343      30783420 
 1343      2A205258 
 1343      5F4D554C 
 1343      54494341 
 1344 0306 0000     		.align	2
 1345              	.LC16:
 1346 0308 68616C5F 		.ascii	"hal_mem32_read(unit, (0xc0100) + 0x100 * port_mac_i"
 1346      6D656D33 
 1346      325F7265 
 1346      61642875 
 1346      6E69742C 
 1347 033b 64202B20 		.ascii	"d + 0x4 * RX_PAUSE, &mib_data)\000"
 1347      30783420 
 1347      2A205258 
 1347      5F504155 
 1347      53452C20 
 1348 035a 0000     		.align	2
 1349              	.LC17:
 1350 035c 68616C5F 		.ascii	"hal_mem32_read(unit, (0xc0100) + 0x100 * port_mac_i"
 1350      6D656D33 
 1350      325F7265 
 1350      61642875 
 1350      6E69742C 
 1351 038f 64202B20 		.ascii	"d + 0x4 * RX_OAM_COUNTER, &mib_data)\000"
 1351      30783420 
 1351      2A205258 
 1351      5F4F414D 
 1351      5F434F55 
 1352              		.align	2
 1353              	.LC18:
 1354 03b4 68616C5F 		.ascii	"hal_mem32_read(unit, (0xc0100) + 0x100 * port_mac_i"
 1354      6D656D33 
 1354      325F7265 
 1354      61642875 
 1354      6E69742C 
 1355 03e7 64202B20 		.ascii	"d + 0x4 * TX_OK_PKT, &mib_data)\000"
 1355      30783420 
 1355      2A205458 
 1355      5F4F4B5F 
 1355      504B542C 
 1356 0407 00       		.align	2
 1357              	.LC19:
 1358 0408 68616C5F 		.ascii	"hal_mem32_read(unit, (0xc0100) + 0x100 * port_mac_i"
 1358      6D656D33 
 1358      325F7265 
 1358      61642875 
 1358      6E69742C 
 1359 043b 64202B20 		.ascii	"d + 0x4 * TX_BROADCAST, &mib_data)\000"
 1359      30783420 
 1359      2A205458 
 1359      5F42524F 
 1359      41444341 
 1360 045e 0000     		.align	2
 1361              	.LC20:
 1362 0460 68616C5F 		.ascii	"hal_mem32_read(unit, (0xc0100) + 0x100 * port_mac_i"
 1362      6D656D33 
 1362      325F7265 
 1362      61642875 
 1362      6E69742C 
 1363 0493 64202B20 		.ascii	"d + 0x4 * TX_MULTICAST, &mib_data)\000"
 1363      30783420 
 1363      2A205458 
 1363      5F4D554C 
 1363      54494341 
 1364 04b6 0000     		.align	2
 1365              	.LC21:
 1366 04b8 68616C5F 		.ascii	"hal_mem32_read(unit, (0xc0100) + 0x100 * port_mac_i"
 1366      6D656D33 
 1366      325F7265 
 1366      61642875 
 1366      6E69742C 
 1367 04eb 64202B20 		.ascii	"d + 0x4 * TX_PAUSE, &mib_data)\000"
 1367      30783420 
 1367      2A205458 
 1367      5F504155 
 1367      53452C20 
 1368 050a 0000     		.align	2
 1369              	.LC22:
 1370 050c 68616C5F 		.ascii	"hal_mem32_read(unit, (0xc0100) + 0x100 * port_mac_i"
 1370      6D656D33 
 1370      325F7265 
 1370      61642875 
 1370      6E69742C 
 1371 053f 64202B20 		.ascii	"d + 0x4 * TX_OAM_COUNTER, &mib_data)\000"
 1371      30783420 
 1371      2A205458 
 1371      5F4F414D 
 1371      5F434F55 
 1372              		.align	2
 1373              	.LC23:
 1374 0564 68616C5F 		.ascii	"hal_mem32_read(unit, (0xc0100) + 0x100 * port_mac_i"
 1374      6D656D33 
 1374      325F7265 
 1374      61642875 
 1374      6E69742C 
 1375 0597 64202B20 		.ascii	"d + 0x4 * index, &mib_data)\000"
 1375      30783420 
 1375      2A20696E 
 1375      6465782C 
 1375      20266D69 
 1376 05b3 00       		.align	2
 1377              	.LC24:
 1378 05b4 68616C5F 		.ascii	"hal_mem32_read(unit, (0xc0100) + 0x100 * port_mac_i"
 1378      6D656D33 
 1378      325F7265 
 1378      61642875 
 1378      6E69742C 
 1379 05e7 64202B20 		.ascii	"d + 0x4 * (index + 1), &tmp_data)\000"
 1379      30783420 
 1379      2A202869 
 1379      6E646578 
 1379      202B2031 
 1380              		.section	.text.fal_tiger_stat_mib_port_index_get,"ax",%progbits
 1381              		.align	1
 1382              		.global	fal_tiger_stat_mib_port_index_get
 1383              		.syntax unified
 1384              		.thumb
 1385              		.thumb_func
 1387              	fal_tiger_stat_mib_port_index_get:
 1388              	.LVL139:
 1389              	.LFB9:
 143:../switch_sdk/core/fal/tiger/fal_tiger_stat.c **** 
 144:../switch_sdk/core/fal/tiger/fal_tiger_stat.c **** yt_ret_t fal_tiger_stat_mib_port_index_get (yt_unit_t unit, yt_port_t port, uint32_t index, uint64 
 145:../switch_sdk/core/fal/tiger/fal_tiger_stat.c **** {
 1390              		.loc 1 145 1 is_stmt 1 view -0
 1391              		.cfi_startproc
 1392              		@ args = 0, pretend = 0, frame = 8
 1393              		@ frame_needed = 0, uses_anonymous_args = 0
 1394              		.loc 1 145 1 is_stmt 0 view .LVU319
 1395 0000 2DE9F043 		push	{r4, r5, r6, r7, r8, r9, lr}
 1396              		.cfi_def_cfa_offset 28
 1397              		.cfi_offset 4, -28
 1398              		.cfi_offset 5, -24
 1399              		.cfi_offset 6, -20
 1400              		.cfi_offset 7, -16
 1401              		.cfi_offset 8, -12
 1402              		.cfi_offset 9, -8
 1403              		.cfi_offset 14, -4
 1404 0004 85B0     		sub	sp, sp, #20
 1405              		.cfi_def_cfa_offset 48
 1406 0006 1746     		mov	r7, r2
 146:../switch_sdk/core/fal/tiger/fal_tiger_stat.c ****     cmm_err_t ret = CMM_ERR_OK;
 1407              		.loc 1 146 5 is_stmt 1 view .LVU320
 1408              	.LVL140:
 147:../switch_sdk/core/fal/tiger/fal_tiger_stat.c ****     uint32 mib_data = 0;
 1409              		.loc 1 147 5 view .LVU321
 1410              		.loc 1 147 12 is_stmt 0 view .LVU322
 1411 0008 0022     		movs	r2, #0
 1412              	.LVL141:
 1413              		.loc 1 147 12 view .LVU323
 1414 000a 0392     		str	r2, [sp, #12]
 148:../switch_sdk/core/fal/tiger/fal_tiger_stat.c ****     uint32 tmp_data = 0;
 1415              		.loc 1 148 5 is_stmt 1 view .LVU324
 1416              		.loc 1 148 12 is_stmt 0 view .LVU325
 1417 000c 0292     		str	r2, [sp, #8]
 149:../switch_sdk/core/fal/tiger/fal_tiger_stat.c ****     uint64 result_data = 0;
 1418              		.loc 1 149 5 is_stmt 1 view .LVU326
 1419              	.LVL142:
 150:../switch_sdk/core/fal/tiger/fal_tiger_stat.c ****     yt_port_t port_mac_id;
 1420              		.loc 1 150 5 view .LVU327
 151:../switch_sdk/core/fal/tiger/fal_tiger_stat.c **** 
 152:../switch_sdk/core/fal/tiger/fal_tiger_stat.c ****     if(NULL == pcnt)
 1421              		.loc 1 152 5 view .LVU328
 1422              		.loc 1 152 7 is_stmt 0 view .LVU329
 1423 000e 002B     		cmp	r3, #0
 1424 0010 00F00783 		beq	.L130
 1425 0014 0646     		mov	r6, r0
 1426 0016 1D46     		mov	r5, r3
 153:../switch_sdk/core/fal/tiger/fal_tiger_stat.c ****         return CMM_ERR_NULL_POINT;
 154:../switch_sdk/core/fal/tiger/fal_tiger_stat.c **** 
 155:../switch_sdk/core/fal/tiger/fal_tiger_stat.c ****     if(index >= YT_STAT_MAX)
 1427              		.loc 1 155 5 is_stmt 1 view .LVU330
 1428              		.loc 1 155 7 is_stmt 0 view .LVU331
 1429 0018 2D2F     		cmp	r7, #45
 1430 001a 00F20483 		bhi	.L131
 156:../switch_sdk/core/fal/tiger/fal_tiger_stat.c ****         return CMM_ERR_NOT_SUPPORT;
 157:../switch_sdk/core/fal/tiger/fal_tiger_stat.c **** 
 158:../switch_sdk/core/fal/tiger/fal_tiger_stat.c ****     port_mac_id = CAL_YTP_TO_MAC(unit,port);
 1431              		.loc 1 158 5 is_stmt 1 view .LVU332
 1432              		.loc 1 158 19 is_stmt 0 view .LVU333
 1433 001e A54B     		ldr	r3, .L162
 1434              	.LVL143:
 1435              		.loc 1 158 19 view .LVU334
 1436 0020 1B78     		ldrb	r3, [r3]	@ zero_extendqisi2
 1437 0022 53B1     		cbz	r3, .L132
 1438              		.loc 1 158 19 discriminator 1 view .LVU335
 1439 0024 A44B     		ldr	r3, .L162+4
 1440 0026 53F82030 		ldr	r3, [r3, r0, lsl #2]
 1441 002a 1A7D     		ldrb	r2, [r3, #20]	@ zero_extendqisi2
 1442 002c 8A42     		cmp	r2, r1
 1443 002e 2BD9     		bls	.L133
 1444              		.loc 1 158 19 discriminator 3 view .LVU336
 1445 0030 0631     		adds	r1, r1, #6
 1446              	.LVL144:
 1447              		.loc 1 158 19 discriminator 3 view .LVU337
 1448 0032 53F82130 		ldr	r3, [r3, r1, lsl #2]
 1449 0036 1B78     		ldrb	r3, [r3]	@ zero_extendqisi2
 1450 0038 00E0     		b	.L90
 1451              	.LVL145:
 1452              	.L132:
 1453              		.loc 1 158 19 view .LVU338
 1454 003a FF23     		movs	r3, #255
 1455              	.LVL146:
 1456              	.L90:
 159:../switch_sdk/core/fal/tiger/fal_tiger_stat.c **** 
 160:../switch_sdk/core/fal/tiger/fal_tiger_stat.c ****     if (index == RX_UNICAST)
 1457              		.loc 1 160 5 is_stmt 1 discriminator 6 view .LVU339
 1458              		.loc 1 160 8 is_stmt 0 discriminator 6 view .LVU340
 1459 003c 2C2F     		cmp	r7, #44
 1460 003e 25D0     		beq	.L137
 161:../switch_sdk/core/fal/tiger/fal_tiger_stat.c ****     {
 162:../switch_sdk/core/fal/tiger/fal_tiger_stat.c ****         CMM_ERR_CHK(HAL_MEM_DIRECT_READ(unit, MIB_TBL_BASE_ADDR0 + 0x100 * port_mac_id + 0x4 * RX_6
 163:../switch_sdk/core/fal/tiger/fal_tiger_stat.c ****         result_data += mib_data;
 164:../switch_sdk/core/fal/tiger/fal_tiger_stat.c ****         CMM_ERR_CHK(HAL_MEM_DIRECT_READ(unit, MIB_TBL_BASE_ADDR0 + 0x100 * port_mac_id + 0x4 * RX_6
 165:../switch_sdk/core/fal/tiger/fal_tiger_stat.c ****         result_data += mib_data;
 166:../switch_sdk/core/fal/tiger/fal_tiger_stat.c ****         CMM_ERR_CHK(HAL_MEM_DIRECT_READ(unit, MIB_TBL_BASE_ADDR0 + 0x100 * port_mac_id + 0x4 * RX_1
 167:../switch_sdk/core/fal/tiger/fal_tiger_stat.c ****         result_data += mib_data;
 168:../switch_sdk/core/fal/tiger/fal_tiger_stat.c ****         CMM_ERR_CHK(HAL_MEM_DIRECT_READ(unit, MIB_TBL_BASE_ADDR0 + 0x100 * port_mac_id + 0x4 * RX_2
 169:../switch_sdk/core/fal/tiger/fal_tiger_stat.c ****         result_data += mib_data;
 170:../switch_sdk/core/fal/tiger/fal_tiger_stat.c ****         CMM_ERR_CHK(HAL_MEM_DIRECT_READ(unit, MIB_TBL_BASE_ADDR0 + 0x100 * port_mac_id + 0x4 * RX_5
 171:../switch_sdk/core/fal/tiger/fal_tiger_stat.c ****         result_data += mib_data;
 172:../switch_sdk/core/fal/tiger/fal_tiger_stat.c ****         CMM_ERR_CHK(HAL_MEM_DIRECT_READ(unit, MIB_TBL_BASE_ADDR0 + 0x100 * port_mac_id + 0x4 * RX_1
 173:../switch_sdk/core/fal/tiger/fal_tiger_stat.c ****         result_data += mib_data;
 174:../switch_sdk/core/fal/tiger/fal_tiger_stat.c ****         CMM_ERR_CHK(HAL_MEM_DIRECT_READ(unit, MIB_TBL_BASE_ADDR0 + 0x100 * port_mac_id + 0x4 * RX_J
 175:../switch_sdk/core/fal/tiger/fal_tiger_stat.c ****         result_data += mib_data;
 176:../switch_sdk/core/fal/tiger/fal_tiger_stat.c ****         CMM_ERR_CHK(HAL_MEM_DIRECT_READ(unit, MIB_TBL_BASE_ADDR0 + 0x100 * port_mac_id + 0x4 * RX_B
 177:../switch_sdk/core/fal/tiger/fal_tiger_stat.c ****         result_data -= mib_data;
 178:../switch_sdk/core/fal/tiger/fal_tiger_stat.c ****         CMM_ERR_CHK(HAL_MEM_DIRECT_READ(unit, MIB_TBL_BASE_ADDR0 + 0x100 * port_mac_id + 0x4 * RX_M
 179:../switch_sdk/core/fal/tiger/fal_tiger_stat.c ****         result_data -= mib_data;
 180:../switch_sdk/core/fal/tiger/fal_tiger_stat.c ****         CMM_ERR_CHK(HAL_MEM_DIRECT_READ(unit, MIB_TBL_BASE_ADDR0 + 0x100 * port_mac_id + 0x4 * RX_P
 181:../switch_sdk/core/fal/tiger/fal_tiger_stat.c ****         result_data -= mib_data;
 182:../switch_sdk/core/fal/tiger/fal_tiger_stat.c ****         CMM_ERR_CHK(HAL_MEM_DIRECT_READ(unit, MIB_TBL_BASE_ADDR0 + 0x100 * port_mac_id + 0x4 * RX_O
 183:../switch_sdk/core/fal/tiger/fal_tiger_stat.c ****         result_data -= mib_data;
 184:../switch_sdk/core/fal/tiger/fal_tiger_stat.c ****         *pcnt = result_data;
 185:../switch_sdk/core/fal/tiger/fal_tiger_stat.c ****     } 
 186:../switch_sdk/core/fal/tiger/fal_tiger_stat.c ****     else if (index == TX_UNICAST)
 1461              		.loc 1 186 10 is_stmt 1 view .LVU341
 1462              		.loc 1 186 13 is_stmt 0 view .LVU342
 1463 0040 2D2F     		cmp	r7, #45
 1464 0042 00F0D881 		beq	.L138
 187:../switch_sdk/core/fal/tiger/fal_tiger_stat.c ****     {
 188:../switch_sdk/core/fal/tiger/fal_tiger_stat.c ****         CMM_ERR_CHK(HAL_MEM_DIRECT_READ(unit, MIB_TBL_BASE_ADDR0 + 0x100 * port_mac_id + 0x4 * TX_O
 189:../switch_sdk/core/fal/tiger/fal_tiger_stat.c ****         result_data += mib_data;
 190:../switch_sdk/core/fal/tiger/fal_tiger_stat.c ****         CMM_ERR_CHK(HAL_MEM_DIRECT_READ(unit, MIB_TBL_BASE_ADDR0 + 0x100 * port_mac_id + 0x4 * TX_B
 191:../switch_sdk/core/fal/tiger/fal_tiger_stat.c ****         result_data -= mib_data;
 192:../switch_sdk/core/fal/tiger/fal_tiger_stat.c ****         CMM_ERR_CHK(HAL_MEM_DIRECT_READ(unit, MIB_TBL_BASE_ADDR0 + 0x100 * port_mac_id + 0x4 * TX_M
 193:../switch_sdk/core/fal/tiger/fal_tiger_stat.c ****         result_data -= mib_data;
 194:../switch_sdk/core/fal/tiger/fal_tiger_stat.c ****         CMM_ERR_CHK(HAL_MEM_DIRECT_READ(unit, MIB_TBL_BASE_ADDR0 + 0x100 * port_mac_id + 0x4 * TX_P
 195:../switch_sdk/core/fal/tiger/fal_tiger_stat.c ****         result_data -= mib_data;
 196:../switch_sdk/core/fal/tiger/fal_tiger_stat.c ****         CMM_ERR_CHK(HAL_MEM_DIRECT_READ(unit, MIB_TBL_BASE_ADDR0 + 0x100 * port_mac_id + 0x4 * TX_O
 197:../switch_sdk/core/fal/tiger/fal_tiger_stat.c ****         result_data -= mib_data;
 198:../switch_sdk/core/fal/tiger/fal_tiger_stat.c ****         *pcnt = result_data;
 199:../switch_sdk/core/fal/tiger/fal_tiger_stat.c ****     } 
 200:../switch_sdk/core/fal/tiger/fal_tiger_stat.c ****     else
 201:../switch_sdk/core/fal/tiger/fal_tiger_stat.c ****     {
 202:../switch_sdk/core/fal/tiger/fal_tiger_stat.c ****         CMM_ERR_CHK(HAL_MEM_DIRECT_READ(unit, MIB_TBL_BASE_ADDR0 + 0x100 * port_mac_id + 0x4 * inde
 1465              		.loc 1 202 9 is_stmt 1 view .LVU343
 1466              		.loc 1 202 9 view .LVU344
 1467 0046 03F60143 		addw	r3, r3, #3073
 1468              	.LVL147:
 1469              		.loc 1 202 9 is_stmt 0 view .LVU345
 1470 004a 07EB8318 		add	r8, r7, r3, lsl #6
 1471 004e 03AA     		add	r2, sp, #12
 1472 0050 4FEA8801 		lsl	r1, r8, #2
 1473 0054 3046     		mov	r0, r6
 1474              	.LVL148:
 1475              		.loc 1 202 9 view .LVU346
 1476 0056 FFF7FEFF 		bl	hal_mem32_read
 1477              	.LVL149:
 1478              		.loc 1 202 9 view .LVU347
 1479 005a 0446     		mov	r4, r0
 1480              	.LVL150:
 1481              		.loc 1 202 9 view .LVU348
 1482 005c 10F0FF03 		ands	r3, r0, #255
 1483 0060 40F08882 		bne	.L139
 1484              		.loc 1 202 9 is_stmt 1 view .LVU349
 203:../switch_sdk/core/fal/tiger/fal_tiger_stat.c ****         if(index == RX_OKBYTE || index == RX_NOT_OKBYTE || index == TX_OKBYTE)
 1485              		.loc 1 203 9 view .LVU350
 1486 0064 0F3F     		subs	r7, r7, #15
 1487              	.LVL151:
 1488              		.loc 1 203 9 is_stmt 0 view .LVU351
 1489 0066 122F     		cmp	r7, #18
 1490 0068 00F2D982 		bhi	.L134
 1491 006c 934B     		ldr	r3, .L162+8
 1492 006e FB40     		lsrs	r3, r3, r7
 1493 0070 13F0010F 		tst	r3, #1
 1494 0074 40F0B082 		bne	.L140
 202:../switch_sdk/core/fal/tiger/fal_tiger_stat.c ****         if(index == RX_OKBYTE || index == RX_NOT_OKBYTE || index == TX_OKBYTE)
 1495              		.loc 1 202 9 view .LVU352
 1496 0078 0023     		movs	r3, #0
 1497              	.LVL152:
 1498              	.L127:
 204:../switch_sdk/core/fal/tiger/fal_tiger_stat.c ****         {
 205:../switch_sdk/core/fal/tiger/fal_tiger_stat.c ****             CMM_ERR_CHK(HAL_MEM_DIRECT_READ(unit, MIB_TBL_BASE_ADDR0 + 0x100 * port_mac_id + 0x4 * 
 206:../switch_sdk/core/fal/tiger/fal_tiger_stat.c ****             result_data |= tmp_data;
 207:../switch_sdk/core/fal/tiger/fal_tiger_stat.c ****         }
 208:../switch_sdk/core/fal/tiger/fal_tiger_stat.c ****         *pcnt = (result_data << 32) | mib_data;
 1499              		.loc 1 208 9 is_stmt 1 view .LVU353
 1500              		.loc 1 208 37 is_stmt 0 view .LVU354
 1501 007a 039A     		ldr	r2, [sp, #12]
 1502              		.loc 1 208 15 view .LVU355
 1503 007c 2A60     		str	r2, [r5]
 1504 007e 6B60     		str	r3, [r5, #4]
 209:../switch_sdk/core/fal/tiger/fal_tiger_stat.c ****     }
 210:../switch_sdk/core/fal/tiger/fal_tiger_stat.c **** 
 211:../switch_sdk/core/fal/tiger/fal_tiger_stat.c ****     return CMM_ERR_OK;
 1505              		.loc 1 211 12 view .LVU356
 1506 0080 0020     		movs	r0, #0
 1507              	.LVL153:
 1508              	.L88:
 212:../switch_sdk/core/fal/tiger/fal_tiger_stat.c **** }
 1509              		.loc 1 212 1 view .LVU357
 1510 0082 05B0     		add	sp, sp, #20
 1511              		.cfi_remember_state
 1512              		.cfi_def_cfa_offset 28
 1513              		@ sp needed
 1514 0084 BDE8F083 		pop	{r4, r5, r6, r7, r8, r9, pc}
 1515              	.LVL154:
 1516              	.L133:
 1517              		.cfi_restore_state
 158:../switch_sdk/core/fal/tiger/fal_tiger_stat.c **** 
 1518              		.loc 1 158 19 view .LVU358
 1519 0088 FF23     		movs	r3, #255
 1520 008a D7E7     		b	.L90
 1521              	.LVL155:
 1522              	.L137:
 162:../switch_sdk/core/fal/tiger/fal_tiger_stat.c ****         result_data += mib_data;
 1523              		.loc 1 162 9 is_stmt 1 view .LVU359
 162:../switch_sdk/core/fal/tiger/fal_tiger_stat.c ****         result_data += mib_data;
 1524              		.loc 1 162 9 view .LVU360
 1525 008c 03F60147 		addw	r7, r3, #3073
 1526              	.LVL156:
 162:../switch_sdk/core/fal/tiger/fal_tiger_stat.c ****         result_data += mib_data;
 1527              		.loc 1 162 9 is_stmt 0 view .LVU361
 1528 0090 3F02     		lsls	r7, r7, #8
 1529 0092 03AA     		add	r2, sp, #12
 1530 0094 07F11C01 		add	r1, r7, #28
 1531 0098 3046     		mov	r0, r6
 1532              	.LVL157:
 162:../switch_sdk/core/fal/tiger/fal_tiger_stat.c ****         result_data += mib_data;
 1533              		.loc 1 162 9 view .LVU362
 1534 009a FFF7FEFF 		bl	hal_mem32_read
 1535              	.LVL158:
 162:../switch_sdk/core/fal/tiger/fal_tiger_stat.c ****         result_data += mib_data;
 1536              		.loc 1 162 9 view .LVU363
 1537 009e 0446     		mov	r4, r0
 1538              	.LVL159:
 162:../switch_sdk/core/fal/tiger/fal_tiger_stat.c ****         result_data += mib_data;
 1539              		.loc 1 162 9 view .LVU364
 1540 00a0 10F0FF03 		ands	r3, r0, #255
 1541 00a4 15D0     		beq	.L92
 162:../switch_sdk/core/fal/tiger/fal_tiger_stat.c ****         result_data += mib_data;
 1542              		.loc 1 162 9 is_stmt 1 discriminator 1 view .LVU365
 162:../switch_sdk/core/fal/tiger/fal_tiger_stat.c ****         result_data += mib_data;
 1543              		.loc 1 162 9 discriminator 1 view .LVU366
 1544 00a6 864A     		ldr	r2, .L162+12
 1545 00a8 1278     		ldrb	r2, [r2]	@ zero_extendqisi2
 1546 00aa 012A     		cmp	r2, #1
 1547 00ac 01D8     		bhi	.L141
 1548              	.LVL160:
 1549              	.L93:
 162:../switch_sdk/core/fal/tiger/fal_tiger_stat.c ****         result_data += mib_data;
 1550              		.loc 1 162 9 discriminator 5 view .LVU367
 162:../switch_sdk/core/fal/tiger/fal_tiger_stat.c ****         result_data += mib_data;
 1551              		.loc 1 162 9 discriminator 5 view .LVU368
 162:../switch_sdk/core/fal/tiger/fal_tiger_stat.c ****         result_data += mib_data;
 1552              		.loc 1 162 9 discriminator 5 view .LVU369
 1553 00ae E0B2     		uxtb	r0, r4
 1554 00b0 E7E7     		b	.L88
 1555              	.LVL161:
 1556              	.L141:
 162:../switch_sdk/core/fal/tiger/fal_tiger_stat.c ****         result_data += mib_data;
 1557              		.loc 1 162 9 discriminator 3 view .LVU370
 1558              	.LBB14:
 162:../switch_sdk/core/fal/tiger/fal_tiger_stat.c ****         result_data += mib_data;
 1559              		.loc 1 162 9 discriminator 3 view .LVU371
 1560 00b2 142B     		cmp	r3, #20
 1561 00b4 28BF     		it	cs
 1562 00b6 1423     		movcs	r3, #20
 1563 00b8 1A46     		mov	r2, r3
 1564 00ba 824B     		ldr	r3, .L162+16
 1565 00bc 0093     		str	r3, [sp]
 1566 00be 824B     		ldr	r3, .L162+20
 1567 00c0 8249     		ldr	r1, .L162+24
 1568 00c2 51F82220 		ldr	r2, [r1, r2, lsl #2]
 1569 00c6 8249     		ldr	r1, .L162+28
 1570 00c8 8968     		ldr	r1, [r1, #8]
 1571 00ca 8248     		ldr	r0, .L162+32
 1572              	.LVL162:
 162:../switch_sdk/core/fal/tiger/fal_tiger_stat.c ****         result_data += mib_data;
 1573              		.loc 1 162 9 is_stmt 0 discriminator 3 view .LVU372
 1574 00cc FFF7FEFF 		bl	osal_printf
 1575              	.LVL163:
 1576 00d0 EDE7     		b	.L93
 1577              	.LVL164:
 1578              	.L92:
 162:../switch_sdk/core/fal/tiger/fal_tiger_stat.c ****         result_data += mib_data;
 1579              		.loc 1 162 9 discriminator 3 view .LVU373
 1580              	.LBE14:
 162:../switch_sdk/core/fal/tiger/fal_tiger_stat.c ****         result_data += mib_data;
 1581              		.loc 1 162 9 is_stmt 1 discriminator 2 view .LVU374
 163:../switch_sdk/core/fal/tiger/fal_tiger_stat.c ****         CMM_ERR_CHK(HAL_MEM_DIRECT_READ(unit, MIB_TBL_BASE_ADDR0 + 0x100 * port_mac_id + 0x4 * RX_6
 1582              		.loc 1 163 9 discriminator 2 view .LVU375
 163:../switch_sdk/core/fal/tiger/fal_tiger_stat.c ****         CMM_ERR_CHK(HAL_MEM_DIRECT_READ(unit, MIB_TBL_BASE_ADDR0 + 0x100 * port_mac_id + 0x4 * RX_6
 1583              		.loc 1 163 21 is_stmt 0 discriminator 2 view .LVU376
 1584 00d2 DDF80C80 		ldr	r8, [sp, #12]
 1585              	.LVL165:
 164:../switch_sdk/core/fal/tiger/fal_tiger_stat.c ****         result_data += mib_data;
 1586              		.loc 1 164 9 is_stmt 1 discriminator 2 view .LVU377
 164:../switch_sdk/core/fal/tiger/fal_tiger_stat.c ****         result_data += mib_data;
 1587              		.loc 1 164 9 discriminator 2 view .LVU378
 1588 00d6 03AA     		add	r2, sp, #12
 1589 00d8 07F12001 		add	r1, r7, #32
 1590 00dc 3046     		mov	r0, r6
 1591              	.LVL166:
 164:../switch_sdk/core/fal/tiger/fal_tiger_stat.c ****         result_data += mib_data;
 1592              		.loc 1 164 9 is_stmt 0 discriminator 2 view .LVU379
 1593 00de FFF7FEFF 		bl	hal_mem32_read
 1594              	.LVL167:
 1595 00e2 0446     		mov	r4, r0
 1596              	.LVL168:
 164:../switch_sdk/core/fal/tiger/fal_tiger_stat.c ****         result_data += mib_data;
 1597              		.loc 1 164 9 discriminator 2 view .LVU380
 1598 00e4 10F0FF03 		ands	r3, r0, #255
 1599 00e8 15D0     		beq	.L94
 164:../switch_sdk/core/fal/tiger/fal_tiger_stat.c ****         result_data += mib_data;
 1600              		.loc 1 164 9 is_stmt 1 discriminator 1 view .LVU381
 164:../switch_sdk/core/fal/tiger/fal_tiger_stat.c ****         result_data += mib_data;
 1601              		.loc 1 164 9 discriminator 1 view .LVU382
 1602 00ea 754A     		ldr	r2, .L162+12
 1603 00ec 1278     		ldrb	r2, [r2]	@ zero_extendqisi2
 1604 00ee 012A     		cmp	r2, #1
 1605 00f0 01D8     		bhi	.L142
 1606              	.LVL169:
 1607              	.L95:
 164:../switch_sdk/core/fal/tiger/fal_tiger_stat.c ****         result_data += mib_data;
 1608              		.loc 1 164 9 discriminator 5 view .LVU383
 164:../switch_sdk/core/fal/tiger/fal_tiger_stat.c ****         result_data += mib_data;
 1609              		.loc 1 164 9 discriminator 5 view .LVU384
 164:../switch_sdk/core/fal/tiger/fal_tiger_stat.c ****         result_data += mib_data;
 1610              		.loc 1 164 9 discriminator 5 view .LVU385
 1611 00f2 E0B2     		uxtb	r0, r4
 1612 00f4 C5E7     		b	.L88
 1613              	.LVL170:
 1614              	.L142:
 164:../switch_sdk/core/fal/tiger/fal_tiger_stat.c ****         result_data += mib_data;
 1615              		.loc 1 164 9 discriminator 3 view .LVU386
 1616              	.LBB15:
 164:../switch_sdk/core/fal/tiger/fal_tiger_stat.c ****         result_data += mib_data;
 1617              		.loc 1 164 9 discriminator 3 view .LVU387
 1618 00f6 142B     		cmp	r3, #20
 1619 00f8 28BF     		it	cs
 1620 00fa 1423     		movcs	r3, #20
 1621 00fc 1A46     		mov	r2, r3
 1622 00fe 714B     		ldr	r3, .L162+16
 1623 0100 0093     		str	r3, [sp]
 1624 0102 754B     		ldr	r3, .L162+36
 1625 0104 7149     		ldr	r1, .L162+24
 1626 0106 51F82220 		ldr	r2, [r1, r2, lsl #2]
 1627 010a 7149     		ldr	r1, .L162+28
 1628 010c 8968     		ldr	r1, [r1, #8]
 1629 010e 7148     		ldr	r0, .L162+32
 1630              	.LVL171:
 164:../switch_sdk/core/fal/tiger/fal_tiger_stat.c ****         result_data += mib_data;
 1631              		.loc 1 164 9 is_stmt 0 discriminator 3 view .LVU388
 1632 0110 FFF7FEFF 		bl	osal_printf
 1633              	.LVL172:
 1634 0114 EDE7     		b	.L95
 1635              	.LVL173:
 1636              	.L94:
 164:../switch_sdk/core/fal/tiger/fal_tiger_stat.c ****         result_data += mib_data;
 1637              		.loc 1 164 9 discriminator 3 view .LVU389
 1638              	.LBE15:
 164:../switch_sdk/core/fal/tiger/fal_tiger_stat.c ****         result_data += mib_data;
 1639              		.loc 1 164 9 is_stmt 1 discriminator 2 view .LVU390
 165:../switch_sdk/core/fal/tiger/fal_tiger_stat.c ****         CMM_ERR_CHK(HAL_MEM_DIRECT_READ(unit, MIB_TBL_BASE_ADDR0 + 0x100 * port_mac_id + 0x4 * RX_1
 1640              		.loc 1 165 9 discriminator 2 view .LVU391
 165:../switch_sdk/core/fal/tiger/fal_tiger_stat.c ****         CMM_ERR_CHK(HAL_MEM_DIRECT_READ(unit, MIB_TBL_BASE_ADDR0 + 0x100 * port_mac_id + 0x4 * RX_1
 1641              		.loc 1 165 21 is_stmt 0 discriminator 2 view .LVU392
 1642 0116 039B     		ldr	r3, [sp, #12]
 1643 0118 13EB0808 		adds	r8, r3, r8
 1644              	.LVL174:
 165:../switch_sdk/core/fal/tiger/fal_tiger_stat.c ****         CMM_ERR_CHK(HAL_MEM_DIRECT_READ(unit, MIB_TBL_BASE_ADDR0 + 0x100 * port_mac_id + 0x4 * RX_1
 1645              		.loc 1 165 21 discriminator 2 view .LVU393
 1646 011c 2CBF     		ite	cs
 1647 011e 4FF00109 		movcs	r9, #1
 1648 0122 4FF00009 		movcc	r9, #0
 1649              	.LVL175:
 166:../switch_sdk/core/fal/tiger/fal_tiger_stat.c ****         result_data += mib_data;
 1650              		.loc 1 166 9 is_stmt 1 discriminator 2 view .LVU394
 166:../switch_sdk/core/fal/tiger/fal_tiger_stat.c ****         result_data += mib_data;
 1651              		.loc 1 166 9 discriminator 2 view .LVU395
 1652 0126 03AA     		add	r2, sp, #12
 1653 0128 07F12401 		add	r1, r7, #36
 1654 012c 3046     		mov	r0, r6
 1655              	.LVL176:
 166:../switch_sdk/core/fal/tiger/fal_tiger_stat.c ****         result_data += mib_data;
 1656              		.loc 1 166 9 is_stmt 0 discriminator 2 view .LVU396
 1657 012e FFF7FEFF 		bl	hal_mem32_read
 1658              	.LVL177:
 1659 0132 0446     		mov	r4, r0
 1660              	.LVL178:
 166:../switch_sdk/core/fal/tiger/fal_tiger_stat.c ****         result_data += mib_data;
 1661              		.loc 1 166 9 discriminator 2 view .LVU397
 1662 0134 10F0FF03 		ands	r3, r0, #255
 1663 0138 15D0     		beq	.L96
 166:../switch_sdk/core/fal/tiger/fal_tiger_stat.c ****         result_data += mib_data;
 1664              		.loc 1 166 9 is_stmt 1 discriminator 1 view .LVU398
 166:../switch_sdk/core/fal/tiger/fal_tiger_stat.c ****         result_data += mib_data;
 1665              		.loc 1 166 9 discriminator 1 view .LVU399
 1666 013a 614A     		ldr	r2, .L162+12
 1667 013c 1278     		ldrb	r2, [r2]	@ zero_extendqisi2
 1668 013e 012A     		cmp	r2, #1
 1669 0140 01D8     		bhi	.L143
 1670              	.LVL179:
 1671              	.L97:
 166:../switch_sdk/core/fal/tiger/fal_tiger_stat.c ****         result_data += mib_data;
 1672              		.loc 1 166 9 discriminator 5 view .LVU400
 166:../switch_sdk/core/fal/tiger/fal_tiger_stat.c ****         result_data += mib_data;
 1673              		.loc 1 166 9 discriminator 5 view .LVU401
 166:../switch_sdk/core/fal/tiger/fal_tiger_stat.c ****         result_data += mib_data;
 1674              		.loc 1 166 9 discriminator 5 view .LVU402
 1675 0142 E0B2     		uxtb	r0, r4
 1676 0144 9DE7     		b	.L88
 1677              	.LVL180:
 1678              	.L143:
 166:../switch_sdk/core/fal/tiger/fal_tiger_stat.c ****         result_data += mib_data;
 1679              		.loc 1 166 9 discriminator 3 view .LVU403
 1680              	.LBB16:
 166:../switch_sdk/core/fal/tiger/fal_tiger_stat.c ****         result_data += mib_data;
 1681              		.loc 1 166 9 discriminator 3 view .LVU404
 1682 0146 142B     		cmp	r3, #20
 1683 0148 28BF     		it	cs
 1684 014a 1423     		movcs	r3, #20
 1685 014c 1A46     		mov	r2, r3
 1686 014e 5D4B     		ldr	r3, .L162+16
 1687 0150 0093     		str	r3, [sp]
 1688 0152 624B     		ldr	r3, .L162+40
 1689 0154 5D49     		ldr	r1, .L162+24
 1690 0156 51F82220 		ldr	r2, [r1, r2, lsl #2]
 1691 015a 5D49     		ldr	r1, .L162+28
 1692 015c 8968     		ldr	r1, [r1, #8]
 1693 015e 5D48     		ldr	r0, .L162+32
 1694              	.LVL181:
 166:../switch_sdk/core/fal/tiger/fal_tiger_stat.c ****         result_data += mib_data;
 1695              		.loc 1 166 9 is_stmt 0 discriminator 3 view .LVU405
 1696 0160 FFF7FEFF 		bl	osal_printf
 1697              	.LVL182:
 1698 0164 EDE7     		b	.L97
 1699              	.LVL183:
 1700              	.L96:
 166:../switch_sdk/core/fal/tiger/fal_tiger_stat.c ****         result_data += mib_data;
 1701              		.loc 1 166 9 discriminator 3 view .LVU406
 1702              	.LBE16:
 166:../switch_sdk/core/fal/tiger/fal_tiger_stat.c ****         result_data += mib_data;
 1703              		.loc 1 166 9 is_stmt 1 discriminator 2 view .LVU407
 167:../switch_sdk/core/fal/tiger/fal_tiger_stat.c ****         CMM_ERR_CHK(HAL_MEM_DIRECT_READ(unit, MIB_TBL_BASE_ADDR0 + 0x100 * port_mac_id + 0x4 * RX_2
 1704              		.loc 1 167 9 discriminator 2 view .LVU408
 167:../switch_sdk/core/fal/tiger/fal_tiger_stat.c ****         CMM_ERR_CHK(HAL_MEM_DIRECT_READ(unit, MIB_TBL_BASE_ADDR0 + 0x100 * port_mac_id + 0x4 * RX_2
 1705              		.loc 1 167 21 is_stmt 0 discriminator 2 view .LVU409
 1706 0166 039B     		ldr	r3, [sp, #12]
 1707 0168 13EB0808 		adds	r8, r3, r8
 1708              	.LVL184:
 167:../switch_sdk/core/fal/tiger/fal_tiger_stat.c ****         CMM_ERR_CHK(HAL_MEM_DIRECT_READ(unit, MIB_TBL_BASE_ADDR0 + 0x100 * port_mac_id + 0x4 * RX_2
 1709              		.loc 1 167 21 discriminator 2 view .LVU410
 1710 016c 49F10009 		adc	r9, r9, #0
 1711              	.LVL185:
 168:../switch_sdk/core/fal/tiger/fal_tiger_stat.c ****         result_data += mib_data;
 1712              		.loc 1 168 9 is_stmt 1 discriminator 2 view .LVU411
 168:../switch_sdk/core/fal/tiger/fal_tiger_stat.c ****         result_data += mib_data;
 1713              		.loc 1 168 9 discriminator 2 view .LVU412
 1714 0170 03AA     		add	r2, sp, #12
 1715 0172 07F12801 		add	r1, r7, #40
 1716 0176 3046     		mov	r0, r6
 1717              	.LVL186:
 168:../switch_sdk/core/fal/tiger/fal_tiger_stat.c ****         result_data += mib_data;
 1718              		.loc 1 168 9 is_stmt 0 discriminator 2 view .LVU413
 1719 0178 FFF7FEFF 		bl	hal_mem32_read
 1720              	.LVL187:
 1721 017c 0446     		mov	r4, r0
 1722              	.LVL188:
 168:../switch_sdk/core/fal/tiger/fal_tiger_stat.c ****         result_data += mib_data;
 1723              		.loc 1 168 9 discriminator 2 view .LVU414
 1724 017e 10F0FF03 		ands	r3, r0, #255
 1725 0182 15D0     		beq	.L98
 168:../switch_sdk/core/fal/tiger/fal_tiger_stat.c ****         result_data += mib_data;
 1726              		.loc 1 168 9 is_stmt 1 discriminator 1 view .LVU415
 168:../switch_sdk/core/fal/tiger/fal_tiger_stat.c ****         result_data += mib_data;
 1727              		.loc 1 168 9 discriminator 1 view .LVU416
 1728 0184 4E4A     		ldr	r2, .L162+12
 1729 0186 1278     		ldrb	r2, [r2]	@ zero_extendqisi2
 1730 0188 012A     		cmp	r2, #1
 1731 018a 01D8     		bhi	.L144
 1732              	.LVL189:
 1733              	.L99:
 168:../switch_sdk/core/fal/tiger/fal_tiger_stat.c ****         result_data += mib_data;
 1734              		.loc 1 168 9 discriminator 5 view .LVU417
 168:../switch_sdk/core/fal/tiger/fal_tiger_stat.c ****         result_data += mib_data;
 1735              		.loc 1 168 9 discriminator 5 view .LVU418
 168:../switch_sdk/core/fal/tiger/fal_tiger_stat.c ****         result_data += mib_data;
 1736              		.loc 1 168 9 discriminator 5 view .LVU419
 1737 018c E0B2     		uxtb	r0, r4
 1738 018e 78E7     		b	.L88
 1739              	.LVL190:
 1740              	.L144:
 168:../switch_sdk/core/fal/tiger/fal_tiger_stat.c ****         result_data += mib_data;
 1741              		.loc 1 168 9 discriminator 3 view .LVU420
 1742              	.LBB17:
 168:../switch_sdk/core/fal/tiger/fal_tiger_stat.c ****         result_data += mib_data;
 1743              		.loc 1 168 9 discriminator 3 view .LVU421
 1744 0190 142B     		cmp	r3, #20
 1745 0192 28BF     		it	cs
 1746 0194 1423     		movcs	r3, #20
 1747 0196 1A46     		mov	r2, r3
 1748 0198 4A4B     		ldr	r3, .L162+16
 1749 019a 0093     		str	r3, [sp]
 1750 019c 504B     		ldr	r3, .L162+44
 1751 019e 4B49     		ldr	r1, .L162+24
 1752 01a0 51F82220 		ldr	r2, [r1, r2, lsl #2]
 1753 01a4 4A49     		ldr	r1, .L162+28
 1754 01a6 8968     		ldr	r1, [r1, #8]
 1755 01a8 4A48     		ldr	r0, .L162+32
 1756              	.LVL191:
 168:../switch_sdk/core/fal/tiger/fal_tiger_stat.c ****         result_data += mib_data;
 1757              		.loc 1 168 9 is_stmt 0 discriminator 3 view .LVU422
 1758 01aa FFF7FEFF 		bl	osal_printf
 1759              	.LVL192:
 1760 01ae EDE7     		b	.L99
 1761              	.LVL193:
 1762              	.L98:
 168:../switch_sdk/core/fal/tiger/fal_tiger_stat.c ****         result_data += mib_data;
 1763              		.loc 1 168 9 discriminator 3 view .LVU423
 1764              	.LBE17:
 168:../switch_sdk/core/fal/tiger/fal_tiger_stat.c ****         result_data += mib_data;
 1765              		.loc 1 168 9 is_stmt 1 discriminator 2 view .LVU424
 169:../switch_sdk/core/fal/tiger/fal_tiger_stat.c ****         CMM_ERR_CHK(HAL_MEM_DIRECT_READ(unit, MIB_TBL_BASE_ADDR0 + 0x100 * port_mac_id + 0x4 * RX_5
 1766              		.loc 1 169 9 discriminator 2 view .LVU425
 169:../switch_sdk/core/fal/tiger/fal_tiger_stat.c ****         CMM_ERR_CHK(HAL_MEM_DIRECT_READ(unit, MIB_TBL_BASE_ADDR0 + 0x100 * port_mac_id + 0x4 * RX_5
 1767              		.loc 1 169 21 is_stmt 0 discriminator 2 view .LVU426
 1768 01b0 039B     		ldr	r3, [sp, #12]
 1769 01b2 13EB0808 		adds	r8, r3, r8
 1770              	.LVL194:
 169:../switch_sdk/core/fal/tiger/fal_tiger_stat.c ****         CMM_ERR_CHK(HAL_MEM_DIRECT_READ(unit, MIB_TBL_BASE_ADDR0 + 0x100 * port_mac_id + 0x4 * RX_5
 1771              		.loc 1 169 21 discriminator 2 view .LVU427
 1772 01b6 49F10009 		adc	r9, r9, #0
 1773              	.LVL195:
 170:../switch_sdk/core/fal/tiger/fal_tiger_stat.c ****         result_data += mib_data;
 1774              		.loc 1 170 9 is_stmt 1 discriminator 2 view .LVU428
 170:../switch_sdk/core/fal/tiger/fal_tiger_stat.c ****         result_data += mib_data;
 1775              		.loc 1 170 9 discriminator 2 view .LVU429
 1776 01ba 03AA     		add	r2, sp, #12
 1777 01bc 07F12C01 		add	r1, r7, #44
 1778 01c0 3046     		mov	r0, r6
 1779              	.LVL196:
 170:../switch_sdk/core/fal/tiger/fal_tiger_stat.c ****         result_data += mib_data;
 1780              		.loc 1 170 9 is_stmt 0 discriminator 2 view .LVU430
 1781 01c2 FFF7FEFF 		bl	hal_mem32_read
 1782              	.LVL197:
 1783 01c6 0446     		mov	r4, r0
 1784              	.LVL198:
 170:../switch_sdk/core/fal/tiger/fal_tiger_stat.c ****         result_data += mib_data;
 1785              		.loc 1 170 9 discriminator 2 view .LVU431
 1786 01c8 10F0FF03 		ands	r3, r0, #255
 1787 01cc 15D0     		beq	.L100
 170:../switch_sdk/core/fal/tiger/fal_tiger_stat.c ****         result_data += mib_data;
 1788              		.loc 1 170 9 is_stmt 1 discriminator 1 view .LVU432
 170:../switch_sdk/core/fal/tiger/fal_tiger_stat.c ****         result_data += mib_data;
 1789              		.loc 1 170 9 discriminator 1 view .LVU433
 1790 01ce 3C4A     		ldr	r2, .L162+12
 1791 01d0 1278     		ldrb	r2, [r2]	@ zero_extendqisi2
 1792 01d2 012A     		cmp	r2, #1
 1793 01d4 01D8     		bhi	.L145
 1794              	.LVL199:
 1795              	.L101:
 170:../switch_sdk/core/fal/tiger/fal_tiger_stat.c ****         result_data += mib_data;
 1796              		.loc 1 170 9 discriminator 5 view .LVU434
 170:../switch_sdk/core/fal/tiger/fal_tiger_stat.c ****         result_data += mib_data;
 1797              		.loc 1 170 9 discriminator 5 view .LVU435
 170:../switch_sdk/core/fal/tiger/fal_tiger_stat.c ****         result_data += mib_data;
 1798              		.loc 1 170 9 discriminator 5 view .LVU436
 1799 01d6 E0B2     		uxtb	r0, r4
 1800 01d8 53E7     		b	.L88
 1801              	.LVL200:
 1802              	.L145:
 170:../switch_sdk/core/fal/tiger/fal_tiger_stat.c ****         result_data += mib_data;
 1803              		.loc 1 170 9 discriminator 3 view .LVU437
 1804              	.LBB18:
 170:../switch_sdk/core/fal/tiger/fal_tiger_stat.c ****         result_data += mib_data;
 1805              		.loc 1 170 9 discriminator 3 view .LVU438
 1806 01da 142B     		cmp	r3, #20
 1807 01dc 28BF     		it	cs
 1808 01de 1423     		movcs	r3, #20
 1809 01e0 1A46     		mov	r2, r3
 1810 01e2 384B     		ldr	r3, .L162+16
 1811 01e4 0093     		str	r3, [sp]
 1812 01e6 3F4B     		ldr	r3, .L162+48
 1813 01e8 3849     		ldr	r1, .L162+24
 1814 01ea 51F82220 		ldr	r2, [r1, r2, lsl #2]
 1815 01ee 3849     		ldr	r1, .L162+28
 1816 01f0 8968     		ldr	r1, [r1, #8]
 1817 01f2 3848     		ldr	r0, .L162+32
 1818              	.LVL201:
 170:../switch_sdk/core/fal/tiger/fal_tiger_stat.c ****         result_data += mib_data;
 1819              		.loc 1 170 9 is_stmt 0 discriminator 3 view .LVU439
 1820 01f4 FFF7FEFF 		bl	osal_printf
 1821              	.LVL202:
 1822 01f8 EDE7     		b	.L101
 1823              	.LVL203:
 1824              	.L100:
 170:../switch_sdk/core/fal/tiger/fal_tiger_stat.c ****         result_data += mib_data;
 1825              		.loc 1 170 9 discriminator 3 view .LVU440
 1826              	.LBE18:
 170:../switch_sdk/core/fal/tiger/fal_tiger_stat.c ****         result_data += mib_data;
 1827              		.loc 1 170 9 is_stmt 1 discriminator 2 view .LVU441
 171:../switch_sdk/core/fal/tiger/fal_tiger_stat.c ****         CMM_ERR_CHK(HAL_MEM_DIRECT_READ(unit, MIB_TBL_BASE_ADDR0 + 0x100 * port_mac_id + 0x4 * RX_1
 1828              		.loc 1 171 9 discriminator 2 view .LVU442
 171:../switch_sdk/core/fal/tiger/fal_tiger_stat.c ****         CMM_ERR_CHK(HAL_MEM_DIRECT_READ(unit, MIB_TBL_BASE_ADDR0 + 0x100 * port_mac_id + 0x4 * RX_1
 1829              		.loc 1 171 21 is_stmt 0 discriminator 2 view .LVU443
 1830 01fa 039B     		ldr	r3, [sp, #12]
 1831 01fc 13EB0808 		adds	r8, r3, r8
 1832              	.LVL204:
 171:../switch_sdk/core/fal/tiger/fal_tiger_stat.c ****         CMM_ERR_CHK(HAL_MEM_DIRECT_READ(unit, MIB_TBL_BASE_ADDR0 + 0x100 * port_mac_id + 0x4 * RX_1
 1833              		.loc 1 171 21 discriminator 2 view .LVU444
 1834 0200 49F10009 		adc	r9, r9, #0
 1835              	.LVL205:
 172:../switch_sdk/core/fal/tiger/fal_tiger_stat.c ****         result_data += mib_data;
 1836              		.loc 1 172 9 is_stmt 1 discriminator 2 view .LVU445
 172:../switch_sdk/core/fal/tiger/fal_tiger_stat.c ****         result_data += mib_data;
 1837              		.loc 1 172 9 discriminator 2 view .LVU446
 1838 0204 03AA     		add	r2, sp, #12
 1839 0206 07F13001 		add	r1, r7, #48
 1840 020a 3046     		mov	r0, r6
 1841              	.LVL206:
 172:../switch_sdk/core/fal/tiger/fal_tiger_stat.c ****         result_data += mib_data;
 1842              		.loc 1 172 9 is_stmt 0 discriminator 2 view .LVU447
 1843 020c FFF7FEFF 		bl	hal_mem32_read
 1844              	.LVL207:
 1845 0210 0446     		mov	r4, r0
 1846              	.LVL208:
 172:../switch_sdk/core/fal/tiger/fal_tiger_stat.c ****         result_data += mib_data;
 1847              		.loc 1 172 9 discriminator 2 view .LVU448
 1848 0212 10F0FF03 		ands	r3, r0, #255
 1849 0216 15D0     		beq	.L102
 172:../switch_sdk/core/fal/tiger/fal_tiger_stat.c ****         result_data += mib_data;
 1850              		.loc 1 172 9 is_stmt 1 discriminator 1 view .LVU449
 172:../switch_sdk/core/fal/tiger/fal_tiger_stat.c ****         result_data += mib_data;
 1851              		.loc 1 172 9 discriminator 1 view .LVU450
 1852 0218 294A     		ldr	r2, .L162+12
 1853 021a 1278     		ldrb	r2, [r2]	@ zero_extendqisi2
 1854 021c 012A     		cmp	r2, #1
 1855 021e 01D8     		bhi	.L146
 1856              	.LVL209:
 1857              	.L103:
 172:../switch_sdk/core/fal/tiger/fal_tiger_stat.c ****         result_data += mib_data;
 1858              		.loc 1 172 9 discriminator 5 view .LVU451
 172:../switch_sdk/core/fal/tiger/fal_tiger_stat.c ****         result_data += mib_data;
 1859              		.loc 1 172 9 discriminator 5 view .LVU452
 172:../switch_sdk/core/fal/tiger/fal_tiger_stat.c ****         result_data += mib_data;
 1860              		.loc 1 172 9 discriminator 5 view .LVU453
 1861 0220 E0B2     		uxtb	r0, r4
 1862 0222 2EE7     		b	.L88
 1863              	.LVL210:
 1864              	.L146:
 172:../switch_sdk/core/fal/tiger/fal_tiger_stat.c ****         result_data += mib_data;
 1865              		.loc 1 172 9 discriminator 3 view .LVU454
 1866              	.LBB19:
 172:../switch_sdk/core/fal/tiger/fal_tiger_stat.c ****         result_data += mib_data;
 1867              		.loc 1 172 9 discriminator 3 view .LVU455
 1868 0224 142B     		cmp	r3, #20
 1869 0226 28BF     		it	cs
 1870 0228 1423     		movcs	r3, #20
 1871 022a 1A46     		mov	r2, r3
 1872 022c 254B     		ldr	r3, .L162+16
 1873 022e 0093     		str	r3, [sp]
 1874 0230 2D4B     		ldr	r3, .L162+52
 1875 0232 2649     		ldr	r1, .L162+24
 1876 0234 51F82220 		ldr	r2, [r1, r2, lsl #2]
 1877 0238 2549     		ldr	r1, .L162+28
 1878 023a 8968     		ldr	r1, [r1, #8]
 1879 023c 2548     		ldr	r0, .L162+32
 1880              	.LVL211:
 172:../switch_sdk/core/fal/tiger/fal_tiger_stat.c ****         result_data += mib_data;
 1881              		.loc 1 172 9 is_stmt 0 discriminator 3 view .LVU456
 1882 023e FFF7FEFF 		bl	osal_printf
 1883              	.LVL212:
 1884 0242 EDE7     		b	.L103
 1885              	.LVL213:
 1886              	.L102:
 172:../switch_sdk/core/fal/tiger/fal_tiger_stat.c ****         result_data += mib_data;
 1887              		.loc 1 172 9 discriminator 3 view .LVU457
 1888              	.LBE19:
 172:../switch_sdk/core/fal/tiger/fal_tiger_stat.c ****         result_data += mib_data;
 1889              		.loc 1 172 9 is_stmt 1 discriminator 2 view .LVU458
 173:../switch_sdk/core/fal/tiger/fal_tiger_stat.c ****         CMM_ERR_CHK(HAL_MEM_DIRECT_READ(unit, MIB_TBL_BASE_ADDR0 + 0x100 * port_mac_id + 0x4 * RX_J
 1890              		.loc 1 173 9 discriminator 2 view .LVU459
 173:../switch_sdk/core/fal/tiger/fal_tiger_stat.c ****         CMM_ERR_CHK(HAL_MEM_DIRECT_READ(unit, MIB_TBL_BASE_ADDR0 + 0x100 * port_mac_id + 0x4 * RX_J
 1891              		.loc 1 173 21 is_stmt 0 discriminator 2 view .LVU460
 1892 0244 039B     		ldr	r3, [sp, #12]
 1893 0246 13EB0808 		adds	r8, r3, r8
 1894              	.LVL214:
 173:../switch_sdk/core/fal/tiger/fal_tiger_stat.c ****         CMM_ERR_CHK(HAL_MEM_DIRECT_READ(unit, MIB_TBL_BASE_ADDR0 + 0x100 * port_mac_id + 0x4 * RX_J
 1895              		.loc 1 173 21 discriminator 2 view .LVU461
 1896 024a 49F10009 		adc	r9, r9, #0
 1897              	.LVL215:
 174:../switch_sdk/core/fal/tiger/fal_tiger_stat.c ****         result_data += mib_data;
 1898              		.loc 1 174 9 is_stmt 1 discriminator 2 view .LVU462
 174:../switch_sdk/core/fal/tiger/fal_tiger_stat.c ****         result_data += mib_data;
 1899              		.loc 1 174 9 discriminator 2 view .LVU463
 1900 024e 03AA     		add	r2, sp, #12
 1901 0250 07F13401 		add	r1, r7, #52
 1902 0254 3046     		mov	r0, r6
 1903              	.LVL216:
 174:../switch_sdk/core/fal/tiger/fal_tiger_stat.c ****         result_data += mib_data;
 1904              		.loc 1 174 9 is_stmt 0 discriminator 2 view .LVU464
 1905 0256 FFF7FEFF 		bl	hal_mem32_read
 1906              	.LVL217:
 1907 025a 0446     		mov	r4, r0
 1908              	.LVL218:
 174:../switch_sdk/core/fal/tiger/fal_tiger_stat.c ****         result_data += mib_data;
 1909              		.loc 1 174 9 discriminator 2 view .LVU465
 1910 025c 10F0FF02 		ands	r2, r0, #255
 1911 0260 14D0     		beq	.L104
 174:../switch_sdk/core/fal/tiger/fal_tiger_stat.c ****         result_data += mib_data;
 1912              		.loc 1 174 9 is_stmt 1 discriminator 1 view .LVU466
 174:../switch_sdk/core/fal/tiger/fal_tiger_stat.c ****         result_data += mib_data;
 1913              		.loc 1 174 9 discriminator 1 view .LVU467
 1914 0262 174B     		ldr	r3, .L162+12
 1915 0264 1B78     		ldrb	r3, [r3]	@ zero_extendqisi2
 1916 0266 012B     		cmp	r3, #1
 1917 0268 01D8     		bhi	.L147
 1918              	.LVL219:
 1919              	.L105:
 174:../switch_sdk/core/fal/tiger/fal_tiger_stat.c ****         result_data += mib_data;
 1920              		.loc 1 174 9 discriminator 5 view .LVU468
 174:../switch_sdk/core/fal/tiger/fal_tiger_stat.c ****         result_data += mib_data;
 1921              		.loc 1 174 9 discriminator 5 view .LVU469
 174:../switch_sdk/core/fal/tiger/fal_tiger_stat.c ****         result_data += mib_data;
 1922              		.loc 1 174 9 discriminator 5 view .LVU470
 1923 026a E0B2     		uxtb	r0, r4
 1924 026c 09E7     		b	.L88
 1925              	.LVL220:
 1926              	.L147:
 174:../switch_sdk/core/fal/tiger/fal_tiger_stat.c ****         result_data += mib_data;
 1927              		.loc 1 174 9 discriminator 3 view .LVU471
 1928              	.LBB20:
 174:../switch_sdk/core/fal/tiger/fal_tiger_stat.c ****         result_data += mib_data;
 1929              		.loc 1 174 9 discriminator 3 view .LVU472
 1930 026e 142A     		cmp	r2, #20
 1931 0270 28BF     		it	cs
 1932 0272 1422     		movcs	r2, #20
 1933 0274 134B     		ldr	r3, .L162+16
 1934 0276 0093     		str	r3, [sp]
 1935 0278 1C4B     		ldr	r3, .L162+56
 1936 027a 1449     		ldr	r1, .L162+24
 1937 027c 51F82220 		ldr	r2, [r1, r2, lsl #2]
 1938 0280 1349     		ldr	r1, .L162+28
 1939 0282 8968     		ldr	r1, [r1, #8]
 1940 0284 1348     		ldr	r0, .L162+32
 1941              	.LVL221:
 174:../switch_sdk/core/fal/tiger/fal_tiger_stat.c ****         result_data += mib_data;
 1942              		.loc 1 174 9 is_stmt 0 discriminator 3 view .LVU473
 1943 0286 FFF7FEFF 		bl	osal_printf
 1944              	.LVL222:
 1945 028a EEE7     		b	.L105
 1946              	.LVL223:
 1947              	.L104:
 174:../switch_sdk/core/fal/tiger/fal_tiger_stat.c ****         result_data += mib_data;
 1948              		.loc 1 174 9 discriminator 3 view .LVU474
 1949              	.LBE20:
 174:../switch_sdk/core/fal/tiger/fal_tiger_stat.c ****         result_data += mib_data;
 1950              		.loc 1 174 9 is_stmt 1 discriminator 2 view .LVU475
 175:../switch_sdk/core/fal/tiger/fal_tiger_stat.c ****         CMM_ERR_CHK(HAL_MEM_DIRECT_READ(unit, MIB_TBL_BASE_ADDR0 + 0x100 * port_mac_id + 0x4 * RX_B
 1951              		.loc 1 175 9 discriminator 2 view .LVU476
 175:../switch_sdk/core/fal/tiger/fal_tiger_stat.c ****         CMM_ERR_CHK(HAL_MEM_DIRECT_READ(unit, MIB_TBL_BASE_ADDR0 + 0x100 * port_mac_id + 0x4 * RX_B
 1952              		.loc 1 175 21 is_stmt 0 discriminator 2 view .LVU477
 1953 028c 039B     		ldr	r3, [sp, #12]
 1954 028e 13EB0808 		adds	r8, r3, r8
 1955              	.LVL224:
 175:../switch_sdk/core/fal/tiger/fal_tiger_stat.c ****         CMM_ERR_CHK(HAL_MEM_DIRECT_READ(unit, MIB_TBL_BASE_ADDR0 + 0x100 * port_mac_id + 0x4 * RX_B
 1956              		.loc 1 175 21 discriminator 2 view .LVU478
 1957 0292 49F10009 		adc	r9, r9, #0
 1958              	.LVL225:
 176:../switch_sdk/core/fal/tiger/fal_tiger_stat.c ****         result_data -= mib_data;
 1959              		.loc 1 176 9 is_stmt 1 discriminator 2 view .LVU479
 176:../switch_sdk/core/fal/tiger/fal_tiger_stat.c ****         result_data -= mib_data;
 1960              		.loc 1 176 9 discriminator 2 view .LVU480
 1961 0296 03AA     		add	r2, sp, #12
 1962 0298 3946     		mov	r1, r7
 1963 029a 3046     		mov	r0, r6
 1964              	.LVL226:
 176:../switch_sdk/core/fal/tiger/fal_tiger_stat.c ****         result_data -= mib_data;
 1965              		.loc 1 176 9 is_stmt 0 discriminator 2 view .LVU481
 1966 029c FFF7FEFF 		bl	hal_mem32_read
 1967              	.LVL227:
 1968 02a0 0446     		mov	r4, r0
 1969              	.LVL228:
 176:../switch_sdk/core/fal/tiger/fal_tiger_stat.c ****         result_data -= mib_data;
 1970              		.loc 1 176 9 discriminator 2 view .LVU482
 1971 02a2 10F0FF02 		ands	r2, r0, #255
 1972 02a6 32D0     		beq	.L106
 176:../switch_sdk/core/fal/tiger/fal_tiger_stat.c ****         result_data -= mib_data;
 1973              		.loc 1 176 9 is_stmt 1 discriminator 1 view .LVU483
 176:../switch_sdk/core/fal/tiger/fal_tiger_stat.c ****         result_data -= mib_data;
 1974              		.loc 1 176 9 discriminator 1 view .LVU484
 1975 02a8 054B     		ldr	r3, .L162+12
 1976 02aa 1B78     		ldrb	r3, [r3]	@ zero_extendqisi2
 1977 02ac 012B     		cmp	r3, #1
 1978 02ae 1FD8     		bhi	.L148
 1979              	.LVL229:
 1980              	.L107:
 176:../switch_sdk/core/fal/tiger/fal_tiger_stat.c ****         result_data -= mib_data;
 1981              		.loc 1 176 9 discriminator 5 view .LVU485
 176:../switch_sdk/core/fal/tiger/fal_tiger_stat.c ****         result_data -= mib_data;
 1982              		.loc 1 176 9 discriminator 5 view .LVU486
 176:../switch_sdk/core/fal/tiger/fal_tiger_stat.c ****         result_data -= mib_data;
 1983              		.loc 1 176 9 discriminator 5 view .LVU487
 1984 02b0 E0B2     		uxtb	r0, r4
 1985 02b2 E6E6     		b	.L88
 1986              	.L163:
 1987              		.align	2
 1988              	.L162:
 1989 02b4 00000000 		.word	gcal_inited
 1990 02b8 00000000 		.word	gpSwitchUnit
 1991 02bc 05000400 		.word	262149
 1992 02c0 00000000 		.word	yt_debug_level
 1993 02c4 00000000 		.word	__FUNCTION__.6
 1994 02c8 00000000 		.word	.LC7
 1995 02cc 00000000 		.word	_yt_errmsg
 1996 02d0 00000000 		.word	_yt_prompt_msg
 1997 02d4 3C000000 		.word	.LC1
 1998 02d8 50000000 		.word	.LC8
 1999 02dc A4000000 		.word	.LC9
 2000 02e0 FC000000 		.word	.LC10
 2001 02e4 54010000 		.word	.LC11
 2002 02e8 AC010000 		.word	.LC12
 2003 02ec 04020000 		.word	.LC13
 2004              	.LVL230:
 2005              	.L148:
 176:../switch_sdk/core/fal/tiger/fal_tiger_stat.c ****         result_data -= mib_data;
 2006              		.loc 1 176 9 discriminator 3 view .LVU488
 2007              	.LBB21:
 176:../switch_sdk/core/fal/tiger/fal_tiger_stat.c ****         result_data -= mib_data;
 2008              		.loc 1 176 9 discriminator 3 view .LVU489
 2009 02f0 142A     		cmp	r2, #20
 2010 02f2 28BF     		it	cs
 2011 02f4 1422     		movcs	r2, #20
 2012 02f6 A24B     		ldr	r3, .L164
 2013 02f8 0093     		str	r3, [sp]
 2014 02fa A24B     		ldr	r3, .L164+4
 2015 02fc A249     		ldr	r1, .L164+8
 2016 02fe 51F82220 		ldr	r2, [r1, r2, lsl #2]
 2017 0302 A249     		ldr	r1, .L164+12
 2018 0304 8968     		ldr	r1, [r1, #8]
 2019 0306 A248     		ldr	r0, .L164+16
 2020              	.LVL231:
 176:../switch_sdk/core/fal/tiger/fal_tiger_stat.c ****         result_data -= mib_data;
 2021              		.loc 1 176 9 is_stmt 0 discriminator 3 view .LVU490
 2022 0308 FFF7FEFF 		bl	osal_printf
 2023              	.LVL232:
 2024 030c D0E7     		b	.L107
 2025              	.LVL233:
 2026              	.L106:
 176:../switch_sdk/core/fal/tiger/fal_tiger_stat.c ****         result_data -= mib_data;
 2027              		.loc 1 176 9 discriminator 3 view .LVU491
 2028              	.LBE21:
 176:../switch_sdk/core/fal/tiger/fal_tiger_stat.c ****         result_data -= mib_data;
 2029              		.loc 1 176 9 is_stmt 1 discriminator 2 view .LVU492
 177:../switch_sdk/core/fal/tiger/fal_tiger_stat.c ****         CMM_ERR_CHK(HAL_MEM_DIRECT_READ(unit, MIB_TBL_BASE_ADDR0 + 0x100 * port_mac_id + 0x4 * RX_M
 2030              		.loc 1 177 9 discriminator 2 view .LVU493
 177:../switch_sdk/core/fal/tiger/fal_tiger_stat.c ****         CMM_ERR_CHK(HAL_MEM_DIRECT_READ(unit, MIB_TBL_BASE_ADDR0 + 0x100 * port_mac_id + 0x4 * RX_M
 2031              		.loc 1 177 21 is_stmt 0 discriminator 2 view .LVU494
 2032 030e 039B     		ldr	r3, [sp, #12]
 2033 0310 B8EB0308 		subs	r8, r8, r3
 2034              	.LVL234:
 177:../switch_sdk/core/fal/tiger/fal_tiger_stat.c ****         CMM_ERR_CHK(HAL_MEM_DIRECT_READ(unit, MIB_TBL_BASE_ADDR0 + 0x100 * port_mac_id + 0x4 * RX_M
 2035              		.loc 1 177 21 discriminator 2 view .LVU495
 2036 0314 69F10009 		sbc	r9, r9, #0
 2037              	.LVL235:
 178:../switch_sdk/core/fal/tiger/fal_tiger_stat.c ****         result_data -= mib_data;
 2038              		.loc 1 178 9 is_stmt 1 discriminator 2 view .LVU496
 178:../switch_sdk/core/fal/tiger/fal_tiger_stat.c ****         result_data -= mib_data;
 2039              		.loc 1 178 9 discriminator 2 view .LVU497
 2040 0318 03AA     		add	r2, sp, #12
 2041 031a 07F10801 		add	r1, r7, #8
 2042 031e 3046     		mov	r0, r6
 2043              	.LVL236:
 178:../switch_sdk/core/fal/tiger/fal_tiger_stat.c ****         result_data -= mib_data;
 2044              		.loc 1 178 9 is_stmt 0 discriminator 2 view .LVU498
 2045 0320 FFF7FEFF 		bl	hal_mem32_read
 2046              	.LVL237:
 2047 0324 0446     		mov	r4, r0
 2048              	.LVL238:
 178:../switch_sdk/core/fal/tiger/fal_tiger_stat.c ****         result_data -= mib_data;
 2049              		.loc 1 178 9 discriminator 2 view .LVU499
 2050 0326 10F0FF02 		ands	r2, r0, #255
 2051 032a 14D0     		beq	.L108
 178:../switch_sdk/core/fal/tiger/fal_tiger_stat.c ****         result_data -= mib_data;
 2052              		.loc 1 178 9 is_stmt 1 discriminator 1 view .LVU500
 178:../switch_sdk/core/fal/tiger/fal_tiger_stat.c ****         result_data -= mib_data;
 2053              		.loc 1 178 9 discriminator 1 view .LVU501
 2054 032c 994B     		ldr	r3, .L164+20
 2055 032e 1B78     		ldrb	r3, [r3]	@ zero_extendqisi2
 2056 0330 012B     		cmp	r3, #1
 2057 0332 01D8     		bhi	.L149
 2058              	.LVL239:
 2059              	.L109:
 178:../switch_sdk/core/fal/tiger/fal_tiger_stat.c ****         result_data -= mib_data;
 2060              		.loc 1 178 9 discriminator 5 view .LVU502
 178:../switch_sdk/core/fal/tiger/fal_tiger_stat.c ****         result_data -= mib_data;
 2061              		.loc 1 178 9 discriminator 5 view .LVU503
 178:../switch_sdk/core/fal/tiger/fal_tiger_stat.c ****         result_data -= mib_data;
 2062              		.loc 1 178 9 discriminator 5 view .LVU504
 2063 0334 E0B2     		uxtb	r0, r4
 2064 0336 A4E6     		b	.L88
 2065              	.LVL240:
 2066              	.L149:
 178:../switch_sdk/core/fal/tiger/fal_tiger_stat.c ****         result_data -= mib_data;
 2067              		.loc 1 178 9 discriminator 3 view .LVU505
 2068              	.LBB22:
 178:../switch_sdk/core/fal/tiger/fal_tiger_stat.c ****         result_data -= mib_data;
 2069              		.loc 1 178 9 discriminator 3 view .LVU506
 2070 0338 142A     		cmp	r2, #20
 2071 033a 28BF     		it	cs
 2072 033c 1422     		movcs	r2, #20
 2073 033e 904B     		ldr	r3, .L164
 2074 0340 0093     		str	r3, [sp]
 2075 0342 954B     		ldr	r3, .L164+24
 2076 0344 9049     		ldr	r1, .L164+8
 2077 0346 51F82220 		ldr	r2, [r1, r2, lsl #2]
 2078 034a 9049     		ldr	r1, .L164+12
 2079 034c 8968     		ldr	r1, [r1, #8]
 2080 034e 9048     		ldr	r0, .L164+16
 2081              	.LVL241:
 178:../switch_sdk/core/fal/tiger/fal_tiger_stat.c ****         result_data -= mib_data;
 2082              		.loc 1 178 9 is_stmt 0 discriminator 3 view .LVU507
 2083 0350 FFF7FEFF 		bl	osal_printf
 2084              	.LVL242:
 2085 0354 EEE7     		b	.L109
 2086              	.LVL243:
 2087              	.L108:
 178:../switch_sdk/core/fal/tiger/fal_tiger_stat.c ****         result_data -= mib_data;
 2088              		.loc 1 178 9 discriminator 3 view .LVU508
 2089              	.LBE22:
 178:../switch_sdk/core/fal/tiger/fal_tiger_stat.c ****         result_data -= mib_data;
 2090              		.loc 1 178 9 is_stmt 1 discriminator 2 view .LVU509
 179:../switch_sdk/core/fal/tiger/fal_tiger_stat.c ****         CMM_ERR_CHK(HAL_MEM_DIRECT_READ(unit, MIB_TBL_BASE_ADDR0 + 0x100 * port_mac_id + 0x4 * RX_P
 2091              		.loc 1 179 9 discriminator 2 view .LVU510
 179:../switch_sdk/core/fal/tiger/fal_tiger_stat.c ****         CMM_ERR_CHK(HAL_MEM_DIRECT_READ(unit, MIB_TBL_BASE_ADDR0 + 0x100 * port_mac_id + 0x4 * RX_P
 2092              		.loc 1 179 21 is_stmt 0 discriminator 2 view .LVU511
 2093 0356 039B     		ldr	r3, [sp, #12]
 2094 0358 B8EB0308 		subs	r8, r8, r3
 2095              	.LVL244:
 179:../switch_sdk/core/fal/tiger/fal_tiger_stat.c ****         CMM_ERR_CHK(HAL_MEM_DIRECT_READ(unit, MIB_TBL_BASE_ADDR0 + 0x100 * port_mac_id + 0x4 * RX_P
 2096              		.loc 1 179 21 discriminator 2 view .LVU512
 2097 035c 69F10009 		sbc	r9, r9, #0
 2098              	.LVL245:
 180:../switch_sdk/core/fal/tiger/fal_tiger_stat.c ****         result_data -= mib_data;
 2099              		.loc 1 180 9 is_stmt 1 discriminator 2 view .LVU513
 180:../switch_sdk/core/fal/tiger/fal_tiger_stat.c ****         result_data -= mib_data;
 2100              		.loc 1 180 9 discriminator 2 view .LVU514
 2101 0360 03AA     		add	r2, sp, #12
 2102 0362 391D     		adds	r1, r7, #4
 2103 0364 3046     		mov	r0, r6
 2104              	.LVL246:
 180:../switch_sdk/core/fal/tiger/fal_tiger_stat.c ****         result_data -= mib_data;
 2105              		.loc 1 180 9 is_stmt 0 discriminator 2 view .LVU515
 2106 0366 FFF7FEFF 		bl	hal_mem32_read
 2107              	.LVL247:
 2108 036a 0446     		mov	r4, r0
 2109              	.LVL248:
 180:../switch_sdk/core/fal/tiger/fal_tiger_stat.c ****         result_data -= mib_data;
 2110              		.loc 1 180 9 discriminator 2 view .LVU516
 2111 036c 10F0FF02 		ands	r2, r0, #255
 2112 0370 14D0     		beq	.L110
 180:../switch_sdk/core/fal/tiger/fal_tiger_stat.c ****         result_data -= mib_data;
 2113              		.loc 1 180 9 is_stmt 1 discriminator 1 view .LVU517
 180:../switch_sdk/core/fal/tiger/fal_tiger_stat.c ****         result_data -= mib_data;
 2114              		.loc 1 180 9 discriminator 1 view .LVU518
 2115 0372 884B     		ldr	r3, .L164+20
 2116 0374 1B78     		ldrb	r3, [r3]	@ zero_extendqisi2
 2117 0376 012B     		cmp	r3, #1
 2118 0378 01D8     		bhi	.L150
 2119              	.LVL249:
 2120              	.L111:
 180:../switch_sdk/core/fal/tiger/fal_tiger_stat.c ****         result_data -= mib_data;
 2121              		.loc 1 180 9 discriminator 5 view .LVU519
 180:../switch_sdk/core/fal/tiger/fal_tiger_stat.c ****         result_data -= mib_data;
 2122              		.loc 1 180 9 discriminator 5 view .LVU520
 180:../switch_sdk/core/fal/tiger/fal_tiger_stat.c ****         result_data -= mib_data;
 2123              		.loc 1 180 9 discriminator 5 view .LVU521
 2124 037a E0B2     		uxtb	r0, r4
 2125 037c 81E6     		b	.L88
 2126              	.LVL250:
 2127              	.L150:
 180:../switch_sdk/core/fal/tiger/fal_tiger_stat.c ****         result_data -= mib_data;
 2128              		.loc 1 180 9 discriminator 3 view .LVU522
 2129              	.LBB23:
 180:../switch_sdk/core/fal/tiger/fal_tiger_stat.c ****         result_data -= mib_data;
 2130              		.loc 1 180 9 discriminator 3 view .LVU523
 2131 037e 142A     		cmp	r2, #20
 2132 0380 28BF     		it	cs
 2133 0382 1422     		movcs	r2, #20
 2134 0384 7E4B     		ldr	r3, .L164
 2135 0386 0093     		str	r3, [sp]
 2136 0388 844B     		ldr	r3, .L164+28
 2137 038a 7F49     		ldr	r1, .L164+8
 2138 038c 51F82220 		ldr	r2, [r1, r2, lsl #2]
 2139 0390 7E49     		ldr	r1, .L164+12
 2140 0392 8968     		ldr	r1, [r1, #8]
 2141 0394 7E48     		ldr	r0, .L164+16
 2142              	.LVL251:
 180:../switch_sdk/core/fal/tiger/fal_tiger_stat.c ****         result_data -= mib_data;
 2143              		.loc 1 180 9 is_stmt 0 discriminator 3 view .LVU524
 2144 0396 FFF7FEFF 		bl	osal_printf
 2145              	.LVL252:
 2146 039a EEE7     		b	.L111
 2147              	.LVL253:
 2148              	.L110:
 180:../switch_sdk/core/fal/tiger/fal_tiger_stat.c ****         result_data -= mib_data;
 2149              		.loc 1 180 9 discriminator 3 view .LVU525
 2150              	.LBE23:
 180:../switch_sdk/core/fal/tiger/fal_tiger_stat.c ****         result_data -= mib_data;
 2151              		.loc 1 180 9 is_stmt 1 discriminator 2 view .LVU526
 181:../switch_sdk/core/fal/tiger/fal_tiger_stat.c ****         CMM_ERR_CHK(HAL_MEM_DIRECT_READ(unit, MIB_TBL_BASE_ADDR0 + 0x100 * port_mac_id + 0x4 * RX_O
 2152              		.loc 1 181 9 discriminator 2 view .LVU527
 181:../switch_sdk/core/fal/tiger/fal_tiger_stat.c ****         CMM_ERR_CHK(HAL_MEM_DIRECT_READ(unit, MIB_TBL_BASE_ADDR0 + 0x100 * port_mac_id + 0x4 * RX_O
 2153              		.loc 1 181 21 is_stmt 0 discriminator 2 view .LVU528
 2154 039c 039B     		ldr	r3, [sp, #12]
 2155 039e B8EB0308 		subs	r8, r8, r3
 2156              	.LVL254:
 181:../switch_sdk/core/fal/tiger/fal_tiger_stat.c ****         CMM_ERR_CHK(HAL_MEM_DIRECT_READ(unit, MIB_TBL_BASE_ADDR0 + 0x100 * port_mac_id + 0x4 * RX_O
 2157              		.loc 1 181 21 discriminator 2 view .LVU529
 2158 03a2 69F10009 		sbc	r9, r9, #0
 2159              	.LVL255:
 182:../switch_sdk/core/fal/tiger/fal_tiger_stat.c ****         result_data -= mib_data;
 2160              		.loc 1 182 9 is_stmt 1 discriminator 2 view .LVU530
 182:../switch_sdk/core/fal/tiger/fal_tiger_stat.c ****         result_data -= mib_data;
 2161              		.loc 1 182 9 discriminator 2 view .LVU531
 2162 03a6 03AA     		add	r2, sp, #12
 2163 03a8 07F1A801 		add	r1, r7, #168
 2164 03ac 3046     		mov	r0, r6
 2165              	.LVL256:
 182:../switch_sdk/core/fal/tiger/fal_tiger_stat.c ****         result_data -= mib_data;
 2166              		.loc 1 182 9 is_stmt 0 discriminator 2 view .LVU532
 2167 03ae FFF7FEFF 		bl	hal_mem32_read
 2168              	.LVL257:
 2169 03b2 0446     		mov	r4, r0
 2170              	.LVL258:
 182:../switch_sdk/core/fal/tiger/fal_tiger_stat.c ****         result_data -= mib_data;
 2171              		.loc 1 182 9 discriminator 2 view .LVU533
 2172 03b4 10F0FF02 		ands	r2, r0, #255
 2173 03b8 08D1     		bne	.L151
 182:../switch_sdk/core/fal/tiger/fal_tiger_stat.c ****         result_data -= mib_data;
 2174              		.loc 1 182 9 is_stmt 1 discriminator 2 view .LVU534
 183:../switch_sdk/core/fal/tiger/fal_tiger_stat.c ****         *pcnt = result_data;
 2175              		.loc 1 183 9 discriminator 2 view .LVU535
 183:../switch_sdk/core/fal/tiger/fal_tiger_stat.c ****         *pcnt = result_data;
 2176              		.loc 1 183 21 is_stmt 0 discriminator 2 view .LVU536
 2177 03ba 039B     		ldr	r3, [sp, #12]
 2178 03bc B8EB0303 		subs	r3, r8, r3
 2179 03c0 69F10002 		sbc	r2, r9, #0
 2180              	.LVL259:
 184:../switch_sdk/core/fal/tiger/fal_tiger_stat.c ****     } 
 2181              		.loc 1 184 9 is_stmt 1 discriminator 2 view .LVU537
 184:../switch_sdk/core/fal/tiger/fal_tiger_stat.c ****     } 
 2182              		.loc 1 184 15 is_stmt 0 discriminator 2 view .LVU538
 2183 03c4 2B60     		str	r3, [r5]
 2184 03c6 6A60     		str	r2, [r5, #4]
 211:../switch_sdk/core/fal/tiger/fal_tiger_stat.c **** }
 2185              		.loc 1 211 12 discriminator 2 view .LVU539
 2186 03c8 0020     		movs	r0, #0
 2187              	.LVL260:
 211:../switch_sdk/core/fal/tiger/fal_tiger_stat.c **** }
 2188              		.loc 1 211 12 discriminator 2 view .LVU540
 2189 03ca 5AE6     		b	.L88
 2190              	.LVL261:
 2191              	.L151:
 182:../switch_sdk/core/fal/tiger/fal_tiger_stat.c ****         result_data -= mib_data;
 2192              		.loc 1 182 9 is_stmt 1 discriminator 1 view .LVU541
 182:../switch_sdk/core/fal/tiger/fal_tiger_stat.c ****         result_data -= mib_data;
 2193              		.loc 1 182 9 discriminator 1 view .LVU542
 2194 03cc 714B     		ldr	r3, .L164+20
 2195 03ce 1B78     		ldrb	r3, [r3]	@ zero_extendqisi2
 2196 03d0 012B     		cmp	r3, #1
 2197 03d2 01D8     		bhi	.L152
 2198              	.LVL262:
 2199              	.L113:
 182:../switch_sdk/core/fal/tiger/fal_tiger_stat.c ****         result_data -= mib_data;
 2200              		.loc 1 182 9 discriminator 5 view .LVU543
 182:../switch_sdk/core/fal/tiger/fal_tiger_stat.c ****         result_data -= mib_data;
 2201              		.loc 1 182 9 discriminator 5 view .LVU544
 182:../switch_sdk/core/fal/tiger/fal_tiger_stat.c ****         result_data -= mib_data;
 2202              		.loc 1 182 9 discriminator 5 view .LVU545
 2203 03d4 E0B2     		uxtb	r0, r4
 2204 03d6 54E6     		b	.L88
 2205              	.LVL263:
 2206              	.L152:
 182:../switch_sdk/core/fal/tiger/fal_tiger_stat.c ****         result_data -= mib_data;
 2207              		.loc 1 182 9 discriminator 3 view .LVU546
 2208              	.LBB24:
 182:../switch_sdk/core/fal/tiger/fal_tiger_stat.c ****         result_data -= mib_data;
 2209              		.loc 1 182 9 discriminator 3 view .LVU547
 2210 03d8 142A     		cmp	r2, #20
 2211 03da 28BF     		it	cs
 2212 03dc 1422     		movcs	r2, #20
 2213 03de 684B     		ldr	r3, .L164
 2214 03e0 0093     		str	r3, [sp]
 2215 03e2 6F4B     		ldr	r3, .L164+32
 2216 03e4 6849     		ldr	r1, .L164+8
 2217 03e6 51F82220 		ldr	r2, [r1, r2, lsl #2]
 2218 03ea 6849     		ldr	r1, .L164+12
 2219 03ec 8968     		ldr	r1, [r1, #8]
 2220 03ee 6848     		ldr	r0, .L164+16
 2221              	.LVL264:
 182:../switch_sdk/core/fal/tiger/fal_tiger_stat.c ****         result_data -= mib_data;
 2222              		.loc 1 182 9 is_stmt 0 discriminator 3 view .LVU548
 2223 03f0 FFF7FEFF 		bl	osal_printf
 2224              	.LVL265:
 2225 03f4 EEE7     		b	.L113
 2226              	.LVL266:
 2227              	.L138:
 182:../switch_sdk/core/fal/tiger/fal_tiger_stat.c ****         result_data -= mib_data;
 2228              		.loc 1 182 9 discriminator 3 view .LVU549
 2229              	.LBE24:
 188:../switch_sdk/core/fal/tiger/fal_tiger_stat.c ****         result_data += mib_data;
 2230              		.loc 1 188 9 is_stmt 1 view .LVU550
 188:../switch_sdk/core/fal/tiger/fal_tiger_stat.c ****         result_data += mib_data;
 2231              		.loc 1 188 9 view .LVU551
 2232 03f6 03F60143 		addw	r3, r3, #3073
 2233              	.LVL267:
 188:../switch_sdk/core/fal/tiger/fal_tiger_stat.c ****         result_data += mib_data;
 2234              		.loc 1 188 9 is_stmt 0 view .LVU552
 2235 03fa 1F02     		lsls	r7, r3, #8
 2236              	.LVL268:
 188:../switch_sdk/core/fal/tiger/fal_tiger_stat.c ****         result_data += mib_data;
 2237              		.loc 1 188 9 view .LVU553
 2238 03fc 03AA     		add	r2, sp, #12
 2239 03fe 07F19C01 		add	r1, r7, #156
 2240 0402 3046     		mov	r0, r6
 2241              	.LVL269:
 188:../switch_sdk/core/fal/tiger/fal_tiger_stat.c ****         result_data += mib_data;
 2242              		.loc 1 188 9 view .LVU554
 2243 0404 FFF7FEFF 		bl	hal_mem32_read
 2244              	.LVL270:
 188:../switch_sdk/core/fal/tiger/fal_tiger_stat.c ****         result_data += mib_data;
 2245              		.loc 1 188 9 view .LVU555
 2246 0408 0446     		mov	r4, r0
 2247              	.LVL271:
 188:../switch_sdk/core/fal/tiger/fal_tiger_stat.c ****         result_data += mib_data;
 2248              		.loc 1 188 9 view .LVU556
 2249 040a 10F0FF03 		ands	r3, r0, #255
 2250 040e 15D0     		beq	.L115
 188:../switch_sdk/core/fal/tiger/fal_tiger_stat.c ****         result_data += mib_data;
 2251              		.loc 1 188 9 is_stmt 1 discriminator 1 view .LVU557
 188:../switch_sdk/core/fal/tiger/fal_tiger_stat.c ****         result_data += mib_data;
 2252              		.loc 1 188 9 discriminator 1 view .LVU558
 2253 0410 604A     		ldr	r2, .L164+20
 2254 0412 1278     		ldrb	r2, [r2]	@ zero_extendqisi2
 2255 0414 012A     		cmp	r2, #1
 2256 0416 01D8     		bhi	.L153
 2257              	.LVL272:
 2258              	.L116:
 188:../switch_sdk/core/fal/tiger/fal_tiger_stat.c ****         result_data += mib_data;
 2259              		.loc 1 188 9 discriminator 5 view .LVU559
 188:../switch_sdk/core/fal/tiger/fal_tiger_stat.c ****         result_data += mib_data;
 2260              		.loc 1 188 9 discriminator 5 view .LVU560
 188:../switch_sdk/core/fal/tiger/fal_tiger_stat.c ****         result_data += mib_data;
 2261              		.loc 1 188 9 discriminator 5 view .LVU561
 2262 0418 E0B2     		uxtb	r0, r4
 2263 041a 32E6     		b	.L88
 2264              	.LVL273:
 2265              	.L153:
 188:../switch_sdk/core/fal/tiger/fal_tiger_stat.c ****         result_data += mib_data;
 2266              		.loc 1 188 9 discriminator 3 view .LVU562
 2267              	.LBB25:
 188:../switch_sdk/core/fal/tiger/fal_tiger_stat.c ****         result_data += mib_data;
 2268              		.loc 1 188 9 discriminator 3 view .LVU563
 2269 041c 142B     		cmp	r3, #20
 2270 041e 28BF     		it	cs
 2271 0420 1423     		movcs	r3, #20
 2272 0422 1A46     		mov	r2, r3
 2273 0424 564B     		ldr	r3, .L164
 2274 0426 0093     		str	r3, [sp]
 2275 0428 5E4B     		ldr	r3, .L164+36
 2276 042a 5749     		ldr	r1, .L164+8
 2277 042c 51F82220 		ldr	r2, [r1, r2, lsl #2]
 2278 0430 5649     		ldr	r1, .L164+12
 2279 0432 8968     		ldr	r1, [r1, #8]
 2280 0434 5648     		ldr	r0, .L164+16
 2281              	.LVL274:
 188:../switch_sdk/core/fal/tiger/fal_tiger_stat.c ****         result_data += mib_data;
 2282              		.loc 1 188 9 is_stmt 0 discriminator 3 view .LVU564
 2283 0436 FFF7FEFF 		bl	osal_printf
 2284              	.LVL275:
 2285 043a EDE7     		b	.L116
 2286              	.LVL276:
 2287              	.L115:
 188:../switch_sdk/core/fal/tiger/fal_tiger_stat.c ****         result_data += mib_data;
 2288              		.loc 1 188 9 discriminator 3 view .LVU565
 2289              	.LBE25:
 188:../switch_sdk/core/fal/tiger/fal_tiger_stat.c ****         result_data += mib_data;
 2290              		.loc 1 188 9 is_stmt 1 discriminator 2 view .LVU566
 189:../switch_sdk/core/fal/tiger/fal_tiger_stat.c ****         CMM_ERR_CHK(HAL_MEM_DIRECT_READ(unit, MIB_TBL_BASE_ADDR0 + 0x100 * port_mac_id + 0x4 * TX_B
 2291              		.loc 1 189 9 discriminator 2 view .LVU567
 189:../switch_sdk/core/fal/tiger/fal_tiger_stat.c ****         CMM_ERR_CHK(HAL_MEM_DIRECT_READ(unit, MIB_TBL_BASE_ADDR0 + 0x100 * port_mac_id + 0x4 * TX_B
 2292              		.loc 1 189 21 is_stmt 0 discriminator 2 view .LVU568
 2293 043c DDF80C80 		ldr	r8, [sp, #12]
 2294              	.LVL277:
 190:../switch_sdk/core/fal/tiger/fal_tiger_stat.c ****         result_data -= mib_data;
 2295              		.loc 1 190 9 is_stmt 1 discriminator 2 view .LVU569
 190:../switch_sdk/core/fal/tiger/fal_tiger_stat.c ****         result_data -= mib_data;
 2296              		.loc 1 190 9 discriminator 2 view .LVU570
 2297 0440 03AA     		add	r2, sp, #12
 2298 0442 07F15401 		add	r1, r7, #84
 2299 0446 3046     		mov	r0, r6
 2300              	.LVL278:
 190:../switch_sdk/core/fal/tiger/fal_tiger_stat.c ****         result_data -= mib_data;
 2301              		.loc 1 190 9 is_stmt 0 discriminator 2 view .LVU571
 2302 0448 FFF7FEFF 		bl	hal_mem32_read
 2303              	.LVL279:
 2304 044c 0446     		mov	r4, r0
 2305              	.LVL280:
 190:../switch_sdk/core/fal/tiger/fal_tiger_stat.c ****         result_data -= mib_data;
 2306              		.loc 1 190 9 discriminator 2 view .LVU572
 2307 044e 10F0FF03 		ands	r3, r0, #255
 2308 0452 15D0     		beq	.L117
 190:../switch_sdk/core/fal/tiger/fal_tiger_stat.c ****         result_data -= mib_data;
 2309              		.loc 1 190 9 is_stmt 1 discriminator 1 view .LVU573
 190:../switch_sdk/core/fal/tiger/fal_tiger_stat.c ****         result_data -= mib_data;
 2310              		.loc 1 190 9 discriminator 1 view .LVU574
 2311 0454 4F4A     		ldr	r2, .L164+20
 2312 0456 1278     		ldrb	r2, [r2]	@ zero_extendqisi2
 2313 0458 012A     		cmp	r2, #1
 2314 045a 01D8     		bhi	.L154
 2315              	.LVL281:
 2316              	.L118:
 190:../switch_sdk/core/fal/tiger/fal_tiger_stat.c ****         result_data -= mib_data;
 2317              		.loc 1 190 9 discriminator 5 view .LVU575
 190:../switch_sdk/core/fal/tiger/fal_tiger_stat.c ****         result_data -= mib_data;
 2318              		.loc 1 190 9 discriminator 5 view .LVU576
 190:../switch_sdk/core/fal/tiger/fal_tiger_stat.c ****         result_data -= mib_data;
 2319              		.loc 1 190 9 discriminator 5 view .LVU577
 2320 045c E0B2     		uxtb	r0, r4
 2321 045e 10E6     		b	.L88
 2322              	.LVL282:
 2323              	.L154:
 190:../switch_sdk/core/fal/tiger/fal_tiger_stat.c ****         result_data -= mib_data;
 2324              		.loc 1 190 9 discriminator 3 view .LVU578
 2325              	.LBB26:
 190:../switch_sdk/core/fal/tiger/fal_tiger_stat.c ****         result_data -= mib_data;
 2326              		.loc 1 190 9 discriminator 3 view .LVU579
 2327 0460 142B     		cmp	r3, #20
 2328 0462 28BF     		it	cs
 2329 0464 1423     		movcs	r3, #20
 2330 0466 1A46     		mov	r2, r3
 2331 0468 454B     		ldr	r3, .L164
 2332 046a 0093     		str	r3, [sp]
 2333 046c 4E4B     		ldr	r3, .L164+40
 2334 046e 4649     		ldr	r1, .L164+8
 2335 0470 51F82220 		ldr	r2, [r1, r2, lsl #2]
 2336 0474 4549     		ldr	r1, .L164+12
 2337 0476 8968     		ldr	r1, [r1, #8]
 2338 0478 4548     		ldr	r0, .L164+16
 2339              	.LVL283:
 190:../switch_sdk/core/fal/tiger/fal_tiger_stat.c ****         result_data -= mib_data;
 2340              		.loc 1 190 9 is_stmt 0 discriminator 3 view .LVU580
 2341 047a FFF7FEFF 		bl	osal_printf
 2342              	.LVL284:
 2343 047e EDE7     		b	.L118
 2344              	.LVL285:
 2345              	.L117:
 190:../switch_sdk/core/fal/tiger/fal_tiger_stat.c ****         result_data -= mib_data;
 2346              		.loc 1 190 9 discriminator 3 view .LVU581
 2347              	.LBE26:
 190:../switch_sdk/core/fal/tiger/fal_tiger_stat.c ****         result_data -= mib_data;
 2348              		.loc 1 190 9 is_stmt 1 discriminator 2 view .LVU582
 191:../switch_sdk/core/fal/tiger/fal_tiger_stat.c ****         CMM_ERR_CHK(HAL_MEM_DIRECT_READ(unit, MIB_TBL_BASE_ADDR0 + 0x100 * port_mac_id + 0x4 * TX_M
 2349              		.loc 1 191 9 discriminator 2 view .LVU583
 191:../switch_sdk/core/fal/tiger/fal_tiger_stat.c ****         CMM_ERR_CHK(HAL_MEM_DIRECT_READ(unit, MIB_TBL_BASE_ADDR0 + 0x100 * port_mac_id + 0x4 * TX_M
 2350              		.loc 1 191 21 is_stmt 0 discriminator 2 view .LVU584
 2351 0480 039B     		ldr	r3, [sp, #12]
 2352 0482 B8EB0308 		subs	r8, r8, r3
 2353              	.LVL286:
 191:../switch_sdk/core/fal/tiger/fal_tiger_stat.c ****         CMM_ERR_CHK(HAL_MEM_DIRECT_READ(unit, MIB_TBL_BASE_ADDR0 + 0x100 * port_mac_id + 0x4 * TX_M
 2354              		.loc 1 191 21 discriminator 2 view .LVU585
 2355 0486 4FF00003 		mov	r3, #0
 2356 048a 63F10009 		sbc	r9, r3, #0
 2357              	.LVL287:
 192:../switch_sdk/core/fal/tiger/fal_tiger_stat.c ****         result_data -= mib_data;
 2358              		.loc 1 192 9 is_stmt 1 discriminator 2 view .LVU586
 192:../switch_sdk/core/fal/tiger/fal_tiger_stat.c ****         result_data -= mib_data;
 2359              		.loc 1 192 9 discriminator 2 view .LVU587
 2360 048e 03AA     		add	r2, sp, #12
 2361 0490 07F15C01 		add	r1, r7, #92
 2362 0494 3046     		mov	r0, r6
 2363              	.LVL288:
 192:../switch_sdk/core/fal/tiger/fal_tiger_stat.c ****         result_data -= mib_data;
 2364              		.loc 1 192 9 is_stmt 0 discriminator 2 view .LVU588
 2365 0496 FFF7FEFF 		bl	hal_mem32_read
 2366              	.LVL289:
 2367 049a 0446     		mov	r4, r0
 2368              	.LVL290:
 192:../switch_sdk/core/fal/tiger/fal_tiger_stat.c ****         result_data -= mib_data;
 2369              		.loc 1 192 9 discriminator 2 view .LVU589
 2370 049c 10F0FF03 		ands	r3, r0, #255
 2371 04a0 15D0     		beq	.L119
 192:../switch_sdk/core/fal/tiger/fal_tiger_stat.c ****         result_data -= mib_data;
 2372              		.loc 1 192 9 is_stmt 1 discriminator 1 view .LVU590
 192:../switch_sdk/core/fal/tiger/fal_tiger_stat.c ****         result_data -= mib_data;
 2373              		.loc 1 192 9 discriminator 1 view .LVU591
 2374 04a2 3C4A     		ldr	r2, .L164+20
 2375 04a4 1278     		ldrb	r2, [r2]	@ zero_extendqisi2
 2376 04a6 012A     		cmp	r2, #1
 2377 04a8 01D8     		bhi	.L155
 2378              	.LVL291:
 2379              	.L120:
 192:../switch_sdk/core/fal/tiger/fal_tiger_stat.c ****         result_data -= mib_data;
 2380              		.loc 1 192 9 discriminator 5 view .LVU592
 192:../switch_sdk/core/fal/tiger/fal_tiger_stat.c ****         result_data -= mib_data;
 2381              		.loc 1 192 9 discriminator 5 view .LVU593
 192:../switch_sdk/core/fal/tiger/fal_tiger_stat.c ****         result_data -= mib_data;
 2382              		.loc 1 192 9 discriminator 5 view .LVU594
 2383 04aa E0B2     		uxtb	r0, r4
 2384 04ac E9E5     		b	.L88
 2385              	.LVL292:
 2386              	.L155:
 192:../switch_sdk/core/fal/tiger/fal_tiger_stat.c ****         result_data -= mib_data;
 2387              		.loc 1 192 9 discriminator 3 view .LVU595
 2388              	.LBB27:
 192:../switch_sdk/core/fal/tiger/fal_tiger_stat.c ****         result_data -= mib_data;
 2389              		.loc 1 192 9 discriminator 3 view .LVU596
 2390 04ae 142B     		cmp	r3, #20
 2391 04b0 28BF     		it	cs
 2392 04b2 1423     		movcs	r3, #20
 2393 04b4 1A46     		mov	r2, r3
 2394 04b6 324B     		ldr	r3, .L164
 2395 04b8 0093     		str	r3, [sp]
 2396 04ba 3C4B     		ldr	r3, .L164+44
 2397 04bc 3249     		ldr	r1, .L164+8
 2398 04be 51F82220 		ldr	r2, [r1, r2, lsl #2]
 2399 04c2 3249     		ldr	r1, .L164+12
 2400 04c4 8968     		ldr	r1, [r1, #8]
 2401 04c6 3248     		ldr	r0, .L164+16
 2402              	.LVL293:
 192:../switch_sdk/core/fal/tiger/fal_tiger_stat.c ****         result_data -= mib_data;
 2403              		.loc 1 192 9 is_stmt 0 discriminator 3 view .LVU597
 2404 04c8 FFF7FEFF 		bl	osal_printf
 2405              	.LVL294:
 2406 04cc EDE7     		b	.L120
 2407              	.LVL295:
 2408              	.L119:
 192:../switch_sdk/core/fal/tiger/fal_tiger_stat.c ****         result_data -= mib_data;
 2409              		.loc 1 192 9 discriminator 3 view .LVU598
 2410              	.LBE27:
 192:../switch_sdk/core/fal/tiger/fal_tiger_stat.c ****         result_data -= mib_data;
 2411              		.loc 1 192 9 is_stmt 1 discriminator 2 view .LVU599
 193:../switch_sdk/core/fal/tiger/fal_tiger_stat.c ****         CMM_ERR_CHK(HAL_MEM_DIRECT_READ(unit, MIB_TBL_BASE_ADDR0 + 0x100 * port_mac_id + 0x4 * TX_P
 2412              		.loc 1 193 9 discriminator 2 view .LVU600
 193:../switch_sdk/core/fal/tiger/fal_tiger_stat.c ****         CMM_ERR_CHK(HAL_MEM_DIRECT_READ(unit, MIB_TBL_BASE_ADDR0 + 0x100 * port_mac_id + 0x4 * TX_P
 2413              		.loc 1 193 21 is_stmt 0 discriminator 2 view .LVU601
 2414 04ce 039B     		ldr	r3, [sp, #12]
 2415 04d0 B8EB0308 		subs	r8, r8, r3
 2416              	.LVL296:
 193:../switch_sdk/core/fal/tiger/fal_tiger_stat.c ****         CMM_ERR_CHK(HAL_MEM_DIRECT_READ(unit, MIB_TBL_BASE_ADDR0 + 0x100 * port_mac_id + 0x4 * TX_P
 2417              		.loc 1 193 21 discriminator 2 view .LVU602
 2418 04d4 69F10009 		sbc	r9, r9, #0
 2419              	.LVL297:
 194:../switch_sdk/core/fal/tiger/fal_tiger_stat.c ****         result_data -= mib_data;
 2420              		.loc 1 194 9 is_stmt 1 discriminator 2 view .LVU603
 194:../switch_sdk/core/fal/tiger/fal_tiger_stat.c ****         result_data -= mib_data;
 2421              		.loc 1 194 9 discriminator 2 view .LVU604
 2422 04d8 03AA     		add	r2, sp, #12
 2423 04da 07F15801 		add	r1, r7, #88
 2424 04de 3046     		mov	r0, r6
 2425              	.LVL298:
 194:../switch_sdk/core/fal/tiger/fal_tiger_stat.c ****         result_data -= mib_data;
 2426              		.loc 1 194 9 is_stmt 0 discriminator 2 view .LVU605
 2427 04e0 FFF7FEFF 		bl	hal_mem32_read
 2428              	.LVL299:
 2429 04e4 0446     		mov	r4, r0
 2430              	.LVL300:
 194:../switch_sdk/core/fal/tiger/fal_tiger_stat.c ****         result_data -= mib_data;
 2431              		.loc 1 194 9 discriminator 2 view .LVU606
 2432 04e6 10F0FF03 		ands	r3, r0, #255
 2433 04ea 15D0     		beq	.L121
 194:../switch_sdk/core/fal/tiger/fal_tiger_stat.c ****         result_data -= mib_data;
 2434              		.loc 1 194 9 is_stmt 1 discriminator 1 view .LVU607
 194:../switch_sdk/core/fal/tiger/fal_tiger_stat.c ****         result_data -= mib_data;
 2435              		.loc 1 194 9 discriminator 1 view .LVU608
 2436 04ec 294A     		ldr	r2, .L164+20
 2437 04ee 1278     		ldrb	r2, [r2]	@ zero_extendqisi2
 2438 04f0 012A     		cmp	r2, #1
 2439 04f2 01D8     		bhi	.L156
 2440              	.LVL301:
 2441              	.L122:
 194:../switch_sdk/core/fal/tiger/fal_tiger_stat.c ****         result_data -= mib_data;
 2442              		.loc 1 194 9 discriminator 5 view .LVU609
 194:../switch_sdk/core/fal/tiger/fal_tiger_stat.c ****         result_data -= mib_data;
 2443              		.loc 1 194 9 discriminator 5 view .LVU610
 194:../switch_sdk/core/fal/tiger/fal_tiger_stat.c ****         result_data -= mib_data;
 2444              		.loc 1 194 9 discriminator 5 view .LVU611
 2445 04f4 E0B2     		uxtb	r0, r4
 2446 04f6 C4E5     		b	.L88
 2447              	.LVL302:
 2448              	.L156:
 194:../switch_sdk/core/fal/tiger/fal_tiger_stat.c ****         result_data -= mib_data;
 2449              		.loc 1 194 9 discriminator 3 view .LVU612
 2450              	.LBB28:
 194:../switch_sdk/core/fal/tiger/fal_tiger_stat.c ****         result_data -= mib_data;
 2451              		.loc 1 194 9 discriminator 3 view .LVU613
 2452 04f8 142B     		cmp	r3, #20
 2453 04fa 28BF     		it	cs
 2454 04fc 1423     		movcs	r3, #20
 2455 04fe 1A46     		mov	r2, r3
 2456 0500 1F4B     		ldr	r3, .L164
 2457 0502 0093     		str	r3, [sp]
 2458 0504 2A4B     		ldr	r3, .L164+48
 2459 0506 2049     		ldr	r1, .L164+8
 2460 0508 51F82220 		ldr	r2, [r1, r2, lsl #2]
 2461 050c 1F49     		ldr	r1, .L164+12
 2462 050e 8968     		ldr	r1, [r1, #8]
 2463 0510 1F48     		ldr	r0, .L164+16
 2464              	.LVL303:
 194:../switch_sdk/core/fal/tiger/fal_tiger_stat.c ****         result_data -= mib_data;
 2465              		.loc 1 194 9 is_stmt 0 discriminator 3 view .LVU614
 2466 0512 FFF7FEFF 		bl	osal_printf
 2467              	.LVL304:
 2468 0516 EDE7     		b	.L122
 2469              	.LVL305:
 2470              	.L121:
 194:../switch_sdk/core/fal/tiger/fal_tiger_stat.c ****         result_data -= mib_data;
 2471              		.loc 1 194 9 discriminator 3 view .LVU615
 2472              	.LBE28:
 194:../switch_sdk/core/fal/tiger/fal_tiger_stat.c ****         result_data -= mib_data;
 2473              		.loc 1 194 9 is_stmt 1 discriminator 2 view .LVU616
 195:../switch_sdk/core/fal/tiger/fal_tiger_stat.c ****         CMM_ERR_CHK(HAL_MEM_DIRECT_READ(unit, MIB_TBL_BASE_ADDR0 + 0x100 * port_mac_id + 0x4 * TX_O
 2474              		.loc 1 195 9 discriminator 2 view .LVU617
 195:../switch_sdk/core/fal/tiger/fal_tiger_stat.c ****         CMM_ERR_CHK(HAL_MEM_DIRECT_READ(unit, MIB_TBL_BASE_ADDR0 + 0x100 * port_mac_id + 0x4 * TX_O
 2475              		.loc 1 195 21 is_stmt 0 discriminator 2 view .LVU618
 2476 0518 039B     		ldr	r3, [sp, #12]
 2477 051a B8EB0308 		subs	r8, r8, r3
 2478              	.LVL306:
 195:../switch_sdk/core/fal/tiger/fal_tiger_stat.c ****         CMM_ERR_CHK(HAL_MEM_DIRECT_READ(unit, MIB_TBL_BASE_ADDR0 + 0x100 * port_mac_id + 0x4 * TX_O
 2479              		.loc 1 195 21 discriminator 2 view .LVU619
 2480 051e 69F10009 		sbc	r9, r9, #0
 2481              	.LVL307:
 196:../switch_sdk/core/fal/tiger/fal_tiger_stat.c ****         result_data -= mib_data;
 2482              		.loc 1 196 9 is_stmt 1 discriminator 2 view .LVU620
 196:../switch_sdk/core/fal/tiger/fal_tiger_stat.c ****         result_data -= mib_data;
 2483              		.loc 1 196 9 discriminator 2 view .LVU621
 2484 0522 03AA     		add	r2, sp, #12
 2485 0524 07F1AC01 		add	r1, r7, #172
 2486 0528 3046     		mov	r0, r6
 2487              	.LVL308:
 196:../switch_sdk/core/fal/tiger/fal_tiger_stat.c ****         result_data -= mib_data;
 2488              		.loc 1 196 9 is_stmt 0 discriminator 2 view .LVU622
 2489 052a FFF7FEFF 		bl	hal_mem32_read
 2490              	.LVL309:
 2491 052e 0446     		mov	r4, r0
 2492              	.LVL310:
 196:../switch_sdk/core/fal/tiger/fal_tiger_stat.c ****         result_data -= mib_data;
 2493              		.loc 1 196 9 discriminator 2 view .LVU623
 2494 0530 10F0FF03 		ands	r3, r0, #255
 2495 0534 08D1     		bne	.L157
 196:../switch_sdk/core/fal/tiger/fal_tiger_stat.c ****         result_data -= mib_data;
 2496              		.loc 1 196 9 is_stmt 1 discriminator 2 view .LVU624
 197:../switch_sdk/core/fal/tiger/fal_tiger_stat.c ****         *pcnt = result_data;
 2497              		.loc 1 197 9 discriminator 2 view .LVU625
 197:../switch_sdk/core/fal/tiger/fal_tiger_stat.c ****         *pcnt = result_data;
 2498              		.loc 1 197 21 is_stmt 0 discriminator 2 view .LVU626
 2499 0536 039B     		ldr	r3, [sp, #12]
 2500 0538 B8EB0303 		subs	r3, r8, r3
 2501 053c 69F10002 		sbc	r2, r9, #0
 2502              	.LVL311:
 198:../switch_sdk/core/fal/tiger/fal_tiger_stat.c ****     } 
 2503              		.loc 1 198 9 is_stmt 1 discriminator 2 view .LVU627
 198:../switch_sdk/core/fal/tiger/fal_tiger_stat.c ****     } 
 2504              		.loc 1 198 15 is_stmt 0 discriminator 2 view .LVU628
 2505 0540 2B60     		str	r3, [r5]
 2506 0542 6A60     		str	r2, [r5, #4]
 211:../switch_sdk/core/fal/tiger/fal_tiger_stat.c **** }
 2507              		.loc 1 211 12 discriminator 2 view .LVU629
 2508 0544 0020     		movs	r0, #0
 2509              	.LVL312:
 211:../switch_sdk/core/fal/tiger/fal_tiger_stat.c **** }
 2510              		.loc 1 211 12 discriminator 2 view .LVU630
 2511 0546 9CE5     		b	.L88
 2512              	.LVL313:
 2513              	.L157:
 196:../switch_sdk/core/fal/tiger/fal_tiger_stat.c ****         result_data -= mib_data;
 2514              		.loc 1 196 9 is_stmt 1 discriminator 1 view .LVU631
 196:../switch_sdk/core/fal/tiger/fal_tiger_stat.c ****         result_data -= mib_data;
 2515              		.loc 1 196 9 discriminator 1 view .LVU632
 2516 0548 124A     		ldr	r2, .L164+20
 2517 054a 1278     		ldrb	r2, [r2]	@ zero_extendqisi2
 2518 054c 012A     		cmp	r2, #1
 2519 054e 01D8     		bhi	.L158
 2520              	.LVL314:
 2521              	.L124:
 196:../switch_sdk/core/fal/tiger/fal_tiger_stat.c ****         result_data -= mib_data;
 2522              		.loc 1 196 9 discriminator 5 view .LVU633
 196:../switch_sdk/core/fal/tiger/fal_tiger_stat.c ****         result_data -= mib_data;
 2523              		.loc 1 196 9 discriminator 5 view .LVU634
 196:../switch_sdk/core/fal/tiger/fal_tiger_stat.c ****         result_data -= mib_data;
 2524              		.loc 1 196 9 discriminator 5 view .LVU635
 2525 0550 E0B2     		uxtb	r0, r4
 2526 0552 96E5     		b	.L88
 2527              	.LVL315:
 2528              	.L158:
 196:../switch_sdk/core/fal/tiger/fal_tiger_stat.c ****         result_data -= mib_data;
 2529              		.loc 1 196 9 discriminator 3 view .LVU636
 2530              	.LBB29:
 196:../switch_sdk/core/fal/tiger/fal_tiger_stat.c ****         result_data -= mib_data;
 2531              		.loc 1 196 9 discriminator 3 view .LVU637
 2532 0554 142B     		cmp	r3, #20
 2533 0556 28BF     		it	cs
 2534 0558 1423     		movcs	r3, #20
 2535 055a 1A46     		mov	r2, r3
 2536 055c 084B     		ldr	r3, .L164
 2537 055e 0093     		str	r3, [sp]
 2538 0560 144B     		ldr	r3, .L164+52
 2539 0562 0949     		ldr	r1, .L164+8
 2540 0564 51F82220 		ldr	r2, [r1, r2, lsl #2]
 2541 0568 0849     		ldr	r1, .L164+12
 2542 056a 8968     		ldr	r1, [r1, #8]
 2543 056c 0848     		ldr	r0, .L164+16
 2544              	.LVL316:
 196:../switch_sdk/core/fal/tiger/fal_tiger_stat.c ****         result_data -= mib_data;
 2545              		.loc 1 196 9 is_stmt 0 discriminator 3 view .LVU638
 2546 056e FFF7FEFF 		bl	osal_printf
 2547              	.LVL317:
 2548 0572 EDE7     		b	.L124
 2549              	.LVL318:
 2550              	.L139:
 196:../switch_sdk/core/fal/tiger/fal_tiger_stat.c ****         result_data -= mib_data;
 2551              		.loc 1 196 9 discriminator 3 view .LVU639
 2552              	.LBE29:
 202:../switch_sdk/core/fal/tiger/fal_tiger_stat.c ****         if(index == RX_OKBYTE || index == RX_NOT_OKBYTE || index == TX_OKBYTE)
 2553              		.loc 1 202 9 is_stmt 1 discriminator 1 view .LVU640
 202:../switch_sdk/core/fal/tiger/fal_tiger_stat.c ****         if(index == RX_OKBYTE || index == RX_NOT_OKBYTE || index == TX_OKBYTE)
 2554              		.loc 1 202 9 discriminator 1 view .LVU641
 2555 0574 074A     		ldr	r2, .L164+20
 2556 0576 1278     		ldrb	r2, [r2]	@ zero_extendqisi2
 2557 0578 012A     		cmp	r2, #1
 2558 057a 1DD8     		bhi	.L159
 2559              	.LVL319:
 2560              	.L126:
 202:../switch_sdk/core/fal/tiger/fal_tiger_stat.c ****         if(index == RX_OKBYTE || index == RX_NOT_OKBYTE || index == TX_OKBYTE)
 2561              		.loc 1 202 9 discriminator 5 view .LVU642
 202:../switch_sdk/core/fal/tiger/fal_tiger_stat.c ****         if(index == RX_OKBYTE || index == RX_NOT_OKBYTE || index == TX_OKBYTE)
 2562              		.loc 1 202 9 discriminator 5 view .LVU643
 202:../switch_sdk/core/fal/tiger/fal_tiger_stat.c ****         if(index == RX_OKBYTE || index == RX_NOT_OKBYTE || index == TX_OKBYTE)
 2563              		.loc 1 202 9 discriminator 5 view .LVU644
 2564 057c E0B2     		uxtb	r0, r4
 2565 057e 80E5     		b	.L88
 2566              	.L165:
 2567              		.align	2
 2568              	.L164:
 2569 0580 00000000 		.word	__FUNCTION__.6
 2570 0584 58020000 		.word	.LC14
 2571 0588 00000000 		.word	_yt_errmsg
 2572 058c 00000000 		.word	_yt_prompt_msg
 2573 0590 3C000000 		.word	.LC1
 2574 0594 00000000 		.word	yt_debug_level
 2575 0598 B0020000 		.word	.LC15
 2576 059c 08030000 		.word	.LC16
 2577 05a0 5C030000 		.word	.LC17
 2578 05a4 B4030000 		.word	.LC18
 2579 05a8 08040000 		.word	.LC19
 2580 05ac 60040000 		.word	.LC20
 2581 05b0 B8040000 		.word	.LC21
 2582 05b4 0C050000 		.word	.LC22
 2583              	.LVL320:
 2584              	.L159:
 202:../switch_sdk/core/fal/tiger/fal_tiger_stat.c ****         if(index == RX_OKBYTE || index == RX_NOT_OKBYTE || index == TX_OKBYTE)
 2585              		.loc 1 202 9 discriminator 3 view .LVU645
 2586              	.LBB30:
 202:../switch_sdk/core/fal/tiger/fal_tiger_stat.c ****         if(index == RX_OKBYTE || index == RX_NOT_OKBYTE || index == TX_OKBYTE)
 2587              		.loc 1 202 9 discriminator 3 view .LVU646
 2588 05b8 142B     		cmp	r3, #20
 2589 05ba 28BF     		it	cs
 2590 05bc 1423     		movcs	r3, #20
 2591 05be 1A46     		mov	r2, r3
 2592 05c0 1A4B     		ldr	r3, .L166
 2593 05c2 0093     		str	r3, [sp]
 2594 05c4 1A4B     		ldr	r3, .L166+4
 2595 05c6 1B49     		ldr	r1, .L166+8
 2596 05c8 51F82220 		ldr	r2, [r1, r2, lsl #2]
 2597 05cc 1A49     		ldr	r1, .L166+12
 2598 05ce 8968     		ldr	r1, [r1, #8]
 2599 05d0 1A48     		ldr	r0, .L166+16
 2600              	.LVL321:
 202:../switch_sdk/core/fal/tiger/fal_tiger_stat.c ****         if(index == RX_OKBYTE || index == RX_NOT_OKBYTE || index == TX_OKBYTE)
 2601              		.loc 1 202 9 is_stmt 0 discriminator 3 view .LVU647
 2602 05d2 FFF7FEFF 		bl	osal_printf
 2603              	.LVL322:
 2604 05d6 D1E7     		b	.L126
 2605              	.LVL323:
 2606              	.L140:
 202:../switch_sdk/core/fal/tiger/fal_tiger_stat.c ****         if(index == RX_OKBYTE || index == RX_NOT_OKBYTE || index == TX_OKBYTE)
 2607              		.loc 1 202 9 discriminator 3 view .LVU648
 2608              	.LBE30:
 205:../switch_sdk/core/fal/tiger/fal_tiger_stat.c ****             result_data |= tmp_data;
 2609              		.loc 1 205 13 is_stmt 1 view .LVU649
 205:../switch_sdk/core/fal/tiger/fal_tiger_stat.c ****             result_data |= tmp_data;
 2610              		.loc 1 205 13 view .LVU650
 2611 05d8 08F10101 		add	r1, r8, #1
 2612 05dc 02AA     		add	r2, sp, #8
 2613 05de 8900     		lsls	r1, r1, #2
 2614 05e0 3046     		mov	r0, r6
 2615              	.LVL324:
 205:../switch_sdk/core/fal/tiger/fal_tiger_stat.c ****             result_data |= tmp_data;
 2616              		.loc 1 205 13 is_stmt 0 view .LVU651
 2617 05e2 FFF7FEFF 		bl	hal_mem32_read
 2618              	.LVL325:
 2619 05e6 0446     		mov	r4, r0
 2620              	.LVL326:
 205:../switch_sdk/core/fal/tiger/fal_tiger_stat.c ****             result_data |= tmp_data;
 2621              		.loc 1 205 13 view .LVU652
 2622 05e8 10F0FF03 		ands	r3, r0, #255
 2623 05ec 01D1     		bne	.L160
 205:../switch_sdk/core/fal/tiger/fal_tiger_stat.c ****             result_data |= tmp_data;
 2624              		.loc 1 205 13 is_stmt 1 discriminator 2 view .LVU653
 206:../switch_sdk/core/fal/tiger/fal_tiger_stat.c ****         }
 2625              		.loc 1 206 13 discriminator 2 view .LVU654
 206:../switch_sdk/core/fal/tiger/fal_tiger_stat.c ****         }
 2626              		.loc 1 206 25 is_stmt 0 discriminator 2 view .LVU655
 2627 05ee 029B     		ldr	r3, [sp, #8]
 2628              	.LVL327:
 206:../switch_sdk/core/fal/tiger/fal_tiger_stat.c ****         }
 2629              		.loc 1 206 25 discriminator 2 view .LVU656
 2630 05f0 43E5     		b	.L127
 2631              	.LVL328:
 2632              	.L160:
 205:../switch_sdk/core/fal/tiger/fal_tiger_stat.c ****             result_data |= tmp_data;
 2633              		.loc 1 205 13 is_stmt 1 discriminator 1 view .LVU657
 205:../switch_sdk/core/fal/tiger/fal_tiger_stat.c ****             result_data |= tmp_data;
 2634              		.loc 1 205 13 discriminator 1 view .LVU658
 2635 05f2 134A     		ldr	r2, .L166+20
 2636 05f4 1278     		ldrb	r2, [r2]	@ zero_extendqisi2
 2637 05f6 012A     		cmp	r2, #1
 2638 05f8 01D8     		bhi	.L161
 2639              	.LVL329:
 2640              	.L129:
 205:../switch_sdk/core/fal/tiger/fal_tiger_stat.c ****             result_data |= tmp_data;
 2641              		.loc 1 205 13 discriminator 5 view .LVU659
 205:../switch_sdk/core/fal/tiger/fal_tiger_stat.c ****             result_data |= tmp_data;
 2642              		.loc 1 205 13 discriminator 5 view .LVU660
 205:../switch_sdk/core/fal/tiger/fal_tiger_stat.c ****             result_data |= tmp_data;
 2643              		.loc 1 205 13 discriminator 5 view .LVU661
 2644 05fa E0B2     		uxtb	r0, r4
 2645 05fc 41E5     		b	.L88
 2646              	.LVL330:
 2647              	.L161:
 205:../switch_sdk/core/fal/tiger/fal_tiger_stat.c ****             result_data |= tmp_data;
 2648              		.loc 1 205 13 discriminator 3 view .LVU662
 2649              	.LBB31:
 205:../switch_sdk/core/fal/tiger/fal_tiger_stat.c ****             result_data |= tmp_data;
 2650              		.loc 1 205 13 discriminator 3 view .LVU663
 2651 05fe 142B     		cmp	r3, #20
 2652 0600 28BF     		it	cs
 2653 0602 1423     		movcs	r3, #20
 2654 0604 1A46     		mov	r2, r3
 2655 0606 094B     		ldr	r3, .L166
 2656 0608 0093     		str	r3, [sp]
 2657 060a 0E4B     		ldr	r3, .L166+24
 2658 060c 0949     		ldr	r1, .L166+8
 2659 060e 51F82220 		ldr	r2, [r1, r2, lsl #2]
 2660 0612 0949     		ldr	r1, .L166+12
 2661 0614 8968     		ldr	r1, [r1, #8]
 2662 0616 0948     		ldr	r0, .L166+16
 2663              	.LVL331:
 205:../switch_sdk/core/fal/tiger/fal_tiger_stat.c ****             result_data |= tmp_data;
 2664              		.loc 1 205 13 is_stmt 0 discriminator 3 view .LVU664
 2665 0618 FFF7FEFF 		bl	osal_printf
 2666              	.LVL332:
 2667 061c EDE7     		b	.L129
 2668              	.LVL333:
 2669              	.L134:
 205:../switch_sdk/core/fal/tiger/fal_tiger_stat.c ****             result_data |= tmp_data;
 2670              		.loc 1 205 13 discriminator 3 view .LVU665
 2671              	.LBE31:
 202:../switch_sdk/core/fal/tiger/fal_tiger_stat.c ****         if(index == RX_OKBYTE || index == RX_NOT_OKBYTE || index == TX_OKBYTE)
 2672              		.loc 1 202 9 view .LVU666
 2673 061e 0023     		movs	r3, #0
 2674 0620 2BE5     		b	.L127
 2675              	.LVL334:
 2676              	.L130:
 153:../switch_sdk/core/fal/tiger/fal_tiger_stat.c **** 
 2677              		.loc 1 153 16 view .LVU667
 2678 0622 0220     		movs	r0, #2
 2679              	.LVL335:
 153:../switch_sdk/core/fal/tiger/fal_tiger_stat.c **** 
 2680              		.loc 1 153 16 view .LVU668
 2681 0624 2DE5     		b	.L88
 2682              	.LVL336:
 2683              	.L131:
 156:../switch_sdk/core/fal/tiger/fal_tiger_stat.c **** 
 2684              		.loc 1 156 16 view .LVU669
 2685 0626 0320     		movs	r0, #3
 2686              	.LVL337:
 156:../switch_sdk/core/fal/tiger/fal_tiger_stat.c **** 
 2687              		.loc 1 156 16 view .LVU670
 2688 0628 2BE5     		b	.L88
 2689              	.L167:
 2690 062a 00BF     		.align	2
 2691              	.L166:
 2692 062c 00000000 		.word	__FUNCTION__.6
 2693 0630 64050000 		.word	.LC23
 2694 0634 00000000 		.word	_yt_errmsg
 2695 0638 00000000 		.word	_yt_prompt_msg
 2696 063c 3C000000 		.word	.LC1
 2697 0640 00000000 		.word	yt_debug_level
 2698 0644 B4050000 		.word	.LC24
 2699              		.cfi_endproc
 2700              	.LFE9:
 2702              		.section	.rodata.fal_tiger_stat_flow_enable_set.str1.4,"aMS",%progbits,1
 2703              		.align	2
 2704              	.LC25:
 2705 0000 25732573 		.ascii	"%s%s\015\012\000"
 2705      0D0A00
 2706 0007 00       		.align	2
 2707              	.LC26:
 2708 0008 68616C5F 		.ascii	"hal_table_reg_read(unit,209,flow_id,sizeof(flow_sta"
 2708      7461626C 
 2708      655F7265 
 2708      675F7265 
 2708      61642875 
 2709 003b 74735F63 		.ascii	"ts_cfg_tbl_t),&entry)\000"
 2709      66675F74 
 2709      626C5F74 
 2709      292C2665 
 2709      6E747279 
 2710 0051 000000   		.align	2
 2711              	.LC27:
 2712 0054 68616C5F 		.ascii	"hal_table_reg_write(unit,209,flow_id,sizeof(flow_st"
 2712      7461626C 
 2712      655F7265 
 2712      675F7772 
 2712      69746528 
 2713 0087 6174735F 		.ascii	"ats_cfg_tbl_t),&entry)\000"
 2713      6366675F 
 2713      74626C5F 
 2713      74292C26 
 2713      656E7472 
 2714              		.section	.text.fal_tiger_stat_flow_enable_set,"ax",%progbits
 2715              		.align	1
 2716              		.global	fal_tiger_stat_flow_enable_set
 2717              		.syntax unified
 2718              		.thumb
 2719              		.thumb_func
 2721              	fal_tiger_stat_flow_enable_set:
 2722              	.LVL338:
 2723              	.LFB10:
 213:../switch_sdk/core/fal/tiger/fal_tiger_stat.c **** 
 214:../switch_sdk/core/fal/tiger/fal_tiger_stat.c **** yt_ret_t fal_tiger_stat_flow_enable_set (yt_unit_t unit, uint32_t flow_id, yt_enable_t enable)
 215:../switch_sdk/core/fal/tiger/fal_tiger_stat.c **** {
 2724              		.loc 1 215 1 is_stmt 1 view -0
 2725              		.cfi_startproc
 2726              		@ args = 0, pretend = 0, frame = 8
 2727              		@ frame_needed = 0, uses_anonymous_args = 0
 2728              		.loc 1 215 1 is_stmt 0 view .LVU672
 2729 0000 F0B5     		push	{r4, r5, r6, r7, lr}
 2730              		.cfi_def_cfa_offset 20
 2731              		.cfi_offset 4, -20
 2732              		.cfi_offset 5, -16
 2733              		.cfi_offset 6, -12
 2734              		.cfi_offset 7, -8
 2735              		.cfi_offset 14, -4
 2736 0002 85B0     		sub	sp, sp, #20
 2737              		.cfi_def_cfa_offset 40
 216:../switch_sdk/core/fal/tiger/fal_tiger_stat.c ****     flow_stats_cfg_tbl_t entry;
 2738              		.loc 1 216 5 is_stmt 1 view .LVU673
 217:../switch_sdk/core/fal/tiger/fal_tiger_stat.c ****     cmm_err_t ret = CMM_ERR_OK;
 2739              		.loc 1 217 5 view .LVU674
 2740              	.LVL339:
 218:../switch_sdk/core/fal/tiger/fal_tiger_stat.c **** 
 219:../switch_sdk/core/fal/tiger/fal_tiger_stat.c ****     CMM_PARAM_CHK((CAL_FLOW_NUM_MAX <= flow_id), CMM_ERR_INPUT);
 2741              		.loc 1 219 5 view .LVU675
 2742              		.loc 1 219 5 view .LVU676
 2743 0004 3F29     		cmp	r1, #63
 2744 0006 13D8     		bhi	.L177
 2745 0008 0746     		mov	r7, r0
 2746 000a 0E46     		mov	r6, r1
 2747 000c 1546     		mov	r5, r2
 2748              		.loc 1 219 5 discriminator 2 view .LVU677
 220:../switch_sdk/core/fal/tiger/fal_tiger_stat.c ****     
 221:../switch_sdk/core/fal/tiger/fal_tiger_stat.c ****     CMM_ERR_CHK(HAL_TBL_REG_READ(unit, FLOW_STATS_CFG_TBLm, flow_id, sizeof(flow_stats_cfg_tbl_t), 
 2749              		.loc 1 221 5 discriminator 2 view .LVU678
 2750              		.loc 1 221 5 discriminator 2 view .LVU679
 2751 000e 03AB     		add	r3, sp, #12
 2752 0010 0093     		str	r3, [sp]
 2753 0012 0423     		movs	r3, #4
 2754 0014 0A46     		mov	r2, r1
 2755              	.LVL340:
 2756              		.loc 1 221 5 is_stmt 0 discriminator 2 view .LVU680
 2757 0016 D121     		movs	r1, #209
 2758              	.LVL341:
 2759              		.loc 1 221 5 discriminator 2 view .LVU681
 2760 0018 FFF7FEFF 		bl	hal_table_reg_read
 2761              	.LVL342:
 2762              		.loc 1 221 5 discriminator 2 view .LVU682
 2763 001c 0446     		mov	r4, r0
 2764              	.LVL343:
 2765              		.loc 1 221 5 discriminator 2 view .LVU683
 2766 001e 10F0FF03 		ands	r3, r0, #255
 2767 0022 24D0     		beq	.L172
 2768              		.loc 1 221 5 is_stmt 1 discriminator 1 view .LVU684
 2769              		.loc 1 221 5 discriminator 1 view .LVU685
 2770 0024 274A     		ldr	r2, .L182
 2771 0026 1278     		ldrb	r2, [r2]	@ zero_extendqisi2
 2772 0028 012A     		cmp	r2, #1
 2773 002a 10D8     		bhi	.L178
 2774              	.LVL344:
 2775              	.L173:
 2776              		.loc 1 221 5 discriminator 5 view .LVU686
 2777              		.loc 1 221 5 discriminator 5 view .LVU687
 2778              		.loc 1 221 5 discriminator 5 view .LVU688
 2779 002c E0B2     		uxtb	r0, r4
 2780 002e 04E0     		b	.L168
 2781              	.LVL345:
 2782              	.L177:
 219:../switch_sdk/core/fal/tiger/fal_tiger_stat.c ****     
 2783              		.loc 1 219 5 discriminator 1 view .LVU689
 219:../switch_sdk/core/fal/tiger/fal_tiger_stat.c ****     
 2784              		.loc 1 219 5 discriminator 1 view .LVU690
 2785 0030 244B     		ldr	r3, .L182
 2786 0032 1B78     		ldrb	r3, [r3]	@ zero_extendqisi2
 2787 0034 012B     		cmp	r3, #1
 2788 0036 02D8     		bhi	.L179
 2789              	.LVL346:
 2790              	.L170:
 219:../switch_sdk/core/fal/tiger/fal_tiger_stat.c ****     
 2791              		.loc 1 219 5 discriminator 5 view .LVU691
 219:../switch_sdk/core/fal/tiger/fal_tiger_stat.c ****     
 2792              		.loc 1 219 5 discriminator 5 view .LVU692
 219:../switch_sdk/core/fal/tiger/fal_tiger_stat.c ****     
 2793              		.loc 1 219 5 discriminator 5 view .LVU693
 2794 0038 0520     		movs	r0, #5
 2795              	.LVL347:
 2796              	.L168:
 222:../switch_sdk/core/fal/tiger/fal_tiger_stat.c ****     HAL_FIELD_SET(FLOW_STATS_CFG_TBLm, FLOW_STATS_CFG_TBL_ENf, &entry, enable);
 223:../switch_sdk/core/fal/tiger/fal_tiger_stat.c ****     CMM_ERR_CHK(HAL_TBL_REG_WRITE(unit, FLOW_STATS_CFG_TBLm, flow_id, sizeof(flow_stats_cfg_tbl_t),
 224:../switch_sdk/core/fal/tiger/fal_tiger_stat.c ****    
 225:../switch_sdk/core/fal/tiger/fal_tiger_stat.c ****     return CMM_ERR_OK;
 226:../switch_sdk/core/fal/tiger/fal_tiger_stat.c **** }
 2797              		.loc 1 226 1 is_stmt 0 view .LVU694
 2798 003a 05B0     		add	sp, sp, #20
 2799              		.cfi_remember_state
 2800              		.cfi_def_cfa_offset 20
 2801              		@ sp needed
 2802 003c F0BD     		pop	{r4, r5, r6, r7, pc}
 2803              	.LVL348:
 2804              	.L179:
 2805              		.cfi_restore_state
 219:../switch_sdk/core/fal/tiger/fal_tiger_stat.c ****     
 2806              		.loc 1 219 5 is_stmt 1 discriminator 3 view .LVU695
 2807              	.LBB32:
 219:../switch_sdk/core/fal/tiger/fal_tiger_stat.c ****     
 2808              		.loc 1 219 5 discriminator 3 view .LVU696
 2809 003e 224B     		ldr	r3, .L182+4
 2810 0040 5A69     		ldr	r2, [r3, #20]
 2811              	.LVL349:
 219:../switch_sdk/core/fal/tiger/fal_tiger_stat.c ****     
 2812              		.loc 1 219 5 is_stmt 0 discriminator 3 view .LVU697
 2813 0042 224B     		ldr	r3, .L182+8
 2814 0044 9968     		ldr	r1, [r3, #8]
 2815              	.LVL350:
 219:../switch_sdk/core/fal/tiger/fal_tiger_stat.c ****     
 2816              		.loc 1 219 5 discriminator 3 view .LVU698
 2817 0046 2248     		ldr	r0, .L182+12
 2818              	.LVL351:
 219:../switch_sdk/core/fal/tiger/fal_tiger_stat.c ****     
 2819              		.loc 1 219 5 discriminator 3 view .LVU699
 2820 0048 FFF7FEFF 		bl	osal_printf
 2821              	.LVL352:
 2822 004c F4E7     		b	.L170
 2823              	.LVL353:
 2824              	.L178:
 219:../switch_sdk/core/fal/tiger/fal_tiger_stat.c ****     
 2825              		.loc 1 219 5 discriminator 3 view .LVU700
 2826              	.LBE32:
 221:../switch_sdk/core/fal/tiger/fal_tiger_stat.c ****     HAL_FIELD_SET(FLOW_STATS_CFG_TBLm, FLOW_STATS_CFG_TBL_ENf, &entry, enable);
 2827              		.loc 1 221 5 is_stmt 1 discriminator 3 view .LVU701
 2828              	.LBB33:
 221:../switch_sdk/core/fal/tiger/fal_tiger_stat.c ****     HAL_FIELD_SET(FLOW_STATS_CFG_TBLm, FLOW_STATS_CFG_TBL_ENf, &entry, enable);
 2829              		.loc 1 221 5 discriminator 3 view .LVU702
 2830 004e 142B     		cmp	r3, #20
 2831 0050 28BF     		it	cs
 2832 0052 1423     		movcs	r3, #20
 2833 0054 1A46     		mov	r2, r3
 2834 0056 1F4B     		ldr	r3, .L182+16
 2835 0058 0093     		str	r3, [sp]
 2836 005a 1F4B     		ldr	r3, .L182+20
 2837 005c 1A49     		ldr	r1, .L182+4
 2838 005e 51F82220 		ldr	r2, [r1, r2, lsl #2]
 2839 0062 1A49     		ldr	r1, .L182+8
 2840 0064 8968     		ldr	r1, [r1, #8]
 2841 0066 1D48     		ldr	r0, .L182+24
 2842              	.LVL354:
 221:../switch_sdk/core/fal/tiger/fal_tiger_stat.c ****     HAL_FIELD_SET(FLOW_STATS_CFG_TBLm, FLOW_STATS_CFG_TBL_ENf, &entry, enable);
 2843              		.loc 1 221 5 is_stmt 0 discriminator 3 view .LVU703
 2844 0068 FFF7FEFF 		bl	osal_printf
 2845              	.LVL355:
 2846 006c DEE7     		b	.L173
 2847              	.LVL356:
 2848              	.L172:
 221:../switch_sdk/core/fal/tiger/fal_tiger_stat.c ****     HAL_FIELD_SET(FLOW_STATS_CFG_TBLm, FLOW_STATS_CFG_TBL_ENf, &entry, enable);
 2849              		.loc 1 221 5 discriminator 3 view .LVU704
 2850              	.LBE33:
 221:../switch_sdk/core/fal/tiger/fal_tiger_stat.c ****     HAL_FIELD_SET(FLOW_STATS_CFG_TBLm, FLOW_STATS_CFG_TBL_ENf, &entry, enable);
 2851              		.loc 1 221 5 is_stmt 1 discriminator 2 view .LVU705
 222:../switch_sdk/core/fal/tiger/fal_tiger_stat.c ****     HAL_FIELD_SET(FLOW_STATS_CFG_TBLm, FLOW_STATS_CFG_TBL_ENf, &entry, enable);
 2852              		.loc 1 222 5 discriminator 2 view .LVU706
 2853 006e 03AC     		add	r4, sp, #12
 2854 0070 2B46     		mov	r3, r5
 2855 0072 2246     		mov	r2, r4
 2856 0074 0021     		movs	r1, #0
 2857 0076 D120     		movs	r0, #209
 2858              	.LVL357:
 222:../switch_sdk/core/fal/tiger/fal_tiger_stat.c ****     HAL_FIELD_SET(FLOW_STATS_CFG_TBLm, FLOW_STATS_CFG_TBL_ENf, &entry, enable);
 2859              		.loc 1 222 5 is_stmt 0 discriminator 2 view .LVU707
 2860 0078 FFF7FEFF 		bl	hal_tbl_reg_field_set
 2861              	.LVL358:
 223:../switch_sdk/core/fal/tiger/fal_tiger_stat.c ****    
 2862              		.loc 1 223 5 is_stmt 1 discriminator 2 view .LVU708
 223:../switch_sdk/core/fal/tiger/fal_tiger_stat.c ****    
 2863              		.loc 1 223 5 discriminator 2 view .LVU709
 2864 007c 0094     		str	r4, [sp]
 2865 007e 0423     		movs	r3, #4
 2866 0080 3246     		mov	r2, r6
 2867 0082 D121     		movs	r1, #209
 2868 0084 3846     		mov	r0, r7
 2869 0086 FFF7FEFF 		bl	hal_table_reg_write
 2870              	.LVL359:
 2871 008a 0446     		mov	r4, r0
 2872              	.LVL360:
 223:../switch_sdk/core/fal/tiger/fal_tiger_stat.c ****    
 2873              		.loc 1 223 5 is_stmt 0 discriminator 2 view .LVU710
 2874 008c 10F0FF03 		ands	r3, r0, #255
 2875 0090 01D1     		bne	.L180
 225:../switch_sdk/core/fal/tiger/fal_tiger_stat.c **** }
 2876              		.loc 1 225 12 view .LVU711
 2877 0092 0020     		movs	r0, #0
 2878              	.LVL361:
 225:../switch_sdk/core/fal/tiger/fal_tiger_stat.c **** }
 2879              		.loc 1 225 12 view .LVU712
 2880 0094 D1E7     		b	.L168
 2881              	.LVL362:
 2882              	.L180:
 223:../switch_sdk/core/fal/tiger/fal_tiger_stat.c ****    
 2883              		.loc 1 223 5 is_stmt 1 discriminator 1 view .LVU713
 223:../switch_sdk/core/fal/tiger/fal_tiger_stat.c ****    
 2884              		.loc 1 223 5 discriminator 1 view .LVU714
 2885 0096 0B4A     		ldr	r2, .L182
 2886 0098 1278     		ldrb	r2, [r2]	@ zero_extendqisi2
 2887 009a 012A     		cmp	r2, #1
 2888 009c 01D8     		bhi	.L181
 2889              	.LVL363:
 2890              	.L174:
 223:../switch_sdk/core/fal/tiger/fal_tiger_stat.c ****    
 2891              		.loc 1 223 5 discriminator 5 view .LVU715
 223:../switch_sdk/core/fal/tiger/fal_tiger_stat.c ****    
 2892              		.loc 1 223 5 discriminator 5 view .LVU716
 223:../switch_sdk/core/fal/tiger/fal_tiger_stat.c ****    
 2893              		.loc 1 223 5 discriminator 5 view .LVU717
 2894 009e E0B2     		uxtb	r0, r4
 2895 00a0 CBE7     		b	.L168
 2896              	.LVL364:
 2897              	.L181:
 223:../switch_sdk/core/fal/tiger/fal_tiger_stat.c ****    
 2898              		.loc 1 223 5 discriminator 3 view .LVU718
 2899              	.LBB34:
 223:../switch_sdk/core/fal/tiger/fal_tiger_stat.c ****    
 2900              		.loc 1 223 5 discriminator 3 view .LVU719
 2901 00a2 142B     		cmp	r3, #20
 2902 00a4 28BF     		it	cs
 2903 00a6 1423     		movcs	r3, #20
 2904 00a8 1A46     		mov	r2, r3
 2905 00aa 0A4B     		ldr	r3, .L182+16
 2906 00ac 0093     		str	r3, [sp]
 2907 00ae 0C4B     		ldr	r3, .L182+28
 2908 00b0 0549     		ldr	r1, .L182+4
 2909 00b2 51F82220 		ldr	r2, [r1, r2, lsl #2]
 2910 00b6 0549     		ldr	r1, .L182+8
 2911 00b8 8968     		ldr	r1, [r1, #8]
 2912 00ba 0848     		ldr	r0, .L182+24
 2913              	.LVL365:
 223:../switch_sdk/core/fal/tiger/fal_tiger_stat.c ****    
 2914              		.loc 1 223 5 is_stmt 0 discriminator 3 view .LVU720
 2915 00bc FFF7FEFF 		bl	osal_printf
 2916              	.LVL366:
 2917 00c0 EDE7     		b	.L174
 2918              	.L183:
 2919 00c2 00BF     		.align	2
 2920              	.L182:
 2921 00c4 00000000 		.word	yt_debug_level
 2922 00c8 00000000 		.word	_yt_errmsg
 2923 00cc 00000000 		.word	_yt_prompt_msg
 2924 00d0 00000000 		.word	.LC25
 2925 00d4 00000000 		.word	__FUNCTION__.5
 2926 00d8 08000000 		.word	.LC26
 2927 00dc 3C000000 		.word	.LC1
 2928 00e0 54000000 		.word	.LC27
 2929              	.LBE34:
 2930              		.cfi_endproc
 2931              	.LFE10:
 2933              		.section	.text.fal_tiger_stat_flow_enable_get,"ax",%progbits
 2934              		.align	1
 2935              		.global	fal_tiger_stat_flow_enable_get
 2936              		.syntax unified
 2937              		.thumb
 2938              		.thumb_func
 2940              	fal_tiger_stat_flow_enable_get:
 2941              	.LVL367:
 2942              	.LFB11:
 227:../switch_sdk/core/fal/tiger/fal_tiger_stat.c **** 
 228:../switch_sdk/core/fal/tiger/fal_tiger_stat.c **** yt_ret_t fal_tiger_stat_flow_enable_get (yt_unit_t unit, uint32_t flow_id, yt_enable_t *pEnable)
 229:../switch_sdk/core/fal/tiger/fal_tiger_stat.c **** {
 2943              		.loc 1 229 1 is_stmt 1 view -0
 2944              		.cfi_startproc
 2945              		@ args = 0, pretend = 0, frame = 8
 2946              		@ frame_needed = 0, uses_anonymous_args = 0
 2947              		.loc 1 229 1 is_stmt 0 view .LVU722
 2948 0000 30B5     		push	{r4, r5, lr}
 2949              		.cfi_def_cfa_offset 12
 2950              		.cfi_offset 4, -12
 2951              		.cfi_offset 5, -8
 2952              		.cfi_offset 14, -4
 2953 0002 85B0     		sub	sp, sp, #20
 2954              		.cfi_def_cfa_offset 32
 230:../switch_sdk/core/fal/tiger/fal_tiger_stat.c ****     flow_stats_cfg_tbl_t entry;
 2955              		.loc 1 230 5 is_stmt 1 view .LVU723
 231:../switch_sdk/core/fal/tiger/fal_tiger_stat.c ****     cmm_err_t ret = CMM_ERR_OK;
 2956              		.loc 1 231 5 view .LVU724
 2957              	.LVL368:
 232:../switch_sdk/core/fal/tiger/fal_tiger_stat.c ****     uint32_t enable;
 2958              		.loc 1 232 5 view .LVU725
 233:../switch_sdk/core/fal/tiger/fal_tiger_stat.c **** 
 234:../switch_sdk/core/fal/tiger/fal_tiger_stat.c ****     CMM_PARAM_CHK((CAL_FLOW_NUM_MAX <= flow_id), CMM_ERR_INPUT);
 2959              		.loc 1 234 5 view .LVU726
 2960              		.loc 1 234 5 view .LVU727
 2961 0004 3F29     		cmp	r1, #63
 2962 0006 14D8     		bhi	.L192
 2963 0008 1546     		mov	r5, r2
 2964              		.loc 1 234 5 discriminator 2 view .LVU728
 235:../switch_sdk/core/fal/tiger/fal_tiger_stat.c ****     
 236:../switch_sdk/core/fal/tiger/fal_tiger_stat.c ****     if(NULL == pEnable)
 2965              		.loc 1 236 5 discriminator 2 view .LVU729
 2966              		.loc 1 236 7 is_stmt 0 discriminator 2 view .LVU730
 2967 000a 002A     		cmp	r2, #0
 2968 000c 3CD0     		beq	.L190
 237:../switch_sdk/core/fal/tiger/fal_tiger_stat.c ****         return CMM_ERR_NULL_POINT;
 238:../switch_sdk/core/fal/tiger/fal_tiger_stat.c **** 
 239:../switch_sdk/core/fal/tiger/fal_tiger_stat.c ****     CMM_ERR_CHK(HAL_TBL_REG_READ(unit, FLOW_STATS_CFG_TBLm, flow_id, sizeof(flow_stats_cfg_tbl_t), 
 2969              		.loc 1 239 5 is_stmt 1 view .LVU731
 2970              		.loc 1 239 5 view .LVU732
 2971 000e 03AB     		add	r3, sp, #12
 2972 0010 0093     		str	r3, [sp]
 2973 0012 0423     		movs	r3, #4
 2974 0014 0A46     		mov	r2, r1
 2975              	.LVL369:
 2976              		.loc 1 239 5 is_stmt 0 view .LVU733
 2977 0016 D121     		movs	r1, #209
 2978              	.LVL370:
 2979              		.loc 1 239 5 view .LVU734
 2980 0018 FFF7FEFF 		bl	hal_table_reg_read
 2981              	.LVL371:
 2982              		.loc 1 239 5 view .LVU735
 2983 001c 0446     		mov	r4, r0
 2984              	.LVL372:
 2985              		.loc 1 239 5 view .LVU736
 2986 001e 10F0FF03 		ands	r3, r0, #255
 2987 0022 24D0     		beq	.L188
 2988              		.loc 1 239 5 is_stmt 1 discriminator 1 view .LVU737
 2989              		.loc 1 239 5 discriminator 1 view .LVU738
 2990 0024 194A     		ldr	r2, .L195
 2991 0026 1278     		ldrb	r2, [r2]	@ zero_extendqisi2
 2992 0028 012A     		cmp	r2, #1
 2993 002a 10D8     		bhi	.L193
 2994              	.LVL373:
 2995              	.L189:
 2996              		.loc 1 239 5 discriminator 5 view .LVU739
 2997              		.loc 1 239 5 discriminator 5 view .LVU740
 2998              		.loc 1 239 5 discriminator 5 view .LVU741
 2999 002c E0B2     		uxtb	r0, r4
 3000              	.LVL374:
 3001              	.L184:
 240:../switch_sdk/core/fal/tiger/fal_tiger_stat.c ****     HAL_FIELD_GET(FLOW_STATS_CFG_TBLm, FLOW_STATS_CFG_TBL_ENf, &entry, &enable);
 241:../switch_sdk/core/fal/tiger/fal_tiger_stat.c ****     *pEnable = enable ? YT_ENABLE : YT_DISABLE;
 242:../switch_sdk/core/fal/tiger/fal_tiger_stat.c ****    
 243:../switch_sdk/core/fal/tiger/fal_tiger_stat.c ****     return CMM_ERR_OK;
 244:../switch_sdk/core/fal/tiger/fal_tiger_stat.c **** }
 3002              		.loc 1 244 1 is_stmt 0 view .LVU742
 3003 002e 05B0     		add	sp, sp, #20
 3004              		.cfi_remember_state
 3005              		.cfi_def_cfa_offset 12
 3006              		@ sp needed
 3007 0030 30BD     		pop	{r4, r5, pc}
 3008              	.LVL375:
 3009              	.L192:
 3010              		.cfi_restore_state
 234:../switch_sdk/core/fal/tiger/fal_tiger_stat.c ****     
 3011              		.loc 1 234 5 is_stmt 1 discriminator 1 view .LVU743
 234:../switch_sdk/core/fal/tiger/fal_tiger_stat.c ****     
 3012              		.loc 1 234 5 discriminator 1 view .LVU744
 3013 0032 164B     		ldr	r3, .L195
 3014 0034 1B78     		ldrb	r3, [r3]	@ zero_extendqisi2
 3015 0036 012B     		cmp	r3, #1
 3016 0038 01D8     		bhi	.L194
 3017              	.LVL376:
 3018              	.L186:
 234:../switch_sdk/core/fal/tiger/fal_tiger_stat.c ****     
 3019              		.loc 1 234 5 discriminator 5 view .LVU745
 234:../switch_sdk/core/fal/tiger/fal_tiger_stat.c ****     
 3020              		.loc 1 234 5 discriminator 5 view .LVU746
 234:../switch_sdk/core/fal/tiger/fal_tiger_stat.c ****     
 3021              		.loc 1 234 5 discriminator 5 view .LVU747
 3022 003a 0520     		movs	r0, #5
 3023 003c F7E7     		b	.L184
 3024              	.LVL377:
 3025              	.L194:
 234:../switch_sdk/core/fal/tiger/fal_tiger_stat.c ****     
 3026              		.loc 1 234 5 discriminator 3 view .LVU748
 3027              	.LBB35:
 234:../switch_sdk/core/fal/tiger/fal_tiger_stat.c ****     
 3028              		.loc 1 234 5 discriminator 3 view .LVU749
 3029 003e 144B     		ldr	r3, .L195+4
 3030 0040 5A69     		ldr	r2, [r3, #20]
 3031              	.LVL378:
 234:../switch_sdk/core/fal/tiger/fal_tiger_stat.c ****     
 3032              		.loc 1 234 5 is_stmt 0 discriminator 3 view .LVU750
 3033 0042 144B     		ldr	r3, .L195+8
 3034 0044 9968     		ldr	r1, [r3, #8]
 3035              	.LVL379:
 234:../switch_sdk/core/fal/tiger/fal_tiger_stat.c ****     
 3036              		.loc 1 234 5 discriminator 3 view .LVU751
 3037 0046 1448     		ldr	r0, .L195+12
 3038              	.LVL380:
 234:../switch_sdk/core/fal/tiger/fal_tiger_stat.c ****     
 3039              		.loc 1 234 5 discriminator 3 view .LVU752
 3040 0048 FFF7FEFF 		bl	osal_printf
 3041              	.LVL381:
 3042 004c F5E7     		b	.L186
 3043              	.LVL382:
 3044              	.L193:
 234:../switch_sdk/core/fal/tiger/fal_tiger_stat.c ****     
 3045              		.loc 1 234 5 discriminator 3 view .LVU753
 3046              	.LBE35:
 239:../switch_sdk/core/fal/tiger/fal_tiger_stat.c ****     HAL_FIELD_GET(FLOW_STATS_CFG_TBLm, FLOW_STATS_CFG_TBL_ENf, &entry, &enable);
 3047              		.loc 1 239 5 is_stmt 1 discriminator 3 view .LVU754
 3048              	.LBB36:
 239:../switch_sdk/core/fal/tiger/fal_tiger_stat.c ****     HAL_FIELD_GET(FLOW_STATS_CFG_TBLm, FLOW_STATS_CFG_TBL_ENf, &entry, &enable);
 3049              		.loc 1 239 5 discriminator 3 view .LVU755
 3050 004e 142B     		cmp	r3, #20
 3051 0050 28BF     		it	cs
 3052 0052 1423     		movcs	r3, #20
 3053 0054 1A46     		mov	r2, r3
 3054 0056 114B     		ldr	r3, .L195+16
 3055 0058 0093     		str	r3, [sp]
 3056 005a 114B     		ldr	r3, .L195+20
 3057 005c 0C49     		ldr	r1, .L195+4
 3058 005e 51F82220 		ldr	r2, [r1, r2, lsl #2]
 3059 0062 0C49     		ldr	r1, .L195+8
 3060 0064 8968     		ldr	r1, [r1, #8]
 3061 0066 0F48     		ldr	r0, .L195+24
 3062              	.LVL383:
 239:../switch_sdk/core/fal/tiger/fal_tiger_stat.c ****     HAL_FIELD_GET(FLOW_STATS_CFG_TBLm, FLOW_STATS_CFG_TBL_ENf, &entry, &enable);
 3063              		.loc 1 239 5 is_stmt 0 discriminator 3 view .LVU756
 3064 0068 FFF7FEFF 		bl	osal_printf
 3065              	.LVL384:
 3066 006c DEE7     		b	.L189
 3067              	.LVL385:
 3068              	.L188:
 239:../switch_sdk/core/fal/tiger/fal_tiger_stat.c ****     HAL_FIELD_GET(FLOW_STATS_CFG_TBLm, FLOW_STATS_CFG_TBL_ENf, &entry, &enable);
 3069              		.loc 1 239 5 discriminator 3 view .LVU757
 3070              	.LBE36:
 239:../switch_sdk/core/fal/tiger/fal_tiger_stat.c ****     HAL_FIELD_GET(FLOW_STATS_CFG_TBLm, FLOW_STATS_CFG_TBL_ENf, &entry, &enable);
 3071              		.loc 1 239 5 is_stmt 1 discriminator 2 view .LVU758
 240:../switch_sdk/core/fal/tiger/fal_tiger_stat.c ****     HAL_FIELD_GET(FLOW_STATS_CFG_TBLm, FLOW_STATS_CFG_TBL_ENf, &entry, &enable);
 3072              		.loc 1 240 5 discriminator 2 view .LVU759
 3073              	.LBB37:
 240:../switch_sdk/core/fal/tiger/fal_tiger_stat.c ****     HAL_FIELD_GET(FLOW_STATS_CFG_TBLm, FLOW_STATS_CFG_TBL_ENf, &entry, &enable);
 3074              		.loc 1 240 5 discriminator 2 view .LVU760
 240:../switch_sdk/core/fal/tiger/fal_tiger_stat.c ****     HAL_FIELD_GET(FLOW_STATS_CFG_TBLm, FLOW_STATS_CFG_TBL_ENf, &entry, &enable);
 3075              		.loc 1 240 5 discriminator 2 view .LVU761
 3076 006e 02AB     		add	r3, sp, #8
 3077 0070 03AA     		add	r2, sp, #12
 3078 0072 0021     		movs	r1, #0
 3079 0074 D120     		movs	r0, #209
 3080              	.LVL386:
 240:../switch_sdk/core/fal/tiger/fal_tiger_stat.c ****     HAL_FIELD_GET(FLOW_STATS_CFG_TBLm, FLOW_STATS_CFG_TBL_ENf, &entry, &enable);
 3081              		.loc 1 240 5 is_stmt 0 discriminator 2 view .LVU762
 3082 0076 FFF7FEFF 		bl	hal_tbl_reg_field_get
 3083              	.LVL387:
 240:../switch_sdk/core/fal/tiger/fal_tiger_stat.c ****     HAL_FIELD_GET(FLOW_STATS_CFG_TBLm, FLOW_STATS_CFG_TBL_ENf, &entry, &enable);
 3084              		.loc 1 240 5 is_stmt 1 discriminator 2 view .LVU763
 240:../switch_sdk/core/fal/tiger/fal_tiger_stat.c ****     HAL_FIELD_GET(FLOW_STATS_CFG_TBLm, FLOW_STATS_CFG_TBL_ENf, &entry, &enable);
 3085              		.loc 1 240 5 is_stmt 0 discriminator 2 view .LVU764
 3086              	.LBE37:
 240:../switch_sdk/core/fal/tiger/fal_tiger_stat.c ****     HAL_FIELD_GET(FLOW_STATS_CFG_TBLm, FLOW_STATS_CFG_TBL_ENf, &entry, &enable);
 3087              		.loc 1 240 5 is_stmt 1 discriminator 2 view .LVU765
 241:../switch_sdk/core/fal/tiger/fal_tiger_stat.c ****    
 3088              		.loc 1 241 5 discriminator 2 view .LVU766
 241:../switch_sdk/core/fal/tiger/fal_tiger_stat.c ****    
 3089              		.loc 1 241 35 is_stmt 0 discriminator 2 view .LVU767
 3090 007a 029B     		ldr	r3, [sp, #8]
 3091 007c 003B     		subs	r3, r3, #0
 3092 007e 18BF     		it	ne
 3093 0080 0123     		movne	r3, #1
 241:../switch_sdk/core/fal/tiger/fal_tiger_stat.c ****    
 3094              		.loc 1 241 14 discriminator 2 view .LVU768
 3095 0082 2B70     		strb	r3, [r5]
 3096              	.LVL388:
 243:../switch_sdk/core/fal/tiger/fal_tiger_stat.c **** }
 3097              		.loc 1 243 5 is_stmt 1 discriminator 2 view .LVU769
 243:../switch_sdk/core/fal/tiger/fal_tiger_stat.c **** }
 3098              		.loc 1 243 12 is_stmt 0 discriminator 2 view .LVU770
 3099 0084 0020     		movs	r0, #0
 3100 0086 D2E7     		b	.L184
 3101              	.LVL389:
 3102              	.L190:
 237:../switch_sdk/core/fal/tiger/fal_tiger_stat.c **** 
 3103              		.loc 1 237 16 view .LVU771
 3104 0088 0220     		movs	r0, #2
 3105              	.LVL390:
 237:../switch_sdk/core/fal/tiger/fal_tiger_stat.c **** 
 3106              		.loc 1 237 16 view .LVU772
 3107 008a D0E7     		b	.L184
 3108              	.L196:
 3109              		.align	2
 3110              	.L195:
 3111 008c 00000000 		.word	yt_debug_level
 3112 0090 00000000 		.word	_yt_errmsg
 3113 0094 00000000 		.word	_yt_prompt_msg
 3114 0098 00000000 		.word	.LC25
 3115 009c 00000000 		.word	__FUNCTION__.4
 3116 00a0 08000000 		.word	.LC26
 3117 00a4 3C000000 		.word	.LC1
 3118              		.cfi_endproc
 3119              	.LFE11:
 3121              		.section	.text.fal_tiger_stat_flow_mode_set,"ax",%progbits
 3122              		.align	1
 3123              		.global	fal_tiger_stat_flow_mode_set
 3124              		.syntax unified
 3125              		.thumb
 3126              		.thumb_func
 3128              	fal_tiger_stat_flow_mode_set:
 3129              	.LVL391:
 3130              	.LFB12:
 245:../switch_sdk/core/fal/tiger/fal_tiger_stat.c **** 
 246:../switch_sdk/core/fal/tiger/fal_tiger_stat.c **** yt_ret_t fal_tiger_stat_flow_mode_set (yt_unit_t unit, uint32_t flow_id, yt_stat_type_t type, yt_st
 247:../switch_sdk/core/fal/tiger/fal_tiger_stat.c **** {
 3131              		.loc 1 247 1 is_stmt 1 view -0
 3132              		.cfi_startproc
 3133              		@ args = 0, pretend = 0, frame = 8
 3134              		@ frame_needed = 0, uses_anonymous_args = 0
 3135              		.loc 1 247 1 is_stmt 0 view .LVU774
 3136 0000 2DE9F041 		push	{r4, r5, r6, r7, r8, lr}
 3137              		.cfi_def_cfa_offset 24
 3138              		.cfi_offset 4, -24
 3139              		.cfi_offset 5, -20
 3140              		.cfi_offset 6, -16
 3141              		.cfi_offset 7, -12
 3142              		.cfi_offset 8, -8
 3143              		.cfi_offset 14, -4
 3144 0004 84B0     		sub	sp, sp, #16
 3145              		.cfi_def_cfa_offset 40
 248:../switch_sdk/core/fal/tiger/fal_tiger_stat.c ****     flow_stats_cfg_tbl_t entry;
 3146              		.loc 1 248 5 is_stmt 1 view .LVU775
 249:../switch_sdk/core/fal/tiger/fal_tiger_stat.c ****     cmm_err_t ret = CMM_ERR_OK;
 3147              		.loc 1 249 5 view .LVU776
 3148              	.LVL392:
 250:../switch_sdk/core/fal/tiger/fal_tiger_stat.c **** 
 251:../switch_sdk/core/fal/tiger/fal_tiger_stat.c ****     CMM_PARAM_CHK((CAL_FLOW_NUM_MAX <= flow_id), CMM_ERR_INPUT);
 3149              		.loc 1 251 5 view .LVU777
 3150              		.loc 1 251 5 view .LVU778
 3151 0006 3F29     		cmp	r1, #63
 3152 0008 14D8     		bhi	.L206
 3153 000a 0646     		mov	r6, r0
 3154 000c 0D46     		mov	r5, r1
 3155 000e 9046     		mov	r8, r2
 3156 0010 1F46     		mov	r7, r3
 3157              		.loc 1 251 5 discriminator 2 view .LVU779
 252:../switch_sdk/core/fal/tiger/fal_tiger_stat.c ****     
 253:../switch_sdk/core/fal/tiger/fal_tiger_stat.c ****     CMM_ERR_CHK(HAL_TBL_REG_READ(unit, FLOW_STATS_CFG_TBLm, flow_id, sizeof(flow_stats_cfg_tbl_t), 
 3158              		.loc 1 253 5 discriminator 2 view .LVU780
 3159              		.loc 1 253 5 discriminator 2 view .LVU781
 3160 0012 03AB     		add	r3, sp, #12
 3161              	.LVL393:
 3162              		.loc 1 253 5 is_stmt 0 discriminator 2 view .LVU782
 3163 0014 0093     		str	r3, [sp]
 3164 0016 0423     		movs	r3, #4
 3165 0018 0A46     		mov	r2, r1
 3166              	.LVL394:
 3167              		.loc 1 253 5 discriminator 2 view .LVU783
 3168 001a D121     		movs	r1, #209
 3169              	.LVL395:
 3170              		.loc 1 253 5 discriminator 2 view .LVU784
 3171 001c FFF7FEFF 		bl	hal_table_reg_read
 3172              	.LVL396:
 3173              		.loc 1 253 5 discriminator 2 view .LVU785
 3174 0020 0446     		mov	r4, r0
 3175              	.LVL397:
 3176              		.loc 1 253 5 discriminator 2 view .LVU786
 3177 0022 10F0FF03 		ands	r3, r0, #255
 3178 0026 25D0     		beq	.L201
 3179              		.loc 1 253 5 is_stmt 1 discriminator 1 view .LVU787
 3180              		.loc 1 253 5 discriminator 1 view .LVU788
 3181 0028 2A4A     		ldr	r2, .L211
 3182 002a 1278     		ldrb	r2, [r2]	@ zero_extendqisi2
 3183 002c 012A     		cmp	r2, #1
 3184 002e 11D8     		bhi	.L207
 3185              	.LVL398:
 3186              	.L202:
 3187              		.loc 1 253 5 discriminator 5 view .LVU789
 3188              		.loc 1 253 5 discriminator 5 view .LVU790
 3189              		.loc 1 253 5 discriminator 5 view .LVU791
 3190 0030 E0B2     		uxtb	r0, r4
 3191 0032 04E0     		b	.L197
 3192              	.LVL399:
 3193              	.L206:
 251:../switch_sdk/core/fal/tiger/fal_tiger_stat.c ****     
 3194              		.loc 1 251 5 discriminator 1 view .LVU792
 251:../switch_sdk/core/fal/tiger/fal_tiger_stat.c ****     
 3195              		.loc 1 251 5 discriminator 1 view .LVU793
 3196 0034 274B     		ldr	r3, .L211
 3197              	.LVL400:
 251:../switch_sdk/core/fal/tiger/fal_tiger_stat.c ****     
 3198              		.loc 1 251 5 is_stmt 0 discriminator 1 view .LVU794
 3199 0036 1B78     		ldrb	r3, [r3]	@ zero_extendqisi2
 3200 0038 012B     		cmp	r3, #1
 3201 003a 03D8     		bhi	.L208
 3202              	.LVL401:
 3203              	.L199:
 251:../switch_sdk/core/fal/tiger/fal_tiger_stat.c ****     
 3204              		.loc 1 251 5 is_stmt 1 discriminator 5 view .LVU795
 251:../switch_sdk/core/fal/tiger/fal_tiger_stat.c ****     
 3205              		.loc 1 251 5 discriminator 5 view .LVU796
 251:../switch_sdk/core/fal/tiger/fal_tiger_stat.c ****     
 3206              		.loc 1 251 5 discriminator 5 view .LVU797
 3207 003c 0520     		movs	r0, #5
 3208              	.LVL402:
 3209              	.L197:
 254:../switch_sdk/core/fal/tiger/fal_tiger_stat.c ****     HAL_FIELD_SET(FLOW_STATS_CFG_TBLm, FLOW_STATS_CFG_TBL_SELf, &entry, type);
 255:../switch_sdk/core/fal/tiger/fal_tiger_stat.c ****     HAL_FIELD_SET(FLOW_STATS_CFG_TBLm, FLOW_STATS_CFG_TBL_MODEf, &entry, mode);
 256:../switch_sdk/core/fal/tiger/fal_tiger_stat.c ****     CMM_ERR_CHK(HAL_TBL_REG_WRITE(unit, FLOW_STATS_CFG_TBLm, flow_id, sizeof(flow_stats_cfg_tbl_t),
 257:../switch_sdk/core/fal/tiger/fal_tiger_stat.c ****    
 258:../switch_sdk/core/fal/tiger/fal_tiger_stat.c ****     return CMM_ERR_OK;
 259:../switch_sdk/core/fal/tiger/fal_tiger_stat.c **** }
 3210              		.loc 1 259 1 is_stmt 0 view .LVU798
 3211 003e 04B0     		add	sp, sp, #16
 3212              		.cfi_remember_state
 3213              		.cfi_def_cfa_offset 24
 3214              		@ sp needed
 3215 0040 BDE8F081 		pop	{r4, r5, r6, r7, r8, pc}
 3216              	.LVL403:
 3217              	.L208:
 3218              		.cfi_restore_state
 251:../switch_sdk/core/fal/tiger/fal_tiger_stat.c ****     
 3219              		.loc 1 251 5 is_stmt 1 discriminator 3 view .LVU799
 3220              	.LBB38:
 251:../switch_sdk/core/fal/tiger/fal_tiger_stat.c ****     
 3221              		.loc 1 251 5 discriminator 3 view .LVU800
 3222 0044 244B     		ldr	r3, .L211+4
 3223 0046 5A69     		ldr	r2, [r3, #20]
 3224              	.LVL404:
 251:../switch_sdk/core/fal/tiger/fal_tiger_stat.c ****     
 3225              		.loc 1 251 5 is_stmt 0 discriminator 3 view .LVU801
 3226 0048 244B     		ldr	r3, .L211+8
 3227 004a 9968     		ldr	r1, [r3, #8]
 3228              	.LVL405:
 251:../switch_sdk/core/fal/tiger/fal_tiger_stat.c ****     
 3229              		.loc 1 251 5 discriminator 3 view .LVU802
 3230 004c 2448     		ldr	r0, .L211+12
 3231              	.LVL406:
 251:../switch_sdk/core/fal/tiger/fal_tiger_stat.c ****     
 3232              		.loc 1 251 5 discriminator 3 view .LVU803
 3233 004e FFF7FEFF 		bl	osal_printf
 3234              	.LVL407:
 3235 0052 F3E7     		b	.L199
 3236              	.LVL408:
 3237              	.L207:
 251:../switch_sdk/core/fal/tiger/fal_tiger_stat.c ****     
 3238              		.loc 1 251 5 discriminator 3 view .LVU804
 3239              	.LBE38:
 253:../switch_sdk/core/fal/tiger/fal_tiger_stat.c ****     HAL_FIELD_SET(FLOW_STATS_CFG_TBLm, FLOW_STATS_CFG_TBL_SELf, &entry, type);
 3240              		.loc 1 253 5 is_stmt 1 discriminator 3 view .LVU805
 3241              	.LBB39:
 253:../switch_sdk/core/fal/tiger/fal_tiger_stat.c ****     HAL_FIELD_SET(FLOW_STATS_CFG_TBLm, FLOW_STATS_CFG_TBL_SELf, &entry, type);
 3242              		.loc 1 253 5 discriminator 3 view .LVU806
 3243 0054 142B     		cmp	r3, #20
 3244 0056 28BF     		it	cs
 3245 0058 1423     		movcs	r3, #20
 3246 005a 1A46     		mov	r2, r3
 3247 005c 214B     		ldr	r3, .L211+16
 3248 005e 0093     		str	r3, [sp]
 3249 0060 214B     		ldr	r3, .L211+20
 3250 0062 1D49     		ldr	r1, .L211+4
 3251 0064 51F82220 		ldr	r2, [r1, r2, lsl #2]
 3252 0068 1C49     		ldr	r1, .L211+8
 3253 006a 8968     		ldr	r1, [r1, #8]
 3254 006c 1F48     		ldr	r0, .L211+24
 3255              	.LVL409:
 253:../switch_sdk/core/fal/tiger/fal_tiger_stat.c ****     HAL_FIELD_SET(FLOW_STATS_CFG_TBLm, FLOW_STATS_CFG_TBL_SELf, &entry, type);
 3256              		.loc 1 253 5 is_stmt 0 discriminator 3 view .LVU807
 3257 006e FFF7FEFF 		bl	osal_printf
 3258              	.LVL410:
 3259 0072 DDE7     		b	.L202
 3260              	.LVL411:
 3261              	.L201:
 253:../switch_sdk/core/fal/tiger/fal_tiger_stat.c ****     HAL_FIELD_SET(FLOW_STATS_CFG_TBLm, FLOW_STATS_CFG_TBL_SELf, &entry, type);
 3262              		.loc 1 253 5 discriminator 3 view .LVU808
 3263              	.LBE39:
 253:../switch_sdk/core/fal/tiger/fal_tiger_stat.c ****     HAL_FIELD_SET(FLOW_STATS_CFG_TBLm, FLOW_STATS_CFG_TBL_SELf, &entry, type);
 3264              		.loc 1 253 5 is_stmt 1 discriminator 2 view .LVU809
 254:../switch_sdk/core/fal/tiger/fal_tiger_stat.c ****     HAL_FIELD_SET(FLOW_STATS_CFG_TBLm, FLOW_STATS_CFG_TBL_SELf, &entry, type);
 3265              		.loc 1 254 5 discriminator 2 view .LVU810
 3266 0074 03AC     		add	r4, sp, #12
 3267 0076 4346     		mov	r3, r8
 3268 0078 2246     		mov	r2, r4
 3269 007a 0221     		movs	r1, #2
 3270 007c D120     		movs	r0, #209
 3271              	.LVL412:
 254:../switch_sdk/core/fal/tiger/fal_tiger_stat.c ****     HAL_FIELD_SET(FLOW_STATS_CFG_TBLm, FLOW_STATS_CFG_TBL_SELf, &entry, type);
 3272              		.loc 1 254 5 is_stmt 0 discriminator 2 view .LVU811
 3273 007e FFF7FEFF 		bl	hal_tbl_reg_field_set
 3274              	.LVL413:
 255:../switch_sdk/core/fal/tiger/fal_tiger_stat.c ****     CMM_ERR_CHK(HAL_TBL_REG_WRITE(unit, FLOW_STATS_CFG_TBLm, flow_id, sizeof(flow_stats_cfg_tbl_t),
 3275              		.loc 1 255 5 is_stmt 1 discriminator 2 view .LVU812
 3276 0082 3B46     		mov	r3, r7
 3277 0084 2246     		mov	r2, r4
 3278 0086 0121     		movs	r1, #1
 3279 0088 D120     		movs	r0, #209
 3280 008a FFF7FEFF 		bl	hal_tbl_reg_field_set
 3281              	.LVL414:
 256:../switch_sdk/core/fal/tiger/fal_tiger_stat.c ****    
 3282              		.loc 1 256 5 discriminator 2 view .LVU813
 256:../switch_sdk/core/fal/tiger/fal_tiger_stat.c ****    
 3283              		.loc 1 256 5 discriminator 2 view .LVU814
 3284 008e 0094     		str	r4, [sp]
 3285 0090 0423     		movs	r3, #4
 3286 0092 2A46     		mov	r2, r5
 3287 0094 D121     		movs	r1, #209
 3288 0096 3046     		mov	r0, r6
 3289 0098 FFF7FEFF 		bl	hal_table_reg_write
 3290              	.LVL415:
 3291 009c 0446     		mov	r4, r0
 3292              	.LVL416:
 256:../switch_sdk/core/fal/tiger/fal_tiger_stat.c ****    
 3293              		.loc 1 256 5 is_stmt 0 discriminator 2 view .LVU815
 3294 009e 10F0FF03 		ands	r3, r0, #255
 3295 00a2 01D1     		bne	.L209
 258:../switch_sdk/core/fal/tiger/fal_tiger_stat.c **** }
 3296              		.loc 1 258 12 view .LVU816
 3297 00a4 0020     		movs	r0, #0
 3298              	.LVL417:
 258:../switch_sdk/core/fal/tiger/fal_tiger_stat.c **** }
 3299              		.loc 1 258 12 view .LVU817
 3300 00a6 CAE7     		b	.L197
 3301              	.LVL418:
 3302              	.L209:
 256:../switch_sdk/core/fal/tiger/fal_tiger_stat.c ****    
 3303              		.loc 1 256 5 is_stmt 1 discriminator 1 view .LVU818
 256:../switch_sdk/core/fal/tiger/fal_tiger_stat.c ****    
 3304              		.loc 1 256 5 discriminator 1 view .LVU819
 3305 00a8 0A4A     		ldr	r2, .L211
 3306 00aa 1278     		ldrb	r2, [r2]	@ zero_extendqisi2
 3307 00ac 012A     		cmp	r2, #1
 3308 00ae 01D8     		bhi	.L210
 3309              	.LVL419:
 3310              	.L203:
 256:../switch_sdk/core/fal/tiger/fal_tiger_stat.c ****    
 3311              		.loc 1 256 5 discriminator 5 view .LVU820
 256:../switch_sdk/core/fal/tiger/fal_tiger_stat.c ****    
 3312              		.loc 1 256 5 discriminator 5 view .LVU821
 256:../switch_sdk/core/fal/tiger/fal_tiger_stat.c ****    
 3313              		.loc 1 256 5 discriminator 5 view .LVU822
 3314 00b0 E0B2     		uxtb	r0, r4
 3315 00b2 C4E7     		b	.L197
 3316              	.LVL420:
 3317              	.L210:
 256:../switch_sdk/core/fal/tiger/fal_tiger_stat.c ****    
 3318              		.loc 1 256 5 discriminator 3 view .LVU823
 3319              	.LBB40:
 256:../switch_sdk/core/fal/tiger/fal_tiger_stat.c ****    
 3320              		.loc 1 256 5 discriminator 3 view .LVU824
 3321 00b4 142B     		cmp	r3, #20
 3322 00b6 28BF     		it	cs
 3323 00b8 1423     		movcs	r3, #20
 3324 00ba 1A46     		mov	r2, r3
 3325 00bc 094B     		ldr	r3, .L211+16
 3326 00be 0093     		str	r3, [sp]
 3327 00c0 0B4B     		ldr	r3, .L211+28
 3328 00c2 0549     		ldr	r1, .L211+4
 3329 00c4 51F82220 		ldr	r2, [r1, r2, lsl #2]
 3330 00c8 0449     		ldr	r1, .L211+8
 3331 00ca 8968     		ldr	r1, [r1, #8]
 3332 00cc 0748     		ldr	r0, .L211+24
 3333              	.LVL421:
 256:../switch_sdk/core/fal/tiger/fal_tiger_stat.c ****    
 3334              		.loc 1 256 5 is_stmt 0 discriminator 3 view .LVU825
 3335 00ce FFF7FEFF 		bl	osal_printf
 3336              	.LVL422:
 3337 00d2 EDE7     		b	.L203
 3338              	.L212:
 3339              		.align	2
 3340              	.L211:
 3341 00d4 00000000 		.word	yt_debug_level
 3342 00d8 00000000 		.word	_yt_errmsg
 3343 00dc 00000000 		.word	_yt_prompt_msg
 3344 00e0 00000000 		.word	.LC25
 3345 00e4 00000000 		.word	__FUNCTION__.3
 3346 00e8 08000000 		.word	.LC26
 3347 00ec 3C000000 		.word	.LC1
 3348 00f0 54000000 		.word	.LC27
 3349              	.LBE40:
 3350              		.cfi_endproc
 3351              	.LFE12:
 3353              		.section	.text.fal_tiger_stat_flow_mode_get,"ax",%progbits
 3354              		.align	1
 3355              		.global	fal_tiger_stat_flow_mode_get
 3356              		.syntax unified
 3357              		.thumb
 3358              		.thumb_func
 3360              	fal_tiger_stat_flow_mode_get:
 3361              	.LVL423:
 3362              	.LFB13:
 260:../switch_sdk/core/fal/tiger/fal_tiger_stat.c **** 
 261:../switch_sdk/core/fal/tiger/fal_tiger_stat.c **** yt_ret_t fal_tiger_stat_flow_mode_get (yt_unit_t unit, uint32_t flow_id, yt_stat_type_t *ptype, yt_
 262:../switch_sdk/core/fal/tiger/fal_tiger_stat.c **** {
 3363              		.loc 1 262 1 is_stmt 1 view -0
 3364              		.cfi_startproc
 3365              		@ args = 0, pretend = 0, frame = 8
 3366              		@ frame_needed = 0, uses_anonymous_args = 0
 3367              		.loc 1 262 1 is_stmt 0 view .LVU827
 3368 0000 70B5     		push	{r4, r5, r6, lr}
 3369              		.cfi_def_cfa_offset 16
 3370              		.cfi_offset 4, -16
 3371              		.cfi_offset 5, -12
 3372              		.cfi_offset 6, -8
 3373              		.cfi_offset 14, -4
 3374 0002 84B0     		sub	sp, sp, #16
 3375              		.cfi_def_cfa_offset 32
 263:../switch_sdk/core/fal/tiger/fal_tiger_stat.c ****     flow_stats_cfg_tbl_t entry;
 3376              		.loc 1 263 5 is_stmt 1 view .LVU828
 264:../switch_sdk/core/fal/tiger/fal_tiger_stat.c ****     cmm_err_t ret = CMM_ERR_OK;
 3377              		.loc 1 264 5 view .LVU829
 3378              	.LVL424:
 265:../switch_sdk/core/fal/tiger/fal_tiger_stat.c ****     uint32_t type;
 3379              		.loc 1 265 5 view .LVU830
 266:../switch_sdk/core/fal/tiger/fal_tiger_stat.c ****     uint32_t mode;
 3380              		.loc 1 266 5 view .LVU831
 267:../switch_sdk/core/fal/tiger/fal_tiger_stat.c **** 
 268:../switch_sdk/core/fal/tiger/fal_tiger_stat.c ****     CMM_PARAM_CHK((CAL_FLOW_NUM_MAX <= flow_id), CMM_ERR_INPUT);
 3381              		.loc 1 268 5 view .LVU832
 3382              		.loc 1 268 5 view .LVU833
 3383 0004 3F29     		cmp	r1, #63
 3384 0006 17D8     		bhi	.L222
 3385 0008 1546     		mov	r5, r2
 3386 000a 1E46     		mov	r6, r3
 3387              		.loc 1 268 5 discriminator 2 view .LVU834
 269:../switch_sdk/core/fal/tiger/fal_tiger_stat.c ****     
 270:../switch_sdk/core/fal/tiger/fal_tiger_stat.c ****     if(NULL == ptype || NULL == pmode)
 3388              		.loc 1 270 5 discriminator 2 view .LVU835
 3389              		.loc 1 270 7 is_stmt 0 discriminator 2 view .LVU836
 3390 000c 002A     		cmp	r2, #0
 3391 000e 43D0     		beq	.L219
 3392              		.loc 1 270 22 discriminator 1 view .LVU837
 3393 0010 002B     		cmp	r3, #0
 3394 0012 43D0     		beq	.L220
 271:../switch_sdk/core/fal/tiger/fal_tiger_stat.c ****         return CMM_ERR_NULL_POINT;
 272:../switch_sdk/core/fal/tiger/fal_tiger_stat.c **** 
 273:../switch_sdk/core/fal/tiger/fal_tiger_stat.c ****     CMM_ERR_CHK(HAL_TBL_REG_READ(unit, FLOW_STATS_CFG_TBLm, flow_id, sizeof(flow_stats_cfg_tbl_t), 
 3395              		.loc 1 273 5 is_stmt 1 view .LVU838
 3396              		.loc 1 273 5 view .LVU839
 3397 0014 03AB     		add	r3, sp, #12
 3398              	.LVL425:
 3399              		.loc 1 273 5 is_stmt 0 view .LVU840
 3400 0016 0093     		str	r3, [sp]
 3401 0018 0423     		movs	r3, #4
 3402 001a 0A46     		mov	r2, r1
 3403              	.LVL426:
 3404              		.loc 1 273 5 view .LVU841
 3405 001c D121     		movs	r1, #209
 3406              	.LVL427:
 3407              		.loc 1 273 5 view .LVU842
 3408 001e FFF7FEFF 		bl	hal_table_reg_read
 3409              	.LVL428:
 3410              		.loc 1 273 5 view .LVU843
 3411 0022 0446     		mov	r4, r0
 3412              	.LVL429:
 3413              		.loc 1 273 5 view .LVU844
 3414 0024 10F0FF03 		ands	r3, r0, #255
 3415 0028 24D0     		beq	.L217
 3416              		.loc 1 273 5 is_stmt 1 discriminator 1 view .LVU845
 3417              		.loc 1 273 5 discriminator 1 view .LVU846
 3418 002a 1D4A     		ldr	r2, .L225
 3419 002c 1278     		ldrb	r2, [r2]	@ zero_extendqisi2
 3420 002e 012A     		cmp	r2, #1
 3421 0030 10D8     		bhi	.L223
 3422              	.LVL430:
 3423              	.L218:
 3424              		.loc 1 273 5 discriminator 5 view .LVU847
 3425              		.loc 1 273 5 discriminator 5 view .LVU848
 3426              		.loc 1 273 5 discriminator 5 view .LVU849
 3427 0032 E0B2     		uxtb	r0, r4
 3428              	.LVL431:
 3429              	.L213:
 274:../switch_sdk/core/fal/tiger/fal_tiger_stat.c ****     HAL_FIELD_GET(FLOW_STATS_CFG_TBLm, FLOW_STATS_CFG_TBL_SELf, &entry, &type);
 275:../switch_sdk/core/fal/tiger/fal_tiger_stat.c ****     HAL_FIELD_GET(FLOW_STATS_CFG_TBLm, FLOW_STATS_CFG_TBL_MODEf, &entry, &mode);
 276:../switch_sdk/core/fal/tiger/fal_tiger_stat.c ****     *ptype = type;
 277:../switch_sdk/core/fal/tiger/fal_tiger_stat.c ****     *pmode = mode;
 278:../switch_sdk/core/fal/tiger/fal_tiger_stat.c ****    
 279:../switch_sdk/core/fal/tiger/fal_tiger_stat.c ****     return CMM_ERR_OK;
 280:../switch_sdk/core/fal/tiger/fal_tiger_stat.c **** }
 3430              		.loc 1 280 1 is_stmt 0 view .LVU850
 3431 0034 04B0     		add	sp, sp, #16
 3432              		.cfi_remember_state
 3433              		.cfi_def_cfa_offset 16
 3434              		@ sp needed
 3435 0036 70BD     		pop	{r4, r5, r6, pc}
 3436              	.LVL432:
 3437              	.L222:
 3438              		.cfi_restore_state
 268:../switch_sdk/core/fal/tiger/fal_tiger_stat.c ****     
 3439              		.loc 1 268 5 is_stmt 1 discriminator 1 view .LVU851
 268:../switch_sdk/core/fal/tiger/fal_tiger_stat.c ****     
 3440              		.loc 1 268 5 discriminator 1 view .LVU852
 3441 0038 194B     		ldr	r3, .L225
 3442              	.LVL433:
 268:../switch_sdk/core/fal/tiger/fal_tiger_stat.c ****     
 3443              		.loc 1 268 5 is_stmt 0 discriminator 1 view .LVU853
 3444 003a 1B78     		ldrb	r3, [r3]	@ zero_extendqisi2
 3445 003c 012B     		cmp	r3, #1
 3446 003e 01D8     		bhi	.L224
 3447              	.LVL434:
 3448              	.L215:
 268:../switch_sdk/core/fal/tiger/fal_tiger_stat.c ****     
 3449              		.loc 1 268 5 is_stmt 1 discriminator 5 view .LVU854
 268:../switch_sdk/core/fal/tiger/fal_tiger_stat.c ****     
 3450              		.loc 1 268 5 discriminator 5 view .LVU855
 268:../switch_sdk/core/fal/tiger/fal_tiger_stat.c ****     
 3451              		.loc 1 268 5 discriminator 5 view .LVU856
 3452 0040 0520     		movs	r0, #5
 3453 0042 F7E7     		b	.L213
 3454              	.LVL435:
 3455              	.L224:
 268:../switch_sdk/core/fal/tiger/fal_tiger_stat.c ****     
 3456              		.loc 1 268 5 discriminator 3 view .LVU857
 3457              	.LBB41:
 268:../switch_sdk/core/fal/tiger/fal_tiger_stat.c ****     
 3458              		.loc 1 268 5 discriminator 3 view .LVU858
 3459 0044 174B     		ldr	r3, .L225+4
 3460 0046 5A69     		ldr	r2, [r3, #20]
 3461              	.LVL436:
 268:../switch_sdk/core/fal/tiger/fal_tiger_stat.c ****     
 3462              		.loc 1 268 5 is_stmt 0 discriminator 3 view .LVU859
 3463 0048 174B     		ldr	r3, .L225+8
 3464 004a 9968     		ldr	r1, [r3, #8]
 3465              	.LVL437:
 268:../switch_sdk/core/fal/tiger/fal_tiger_stat.c ****     
 3466              		.loc 1 268 5 discriminator 3 view .LVU860
 3467 004c 1748     		ldr	r0, .L225+12
 3468              	.LVL438:
 268:../switch_sdk/core/fal/tiger/fal_tiger_stat.c ****     
 3469              		.loc 1 268 5 discriminator 3 view .LVU861
 3470 004e FFF7FEFF 		bl	osal_printf
 3471              	.LVL439:
 3472 0052 F5E7     		b	.L215
 3473              	.LVL440:
 3474              	.L223:
 268:../switch_sdk/core/fal/tiger/fal_tiger_stat.c ****     
 3475              		.loc 1 268 5 discriminator 3 view .LVU862
 3476              	.LBE41:
 273:../switch_sdk/core/fal/tiger/fal_tiger_stat.c ****     HAL_FIELD_GET(FLOW_STATS_CFG_TBLm, FLOW_STATS_CFG_TBL_SELf, &entry, &type);
 3477              		.loc 1 273 5 is_stmt 1 discriminator 3 view .LVU863
 3478              	.LBB42:
 273:../switch_sdk/core/fal/tiger/fal_tiger_stat.c ****     HAL_FIELD_GET(FLOW_STATS_CFG_TBLm, FLOW_STATS_CFG_TBL_SELf, &entry, &type);
 3479              		.loc 1 273 5 discriminator 3 view .LVU864
 3480 0054 142B     		cmp	r3, #20
 3481 0056 28BF     		it	cs
 3482 0058 1423     		movcs	r3, #20
 3483 005a 1A46     		mov	r2, r3
 3484 005c 144B     		ldr	r3, .L225+16
 3485 005e 0093     		str	r3, [sp]
 3486 0060 144B     		ldr	r3, .L225+20
 3487 0062 1049     		ldr	r1, .L225+4
 3488 0064 51F82220 		ldr	r2, [r1, r2, lsl #2]
 3489 0068 0F49     		ldr	r1, .L225+8
 3490 006a 8968     		ldr	r1, [r1, #8]
 3491 006c 1248     		ldr	r0, .L225+24
 3492              	.LVL441:
 273:../switch_sdk/core/fal/tiger/fal_tiger_stat.c ****     HAL_FIELD_GET(FLOW_STATS_CFG_TBLm, FLOW_STATS_CFG_TBL_SELf, &entry, &type);
 3493              		.loc 1 273 5 is_stmt 0 discriminator 3 view .LVU865
 3494 006e FFF7FEFF 		bl	osal_printf
 3495              	.LVL442:
 3496 0072 DEE7     		b	.L218
 3497              	.LVL443:
 3498              	.L217:
 273:../switch_sdk/core/fal/tiger/fal_tiger_stat.c ****     HAL_FIELD_GET(FLOW_STATS_CFG_TBLm, FLOW_STATS_CFG_TBL_SELf, &entry, &type);
 3499              		.loc 1 273 5 discriminator 3 view .LVU866
 3500              	.LBE42:
 273:../switch_sdk/core/fal/tiger/fal_tiger_stat.c ****     HAL_FIELD_GET(FLOW_STATS_CFG_TBLm, FLOW_STATS_CFG_TBL_SELf, &entry, &type);
 3501              		.loc 1 273 5 is_stmt 1 discriminator 2 view .LVU867
 274:../switch_sdk/core/fal/tiger/fal_tiger_stat.c ****     HAL_FIELD_GET(FLOW_STATS_CFG_TBLm, FLOW_STATS_CFG_TBL_SELf, &entry, &type);
 3502              		.loc 1 274 5 discriminator 2 view .LVU868
 3503              	.LBB43:
 274:../switch_sdk/core/fal/tiger/fal_tiger_stat.c ****     HAL_FIELD_GET(FLOW_STATS_CFG_TBLm, FLOW_STATS_CFG_TBL_SELf, &entry, &type);
 3504              		.loc 1 274 5 discriminator 2 view .LVU869
 274:../switch_sdk/core/fal/tiger/fal_tiger_stat.c ****     HAL_FIELD_GET(FLOW_STATS_CFG_TBLm, FLOW_STATS_CFG_TBL_SELf, &entry, &type);
 3505              		.loc 1 274 5 discriminator 2 view .LVU870
 3506 0074 02AB     		add	r3, sp, #8
 3507 0076 03AA     		add	r2, sp, #12
 3508 0078 0221     		movs	r1, #2
 3509 007a D120     		movs	r0, #209
 3510              	.LVL444:
 274:../switch_sdk/core/fal/tiger/fal_tiger_stat.c ****     HAL_FIELD_GET(FLOW_STATS_CFG_TBLm, FLOW_STATS_CFG_TBL_SELf, &entry, &type);
 3511              		.loc 1 274 5 is_stmt 0 discriminator 2 view .LVU871
 3512 007c FFF7FEFF 		bl	hal_tbl_reg_field_get
 3513              	.LVL445:
 274:../switch_sdk/core/fal/tiger/fal_tiger_stat.c ****     HAL_FIELD_GET(FLOW_STATS_CFG_TBLm, FLOW_STATS_CFG_TBL_SELf, &entry, &type);
 3514              		.loc 1 274 5 is_stmt 1 discriminator 2 view .LVU872
 3515 0080 029C     		ldr	r4, [sp, #8]
 3516              	.LVL446:
 274:../switch_sdk/core/fal/tiger/fal_tiger_stat.c ****     HAL_FIELD_GET(FLOW_STATS_CFG_TBLm, FLOW_STATS_CFG_TBL_SELf, &entry, &type);
 3517              		.loc 1 274 5 is_stmt 0 discriminator 2 view .LVU873
 3518              	.LBE43:
 274:../switch_sdk/core/fal/tiger/fal_tiger_stat.c ****     HAL_FIELD_GET(FLOW_STATS_CFG_TBLm, FLOW_STATS_CFG_TBL_SELf, &entry, &type);
 3519              		.loc 1 274 5 is_stmt 1 discriminator 2 view .LVU874
 275:../switch_sdk/core/fal/tiger/fal_tiger_stat.c ****     *ptype = type;
 3520              		.loc 1 275 5 discriminator 2 view .LVU875
 3521              	.LBB44:
 275:../switch_sdk/core/fal/tiger/fal_tiger_stat.c ****     *ptype = type;
 3522              		.loc 1 275 5 discriminator 2 view .LVU876
 275:../switch_sdk/core/fal/tiger/fal_tiger_stat.c ****     *ptype = type;
 3523              		.loc 1 275 5 discriminator 2 view .LVU877
 3524 0082 02AB     		add	r3, sp, #8
 3525 0084 03AA     		add	r2, sp, #12
 3526 0086 0121     		movs	r1, #1
 3527 0088 D120     		movs	r0, #209
 3528 008a FFF7FEFF 		bl	hal_tbl_reg_field_get
 3529              	.LVL447:
 275:../switch_sdk/core/fal/tiger/fal_tiger_stat.c ****     *ptype = type;
 3530              		.loc 1 275 5 discriminator 2 view .LVU878
 275:../switch_sdk/core/fal/tiger/fal_tiger_stat.c ****     *ptype = type;
 3531              		.loc 1 275 5 is_stmt 0 discriminator 2 view .LVU879
 3532              	.LBE44:
 275:../switch_sdk/core/fal/tiger/fal_tiger_stat.c ****     *ptype = type;
 3533              		.loc 1 275 5 is_stmt 1 discriminator 2 view .LVU880
 276:../switch_sdk/core/fal/tiger/fal_tiger_stat.c ****     *pmode = mode;
 3534              		.loc 1 276 5 discriminator 2 view .LVU881
 276:../switch_sdk/core/fal/tiger/fal_tiger_stat.c ****     *pmode = mode;
 3535              		.loc 1 276 12 is_stmt 0 discriminator 2 view .LVU882
 3536 008e 2C70     		strb	r4, [r5]
 3537              	.LVL448:
 277:../switch_sdk/core/fal/tiger/fal_tiger_stat.c ****    
 3538              		.loc 1 277 5 is_stmt 1 discriminator 2 view .LVU883
 277:../switch_sdk/core/fal/tiger/fal_tiger_stat.c ****    
 3539              		.loc 1 277 12 is_stmt 0 discriminator 2 view .LVU884
 3540 0090 029B     		ldr	r3, [sp, #8]
 3541              	.LVL449:
 277:../switch_sdk/core/fal/tiger/fal_tiger_stat.c ****    
 3542              		.loc 1 277 12 discriminator 2 view .LVU885
 3543 0092 3370     		strb	r3, [r6]
 279:../switch_sdk/core/fal/tiger/fal_tiger_stat.c **** }
 3544              		.loc 1 279 5 is_stmt 1 discriminator 2 view .LVU886
 279:../switch_sdk/core/fal/tiger/fal_tiger_stat.c **** }
 3545              		.loc 1 279 12 is_stmt 0 discriminator 2 view .LVU887
 3546 0094 0020     		movs	r0, #0
 3547 0096 CDE7     		b	.L213
 3548              	.LVL450:
 3549              	.L219:
 271:../switch_sdk/core/fal/tiger/fal_tiger_stat.c **** 
 3550              		.loc 1 271 16 view .LVU888
 3551 0098 0220     		movs	r0, #2
 3552              	.LVL451:
 271:../switch_sdk/core/fal/tiger/fal_tiger_stat.c **** 
 3553              		.loc 1 271 16 view .LVU889
 3554 009a CBE7     		b	.L213
 3555              	.LVL452:
 3556              	.L220:
 271:../switch_sdk/core/fal/tiger/fal_tiger_stat.c **** 
 3557              		.loc 1 271 16 view .LVU890
 3558 009c 0220     		movs	r0, #2
 3559              	.LVL453:
 271:../switch_sdk/core/fal/tiger/fal_tiger_stat.c **** 
 3560              		.loc 1 271 16 view .LVU891
 3561 009e C9E7     		b	.L213
 3562              	.L226:
 3563              		.align	2
 3564              	.L225:
 3565 00a0 00000000 		.word	yt_debug_level
 3566 00a4 00000000 		.word	_yt_errmsg
 3567 00a8 00000000 		.word	_yt_prompt_msg
 3568 00ac 00000000 		.word	.LC25
 3569 00b0 00000000 		.word	__FUNCTION__.2
 3570 00b4 08000000 		.word	.LC26
 3571 00b8 3C000000 		.word	.LC1
 3572              		.cfi_endproc
 3573              	.LFE13:
 3575              		.section	.rodata.fal_tiger_stat_flow_count_set.str1.4,"aMS",%progbits,1
 3576              		.align	2
 3577              	.LC28:
 3578 0000 68616C5F 		.ascii	"hal_table_reg_read(unit,208,flow_id,sizeof(flow_sta"
 3578      7461626C 
 3578      655F7265 
 3578      675F7265 
 3578      61642875 
 3579 0033 74735F74 		.ascii	"ts_tbl_t),&entry)\000"
 3579      626C5F74 
 3579      292C2665 
 3579      6E747279 
 3579      2900
 3580 0045 000000   		.align	2
 3581              	.LC29:
 3582 0048 68616C5F 		.ascii	"hal_table_reg_write(unit,208,flow_id,sizeof(flow_st"
 3582      7461626C 
 3582      655F7265 
 3582      675F7772 
 3582      69746528 
 3583 007b 6174735F 		.ascii	"ats_tbl_t),&entry)\000"
 3583      74626C5F 
 3583      74292C26 
 3583      656E7472 
 3583      792900
 3584              		.section	.text.fal_tiger_stat_flow_count_set,"ax",%progbits
 3585              		.align	1
 3586              		.global	fal_tiger_stat_flow_count_set
 3587              		.syntax unified
 3588              		.thumb
 3589              		.thumb_func
 3591              	fal_tiger_stat_flow_count_set:
 3592              	.LVL454:
 3593              	.LFB14:
 281:../switch_sdk/core/fal/tiger/fal_tiger_stat.c **** 
 282:../switch_sdk/core/fal/tiger/fal_tiger_stat.c **** yt_ret_t fal_tiger_stat_flow_count_set (yt_unit_t unit, uint32_t flow_id, uint64 count)
 283:../switch_sdk/core/fal/tiger/fal_tiger_stat.c **** {
 3594              		.loc 1 283 1 is_stmt 1 view -0
 3595              		.cfi_startproc
 3596              		@ args = 0, pretend = 0, frame = 8
 3597              		@ frame_needed = 0, uses_anonymous_args = 0
 3598              		.loc 1 283 1 is_stmt 0 view .LVU893
 3599 0000 2DE9F041 		push	{r4, r5, r6, r7, r8, lr}
 3600              		.cfi_def_cfa_offset 24
 3601              		.cfi_offset 4, -24
 3602              		.cfi_offset 5, -20
 3603              		.cfi_offset 6, -16
 3604              		.cfi_offset 7, -12
 3605              		.cfi_offset 8, -8
 3606              		.cfi_offset 14, -4
 3607 0004 84B0     		sub	sp, sp, #16
 3608              		.cfi_def_cfa_offset 40
 284:../switch_sdk/core/fal/tiger/fal_tiger_stat.c ****     flow_stats_tbl_t entry;
 3609              		.loc 1 284 5 is_stmt 1 view .LVU894
 285:../switch_sdk/core/fal/tiger/fal_tiger_stat.c ****     cmm_err_t ret = CMM_ERR_OK;
 3610              		.loc 1 285 5 view .LVU895
 3611              	.LVL455:
 286:../switch_sdk/core/fal/tiger/fal_tiger_stat.c **** 
 287:../switch_sdk/core/fal/tiger/fal_tiger_stat.c ****     CMM_PARAM_CHK((CAL_FLOW_NUM_MAX <= flow_id), CMM_ERR_INPUT);
 3612              		.loc 1 287 5 view .LVU896
 3613              		.loc 1 287 5 view .LVU897
 3614 0006 3F29     		cmp	r1, #63
 3615 0008 14D8     		bhi	.L236
 3616 000a 0646     		mov	r6, r0
 3617 000c 0D46     		mov	r5, r1
 3618 000e 1746     		mov	r7, r2
 3619 0010 9846     		mov	r8, r3
 3620              		.loc 1 287 5 discriminator 2 view .LVU898
 288:../switch_sdk/core/fal/tiger/fal_tiger_stat.c ****     
 289:../switch_sdk/core/fal/tiger/fal_tiger_stat.c ****     CMM_ERR_CHK(HAL_TBL_REG_READ(unit, FLOW_STATS_TBLm, flow_id, sizeof(flow_stats_tbl_t), &entry),
 3621              		.loc 1 289 5 discriminator 2 view .LVU899
 3622              		.loc 1 289 5 discriminator 2 view .LVU900
 3623 0012 02AB     		add	r3, sp, #8
 3624 0014 0093     		str	r3, [sp]
 3625 0016 0823     		movs	r3, #8
 3626 0018 0A46     		mov	r2, r1
 3627              	.LVL456:
 3628              		.loc 1 289 5 is_stmt 0 discriminator 2 view .LVU901
 3629 001a D021     		movs	r1, #208
 3630              	.LVL457:
 3631              		.loc 1 289 5 discriminator 2 view .LVU902
 3632 001c FFF7FEFF 		bl	hal_table_reg_read
 3633              	.LVL458:
 3634              		.loc 1 289 5 discriminator 2 view .LVU903
 3635 0020 0446     		mov	r4, r0
 3636              	.LVL459:
 3637              		.loc 1 289 5 discriminator 2 view .LVU904
 3638 0022 10F0FF03 		ands	r3, r0, #255
 3639 0026 25D0     		beq	.L231
 3640              		.loc 1 289 5 is_stmt 1 discriminator 1 view .LVU905
 3641              		.loc 1 289 5 discriminator 1 view .LVU906
 3642 0028 2A4A     		ldr	r2, .L241
 3643 002a 1278     		ldrb	r2, [r2]	@ zero_extendqisi2
 3644 002c 012A     		cmp	r2, #1
 3645 002e 11D8     		bhi	.L237
 3646              	.LVL460:
 3647              	.L232:
 3648              		.loc 1 289 5 discriminator 5 view .LVU907
 3649              		.loc 1 289 5 discriminator 5 view .LVU908
 3650              		.loc 1 289 5 discriminator 5 view .LVU909
 3651 0030 E0B2     		uxtb	r0, r4
 3652 0032 04E0     		b	.L227
 3653              	.LVL461:
 3654              	.L236:
 287:../switch_sdk/core/fal/tiger/fal_tiger_stat.c ****     
 3655              		.loc 1 287 5 discriminator 1 view .LVU910
 287:../switch_sdk/core/fal/tiger/fal_tiger_stat.c ****     
 3656              		.loc 1 287 5 discriminator 1 view .LVU911
 3657 0034 274B     		ldr	r3, .L241
 3658 0036 1B78     		ldrb	r3, [r3]	@ zero_extendqisi2
 3659 0038 012B     		cmp	r3, #1
 3660 003a 03D8     		bhi	.L238
 3661              	.LVL462:
 3662              	.L229:
 287:../switch_sdk/core/fal/tiger/fal_tiger_stat.c ****     
 3663              		.loc 1 287 5 discriminator 5 view .LVU912
 287:../switch_sdk/core/fal/tiger/fal_tiger_stat.c ****     
 3664              		.loc 1 287 5 discriminator 5 view .LVU913
 287:../switch_sdk/core/fal/tiger/fal_tiger_stat.c ****     
 3665              		.loc 1 287 5 discriminator 5 view .LVU914
 3666 003c 0520     		movs	r0, #5
 3667              	.LVL463:
 3668              	.L227:
 290:../switch_sdk/core/fal/tiger/fal_tiger_stat.c ****     HAL_FIELD_SET(FLOW_STATS_TBLm, FLOW_STATS_TBL_CNT1f, &entry, (count >> 32) & 0xFFFFFFFF);
 291:../switch_sdk/core/fal/tiger/fal_tiger_stat.c ****     HAL_FIELD_SET(FLOW_STATS_TBLm, FLOW_STATS_TBL_CNT0f, &entry, count & 0xFFFFFFFF);
 292:../switch_sdk/core/fal/tiger/fal_tiger_stat.c ****     CMM_ERR_CHK(HAL_TBL_REG_WRITE(unit, FLOW_STATS_TBLm, flow_id, sizeof(flow_stats_tbl_t), &entry)
 293:../switch_sdk/core/fal/tiger/fal_tiger_stat.c ****    
 294:../switch_sdk/core/fal/tiger/fal_tiger_stat.c ****     return CMM_ERR_OK;
 295:../switch_sdk/core/fal/tiger/fal_tiger_stat.c **** }
 3669              		.loc 1 295 1 is_stmt 0 view .LVU915
 3670 003e 04B0     		add	sp, sp, #16
 3671              		.cfi_remember_state
 3672              		.cfi_def_cfa_offset 24
 3673              		@ sp needed
 3674 0040 BDE8F081 		pop	{r4, r5, r6, r7, r8, pc}
 3675              	.LVL464:
 3676              	.L238:
 3677              		.cfi_restore_state
 287:../switch_sdk/core/fal/tiger/fal_tiger_stat.c ****     
 3678              		.loc 1 287 5 is_stmt 1 discriminator 3 view .LVU916
 3679              	.LBB45:
 287:../switch_sdk/core/fal/tiger/fal_tiger_stat.c ****     
 3680              		.loc 1 287 5 discriminator 3 view .LVU917
 3681 0044 244B     		ldr	r3, .L241+4
 3682 0046 5A69     		ldr	r2, [r3, #20]
 3683              	.LVL465:
 287:../switch_sdk/core/fal/tiger/fal_tiger_stat.c ****     
 3684              		.loc 1 287 5 is_stmt 0 discriminator 3 view .LVU918
 3685 0048 244B     		ldr	r3, .L241+8
 3686 004a 9968     		ldr	r1, [r3, #8]
 3687              	.LVL466:
 287:../switch_sdk/core/fal/tiger/fal_tiger_stat.c ****     
 3688              		.loc 1 287 5 discriminator 3 view .LVU919
 3689 004c 2448     		ldr	r0, .L241+12
 3690              	.LVL467:
 287:../switch_sdk/core/fal/tiger/fal_tiger_stat.c ****     
 3691              		.loc 1 287 5 discriminator 3 view .LVU920
 3692 004e FFF7FEFF 		bl	osal_printf
 3693              	.LVL468:
 3694 0052 F3E7     		b	.L229
 3695              	.LVL469:
 3696              	.L237:
 287:../switch_sdk/core/fal/tiger/fal_tiger_stat.c ****     
 3697              		.loc 1 287 5 discriminator 3 view .LVU921
 3698              	.LBE45:
 289:../switch_sdk/core/fal/tiger/fal_tiger_stat.c ****     HAL_FIELD_SET(FLOW_STATS_TBLm, FLOW_STATS_TBL_CNT1f, &entry, (count >> 32) & 0xFFFFFFFF);
 3699              		.loc 1 289 5 is_stmt 1 discriminator 3 view .LVU922
 3700              	.LBB46:
 289:../switch_sdk/core/fal/tiger/fal_tiger_stat.c ****     HAL_FIELD_SET(FLOW_STATS_TBLm, FLOW_STATS_TBL_CNT1f, &entry, (count >> 32) & 0xFFFFFFFF);
 3701              		.loc 1 289 5 discriminator 3 view .LVU923
 3702 0054 142B     		cmp	r3, #20
 3703 0056 28BF     		it	cs
 3704 0058 1423     		movcs	r3, #20
 3705 005a 1A46     		mov	r2, r3
 3706 005c 214B     		ldr	r3, .L241+16
 3707 005e 0093     		str	r3, [sp]
 3708 0060 214B     		ldr	r3, .L241+20
 3709 0062 1D49     		ldr	r1, .L241+4
 3710 0064 51F82220 		ldr	r2, [r1, r2, lsl #2]
 3711 0068 1C49     		ldr	r1, .L241+8
 3712 006a 8968     		ldr	r1, [r1, #8]
 3713 006c 1F48     		ldr	r0, .L241+24
 3714              	.LVL470:
 289:../switch_sdk/core/fal/tiger/fal_tiger_stat.c ****     HAL_FIELD_SET(FLOW_STATS_TBLm, FLOW_STATS_TBL_CNT1f, &entry, (count >> 32) & 0xFFFFFFFF);
 3715              		.loc 1 289 5 is_stmt 0 discriminator 3 view .LVU924
 3716 006e FFF7FEFF 		bl	osal_printf
 3717              	.LVL471:
 3718 0072 DDE7     		b	.L232
 3719              	.LVL472:
 3720              	.L231:
 289:../switch_sdk/core/fal/tiger/fal_tiger_stat.c ****     HAL_FIELD_SET(FLOW_STATS_TBLm, FLOW_STATS_TBL_CNT1f, &entry, (count >> 32) & 0xFFFFFFFF);
 3721              		.loc 1 289 5 discriminator 3 view .LVU925
 3722              	.LBE46:
 289:../switch_sdk/core/fal/tiger/fal_tiger_stat.c ****     HAL_FIELD_SET(FLOW_STATS_TBLm, FLOW_STATS_TBL_CNT1f, &entry, (count >> 32) & 0xFFFFFFFF);
 3723              		.loc 1 289 5 is_stmt 1 discriminator 2 view .LVU926
 290:../switch_sdk/core/fal/tiger/fal_tiger_stat.c ****     HAL_FIELD_SET(FLOW_STATS_TBLm, FLOW_STATS_TBL_CNT1f, &entry, (count >> 32) & 0xFFFFFFFF);
 3724              		.loc 1 290 5 discriminator 2 view .LVU927
 3725 0074 02AC     		add	r4, sp, #8
 3726 0076 4346     		mov	r3, r8
 3727 0078 2246     		mov	r2, r4
 3728 007a 0021     		movs	r1, #0
 3729 007c D020     		movs	r0, #208
 3730              	.LVL473:
 290:../switch_sdk/core/fal/tiger/fal_tiger_stat.c ****     HAL_FIELD_SET(FLOW_STATS_TBLm, FLOW_STATS_TBL_CNT1f, &entry, (count >> 32) & 0xFFFFFFFF);
 3731              		.loc 1 290 5 is_stmt 0 discriminator 2 view .LVU928
 3732 007e FFF7FEFF 		bl	hal_tbl_reg_field_set
 3733              	.LVL474:
 291:../switch_sdk/core/fal/tiger/fal_tiger_stat.c ****     CMM_ERR_CHK(HAL_TBL_REG_WRITE(unit, FLOW_STATS_TBLm, flow_id, sizeof(flow_stats_tbl_t), &entry)
 3734              		.loc 1 291 5 is_stmt 1 discriminator 2 view .LVU929
 3735 0082 3B46     		mov	r3, r7
 3736 0084 2246     		mov	r2, r4
 3737 0086 0121     		movs	r1, #1
 3738 0088 D020     		movs	r0, #208
 3739 008a FFF7FEFF 		bl	hal_tbl_reg_field_set
 3740              	.LVL475:
 292:../switch_sdk/core/fal/tiger/fal_tiger_stat.c ****    
 3741              		.loc 1 292 5 discriminator 2 view .LVU930
 292:../switch_sdk/core/fal/tiger/fal_tiger_stat.c ****    
 3742              		.loc 1 292 5 discriminator 2 view .LVU931
 3743 008e 0094     		str	r4, [sp]
 3744 0090 0823     		movs	r3, #8
 3745 0092 2A46     		mov	r2, r5
 3746 0094 D021     		movs	r1, #208
 3747 0096 3046     		mov	r0, r6
 3748 0098 FFF7FEFF 		bl	hal_table_reg_write
 3749              	.LVL476:
 3750 009c 0446     		mov	r4, r0
 3751              	.LVL477:
 292:../switch_sdk/core/fal/tiger/fal_tiger_stat.c ****    
 3752              		.loc 1 292 5 is_stmt 0 discriminator 2 view .LVU932
 3753 009e 10F0FF03 		ands	r3, r0, #255
 3754 00a2 01D1     		bne	.L239
 294:../switch_sdk/core/fal/tiger/fal_tiger_stat.c **** }
 3755              		.loc 1 294 12 view .LVU933
 3756 00a4 0020     		movs	r0, #0
 3757              	.LVL478:
 294:../switch_sdk/core/fal/tiger/fal_tiger_stat.c **** }
 3758              		.loc 1 294 12 view .LVU934
 3759 00a6 CAE7     		b	.L227
 3760              	.LVL479:
 3761              	.L239:
 292:../switch_sdk/core/fal/tiger/fal_tiger_stat.c ****    
 3762              		.loc 1 292 5 is_stmt 1 discriminator 1 view .LVU935
 292:../switch_sdk/core/fal/tiger/fal_tiger_stat.c ****    
 3763              		.loc 1 292 5 discriminator 1 view .LVU936
 3764 00a8 0A4A     		ldr	r2, .L241
 3765 00aa 1278     		ldrb	r2, [r2]	@ zero_extendqisi2
 3766 00ac 012A     		cmp	r2, #1
 3767 00ae 01D8     		bhi	.L240
 3768              	.LVL480:
 3769              	.L233:
 292:../switch_sdk/core/fal/tiger/fal_tiger_stat.c ****    
 3770              		.loc 1 292 5 discriminator 5 view .LVU937
 292:../switch_sdk/core/fal/tiger/fal_tiger_stat.c ****    
 3771              		.loc 1 292 5 discriminator 5 view .LVU938
 292:../switch_sdk/core/fal/tiger/fal_tiger_stat.c ****    
 3772              		.loc 1 292 5 discriminator 5 view .LVU939
 3773 00b0 E0B2     		uxtb	r0, r4
 3774 00b2 C4E7     		b	.L227
 3775              	.LVL481:
 3776              	.L240:
 292:../switch_sdk/core/fal/tiger/fal_tiger_stat.c ****    
 3777              		.loc 1 292 5 discriminator 3 view .LVU940
 3778              	.LBB47:
 292:../switch_sdk/core/fal/tiger/fal_tiger_stat.c ****    
 3779              		.loc 1 292 5 discriminator 3 view .LVU941
 3780 00b4 142B     		cmp	r3, #20
 3781 00b6 28BF     		it	cs
 3782 00b8 1423     		movcs	r3, #20
 3783 00ba 1A46     		mov	r2, r3
 3784 00bc 094B     		ldr	r3, .L241+16
 3785 00be 0093     		str	r3, [sp]
 3786 00c0 0B4B     		ldr	r3, .L241+28
 3787 00c2 0549     		ldr	r1, .L241+4
 3788 00c4 51F82220 		ldr	r2, [r1, r2, lsl #2]
 3789 00c8 0449     		ldr	r1, .L241+8
 3790 00ca 8968     		ldr	r1, [r1, #8]
 3791 00cc 0748     		ldr	r0, .L241+24
 3792              	.LVL482:
 292:../switch_sdk/core/fal/tiger/fal_tiger_stat.c ****    
 3793              		.loc 1 292 5 is_stmt 0 discriminator 3 view .LVU942
 3794 00ce FFF7FEFF 		bl	osal_printf
 3795              	.LVL483:
 3796 00d2 EDE7     		b	.L233
 3797              	.L242:
 3798              		.align	2
 3799              	.L241:
 3800 00d4 00000000 		.word	yt_debug_level
 3801 00d8 00000000 		.word	_yt_errmsg
 3802 00dc 00000000 		.word	_yt_prompt_msg
 3803 00e0 00000000 		.word	.LC25
 3804 00e4 00000000 		.word	__FUNCTION__.1
 3805 00e8 00000000 		.word	.LC28
 3806 00ec 3C000000 		.word	.LC1
 3807 00f0 48000000 		.word	.LC29
 3808              	.LBE47:
 3809              		.cfi_endproc
 3810              	.LFE14:
 3812              		.section	.text.fal_tiger_stat_flow_count_get,"ax",%progbits
 3813              		.align	1
 3814              		.global	fal_tiger_stat_flow_count_get
 3815              		.syntax unified
 3816              		.thumb
 3817              		.thumb_func
 3819              	fal_tiger_stat_flow_count_get:
 3820              	.LVL484:
 3821              	.LFB15:
 296:../switch_sdk/core/fal/tiger/fal_tiger_stat.c **** 
 297:../switch_sdk/core/fal/tiger/fal_tiger_stat.c **** yt_ret_t fal_tiger_stat_flow_count_get (yt_unit_t unit, uint32_t flow_id, uint64 *count)
 298:../switch_sdk/core/fal/tiger/fal_tiger_stat.c **** {
 3822              		.loc 1 298 1 is_stmt 1 view -0
 3823              		.cfi_startproc
 3824              		@ args = 0, pretend = 0, frame = 16
 3825              		@ frame_needed = 0, uses_anonymous_args = 0
 3826              		.loc 1 298 1 is_stmt 0 view .LVU944
 3827 0000 30B5     		push	{r4, r5, lr}
 3828              		.cfi_def_cfa_offset 12
 3829              		.cfi_offset 4, -12
 3830              		.cfi_offset 5, -8
 3831              		.cfi_offset 14, -4
 3832 0002 87B0     		sub	sp, sp, #28
 3833              		.cfi_def_cfa_offset 40
 299:../switch_sdk/core/fal/tiger/fal_tiger_stat.c ****     flow_stats_tbl_t entry;
 3834              		.loc 1 299 5 is_stmt 1 view .LVU945
 300:../switch_sdk/core/fal/tiger/fal_tiger_stat.c ****     cmm_err_t ret = CMM_ERR_OK;
 3835              		.loc 1 300 5 view .LVU946
 3836              	.LVL485:
 301:../switch_sdk/core/fal/tiger/fal_tiger_stat.c ****     uint32_t cnt0;
 3837              		.loc 1 301 5 view .LVU947
 302:../switch_sdk/core/fal/tiger/fal_tiger_stat.c ****     uint32_t cnt1;
 3838              		.loc 1 302 5 view .LVU948
 303:../switch_sdk/core/fal/tiger/fal_tiger_stat.c **** 
 304:../switch_sdk/core/fal/tiger/fal_tiger_stat.c ****     CMM_PARAM_CHK((CAL_FLOW_NUM_MAX <= flow_id), CMM_ERR_INPUT);
 3839              		.loc 1 304 5 view .LVU949
 3840              		.loc 1 304 5 view .LVU950
 3841 0004 3F29     		cmp	r1, #63
 3842 0006 11D8     		bhi	.L250
 3843 0008 1546     		mov	r5, r2
 3844              		.loc 1 304 5 discriminator 2 view .LVU951
 305:../switch_sdk/core/fal/tiger/fal_tiger_stat.c ****     
 306:../switch_sdk/core/fal/tiger/fal_tiger_stat.c ****     CMM_ERR_CHK(HAL_TBL_REG_READ(unit, FLOW_STATS_TBLm, flow_id, sizeof(flow_stats_tbl_t), &entry),
 3845              		.loc 1 306 5 discriminator 2 view .LVU952
 3846              		.loc 1 306 5 discriminator 2 view .LVU953
 3847 000a 04AB     		add	r3, sp, #16
 3848 000c 0093     		str	r3, [sp]
 3849 000e 0823     		movs	r3, #8
 3850 0010 0A46     		mov	r2, r1
 3851              	.LVL486:
 3852              		.loc 1 306 5 is_stmt 0 discriminator 2 view .LVU954
 3853 0012 D021     		movs	r1, #208
 3854              	.LVL487:
 3855              		.loc 1 306 5 discriminator 2 view .LVU955
 3856 0014 FFF7FEFF 		bl	hal_table_reg_read
 3857              	.LVL488:
 3858              		.loc 1 306 5 discriminator 2 view .LVU956
 3859 0018 0446     		mov	r4, r0
 3860              	.LVL489:
 3861              		.loc 1 306 5 discriminator 2 view .LVU957
 3862 001a 10F0FF03 		ands	r3, r0, #255
 3863 001e 24D0     		beq	.L247
 3864              		.loc 1 306 5 is_stmt 1 discriminator 1 view .LVU958
 3865              		.loc 1 306 5 discriminator 1 view .LVU959
 3866 0020 1B4A     		ldr	r2, .L253
 3867 0022 1278     		ldrb	r2, [r2]	@ zero_extendqisi2
 3868 0024 012A     		cmp	r2, #1
 3869 0026 10D8     		bhi	.L251
 3870              	.LVL490:
 3871              	.L248:
