   1              		.cpu cortex-m3
   2              		.arch armv7-m
   3              		.fpu softvfp
   4              		.eabi_attribute 20, 1
   5              		.eabi_attribute 21, 1
   6              		.eabi_attribute 23, 3
   7              		.eabi_attribute 24, 1
   8              		.eabi_attribute 25, 1
   9              		.eabi_attribute 26, 1
  10              		.eabi_attribute 30, 1
  11              		.eabi_attribute 34, 1
  12              		.eabi_attribute 18, 4
  13              		.file	"fal_tiger_stp.c"
  14              		.text
  15              	.Ltext0:
  16              		.cfi_sections	.debug_frame
  17              		.file 1 "../switch_sdk/core/fal/tiger/fal_tiger_stp.c"
  18              		.section	.rodata.fal_tiger_stp_state_set.str1.4,"aMS",%progbits,1
  19              		.align	2
  20              	.LC0:
  21 0000 25732573 		.ascii	"%s%s\015\012\000"
  21      0D0A00
  22 0007 00       		.align	2
  23              	.LC1:
  24 0008 68616C5F 		.ascii	"hal_table_reg_read(unit,122,stp_id,sizeof(l2_stp_st"
  24      7461626C 
  24      655F7265 
  24      675F7265 
  24      61642875 
  25 003b 6174656E 		.ascii	"aten_t),&l2_stp_staten)\000"
  25      5F74292C 
  25      266C325F 
  25      7374705F 
  25      73746174 
  26 0053 00       		.align	2
  27              	.LC2:
  28 0054 25732573 		.ascii	"%s%s of \"%s\" in %s\015\012\000"
  28      206F6620 
  28      22257322 
  28      20696E20 
  28      25730D0A 
  29 0069 000000   		.align	2
  30              	.LC3:
  31 006c 68616C5F 		.ascii	"hal_table_reg_write(unit,122,stp_id,sizeof(l2_stp_s"
  31      7461626C 
  31      655F7265 
  31      675F7772 
  31      69746528 
  32 009f 74617465 		.ascii	"taten_t),&l2_stp_staten)\000"
  32      6E5F7429 
  32      2C266C32 
  32      5F737470 
  32      5F737461 
  33              		.section	.text.fal_tiger_stp_state_set,"ax",%progbits
  34              		.align	1
  35              		.global	fal_tiger_stp_state_set
  36              		.syntax unified
  37              		.thumb
  38              		.thumb_func
  40              	fal_tiger_stp_state_set:
  41              	.LVL0:
  42              	.LFB3:
   1:../switch_sdk/core/fal/tiger/fal_tiger_stp.c **** /*
   2:../switch_sdk/core/fal/tiger/fal_tiger_stp.c ****  * Include Files
   3:../switch_sdk/core/fal/tiger/fal_tiger_stp.c ****  */
   4:../switch_sdk/core/fal/tiger/fal_tiger_stp.c **** #include "yt_error.h"
   5:../switch_sdk/core/fal/tiger/fal_tiger_stp.c **** //#include "osal_mem.h"
   6:../switch_sdk/core/fal/tiger/fal_tiger_stp.c **** //#include "osal_print.h"
   7:../switch_sdk/core/fal/tiger/fal_tiger_stp.c **** #include "fal_tiger_stp.h"
   8:../switch_sdk/core/fal/tiger/fal_tiger_stp.c **** #include "hal_mem.h"
   9:../switch_sdk/core/fal/tiger/fal_tiger_stp.c **** #include "fal_tiger_struct.h"
  10:../switch_sdk/core/fal/tiger/fal_tiger_stp.c **** #include "fal_tiger_entry.h"
  11:../switch_sdk/core/fal/tiger/fal_tiger_stp.c **** #include "fal_tiger_mem.h"
  12:../switch_sdk/core/fal/tiger/fal_tiger_stp.c **** 
  13:../switch_sdk/core/fal/tiger/fal_tiger_stp.c **** yt_ret_t fal_tiger_stp_state_set(yt_unit_t unit, yt_stp_id_t stp_id, yt_port_t port, yt_stp_state_t
  14:../switch_sdk/core/fal/tiger/fal_tiger_stp.c **** {
  43              		.loc 1 14 1 view -0
  44              		.cfi_startproc
  45              		@ args = 0, pretend = 0, frame = 8
  46              		@ frame_needed = 0, uses_anonymous_args = 0
  47              		.loc 1 14 1 is_stmt 0 view .LVU1
  48 0000 2DE9F041 		push	{r4, r5, r6, r7, r8, lr}
  49              		.cfi_def_cfa_offset 24
  50              		.cfi_offset 4, -24
  51              		.cfi_offset 5, -20
  52              		.cfi_offset 6, -16
  53              		.cfi_offset 7, -12
  54              		.cfi_offset 8, -8
  55              		.cfi_offset 14, -4
  56 0004 84B0     		sub	sp, sp, #16
  57              		.cfi_def_cfa_offset 40
  58 0006 0546     		mov	r5, r0
  59 0008 0E46     		mov	r6, r1
  60 000a 1F46     		mov	r7, r3
  15:../switch_sdk/core/fal/tiger/fal_tiger_stp.c ****     l2_stp_staten_t l2_stp_staten;
  61              		.loc 1 15 5 is_stmt 1 view .LVU2
  16:../switch_sdk/core/fal/tiger/fal_tiger_stp.c ****     cmm_err_t ret = CMM_ERR_OK;
  62              		.loc 1 16 5 view .LVU3
  63              	.LVL1:
  17:../switch_sdk/core/fal/tiger/fal_tiger_stp.c ****     yt_macid_t macid = CAL_YTP_TO_MAC(unit,port);
  64              		.loc 1 17 5 view .LVU4
  65              		.loc 1 17 24 is_stmt 0 view .LVU5
  66 000c 434B     		ldr	r3, .L18
  67              	.LVL2:
  68              		.loc 1 17 24 view .LVU6
  69 000e 1B78     		ldrb	r3, [r3]	@ zero_extendqisi2
  70 0010 5BB1     		cbz	r3, .L9
  71              		.loc 1 17 24 discriminator 1 view .LVU7
  72 0012 434B     		ldr	r3, .L18+4
  73 0014 53F82030 		ldr	r3, [r3, r0, lsl #2]
  74 0018 197D     		ldrb	r1, [r3, #20]	@ zero_extendqisi2
  75              	.LVL3:
  76              		.loc 1 17 24 discriminator 1 view .LVU8
  77 001a 9142     		cmp	r1, r2
  78 001c 21D9     		bls	.L10
  79              		.loc 1 17 24 discriminator 3 view .LVU9
  80 001e 0632     		adds	r2, r2, #6
  81              	.LVL4:
  82              		.loc 1 17 24 discriminator 3 view .LVU10
  83 0020 53F82230 		ldr	r3, [r3, r2, lsl #2]
  84 0024 93F80080 		ldrb	r8, [r3]	@ zero_extendqisi2
  85 0028 01E0     		b	.L2
  86              	.LVL5:
  87              	.L9:
  88              		.loc 1 17 24 view .LVU11
  89 002a 4FF0FF08 		mov	r8, #255
  90              	.LVL6:
  91              	.L2:
  18:../switch_sdk/core/fal/tiger/fal_tiger_stp.c ****     int32_t stpState;
  92              		.loc 1 18 5 is_stmt 1 discriminator 6 view .LVU12
  19:../switch_sdk/core/fal/tiger/fal_tiger_stp.c **** 
  20:../switch_sdk/core/fal/tiger/fal_tiger_stp.c ****     CMM_PARAM_CHK(CAL_MAX_VALUE_MSTI(unit) < stp_id, CMM_ERR_INPUT);
  93              		.loc 1 20 5 discriminator 6 view .LVU13
  94              		.loc 1 20 5 discriminator 6 view .LVU14
  95 002e 3C4B     		ldr	r3, .L18+4
  96 0030 53F82530 		ldr	r3, [r3, r5, lsl #2]
  97 0034 D3F8AC30 		ldr	r3, [r3, #172]
  98 0038 5B7A     		ldrb	r3, [r3, #9]	@ zero_extendqisi2
  99 003a B342     		cmp	r3, r6
 100 003c 14D3     		bcc	.L13
 101              		.loc 1 20 5 discriminator 2 view .LVU15
  21:../switch_sdk/core/fal/tiger/fal_tiger_stp.c ****     CMM_ERR_CHK(HAL_TBL_REG_READ(unit, L2_STP_STATENm, stp_id, sizeof(l2_stp_staten_t), &l2_stp_sta
 102              		.loc 1 21 5 discriminator 2 view .LVU16
 103              		.loc 1 21 5 discriminator 2 view .LVU17
 104 003e 03AB     		add	r3, sp, #12
 105 0040 0093     		str	r3, [sp]
 106 0042 0423     		movs	r3, #4
 107 0044 3246     		mov	r2, r6
 108 0046 7A21     		movs	r1, #122
 109 0048 2846     		mov	r0, r5
 110              	.LVL7:
 111              		.loc 1 21 5 is_stmt 0 discriminator 2 view .LVU18
 112 004a FFF7FEFF 		bl	hal_table_reg_read
 113              	.LVL8:
 114 004e 0446     		mov	r4, r0
 115              	.LVL9:
 116              		.loc 1 21 5 discriminator 2 view .LVU19
 117 0050 10F0FF03 		ands	r3, r0, #255
 118 0054 28D0     		beq	.L6
 119              		.loc 1 21 5 is_stmt 1 discriminator 1 view .LVU20
 120              		.loc 1 21 5 discriminator 1 view .LVU21
 121 0056 334A     		ldr	r2, .L18+8
 122 0058 1278     		ldrb	r2, [r2]	@ zero_extendqisi2
 123 005a 012A     		cmp	r2, #1
 124 005c 14D8     		bhi	.L14
 125              	.LVL10:
 126              	.L7:
 127              		.loc 1 21 5 discriminator 5 view .LVU22
 128              		.loc 1 21 5 discriminator 5 view .LVU23
 129              		.loc 1 21 5 discriminator 5 view .LVU24
 130 005e E0B2     		uxtb	r0, r4
 131 0060 07E0     		b	.L1
 132              	.LVL11:
 133              	.L10:
  17:../switch_sdk/core/fal/tiger/fal_tiger_stp.c ****     int32_t stpState;
 134              		.loc 1 17 24 is_stmt 0 view .LVU25
 135 0062 4FF0FF08 		mov	r8, #255
 136 0066 E2E7     		b	.L2
 137              	.LVL12:
 138              	.L13:
  20:../switch_sdk/core/fal/tiger/fal_tiger_stp.c ****     CMM_ERR_CHK(HAL_TBL_REG_READ(unit, L2_STP_STATENm, stp_id, sizeof(l2_stp_staten_t), &l2_stp_sta
 139              		.loc 1 20 5 is_stmt 1 discriminator 1 view .LVU26
  20:../switch_sdk/core/fal/tiger/fal_tiger_stp.c ****     CMM_ERR_CHK(HAL_TBL_REG_READ(unit, L2_STP_STATENm, stp_id, sizeof(l2_stp_staten_t), &l2_stp_sta
 140              		.loc 1 20 5 discriminator 1 view .LVU27
 141 0068 2E4B     		ldr	r3, .L18+8
 142 006a 1B78     		ldrb	r3, [r3]	@ zero_extendqisi2
 143 006c 012B     		cmp	r3, #1
 144 006e 03D8     		bhi	.L15
 145              	.LVL13:
 146              	.L4:
  20:../switch_sdk/core/fal/tiger/fal_tiger_stp.c ****     CMM_ERR_CHK(HAL_TBL_REG_READ(unit, L2_STP_STATENm, stp_id, sizeof(l2_stp_staten_t), &l2_stp_sta
 147              		.loc 1 20 5 discriminator 5 view .LVU28
  20:../switch_sdk/core/fal/tiger/fal_tiger_stp.c ****     CMM_ERR_CHK(HAL_TBL_REG_READ(unit, L2_STP_STATENm, stp_id, sizeof(l2_stp_staten_t), &l2_stp_sta
 148              		.loc 1 20 5 discriminator 5 view .LVU29
  20:../switch_sdk/core/fal/tiger/fal_tiger_stp.c ****     CMM_ERR_CHK(HAL_TBL_REG_READ(unit, L2_STP_STATENm, stp_id, sizeof(l2_stp_staten_t), &l2_stp_sta
 149              		.loc 1 20 5 discriminator 5 view .LVU30
 150 0070 0520     		movs	r0, #5
 151              	.LVL14:
 152              	.L1:
  22:../switch_sdk/core/fal/tiger/fal_tiger_stp.c ****     HAL_FIELD_GET(L2_STP_STATENm, L2_STP_STATEN_STATEf, &l2_stp_staten, &stpState);
  23:../switch_sdk/core/fal/tiger/fal_tiger_stp.c ****     stpState &= ~(0x3 <<(macid << 1));
  24:../switch_sdk/core/fal/tiger/fal_tiger_stp.c ****     stpState |= (state <<(macid << 1));
  25:../switch_sdk/core/fal/tiger/fal_tiger_stp.c ****     HAL_FIELD_SET(L2_STP_STATENm, L2_STP_STATEN_STATEf, &l2_stp_staten, stpState);
  26:../switch_sdk/core/fal/tiger/fal_tiger_stp.c ****     CMM_ERR_CHK(HAL_TBL_REG_WRITE(unit, L2_STP_STATENm, stp_id, sizeof(l2_stp_staten_t), &l2_stp_st
  27:../switch_sdk/core/fal/tiger/fal_tiger_stp.c **** 
  28:../switch_sdk/core/fal/tiger/fal_tiger_stp.c ****     return CMM_ERR_OK;
  29:../switch_sdk/core/fal/tiger/fal_tiger_stp.c **** }
 153              		.loc 1 29 1 is_stmt 0 view .LVU31
 154 0072 04B0     		add	sp, sp, #16
 155              		.cfi_remember_state
 156              		.cfi_def_cfa_offset 24
 157              		@ sp needed
 158 0074 BDE8F081 		pop	{r4, r5, r6, r7, r8, pc}
 159              	.LVL15:
 160              	.L15:
 161              		.cfi_restore_state
  20:../switch_sdk/core/fal/tiger/fal_tiger_stp.c ****     CMM_ERR_CHK(HAL_TBL_REG_READ(unit, L2_STP_STATENm, stp_id, sizeof(l2_stp_staten_t), &l2_stp_sta
 162              		.loc 1 20 5 is_stmt 1 discriminator 3 view .LVU32
 163              	.LBB2:
  20:../switch_sdk/core/fal/tiger/fal_tiger_stp.c ****     CMM_ERR_CHK(HAL_TBL_REG_READ(unit, L2_STP_STATENm, stp_id, sizeof(l2_stp_staten_t), &l2_stp_sta
 164              		.loc 1 20 5 discriminator 3 view .LVU33
 165 0078 2B4B     		ldr	r3, .L18+12
 166 007a 5A69     		ldr	r2, [r3, #20]
 167 007c 2B4B     		ldr	r3, .L18+16
 168 007e 9968     		ldr	r1, [r3, #8]
 169 0080 2B48     		ldr	r0, .L18+20
 170              	.LVL16:
  20:../switch_sdk/core/fal/tiger/fal_tiger_stp.c ****     CMM_ERR_CHK(HAL_TBL_REG_READ(unit, L2_STP_STATENm, stp_id, sizeof(l2_stp_staten_t), &l2_stp_sta
 171              		.loc 1 20 5 is_stmt 0 discriminator 3 view .LVU34
 172 0082 FFF7FEFF 		bl	osal_printf
 173              	.LVL17:
 174 0086 F3E7     		b	.L4
 175              	.LVL18:
 176              	.L14:
  20:../switch_sdk/core/fal/tiger/fal_tiger_stp.c ****     CMM_ERR_CHK(HAL_TBL_REG_READ(unit, L2_STP_STATENm, stp_id, sizeof(l2_stp_staten_t), &l2_stp_sta
 177              		.loc 1 20 5 discriminator 3 view .LVU35
 178              	.LBE2:
  21:../switch_sdk/core/fal/tiger/fal_tiger_stp.c ****     HAL_FIELD_GET(L2_STP_STATENm, L2_STP_STATEN_STATEf, &l2_stp_staten, &stpState);
 179              		.loc 1 21 5 is_stmt 1 discriminator 3 view .LVU36
 180              	.LBB3:
  21:../switch_sdk/core/fal/tiger/fal_tiger_stp.c ****     HAL_FIELD_GET(L2_STP_STATENm, L2_STP_STATEN_STATEf, &l2_stp_staten, &stpState);
 181              		.loc 1 21 5 discriminator 3 view .LVU37
 182 0088 142B     		cmp	r3, #20
 183 008a 28BF     		it	cs
 184 008c 1423     		movcs	r3, #20
 185 008e 1A46     		mov	r2, r3
 186 0090 284B     		ldr	r3, .L18+24
 187 0092 0093     		str	r3, [sp]
 188 0094 284B     		ldr	r3, .L18+28
 189 0096 2449     		ldr	r1, .L18+12
 190 0098 51F82220 		ldr	r2, [r1, r2, lsl #2]
 191 009c 2349     		ldr	r1, .L18+16
 192 009e 8968     		ldr	r1, [r1, #8]
 193 00a0 2648     		ldr	r0, .L18+32
 194              	.LVL19:
  21:../switch_sdk/core/fal/tiger/fal_tiger_stp.c ****     HAL_FIELD_GET(L2_STP_STATENm, L2_STP_STATEN_STATEf, &l2_stp_staten, &stpState);
 195              		.loc 1 21 5 is_stmt 0 discriminator 3 view .LVU38
 196 00a2 FFF7FEFF 		bl	osal_printf
 197              	.LVL20:
 198 00a6 DAE7     		b	.L7
 199              	.LVL21:
 200              	.L6:
  21:../switch_sdk/core/fal/tiger/fal_tiger_stp.c ****     HAL_FIELD_GET(L2_STP_STATENm, L2_STP_STATEN_STATEf, &l2_stp_staten, &stpState);
 201              		.loc 1 21 5 discriminator 3 view .LVU39
 202              	.LBE3:
  21:../switch_sdk/core/fal/tiger/fal_tiger_stp.c ****     HAL_FIELD_GET(L2_STP_STATENm, L2_STP_STATEN_STATEf, &l2_stp_staten, &stpState);
 203              		.loc 1 21 5 is_stmt 1 discriminator 2 view .LVU40
  22:../switch_sdk/core/fal/tiger/fal_tiger_stp.c ****     HAL_FIELD_GET(L2_STP_STATENm, L2_STP_STATEN_STATEf, &l2_stp_staten, &stpState);
 204              		.loc 1 22 5 discriminator 2 view .LVU41
 205              	.LBB4:
  22:../switch_sdk/core/fal/tiger/fal_tiger_stp.c ****     HAL_FIELD_GET(L2_STP_STATENm, L2_STP_STATEN_STATEf, &l2_stp_staten, &stpState);
 206              		.loc 1 22 5 discriminator 2 view .LVU42
  22:../switch_sdk/core/fal/tiger/fal_tiger_stp.c ****     HAL_FIELD_GET(L2_STP_STATENm, L2_STP_STATEN_STATEf, &l2_stp_staten, &stpState);
 207              		.loc 1 22 5 discriminator 2 view .LVU43
 208 00a8 03AC     		add	r4, sp, #12
 209 00aa 02AB     		add	r3, sp, #8
 210 00ac 2246     		mov	r2, r4
 211 00ae 0021     		movs	r1, #0
 212 00b0 7A20     		movs	r0, #122
 213              	.LVL22:
  22:../switch_sdk/core/fal/tiger/fal_tiger_stp.c ****     HAL_FIELD_GET(L2_STP_STATENm, L2_STP_STATEN_STATEf, &l2_stp_staten, &stpState);
 214              		.loc 1 22 5 is_stmt 0 discriminator 2 view .LVU44
 215 00b2 FFF7FEFF 		bl	hal_tbl_reg_field_get
 216              	.LVL23:
  22:../switch_sdk/core/fal/tiger/fal_tiger_stp.c ****     HAL_FIELD_GET(L2_STP_STATENm, L2_STP_STATEN_STATEf, &l2_stp_staten, &stpState);
 217              		.loc 1 22 5 is_stmt 1 discriminator 2 view .LVU45
  22:../switch_sdk/core/fal/tiger/fal_tiger_stp.c ****     HAL_FIELD_GET(L2_STP_STATENm, L2_STP_STATEN_STATEf, &l2_stp_staten, &stpState);
 218              		.loc 1 22 5 is_stmt 0 discriminator 2 view .LVU46
 219              	.LBE4:
  22:../switch_sdk/core/fal/tiger/fal_tiger_stp.c ****     HAL_FIELD_GET(L2_STP_STATENm, L2_STP_STATEN_STATEf, &l2_stp_staten, &stpState);
 220              		.loc 1 22 5 is_stmt 1 discriminator 2 view .LVU47
  23:../switch_sdk/core/fal/tiger/fal_tiger_stp.c ****     stpState |= (state <<(macid << 1));
 221              		.loc 1 23 5 discriminator 2 view .LVU48
  23:../switch_sdk/core/fal/tiger/fal_tiger_stp.c ****     stpState |= (state <<(macid << 1));
 222              		.loc 1 23 32 is_stmt 0 discriminator 2 view .LVU49
 223 00b6 4FEA4808 		lsl	r8, r8, #1
 224              	.LVL24:
  23:../switch_sdk/core/fal/tiger/fal_tiger_stp.c ****     stpState |= (state <<(macid << 1));
 225              		.loc 1 23 23 discriminator 2 view .LVU50
 226 00ba 0322     		movs	r2, #3
 227 00bc 02FA08F2 		lsl	r2, r2, r8
  23:../switch_sdk/core/fal/tiger/fal_tiger_stp.c ****     stpState |= (state <<(macid << 1));
 228              		.loc 1 23 14 discriminator 2 view .LVU51
 229 00c0 029B     		ldr	r3, [sp, #8]
 230 00c2 23EA0203 		bic	r3, r3, r2
 231              	.LVL25:
  24:../switch_sdk/core/fal/tiger/fal_tiger_stp.c ****     HAL_FIELD_SET(L2_STP_STATENm, L2_STP_STATEN_STATEf, &l2_stp_staten, stpState);
 232              		.loc 1 24 5 is_stmt 1 discriminator 2 view .LVU52
  24:../switch_sdk/core/fal/tiger/fal_tiger_stp.c ****     HAL_FIELD_SET(L2_STP_STATENm, L2_STP_STATEN_STATEf, &l2_stp_staten, stpState);
 233              		.loc 1 24 24 is_stmt 0 discriminator 2 view .LVU53
 234 00c6 07FA08F7 		lsl	r7, r7, r8
 235              	.LVL26:
  25:../switch_sdk/core/fal/tiger/fal_tiger_stp.c ****     CMM_ERR_CHK(HAL_TBL_REG_WRITE(unit, L2_STP_STATENm, stp_id, sizeof(l2_stp_staten_t), &l2_stp_st
 236              		.loc 1 25 5 is_stmt 1 discriminator 2 view .LVU54
 237 00ca 3B43     		orrs	r3, r3, r7
 238              	.LVL27:
  25:../switch_sdk/core/fal/tiger/fal_tiger_stp.c ****     CMM_ERR_CHK(HAL_TBL_REG_WRITE(unit, L2_STP_STATENm, stp_id, sizeof(l2_stp_staten_t), &l2_stp_st
 239              		.loc 1 25 5 is_stmt 0 discriminator 2 view .LVU55
 240 00cc 2246     		mov	r2, r4
 241 00ce 0021     		movs	r1, #0
 242 00d0 7A20     		movs	r0, #122
 243 00d2 FFF7FEFF 		bl	hal_tbl_reg_field_set
 244              	.LVL28:
  26:../switch_sdk/core/fal/tiger/fal_tiger_stp.c **** 
 245              		.loc 1 26 5 is_stmt 1 discriminator 2 view .LVU56
  26:../switch_sdk/core/fal/tiger/fal_tiger_stp.c **** 
 246              		.loc 1 26 5 discriminator 2 view .LVU57
 247 00d6 0094     		str	r4, [sp]
 248 00d8 0423     		movs	r3, #4
 249 00da 3246     		mov	r2, r6
 250 00dc 7A21     		movs	r1, #122
 251 00de 2846     		mov	r0, r5
 252 00e0 FFF7FEFF 		bl	hal_table_reg_write
 253              	.LVL29:
 254 00e4 0446     		mov	r4, r0
 255              	.LVL30:
  26:../switch_sdk/core/fal/tiger/fal_tiger_stp.c **** 
 256              		.loc 1 26 5 is_stmt 0 discriminator 2 view .LVU58
 257 00e6 10F0FF03 		ands	r3, r0, #255
 258 00ea 01D1     		bne	.L16
  28:../switch_sdk/core/fal/tiger/fal_tiger_stp.c **** }
 259              		.loc 1 28 12 view .LVU59
 260 00ec 0020     		movs	r0, #0
 261              	.LVL31:
  28:../switch_sdk/core/fal/tiger/fal_tiger_stp.c **** }
 262              		.loc 1 28 12 view .LVU60
 263 00ee C0E7     		b	.L1
 264              	.LVL32:
 265              	.L16:
  26:../switch_sdk/core/fal/tiger/fal_tiger_stp.c **** 
 266              		.loc 1 26 5 is_stmt 1 discriminator 1 view .LVU61
  26:../switch_sdk/core/fal/tiger/fal_tiger_stp.c **** 
 267              		.loc 1 26 5 discriminator 1 view .LVU62
 268 00f0 0C4A     		ldr	r2, .L18+8
 269 00f2 1278     		ldrb	r2, [r2]	@ zero_extendqisi2
 270 00f4 012A     		cmp	r2, #1
 271 00f6 01D8     		bhi	.L17
 272              	.LVL33:
 273              	.L8:
  26:../switch_sdk/core/fal/tiger/fal_tiger_stp.c **** 
 274              		.loc 1 26 5 discriminator 5 view .LVU63
  26:../switch_sdk/core/fal/tiger/fal_tiger_stp.c **** 
 275              		.loc 1 26 5 discriminator 5 view .LVU64
  26:../switch_sdk/core/fal/tiger/fal_tiger_stp.c **** 
 276              		.loc 1 26 5 discriminator 5 view .LVU65
 277 00f8 E0B2     		uxtb	r0, r4
 278 00fa BAE7     		b	.L1
 279              	.LVL34:
 280              	.L17:
  26:../switch_sdk/core/fal/tiger/fal_tiger_stp.c **** 
 281              		.loc 1 26 5 discriminator 3 view .LVU66
 282              	.LBB5:
  26:../switch_sdk/core/fal/tiger/fal_tiger_stp.c **** 
 283              		.loc 1 26 5 discriminator 3 view .LVU67
 284 00fc 142B     		cmp	r3, #20
 285 00fe 28BF     		it	cs
 286 0100 1423     		movcs	r3, #20
 287 0102 1A46     		mov	r2, r3
 288 0104 0B4B     		ldr	r3, .L18+24
 289 0106 0093     		str	r3, [sp]
 290 0108 0D4B     		ldr	r3, .L18+36
 291 010a 0749     		ldr	r1, .L18+12
 292 010c 51F82220 		ldr	r2, [r1, r2, lsl #2]
 293 0110 0649     		ldr	r1, .L18+16
 294 0112 8968     		ldr	r1, [r1, #8]
 295 0114 0948     		ldr	r0, .L18+32
 296              	.LVL35:
  26:../switch_sdk/core/fal/tiger/fal_tiger_stp.c **** 
 297              		.loc 1 26 5 is_stmt 0 discriminator 3 view .LVU68
 298 0116 FFF7FEFF 		bl	osal_printf
 299              	.LVL36:
 300 011a EDE7     		b	.L8
 301              	.L19:
 302              		.align	2
 303              	.L18:
 304 011c 00000000 		.word	gcal_inited
 305 0120 00000000 		.word	gpSwitchUnit
 306 0124 00000000 		.word	yt_debug_level
 307 0128 00000000 		.word	_yt_errmsg
 308 012c 00000000 		.word	_yt_prompt_msg
 309 0130 00000000 		.word	.LC0
 310 0134 00000000 		.word	__FUNCTION__.3
 311 0138 08000000 		.word	.LC1
 312 013c 54000000 		.word	.LC2
 313 0140 6C000000 		.word	.LC3
 314              	.LBE5:
 315              		.cfi_endproc
 316              	.LFE3:
 318              		.section	.text.fal_tiger_stp_state_get,"ax",%progbits
 319              		.align	1
 320              		.global	fal_tiger_stp_state_get
 321              		.syntax unified
 322              		.thumb
 323              		.thumb_func
 325              	fal_tiger_stp_state_get:
 326              	.LVL37:
 327              	.LFB4:
  30:../switch_sdk/core/fal/tiger/fal_tiger_stp.c **** 
  31:../switch_sdk/core/fal/tiger/fal_tiger_stp.c **** yt_ret_t fal_tiger_stp_state_get(yt_unit_t unit, yt_stp_id_t stp_id, yt_port_t port, yt_stp_state_t
  32:../switch_sdk/core/fal/tiger/fal_tiger_stp.c **** {
 328              		.loc 1 32 1 is_stmt 1 view -0
 329              		.cfi_startproc
 330              		@ args = 0, pretend = 0, frame = 8
 331              		@ frame_needed = 0, uses_anonymous_args = 0
 332              		.loc 1 32 1 is_stmt 0 view .LVU70
 333 0000 70B5     		push	{r4, r5, r6, lr}
 334              		.cfi_def_cfa_offset 16
 335              		.cfi_offset 4, -16
 336              		.cfi_offset 5, -12
 337              		.cfi_offset 6, -8
 338              		.cfi_offset 14, -4
 339 0002 84B0     		sub	sp, sp, #16
 340              		.cfi_def_cfa_offset 32
 341 0004 1D46     		mov	r5, r3
  33:../switch_sdk/core/fal/tiger/fal_tiger_stp.c ****     l2_stp_staten_t l2_stp_staten;
 342              		.loc 1 33 5 is_stmt 1 view .LVU71
  34:../switch_sdk/core/fal/tiger/fal_tiger_stp.c ****     cmm_err_t ret = CMM_ERR_OK;
 343              		.loc 1 34 5 view .LVU72
 344              	.LVL38:
  35:../switch_sdk/core/fal/tiger/fal_tiger_stp.c ****     yt_macid_t macid = CAL_YTP_TO_MAC(unit,port);
 345              		.loc 1 35 5 view .LVU73
 346              		.loc 1 35 24 is_stmt 0 view .LVU74
 347 0006 2B4B     		ldr	r3, .L33
 348              	.LVL39:
 349              		.loc 1 35 24 view .LVU75
 350 0008 1B78     		ldrb	r3, [r3]	@ zero_extendqisi2
 351 000a 53B1     		cbz	r3, .L27
 352              		.loc 1 35 24 discriminator 1 view .LVU76
 353 000c 2A4B     		ldr	r3, .L33+4
 354 000e 53F82030 		ldr	r3, [r3, r0, lsl #2]
 355 0012 1C7D     		ldrb	r4, [r3, #20]	@ zero_extendqisi2
 356 0014 9442     		cmp	r4, r2
 357 0016 1ED9     		bls	.L28
 358              		.loc 1 35 24 discriminator 3 view .LVU77
 359 0018 0632     		adds	r2, r2, #6
 360              	.LVL40:
 361              		.loc 1 35 24 discriminator 3 view .LVU78
 362 001a 53F82230 		ldr	r3, [r3, r2, lsl #2]
 363 001e 1E78     		ldrb	r6, [r3]	@ zero_extendqisi2
 364 0020 00E0     		b	.L21
 365              	.LVL41:
 366              	.L27:
 367              		.loc 1 35 24 view .LVU79
 368 0022 FF26     		movs	r6, #255
 369              	.LVL42:
 370              	.L21:
  36:../switch_sdk/core/fal/tiger/fal_tiger_stp.c ****     int32_t stpState;
 371              		.loc 1 36 5 is_stmt 1 discriminator 6 view .LVU80
  37:../switch_sdk/core/fal/tiger/fal_tiger_stp.c **** 
  38:../switch_sdk/core/fal/tiger/fal_tiger_stp.c ****     CMM_PARAM_CHK(CAL_MAX_VALUE_MSTI(unit) < stp_id, CMM_ERR_INPUT);
 372              		.loc 1 38 5 discriminator 6 view .LVU81
 373              		.loc 1 38 5 discriminator 6 view .LVU82
 374 0024 244B     		ldr	r3, .L33+4
 375 0026 53F82030 		ldr	r3, [r3, r0, lsl #2]
 376 002a D3F8AC30 		ldr	r3, [r3, #172]
 377 002e 5B7A     		ldrb	r3, [r3, #9]	@ zero_extendqisi2
 378 0030 8B42     		cmp	r3, r1
 379 0032 12D3     		bcc	.L30
 380              		.loc 1 38 5 discriminator 2 view .LVU83
  39:../switch_sdk/core/fal/tiger/fal_tiger_stp.c ****     CMM_ERR_CHK(HAL_TBL_REG_READ(unit, L2_STP_STATENm, stp_id, sizeof(l2_stp_staten_t), &l2_stp_sta
 381              		.loc 1 39 5 discriminator 2 view .LVU84
 382              		.loc 1 39 5 discriminator 2 view .LVU85
 383 0034 03AB     		add	r3, sp, #12
 384 0036 0093     		str	r3, [sp]
 385 0038 0423     		movs	r3, #4
 386 003a 0A46     		mov	r2, r1
 387 003c 7A21     		movs	r1, #122
 388              	.LVL43:
 389              		.loc 1 39 5 is_stmt 0 discriminator 2 view .LVU86
 390 003e FFF7FEFF 		bl	hal_table_reg_read
 391              	.LVL44:
 392              		.loc 1 39 5 discriminator 2 view .LVU87
 393 0042 0446     		mov	r4, r0
 394              	.LVL45:
 395              		.loc 1 39 5 discriminator 2 view .LVU88
 396 0044 10F0FF03 		ands	r3, r0, #255
 397 0048 26D0     		beq	.L25
 398              		.loc 1 39 5 is_stmt 1 discriminator 1 view .LVU89
 399              		.loc 1 39 5 discriminator 1 view .LVU90
 400 004a 1C4A     		ldr	r2, .L33+8
 401 004c 1278     		ldrb	r2, [r2]	@ zero_extendqisi2
 402 004e 012A     		cmp	r2, #1
 403 0050 12D8     		bhi	.L31
 404              	.LVL46:
 405              	.L26:
 406              		.loc 1 39 5 discriminator 5 view .LVU91
 407              		.loc 1 39 5 discriminator 5 view .LVU92
 408              		.loc 1 39 5 discriminator 5 view .LVU93
 409 0052 E0B2     		uxtb	r0, r4
 410 0054 06E0     		b	.L20
 411              	.LVL47:
 412              	.L28:
  35:../switch_sdk/core/fal/tiger/fal_tiger_stp.c ****     int32_t stpState;
 413              		.loc 1 35 24 is_stmt 0 view .LVU94
 414 0056 FF26     		movs	r6, #255
 415 0058 E4E7     		b	.L21
 416              	.LVL48:
 417              	.L30:
  38:../switch_sdk/core/fal/tiger/fal_tiger_stp.c ****     CMM_ERR_CHK(HAL_TBL_REG_READ(unit, L2_STP_STATENm, stp_id, sizeof(l2_stp_staten_t), &l2_stp_sta
 418              		.loc 1 38 5 is_stmt 1 discriminator 1 view .LVU95
  38:../switch_sdk/core/fal/tiger/fal_tiger_stp.c ****     CMM_ERR_CHK(HAL_TBL_REG_READ(unit, L2_STP_STATENm, stp_id, sizeof(l2_stp_staten_t), &l2_stp_sta
 419              		.loc 1 38 5 discriminator 1 view .LVU96
 420 005a 184B     		ldr	r3, .L33+8
 421 005c 1B78     		ldrb	r3, [r3]	@ zero_extendqisi2
 422 005e 012B     		cmp	r3, #1
 423 0060 02D8     		bhi	.L32
 424              	.LVL49:
 425              	.L23:
  38:../switch_sdk/core/fal/tiger/fal_tiger_stp.c ****     CMM_ERR_CHK(HAL_TBL_REG_READ(unit, L2_STP_STATENm, stp_id, sizeof(l2_stp_staten_t), &l2_stp_sta
 426              		.loc 1 38 5 discriminator 5 view .LVU97
  38:../switch_sdk/core/fal/tiger/fal_tiger_stp.c ****     CMM_ERR_CHK(HAL_TBL_REG_READ(unit, L2_STP_STATENm, stp_id, sizeof(l2_stp_staten_t), &l2_stp_sta
 427              		.loc 1 38 5 discriminator 5 view .LVU98
  38:../switch_sdk/core/fal/tiger/fal_tiger_stp.c ****     CMM_ERR_CHK(HAL_TBL_REG_READ(unit, L2_STP_STATENm, stp_id, sizeof(l2_stp_staten_t), &l2_stp_sta
 428              		.loc 1 38 5 discriminator 5 view .LVU99
 429 0062 0520     		movs	r0, #5
 430              	.LVL50:
 431              	.L20:
  40:../switch_sdk/core/fal/tiger/fal_tiger_stp.c ****     HAL_FIELD_GET(L2_STP_STATENm, L2_STP_STATEN_STATEf, &l2_stp_staten, &stpState);
  41:../switch_sdk/core/fal/tiger/fal_tiger_stp.c ****     *pState = 0x3 & (stpState >> (macid << 1));
  42:../switch_sdk/core/fal/tiger/fal_tiger_stp.c **** 
  43:../switch_sdk/core/fal/tiger/fal_tiger_stp.c ****     return CMM_ERR_OK;
  44:../switch_sdk/core/fal/tiger/fal_tiger_stp.c **** }
 432              		.loc 1 44 1 is_stmt 0 view .LVU100
 433 0064 04B0     		add	sp, sp, #16
 434              		.cfi_remember_state
 435              		.cfi_def_cfa_offset 16
 436              		@ sp needed
 437 0066 70BD     		pop	{r4, r5, r6, pc}
 438              	.LVL51:
 439              	.L32:
 440              		.cfi_restore_state
  38:../switch_sdk/core/fal/tiger/fal_tiger_stp.c ****     CMM_ERR_CHK(HAL_TBL_REG_READ(unit, L2_STP_STATENm, stp_id, sizeof(l2_stp_staten_t), &l2_stp_sta
 441              		.loc 1 38 5 is_stmt 1 discriminator 3 view .LVU101
 442              	.LBB6:
  38:../switch_sdk/core/fal/tiger/fal_tiger_stp.c ****     CMM_ERR_CHK(HAL_TBL_REG_READ(unit, L2_STP_STATENm, stp_id, sizeof(l2_stp_staten_t), &l2_stp_sta
 443              		.loc 1 38 5 discriminator 3 view .LVU102
 444 0068 154B     		ldr	r3, .L33+12
 445 006a 5A69     		ldr	r2, [r3, #20]
 446 006c 154B     		ldr	r3, .L33+16
 447 006e 9968     		ldr	r1, [r3, #8]
 448              	.LVL52:
  38:../switch_sdk/core/fal/tiger/fal_tiger_stp.c ****     CMM_ERR_CHK(HAL_TBL_REG_READ(unit, L2_STP_STATENm, stp_id, sizeof(l2_stp_staten_t), &l2_stp_sta
 449              		.loc 1 38 5 is_stmt 0 discriminator 3 view .LVU103
 450 0070 1548     		ldr	r0, .L33+20
 451              	.LVL53:
  38:../switch_sdk/core/fal/tiger/fal_tiger_stp.c ****     CMM_ERR_CHK(HAL_TBL_REG_READ(unit, L2_STP_STATENm, stp_id, sizeof(l2_stp_staten_t), &l2_stp_sta
 452              		.loc 1 38 5 discriminator 3 view .LVU104
 453 0072 FFF7FEFF 		bl	osal_printf
 454              	.LVL54:
 455 0076 F4E7     		b	.L23
 456              	.LVL55:
 457              	.L31:
  38:../switch_sdk/core/fal/tiger/fal_tiger_stp.c ****     CMM_ERR_CHK(HAL_TBL_REG_READ(unit, L2_STP_STATENm, stp_id, sizeof(l2_stp_staten_t), &l2_stp_sta
 458              		.loc 1 38 5 discriminator 3 view .LVU105
 459              	.LBE6:
  39:../switch_sdk/core/fal/tiger/fal_tiger_stp.c ****     HAL_FIELD_GET(L2_STP_STATENm, L2_STP_STATEN_STATEf, &l2_stp_staten, &stpState);
 460              		.loc 1 39 5 is_stmt 1 discriminator 3 view .LVU106
 461              	.LBB7:
  39:../switch_sdk/core/fal/tiger/fal_tiger_stp.c ****     HAL_FIELD_GET(L2_STP_STATENm, L2_STP_STATEN_STATEf, &l2_stp_staten, &stpState);
 462              		.loc 1 39 5 discriminator 3 view .LVU107
 463 0078 142B     		cmp	r3, #20
 464 007a 28BF     		it	cs
 465 007c 1423     		movcs	r3, #20
 466 007e 1A46     		mov	r2, r3
 467 0080 124B     		ldr	r3, .L33+24
 468 0082 0093     		str	r3, [sp]
 469 0084 124B     		ldr	r3, .L33+28
 470 0086 0E49     		ldr	r1, .L33+12
 471 0088 51F82220 		ldr	r2, [r1, r2, lsl #2]
 472 008c 0D49     		ldr	r1, .L33+16
 473 008e 8968     		ldr	r1, [r1, #8]
 474 0090 1048     		ldr	r0, .L33+32
 475              	.LVL56:
  39:../switch_sdk/core/fal/tiger/fal_tiger_stp.c ****     HAL_FIELD_GET(L2_STP_STATENm, L2_STP_STATEN_STATEf, &l2_stp_staten, &stpState);
 476              		.loc 1 39 5 is_stmt 0 discriminator 3 view .LVU108
 477 0092 FFF7FEFF 		bl	osal_printf
 478              	.LVL57:
 479 0096 DCE7     		b	.L26
 480              	.LVL58:
 481              	.L25:
  39:../switch_sdk/core/fal/tiger/fal_tiger_stp.c ****     HAL_FIELD_GET(L2_STP_STATENm, L2_STP_STATEN_STATEf, &l2_stp_staten, &stpState);
 482              		.loc 1 39 5 discriminator 3 view .LVU109
 483              	.LBE7:
  39:../switch_sdk/core/fal/tiger/fal_tiger_stp.c ****     HAL_FIELD_GET(L2_STP_STATENm, L2_STP_STATEN_STATEf, &l2_stp_staten, &stpState);
 484              		.loc 1 39 5 is_stmt 1 discriminator 2 view .LVU110
  40:../switch_sdk/core/fal/tiger/fal_tiger_stp.c ****     HAL_FIELD_GET(L2_STP_STATENm, L2_STP_STATEN_STATEf, &l2_stp_staten, &stpState);
 485              		.loc 1 40 5 discriminator 2 view .LVU111
 486              	.LBB8:
  40:../switch_sdk/core/fal/tiger/fal_tiger_stp.c ****     HAL_FIELD_GET(L2_STP_STATENm, L2_STP_STATEN_STATEf, &l2_stp_staten, &stpState);
 487              		.loc 1 40 5 discriminator 2 view .LVU112
  40:../switch_sdk/core/fal/tiger/fal_tiger_stp.c ****     HAL_FIELD_GET(L2_STP_STATENm, L2_STP_STATEN_STATEf, &l2_stp_staten, &stpState);
 488              		.loc 1 40 5 discriminator 2 view .LVU113
 489 0098 02AB     		add	r3, sp, #8
 490 009a 03AA     		add	r2, sp, #12
 491 009c 0021     		movs	r1, #0
 492 009e 7A20     		movs	r0, #122
 493              	.LVL59:
  40:../switch_sdk/core/fal/tiger/fal_tiger_stp.c ****     HAL_FIELD_GET(L2_STP_STATENm, L2_STP_STATEN_STATEf, &l2_stp_staten, &stpState);
 494              		.loc 1 40 5 is_stmt 0 discriminator 2 view .LVU114
 495 00a0 FFF7FEFF 		bl	hal_tbl_reg_field_get
 496              	.LVL60:
  40:../switch_sdk/core/fal/tiger/fal_tiger_stp.c ****     HAL_FIELD_GET(L2_STP_STATENm, L2_STP_STATEN_STATEf, &l2_stp_staten, &stpState);
 497              		.loc 1 40 5 is_stmt 1 discriminator 2 view .LVU115
  40:../switch_sdk/core/fal/tiger/fal_tiger_stp.c ****     HAL_FIELD_GET(L2_STP_STATENm, L2_STP_STATEN_STATEf, &l2_stp_staten, &stpState);
 498              		.loc 1 40 5 is_stmt 0 discriminator 2 view .LVU116
 499              	.LBE8:
  40:../switch_sdk/core/fal/tiger/fal_tiger_stp.c ****     HAL_FIELD_GET(L2_STP_STATENm, L2_STP_STATEN_STATEf, &l2_stp_staten, &stpState);
 500              		.loc 1 40 5 is_stmt 1 discriminator 2 view .LVU117
  41:../switch_sdk/core/fal/tiger/fal_tiger_stp.c **** 
 501              		.loc 1 41 5 discriminator 2 view .LVU118
  41:../switch_sdk/core/fal/tiger/fal_tiger_stp.c **** 
 502              		.loc 1 41 41 is_stmt 0 discriminator 2 view .LVU119
 503 00a4 7600     		lsls	r6, r6, #1
 504              	.LVL61:
  41:../switch_sdk/core/fal/tiger/fal_tiger_stp.c **** 
 505              		.loc 1 41 31 discriminator 2 view .LVU120
 506 00a6 029B     		ldr	r3, [sp, #8]
 507 00a8 3341     		asrs	r3, r3, r6
  41:../switch_sdk/core/fal/tiger/fal_tiger_stp.c **** 
 508              		.loc 1 41 19 discriminator 2 view .LVU121
 509 00aa 03F00303 		and	r3, r3, #3
  41:../switch_sdk/core/fal/tiger/fal_tiger_stp.c **** 
 510              		.loc 1 41 13 discriminator 2 view .LVU122
 511 00ae 2B70     		strb	r3, [r5]
 512              	.LVL62:
  43:../switch_sdk/core/fal/tiger/fal_tiger_stp.c **** }
 513              		.loc 1 43 5 is_stmt 1 discriminator 2 view .LVU123
  43:../switch_sdk/core/fal/tiger/fal_tiger_stp.c **** }
 514              		.loc 1 43 12 is_stmt 0 discriminator 2 view .LVU124
 515 00b0 0020     		movs	r0, #0
 516 00b2 D7E7     		b	.L20
 517              	.L34:
 518              		.align	2
 519              	.L33:
 520 00b4 00000000 		.word	gcal_inited
 521 00b8 00000000 		.word	gpSwitchUnit
 522 00bc 00000000 		.word	yt_debug_level
 523 00c0 00000000 		.word	_yt_errmsg
 524 00c4 00000000 		.word	_yt_prompt_msg
 525 00c8 00000000 		.word	.LC0
 526 00cc 00000000 		.word	__FUNCTION__.2
 527 00d0 08000000 		.word	.LC1
 528 00d4 54000000 		.word	.LC2
 529              		.cfi_endproc
 530              	.LFE4:
 532              		.section	.rodata.fal_tiger_stp_instance_map_set.str1.4,"aMS",%progbits,1
 533              		.align	2
 534              	.LC4:
 535 0000 68616C5F 		.ascii	"hal_table_reg_read(unit,187,vid,sizeof(l2_vlan_tbl_"
 535      7461626C 
 535      655F7265 
 535      675F7265 
 535      61642875 
 536 0033 74292C26 		.ascii	"t),&entry)\000"
 536      656E7472 
 536      792900
 537 003e 0000     		.align	2
 538              	.LC5:
 539 0040 68616C5F 		.ascii	"hal_table_reg_write(unit,187,vid,sizeof(l2_vlan_tbl"
 539      7461626C 
 539      655F7265 
 539      675F7772 
 539      69746528 
 540 0073 5F74292C 		.ascii	"_t),&entry)\000"
 540      26656E74 
 540      72792900 
 541              		.section	.text.fal_tiger_stp_instance_map_set,"ax",%progbits
 542              		.align	1
 543              		.global	fal_tiger_stp_instance_map_set
 544              		.syntax unified
 545              		.thumb
 546              		.thumb_func
 548              	fal_tiger_stp_instance_map_set:
 549              	.LVL63:
 550              	.LFB5:
  45:../switch_sdk/core/fal/tiger/fal_tiger_stp.c **** 
  46:../switch_sdk/core/fal/tiger/fal_tiger_stp.c **** yt_ret_t fal_tiger_stp_instance_map_set(yt_unit_t unit, yt_vlan_t vid, yt_stp_id_t stp_id)
  47:../switch_sdk/core/fal/tiger/fal_tiger_stp.c **** {
 551              		.loc 1 47 1 is_stmt 1 view -0
 552              		.cfi_startproc
 553              		@ args = 0, pretend = 0, frame = 8
 554              		@ frame_needed = 0, uses_anonymous_args = 0
 555              		.loc 1 47 1 is_stmt 0 view .LVU126
 556 0000 F0B5     		push	{r4, r5, r6, r7, lr}
 557              		.cfi_def_cfa_offset 20
 558              		.cfi_offset 4, -20
 559              		.cfi_offset 5, -16
 560              		.cfi_offset 6, -12
 561              		.cfi_offset 7, -8
 562              		.cfi_offset 14, -4
 563 0002 85B0     		sub	sp, sp, #20
 564              		.cfi_def_cfa_offset 40
  48:../switch_sdk/core/fal/tiger/fal_tiger_stp.c ****     l2_vlan_tbl_t entry;
 565              		.loc 1 48 5 is_stmt 1 view .LVU127
  49:../switch_sdk/core/fal/tiger/fal_tiger_stp.c ****     cmm_err_t ret = CMM_ERR_OK;
 566              		.loc 1 49 5 view .LVU128
 567              	.LVL64:
  50:../switch_sdk/core/fal/tiger/fal_tiger_stp.c **** 
  51:../switch_sdk/core/fal/tiger/fal_tiger_stp.c ****     CMM_PARAM_CHK(CAL_MAX_VALUE_MSTI(unit) < stp_id, CMM_ERR_INPUT);
 568              		.loc 1 51 5 view .LVU129
 569              		.loc 1 51 5 view .LVU130
 570 0004 324B     		ldr	r3, .L49
 571 0006 53F82030 		ldr	r3, [r3, r0, lsl #2]
 572 000a D3F8AC30 		ldr	r3, [r3, #172]
 573 000e 5B7A     		ldrb	r3, [r3, #9]	@ zero_extendqisi2
 574 0010 9342     		cmp	r3, r2
 575 0012 13D3     		bcc	.L44
 576 0014 0546     		mov	r5, r0
 577 0016 0F46     		mov	r7, r1
 578 0018 1646     		mov	r6, r2
 579              		.loc 1 51 5 discriminator 2 view .LVU131
  52:../switch_sdk/core/fal/tiger/fal_tiger_stp.c ****     CMM_ERR_CHK(HAL_TBL_REG_READ(unit, L2_VLAN_TBLm, vid,sizeof(l2_vlan_tbl_t), &entry), ret);
 580              		.loc 1 52 5 discriminator 2 view .LVU132
 581              		.loc 1 52 5 discriminator 2 view .LVU133
 582 001a 02AB     		add	r3, sp, #8
 583 001c 0093     		str	r3, [sp]
 584 001e 0823     		movs	r3, #8
 585 0020 0A46     		mov	r2, r1
 586              	.LVL65:
 587              		.loc 1 52 5 is_stmt 0 discriminator 2 view .LVU134
 588 0022 BB21     		movs	r1, #187
 589              	.LVL66:
 590              		.loc 1 52 5 discriminator 2 view .LVU135
 591 0024 FFF7FEFF 		bl	hal_table_reg_read
 592              	.LVL67:
 593              		.loc 1 52 5 discriminator 2 view .LVU136
 594 0028 0446     		mov	r4, r0
 595              	.LVL68:
 596              		.loc 1 52 5 discriminator 2 view .LVU137
 597 002a 10F0FF03 		ands	r3, r0, #255
 598 002e 24D0     		beq	.L39
 599              		.loc 1 52 5 is_stmt 1 discriminator 1 view .LVU138
 600              		.loc 1 52 5 discriminator 1 view .LVU139
 601 0030 284A     		ldr	r2, .L49+4
 602 0032 1278     		ldrb	r2, [r2]	@ zero_extendqisi2
 603 0034 012A     		cmp	r2, #1
 604 0036 10D8     		bhi	.L45
 605              	.LVL69:
 606              	.L40:
 607              		.loc 1 52 5 discriminator 5 view .LVU140
 608              		.loc 1 52 5 discriminator 5 view .LVU141
 609              		.loc 1 52 5 discriminator 5 view .LVU142
 610 0038 E0B2     		uxtb	r0, r4
 611 003a 04E0     		b	.L35
 612              	.LVL70:
 613              	.L44:
  51:../switch_sdk/core/fal/tiger/fal_tiger_stp.c ****     CMM_ERR_CHK(HAL_TBL_REG_READ(unit, L2_VLAN_TBLm, vid,sizeof(l2_vlan_tbl_t), &entry), ret);
 614              		.loc 1 51 5 discriminator 1 view .LVU143
  51:../switch_sdk/core/fal/tiger/fal_tiger_stp.c ****     CMM_ERR_CHK(HAL_TBL_REG_READ(unit, L2_VLAN_TBLm, vid,sizeof(l2_vlan_tbl_t), &entry), ret);
 615              		.loc 1 51 5 discriminator 1 view .LVU144
 616 003c 254B     		ldr	r3, .L49+4
 617 003e 1B78     		ldrb	r3, [r3]	@ zero_extendqisi2
 618 0040 012B     		cmp	r3, #1
 619 0042 02D8     		bhi	.L46
 620              	.LVL71:
 621              	.L37:
  51:../switch_sdk/core/fal/tiger/fal_tiger_stp.c ****     CMM_ERR_CHK(HAL_TBL_REG_READ(unit, L2_VLAN_TBLm, vid,sizeof(l2_vlan_tbl_t), &entry), ret);
 622              		.loc 1 51 5 discriminator 5 view .LVU145
  51:../switch_sdk/core/fal/tiger/fal_tiger_stp.c ****     CMM_ERR_CHK(HAL_TBL_REG_READ(unit, L2_VLAN_TBLm, vid,sizeof(l2_vlan_tbl_t), &entry), ret);
 623              		.loc 1 51 5 discriminator 5 view .LVU146
  51:../switch_sdk/core/fal/tiger/fal_tiger_stp.c ****     CMM_ERR_CHK(HAL_TBL_REG_READ(unit, L2_VLAN_TBLm, vid,sizeof(l2_vlan_tbl_t), &entry), ret);
 624              		.loc 1 51 5 discriminator 5 view .LVU147
 625 0044 0520     		movs	r0, #5
 626              	.LVL72:
 627              	.L35:
  53:../switch_sdk/core/fal/tiger/fal_tiger_stp.c ****     HAL_FIELD_SET(L2_VLAN_TBLm, L2_VLAN_TBL_STP_IDf, &entry, stp_id);
  54:../switch_sdk/core/fal/tiger/fal_tiger_stp.c ****     CMM_ERR_CHK(HAL_TBL_REG_WRITE(unit, L2_VLAN_TBLm, vid, sizeof(l2_vlan_tbl_t), &entry), ret);
  55:../switch_sdk/core/fal/tiger/fal_tiger_stp.c ****     return CMM_ERR_OK;
  56:../switch_sdk/core/fal/tiger/fal_tiger_stp.c **** }
 628              		.loc 1 56 1 is_stmt 0 view .LVU148
 629 0046 05B0     		add	sp, sp, #20
 630              		.cfi_remember_state
 631              		.cfi_def_cfa_offset 20
 632              		@ sp needed
 633 0048 F0BD     		pop	{r4, r5, r6, r7, pc}
 634              	.LVL73:
 635              	.L46:
 636              		.cfi_restore_state
  51:../switch_sdk/core/fal/tiger/fal_tiger_stp.c ****     CMM_ERR_CHK(HAL_TBL_REG_READ(unit, L2_VLAN_TBLm, vid,sizeof(l2_vlan_tbl_t), &entry), ret);
 637              		.loc 1 51 5 is_stmt 1 discriminator 3 view .LVU149
 638              	.LBB9:
  51:../switch_sdk/core/fal/tiger/fal_tiger_stp.c ****     CMM_ERR_CHK(HAL_TBL_REG_READ(unit, L2_VLAN_TBLm, vid,sizeof(l2_vlan_tbl_t), &entry), ret);
 639              		.loc 1 51 5 discriminator 3 view .LVU150
 640 004a 234B     		ldr	r3, .L49+8
 641 004c 5A69     		ldr	r2, [r3, #20]
 642              	.LVL74:
  51:../switch_sdk/core/fal/tiger/fal_tiger_stp.c ****     CMM_ERR_CHK(HAL_TBL_REG_READ(unit, L2_VLAN_TBLm, vid,sizeof(l2_vlan_tbl_t), &entry), ret);
 643              		.loc 1 51 5 is_stmt 0 discriminator 3 view .LVU151
 644 004e 234B     		ldr	r3, .L49+12
 645 0050 9968     		ldr	r1, [r3, #8]
 646              	.LVL75:
  51:../switch_sdk/core/fal/tiger/fal_tiger_stp.c ****     CMM_ERR_CHK(HAL_TBL_REG_READ(unit, L2_VLAN_TBLm, vid,sizeof(l2_vlan_tbl_t), &entry), ret);
 647              		.loc 1 51 5 discriminator 3 view .LVU152
 648 0052 2348     		ldr	r0, .L49+16
 649              	.LVL76:
  51:../switch_sdk/core/fal/tiger/fal_tiger_stp.c ****     CMM_ERR_CHK(HAL_TBL_REG_READ(unit, L2_VLAN_TBLm, vid,sizeof(l2_vlan_tbl_t), &entry), ret);
 650              		.loc 1 51 5 discriminator 3 view .LVU153
 651 0054 FFF7FEFF 		bl	osal_printf
 652              	.LVL77:
 653 0058 F4E7     		b	.L37
 654              	.LVL78:
 655              	.L45:
  51:../switch_sdk/core/fal/tiger/fal_tiger_stp.c ****     CMM_ERR_CHK(HAL_TBL_REG_READ(unit, L2_VLAN_TBLm, vid,sizeof(l2_vlan_tbl_t), &entry), ret);
 656              		.loc 1 51 5 discriminator 3 view .LVU154
 657              	.LBE9:
  52:../switch_sdk/core/fal/tiger/fal_tiger_stp.c ****     HAL_FIELD_SET(L2_VLAN_TBLm, L2_VLAN_TBL_STP_IDf, &entry, stp_id);
 658              		.loc 1 52 5 is_stmt 1 discriminator 3 view .LVU155
 659              	.LBB10:
  52:../switch_sdk/core/fal/tiger/fal_tiger_stp.c ****     HAL_FIELD_SET(L2_VLAN_TBLm, L2_VLAN_TBL_STP_IDf, &entry, stp_id);
 660              		.loc 1 52 5 discriminator 3 view .LVU156
 661 005a 142B     		cmp	r3, #20
 662 005c 28BF     		it	cs
 663 005e 1423     		movcs	r3, #20
 664 0060 1A46     		mov	r2, r3
 665 0062 204B     		ldr	r3, .L49+20
 666 0064 0093     		str	r3, [sp]
 667 0066 204B     		ldr	r3, .L49+24
 668 0068 1B49     		ldr	r1, .L49+8
 669 006a 51F82220 		ldr	r2, [r1, r2, lsl #2]
 670 006e 1B49     		ldr	r1, .L49+12
 671 0070 8968     		ldr	r1, [r1, #8]
 672 0072 1E48     		ldr	r0, .L49+28
 673              	.LVL79:
  52:../switch_sdk/core/fal/tiger/fal_tiger_stp.c ****     HAL_FIELD_SET(L2_VLAN_TBLm, L2_VLAN_TBL_STP_IDf, &entry, stp_id);
 674              		.loc 1 52 5 is_stmt 0 discriminator 3 view .LVU157
 675 0074 FFF7FEFF 		bl	osal_printf
 676              	.LVL80:
 677 0078 DEE7     		b	.L40
 678              	.LVL81:
 679              	.L39:
  52:../switch_sdk/core/fal/tiger/fal_tiger_stp.c ****     HAL_FIELD_SET(L2_VLAN_TBLm, L2_VLAN_TBL_STP_IDf, &entry, stp_id);
 680              		.loc 1 52 5 discriminator 3 view .LVU158
 681              	.LBE10:
  52:../switch_sdk/core/fal/tiger/fal_tiger_stp.c ****     HAL_FIELD_SET(L2_VLAN_TBLm, L2_VLAN_TBL_STP_IDf, &entry, stp_id);
 682              		.loc 1 52 5 is_stmt 1 discriminator 2 view .LVU159
  53:../switch_sdk/core/fal/tiger/fal_tiger_stp.c ****     HAL_FIELD_SET(L2_VLAN_TBLm, L2_VLAN_TBL_STP_IDf, &entry, stp_id);
 683              		.loc 1 53 5 discriminator 2 view .LVU160
 684 007a 02AC     		add	r4, sp, #8
 685 007c 3346     		mov	r3, r6
 686 007e 2246     		mov	r2, r4
 687 0080 0121     		movs	r1, #1
 688 0082 BB20     		movs	r0, #187
 689              	.LVL82:
  53:../switch_sdk/core/fal/tiger/fal_tiger_stp.c ****     HAL_FIELD_SET(L2_VLAN_TBLm, L2_VLAN_TBL_STP_IDf, &entry, stp_id);
 690              		.loc 1 53 5 is_stmt 0 discriminator 2 view .LVU161
 691 0084 FFF7FEFF 		bl	hal_tbl_reg_field_set
 692              	.LVL83:
  54:../switch_sdk/core/fal/tiger/fal_tiger_stp.c ****     return CMM_ERR_OK;
 693              		.loc 1 54 5 is_stmt 1 discriminator 2 view .LVU162
  54:../switch_sdk/core/fal/tiger/fal_tiger_stp.c ****     return CMM_ERR_OK;
 694              		.loc 1 54 5 discriminator 2 view .LVU163
 695 0088 0094     		str	r4, [sp]
 696 008a 0823     		movs	r3, #8
 697 008c 3A46     		mov	r2, r7
 698 008e BB21     		movs	r1, #187
 699 0090 2846     		mov	r0, r5
 700 0092 FFF7FEFF 		bl	hal_table_reg_write
 701              	.LVL84:
 702 0096 0446     		mov	r4, r0
 703              	.LVL85:
  54:../switch_sdk/core/fal/tiger/fal_tiger_stp.c ****     return CMM_ERR_OK;
 704              		.loc 1 54 5 is_stmt 0 discriminator 2 view .LVU164
 705 0098 10F0FF03 		ands	r3, r0, #255
 706 009c 01D1     		bne	.L47
  55:../switch_sdk/core/fal/tiger/fal_tiger_stp.c **** }
 707              		.loc 1 55 12 view .LVU165
 708 009e 0020     		movs	r0, #0
 709              	.LVL86:
  55:../switch_sdk/core/fal/tiger/fal_tiger_stp.c **** }
 710              		.loc 1 55 12 view .LVU166
 711 00a0 D1E7     		b	.L35
 712              	.LVL87:
 713              	.L47:
  54:../switch_sdk/core/fal/tiger/fal_tiger_stp.c ****     return CMM_ERR_OK;
 714              		.loc 1 54 5 is_stmt 1 discriminator 1 view .LVU167
  54:../switch_sdk/core/fal/tiger/fal_tiger_stp.c ****     return CMM_ERR_OK;
 715              		.loc 1 54 5 discriminator 1 view .LVU168
 716 00a2 0C4A     		ldr	r2, .L49+4
 717 00a4 1278     		ldrb	r2, [r2]	@ zero_extendqisi2
 718 00a6 012A     		cmp	r2, #1
 719 00a8 01D8     		bhi	.L48
 720              	.LVL88:
 721              	.L41:
  54:../switch_sdk/core/fal/tiger/fal_tiger_stp.c ****     return CMM_ERR_OK;
 722              		.loc 1 54 5 discriminator 5 view .LVU169
  54:../switch_sdk/core/fal/tiger/fal_tiger_stp.c ****     return CMM_ERR_OK;
 723              		.loc 1 54 5 discriminator 5 view .LVU170
  54:../switch_sdk/core/fal/tiger/fal_tiger_stp.c ****     return CMM_ERR_OK;
 724              		.loc 1 54 5 discriminator 5 view .LVU171
 725 00aa E0B2     		uxtb	r0, r4
 726 00ac CBE7     		b	.L35
 727              	.LVL89:
 728              	.L48:
  54:../switch_sdk/core/fal/tiger/fal_tiger_stp.c ****     return CMM_ERR_OK;
 729              		.loc 1 54 5 discriminator 3 view .LVU172
 730              	.LBB11:
  54:../switch_sdk/core/fal/tiger/fal_tiger_stp.c ****     return CMM_ERR_OK;
 731              		.loc 1 54 5 discriminator 3 view .LVU173
 732 00ae 142B     		cmp	r3, #20
 733 00b0 28BF     		it	cs
 734 00b2 1423     		movcs	r3, #20
 735 00b4 1A46     		mov	r2, r3
 736 00b6 0B4B     		ldr	r3, .L49+20
 737 00b8 0093     		str	r3, [sp]
 738 00ba 0D4B     		ldr	r3, .L49+32
 739 00bc 0649     		ldr	r1, .L49+8
 740 00be 51F82220 		ldr	r2, [r1, r2, lsl #2]
 741 00c2 0649     		ldr	r1, .L49+12
 742 00c4 8968     		ldr	r1, [r1, #8]
 743 00c6 0948     		ldr	r0, .L49+28
 744              	.LVL90:
  54:../switch_sdk/core/fal/tiger/fal_tiger_stp.c ****     return CMM_ERR_OK;
 745              		.loc 1 54 5 is_stmt 0 discriminator 3 view .LVU174
 746 00c8 FFF7FEFF 		bl	osal_printf
 747              	.LVL91:
 748 00cc EDE7     		b	.L41
 749              	.L50:
 750 00ce 00BF     		.align	2
 751              	.L49:
 752 00d0 00000000 		.word	gpSwitchUnit
 753 00d4 00000000 		.word	yt_debug_level
 754 00d8 00000000 		.word	_yt_errmsg
 755 00dc 00000000 		.word	_yt_prompt_msg
 756 00e0 00000000 		.word	.LC0
 757 00e4 00000000 		.word	__FUNCTION__.1
 758 00e8 00000000 		.word	.LC4
 759 00ec 54000000 		.word	.LC2
 760 00f0 40000000 		.word	.LC5
 761              	.LBE11:
 762              		.cfi_endproc
 763              	.LFE5:
 765              		.section	.text.fal_tiger_stp_instance_map_get,"ax",%progbits
 766              		.align	1
 767              		.global	fal_tiger_stp_instance_map_get
 768              		.syntax unified
 769              		.thumb
 770              		.thumb_func
 772              	fal_tiger_stp_instance_map_get:
 773              	.LVL92:
 774              	.LFB6:
  57:../switch_sdk/core/fal/tiger/fal_tiger_stp.c **** 
  58:../switch_sdk/core/fal/tiger/fal_tiger_stp.c **** yt_ret_t fal_tiger_stp_instance_map_get(yt_unit_t unit, yt_vlan_t vid, yt_stp_id_t *pStp_id)
  59:../switch_sdk/core/fal/tiger/fal_tiger_stp.c **** {
 775              		.loc 1 59 1 is_stmt 1 view -0
 776              		.cfi_startproc
 777              		@ args = 0, pretend = 0, frame = 16
 778              		@ frame_needed = 0, uses_anonymous_args = 0
 779              		.loc 1 59 1 is_stmt 0 view .LVU176
 780 0000 30B5     		push	{r4, r5, lr}
 781              		.cfi_def_cfa_offset 12
 782              		.cfi_offset 4, -12
 783              		.cfi_offset 5, -8
 784              		.cfi_offset 14, -4
 785 0002 87B0     		sub	sp, sp, #28
 786              		.cfi_def_cfa_offset 40
 787 0004 1546     		mov	r5, r2
  60:../switch_sdk/core/fal/tiger/fal_tiger_stp.c ****     l2_vlan_tbl_t entry;
 788              		.loc 1 60 5 is_stmt 1 view .LVU177
  61:../switch_sdk/core/fal/tiger/fal_tiger_stp.c ****     cmm_err_t ret = CMM_ERR_OK;
 789              		.loc 1 61 5 view .LVU178
 790              	.LVL93:
  62:../switch_sdk/core/fal/tiger/fal_tiger_stp.c ****     uint32_t stp_id;
 791              		.loc 1 62 5 view .LVU179
  63:../switch_sdk/core/fal/tiger/fal_tiger_stp.c **** 
  64:../switch_sdk/core/fal/tiger/fal_tiger_stp.c ****     CMM_ERR_CHK(HAL_TBL_REG_READ(unit, L2_VLAN_TBLm, vid,sizeof(l2_vlan_tbl_t), &entry), ret);
 792              		.loc 1 64 5 view .LVU180
 793              		.loc 1 64 5 view .LVU181
 794 0006 04AB     		add	r3, sp, #16
 795 0008 0093     		str	r3, [sp]
 796 000a 0823     		movs	r3, #8
 797 000c 0A46     		mov	r2, r1
 798              	.LVL94:
 799              		.loc 1 64 5 is_stmt 0 view .LVU182
 800 000e BB21     		movs	r1, #187
 801              	.LVL95:
 802              		.loc 1 64 5 view .LVU183
 803 0010 FFF7FEFF 		bl	hal_table_reg_read
 804              	.LVL96:
 805              		.loc 1 64 5 view .LVU184
 806 0014 10F0FF03 		ands	r3, r0, #255
 807 0018 17D0     		beq	.L52
 808 001a 0446     		mov	r4, r0
 809              		.loc 1 64 5 is_stmt 1 discriminator 1 view .LVU185
 810              		.loc 1 64 5 discriminator 1 view .LVU186
 811 001c 104A     		ldr	r2, .L57
 812 001e 1278     		ldrb	r2, [r2]	@ zero_extendqisi2
 813 0020 012A     		cmp	r2, #1
 814 0022 02D8     		bhi	.L56
 815              	.LVL97:
 816              	.L53:
 817              		.loc 1 64 5 discriminator 5 view .LVU187
 818              		.loc 1 64 5 discriminator 5 view .LVU188
 819              		.loc 1 64 5 discriminator 5 view .LVU189
 820 0024 E0B2     		uxtb	r0, r4
 821              	.L51:
  65:../switch_sdk/core/fal/tiger/fal_tiger_stp.c ****     HAL_FIELD_GET(L2_VLAN_TBLm, L2_VLAN_TBL_STP_IDf, &entry, &stp_id);
  66:../switch_sdk/core/fal/tiger/fal_tiger_stp.c ****     *pStp_id = stp_id;
  67:../switch_sdk/core/fal/tiger/fal_tiger_stp.c **** 
  68:../switch_sdk/core/fal/tiger/fal_tiger_stp.c ****     return CMM_ERR_OK;
  69:../switch_sdk/core/fal/tiger/fal_tiger_stp.c **** }
 822              		.loc 1 69 1 is_stmt 0 view .LVU190
 823 0026 07B0     		add	sp, sp, #28
 824              		.cfi_remember_state
 825              		.cfi_def_cfa_offset 12
 826              		@ sp needed
 827 0028 30BD     		pop	{r4, r5, pc}
 828              	.LVL98:
 829              	.L56:
 830              		.cfi_restore_state
  64:../switch_sdk/core/fal/tiger/fal_tiger_stp.c ****     HAL_FIELD_GET(L2_VLAN_TBLm, L2_VLAN_TBL_STP_IDf, &entry, &stp_id);
 831              		.loc 1 64 5 is_stmt 1 discriminator 3 view .LVU191
 832              	.LBB12:
  64:../switch_sdk/core/fal/tiger/fal_tiger_stp.c ****     HAL_FIELD_GET(L2_VLAN_TBLm, L2_VLAN_TBL_STP_IDf, &entry, &stp_id);
 833              		.loc 1 64 5 discriminator 3 view .LVU192
 834 002a 142B     		cmp	r3, #20
 835 002c 28BF     		it	cs
 836 002e 1423     		movcs	r3, #20
 837 0030 1A46     		mov	r2, r3
 838 0032 0C4B     		ldr	r3, .L57+4
 839 0034 0093     		str	r3, [sp]
 840 0036 0C4B     		ldr	r3, .L57+8
 841 0038 0C49     		ldr	r1, .L57+12
 842 003a 51F82220 		ldr	r2, [r1, r2, lsl #2]
 843 003e 0C49     		ldr	r1, .L57+16
 844 0040 8968     		ldr	r1, [r1, #8]
 845 0042 0C48     		ldr	r0, .L57+20
 846              	.LVL99:
  64:../switch_sdk/core/fal/tiger/fal_tiger_stp.c ****     HAL_FIELD_GET(L2_VLAN_TBLm, L2_VLAN_TBL_STP_IDf, &entry, &stp_id);
 847              		.loc 1 64 5 is_stmt 0 discriminator 3 view .LVU193
 848 0044 FFF7FEFF 		bl	osal_printf
 849              	.LVL100:
 850 0048 ECE7     		b	.L53
 851              	.LVL101:
 852              	.L52:
  64:../switch_sdk/core/fal/tiger/fal_tiger_stp.c ****     HAL_FIELD_GET(L2_VLAN_TBLm, L2_VLAN_TBL_STP_IDf, &entry, &stp_id);
 853              		.loc 1 64 5 discriminator 3 view .LVU194
 854              	.LBE12:
  64:../switch_sdk/core/fal/tiger/fal_tiger_stp.c ****     HAL_FIELD_GET(L2_VLAN_TBLm, L2_VLAN_TBL_STP_IDf, &entry, &stp_id);
 855              		.loc 1 64 5 is_stmt 1 discriminator 2 view .LVU195
  65:../switch_sdk/core/fal/tiger/fal_tiger_stp.c ****     HAL_FIELD_GET(L2_VLAN_TBLm, L2_VLAN_TBL_STP_IDf, &entry, &stp_id);
 856              		.loc 1 65 5 discriminator 2 view .LVU196
 857              	.LBB13:
  65:../switch_sdk/core/fal/tiger/fal_tiger_stp.c ****     HAL_FIELD_GET(L2_VLAN_TBLm, L2_VLAN_TBL_STP_IDf, &entry, &stp_id);
 858              		.loc 1 65 5 discriminator 2 view .LVU197
  65:../switch_sdk/core/fal/tiger/fal_tiger_stp.c ****     HAL_FIELD_GET(L2_VLAN_TBLm, L2_VLAN_TBL_STP_IDf, &entry, &stp_id);
 859              		.loc 1 65 5 discriminator 2 view .LVU198
 860 004a 03AB     		add	r3, sp, #12
 861 004c 04AA     		add	r2, sp, #16
 862 004e 0121     		movs	r1, #1
 863 0050 BB20     		movs	r0, #187
 864              	.LVL102:
  65:../switch_sdk/core/fal/tiger/fal_tiger_stp.c ****     HAL_FIELD_GET(L2_VLAN_TBLm, L2_VLAN_TBL_STP_IDf, &entry, &stp_id);
 865              		.loc 1 65 5 is_stmt 0 discriminator 2 view .LVU199
 866 0052 FFF7FEFF 		bl	hal_tbl_reg_field_get
 867              	.LVL103:
  65:../switch_sdk/core/fal/tiger/fal_tiger_stp.c ****     HAL_FIELD_GET(L2_VLAN_TBLm, L2_VLAN_TBL_STP_IDf, &entry, &stp_id);
 868              		.loc 1 65 5 is_stmt 1 discriminator 2 view .LVU200
 869 0056 039B     		ldr	r3, [sp, #12]
 870              	.LVL104:
  65:../switch_sdk/core/fal/tiger/fal_tiger_stp.c ****     HAL_FIELD_GET(L2_VLAN_TBLm, L2_VLAN_TBL_STP_IDf, &entry, &stp_id);
 871              		.loc 1 65 5 is_stmt 0 discriminator 2 view .LVU201
 872              	.LBE13:
  65:../switch_sdk/core/fal/tiger/fal_tiger_stp.c ****     HAL_FIELD_GET(L2_VLAN_TBLm, L2_VLAN_TBL_STP_IDf, &entry, &stp_id);
 873              		.loc 1 65 5 is_stmt 1 discriminator 2 view .LVU202
  66:../switch_sdk/core/fal/tiger/fal_tiger_stp.c **** 
 874              		.loc 1 66 5 discriminator 2 view .LVU203
  66:../switch_sdk/core/fal/tiger/fal_tiger_stp.c **** 
 875              		.loc 1 66 14 is_stmt 0 discriminator 2 view .LVU204
 876 0058 2B70     		strb	r3, [r5]
  68:../switch_sdk/core/fal/tiger/fal_tiger_stp.c **** }
 877              		.loc 1 68 5 is_stmt 1 discriminator 2 view .LVU205
  68:../switch_sdk/core/fal/tiger/fal_tiger_stp.c **** }
 878              		.loc 1 68 12 is_stmt 0 discriminator 2 view .LVU206
 879 005a 0020     		movs	r0, #0
 880 005c E3E7     		b	.L51
 881              	.L58:
 882 005e 00BF     		.align	2
 883              	.L57:
 884 0060 00000000 		.word	yt_debug_level
 885 0064 00000000 		.word	__FUNCTION__.0
 886 0068 00000000 		.word	.LC4
 887 006c 00000000 		.word	_yt_errmsg
 888 0070 00000000 		.word	_yt_prompt_msg
 889 0074 54000000 		.word	.LC2
 890              		.cfi_endproc
 891              	.LFE6:
 893              		.section	.rodata.__FUNCTION__.0,"a"
 894              		.align	2
 897              	__FUNCTION__.0:
 898 0000 66616C5F 		.ascii	"fal_tiger_stp_instance_map_get\000"
 898      74696765 
 898      725F7374 
 898      705F696E 
 898      7374616E 
 899              		.section	.rodata.__FUNCTION__.1,"a"
 900              		.align	2
 903              	__FUNCTION__.1:
 904 0000 66616C5F 		.ascii	"fal_tiger_stp_instance_map_set\000"
 904      74696765 
 904      725F7374 
 904      705F696E 
 904      7374616E 
 905              		.section	.rodata.__FUNCTION__.2,"a"
 906              		.align	2
 909              	__FUNCTION__.2:
 910 0000 66616C5F 		.ascii	"fal_tiger_stp_state_get\000"
 910      74696765 
 910      725F7374 
 910      705F7374 
 910      6174655F 
 911              		.section	.rodata.__FUNCTION__.3,"a"
 912              		.align	2
 915              	__FUNCTION__.3:
 916 0000 66616C5F 		.ascii	"fal_tiger_stp_state_set\000"
 916      74696765 
 916      725F7374 
 916      705F7374 
 916      6174655F 
 917              		.text
 918              	.Letext0:
 919              		.file 2 "C:\\Users\\Dmitriy\\Desktop\\GD32F10x\\switch_sdk\\common\\include/yt_types.h"
 920              		.file 3 "C:\\Users\\Dmitriy\\Desktop\\GD32F10x\\switch_sdk\\common\\include/yt_error.h"
 921              		.file 4 "C:\\Users\\Dmitriy\\Desktop\\GD32F10x\\switch_sdk\\core\\fal\\chipdef/chipdef.h"
 922              		.file 5 "C:\\Users\\Dmitriy\\Desktop\\GD32F10x\\switch_sdk\\core\\cal/cal_bprofile.h"
 923              		.file 6 "C:\\Users\\Dmitriy\\Desktop\\GD32F10x\\switch_sdk\\core\\cal/cal_mgm.h"
 924              		.file 7 "C:\\Users\\Dmitriy\\Desktop\\GD32F10x\\switch_sdk\\include/yt_stp.h"
 925              		.file 8 "../switch_sdk/core/fal/tiger/fal_tiger_entry.h"
 926              		.file 9 "C:\\Users\\Dmitriy\\Desktop\\GD32F10x\\switch_sdk\\core\\hal/hal_mem.h"