   1              		.cpu cortex-m3
   2              		.arch armv7-m
   3              		.fpu softvfp
   4              		.eabi_attribute 20, 1
   5              		.eabi_attribute 21, 1
   6              		.eabi_attribute 23, 3
   7              		.eabi_attribute 24, 1
   8              		.eabi_attribute 25, 1
   9              		.eabi_attribute 26, 1
  10              		.eabi_attribute 30, 1
  11              		.eabi_attribute 34, 1
  12              		.eabi_attribute 18, 4
  13              		.file	"fal_tiger_ctrlpkt.c"
  14              		.text
  15              	.Ltext0:
  16              		.cfi_sections	.debug_frame
  17              		.file 1 "../switch_sdk/core/fal/tiger/fal_tiger_ctrlpkt.c"
  18              		.section	.rodata.fal_tiger_ctrlpkt_unknown_ucast_act_set.str1.4,"aMS",%progbits,1
  19              		.align	2
  20              	.LC0:
  21 0000 68616C5F 		.ascii	"hal_table_reg_read(unit,173,0,sizeof(l2_uc_unknown_"
  21      7461626C 
  21      655F7265 
  21      675F7265 
  21      61642875 
  22 0033 6163745F 		.ascii	"act_ctrl_t),&act)\000"
  22      6374726C 
  22      5F74292C 
  22      26616374 
  22      2900
  23 0045 000000   		.align	2
  24              	.LC1:
  25 0048 25732573 		.ascii	"%s%s of \"%s\" in %s\015\012\000"
  25      206F6620 
  25      22257322 
  25      20696E20 
  25      25730D0A 
  26 005d 000000   		.align	2
  27              	.LC2:
  28 0060 68616C5F 		.ascii	"hal_table_reg_write(unit,173,0,sizeof(l2_uc_unknown"
  28      7461626C 
  28      655F7265 
  28      675F7772 
  28      69746528 
  29 0093 5F616374 		.ascii	"_act_ctrl_t),&act)\000"
  29      5F637472 
  29      6C5F7429 
  29      2C266163 
  29      742900
  30              		.section	.text.fal_tiger_ctrlpkt_unknown_ucast_act_set,"ax",%progbits
  31              		.align	1
  32              		.global	fal_tiger_ctrlpkt_unknown_ucast_act_set
  33              		.syntax unified
  34              		.thumb
  35              		.thumb_func
  37              	fal_tiger_ctrlpkt_unknown_ucast_act_set:
  38              	.LVL0:
  39              	.LFB3:
   1:../switch_sdk/core/fal/tiger/fal_tiger_ctrlpkt.c **** /******************************************************************************
   2:../switch_sdk/core/fal/tiger/fal_tiger_ctrlpkt.c **** *                                                                              *
   3:../switch_sdk/core/fal/tiger/fal_tiger_ctrlpkt.c **** *  Copyright (c), 2022, Motorcomm Electronic Technology Co.,Ltd.               *
   4:../switch_sdk/core/fal/tiger/fal_tiger_ctrlpkt.c **** *  Motorcomm Confidential and Proprietary.                                     *
   5:../switch_sdk/core/fal/tiger/fal_tiger_ctrlpkt.c **** *                                                                              *
   6:../switch_sdk/core/fal/tiger/fal_tiger_ctrlpkt.c **** *******************************************************************************
   7:../switch_sdk/core/fal/tiger/fal_tiger_ctrlpkt.c **** *  File Name     : fal_tiger_ctrlpkt.c
   8:../switch_sdk/core/fal/tiger/fal_tiger_ctrlpkt.c **** *  Version       : Initial Draft
   9:../switch_sdk/core/fal/tiger/fal_tiger_ctrlpkt.c **** *  Created       : 2022/3/1
  10:../switch_sdk/core/fal/tiger/fal_tiger_ctrlpkt.c **** *  Last Modified :
  11:../switch_sdk/core/fal/tiger/fal_tiger_ctrlpkt.c **** *  Description   : To get set control packet action
  12:../switch_sdk/core/fal/tiger/fal_tiger_ctrlpkt.c **** *
  13:../switch_sdk/core/fal/tiger/fal_tiger_ctrlpkt.c **** ******************************************************************************/
  14:../switch_sdk/core/fal/tiger/fal_tiger_ctrlpkt.c **** /**************************************************
  15:../switch_sdk/core/fal/tiger/fal_tiger_ctrlpkt.c ****  *      Include header files                       *
  16:../switch_sdk/core/fal/tiger/fal_tiger_ctrlpkt.c ****  **************************************************/
  17:../switch_sdk/core/fal/tiger/fal_tiger_ctrlpkt.c **** #include "fal_tiger_ctrlpkt.h"
  18:../switch_sdk/core/fal/tiger/fal_tiger_ctrlpkt.c **** #include "yt_error.h"
  19:../switch_sdk/core/fal/tiger/fal_tiger_ctrlpkt.c **** #include "hal_mem.h"
  20:../switch_sdk/core/fal/tiger/fal_tiger_ctrlpkt.c **** #include "fal_tiger_struct.h"
  21:../switch_sdk/core/fal/tiger/fal_tiger_ctrlpkt.c **** #include "fal_tiger_entry.h"
  22:../switch_sdk/core/fal/tiger/fal_tiger_ctrlpkt.c **** #include "fal_tiger_mem.h"
  23:../switch_sdk/core/fal/tiger/fal_tiger_ctrlpkt.c **** /**************************************************
  24:../switch_sdk/core/fal/tiger/fal_tiger_ctrlpkt.c ****  *      Constants or macros Declaration            *
  25:../switch_sdk/core/fal/tiger/fal_tiger_ctrlpkt.c ****  **************************************************/
  26:../switch_sdk/core/fal/tiger/fal_tiger_ctrlpkt.c **** 
  27:../switch_sdk/core/fal/tiger/fal_tiger_ctrlpkt.c **** /**************************************************
  28:../switch_sdk/core/fal/tiger/fal_tiger_ctrlpkt.c ****  *      Global variables                           *
  29:../switch_sdk/core/fal/tiger/fal_tiger_ctrlpkt.c ****  **************************************************/
  30:../switch_sdk/core/fal/tiger/fal_tiger_ctrlpkt.c **** 
  31:../switch_sdk/core/fal/tiger/fal_tiger_ctrlpkt.c **** /**************************************************
  32:../switch_sdk/core/fal/tiger/fal_tiger_ctrlpkt.c ****  *      Functions Declaration                      *
  33:../switch_sdk/core/fal/tiger/fal_tiger_ctrlpkt.c ****  **************************************************/
  34:../switch_sdk/core/fal/tiger/fal_tiger_ctrlpkt.c **** 
  35:../switch_sdk/core/fal/tiger/fal_tiger_ctrlpkt.c **** 
  36:../switch_sdk/core/fal/tiger/fal_tiger_ctrlpkt.c **** 
  37:../switch_sdk/core/fal/tiger/fal_tiger_ctrlpkt.c **** /**************************************************
  38:../switch_sdk/core/fal/tiger/fal_tiger_ctrlpkt.c ****  *      Functions implementations                  *
  39:../switch_sdk/core/fal/tiger/fal_tiger_ctrlpkt.c ****  **************************************************/
  40:../switch_sdk/core/fal/tiger/fal_tiger_ctrlpkt.c **** 
  41:../switch_sdk/core/fal/tiger/fal_tiger_ctrlpkt.c **** yt_ret_t  fal_tiger_ctrlpkt_unknown_ucast_act_set(yt_unit_t unit, yt_port_t port, yt_ctrlpkt_l2_act
  42:../switch_sdk/core/fal/tiger/fal_tiger_ctrlpkt.c **** {
  40              		.loc 1 42 1 view -0
  41              		.cfi_startproc
  42              		@ args = 0, pretend = 0, frame = 8
  43              		@ frame_needed = 0, uses_anonymous_args = 0
  44              		.loc 1 42 1 is_stmt 0 view .LVU1
  45 0000 F0B5     		push	{r4, r5, r6, r7, lr}
  46              		.cfi_def_cfa_offset 20
  47              		.cfi_offset 4, -20
  48              		.cfi_offset 5, -16
  49              		.cfi_offset 6, -12
  50              		.cfi_offset 7, -8
  51              		.cfi_offset 14, -4
  52 0002 85B0     		sub	sp, sp, #20
  53              		.cfi_def_cfa_offset 40
  54 0004 0546     		mov	r5, r0
  55 0006 1746     		mov	r7, r2
  43:../switch_sdk/core/fal/tiger/fal_tiger_ctrlpkt.c ****     cmm_err_t ret                   = CMM_ERR_OK;
  56              		.loc 1 43 5 is_stmt 1 view .LVU2
  57              	.LVL1:
  44:../switch_sdk/core/fal/tiger/fal_tiger_ctrlpkt.c ****     l2_uc_unknown_act_ctrl_t act;
  58              		.loc 1 44 5 view .LVU3
  45:../switch_sdk/core/fal/tiger/fal_tiger_ctrlpkt.c ****     uint32_t l2_act;
  59              		.loc 1 45 5 view .LVU4
  46:../switch_sdk/core/fal/tiger/fal_tiger_ctrlpkt.c **** 
  47:../switch_sdk/core/fal/tiger/fal_tiger_ctrlpkt.c ****     yt_macid_t macid = CAL_YTP_TO_MAC(unit,port);
  60              		.loc 1 47 5 view .LVU5
  61              		.loc 1 47 24 is_stmt 0 view .LVU6
  62 0008 354B     		ldr	r3, .L14
  63 000a 1B78     		ldrb	r3, [r3]	@ zero_extendqisi2
  64 000c 53B1     		cbz	r3, .L7
  65              		.loc 1 47 24 discriminator 1 view .LVU7
  66 000e 354B     		ldr	r3, .L14+4
  67 0010 53F82030 		ldr	r3, [r3, r0, lsl #2]
  68 0014 1A7D     		ldrb	r2, [r3, #20]	@ zero_extendqisi2
  69              	.LVL2:
  70              		.loc 1 47 24 discriminator 1 view .LVU8
  71 0016 8A42     		cmp	r2, r1
  72 0018 18D9     		bls	.L8
  73              		.loc 1 47 24 discriminator 3 view .LVU9
  74 001a 0631     		adds	r1, r1, #6
  75              	.LVL3:
  76              		.loc 1 47 24 discriminator 3 view .LVU10
  77 001c 53F82130 		ldr	r3, [r3, r1, lsl #2]
  78 0020 1E78     		ldrb	r6, [r3]	@ zero_extendqisi2
  79 0022 00E0     		b	.L2
  80              	.LVL4:
  81              	.L7:
  82              		.loc 1 47 24 view .LVU11
  83 0024 FF26     		movs	r6, #255
  84              	.LVL5:
  85              	.L2:
  48:../switch_sdk/core/fal/tiger/fal_tiger_ctrlpkt.c ****     CMM_ERR_CHK(HAL_TBL_REG_READ(unit, L2_UC_UNKNOWN_ACT_CTRLm, 0, sizeof(l2_uc_unknown_act_ctrl_t)
  86              		.loc 1 48 5 is_stmt 1 discriminator 6 view .LVU12
  87              		.loc 1 48 5 discriminator 6 view .LVU13
  88 0026 03AB     		add	r3, sp, #12
  89 0028 0093     		str	r3, [sp]
  90 002a 0423     		movs	r3, #4
  91 002c 0022     		movs	r2, #0
  92 002e AD21     		movs	r1, #173
  93 0030 2846     		mov	r0, r5
  94              	.LVL6:
  95              		.loc 1 48 5 is_stmt 0 discriminator 6 view .LVU14
  96 0032 FFF7FEFF 		bl	hal_table_reg_read
  97              	.LVL7:
  98 0036 0446     		mov	r4, r0
  99              	.LVL8:
 100              		.loc 1 48 5 discriminator 6 view .LVU15
 101 0038 10F0FF03 		ands	r3, r0, #255
 102 003c 18D0     		beq	.L3
 103              		.loc 1 48 5 is_stmt 1 discriminator 1 view .LVU16
 104              		.loc 1 48 5 discriminator 1 view .LVU17
 105 003e 2A4A     		ldr	r2, .L14+8
 106 0040 1278     		ldrb	r2, [r2]	@ zero_extendqisi2
 107 0042 012A     		cmp	r2, #1
 108 0044 04D8     		bhi	.L11
 109              	.LVL9:
 110              	.L4:
 111              		.loc 1 48 5 discriminator 5 view .LVU18
 112              		.loc 1 48 5 discriminator 5 view .LVU19
 113              		.loc 1 48 5 discriminator 5 view .LVU20
 114 0046 E0B2     		uxtb	r0, r4
 115              	.LVL10:
 116              	.L1:
  49:../switch_sdk/core/fal/tiger/fal_tiger_ctrlpkt.c ****     HAL_FIELD_GET(L2_UC_UNKNOWN_ACT_CTRLm, L2_UC_UNKNOWN_ACT_CTRL_L2_UC_UNKNOWN_ACTf, &act, &l2_act
  50:../switch_sdk/core/fal/tiger/fal_tiger_ctrlpkt.c ****     l2_act &= (~(3 << (macid * 2)));
  51:../switch_sdk/core/fal/tiger/fal_tiger_ctrlpkt.c ****     l2_act |= act_ctrl << (macid * 2);
  52:../switch_sdk/core/fal/tiger/fal_tiger_ctrlpkt.c ****     HAL_FIELD_SET(L2_UC_UNKNOWN_ACT_CTRLm, L2_UC_UNKNOWN_ACT_CTRL_L2_UC_UNKNOWN_ACTf, &act, l2_act)
  53:../switch_sdk/core/fal/tiger/fal_tiger_ctrlpkt.c ****     CMM_ERR_CHK(HAL_TBL_REG_WRITE(unit, L2_UC_UNKNOWN_ACT_CTRLm, 0, sizeof(l2_uc_unknown_act_ctrl_t
  54:../switch_sdk/core/fal/tiger/fal_tiger_ctrlpkt.c **** 
  55:../switch_sdk/core/fal/tiger/fal_tiger_ctrlpkt.c ****     return CMM_ERR_OK;
  56:../switch_sdk/core/fal/tiger/fal_tiger_ctrlpkt.c **** }
 117              		.loc 1 56 1 is_stmt 0 view .LVU21
 118 0048 05B0     		add	sp, sp, #20
 119              		.cfi_remember_state
 120              		.cfi_def_cfa_offset 20
 121              		@ sp needed
 122 004a F0BD     		pop	{r4, r5, r6, r7, pc}
 123              	.LVL11:
 124              	.L8:
 125              		.cfi_restore_state
  47:../switch_sdk/core/fal/tiger/fal_tiger_ctrlpkt.c ****     CMM_ERR_CHK(HAL_TBL_REG_READ(unit, L2_UC_UNKNOWN_ACT_CTRLm, 0, sizeof(l2_uc_unknown_act_ctrl_t)
 126              		.loc 1 47 24 view .LVU22
 127 004c FF26     		movs	r6, #255
 128 004e EAE7     		b	.L2
 129              	.LVL12:
 130              	.L11:
  48:../switch_sdk/core/fal/tiger/fal_tiger_ctrlpkt.c ****     CMM_ERR_CHK(HAL_TBL_REG_READ(unit, L2_UC_UNKNOWN_ACT_CTRLm, 0, sizeof(l2_uc_unknown_act_ctrl_t)
 131              		.loc 1 48 5 is_stmt 1 discriminator 3 view .LVU23
 132              	.LBB2:
  48:../switch_sdk/core/fal/tiger/fal_tiger_ctrlpkt.c ****     CMM_ERR_CHK(HAL_TBL_REG_READ(unit, L2_UC_UNKNOWN_ACT_CTRLm, 0, sizeof(l2_uc_unknown_act_ctrl_t)
 133              		.loc 1 48 5 discriminator 3 view .LVU24
 134 0050 142B     		cmp	r3, #20
 135 0052 28BF     		it	cs
 136 0054 1423     		movcs	r3, #20
 137 0056 1A46     		mov	r2, r3
 138 0058 244B     		ldr	r3, .L14+12
 139 005a 0093     		str	r3, [sp]
 140 005c 244B     		ldr	r3, .L14+16
 141 005e 2549     		ldr	r1, .L14+20
 142 0060 51F82220 		ldr	r2, [r1, r2, lsl #2]
 143 0064 2449     		ldr	r1, .L14+24
 144 0066 8968     		ldr	r1, [r1, #8]
 145 0068 2448     		ldr	r0, .L14+28
 146              	.LVL13:
  48:../switch_sdk/core/fal/tiger/fal_tiger_ctrlpkt.c ****     CMM_ERR_CHK(HAL_TBL_REG_READ(unit, L2_UC_UNKNOWN_ACT_CTRLm, 0, sizeof(l2_uc_unknown_act_ctrl_t)
 147              		.loc 1 48 5 is_stmt 0 discriminator 3 view .LVU25
 148 006a FFF7FEFF 		bl	osal_printf
 149              	.LVL14:
 150 006e EAE7     		b	.L4
 151              	.LVL15:
 152              	.L3:
  48:../switch_sdk/core/fal/tiger/fal_tiger_ctrlpkt.c ****     CMM_ERR_CHK(HAL_TBL_REG_READ(unit, L2_UC_UNKNOWN_ACT_CTRLm, 0, sizeof(l2_uc_unknown_act_ctrl_t)
 153              		.loc 1 48 5 discriminator 3 view .LVU26
 154              	.LBE2:
  48:../switch_sdk/core/fal/tiger/fal_tiger_ctrlpkt.c ****     CMM_ERR_CHK(HAL_TBL_REG_READ(unit, L2_UC_UNKNOWN_ACT_CTRLm, 0, sizeof(l2_uc_unknown_act_ctrl_t)
 155              		.loc 1 48 5 is_stmt 1 discriminator 2 view .LVU27
  49:../switch_sdk/core/fal/tiger/fal_tiger_ctrlpkt.c ****     HAL_FIELD_GET(L2_UC_UNKNOWN_ACT_CTRLm, L2_UC_UNKNOWN_ACT_CTRL_L2_UC_UNKNOWN_ACTf, &act, &l2_act
 156              		.loc 1 49 5 discriminator 2 view .LVU28
 157              	.LBB3:
  49:../switch_sdk/core/fal/tiger/fal_tiger_ctrlpkt.c ****     HAL_FIELD_GET(L2_UC_UNKNOWN_ACT_CTRLm, L2_UC_UNKNOWN_ACT_CTRL_L2_UC_UNKNOWN_ACTf, &act, &l2_act
 158              		.loc 1 49 5 discriminator 2 view .LVU29
  49:../switch_sdk/core/fal/tiger/fal_tiger_ctrlpkt.c ****     HAL_FIELD_GET(L2_UC_UNKNOWN_ACT_CTRLm, L2_UC_UNKNOWN_ACT_CTRL_L2_UC_UNKNOWN_ACTf, &act, &l2_act
 159              		.loc 1 49 5 discriminator 2 view .LVU30
 160 0070 03AC     		add	r4, sp, #12
 161 0072 02AB     		add	r3, sp, #8
 162 0074 2246     		mov	r2, r4
 163 0076 0021     		movs	r1, #0
 164 0078 AD20     		movs	r0, #173
 165              	.LVL16:
  49:../switch_sdk/core/fal/tiger/fal_tiger_ctrlpkt.c ****     HAL_FIELD_GET(L2_UC_UNKNOWN_ACT_CTRLm, L2_UC_UNKNOWN_ACT_CTRL_L2_UC_UNKNOWN_ACTf, &act, &l2_act
 166              		.loc 1 49 5 is_stmt 0 discriminator 2 view .LVU31
 167 007a FFF7FEFF 		bl	hal_tbl_reg_field_get
 168              	.LVL17:
  49:../switch_sdk/core/fal/tiger/fal_tiger_ctrlpkt.c ****     HAL_FIELD_GET(L2_UC_UNKNOWN_ACT_CTRLm, L2_UC_UNKNOWN_ACT_CTRL_L2_UC_UNKNOWN_ACTf, &act, &l2_act
 169              		.loc 1 49 5 is_stmt 1 discriminator 2 view .LVU32
  49:../switch_sdk/core/fal/tiger/fal_tiger_ctrlpkt.c ****     HAL_FIELD_GET(L2_UC_UNKNOWN_ACT_CTRLm, L2_UC_UNKNOWN_ACT_CTRL_L2_UC_UNKNOWN_ACTf, &act, &l2_act
 170              		.loc 1 49 5 is_stmt 0 discriminator 2 view .LVU33
 171              	.LBE3:
  49:../switch_sdk/core/fal/tiger/fal_tiger_ctrlpkt.c ****     HAL_FIELD_GET(L2_UC_UNKNOWN_ACT_CTRLm, L2_UC_UNKNOWN_ACT_CTRL_L2_UC_UNKNOWN_ACTf, &act, &l2_act
 172              		.loc 1 49 5 is_stmt 1 discriminator 2 view .LVU34
  50:../switch_sdk/core/fal/tiger/fal_tiger_ctrlpkt.c ****     l2_act |= act_ctrl << (macid * 2);
 173              		.loc 1 50 5 discriminator 2 view .LVU35
  50:../switch_sdk/core/fal/tiger/fal_tiger_ctrlpkt.c ****     l2_act |= act_ctrl << (macid * 2);
 174              		.loc 1 50 30 is_stmt 0 discriminator 2 view .LVU36
 175 007e 7600     		lsls	r6, r6, #1
 176              	.LVL18:
  50:../switch_sdk/core/fal/tiger/fal_tiger_ctrlpkt.c ****     l2_act |= act_ctrl << (macid * 2);
 177              		.loc 1 50 20 discriminator 2 view .LVU37
 178 0080 0322     		movs	r2, #3
 179 0082 B240     		lsls	r2, r2, r6
  50:../switch_sdk/core/fal/tiger/fal_tiger_ctrlpkt.c ****     l2_act |= act_ctrl << (macid * 2);
 180              		.loc 1 50 12 discriminator 2 view .LVU38
 181 0084 029B     		ldr	r3, [sp, #8]
 182 0086 23EA0202 		bic	r2, r3, r2
 183              	.LVL19:
  51:../switch_sdk/core/fal/tiger/fal_tiger_ctrlpkt.c ****     HAL_FIELD_SET(L2_UC_UNKNOWN_ACT_CTRLm, L2_UC_UNKNOWN_ACT_CTRL_L2_UC_UNKNOWN_ACTf, &act, l2_act)
 184              		.loc 1 51 5 is_stmt 1 discriminator 2 view .LVU39
  51:../switch_sdk/core/fal/tiger/fal_tiger_ctrlpkt.c ****     HAL_FIELD_SET(L2_UC_UNKNOWN_ACT_CTRLm, L2_UC_UNKNOWN_ACT_CTRL_L2_UC_UNKNOWN_ACTf, &act, l2_act)
 185              		.loc 1 51 24 is_stmt 0 discriminator 2 view .LVU40
 186 008a 07FA06F3 		lsl	r3, r7, r6
 187              	.LVL20:
  52:../switch_sdk/core/fal/tiger/fal_tiger_ctrlpkt.c ****     CMM_ERR_CHK(HAL_TBL_REG_WRITE(unit, L2_UC_UNKNOWN_ACT_CTRLm, 0, sizeof(l2_uc_unknown_act_ctrl_t
 188              		.loc 1 52 5 is_stmt 1 discriminator 2 view .LVU41
 189 008e 1343     		orrs	r3, r3, r2
 190              	.LVL21:
  52:../switch_sdk/core/fal/tiger/fal_tiger_ctrlpkt.c ****     CMM_ERR_CHK(HAL_TBL_REG_WRITE(unit, L2_UC_UNKNOWN_ACT_CTRLm, 0, sizeof(l2_uc_unknown_act_ctrl_t
 191              		.loc 1 52 5 is_stmt 0 discriminator 2 view .LVU42
 192 0090 2246     		mov	r2, r4
 193 0092 0021     		movs	r1, #0
 194 0094 AD20     		movs	r0, #173
 195 0096 FFF7FEFF 		bl	hal_tbl_reg_field_set
 196              	.LVL22:
  53:../switch_sdk/core/fal/tiger/fal_tiger_ctrlpkt.c **** 
 197              		.loc 1 53 5 is_stmt 1 discriminator 2 view .LVU43
  53:../switch_sdk/core/fal/tiger/fal_tiger_ctrlpkt.c **** 
 198              		.loc 1 53 5 discriminator 2 view .LVU44
 199 009a 0094     		str	r4, [sp]
 200 009c 0423     		movs	r3, #4
 201 009e 0022     		movs	r2, #0
 202 00a0 AD21     		movs	r1, #173
 203 00a2 2846     		mov	r0, r5
 204 00a4 FFF7FEFF 		bl	hal_table_reg_write
 205              	.LVL23:
 206 00a8 0446     		mov	r4, r0
 207              	.LVL24:
  53:../switch_sdk/core/fal/tiger/fal_tiger_ctrlpkt.c **** 
 208              		.loc 1 53 5 is_stmt 0 discriminator 2 view .LVU45
 209 00aa 10F0FF03 		ands	r3, r0, #255
 210 00ae 01D1     		bne	.L12
  55:../switch_sdk/core/fal/tiger/fal_tiger_ctrlpkt.c **** }
 211              		.loc 1 55 12 view .LVU46
 212 00b0 0020     		movs	r0, #0
 213              	.LVL25:
  55:../switch_sdk/core/fal/tiger/fal_tiger_ctrlpkt.c **** }
 214              		.loc 1 55 12 view .LVU47
 215 00b2 C9E7     		b	.L1
 216              	.LVL26:
 217              	.L12:
  53:../switch_sdk/core/fal/tiger/fal_tiger_ctrlpkt.c **** 
 218              		.loc 1 53 5 is_stmt 1 discriminator 1 view .LVU48
  53:../switch_sdk/core/fal/tiger/fal_tiger_ctrlpkt.c **** 
 219              		.loc 1 53 5 discriminator 1 view .LVU49
 220 00b4 0C4A     		ldr	r2, .L14+8
 221 00b6 1278     		ldrb	r2, [r2]	@ zero_extendqisi2
 222 00b8 012A     		cmp	r2, #1
 223 00ba 01D8     		bhi	.L13
 224              	.LVL27:
 225              	.L6:
  53:../switch_sdk/core/fal/tiger/fal_tiger_ctrlpkt.c **** 
 226              		.loc 1 53 5 discriminator 5 view .LVU50
  53:../switch_sdk/core/fal/tiger/fal_tiger_ctrlpkt.c **** 
 227              		.loc 1 53 5 discriminator 5 view .LVU51
  53:../switch_sdk/core/fal/tiger/fal_tiger_ctrlpkt.c **** 
 228              		.loc 1 53 5 discriminator 5 view .LVU52
 229 00bc E0B2     		uxtb	r0, r4
 230 00be C3E7     		b	.L1
 231              	.LVL28:
 232              	.L13:
  53:../switch_sdk/core/fal/tiger/fal_tiger_ctrlpkt.c **** 
 233              		.loc 1 53 5 discriminator 3 view .LVU53
 234              	.LBB4:
  53:../switch_sdk/core/fal/tiger/fal_tiger_ctrlpkt.c **** 
 235              		.loc 1 53 5 discriminator 3 view .LVU54
 236 00c0 142B     		cmp	r3, #20
 237 00c2 28BF     		it	cs
 238 00c4 1423     		movcs	r3, #20
 239 00c6 1A46     		mov	r2, r3
 240 00c8 084B     		ldr	r3, .L14+12
 241 00ca 0093     		str	r3, [sp]
 242 00cc 0C4B     		ldr	r3, .L14+32
 243 00ce 0949     		ldr	r1, .L14+20
 244 00d0 51F82220 		ldr	r2, [r1, r2, lsl #2]
 245 00d4 0849     		ldr	r1, .L14+24
 246 00d6 8968     		ldr	r1, [r1, #8]
 247 00d8 0848     		ldr	r0, .L14+28
 248              	.LVL29:
  53:../switch_sdk/core/fal/tiger/fal_tiger_ctrlpkt.c **** 
 249              		.loc 1 53 5 is_stmt 0 discriminator 3 view .LVU55
 250 00da FFF7FEFF 		bl	osal_printf
 251              	.LVL30:
 252 00de EDE7     		b	.L6
 253              	.L15:
 254              		.align	2
 255              	.L14:
 256 00e0 00000000 		.word	gcal_inited
 257 00e4 00000000 		.word	gpSwitchUnit
 258 00e8 00000000 		.word	yt_debug_level
 259 00ec 00000000 		.word	__FUNCTION__.11
 260 00f0 00000000 		.word	.LC0
 261 00f4 00000000 		.word	_yt_errmsg
 262 00f8 00000000 		.word	_yt_prompt_msg
 263 00fc 48000000 		.word	.LC1
 264 0100 60000000 		.word	.LC2
 265              	.LBE4:
 266              		.cfi_endproc
 267              	.LFE3:
 269              		.section	.text.fal_tiger_ctrlpkt_unknown_ucast_act_get,"ax",%progbits
 270              		.align	1
 271              		.global	fal_tiger_ctrlpkt_unknown_ucast_act_get
 272              		.syntax unified
 273              		.thumb
 274              		.thumb_func
 276              	fal_tiger_ctrlpkt_unknown_ucast_act_get:
 277              	.LVL31:
 278              	.LFB4:
  57:../switch_sdk/core/fal/tiger/fal_tiger_ctrlpkt.c **** 
  58:../switch_sdk/core/fal/tiger/fal_tiger_ctrlpkt.c **** yt_ret_t  fal_tiger_ctrlpkt_unknown_ucast_act_get(yt_unit_t unit, yt_port_t port, yt_ctrlpkt_l2_act
  59:../switch_sdk/core/fal/tiger/fal_tiger_ctrlpkt.c **** {
 279              		.loc 1 59 1 is_stmt 1 view -0
 280              		.cfi_startproc
 281              		@ args = 0, pretend = 0, frame = 8
 282              		@ frame_needed = 0, uses_anonymous_args = 0
 283              		.loc 1 59 1 is_stmt 0 view .LVU57
 284 0000 70B5     		push	{r4, r5, r6, lr}
 285              		.cfi_def_cfa_offset 16
 286              		.cfi_offset 4, -16
 287              		.cfi_offset 5, -12
 288              		.cfi_offset 6, -8
 289              		.cfi_offset 14, -4
 290 0002 84B0     		sub	sp, sp, #16
 291              		.cfi_def_cfa_offset 32
 292 0004 1546     		mov	r5, r2
  60:../switch_sdk/core/fal/tiger/fal_tiger_ctrlpkt.c ****     cmm_err_t ret                   = CMM_ERR_OK;
 293              		.loc 1 60 5 is_stmt 1 view .LVU58
 294              	.LVL32:
  61:../switch_sdk/core/fal/tiger/fal_tiger_ctrlpkt.c ****     l2_uc_unknown_act_ctrl_t act;
 295              		.loc 1 61 5 view .LVU59
  62:../switch_sdk/core/fal/tiger/fal_tiger_ctrlpkt.c ****     uint32_t l2_act;
 296              		.loc 1 62 5 view .LVU60
  63:../switch_sdk/core/fal/tiger/fal_tiger_ctrlpkt.c **** 
  64:../switch_sdk/core/fal/tiger/fal_tiger_ctrlpkt.c ****     yt_macid_t macid = CAL_YTP_TO_MAC(unit,port);
 297              		.loc 1 64 5 view .LVU61
 298              		.loc 1 64 24 is_stmt 0 view .LVU62
 299 0006 204B     		ldr	r3, .L25
 300 0008 1B78     		ldrb	r3, [r3]	@ zero_extendqisi2
 301 000a 53B1     		cbz	r3, .L21
 302              		.loc 1 64 24 discriminator 1 view .LVU63
 303 000c 1F4B     		ldr	r3, .L25+4
 304 000e 53F82030 		ldr	r3, [r3, r0, lsl #2]
 305 0012 1A7D     		ldrb	r2, [r3, #20]	@ zero_extendqisi2
 306              	.LVL33:
 307              		.loc 1 64 24 discriminator 1 view .LVU64
 308 0014 8A42     		cmp	r2, r1
 309 0016 17D9     		bls	.L22
 310              		.loc 1 64 24 discriminator 3 view .LVU65
 311 0018 0631     		adds	r1, r1, #6
 312              	.LVL34:
 313              		.loc 1 64 24 discriminator 3 view .LVU66
 314 001a 53F82130 		ldr	r3, [r3, r1, lsl #2]
 315 001e 1E78     		ldrb	r6, [r3]	@ zero_extendqisi2
 316 0020 00E0     		b	.L17
 317              	.LVL35:
 318              	.L21:
 319              		.loc 1 64 24 view .LVU67
 320 0022 FF26     		movs	r6, #255
 321              	.LVL36:
 322              	.L17:
  65:../switch_sdk/core/fal/tiger/fal_tiger_ctrlpkt.c ****     CMM_ERR_CHK(HAL_TBL_REG_READ(unit, L2_UC_UNKNOWN_ACT_CTRLm, 0, sizeof(l2_uc_unknown_act_ctrl_t)
 323              		.loc 1 65 5 is_stmt 1 discriminator 6 view .LVU68
 324              		.loc 1 65 5 discriminator 6 view .LVU69
 325 0024 03AB     		add	r3, sp, #12
 326 0026 0093     		str	r3, [sp]
 327 0028 0423     		movs	r3, #4
 328 002a 0022     		movs	r2, #0
 329 002c AD21     		movs	r1, #173
 330 002e FFF7FEFF 		bl	hal_table_reg_read
 331              	.LVL37:
 332              		.loc 1 65 5 is_stmt 0 discriminator 6 view .LVU70
 333 0032 0446     		mov	r4, r0
 334              	.LVL38:
 335              		.loc 1 65 5 discriminator 6 view .LVU71
 336 0034 10F0FF03 		ands	r3, r0, #255
 337 0038 18D0     		beq	.L18
 338              		.loc 1 65 5 is_stmt 1 discriminator 1 view .LVU72
 339              		.loc 1 65 5 discriminator 1 view .LVU73
 340 003a 154A     		ldr	r2, .L25+8
 341 003c 1278     		ldrb	r2, [r2]	@ zero_extendqisi2
 342 003e 012A     		cmp	r2, #1
 343 0040 04D8     		bhi	.L24
 344              	.LVL39:
 345              	.L19:
 346              		.loc 1 65 5 discriminator 5 view .LVU74
 347              		.loc 1 65 5 discriminator 5 view .LVU75
 348              		.loc 1 65 5 discriminator 5 view .LVU76
 349 0042 E0B2     		uxtb	r0, r4
 350              	.LVL40:
 351              	.L16:
  66:../switch_sdk/core/fal/tiger/fal_tiger_ctrlpkt.c ****     HAL_FIELD_GET(L2_UC_UNKNOWN_ACT_CTRLm, L2_UC_UNKNOWN_ACT_CTRL_L2_UC_UNKNOWN_ACTf, &act, &l2_act
  67:../switch_sdk/core/fal/tiger/fal_tiger_ctrlpkt.c ****     *pAct_ctrl = (l2_act >> (macid * 2)) & 0x3;
  68:../switch_sdk/core/fal/tiger/fal_tiger_ctrlpkt.c **** 
  69:../switch_sdk/core/fal/tiger/fal_tiger_ctrlpkt.c ****     return CMM_ERR_OK;
  70:../switch_sdk/core/fal/tiger/fal_tiger_ctrlpkt.c **** }
 352              		.loc 1 70 1 is_stmt 0 view .LVU77
 353 0044 04B0     		add	sp, sp, #16
 354              		.cfi_remember_state
 355              		.cfi_def_cfa_offset 16
 356              		@ sp needed
 357 0046 70BD     		pop	{r4, r5, r6, pc}
 358              	.LVL41:
 359              	.L22:
 360              		.cfi_restore_state
  64:../switch_sdk/core/fal/tiger/fal_tiger_ctrlpkt.c ****     CMM_ERR_CHK(HAL_TBL_REG_READ(unit, L2_UC_UNKNOWN_ACT_CTRLm, 0, sizeof(l2_uc_unknown_act_ctrl_t)
 361              		.loc 1 64 24 view .LVU78
 362 0048 FF26     		movs	r6, #255
 363 004a EBE7     		b	.L17
 364              	.LVL42:
 365              	.L24:
  65:../switch_sdk/core/fal/tiger/fal_tiger_ctrlpkt.c ****     CMM_ERR_CHK(HAL_TBL_REG_READ(unit, L2_UC_UNKNOWN_ACT_CTRLm, 0, sizeof(l2_uc_unknown_act_ctrl_t)
 366              		.loc 1 65 5 is_stmt 1 discriminator 3 view .LVU79
 367              	.LBB5:
  65:../switch_sdk/core/fal/tiger/fal_tiger_ctrlpkt.c ****     CMM_ERR_CHK(HAL_TBL_REG_READ(unit, L2_UC_UNKNOWN_ACT_CTRLm, 0, sizeof(l2_uc_unknown_act_ctrl_t)
 368              		.loc 1 65 5 discriminator 3 view .LVU80
 369 004c 142B     		cmp	r3, #20
 370 004e 28BF     		it	cs
 371 0050 1423     		movcs	r3, #20
 372 0052 1A46     		mov	r2, r3
 373 0054 0F4B     		ldr	r3, .L25+12
 374 0056 0093     		str	r3, [sp]
 375 0058 0F4B     		ldr	r3, .L25+16
 376 005a 1049     		ldr	r1, .L25+20
 377 005c 51F82220 		ldr	r2, [r1, r2, lsl #2]
 378 0060 0F49     		ldr	r1, .L25+24
 379 0062 8968     		ldr	r1, [r1, #8]
 380 0064 0F48     		ldr	r0, .L25+28
 381              	.LVL43:
  65:../switch_sdk/core/fal/tiger/fal_tiger_ctrlpkt.c ****     CMM_ERR_CHK(HAL_TBL_REG_READ(unit, L2_UC_UNKNOWN_ACT_CTRLm, 0, sizeof(l2_uc_unknown_act_ctrl_t)
 382              		.loc 1 65 5 is_stmt 0 discriminator 3 view .LVU81
 383 0066 FFF7FEFF 		bl	osal_printf
 384              	.LVL44:
 385 006a EAE7     		b	.L19
 386              	.LVL45:
 387              	.L18:
  65:../switch_sdk/core/fal/tiger/fal_tiger_ctrlpkt.c ****     CMM_ERR_CHK(HAL_TBL_REG_READ(unit, L2_UC_UNKNOWN_ACT_CTRLm, 0, sizeof(l2_uc_unknown_act_ctrl_t)
 388              		.loc 1 65 5 discriminator 3 view .LVU82
 389              	.LBE5:
  65:../switch_sdk/core/fal/tiger/fal_tiger_ctrlpkt.c ****     CMM_ERR_CHK(HAL_TBL_REG_READ(unit, L2_UC_UNKNOWN_ACT_CTRLm, 0, sizeof(l2_uc_unknown_act_ctrl_t)
 390              		.loc 1 65 5 is_stmt 1 discriminator 2 view .LVU83
  66:../switch_sdk/core/fal/tiger/fal_tiger_ctrlpkt.c ****     HAL_FIELD_GET(L2_UC_UNKNOWN_ACT_CTRLm, L2_UC_UNKNOWN_ACT_CTRL_L2_UC_UNKNOWN_ACTf, &act, &l2_act
 391              		.loc 1 66 5 discriminator 2 view .LVU84
 392              	.LBB6:
  66:../switch_sdk/core/fal/tiger/fal_tiger_ctrlpkt.c ****     HAL_FIELD_GET(L2_UC_UNKNOWN_ACT_CTRLm, L2_UC_UNKNOWN_ACT_CTRL_L2_UC_UNKNOWN_ACTf, &act, &l2_act
 393              		.loc 1 66 5 discriminator 2 view .LVU85
  66:../switch_sdk/core/fal/tiger/fal_tiger_ctrlpkt.c ****     HAL_FIELD_GET(L2_UC_UNKNOWN_ACT_CTRLm, L2_UC_UNKNOWN_ACT_CTRL_L2_UC_UNKNOWN_ACTf, &act, &l2_act
 394              		.loc 1 66 5 discriminator 2 view .LVU86
 395 006c 02AB     		add	r3, sp, #8
 396 006e 03AA     		add	r2, sp, #12
 397 0070 0021     		movs	r1, #0
 398 0072 AD20     		movs	r0, #173
 399              	.LVL46:
  66:../switch_sdk/core/fal/tiger/fal_tiger_ctrlpkt.c ****     HAL_FIELD_GET(L2_UC_UNKNOWN_ACT_CTRLm, L2_UC_UNKNOWN_ACT_CTRL_L2_UC_UNKNOWN_ACTf, &act, &l2_act
 400              		.loc 1 66 5 is_stmt 0 discriminator 2 view .LVU87
 401 0074 FFF7FEFF 		bl	hal_tbl_reg_field_get
 402              	.LVL47:
  66:../switch_sdk/core/fal/tiger/fal_tiger_ctrlpkt.c ****     HAL_FIELD_GET(L2_UC_UNKNOWN_ACT_CTRLm, L2_UC_UNKNOWN_ACT_CTRL_L2_UC_UNKNOWN_ACTf, &act, &l2_act
 403              		.loc 1 66 5 is_stmt 1 discriminator 2 view .LVU88
  66:../switch_sdk/core/fal/tiger/fal_tiger_ctrlpkt.c ****     HAL_FIELD_GET(L2_UC_UNKNOWN_ACT_CTRLm, L2_UC_UNKNOWN_ACT_CTRL_L2_UC_UNKNOWN_ACTf, &act, &l2_act
 404              		.loc 1 66 5 is_stmt 0 discriminator 2 view .LVU89
 405              	.LBE6:
  66:../switch_sdk/core/fal/tiger/fal_tiger_ctrlpkt.c ****     HAL_FIELD_GET(L2_UC_UNKNOWN_ACT_CTRLm, L2_UC_UNKNOWN_ACT_CTRL_L2_UC_UNKNOWN_ACTf, &act, &l2_act
 406              		.loc 1 66 5 is_stmt 1 discriminator 2 view .LVU90
  67:../switch_sdk/core/fal/tiger/fal_tiger_ctrlpkt.c **** 
 407              		.loc 1 67 5 discriminator 2 view .LVU91
  67:../switch_sdk/core/fal/tiger/fal_tiger_ctrlpkt.c **** 
 408              		.loc 1 67 36 is_stmt 0 discriminator 2 view .LVU92
 409 0078 7600     		lsls	r6, r6, #1
 410              	.LVL48:
  67:../switch_sdk/core/fal/tiger/fal_tiger_ctrlpkt.c **** 
 411              		.loc 1 67 26 discriminator 2 view .LVU93
 412 007a 029B     		ldr	r3, [sp, #8]
 413 007c F340     		lsrs	r3, r3, r6
  67:../switch_sdk/core/fal/tiger/fal_tiger_ctrlpkt.c **** 
 414              		.loc 1 67 42 discriminator 2 view .LVU94
 415 007e 03F00303 		and	r3, r3, #3
  67:../switch_sdk/core/fal/tiger/fal_tiger_ctrlpkt.c **** 
 416              		.loc 1 67 16 discriminator 2 view .LVU95
 417 0082 2B70     		strb	r3, [r5]
 418              	.LVL49:
  69:../switch_sdk/core/fal/tiger/fal_tiger_ctrlpkt.c **** }
 419              		.loc 1 69 5 is_stmt 1 discriminator 2 view .LVU96
  69:../switch_sdk/core/fal/tiger/fal_tiger_ctrlpkt.c **** }
 420              		.loc 1 69 12 is_stmt 0 discriminator 2 view .LVU97
 421 0084 0020     		movs	r0, #0
 422 0086 DDE7     		b	.L16
 423              	.L26:
 424              		.align	2
 425              	.L25:
 426 0088 00000000 		.word	gcal_inited
 427 008c 00000000 		.word	gpSwitchUnit
 428 0090 00000000 		.word	yt_debug_level
 429 0094 00000000 		.word	__FUNCTION__.10
 430 0098 00000000 		.word	.LC0
 431 009c 00000000 		.word	_yt_errmsg
 432 00a0 00000000 		.word	_yt_prompt_msg
 433 00a4 48000000 		.word	.LC1
 434              		.cfi_endproc
 435              	.LFE4:
 437              		.section	.rodata.fal_tiger_ctrlpkt_unknown_mcast_act_set.str1.4,"aMS",%progbits,1
 438              		.align	2
 439              	.LC3:
 440 0000 68616C5F 		.ascii	"hal_table_reg_read(unit,174,0,sizeof(l2_mc_unknown_"
 440      7461626C 
 440      655F7265 
 440      675F7265 
 440      61642875 
 441 0033 6163745F 		.ascii	"act_ctrl_t),&act)\000"
 441      6374726C 
 441      5F74292C 
 441      26616374 
 441      2900
 442 0045 000000   		.align	2
 443              	.LC4:
 444 0048 68616C5F 		.ascii	"hal_table_reg_write(unit,174,0,sizeof(l2_mc_unknown"
 444      7461626C 
 444      655F7265 
 444      675F7772 
 444      69746528 
 445 007b 5F616374 		.ascii	"_act_ctrl_t),&act)\000"
 445      5F637472 
 445      6C5F7429 
 445      2C266163 
 445      742900
 446              		.section	.text.fal_tiger_ctrlpkt_unknown_mcast_act_set,"ax",%progbits
 447              		.align	1
 448              		.global	fal_tiger_ctrlpkt_unknown_mcast_act_set
 449              		.syntax unified
 450              		.thumb
 451              		.thumb_func
 453              	fal_tiger_ctrlpkt_unknown_mcast_act_set:
 454              	.LVL50:
 455              	.LFB5:
  71:../switch_sdk/core/fal/tiger/fal_tiger_ctrlpkt.c **** 
  72:../switch_sdk/core/fal/tiger/fal_tiger_ctrlpkt.c **** yt_ret_t  fal_tiger_ctrlpkt_unknown_mcast_act_set(yt_unit_t unit, yt_port_t port, yt_ctrlpkt_l2_act
  73:../switch_sdk/core/fal/tiger/fal_tiger_ctrlpkt.c **** {
 456              		.loc 1 73 1 is_stmt 1 view -0
 457              		.cfi_startproc
 458              		@ args = 0, pretend = 0, frame = 8
 459              		@ frame_needed = 0, uses_anonymous_args = 0
 460              		.loc 1 73 1 is_stmt 0 view .LVU99
 461 0000 F0B5     		push	{r4, r5, r6, r7, lr}
 462              		.cfi_def_cfa_offset 20
 463              		.cfi_offset 4, -20
 464              		.cfi_offset 5, -16
 465              		.cfi_offset 6, -12
 466              		.cfi_offset 7, -8
 467              		.cfi_offset 14, -4
 468 0002 85B0     		sub	sp, sp, #20
 469              		.cfi_def_cfa_offset 40
 470 0004 0546     		mov	r5, r0
 471 0006 1746     		mov	r7, r2
  74:../switch_sdk/core/fal/tiger/fal_tiger_ctrlpkt.c ****     cmm_err_t ret                   = CMM_ERR_OK;
 472              		.loc 1 74 5 is_stmt 1 view .LVU100
 473              	.LVL51:
  75:../switch_sdk/core/fal/tiger/fal_tiger_ctrlpkt.c ****     l2_mc_unknown_act_ctrl_t act;
 474              		.loc 1 75 5 view .LVU101
  76:../switch_sdk/core/fal/tiger/fal_tiger_ctrlpkt.c ****     uint32_t l2_act;
 475              		.loc 1 76 5 view .LVU102
  77:../switch_sdk/core/fal/tiger/fal_tiger_ctrlpkt.c **** 
  78:../switch_sdk/core/fal/tiger/fal_tiger_ctrlpkt.c ****     yt_macid_t macid = CAL_YTP_TO_MAC(unit,port);
 476              		.loc 1 78 5 view .LVU103
 477              		.loc 1 78 24 is_stmt 0 view .LVU104
 478 0008 354B     		ldr	r3, .L40
 479 000a 1B78     		ldrb	r3, [r3]	@ zero_extendqisi2
 480 000c 53B1     		cbz	r3, .L33
 481              		.loc 1 78 24 discriminator 1 view .LVU105
 482 000e 354B     		ldr	r3, .L40+4
 483 0010 53F82030 		ldr	r3, [r3, r0, lsl #2]
 484 0014 1A7D     		ldrb	r2, [r3, #20]	@ zero_extendqisi2
 485              	.LVL52:
 486              		.loc 1 78 24 discriminator 1 view .LVU106
 487 0016 8A42     		cmp	r2, r1
 488 0018 18D9     		bls	.L34
 489              		.loc 1 78 24 discriminator 3 view .LVU107
 490 001a 0631     		adds	r1, r1, #6
 491              	.LVL53:
 492              		.loc 1 78 24 discriminator 3 view .LVU108
 493 001c 53F82130 		ldr	r3, [r3, r1, lsl #2]
 494 0020 1E78     		ldrb	r6, [r3]	@ zero_extendqisi2
 495 0022 00E0     		b	.L28
 496              	.LVL54:
 497              	.L33:
 498              		.loc 1 78 24 view .LVU109
 499 0024 FF26     		movs	r6, #255
 500              	.LVL55:
 501              	.L28:
  79:../switch_sdk/core/fal/tiger/fal_tiger_ctrlpkt.c ****     CMM_ERR_CHK(HAL_TBL_REG_READ(unit, L2_MC_UNKNOWN_ACT_CTRLm, 0, sizeof(l2_mc_unknown_act_ctrl_t)
 502              		.loc 1 79 5 is_stmt 1 discriminator 6 view .LVU110
 503              		.loc 1 79 5 discriminator 6 view .LVU111
 504 0026 03AB     		add	r3, sp, #12
 505 0028 0093     		str	r3, [sp]
 506 002a 0423     		movs	r3, #4
 507 002c 0022     		movs	r2, #0
 508 002e AE21     		movs	r1, #174
 509 0030 2846     		mov	r0, r5
 510              	.LVL56:
 511              		.loc 1 79 5 is_stmt 0 discriminator 6 view .LVU112
 512 0032 FFF7FEFF 		bl	hal_table_reg_read
 513              	.LVL57:
 514 0036 0446     		mov	r4, r0
 515              	.LVL58:
 516              		.loc 1 79 5 discriminator 6 view .LVU113
 517 0038 10F0FF03 		ands	r3, r0, #255
 518 003c 18D0     		beq	.L29
 519              		.loc 1 79 5 is_stmt 1 discriminator 1 view .LVU114
 520              		.loc 1 79 5 discriminator 1 view .LVU115
 521 003e 2A4A     		ldr	r2, .L40+8
 522 0040 1278     		ldrb	r2, [r2]	@ zero_extendqisi2
 523 0042 012A     		cmp	r2, #1
 524 0044 04D8     		bhi	.L37
 525              	.LVL59:
 526              	.L30:
 527              		.loc 1 79 5 discriminator 5 view .LVU116
 528              		.loc 1 79 5 discriminator 5 view .LVU117
 529              		.loc 1 79 5 discriminator 5 view .LVU118
 530 0046 E0B2     		uxtb	r0, r4
 531              	.LVL60:
 532              	.L27:
  80:../switch_sdk/core/fal/tiger/fal_tiger_ctrlpkt.c ****     HAL_FIELD_GET(L2_MC_UNKNOWN_ACT_CTRLm, L2_MC_UNKNOWN_ACT_CTRL_L2_MC_UNKNOWN_ACTf, &act, &l2_act
  81:../switch_sdk/core/fal/tiger/fal_tiger_ctrlpkt.c ****     l2_act &= (~(3 << (macid * 2)));
  82:../switch_sdk/core/fal/tiger/fal_tiger_ctrlpkt.c ****     l2_act |= act_ctrl << (macid * 2);
  83:../switch_sdk/core/fal/tiger/fal_tiger_ctrlpkt.c ****     HAL_FIELD_SET(L2_MC_UNKNOWN_ACT_CTRLm, L2_MC_UNKNOWN_ACT_CTRL_L2_MC_UNKNOWN_ACTf, &act, l2_act)
  84:../switch_sdk/core/fal/tiger/fal_tiger_ctrlpkt.c ****     CMM_ERR_CHK(HAL_TBL_REG_WRITE(unit, L2_MC_UNKNOWN_ACT_CTRLm, 0, sizeof(l2_mc_unknown_act_ctrl_t
  85:../switch_sdk/core/fal/tiger/fal_tiger_ctrlpkt.c **** 
  86:../switch_sdk/core/fal/tiger/fal_tiger_ctrlpkt.c ****     return CMM_ERR_OK;
  87:../switch_sdk/core/fal/tiger/fal_tiger_ctrlpkt.c **** }
 533              		.loc 1 87 1 is_stmt 0 view .LVU119
 534 0048 05B0     		add	sp, sp, #20
 535              		.cfi_remember_state
 536              		.cfi_def_cfa_offset 20
 537              		@ sp needed
 538 004a F0BD     		pop	{r4, r5, r6, r7, pc}
 539              	.LVL61:
 540              	.L34:
 541              		.cfi_restore_state
  78:../switch_sdk/core/fal/tiger/fal_tiger_ctrlpkt.c ****     CMM_ERR_CHK(HAL_TBL_REG_READ(unit, L2_MC_UNKNOWN_ACT_CTRLm, 0, sizeof(l2_mc_unknown_act_ctrl_t)
 542              		.loc 1 78 24 view .LVU120
 543 004c FF26     		movs	r6, #255
 544 004e EAE7     		b	.L28
 545              	.LVL62:
 546              	.L37:
  79:../switch_sdk/core/fal/tiger/fal_tiger_ctrlpkt.c ****     CMM_ERR_CHK(HAL_TBL_REG_READ(unit, L2_MC_UNKNOWN_ACT_CTRLm, 0, sizeof(l2_mc_unknown_act_ctrl_t)
 547              		.loc 1 79 5 is_stmt 1 discriminator 3 view .LVU121
 548              	.LBB7:
  79:../switch_sdk/core/fal/tiger/fal_tiger_ctrlpkt.c ****     CMM_ERR_CHK(HAL_TBL_REG_READ(unit, L2_MC_UNKNOWN_ACT_CTRLm, 0, sizeof(l2_mc_unknown_act_ctrl_t)
 549              		.loc 1 79 5 discriminator 3 view .LVU122
 550 0050 142B     		cmp	r3, #20
 551 0052 28BF     		it	cs
 552 0054 1423     		movcs	r3, #20
 553 0056 1A46     		mov	r2, r3
 554 0058 244B     		ldr	r3, .L40+12
 555 005a 0093     		str	r3, [sp]
 556 005c 244B     		ldr	r3, .L40+16
 557 005e 2549     		ldr	r1, .L40+20
 558 0060 51F82220 		ldr	r2, [r1, r2, lsl #2]
 559 0064 2449     		ldr	r1, .L40+24
 560 0066 8968     		ldr	r1, [r1, #8]
 561 0068 2448     		ldr	r0, .L40+28
 562              	.LVL63:
  79:../switch_sdk/core/fal/tiger/fal_tiger_ctrlpkt.c ****     CMM_ERR_CHK(HAL_TBL_REG_READ(unit, L2_MC_UNKNOWN_ACT_CTRLm, 0, sizeof(l2_mc_unknown_act_ctrl_t)
 563              		.loc 1 79 5 is_stmt 0 discriminator 3 view .LVU123
 564 006a FFF7FEFF 		bl	osal_printf
 565              	.LVL64:
 566 006e EAE7     		b	.L30
 567              	.LVL65:
 568              	.L29:
  79:../switch_sdk/core/fal/tiger/fal_tiger_ctrlpkt.c ****     CMM_ERR_CHK(HAL_TBL_REG_READ(unit, L2_MC_UNKNOWN_ACT_CTRLm, 0, sizeof(l2_mc_unknown_act_ctrl_t)
 569              		.loc 1 79 5 discriminator 3 view .LVU124
 570              	.LBE7:
  79:../switch_sdk/core/fal/tiger/fal_tiger_ctrlpkt.c ****     CMM_ERR_CHK(HAL_TBL_REG_READ(unit, L2_MC_UNKNOWN_ACT_CTRLm, 0, sizeof(l2_mc_unknown_act_ctrl_t)
 571              		.loc 1 79 5 is_stmt 1 discriminator 2 view .LVU125
  80:../switch_sdk/core/fal/tiger/fal_tiger_ctrlpkt.c ****     HAL_FIELD_GET(L2_MC_UNKNOWN_ACT_CTRLm, L2_MC_UNKNOWN_ACT_CTRL_L2_MC_UNKNOWN_ACTf, &act, &l2_act
 572              		.loc 1 80 5 discriminator 2 view .LVU126
 573              	.LBB8:
  80:../switch_sdk/core/fal/tiger/fal_tiger_ctrlpkt.c ****     HAL_FIELD_GET(L2_MC_UNKNOWN_ACT_CTRLm, L2_MC_UNKNOWN_ACT_CTRL_L2_MC_UNKNOWN_ACTf, &act, &l2_act
 574              		.loc 1 80 5 discriminator 2 view .LVU127
  80:../switch_sdk/core/fal/tiger/fal_tiger_ctrlpkt.c ****     HAL_FIELD_GET(L2_MC_UNKNOWN_ACT_CTRLm, L2_MC_UNKNOWN_ACT_CTRL_L2_MC_UNKNOWN_ACTf, &act, &l2_act
 575              		.loc 1 80 5 discriminator 2 view .LVU128
 576 0070 03AC     		add	r4, sp, #12
 577 0072 02AB     		add	r3, sp, #8
 578 0074 2246     		mov	r2, r4
 579 0076 0221     		movs	r1, #2
 580 0078 AE20     		movs	r0, #174
 581              	.LVL66:
  80:../switch_sdk/core/fal/tiger/fal_tiger_ctrlpkt.c ****     HAL_FIELD_GET(L2_MC_UNKNOWN_ACT_CTRLm, L2_MC_UNKNOWN_ACT_CTRL_L2_MC_UNKNOWN_ACTf, &act, &l2_act
 582              		.loc 1 80 5 is_stmt 0 discriminator 2 view .LVU129
 583 007a FFF7FEFF 		bl	hal_tbl_reg_field_get
 584              	.LVL67:
  80:../switch_sdk/core/fal/tiger/fal_tiger_ctrlpkt.c ****     HAL_FIELD_GET(L2_MC_UNKNOWN_ACT_CTRLm, L2_MC_UNKNOWN_ACT_CTRL_L2_MC_UNKNOWN_ACTf, &act, &l2_act
 585              		.loc 1 80 5 is_stmt 1 discriminator 2 view .LVU130
  80:../switch_sdk/core/fal/tiger/fal_tiger_ctrlpkt.c ****     HAL_FIELD_GET(L2_MC_UNKNOWN_ACT_CTRLm, L2_MC_UNKNOWN_ACT_CTRL_L2_MC_UNKNOWN_ACTf, &act, &l2_act
 586              		.loc 1 80 5 is_stmt 0 discriminator 2 view .LVU131
 587              	.LBE8:
  80:../switch_sdk/core/fal/tiger/fal_tiger_ctrlpkt.c ****     HAL_FIELD_GET(L2_MC_UNKNOWN_ACT_CTRLm, L2_MC_UNKNOWN_ACT_CTRL_L2_MC_UNKNOWN_ACTf, &act, &l2_act
 588              		.loc 1 80 5 is_stmt 1 discriminator 2 view .LVU132
  81:../switch_sdk/core/fal/tiger/fal_tiger_ctrlpkt.c ****     l2_act |= act_ctrl << (macid * 2);
 589              		.loc 1 81 5 discriminator 2 view .LVU133
  81:../switch_sdk/core/fal/tiger/fal_tiger_ctrlpkt.c ****     l2_act |= act_ctrl << (macid * 2);
 590              		.loc 1 81 30 is_stmt 0 discriminator 2 view .LVU134
 591 007e 7600     		lsls	r6, r6, #1
 592              	.LVL68:
  81:../switch_sdk/core/fal/tiger/fal_tiger_ctrlpkt.c ****     l2_act |= act_ctrl << (macid * 2);
 593              		.loc 1 81 20 discriminator 2 view .LVU135
 594 0080 0322     		movs	r2, #3
 595 0082 B240     		lsls	r2, r2, r6
  81:../switch_sdk/core/fal/tiger/fal_tiger_ctrlpkt.c ****     l2_act |= act_ctrl << (macid * 2);
 596              		.loc 1 81 12 discriminator 2 view .LVU136
 597 0084 029B     		ldr	r3, [sp, #8]
 598 0086 23EA0202 		bic	r2, r3, r2
 599              	.LVL69:
  82:../switch_sdk/core/fal/tiger/fal_tiger_ctrlpkt.c ****     HAL_FIELD_SET(L2_MC_UNKNOWN_ACT_CTRLm, L2_MC_UNKNOWN_ACT_CTRL_L2_MC_UNKNOWN_ACTf, &act, l2_act)
 600              		.loc 1 82 5 is_stmt 1 discriminator 2 view .LVU137
  82:../switch_sdk/core/fal/tiger/fal_tiger_ctrlpkt.c ****     HAL_FIELD_SET(L2_MC_UNKNOWN_ACT_CTRLm, L2_MC_UNKNOWN_ACT_CTRL_L2_MC_UNKNOWN_ACTf, &act, l2_act)
 601              		.loc 1 82 24 is_stmt 0 discriminator 2 view .LVU138
 602 008a 07FA06F3 		lsl	r3, r7, r6
 603              	.LVL70:
  83:../switch_sdk/core/fal/tiger/fal_tiger_ctrlpkt.c ****     CMM_ERR_CHK(HAL_TBL_REG_WRITE(unit, L2_MC_UNKNOWN_ACT_CTRLm, 0, sizeof(l2_mc_unknown_act_ctrl_t
 604              		.loc 1 83 5 is_stmt 1 discriminator 2 view .LVU139
 605 008e 1343     		orrs	r3, r3, r2
 606              	.LVL71:
  83:../switch_sdk/core/fal/tiger/fal_tiger_ctrlpkt.c ****     CMM_ERR_CHK(HAL_TBL_REG_WRITE(unit, L2_MC_UNKNOWN_ACT_CTRLm, 0, sizeof(l2_mc_unknown_act_ctrl_t
 607              		.loc 1 83 5 is_stmt 0 discriminator 2 view .LVU140
 608 0090 2246     		mov	r2, r4
 609 0092 0221     		movs	r1, #2
 610 0094 AE20     		movs	r0, #174
 611 0096 FFF7FEFF 		bl	hal_tbl_reg_field_set
 612              	.LVL72:
  84:../switch_sdk/core/fal/tiger/fal_tiger_ctrlpkt.c **** 
 613              		.loc 1 84 5 is_stmt 1 discriminator 2 view .LVU141
  84:../switch_sdk/core/fal/tiger/fal_tiger_ctrlpkt.c **** 
 614              		.loc 1 84 5 discriminator 2 view .LVU142
 615 009a 0094     		str	r4, [sp]
 616 009c 0423     		movs	r3, #4
 617 009e 0022     		movs	r2, #0
 618 00a0 AE21     		movs	r1, #174
 619 00a2 2846     		mov	r0, r5
 620 00a4 FFF7FEFF 		bl	hal_table_reg_write
 621              	.LVL73:
 622 00a8 0446     		mov	r4, r0
 623              	.LVL74:
  84:../switch_sdk/core/fal/tiger/fal_tiger_ctrlpkt.c **** 
 624              		.loc 1 84 5 is_stmt 0 discriminator 2 view .LVU143
 625 00aa 10F0FF03 		ands	r3, r0, #255
 626 00ae 01D1     		bne	.L38
  86:../switch_sdk/core/fal/tiger/fal_tiger_ctrlpkt.c **** }
 627              		.loc 1 86 12 view .LVU144
 628 00b0 0020     		movs	r0, #0
 629              	.LVL75:
  86:../switch_sdk/core/fal/tiger/fal_tiger_ctrlpkt.c **** }
 630              		.loc 1 86 12 view .LVU145
 631 00b2 C9E7     		b	.L27
 632              	.LVL76:
 633              	.L38:
  84:../switch_sdk/core/fal/tiger/fal_tiger_ctrlpkt.c **** 
 634              		.loc 1 84 5 is_stmt 1 discriminator 1 view .LVU146
  84:../switch_sdk/core/fal/tiger/fal_tiger_ctrlpkt.c **** 
 635              		.loc 1 84 5 discriminator 1 view .LVU147
 636 00b4 0C4A     		ldr	r2, .L40+8
 637 00b6 1278     		ldrb	r2, [r2]	@ zero_extendqisi2
 638 00b8 012A     		cmp	r2, #1
 639 00ba 01D8     		bhi	.L39
 640              	.LVL77:
 641              	.L32:
  84:../switch_sdk/core/fal/tiger/fal_tiger_ctrlpkt.c **** 
 642              		.loc 1 84 5 discriminator 5 view .LVU148
  84:../switch_sdk/core/fal/tiger/fal_tiger_ctrlpkt.c **** 
 643              		.loc 1 84 5 discriminator 5 view .LVU149
  84:../switch_sdk/core/fal/tiger/fal_tiger_ctrlpkt.c **** 
 644              		.loc 1 84 5 discriminator 5 view .LVU150
 645 00bc E0B2     		uxtb	r0, r4
 646 00be C3E7     		b	.L27
 647              	.LVL78:
 648              	.L39:
  84:../switch_sdk/core/fal/tiger/fal_tiger_ctrlpkt.c **** 
 649              		.loc 1 84 5 discriminator 3 view .LVU151
 650              	.LBB9:
  84:../switch_sdk/core/fal/tiger/fal_tiger_ctrlpkt.c **** 
 651              		.loc 1 84 5 discriminator 3 view .LVU152
 652 00c0 142B     		cmp	r3, #20
 653 00c2 28BF     		it	cs
 654 00c4 1423     		movcs	r3, #20
 655 00c6 1A46     		mov	r2, r3
 656 00c8 084B     		ldr	r3, .L40+12
 657 00ca 0093     		str	r3, [sp]
 658 00cc 0C4B     		ldr	r3, .L40+32
 659 00ce 0949     		ldr	r1, .L40+20
 660 00d0 51F82220 		ldr	r2, [r1, r2, lsl #2]
 661 00d4 0849     		ldr	r1, .L40+24
 662 00d6 8968     		ldr	r1, [r1, #8]
 663 00d8 0848     		ldr	r0, .L40+28
 664              	.LVL79:
  84:../switch_sdk/core/fal/tiger/fal_tiger_ctrlpkt.c **** 
 665              		.loc 1 84 5 is_stmt 0 discriminator 3 view .LVU153
 666 00da FFF7FEFF 		bl	osal_printf
 667              	.LVL80:
 668 00de EDE7     		b	.L32
 669              	.L41:
 670              		.align	2
 671              	.L40:
 672 00e0 00000000 		.word	gcal_inited
 673 00e4 00000000 		.word	gpSwitchUnit
 674 00e8 00000000 		.word	yt_debug_level
 675 00ec 00000000 		.word	__FUNCTION__.9
 676 00f0 00000000 		.word	.LC3
 677 00f4 00000000 		.word	_yt_errmsg
 678 00f8 00000000 		.word	_yt_prompt_msg
 679 00fc 48000000 		.word	.LC1
 680 0100 48000000 		.word	.LC4
 681              	.LBE9:
 682              		.cfi_endproc
 683              	.LFE5:
 685              		.section	.text.fal_tiger_ctrlpkt_unknown_mcast_act_get,"ax",%progbits
 686              		.align	1
 687              		.global	fal_tiger_ctrlpkt_unknown_mcast_act_get
 688              		.syntax unified
 689              		.thumb
 690              		.thumb_func
 692              	fal_tiger_ctrlpkt_unknown_mcast_act_get:
 693              	.LVL81:
 694              	.LFB6:
  88:../switch_sdk/core/fal/tiger/fal_tiger_ctrlpkt.c **** 
  89:../switch_sdk/core/fal/tiger/fal_tiger_ctrlpkt.c **** yt_ret_t  fal_tiger_ctrlpkt_unknown_mcast_act_get(yt_unit_t unit, yt_port_t port, yt_ctrlpkt_l2_act
  90:../switch_sdk/core/fal/tiger/fal_tiger_ctrlpkt.c **** {
 695              		.loc 1 90 1 is_stmt 1 view -0
 696              		.cfi_startproc
 697              		@ args = 0, pretend = 0, frame = 8
 698              		@ frame_needed = 0, uses_anonymous_args = 0
 699              		.loc 1 90 1 is_stmt 0 view .LVU155
 700 0000 70B5     		push	{r4, r5, r6, lr}
 701              		.cfi_def_cfa_offset 16
 702              		.cfi_offset 4, -16
 703              		.cfi_offset 5, -12
 704              		.cfi_offset 6, -8
 705              		.cfi_offset 14, -4
 706 0002 84B0     		sub	sp, sp, #16
 707              		.cfi_def_cfa_offset 32
 708 0004 1546     		mov	r5, r2
  91:../switch_sdk/core/fal/tiger/fal_tiger_ctrlpkt.c ****     cmm_err_t ret                   = CMM_ERR_OK;
 709              		.loc 1 91 5 is_stmt 1 view .LVU156
 710              	.LVL82:
  92:../switch_sdk/core/fal/tiger/fal_tiger_ctrlpkt.c ****     l2_mc_unknown_act_ctrl_t act;
 711              		.loc 1 92 5 view .LVU157
  93:../switch_sdk/core/fal/tiger/fal_tiger_ctrlpkt.c ****     uint32_t l2_act;
 712              		.loc 1 93 5 view .LVU158
  94:../switch_sdk/core/fal/tiger/fal_tiger_ctrlpkt.c **** 
  95:../switch_sdk/core/fal/tiger/fal_tiger_ctrlpkt.c ****     yt_macid_t macid = CAL_YTP_TO_MAC(unit,port);
 713              		.loc 1 95 5 view .LVU159
 714              		.loc 1 95 24 is_stmt 0 view .LVU160
 715 0006 204B     		ldr	r3, .L51
 716 0008 1B78     		ldrb	r3, [r3]	@ zero_extendqisi2
 717 000a 53B1     		cbz	r3, .L47
 718              		.loc 1 95 24 discriminator 1 view .LVU161
 719 000c 1F4B     		ldr	r3, .L51+4
 720 000e 53F82030 		ldr	r3, [r3, r0, lsl #2]
 721 0012 1A7D     		ldrb	r2, [r3, #20]	@ zero_extendqisi2
 722              	.LVL83:
 723              		.loc 1 95 24 discriminator 1 view .LVU162
 724 0014 8A42     		cmp	r2, r1
 725 0016 17D9     		bls	.L48
 726              		.loc 1 95 24 discriminator 3 view .LVU163
 727 0018 0631     		adds	r1, r1, #6
 728              	.LVL84:
 729              		.loc 1 95 24 discriminator 3 view .LVU164
 730 001a 53F82130 		ldr	r3, [r3, r1, lsl #2]
 731 001e 1E78     		ldrb	r6, [r3]	@ zero_extendqisi2
 732 0020 00E0     		b	.L43
 733              	.LVL85:
 734              	.L47:
 735              		.loc 1 95 24 view .LVU165
 736 0022 FF26     		movs	r6, #255
 737              	.LVL86:
 738              	.L43:
  96:../switch_sdk/core/fal/tiger/fal_tiger_ctrlpkt.c ****     CMM_ERR_CHK(HAL_TBL_REG_READ(unit, L2_MC_UNKNOWN_ACT_CTRLm, 0, sizeof(l2_mc_unknown_act_ctrl_t)
 739              		.loc 1 96 5 is_stmt 1 discriminator 6 view .LVU166
 740              		.loc 1 96 5 discriminator 6 view .LVU167
 741 0024 03AB     		add	r3, sp, #12
 742 0026 0093     		str	r3, [sp]
 743 0028 0423     		movs	r3, #4
 744 002a 0022     		movs	r2, #0
 745 002c AE21     		movs	r1, #174
 746 002e FFF7FEFF 		bl	hal_table_reg_read
 747              	.LVL87:
 748              		.loc 1 96 5 is_stmt 0 discriminator 6 view .LVU168
 749 0032 0446     		mov	r4, r0
 750              	.LVL88:
 751              		.loc 1 96 5 discriminator 6 view .LVU169
 752 0034 10F0FF03 		ands	r3, r0, #255
 753 0038 18D0     		beq	.L44
 754              		.loc 1 96 5 is_stmt 1 discriminator 1 view .LVU170
 755              		.loc 1 96 5 discriminator 1 view .LVU171
 756 003a 154A     		ldr	r2, .L51+8
 757 003c 1278     		ldrb	r2, [r2]	@ zero_extendqisi2
 758 003e 012A     		cmp	r2, #1
 759 0040 04D8     		bhi	.L50
 760              	.LVL89:
 761              	.L45:
 762              		.loc 1 96 5 discriminator 5 view .LVU172
 763              		.loc 1 96 5 discriminator 5 view .LVU173
 764              		.loc 1 96 5 discriminator 5 view .LVU174
 765 0042 E0B2     		uxtb	r0, r4
 766              	.LVL90:
 767              	.L42:
  97:../switch_sdk/core/fal/tiger/fal_tiger_ctrlpkt.c ****     HAL_FIELD_GET(L2_MC_UNKNOWN_ACT_CTRLm, L2_MC_UNKNOWN_ACT_CTRL_L2_MC_UNKNOWN_ACTf, &act, &l2_act
  98:../switch_sdk/core/fal/tiger/fal_tiger_ctrlpkt.c ****     *pAct_ctrl = (l2_act >> (macid * 2)) & 0x3;
  99:../switch_sdk/core/fal/tiger/fal_tiger_ctrlpkt.c **** 
 100:../switch_sdk/core/fal/tiger/fal_tiger_ctrlpkt.c ****     return CMM_ERR_OK;
 101:../switch_sdk/core/fal/tiger/fal_tiger_ctrlpkt.c **** }
 768              		.loc 1 101 1 is_stmt 0 view .LVU175
 769 0044 04B0     		add	sp, sp, #16
 770              		.cfi_remember_state
 771              		.cfi_def_cfa_offset 16
 772              		@ sp needed
 773 0046 70BD     		pop	{r4, r5, r6, pc}
 774              	.LVL91:
 775              	.L48:
 776              		.cfi_restore_state
  95:../switch_sdk/core/fal/tiger/fal_tiger_ctrlpkt.c ****     CMM_ERR_CHK(HAL_TBL_REG_READ(unit, L2_MC_UNKNOWN_ACT_CTRLm, 0, sizeof(l2_mc_unknown_act_ctrl_t)
 777              		.loc 1 95 24 view .LVU176
 778 0048 FF26     		movs	r6, #255
 779 004a EBE7     		b	.L43
 780              	.LVL92:
 781              	.L50:
  96:../switch_sdk/core/fal/tiger/fal_tiger_ctrlpkt.c ****     CMM_ERR_CHK(HAL_TBL_REG_READ(unit, L2_MC_UNKNOWN_ACT_CTRLm, 0, sizeof(l2_mc_unknown_act_ctrl_t)
 782              		.loc 1 96 5 is_stmt 1 discriminator 3 view .LVU177
 783              	.LBB10:
  96:../switch_sdk/core/fal/tiger/fal_tiger_ctrlpkt.c ****     CMM_ERR_CHK(HAL_TBL_REG_READ(unit, L2_MC_UNKNOWN_ACT_CTRLm, 0, sizeof(l2_mc_unknown_act_ctrl_t)
 784              		.loc 1 96 5 discriminator 3 view .LVU178
 785 004c 142B     		cmp	r3, #20
 786 004e 28BF     		it	cs
 787 0050 1423     		movcs	r3, #20
 788 0052 1A46     		mov	r2, r3
 789 0054 0F4B     		ldr	r3, .L51+12
 790 0056 0093     		str	r3, [sp]
 791 0058 0F4B     		ldr	r3, .L51+16
 792 005a 1049     		ldr	r1, .L51+20
 793 005c 51F82220 		ldr	r2, [r1, r2, lsl #2]
 794 0060 0F49     		ldr	r1, .L51+24
 795 0062 8968     		ldr	r1, [r1, #8]
 796 0064 0F48     		ldr	r0, .L51+28
 797              	.LVL93:
  96:../switch_sdk/core/fal/tiger/fal_tiger_ctrlpkt.c ****     CMM_ERR_CHK(HAL_TBL_REG_READ(unit, L2_MC_UNKNOWN_ACT_CTRLm, 0, sizeof(l2_mc_unknown_act_ctrl_t)
 798              		.loc 1 96 5 is_stmt 0 discriminator 3 view .LVU179
 799 0066 FFF7FEFF 		bl	osal_printf
 800              	.LVL94:
 801 006a EAE7     		b	.L45
 802              	.LVL95:
 803              	.L44:
  96:../switch_sdk/core/fal/tiger/fal_tiger_ctrlpkt.c ****     CMM_ERR_CHK(HAL_TBL_REG_READ(unit, L2_MC_UNKNOWN_ACT_CTRLm, 0, sizeof(l2_mc_unknown_act_ctrl_t)
 804              		.loc 1 96 5 discriminator 3 view .LVU180
 805              	.LBE10:
  96:../switch_sdk/core/fal/tiger/fal_tiger_ctrlpkt.c ****     CMM_ERR_CHK(HAL_TBL_REG_READ(unit, L2_MC_UNKNOWN_ACT_CTRLm, 0, sizeof(l2_mc_unknown_act_ctrl_t)
 806              		.loc 1 96 5 is_stmt 1 discriminator 2 view .LVU181
  97:../switch_sdk/core/fal/tiger/fal_tiger_ctrlpkt.c ****     HAL_FIELD_GET(L2_MC_UNKNOWN_ACT_CTRLm, L2_MC_UNKNOWN_ACT_CTRL_L2_MC_UNKNOWN_ACTf, &act, &l2_act
 807              		.loc 1 97 5 discriminator 2 view .LVU182
 808              	.LBB11:
  97:../switch_sdk/core/fal/tiger/fal_tiger_ctrlpkt.c ****     HAL_FIELD_GET(L2_MC_UNKNOWN_ACT_CTRLm, L2_MC_UNKNOWN_ACT_CTRL_L2_MC_UNKNOWN_ACTf, &act, &l2_act
 809              		.loc 1 97 5 discriminator 2 view .LVU183
  97:../switch_sdk/core/fal/tiger/fal_tiger_ctrlpkt.c ****     HAL_FIELD_GET(L2_MC_UNKNOWN_ACT_CTRLm, L2_MC_UNKNOWN_ACT_CTRL_L2_MC_UNKNOWN_ACTf, &act, &l2_act
 810              		.loc 1 97 5 discriminator 2 view .LVU184
 811 006c 02AB     		add	r3, sp, #8
 812 006e 03AA     		add	r2, sp, #12
 813 0070 0221     		movs	r1, #2
 814 0072 AE20     		movs	r0, #174
 815              	.LVL96:
  97:../switch_sdk/core/fal/tiger/fal_tiger_ctrlpkt.c ****     HAL_FIELD_GET(L2_MC_UNKNOWN_ACT_CTRLm, L2_MC_UNKNOWN_ACT_CTRL_L2_MC_UNKNOWN_ACTf, &act, &l2_act
 816              		.loc 1 97 5 is_stmt 0 discriminator 2 view .LVU185
 817 0074 FFF7FEFF 		bl	hal_tbl_reg_field_get
 818              	.LVL97:
  97:../switch_sdk/core/fal/tiger/fal_tiger_ctrlpkt.c ****     HAL_FIELD_GET(L2_MC_UNKNOWN_ACT_CTRLm, L2_MC_UNKNOWN_ACT_CTRL_L2_MC_UNKNOWN_ACTf, &act, &l2_act
 819              		.loc 1 97 5 is_stmt 1 discriminator 2 view .LVU186
  97:../switch_sdk/core/fal/tiger/fal_tiger_ctrlpkt.c ****     HAL_FIELD_GET(L2_MC_UNKNOWN_ACT_CTRLm, L2_MC_UNKNOWN_ACT_CTRL_L2_MC_UNKNOWN_ACTf, &act, &l2_act
 820              		.loc 1 97 5 is_stmt 0 discriminator 2 view .LVU187
 821              	.LBE11:
  97:../switch_sdk/core/fal/tiger/fal_tiger_ctrlpkt.c ****     HAL_FIELD_GET(L2_MC_UNKNOWN_ACT_CTRLm, L2_MC_UNKNOWN_ACT_CTRL_L2_MC_UNKNOWN_ACTf, &act, &l2_act
 822              		.loc 1 97 5 is_stmt 1 discriminator 2 view .LVU188
  98:../switch_sdk/core/fal/tiger/fal_tiger_ctrlpkt.c **** 
 823              		.loc 1 98 5 discriminator 2 view .LVU189
  98:../switch_sdk/core/fal/tiger/fal_tiger_ctrlpkt.c **** 
 824              		.loc 1 98 36 is_stmt 0 discriminator 2 view .LVU190
 825 0078 7600     		lsls	r6, r6, #1
 826              	.LVL98:
  98:../switch_sdk/core/fal/tiger/fal_tiger_ctrlpkt.c **** 
 827              		.loc 1 98 26 discriminator 2 view .LVU191
 828 007a 029B     		ldr	r3, [sp, #8]
 829 007c F340     		lsrs	r3, r3, r6
  98:../switch_sdk/core/fal/tiger/fal_tiger_ctrlpkt.c **** 
 830              		.loc 1 98 42 discriminator 2 view .LVU192
 831 007e 03F00303 		and	r3, r3, #3
  98:../switch_sdk/core/fal/tiger/fal_tiger_ctrlpkt.c **** 
 832              		.loc 1 98 16 discriminator 2 view .LVU193
 833 0082 2B70     		strb	r3, [r5]
 834              	.LVL99:
 100:../switch_sdk/core/fal/tiger/fal_tiger_ctrlpkt.c **** }
 835              		.loc 1 100 5 is_stmt 1 discriminator 2 view .LVU194
 100:../switch_sdk/core/fal/tiger/fal_tiger_ctrlpkt.c **** }
 836              		.loc 1 100 12 is_stmt 0 discriminator 2 view .LVU195
 837 0084 0020     		movs	r0, #0
 838 0086 DDE7     		b	.L42
 839              	.L52:
 840              		.align	2
 841              	.L51:
 842 0088 00000000 		.word	gcal_inited
 843 008c 00000000 		.word	gpSwitchUnit
 844 0090 00000000 		.word	yt_debug_level
 845 0094 00000000 		.word	__FUNCTION__.8
 846 0098 00000000 		.word	.LC3
 847 009c 00000000 		.word	_yt_errmsg
 848 00a0 00000000 		.word	_yt_prompt_msg
 849 00a4 48000000 		.word	.LC1
 850              		.cfi_endproc
 851              	.LFE6:
 853              		.section	.rodata.fal_tiger_ctrlpkt_arp_act_set.str1.4,"aMS",%progbits,1
 854              		.align	2
 855              	.LC5:
 856 0000 68616C5F 		.ascii	"hal_table_reg_read(unit,116,0,sizeof(l2_arp_bcast_p"
 856      7461626C 
 856      655F7265 
 856      675F7265 
 856      61642875 
 857 0033 65725F70 		.ascii	"er_port_ctrl_t),&entry)\000"
 857      6F72745F 
 857      6374726C 
 857      5F74292C 
 857      26656E74 
 858 004b 00       		.align	2
 859              	.LC6:
 860 004c 68616C5F 		.ascii	"hal_table_reg_write(unit,116,0,sizeof(l2_arp_bcast_"
 860      7461626C 
 860      655F7265 
 860      675F7772 
 860      69746528 
 861 007f 7065725F 		.ascii	"per_port_ctrl_t),&entry)\000"
 861      706F7274 
 861      5F637472 
 861      6C5F7429 
 861      2C26656E 
 862              		.section	.text.fal_tiger_ctrlpkt_arp_act_set,"ax",%progbits
 863              		.align	1
 864              		.global	fal_tiger_ctrlpkt_arp_act_set
 865              		.syntax unified
 866              		.thumb
 867              		.thumb_func
 869              	fal_tiger_ctrlpkt_arp_act_set:
 870              	.LVL100:
 871              	.LFB7:
 102:../switch_sdk/core/fal/tiger/fal_tiger_ctrlpkt.c **** 
 103:../switch_sdk/core/fal/tiger/fal_tiger_ctrlpkt.c **** yt_ret_t fal_tiger_ctrlpkt_arp_act_set(yt_unit_t unit, yt_port_t port, yt_ctrlpkt_l2_action_t act_c
 104:../switch_sdk/core/fal/tiger/fal_tiger_ctrlpkt.c **** {
 872              		.loc 1 104 1 is_stmt 1 view -0
 873              		.cfi_startproc
 874              		@ args = 0, pretend = 0, frame = 8
 875              		@ frame_needed = 0, uses_anonymous_args = 0
 876              		.loc 1 104 1 is_stmt 0 view .LVU197
 877 0000 F0B5     		push	{r4, r5, r6, r7, lr}
 878              		.cfi_def_cfa_offset 20
 879              		.cfi_offset 4, -20
 880              		.cfi_offset 5, -16
 881              		.cfi_offset 6, -12
 882              		.cfi_offset 7, -8
 883              		.cfi_offset 14, -4
 884 0002 85B0     		sub	sp, sp, #20
 885              		.cfi_def_cfa_offset 40
 886 0004 0546     		mov	r5, r0
 887 0006 1646     		mov	r6, r2
 105:../switch_sdk/core/fal/tiger/fal_tiger_ctrlpkt.c ****     l2_arp_bcast_per_port_ctrl_t entry;
 888              		.loc 1 105 5 is_stmt 1 view .LVU198
 106:../switch_sdk/core/fal/tiger/fal_tiger_ctrlpkt.c ****     yt_macid_t macid;
 889              		.loc 1 106 5 view .LVU199
 107:../switch_sdk/core/fal/tiger/fal_tiger_ctrlpkt.c ****     uint32_t copyMask;
 890              		.loc 1 107 5 view .LVU200
 108:../switch_sdk/core/fal/tiger/fal_tiger_ctrlpkt.c ****     uint32_t dropMask;
 891              		.loc 1 108 5 view .LVU201
 109:../switch_sdk/core/fal/tiger/fal_tiger_ctrlpkt.c ****     cmm_err_t ret = CMM_ERR_OK;
 892              		.loc 1 109 5 view .LVU202
 893              	.LVL101:
 110:../switch_sdk/core/fal/tiger/fal_tiger_ctrlpkt.c **** 
 111:../switch_sdk/core/fal/tiger/fal_tiger_ctrlpkt.c ****     macid = CAL_YTP_TO_MAC(unit,port);
 894              		.loc 1 111 5 view .LVU203
 895              		.loc 1 111 13 is_stmt 0 view .LVU204
 896 0008 494B     		ldr	r3, .L73
 897 000a 1B78     		ldrb	r3, [r3]	@ zero_extendqisi2
 898 000c 53B1     		cbz	r3, .L65
 899              		.loc 1 111 13 discriminator 1 view .LVU205
 900 000e 494B     		ldr	r3, .L73+4
 901 0010 53F82030 		ldr	r3, [r3, r0, lsl #2]
 902 0014 1A7D     		ldrb	r2, [r3, #20]	@ zero_extendqisi2
 903              	.LVL102:
 904              		.loc 1 111 13 discriminator 1 view .LVU206
 905 0016 8A42     		cmp	r2, r1
 906 0018 18D9     		bls	.L66
 907              		.loc 1 111 13 discriminator 3 view .LVU207
 908 001a 0631     		adds	r1, r1, #6
 909              	.LVL103:
 910              		.loc 1 111 13 discriminator 3 view .LVU208
 911 001c 53F82130 		ldr	r3, [r3, r1, lsl #2]
 912 0020 1F78     		ldrb	r7, [r3]	@ zero_extendqisi2
 913 0022 00E0     		b	.L54
 914              	.LVL104:
 915              	.L65:
 916              		.loc 1 111 13 view .LVU209
 917 0024 FF27     		movs	r7, #255
 918              	.LVL105:
 919              	.L54:
 112:../switch_sdk/core/fal/tiger/fal_tiger_ctrlpkt.c **** 
 113:../switch_sdk/core/fal/tiger/fal_tiger_ctrlpkt.c ****     CMM_ERR_CHK(HAL_TBL_REG_READ(unit, L2_ARP_BCAST_PER_PORT_CTRLm, 0, sizeof(l2_arp_bcast_per_port
 920              		.loc 1 113 5 is_stmt 1 discriminator 6 view .LVU210
 921              		.loc 1 113 5 discriminator 6 view .LVU211
 922 0026 03AA     		add	r2, sp, #12
 923 0028 0092     		str	r2, [sp]
 924 002a 0423     		movs	r3, #4
 925 002c 0022     		movs	r2, #0
 926 002e 7421     		movs	r1, #116
 927 0030 2846     		mov	r0, r5
 928              	.LVL106:
 929              		.loc 1 113 5 is_stmt 0 discriminator 6 view .LVU212
 930 0032 FFF7FEFF 		bl	hal_table_reg_read
 931              	.LVL107:
 932 0036 0446     		mov	r4, r0
 933              	.LVL108:
 934              		.loc 1 113 5 discriminator 6 view .LVU213
 935 0038 10F0FF03 		ands	r3, r0, #255
 936 003c 18D0     		beq	.L55
 937              		.loc 1 113 5 is_stmt 1 discriminator 1 view .LVU214
 938              		.loc 1 113 5 discriminator 1 view .LVU215
 939 003e 3E4A     		ldr	r2, .L73+8
 940 0040 1278     		ldrb	r2, [r2]	@ zero_extendqisi2
 941 0042 012A     		cmp	r2, #1
 942 0044 04D8     		bhi	.L70
 943              	.LVL109:
 944              	.L56:
 945              		.loc 1 113 5 discriminator 5 view .LVU216
 946              		.loc 1 113 5 discriminator 5 view .LVU217
 947              		.loc 1 113 5 discriminator 5 view .LVU218
 948 0046 E0B2     		uxtb	r0, r4
 949              	.LVL110:
 950              	.L53:
 114:../switch_sdk/core/fal/tiger/fal_tiger_ctrlpkt.c **** 
 115:../switch_sdk/core/fal/tiger/fal_tiger_ctrlpkt.c ****     HAL_FIELD_GET(L2_ARP_BCAST_PER_PORT_CTRLm, L2_ARP_BCAST_PER_PORT_CTRL_COPY_TO_CPUf, &entry, &co
 116:../switch_sdk/core/fal/tiger/fal_tiger_ctrlpkt.c ****     HAL_FIELD_GET(L2_ARP_BCAST_PER_PORT_CTRLm, L2_ARP_BCAST_PER_PORT_CTRL_DROPf, &entry, &dropMask)
 117:../switch_sdk/core/fal/tiger/fal_tiger_ctrlpkt.c **** 
 118:../switch_sdk/core/fal/tiger/fal_tiger_ctrlpkt.c ****     switch(act_ctrl)
 119:../switch_sdk/core/fal/tiger/fal_tiger_ctrlpkt.c ****     {
 120:../switch_sdk/core/fal/tiger/fal_tiger_ctrlpkt.c ****         case L2_ACTION_FWD:
 121:../switch_sdk/core/fal/tiger/fal_tiger_ctrlpkt.c ****             copyMask = (uint32_t)CLR_FIELD(copyMask, macid, 1);
 122:../switch_sdk/core/fal/tiger/fal_tiger_ctrlpkt.c ****             dropMask = (uint32_t)CLR_FIELD(dropMask, macid, 1);
 123:../switch_sdk/core/fal/tiger/fal_tiger_ctrlpkt.c ****             break;
 124:../switch_sdk/core/fal/tiger/fal_tiger_ctrlpkt.c **** 
 125:../switch_sdk/core/fal/tiger/fal_tiger_ctrlpkt.c ****         case L2_ACTION_TRAP:
 126:../switch_sdk/core/fal/tiger/fal_tiger_ctrlpkt.c ****             copyMask |= (uint32_t)(1UL<<macid);
 127:../switch_sdk/core/fal/tiger/fal_tiger_ctrlpkt.c ****             dropMask |= (uint32_t)(1UL<<macid);
 128:../switch_sdk/core/fal/tiger/fal_tiger_ctrlpkt.c ****             break;
 129:../switch_sdk/core/fal/tiger/fal_tiger_ctrlpkt.c **** 
 130:../switch_sdk/core/fal/tiger/fal_tiger_ctrlpkt.c ****         case L2_ACTION_DROP:
 131:../switch_sdk/core/fal/tiger/fal_tiger_ctrlpkt.c ****             copyMask = (uint32_t)CLR_FIELD(copyMask, macid, 1);
 132:../switch_sdk/core/fal/tiger/fal_tiger_ctrlpkt.c ****             dropMask |= (uint32_t)(1UL<<macid);
 133:../switch_sdk/core/fal/tiger/fal_tiger_ctrlpkt.c ****             break;
 134:../switch_sdk/core/fal/tiger/fal_tiger_ctrlpkt.c **** 
 135:../switch_sdk/core/fal/tiger/fal_tiger_ctrlpkt.c ****         case L2_ACTION_COPY:
 136:../switch_sdk/core/fal/tiger/fal_tiger_ctrlpkt.c ****             copyMask |= (uint32_t)(1UL<<macid);
 137:../switch_sdk/core/fal/tiger/fal_tiger_ctrlpkt.c ****             dropMask = (uint32_t)CLR_FIELD(dropMask, macid, 1);;
 138:../switch_sdk/core/fal/tiger/fal_tiger_ctrlpkt.c ****             break;
 139:../switch_sdk/core/fal/tiger/fal_tiger_ctrlpkt.c **** 
 140:../switch_sdk/core/fal/tiger/fal_tiger_ctrlpkt.c ****         default:
 141:../switch_sdk/core/fal/tiger/fal_tiger_ctrlpkt.c ****             return CMM_ERR_NOT_SUPPORT;
 142:../switch_sdk/core/fal/tiger/fal_tiger_ctrlpkt.c ****     }
 143:../switch_sdk/core/fal/tiger/fal_tiger_ctrlpkt.c ****     
 144:../switch_sdk/core/fal/tiger/fal_tiger_ctrlpkt.c ****     HAL_FIELD_SET(L2_ARP_BCAST_PER_PORT_CTRLm, L2_ARP_BCAST_PER_PORT_CTRL_COPY_TO_CPUf, &entry, cop
 145:../switch_sdk/core/fal/tiger/fal_tiger_ctrlpkt.c ****     HAL_FIELD_SET(L2_ARP_BCAST_PER_PORT_CTRLm, L2_ARP_BCAST_PER_PORT_CTRL_DROPf, &entry, dropMask);
 146:../switch_sdk/core/fal/tiger/fal_tiger_ctrlpkt.c ****     
 147:../switch_sdk/core/fal/tiger/fal_tiger_ctrlpkt.c ****     CMM_ERR_CHK(HAL_TBL_REG_WRITE(unit, L2_ARP_BCAST_PER_PORT_CTRLm, 0, sizeof(l2_arp_bcast_per_por
 148:../switch_sdk/core/fal/tiger/fal_tiger_ctrlpkt.c ****    
 149:../switch_sdk/core/fal/tiger/fal_tiger_ctrlpkt.c ****     return CMM_ERR_OK;
 150:../switch_sdk/core/fal/tiger/fal_tiger_ctrlpkt.c **** }
 951              		.loc 1 150 1 is_stmt 0 view .LVU219
 952 0048 05B0     		add	sp, sp, #20
 953              		.cfi_remember_state
 954              		.cfi_def_cfa_offset 20
 955              		@ sp needed
 956 004a F0BD     		pop	{r4, r5, r6, r7, pc}
 957              	.LVL111:
 958              	.L66:
 959              		.cfi_restore_state
 111:../switch_sdk/core/fal/tiger/fal_tiger_ctrlpkt.c **** 
 960              		.loc 1 111 13 view .LVU220
 961 004c FF27     		movs	r7, #255
 962 004e EAE7     		b	.L54
 963              	.LVL112:
 964              	.L70:
 113:../switch_sdk/core/fal/tiger/fal_tiger_ctrlpkt.c **** 
 965              		.loc 1 113 5 is_stmt 1 discriminator 3 view .LVU221
 966              	.LBB12:
 113:../switch_sdk/core/fal/tiger/fal_tiger_ctrlpkt.c **** 
 967              		.loc 1 113 5 discriminator 3 view .LVU222
 968 0050 142B     		cmp	r3, #20
 969 0052 28BF     		it	cs
 970 0054 1423     		movcs	r3, #20
 971 0056 1A46     		mov	r2, r3
 972 0058 384B     		ldr	r3, .L73+12
 973 005a 0093     		str	r3, [sp]
 974 005c 384B     		ldr	r3, .L73+16
 975 005e 3949     		ldr	r1, .L73+20
 976 0060 51F82220 		ldr	r2, [r1, r2, lsl #2]
 977 0064 3849     		ldr	r1, .L73+24
 978 0066 8968     		ldr	r1, [r1, #8]
 979 0068 3848     		ldr	r0, .L73+28
 980              	.LVL113:
 113:../switch_sdk/core/fal/tiger/fal_tiger_ctrlpkt.c **** 
 981              		.loc 1 113 5 is_stmt 0 discriminator 3 view .LVU223
 982 006a FFF7FEFF 		bl	osal_printf
 983              	.LVL114:
 984 006e EAE7     		b	.L56
 985              	.LVL115:
 986              	.L55:
 113:../switch_sdk/core/fal/tiger/fal_tiger_ctrlpkt.c **** 
 987              		.loc 1 113 5 discriminator 3 view .LVU224
 988              	.LBE12:
 113:../switch_sdk/core/fal/tiger/fal_tiger_ctrlpkt.c **** 
 989              		.loc 1 113 5 is_stmt 1 discriminator 2 view .LVU225
 115:../switch_sdk/core/fal/tiger/fal_tiger_ctrlpkt.c ****     HAL_FIELD_GET(L2_ARP_BCAST_PER_PORT_CTRLm, L2_ARP_BCAST_PER_PORT_CTRL_DROPf, &entry, &dropMask)
 990              		.loc 1 115 5 discriminator 2 view .LVU226
 991              	.LBB13:
 115:../switch_sdk/core/fal/tiger/fal_tiger_ctrlpkt.c ****     HAL_FIELD_GET(L2_ARP_BCAST_PER_PORT_CTRLm, L2_ARP_BCAST_PER_PORT_CTRL_DROPf, &entry, &dropMask)
 992              		.loc 1 115 5 discriminator 2 view .LVU227
 115:../switch_sdk/core/fal/tiger/fal_tiger_ctrlpkt.c ****     HAL_FIELD_GET(L2_ARP_BCAST_PER_PORT_CTRLm, L2_ARP_BCAST_PER_PORT_CTRL_DROPf, &entry, &dropMask)
 993              		.loc 1 115 5 discriminator 2 view .LVU228
 994 0070 02AB     		add	r3, sp, #8
 995 0072 03AA     		add	r2, sp, #12
 996 0074 0121     		movs	r1, #1
 997 0076 7420     		movs	r0, #116
 998              	.LVL116:
 115:../switch_sdk/core/fal/tiger/fal_tiger_ctrlpkt.c ****     HAL_FIELD_GET(L2_ARP_BCAST_PER_PORT_CTRLm, L2_ARP_BCAST_PER_PORT_CTRL_DROPf, &entry, &dropMask)
 999              		.loc 1 115 5 is_stmt 0 discriminator 2 view .LVU229
 1000 0078 FFF7FEFF 		bl	hal_tbl_reg_field_get
 1001              	.LVL117:
 115:../switch_sdk/core/fal/tiger/fal_tiger_ctrlpkt.c ****     HAL_FIELD_GET(L2_ARP_BCAST_PER_PORT_CTRLm, L2_ARP_BCAST_PER_PORT_CTRL_DROPf, &entry, &dropMask)
 1002              		.loc 1 115 5 is_stmt 1 discriminator 2 view .LVU230
 1003 007c 029C     		ldr	r4, [sp, #8]
 1004              	.LVL118:
 115:../switch_sdk/core/fal/tiger/fal_tiger_ctrlpkt.c ****     HAL_FIELD_GET(L2_ARP_BCAST_PER_PORT_CTRLm, L2_ARP_BCAST_PER_PORT_CTRL_DROPf, &entry, &dropMask)
 1005              		.loc 1 115 5 is_stmt 0 discriminator 2 view .LVU231
 1006              	.LBE13:
 115:../switch_sdk/core/fal/tiger/fal_tiger_ctrlpkt.c ****     HAL_FIELD_GET(L2_ARP_BCAST_PER_PORT_CTRLm, L2_ARP_BCAST_PER_PORT_CTRL_DROPf, &entry, &dropMask)
 1007              		.loc 1 115 5 is_stmt 1 discriminator 2 view .LVU232
 116:../switch_sdk/core/fal/tiger/fal_tiger_ctrlpkt.c **** 
 1008              		.loc 1 116 5 discriminator 2 view .LVU233
 1009              	.LBB14:
 116:../switch_sdk/core/fal/tiger/fal_tiger_ctrlpkt.c **** 
 1010              		.loc 1 116 5 discriminator 2 view .LVU234
 116:../switch_sdk/core/fal/tiger/fal_tiger_ctrlpkt.c **** 
 1011              		.loc 1 116 5 discriminator 2 view .LVU235
 1012 007e 02AB     		add	r3, sp, #8
 1013 0080 03AA     		add	r2, sp, #12
 1014 0082 0021     		movs	r1, #0
 1015 0084 7420     		movs	r0, #116
 1016 0086 FFF7FEFF 		bl	hal_tbl_reg_field_get
 1017              	.LVL119:
 116:../switch_sdk/core/fal/tiger/fal_tiger_ctrlpkt.c **** 
 1018              		.loc 1 116 5 discriminator 2 view .LVU236
 1019 008a 029A     		ldr	r2, [sp, #8]
 1020              	.LVL120:
 116:../switch_sdk/core/fal/tiger/fal_tiger_ctrlpkt.c **** 
 1021              		.loc 1 116 5 is_stmt 0 discriminator 2 view .LVU237
 1022              	.LBE14:
 116:../switch_sdk/core/fal/tiger/fal_tiger_ctrlpkt.c **** 
 1023              		.loc 1 116 5 is_stmt 1 discriminator 2 view .LVU238
 118:../switch_sdk/core/fal/tiger/fal_tiger_ctrlpkt.c ****     {
 1024              		.loc 1 118 5 discriminator 2 view .LVU239
 1025 008c 032E     		cmp	r6, #3
 1026 008e 4DD8     		bhi	.L67
 1027 0090 DFE806F0 		tbb	[pc, r6]
 1028              	.L59:
 1029 0094 02       		.byte	(.L62-.L59)/2
 1030 0095 21       		.byte	(.L61-.L59)/2
 1031 0096 28       		.byte	(.L60-.L59)/2
 1032 0097 2F       		.byte	(.L58-.L59)/2
 1033              		.p2align 1
 1034              	.L62:
 121:../switch_sdk/core/fal/tiger/fal_tiger_ctrlpkt.c ****             dropMask = (uint32_t)CLR_FIELD(dropMask, macid, 1);
 1035              		.loc 1 121 13 view .LVU240
 121:../switch_sdk/core/fal/tiger/fal_tiger_ctrlpkt.c ****             dropMask = (uint32_t)CLR_FIELD(dropMask, macid, 1);
 1036              		.loc 1 121 34 is_stmt 0 view .LVU241
 1037 0098 0121     		movs	r1, #1
 1038 009a B940     		lsls	r1, r1, r7
 1039 009c 24EA0103 		bic	r3, r4, r1
 1040              	.LVL121:
 122:../switch_sdk/core/fal/tiger/fal_tiger_ctrlpkt.c ****             break;
 1041              		.loc 1 122 13 is_stmt 1 view .LVU242
 122:../switch_sdk/core/fal/tiger/fal_tiger_ctrlpkt.c ****             break;
 1042              		.loc 1 122 34 is_stmt 0 view .LVU243
 1043 00a0 22EA0104 		bic	r4, r2, r1
 1044              	.LVL122:
 123:../switch_sdk/core/fal/tiger/fal_tiger_ctrlpkt.c **** 
 1045              		.loc 1 123 13 is_stmt 1 view .LVU244
 1046              	.L63:
 144:../switch_sdk/core/fal/tiger/fal_tiger_ctrlpkt.c ****     HAL_FIELD_SET(L2_ARP_BCAST_PER_PORT_CTRLm, L2_ARP_BCAST_PER_PORT_CTRL_DROPf, &entry, dropMask);
 1047              		.loc 1 144 5 view .LVU245
 1048 00a4 03AE     		add	r6, sp, #12
 1049 00a6 3246     		mov	r2, r6
 1050 00a8 0121     		movs	r1, #1
 1051 00aa 7420     		movs	r0, #116
 1052 00ac FFF7FEFF 		bl	hal_tbl_reg_field_set
 1053              	.LVL123:
 145:../switch_sdk/core/fal/tiger/fal_tiger_ctrlpkt.c ****     
 1054              		.loc 1 145 5 view .LVU246
 1055 00b0 2346     		mov	r3, r4
 1056 00b2 3246     		mov	r2, r6
 1057 00b4 0021     		movs	r1, #0
 1058 00b6 7420     		movs	r0, #116
 1059 00b8 FFF7FEFF 		bl	hal_tbl_reg_field_set
 1060              	.LVL124:
 147:../switch_sdk/core/fal/tiger/fal_tiger_ctrlpkt.c ****    
 1061              		.loc 1 147 5 view .LVU247
 147:../switch_sdk/core/fal/tiger/fal_tiger_ctrlpkt.c ****    
 1062              		.loc 1 147 5 view .LVU248
 1063 00bc 0096     		str	r6, [sp]
 1064 00be 0423     		movs	r3, #4
 1065 00c0 0022     		movs	r2, #0
 1066 00c2 7421     		movs	r1, #116
 1067 00c4 2846     		mov	r0, r5
 1068 00c6 FFF7FEFF 		bl	hal_table_reg_write
 1069              	.LVL125:
 1070 00ca 0446     		mov	r4, r0
 1071              	.LVL126:
 147:../switch_sdk/core/fal/tiger/fal_tiger_ctrlpkt.c ****    
 1072              		.loc 1 147 5 is_stmt 0 view .LVU249
 1073 00cc 10F0FF03 		ands	r3, r0, #255
 1074 00d0 16D1     		bne	.L71
 149:../switch_sdk/core/fal/tiger/fal_tiger_ctrlpkt.c **** }
 1075              		.loc 1 149 12 view .LVU250
 1076 00d2 0020     		movs	r0, #0
 1077              	.LVL127:
 149:../switch_sdk/core/fal/tiger/fal_tiger_ctrlpkt.c **** }
 1078              		.loc 1 149 12 view .LVU251
 1079 00d4 B8E7     		b	.L53
 1080              	.LVL128:
 1081              	.L61:
 126:../switch_sdk/core/fal/tiger/fal_tiger_ctrlpkt.c ****             dropMask |= (uint32_t)(1UL<<macid);
 1082              		.loc 1 126 13 is_stmt 1 view .LVU252
 126:../switch_sdk/core/fal/tiger/fal_tiger_ctrlpkt.c ****             dropMask |= (uint32_t)(1UL<<macid);
 1083              		.loc 1 126 39 is_stmt 0 view .LVU253
 1084 00d6 0121     		movs	r1, #1
 1085 00d8 B940     		lsls	r1, r1, r7
 126:../switch_sdk/core/fal/tiger/fal_tiger_ctrlpkt.c ****             dropMask |= (uint32_t)(1UL<<macid);
 1086              		.loc 1 126 22 view .LVU254
 1087 00da 44EA0103 		orr	r3, r4, r1
 1088              	.LVL129:
 127:../switch_sdk/core/fal/tiger/fal_tiger_ctrlpkt.c ****             break;
 1089              		.loc 1 127 13 is_stmt 1 view .LVU255
 127:../switch_sdk/core/fal/tiger/fal_tiger_ctrlpkt.c ****             break;
 1090              		.loc 1 127 22 is_stmt 0 view .LVU256
 1091 00de 42EA0104 		orr	r4, r2, r1
 1092              	.LVL130:
 128:../switch_sdk/core/fal/tiger/fal_tiger_ctrlpkt.c **** 
 1093              		.loc 1 128 13 is_stmt 1 view .LVU257
 1094 00e2 DFE7     		b	.L63
 1095              	.LVL131:
 1096              	.L60:
 131:../switch_sdk/core/fal/tiger/fal_tiger_ctrlpkt.c ****             dropMask |= (uint32_t)(1UL<<macid);
 1097              		.loc 1 131 13 view .LVU258
 131:../switch_sdk/core/fal/tiger/fal_tiger_ctrlpkt.c ****             dropMask |= (uint32_t)(1UL<<macid);
 1098              		.loc 1 131 34 is_stmt 0 view .LVU259
 1099 00e4 0121     		movs	r1, #1
 1100 00e6 B940     		lsls	r1, r1, r7
 1101 00e8 24EA0103 		bic	r3, r4, r1
 1102              	.LVL132:
 132:../switch_sdk/core/fal/tiger/fal_tiger_ctrlpkt.c ****             break;
 1103              		.loc 1 132 13 is_stmt 1 view .LVU260
 132:../switch_sdk/core/fal/tiger/fal_tiger_ctrlpkt.c ****             break;
 1104              		.loc 1 132 22 is_stmt 0 view .LVU261
 1105 00ec 42EA0104 		orr	r4, r2, r1
 1106              	.LVL133:
 133:../switch_sdk/core/fal/tiger/fal_tiger_ctrlpkt.c **** 
 1107              		.loc 1 133 13 is_stmt 1 view .LVU262
 1108 00f0 D8E7     		b	.L63
 1109              	.LVL134:
 1110              	.L58:
 136:../switch_sdk/core/fal/tiger/fal_tiger_ctrlpkt.c ****             dropMask = (uint32_t)CLR_FIELD(dropMask, macid, 1);;
 1111              		.loc 1 136 13 view .LVU263
 136:../switch_sdk/core/fal/tiger/fal_tiger_ctrlpkt.c ****             dropMask = (uint32_t)CLR_FIELD(dropMask, macid, 1);;
 1112              		.loc 1 136 39 is_stmt 0 view .LVU264
 1113 00f2 0121     		movs	r1, #1
 1114 00f4 B940     		lsls	r1, r1, r7
 136:../switch_sdk/core/fal/tiger/fal_tiger_ctrlpkt.c ****             dropMask = (uint32_t)CLR_FIELD(dropMask, macid, 1);;
 1115              		.loc 1 136 22 view .LVU265
 1116 00f6 44EA0103 		orr	r3, r4, r1
 1117              	.LVL135:
 137:../switch_sdk/core/fal/tiger/fal_tiger_ctrlpkt.c ****             break;
 1118              		.loc 1 137 13 is_stmt 1 view .LVU266
 137:../switch_sdk/core/fal/tiger/fal_tiger_ctrlpkt.c ****             break;
 1119              		.loc 1 137 34 is_stmt 0 view .LVU267
 1120 00fa 22EA0104 		bic	r4, r2, r1
 1121              	.LVL136:
 137:../switch_sdk/core/fal/tiger/fal_tiger_ctrlpkt.c ****             break;
 1122              		.loc 1 137 64 is_stmt 1 view .LVU268
 138:../switch_sdk/core/fal/tiger/fal_tiger_ctrlpkt.c **** 
 1123              		.loc 1 138 13 view .LVU269
 1124 00fe D1E7     		b	.L63
 1125              	.LVL137:
 1126              	.L71:
 147:../switch_sdk/core/fal/tiger/fal_tiger_ctrlpkt.c ****    
 1127              		.loc 1 147 5 discriminator 1 view .LVU270
 147:../switch_sdk/core/fal/tiger/fal_tiger_ctrlpkt.c ****    
 1128              		.loc 1 147 5 discriminator 1 view .LVU271
 1129 0100 0D4A     		ldr	r2, .L73+8
 1130 0102 1278     		ldrb	r2, [r2]	@ zero_extendqisi2
 1131 0104 012A     		cmp	r2, #1
 1132 0106 01D8     		bhi	.L72
 1133              	.LVL138:
 1134              	.L64:
 147:../switch_sdk/core/fal/tiger/fal_tiger_ctrlpkt.c ****    
 1135              		.loc 1 147 5 discriminator 5 view .LVU272
 147:../switch_sdk/core/fal/tiger/fal_tiger_ctrlpkt.c ****    
 1136              		.loc 1 147 5 discriminator 5 view .LVU273
 147:../switch_sdk/core/fal/tiger/fal_tiger_ctrlpkt.c ****    
 1137              		.loc 1 147 5 discriminator 5 view .LVU274
 1138 0108 E0B2     		uxtb	r0, r4
 1139 010a 9DE7     		b	.L53
 1140              	.LVL139:
 1141              	.L72:
 147:../switch_sdk/core/fal/tiger/fal_tiger_ctrlpkt.c ****    
 1142              		.loc 1 147 5 discriminator 3 view .LVU275
 1143              	.LBB15:
 147:../switch_sdk/core/fal/tiger/fal_tiger_ctrlpkt.c ****    
 1144              		.loc 1 147 5 discriminator 3 view .LVU276
 1145 010c 142B     		cmp	r3, #20
 1146 010e 28BF     		it	cs
 1147 0110 1423     		movcs	r3, #20
 1148 0112 1A46     		mov	r2, r3
 1149 0114 094B     		ldr	r3, .L73+12
 1150 0116 0093     		str	r3, [sp]
 1151 0118 0D4B     		ldr	r3, .L73+32
 1152 011a 0A49     		ldr	r1, .L73+20
 1153 011c 51F82220 		ldr	r2, [r1, r2, lsl #2]
 1154 0120 0949     		ldr	r1, .L73+24
 1155 0122 8968     		ldr	r1, [r1, #8]
 1156 0124 0948     		ldr	r0, .L73+28
 1157              	.LVL140:
 147:../switch_sdk/core/fal/tiger/fal_tiger_ctrlpkt.c ****    
 1158              		.loc 1 147 5 is_stmt 0 discriminator 3 view .LVU277
 1159 0126 FFF7FEFF 		bl	osal_printf
 1160              	.LVL141:
 1161 012a EDE7     		b	.L64
 1162              	.LVL142:
 1163              	.L67:
 147:../switch_sdk/core/fal/tiger/fal_tiger_ctrlpkt.c ****    
 1164              		.loc 1 147 5 discriminator 3 view .LVU278
 1165              	.LBE15:
 118:../switch_sdk/core/fal/tiger/fal_tiger_ctrlpkt.c ****     {
 1166              		.loc 1 118 5 view .LVU279
 1167 012c 0320     		movs	r0, #3
 1168 012e 8BE7     		b	.L53
 1169              	.L74:
 1170              		.align	2
 1171              	.L73:
 1172 0130 00000000 		.word	gcal_inited
 1173 0134 00000000 		.word	gpSwitchUnit
 1174 0138 00000000 		.word	yt_debug_level
 1175 013c 00000000 		.word	__FUNCTION__.7
 1176 0140 00000000 		.word	.LC5
 1177 0144 00000000 		.word	_yt_errmsg
 1178 0148 00000000 		.word	_yt_prompt_msg
 1179 014c 48000000 		.word	.LC1
 1180 0150 4C000000 		.word	.LC6
 1181              		.cfi_endproc
 1182              	.LFE7:
 1184              		.section	.text.fal_tiger_ctrlpkt_arp_act_get,"ax",%progbits
 1185              		.align	1
 1186              		.global	fal_tiger_ctrlpkt_arp_act_get
 1187              		.syntax unified
 1188              		.thumb
 1189              		.thumb_func
 1191              	fal_tiger_ctrlpkt_arp_act_get:
 1192              	.LVL143:
 1193              	.LFB8:
 151:../switch_sdk/core/fal/tiger/fal_tiger_ctrlpkt.c **** 
 152:../switch_sdk/core/fal/tiger/fal_tiger_ctrlpkt.c **** yt_ret_t fal_tiger_ctrlpkt_arp_act_get(yt_unit_t unit, yt_port_t port, yt_ctrlpkt_l2_action_t *pAct
 153:../switch_sdk/core/fal/tiger/fal_tiger_ctrlpkt.c **** {
 1194              		.loc 1 153 1 is_stmt 1 view -0
 1195              		.cfi_startproc
 1196              		@ args = 0, pretend = 0, frame = 8
 1197              		@ frame_needed = 0, uses_anonymous_args = 0
 1198              		.loc 1 153 1 is_stmt 0 view .LVU281
 1199 0000 70B5     		push	{r4, r5, r6, lr}
 1200              		.cfi_def_cfa_offset 16
 1201              		.cfi_offset 4, -16
 1202              		.cfi_offset 5, -12
 1203              		.cfi_offset 6, -8
 1204              		.cfi_offset 14, -4
 1205 0002 84B0     		sub	sp, sp, #16
 1206              		.cfi_def_cfa_offset 32
 1207 0004 1546     		mov	r5, r2
 154:../switch_sdk/core/fal/tiger/fal_tiger_ctrlpkt.c ****     l2_arp_bcast_per_port_ctrl_t entry;
 1208              		.loc 1 154 5 is_stmt 1 view .LVU282
 155:../switch_sdk/core/fal/tiger/fal_tiger_ctrlpkt.c ****     yt_macid_t macid;
 1209              		.loc 1 155 5 view .LVU283
 156:../switch_sdk/core/fal/tiger/fal_tiger_ctrlpkt.c ****     uint32_t copyMask;
 1210              		.loc 1 156 5 view .LVU284
 157:../switch_sdk/core/fal/tiger/fal_tiger_ctrlpkt.c ****     uint32_t dropMask;
 1211              		.loc 1 157 5 view .LVU285
 158:../switch_sdk/core/fal/tiger/fal_tiger_ctrlpkt.c ****     cmm_err_t ret = CMM_ERR_OK;
 1212              		.loc 1 158 5 view .LVU286
 1213              	.LVL144:
 159:../switch_sdk/core/fal/tiger/fal_tiger_ctrlpkt.c **** 
 160:../switch_sdk/core/fal/tiger/fal_tiger_ctrlpkt.c ****     macid = CAL_YTP_TO_MAC(unit,port);
 1214              		.loc 1 160 5 view .LVU287
 1215              		.loc 1 160 13 is_stmt 0 view .LVU288
 1216 0006 2E4B     		ldr	r3, .L87
 1217 0008 1B78     		ldrb	r3, [r3]	@ zero_extendqisi2
 1218 000a 53B1     		cbz	r3, .L83
 1219              		.loc 1 160 13 discriminator 1 view .LVU289
 1220 000c 2D4B     		ldr	r3, .L87+4
 1221 000e 53F82030 		ldr	r3, [r3, r0, lsl #2]
 1222 0012 1A7D     		ldrb	r2, [r3, #20]	@ zero_extendqisi2
 1223              	.LVL145:
 1224              		.loc 1 160 13 discriminator 1 view .LVU290
 1225 0014 8A42     		cmp	r2, r1
 1226 0016 17D9     		bls	.L84
 1227              		.loc 1 160 13 discriminator 3 view .LVU291
 1228 0018 0631     		adds	r1, r1, #6
 1229              	.LVL146:
 1230              		.loc 1 160 13 discriminator 3 view .LVU292
 1231 001a 53F82130 		ldr	r3, [r3, r1, lsl #2]
 1232 001e 1E78     		ldrb	r6, [r3]	@ zero_extendqisi2
 1233 0020 00E0     		b	.L76
 1234              	.LVL147:
 1235              	.L83:
 1236              		.loc 1 160 13 view .LVU293
 1237 0022 FF26     		movs	r6, #255
 1238              	.LVL148:
 1239              	.L76:
 161:../switch_sdk/core/fal/tiger/fal_tiger_ctrlpkt.c ****     CMM_ERR_CHK(HAL_TBL_REG_READ(unit, L2_ARP_BCAST_PER_PORT_CTRLm, 0, sizeof(l2_arp_bcast_per_port
 1240              		.loc 1 161 5 is_stmt 1 discriminator 6 view .LVU294
 1241              		.loc 1 161 5 discriminator 6 view .LVU295
 1242 0024 03AB     		add	r3, sp, #12
 1243 0026 0093     		str	r3, [sp]
 1244 0028 0423     		movs	r3, #4
 1245 002a 0022     		movs	r2, #0
 1246 002c 7421     		movs	r1, #116
 1247 002e FFF7FEFF 		bl	hal_table_reg_read
 1248              	.LVL149:
 1249              		.loc 1 161 5 is_stmt 0 discriminator 6 view .LVU296
 1250 0032 0446     		mov	r4, r0
 1251              	.LVL150:
 1252              		.loc 1 161 5 discriminator 6 view .LVU297
 1253 0034 10F0FF03 		ands	r3, r0, #255
 1254 0038 18D0     		beq	.L77
 1255              		.loc 1 161 5 is_stmt 1 discriminator 1 view .LVU298
 1256              		.loc 1 161 5 discriminator 1 view .LVU299
 1257 003a 234A     		ldr	r2, .L87+8
 1258 003c 1278     		ldrb	r2, [r2]	@ zero_extendqisi2
 1259 003e 012A     		cmp	r2, #1
 1260 0040 04D8     		bhi	.L86
 1261              	.LVL151:
 1262              	.L78:
 1263              		.loc 1 161 5 discriminator 5 view .LVU300
 1264              		.loc 1 161 5 discriminator 5 view .LVU301
 1265              		.loc 1 161 5 discriminator 5 view .LVU302
 1266 0042 E0B2     		uxtb	r0, r4
 1267              	.L75:
 162:../switch_sdk/core/fal/tiger/fal_tiger_ctrlpkt.c ****         
 163:../switch_sdk/core/fal/tiger/fal_tiger_ctrlpkt.c ****     HAL_FIELD_GET(L2_ARP_BCAST_PER_PORT_CTRLm, L2_ARP_BCAST_PER_PORT_CTRL_COPY_TO_CPUf, &entry, &co
 164:../switch_sdk/core/fal/tiger/fal_tiger_ctrlpkt.c ****     HAL_FIELD_GET(L2_ARP_BCAST_PER_PORT_CTRLm, L2_ARP_BCAST_PER_PORT_CTRL_DROPf, &entry, &dropMask)
 165:../switch_sdk/core/fal/tiger/fal_tiger_ctrlpkt.c **** 
 166:../switch_sdk/core/fal/tiger/fal_tiger_ctrlpkt.c ****     if (copyMask & (1UL<<macid))
 167:../switch_sdk/core/fal/tiger/fal_tiger_ctrlpkt.c ****     {
 168:../switch_sdk/core/fal/tiger/fal_tiger_ctrlpkt.c ****         if (dropMask & (1UL<<macid))
 169:../switch_sdk/core/fal/tiger/fal_tiger_ctrlpkt.c ****         {
 170:../switch_sdk/core/fal/tiger/fal_tiger_ctrlpkt.c ****             *pAct_ctrl = L2_ACTION_TRAP;
 171:../switch_sdk/core/fal/tiger/fal_tiger_ctrlpkt.c ****         }
 172:../switch_sdk/core/fal/tiger/fal_tiger_ctrlpkt.c ****         else
 173:../switch_sdk/core/fal/tiger/fal_tiger_ctrlpkt.c ****         {
 174:../switch_sdk/core/fal/tiger/fal_tiger_ctrlpkt.c ****             *pAct_ctrl = L2_ACTION_COPY;
 175:../switch_sdk/core/fal/tiger/fal_tiger_ctrlpkt.c ****         }
 176:../switch_sdk/core/fal/tiger/fal_tiger_ctrlpkt.c ****     }
 177:../switch_sdk/core/fal/tiger/fal_tiger_ctrlpkt.c ****     else
 178:../switch_sdk/core/fal/tiger/fal_tiger_ctrlpkt.c ****     {
 179:../switch_sdk/core/fal/tiger/fal_tiger_ctrlpkt.c ****         if (dropMask & (1UL<<macid))
 180:../switch_sdk/core/fal/tiger/fal_tiger_ctrlpkt.c ****         {
 181:../switch_sdk/core/fal/tiger/fal_tiger_ctrlpkt.c ****             *pAct_ctrl = L2_ACTION_DROP;
 182:../switch_sdk/core/fal/tiger/fal_tiger_ctrlpkt.c ****         }
 183:../switch_sdk/core/fal/tiger/fal_tiger_ctrlpkt.c ****         else
 184:../switch_sdk/core/fal/tiger/fal_tiger_ctrlpkt.c ****         {
 185:../switch_sdk/core/fal/tiger/fal_tiger_ctrlpkt.c ****             *pAct_ctrl = L2_ACTION_FWD;
 186:../switch_sdk/core/fal/tiger/fal_tiger_ctrlpkt.c ****         }
 187:../switch_sdk/core/fal/tiger/fal_tiger_ctrlpkt.c ****     }
 188:../switch_sdk/core/fal/tiger/fal_tiger_ctrlpkt.c ****    
 189:../switch_sdk/core/fal/tiger/fal_tiger_ctrlpkt.c ****     return CMM_ERR_OK;
 190:../switch_sdk/core/fal/tiger/fal_tiger_ctrlpkt.c **** }
 1268              		.loc 1 190 1 is_stmt 0 view .LVU303
 1269 0044 04B0     		add	sp, sp, #16
 1270              		.cfi_remember_state
 1271              		.cfi_def_cfa_offset 16
 1272              		@ sp needed
 1273 0046 70BD     		pop	{r4, r5, r6, pc}
 1274              	.LVL152:
 1275              	.L84:
 1276              		.cfi_restore_state
 160:../switch_sdk/core/fal/tiger/fal_tiger_ctrlpkt.c ****     CMM_ERR_CHK(HAL_TBL_REG_READ(unit, L2_ARP_BCAST_PER_PORT_CTRLm, 0, sizeof(l2_arp_bcast_per_port
 1277              		.loc 1 160 13 view .LVU304
 1278 0048 FF26     		movs	r6, #255
 1279 004a EBE7     		b	.L76
 1280              	.LVL153:
 1281              	.L86:
 161:../switch_sdk/core/fal/tiger/fal_tiger_ctrlpkt.c ****     CMM_ERR_CHK(HAL_TBL_REG_READ(unit, L2_ARP_BCAST_PER_PORT_CTRLm, 0, sizeof(l2_arp_bcast_per_port
 1282              		.loc 1 161 5 is_stmt 1 discriminator 3 view .LVU305
 1283              	.LBB16:
 161:../switch_sdk/core/fal/tiger/fal_tiger_ctrlpkt.c ****     CMM_ERR_CHK(HAL_TBL_REG_READ(unit, L2_ARP_BCAST_PER_PORT_CTRLm, 0, sizeof(l2_arp_bcast_per_port
 1284              		.loc 1 161 5 discriminator 3 view .LVU306
 1285 004c 142B     		cmp	r3, #20
 1286 004e 28BF     		it	cs
 1287 0050 1423     		movcs	r3, #20
 1288 0052 1A46     		mov	r2, r3
 1289 0054 1D4B     		ldr	r3, .L87+12
 1290 0056 0093     		str	r3, [sp]
 1291 0058 1D4B     		ldr	r3, .L87+16
 1292 005a 1E49     		ldr	r1, .L87+20
 1293 005c 51F82220 		ldr	r2, [r1, r2, lsl #2]
 1294 0060 1D49     		ldr	r1, .L87+24
 1295 0062 8968     		ldr	r1, [r1, #8]
 1296 0064 1D48     		ldr	r0, .L87+28
 1297              	.LVL154:
 161:../switch_sdk/core/fal/tiger/fal_tiger_ctrlpkt.c ****     CMM_ERR_CHK(HAL_TBL_REG_READ(unit, L2_ARP_BCAST_PER_PORT_CTRLm, 0, sizeof(l2_arp_bcast_per_port
 1298              		.loc 1 161 5 is_stmt 0 discriminator 3 view .LVU307
 1299 0066 FFF7FEFF 		bl	osal_printf
 1300              	.LVL155:
 1301 006a EAE7     		b	.L78
 1302              	.LVL156:
 1303              	.L77:
 161:../switch_sdk/core/fal/tiger/fal_tiger_ctrlpkt.c ****     CMM_ERR_CHK(HAL_TBL_REG_READ(unit, L2_ARP_BCAST_PER_PORT_CTRLm, 0, sizeof(l2_arp_bcast_per_port
 1304              		.loc 1 161 5 discriminator 3 view .LVU308
 1305              	.LBE16:
 161:../switch_sdk/core/fal/tiger/fal_tiger_ctrlpkt.c ****     CMM_ERR_CHK(HAL_TBL_REG_READ(unit, L2_ARP_BCAST_PER_PORT_CTRLm, 0, sizeof(l2_arp_bcast_per_port
 1306              		.loc 1 161 5 is_stmt 1 discriminator 2 view .LVU309
 163:../switch_sdk/core/fal/tiger/fal_tiger_ctrlpkt.c ****     HAL_FIELD_GET(L2_ARP_BCAST_PER_PORT_CTRLm, L2_ARP_BCAST_PER_PORT_CTRL_DROPf, &entry, &dropMask)
 1307              		.loc 1 163 5 discriminator 2 view .LVU310
 1308              	.LBB17:
 163:../switch_sdk/core/fal/tiger/fal_tiger_ctrlpkt.c ****     HAL_FIELD_GET(L2_ARP_BCAST_PER_PORT_CTRLm, L2_ARP_BCAST_PER_PORT_CTRL_DROPf, &entry, &dropMask)
 1309              		.loc 1 163 5 discriminator 2 view .LVU311
 163:../switch_sdk/core/fal/tiger/fal_tiger_ctrlpkt.c ****     HAL_FIELD_GET(L2_ARP_BCAST_PER_PORT_CTRLm, L2_ARP_BCAST_PER_PORT_CTRL_DROPf, &entry, &dropMask)
 1310              		.loc 1 163 5 discriminator 2 view .LVU312
 1311 006c 02AB     		add	r3, sp, #8
 1312 006e 03AA     		add	r2, sp, #12
 1313 0070 0121     		movs	r1, #1
 1314 0072 7420     		movs	r0, #116
 1315              	.LVL157:
 163:../switch_sdk/core/fal/tiger/fal_tiger_ctrlpkt.c ****     HAL_FIELD_GET(L2_ARP_BCAST_PER_PORT_CTRLm, L2_ARP_BCAST_PER_PORT_CTRL_DROPf, &entry, &dropMask)
 1316              		.loc 1 163 5 is_stmt 0 discriminator 2 view .LVU313
 1317 0074 FFF7FEFF 		bl	hal_tbl_reg_field_get
 1318              	.LVL158:
 163:../switch_sdk/core/fal/tiger/fal_tiger_ctrlpkt.c ****     HAL_FIELD_GET(L2_ARP_BCAST_PER_PORT_CTRLm, L2_ARP_BCAST_PER_PORT_CTRL_DROPf, &entry, &dropMask)
 1319              		.loc 1 163 5 is_stmt 1 discriminator 2 view .LVU314
 1320 0078 029C     		ldr	r4, [sp, #8]
 1321              	.LVL159:
 163:../switch_sdk/core/fal/tiger/fal_tiger_ctrlpkt.c ****     HAL_FIELD_GET(L2_ARP_BCAST_PER_PORT_CTRLm, L2_ARP_BCAST_PER_PORT_CTRL_DROPf, &entry, &dropMask)
 1322              		.loc 1 163 5 is_stmt 0 discriminator 2 view .LVU315
 1323              	.LBE17:
 163:../switch_sdk/core/fal/tiger/fal_tiger_ctrlpkt.c ****     HAL_FIELD_GET(L2_ARP_BCAST_PER_PORT_CTRLm, L2_ARP_BCAST_PER_PORT_CTRL_DROPf, &entry, &dropMask)
 1324              		.loc 1 163 5 is_stmt 1 discriminator 2 view .LVU316
 164:../switch_sdk/core/fal/tiger/fal_tiger_ctrlpkt.c **** 
 1325              		.loc 1 164 5 discriminator 2 view .LVU317
 1326              	.LBB18:
 164:../switch_sdk/core/fal/tiger/fal_tiger_ctrlpkt.c **** 
 1327              		.loc 1 164 5 discriminator 2 view .LVU318
 164:../switch_sdk/core/fal/tiger/fal_tiger_ctrlpkt.c **** 
 1328              		.loc 1 164 5 discriminator 2 view .LVU319
 1329 007a 02AB     		add	r3, sp, #8
 1330 007c 03AA     		add	r2, sp, #12
 1331 007e 0021     		movs	r1, #0
 1332 0080 7420     		movs	r0, #116
 1333 0082 FFF7FEFF 		bl	hal_tbl_reg_field_get
 1334              	.LVL160:
 164:../switch_sdk/core/fal/tiger/fal_tiger_ctrlpkt.c **** 
 1335              		.loc 1 164 5 discriminator 2 view .LVU320
 1336 0086 029B     		ldr	r3, [sp, #8]
 1337              	.LVL161:
 164:../switch_sdk/core/fal/tiger/fal_tiger_ctrlpkt.c **** 
 1338              		.loc 1 164 5 is_stmt 0 discriminator 2 view .LVU321
 1339              	.LBE18:
 164:../switch_sdk/core/fal/tiger/fal_tiger_ctrlpkt.c **** 
 1340              		.loc 1 164 5 is_stmt 1 discriminator 2 view .LVU322
 166:../switch_sdk/core/fal/tiger/fal_tiger_ctrlpkt.c ****     {
 1341              		.loc 1 166 5 discriminator 2 view .LVU323
 166:../switch_sdk/core/fal/tiger/fal_tiger_ctrlpkt.c ****     {
 1342              		.loc 1 166 9 is_stmt 0 discriminator 2 view .LVU324
 1343 0088 24FA06F0 		lsr	r0, r4, r6
 166:../switch_sdk/core/fal/tiger/fal_tiger_ctrlpkt.c ****     {
 1344              		.loc 1 166 8 discriminator 2 view .LVU325
 1345 008c 10F00100 		ands	r0, r0, #1
 1346 0090 0AD0     		beq	.L80
 168:../switch_sdk/core/fal/tiger/fal_tiger_ctrlpkt.c ****         {
 1347              		.loc 1 168 9 is_stmt 1 view .LVU326
 168:../switch_sdk/core/fal/tiger/fal_tiger_ctrlpkt.c ****         {
 1348              		.loc 1 168 13 is_stmt 0 view .LVU327
 1349 0092 F340     		lsrs	r3, r3, r6
 1350              	.LVL162:
 168:../switch_sdk/core/fal/tiger/fal_tiger_ctrlpkt.c ****         {
 1351              		.loc 1 168 12 view .LVU328
 1352 0094 13F00100 		ands	r0, r3, #1
 1353 0098 03D0     		beq	.L81
 170:../switch_sdk/core/fal/tiger/fal_tiger_ctrlpkt.c ****         }
 1354              		.loc 1 170 13 is_stmt 1 view .LVU329
 170:../switch_sdk/core/fal/tiger/fal_tiger_ctrlpkt.c ****         }
 1355              		.loc 1 170 24 is_stmt 0 view .LVU330
 1356 009a 0123     		movs	r3, #1
 1357 009c 2B70     		strb	r3, [r5]
 1358              	.LVL163:
 189:../switch_sdk/core/fal/tiger/fal_tiger_ctrlpkt.c **** }
 1359              		.loc 1 189 12 view .LVU331
 1360 009e 0020     		movs	r0, #0
 1361 00a0 D0E7     		b	.L75
 1362              	.LVL164:
 1363              	.L81:
 174:../switch_sdk/core/fal/tiger/fal_tiger_ctrlpkt.c ****         }
 1364              		.loc 1 174 13 is_stmt 1 view .LVU332
 174:../switch_sdk/core/fal/tiger/fal_tiger_ctrlpkt.c ****         }
 1365              		.loc 1 174 24 is_stmt 0 view .LVU333
 1366 00a2 0323     		movs	r3, #3
 1367 00a4 2B70     		strb	r3, [r5]
 1368              	.LVL165:
 174:../switch_sdk/core/fal/tiger/fal_tiger_ctrlpkt.c ****         }
 1369              		.loc 1 174 24 view .LVU334
 1370 00a6 CDE7     		b	.L75
 1371              	.LVL166:
 1372              	.L80:
 179:../switch_sdk/core/fal/tiger/fal_tiger_ctrlpkt.c ****         {
 1373              		.loc 1 179 9 is_stmt 1 view .LVU335
 179:../switch_sdk/core/fal/tiger/fal_tiger_ctrlpkt.c ****         {
 1374              		.loc 1 179 13 is_stmt 0 view .LVU336
 1375 00a8 F340     		lsrs	r3, r3, r6
 1376              	.LVL167:
 179:../switch_sdk/core/fal/tiger/fal_tiger_ctrlpkt.c ****         {
 1377              		.loc 1 179 12 view .LVU337
 1378 00aa 13F00103 		ands	r3, r3, #1
 1379 00ae 02D0     		beq	.L82
 181:../switch_sdk/core/fal/tiger/fal_tiger_ctrlpkt.c ****         }
 1380              		.loc 1 181 13 is_stmt 1 view .LVU338
 181:../switch_sdk/core/fal/tiger/fal_tiger_ctrlpkt.c ****         }
 1381              		.loc 1 181 24 is_stmt 0 view .LVU339
 1382 00b0 0223     		movs	r3, #2
 1383 00b2 2B70     		strb	r3, [r5]
 1384              	.LVL168:
 181:../switch_sdk/core/fal/tiger/fal_tiger_ctrlpkt.c ****         }
 1385              		.loc 1 181 24 view .LVU340
 1386 00b4 C6E7     		b	.L75
 1387              	.LVL169:
 1388              	.L82:
 185:../switch_sdk/core/fal/tiger/fal_tiger_ctrlpkt.c ****         }
 1389              		.loc 1 185 13 is_stmt 1 view .LVU341
 185:../switch_sdk/core/fal/tiger/fal_tiger_ctrlpkt.c ****         }
 1390              		.loc 1 185 24 is_stmt 0 view .LVU342
 1391 00b6 0022     		movs	r2, #0
 1392 00b8 2A70     		strb	r2, [r5]
 1393              	.LVL170:
 189:../switch_sdk/core/fal/tiger/fal_tiger_ctrlpkt.c **** }
 1394              		.loc 1 189 12 view .LVU343
 1395 00ba 1846     		mov	r0, r3
 1396 00bc C2E7     		b	.L75
 1397              	.L88:
 1398 00be 00BF     		.align	2
 1399              	.L87:
 1400 00c0 00000000 		.word	gcal_inited
 1401 00c4 00000000 		.word	gpSwitchUnit
 1402 00c8 00000000 		.word	yt_debug_level
 1403 00cc 00000000 		.word	__FUNCTION__.6
 1404 00d0 00000000 		.word	.LC5
 1405 00d4 00000000 		.word	_yt_errmsg
 1406 00d8 00000000 		.word	_yt_prompt_msg
 1407 00dc 48000000 		.word	.LC1
 1408              		.cfi_endproc
 1409              	.LFE8:
 1411              		.section	.rodata.fal_tiger_ctrlpkt_nd_act_set.str1.4,"aMS",%progbits,1
 1412              		.align	2
 1413              	.LC7:
 1414 0000 68616C5F 		.ascii	"hal_table_reg_read(unit,117,0,sizeof(l2_nd_per_port"
 1414      7461626C 
 1414      655F7265 
 1414      675F7265 
 1414      61642875 
 1415 0033 5F637472 		.ascii	"_ctrl_t),&entry)\000"
 1415      6C5F7429 
 1415      2C26656E 
 1415      74727929 
 1415      00
 1416              		.align	2
 1417              	.LC8:
 1418 0044 68616C5F 		.ascii	"hal_table_reg_write(unit,117,0,sizeof(l2_nd_per_por"
 1418      7461626C 
 1418      655F7265 
 1418      675F7772 
 1418      69746528 
 1419 0077 745F6374 		.ascii	"t_ctrl_t),&entry)\000"
 1419      726C5F74 
 1419      292C2665 
 1419      6E747279 
 1419      2900
 1420              		.section	.text.fal_tiger_ctrlpkt_nd_act_set,"ax",%progbits
 1421              		.align	1
 1422              		.global	fal_tiger_ctrlpkt_nd_act_set
 1423              		.syntax unified
 1424              		.thumb
 1425              		.thumb_func
 1427              	fal_tiger_ctrlpkt_nd_act_set:
 1428              	.LVL171:
 1429              	.LFB9:
 191:../switch_sdk/core/fal/tiger/fal_tiger_ctrlpkt.c **** 
 192:../switch_sdk/core/fal/tiger/fal_tiger_ctrlpkt.c **** yt_ret_t fal_tiger_ctrlpkt_nd_act_set(yt_unit_t unit, yt_port_t port, yt_ctrlpkt_l2_action_t act_ct
 193:../switch_sdk/core/fal/tiger/fal_tiger_ctrlpkt.c **** {
 1430              		.loc 1 193 1 is_stmt 1 view -0
 1431              		.cfi_startproc
 1432              		@ args = 0, pretend = 0, frame = 8
 1433              		@ frame_needed = 0, uses_anonymous_args = 0
 1434              		.loc 1 193 1 is_stmt 0 view .LVU345
 1435 0000 F0B5     		push	{r4, r5, r6, r7, lr}
 1436              		.cfi_def_cfa_offset 20
 1437              		.cfi_offset 4, -20
 1438              		.cfi_offset 5, -16
 1439              		.cfi_offset 6, -12
 1440              		.cfi_offset 7, -8
 1441              		.cfi_offset 14, -4
 1442 0002 85B0     		sub	sp, sp, #20
 1443              		.cfi_def_cfa_offset 40
 1444 0004 0546     		mov	r5, r0
 1445 0006 1646     		mov	r6, r2
 194:../switch_sdk/core/fal/tiger/fal_tiger_ctrlpkt.c ****     l2_nd_per_port_ctrl_t entry;
 1446              		.loc 1 194 5 is_stmt 1 view .LVU346
 195:../switch_sdk/core/fal/tiger/fal_tiger_ctrlpkt.c ****     yt_macid_t macid;
 1447              		.loc 1 195 5 view .LVU347
 196:../switch_sdk/core/fal/tiger/fal_tiger_ctrlpkt.c ****     uint32_t copyMask;
 1448              		.loc 1 196 5 view .LVU348
 197:../switch_sdk/core/fal/tiger/fal_tiger_ctrlpkt.c ****     uint32_t dropMask;
 1449              		.loc 1 197 5 view .LVU349
 198:../switch_sdk/core/fal/tiger/fal_tiger_ctrlpkt.c ****     cmm_err_t ret = CMM_ERR_OK;
 1450              		.loc 1 198 5 view .LVU350
 1451              	.LVL172:
 199:../switch_sdk/core/fal/tiger/fal_tiger_ctrlpkt.c **** 
 200:../switch_sdk/core/fal/tiger/fal_tiger_ctrlpkt.c ****     macid = CAL_YTP_TO_MAC(unit,port);
 1452              		.loc 1 200 5 view .LVU351
 1453              		.loc 1 200 13 is_stmt 0 view .LVU352
 1454 0008 494B     		ldr	r3, .L109
 1455 000a 1B78     		ldrb	r3, [r3]	@ zero_extendqisi2
 1456 000c 53B1     		cbz	r3, .L101
 1457              		.loc 1 200 13 discriminator 1 view .LVU353
 1458 000e 494B     		ldr	r3, .L109+4
 1459 0010 53F82030 		ldr	r3, [r3, r0, lsl #2]
 1460 0014 1A7D     		ldrb	r2, [r3, #20]	@ zero_extendqisi2
 1461              	.LVL173:
 1462              		.loc 1 200 13 discriminator 1 view .LVU354
 1463 0016 8A42     		cmp	r2, r1
 1464 0018 18D9     		bls	.L102
 1465              		.loc 1 200 13 discriminator 3 view .LVU355
 1466 001a 0631     		adds	r1, r1, #6
 1467              	.LVL174:
 1468              		.loc 1 200 13 discriminator 3 view .LVU356
 1469 001c 53F82130 		ldr	r3, [r3, r1, lsl #2]
 1470 0020 1F78     		ldrb	r7, [r3]	@ zero_extendqisi2
 1471 0022 00E0     		b	.L90
 1472              	.LVL175:
 1473              	.L101:
 1474              		.loc 1 200 13 view .LVU357
 1475 0024 FF27     		movs	r7, #255
 1476              	.LVL176:
 1477              	.L90:
 201:../switch_sdk/core/fal/tiger/fal_tiger_ctrlpkt.c **** 
 202:../switch_sdk/core/fal/tiger/fal_tiger_ctrlpkt.c ****     CMM_ERR_CHK(HAL_TBL_REG_READ(unit, L2_ND_PER_PORT_CTRLm, 0, sizeof(l2_nd_per_port_ctrl_t), &ent
 1478              		.loc 1 202 5 is_stmt 1 discriminator 6 view .LVU358
 1479              		.loc 1 202 5 discriminator 6 view .LVU359
 1480 0026 03AA     		add	r2, sp, #12
 1481 0028 0092     		str	r2, [sp]
 1482 002a 0423     		movs	r3, #4
 1483 002c 0022     		movs	r2, #0
 1484 002e 7521     		movs	r1, #117
 1485 0030 2846     		mov	r0, r5
 1486              	.LVL177:
 1487              		.loc 1 202 5 is_stmt 0 discriminator 6 view .LVU360
 1488 0032 FFF7FEFF 		bl	hal_table_reg_read
 1489              	.LVL178:
 1490 0036 0446     		mov	r4, r0
 1491              	.LVL179:
 1492              		.loc 1 202 5 discriminator 6 view .LVU361
 1493 0038 10F0FF03 		ands	r3, r0, #255
 1494 003c 18D0     		beq	.L91
 1495              		.loc 1 202 5 is_stmt 1 discriminator 1 view .LVU362
 1496              		.loc 1 202 5 discriminator 1 view .LVU363
 1497 003e 3E4A     		ldr	r2, .L109+8
 1498 0040 1278     		ldrb	r2, [r2]	@ zero_extendqisi2
 1499 0042 012A     		cmp	r2, #1
 1500 0044 04D8     		bhi	.L106
 1501              	.LVL180:
 1502              	.L92:
 1503              		.loc 1 202 5 discriminator 5 view .LVU364
 1504              		.loc 1 202 5 discriminator 5 view .LVU365
 1505              		.loc 1 202 5 discriminator 5 view .LVU366
 1506 0046 E0B2     		uxtb	r0, r4
 1507              	.LVL181:
 1508              	.L89:
 203:../switch_sdk/core/fal/tiger/fal_tiger_ctrlpkt.c ****     HAL_FIELD_GET(L2_ND_PER_PORT_CTRLm, L2_ND_PER_PORT_CTRL_COPY_TO_CPUf, &entry, &copyMask);
 204:../switch_sdk/core/fal/tiger/fal_tiger_ctrlpkt.c ****     HAL_FIELD_GET(L2_ND_PER_PORT_CTRLm, L2_ND_PER_PORT_CTRL_DROPf, &entry, &dropMask);
 205:../switch_sdk/core/fal/tiger/fal_tiger_ctrlpkt.c **** 
 206:../switch_sdk/core/fal/tiger/fal_tiger_ctrlpkt.c ****     switch(act_ctrl)
 207:../switch_sdk/core/fal/tiger/fal_tiger_ctrlpkt.c ****     {
 208:../switch_sdk/core/fal/tiger/fal_tiger_ctrlpkt.c ****         case L2_ACTION_FWD:
 209:../switch_sdk/core/fal/tiger/fal_tiger_ctrlpkt.c ****             copyMask = (uint32_t)CLR_FIELD(copyMask, macid, 1);
 210:../switch_sdk/core/fal/tiger/fal_tiger_ctrlpkt.c ****             dropMask = (uint32_t)CLR_FIELD(dropMask, macid, 1);
 211:../switch_sdk/core/fal/tiger/fal_tiger_ctrlpkt.c ****             break;
 212:../switch_sdk/core/fal/tiger/fal_tiger_ctrlpkt.c **** 
 213:../switch_sdk/core/fal/tiger/fal_tiger_ctrlpkt.c ****         case L2_ACTION_TRAP:
 214:../switch_sdk/core/fal/tiger/fal_tiger_ctrlpkt.c ****             copyMask |= (uint32_t)(1UL<<macid);
 215:../switch_sdk/core/fal/tiger/fal_tiger_ctrlpkt.c ****             dropMask |= (uint32_t)(1UL<<macid);
 216:../switch_sdk/core/fal/tiger/fal_tiger_ctrlpkt.c ****             break;
 217:../switch_sdk/core/fal/tiger/fal_tiger_ctrlpkt.c **** 
 218:../switch_sdk/core/fal/tiger/fal_tiger_ctrlpkt.c ****         case L2_ACTION_DROP:
 219:../switch_sdk/core/fal/tiger/fal_tiger_ctrlpkt.c ****             copyMask = (uint32_t)CLR_FIELD(copyMask, macid, 1);
 220:../switch_sdk/core/fal/tiger/fal_tiger_ctrlpkt.c ****             dropMask |= (uint32_t)(1UL<<macid);
 221:../switch_sdk/core/fal/tiger/fal_tiger_ctrlpkt.c ****             break;
 222:../switch_sdk/core/fal/tiger/fal_tiger_ctrlpkt.c **** 
 223:../switch_sdk/core/fal/tiger/fal_tiger_ctrlpkt.c ****         case L2_ACTION_COPY:
 224:../switch_sdk/core/fal/tiger/fal_tiger_ctrlpkt.c ****             copyMask |= (uint32_t)(1UL<<macid);
 225:../switch_sdk/core/fal/tiger/fal_tiger_ctrlpkt.c ****             dropMask = (uint32_t)CLR_FIELD(dropMask, macid, 1);;
 226:../switch_sdk/core/fal/tiger/fal_tiger_ctrlpkt.c ****             break;
 227:../switch_sdk/core/fal/tiger/fal_tiger_ctrlpkt.c **** 
 228:../switch_sdk/core/fal/tiger/fal_tiger_ctrlpkt.c ****         default:
 229:../switch_sdk/core/fal/tiger/fal_tiger_ctrlpkt.c ****             return CMM_ERR_NOT_SUPPORT;
 230:../switch_sdk/core/fal/tiger/fal_tiger_ctrlpkt.c ****     }
 231:../switch_sdk/core/fal/tiger/fal_tiger_ctrlpkt.c ****     
 232:../switch_sdk/core/fal/tiger/fal_tiger_ctrlpkt.c ****     HAL_FIELD_SET(L2_ND_PER_PORT_CTRLm, L2_ND_PER_PORT_CTRL_COPY_TO_CPUf, &entry, copyMask);
 233:../switch_sdk/core/fal/tiger/fal_tiger_ctrlpkt.c ****     HAL_FIELD_SET(L2_ND_PER_PORT_CTRLm, L2_ND_PER_PORT_CTRL_DROPf, &entry, dropMask);
 234:../switch_sdk/core/fal/tiger/fal_tiger_ctrlpkt.c ****     
 235:../switch_sdk/core/fal/tiger/fal_tiger_ctrlpkt.c ****     CMM_ERR_CHK(HAL_TBL_REG_WRITE(unit, L2_ND_PER_PORT_CTRLm, 0, sizeof(l2_nd_per_port_ctrl_t), &en
 236:../switch_sdk/core/fal/tiger/fal_tiger_ctrlpkt.c ****     
 237:../switch_sdk/core/fal/tiger/fal_tiger_ctrlpkt.c ****     return CMM_ERR_OK;
 238:../switch_sdk/core/fal/tiger/fal_tiger_ctrlpkt.c **** }
 1509              		.loc 1 238 1 is_stmt 0 view .LVU367
 1510 0048 05B0     		add	sp, sp, #20
 1511              		.cfi_remember_state
 1512              		.cfi_def_cfa_offset 20
 1513              		@ sp needed
 1514 004a F0BD     		pop	{r4, r5, r6, r7, pc}
 1515              	.LVL182:
 1516              	.L102:
 1517              		.cfi_restore_state
 200:../switch_sdk/core/fal/tiger/fal_tiger_ctrlpkt.c **** 
 1518              		.loc 1 200 13 view .LVU368
 1519 004c FF27     		movs	r7, #255
 1520 004e EAE7     		b	.L90
 1521              	.LVL183:
 1522              	.L106:
 202:../switch_sdk/core/fal/tiger/fal_tiger_ctrlpkt.c ****     HAL_FIELD_GET(L2_ND_PER_PORT_CTRLm, L2_ND_PER_PORT_CTRL_COPY_TO_CPUf, &entry, &copyMask);
 1523              		.loc 1 202 5 is_stmt 1 discriminator 3 view .LVU369
 1524              	.LBB19:
 202:../switch_sdk/core/fal/tiger/fal_tiger_ctrlpkt.c ****     HAL_FIELD_GET(L2_ND_PER_PORT_CTRLm, L2_ND_PER_PORT_CTRL_COPY_TO_CPUf, &entry, &copyMask);
 1525              		.loc 1 202 5 discriminator 3 view .LVU370
 1526 0050 142B     		cmp	r3, #20
 1527 0052 28BF     		it	cs
 1528 0054 1423     		movcs	r3, #20
 1529 0056 1A46     		mov	r2, r3
 1530 0058 384B     		ldr	r3, .L109+12
 1531 005a 0093     		str	r3, [sp]
 1532 005c 384B     		ldr	r3, .L109+16
 1533 005e 3949     		ldr	r1, .L109+20
 1534 0060 51F82220 		ldr	r2, [r1, r2, lsl #2]
 1535 0064 3849     		ldr	r1, .L109+24
 1536 0066 8968     		ldr	r1, [r1, #8]
 1537 0068 3848     		ldr	r0, .L109+28
 1538              	.LVL184:
 202:../switch_sdk/core/fal/tiger/fal_tiger_ctrlpkt.c ****     HAL_FIELD_GET(L2_ND_PER_PORT_CTRLm, L2_ND_PER_PORT_CTRL_COPY_TO_CPUf, &entry, &copyMask);
 1539              		.loc 1 202 5 is_stmt 0 discriminator 3 view .LVU371
 1540 006a FFF7FEFF 		bl	osal_printf
 1541              	.LVL185:
 1542 006e EAE7     		b	.L92
 1543              	.LVL186:
 1544              	.L91:
 202:../switch_sdk/core/fal/tiger/fal_tiger_ctrlpkt.c ****     HAL_FIELD_GET(L2_ND_PER_PORT_CTRLm, L2_ND_PER_PORT_CTRL_COPY_TO_CPUf, &entry, &copyMask);
 1545              		.loc 1 202 5 discriminator 3 view .LVU372
 1546              	.LBE19:
 202:../switch_sdk/core/fal/tiger/fal_tiger_ctrlpkt.c ****     HAL_FIELD_GET(L2_ND_PER_PORT_CTRLm, L2_ND_PER_PORT_CTRL_COPY_TO_CPUf, &entry, &copyMask);
 1547              		.loc 1 202 5 is_stmt 1 discriminator 2 view .LVU373
 203:../switch_sdk/core/fal/tiger/fal_tiger_ctrlpkt.c ****     HAL_FIELD_GET(L2_ND_PER_PORT_CTRLm, L2_ND_PER_PORT_CTRL_COPY_TO_CPUf, &entry, &copyMask);
 1548              		.loc 1 203 5 discriminator 2 view .LVU374
 1549              	.LBB20:
 203:../switch_sdk/core/fal/tiger/fal_tiger_ctrlpkt.c ****     HAL_FIELD_GET(L2_ND_PER_PORT_CTRLm, L2_ND_PER_PORT_CTRL_COPY_TO_CPUf, &entry, &copyMask);
 1550              		.loc 1 203 5 discriminator 2 view .LVU375
 203:../switch_sdk/core/fal/tiger/fal_tiger_ctrlpkt.c ****     HAL_FIELD_GET(L2_ND_PER_PORT_CTRLm, L2_ND_PER_PORT_CTRL_COPY_TO_CPUf, &entry, &copyMask);
 1551              		.loc 1 203 5 discriminator 2 view .LVU376
 1552 0070 02AB     		add	r3, sp, #8
 1553 0072 03AA     		add	r2, sp, #12
 1554 0074 0121     		movs	r1, #1
 1555 0076 7520     		movs	r0, #117
 1556              	.LVL187:
 203:../switch_sdk/core/fal/tiger/fal_tiger_ctrlpkt.c ****     HAL_FIELD_GET(L2_ND_PER_PORT_CTRLm, L2_ND_PER_PORT_CTRL_COPY_TO_CPUf, &entry, &copyMask);
 1557              		.loc 1 203 5 is_stmt 0 discriminator 2 view .LVU377
 1558 0078 FFF7FEFF 		bl	hal_tbl_reg_field_get
 1559              	.LVL188:
 203:../switch_sdk/core/fal/tiger/fal_tiger_ctrlpkt.c ****     HAL_FIELD_GET(L2_ND_PER_PORT_CTRLm, L2_ND_PER_PORT_CTRL_COPY_TO_CPUf, &entry, &copyMask);
 1560              		.loc 1 203 5 is_stmt 1 discriminator 2 view .LVU378
 1561 007c 029C     		ldr	r4, [sp, #8]
 1562              	.LVL189:
 203:../switch_sdk/core/fal/tiger/fal_tiger_ctrlpkt.c ****     HAL_FIELD_GET(L2_ND_PER_PORT_CTRLm, L2_ND_PER_PORT_CTRL_COPY_TO_CPUf, &entry, &copyMask);
 1563              		.loc 1 203 5 is_stmt 0 discriminator 2 view .LVU379
 1564              	.LBE20:
 203:../switch_sdk/core/fal/tiger/fal_tiger_ctrlpkt.c ****     HAL_FIELD_GET(L2_ND_PER_PORT_CTRLm, L2_ND_PER_PORT_CTRL_COPY_TO_CPUf, &entry, &copyMask);
 1565              		.loc 1 203 5 is_stmt 1 discriminator 2 view .LVU380
 204:../switch_sdk/core/fal/tiger/fal_tiger_ctrlpkt.c **** 
 1566              		.loc 1 204 5 discriminator 2 view .LVU381
 1567              	.LBB21:
 204:../switch_sdk/core/fal/tiger/fal_tiger_ctrlpkt.c **** 
 1568              		.loc 1 204 5 discriminator 2 view .LVU382
 204:../switch_sdk/core/fal/tiger/fal_tiger_ctrlpkt.c **** 
 1569              		.loc 1 204 5 discriminator 2 view .LVU383
 1570 007e 02AB     		add	r3, sp, #8
 1571 0080 03AA     		add	r2, sp, #12
 1572 0082 0021     		movs	r1, #0
 1573 0084 7520     		movs	r0, #117
 1574 0086 FFF7FEFF 		bl	hal_tbl_reg_field_get
 1575              	.LVL190:
 204:../switch_sdk/core/fal/tiger/fal_tiger_ctrlpkt.c **** 
 1576              		.loc 1 204 5 discriminator 2 view .LVU384
 1577 008a 029A     		ldr	r2, [sp, #8]
 1578              	.LVL191:
 204:../switch_sdk/core/fal/tiger/fal_tiger_ctrlpkt.c **** 
 1579              		.loc 1 204 5 is_stmt 0 discriminator 2 view .LVU385
 1580              	.LBE21:
 204:../switch_sdk/core/fal/tiger/fal_tiger_ctrlpkt.c **** 
 1581              		.loc 1 204 5 is_stmt 1 discriminator 2 view .LVU386
 206:../switch_sdk/core/fal/tiger/fal_tiger_ctrlpkt.c ****     {
 1582              		.loc 1 206 5 discriminator 2 view .LVU387
 1583 008c 032E     		cmp	r6, #3
 1584 008e 4DD8     		bhi	.L103
 1585 0090 DFE806F0 		tbb	[pc, r6]
 1586              	.L95:
 1587 0094 02       		.byte	(.L98-.L95)/2
 1588 0095 21       		.byte	(.L97-.L95)/2
 1589 0096 28       		.byte	(.L96-.L95)/2
 1590 0097 2F       		.byte	(.L94-.L95)/2
 1591              		.p2align 1
 1592              	.L98:
 209:../switch_sdk/core/fal/tiger/fal_tiger_ctrlpkt.c ****             dropMask = (uint32_t)CLR_FIELD(dropMask, macid, 1);
 1593              		.loc 1 209 13 view .LVU388
 209:../switch_sdk/core/fal/tiger/fal_tiger_ctrlpkt.c ****             dropMask = (uint32_t)CLR_FIELD(dropMask, macid, 1);
 1594              		.loc 1 209 34 is_stmt 0 view .LVU389
 1595 0098 0121     		movs	r1, #1
 1596 009a B940     		lsls	r1, r1, r7
 1597 009c 24EA0103 		bic	r3, r4, r1
 1598              	.LVL192:
 210:../switch_sdk/core/fal/tiger/fal_tiger_ctrlpkt.c ****             break;
 1599              		.loc 1 210 13 is_stmt 1 view .LVU390
 210:../switch_sdk/core/fal/tiger/fal_tiger_ctrlpkt.c ****             break;
 1600              		.loc 1 210 34 is_stmt 0 view .LVU391
 1601 00a0 22EA0104 		bic	r4, r2, r1
 1602              	.LVL193:
 211:../switch_sdk/core/fal/tiger/fal_tiger_ctrlpkt.c **** 
 1603              		.loc 1 211 13 is_stmt 1 view .LVU392
 1604              	.L99:
 232:../switch_sdk/core/fal/tiger/fal_tiger_ctrlpkt.c ****     HAL_FIELD_SET(L2_ND_PER_PORT_CTRLm, L2_ND_PER_PORT_CTRL_DROPf, &entry, dropMask);
 1605              		.loc 1 232 5 view .LVU393
 1606 00a4 03AE     		add	r6, sp, #12
 1607 00a6 3246     		mov	r2, r6
 1608 00a8 0121     		movs	r1, #1
 1609 00aa 7520     		movs	r0, #117
 1610 00ac FFF7FEFF 		bl	hal_tbl_reg_field_set
 1611              	.LVL194:
 233:../switch_sdk/core/fal/tiger/fal_tiger_ctrlpkt.c ****     
 1612              		.loc 1 233 5 view .LVU394
 1613 00b0 2346     		mov	r3, r4
 1614 00b2 3246     		mov	r2, r6
 1615 00b4 0021     		movs	r1, #0
 1616 00b6 7520     		movs	r0, #117
 1617 00b8 FFF7FEFF 		bl	hal_tbl_reg_field_set
 1618              	.LVL195:
 235:../switch_sdk/core/fal/tiger/fal_tiger_ctrlpkt.c ****     
 1619              		.loc 1 235 5 view .LVU395
 235:../switch_sdk/core/fal/tiger/fal_tiger_ctrlpkt.c ****     
 1620              		.loc 1 235 5 view .LVU396
 1621 00bc 0096     		str	r6, [sp]
 1622 00be 0423     		movs	r3, #4
 1623 00c0 0022     		movs	r2, #0
 1624 00c2 7521     		movs	r1, #117
 1625 00c4 2846     		mov	r0, r5
 1626 00c6 FFF7FEFF 		bl	hal_table_reg_write
 1627              	.LVL196:
 1628 00ca 0446     		mov	r4, r0
 1629              	.LVL197:
 235:../switch_sdk/core/fal/tiger/fal_tiger_ctrlpkt.c ****     
 1630              		.loc 1 235 5 is_stmt 0 view .LVU397
 1631 00cc 10F0FF03 		ands	r3, r0, #255
 1632 00d0 16D1     		bne	.L107
 237:../switch_sdk/core/fal/tiger/fal_tiger_ctrlpkt.c **** }
 1633              		.loc 1 237 12 view .LVU398
 1634 00d2 0020     		movs	r0, #0
 1635              	.LVL198:
 237:../switch_sdk/core/fal/tiger/fal_tiger_ctrlpkt.c **** }
 1636              		.loc 1 237 12 view .LVU399
 1637 00d4 B8E7     		b	.L89
 1638              	.LVL199:
 1639              	.L97:
 214:../switch_sdk/core/fal/tiger/fal_tiger_ctrlpkt.c ****             dropMask |= (uint32_t)(1UL<<macid);
 1640              		.loc 1 214 13 is_stmt 1 view .LVU400
 214:../switch_sdk/core/fal/tiger/fal_tiger_ctrlpkt.c ****             dropMask |= (uint32_t)(1UL<<macid);
 1641              		.loc 1 214 39 is_stmt 0 view .LVU401
 1642 00d6 0121     		movs	r1, #1
 1643 00d8 B940     		lsls	r1, r1, r7
 214:../switch_sdk/core/fal/tiger/fal_tiger_ctrlpkt.c ****             dropMask |= (uint32_t)(1UL<<macid);
 1644              		.loc 1 214 22 view .LVU402
 1645 00da 44EA0103 		orr	r3, r4, r1
 1646              	.LVL200:
 215:../switch_sdk/core/fal/tiger/fal_tiger_ctrlpkt.c ****             break;
 1647              		.loc 1 215 13 is_stmt 1 view .LVU403
 215:../switch_sdk/core/fal/tiger/fal_tiger_ctrlpkt.c ****             break;
 1648              		.loc 1 215 22 is_stmt 0 view .LVU404
 1649 00de 42EA0104 		orr	r4, r2, r1
 1650              	.LVL201:
 216:../switch_sdk/core/fal/tiger/fal_tiger_ctrlpkt.c **** 
 1651              		.loc 1 216 13 is_stmt 1 view .LVU405
 1652 00e2 DFE7     		b	.L99
 1653              	.LVL202:
 1654              	.L96:
 219:../switch_sdk/core/fal/tiger/fal_tiger_ctrlpkt.c ****             dropMask |= (uint32_t)(1UL<<macid);
 1655              		.loc 1 219 13 view .LVU406
 219:../switch_sdk/core/fal/tiger/fal_tiger_ctrlpkt.c ****             dropMask |= (uint32_t)(1UL<<macid);
 1656              		.loc 1 219 34 is_stmt 0 view .LVU407
 1657 00e4 0121     		movs	r1, #1
 1658 00e6 B940     		lsls	r1, r1, r7
 1659 00e8 24EA0103 		bic	r3, r4, r1
 1660              	.LVL203:
 220:../switch_sdk/core/fal/tiger/fal_tiger_ctrlpkt.c ****             break;
 1661              		.loc 1 220 13 is_stmt 1 view .LVU408
 220:../switch_sdk/core/fal/tiger/fal_tiger_ctrlpkt.c ****             break;
 1662              		.loc 1 220 22 is_stmt 0 view .LVU409
 1663 00ec 42EA0104 		orr	r4, r2, r1
 1664              	.LVL204:
 221:../switch_sdk/core/fal/tiger/fal_tiger_ctrlpkt.c **** 
 1665              		.loc 1 221 13 is_stmt 1 view .LVU410
 1666 00f0 D8E7     		b	.L99
 1667              	.LVL205:
 1668              	.L94:
 224:../switch_sdk/core/fal/tiger/fal_tiger_ctrlpkt.c ****             dropMask = (uint32_t)CLR_FIELD(dropMask, macid, 1);;
 1669              		.loc 1 224 13 view .LVU411
 224:../switch_sdk/core/fal/tiger/fal_tiger_ctrlpkt.c ****             dropMask = (uint32_t)CLR_FIELD(dropMask, macid, 1);;
 1670              		.loc 1 224 39 is_stmt 0 view .LVU412
 1671 00f2 0121     		movs	r1, #1
 1672 00f4 B940     		lsls	r1, r1, r7
 224:../switch_sdk/core/fal/tiger/fal_tiger_ctrlpkt.c ****             dropMask = (uint32_t)CLR_FIELD(dropMask, macid, 1);;
 1673              		.loc 1 224 22 view .LVU413
 1674 00f6 44EA0103 		orr	r3, r4, r1
 1675              	.LVL206:
 225:../switch_sdk/core/fal/tiger/fal_tiger_ctrlpkt.c ****             break;
 1676              		.loc 1 225 13 is_stmt 1 view .LVU414
 225:../switch_sdk/core/fal/tiger/fal_tiger_ctrlpkt.c ****             break;
 1677              		.loc 1 225 34 is_stmt 0 view .LVU415
 1678 00fa 22EA0104 		bic	r4, r2, r1
 1679              	.LVL207:
 225:../switch_sdk/core/fal/tiger/fal_tiger_ctrlpkt.c ****             break;
 1680              		.loc 1 225 64 is_stmt 1 view .LVU416
 226:../switch_sdk/core/fal/tiger/fal_tiger_ctrlpkt.c **** 
 1681              		.loc 1 226 13 view .LVU417
 1682 00fe D1E7     		b	.L99
 1683              	.LVL208:
 1684              	.L107:
 235:../switch_sdk/core/fal/tiger/fal_tiger_ctrlpkt.c ****     
 1685              		.loc 1 235 5 discriminator 1 view .LVU418
 235:../switch_sdk/core/fal/tiger/fal_tiger_ctrlpkt.c ****     
 1686              		.loc 1 235 5 discriminator 1 view .LVU419
 1687 0100 0D4A     		ldr	r2, .L109+8
 1688 0102 1278     		ldrb	r2, [r2]	@ zero_extendqisi2
 1689 0104 012A     		cmp	r2, #1
 1690 0106 01D8     		bhi	.L108
 1691              	.LVL209:
 1692              	.L100:
 235:../switch_sdk/core/fal/tiger/fal_tiger_ctrlpkt.c ****     
 1693              		.loc 1 235 5 discriminator 5 view .LVU420
 235:../switch_sdk/core/fal/tiger/fal_tiger_ctrlpkt.c ****     
 1694              		.loc 1 235 5 discriminator 5 view .LVU421
 235:../switch_sdk/core/fal/tiger/fal_tiger_ctrlpkt.c ****     
 1695              		.loc 1 235 5 discriminator 5 view .LVU422
 1696 0108 E0B2     		uxtb	r0, r4
 1697 010a 9DE7     		b	.L89
 1698              	.LVL210:
 1699              	.L108:
 235:../switch_sdk/core/fal/tiger/fal_tiger_ctrlpkt.c ****     
 1700              		.loc 1 235 5 discriminator 3 view .LVU423
 1701              	.LBB22:
 235:../switch_sdk/core/fal/tiger/fal_tiger_ctrlpkt.c ****     
 1702              		.loc 1 235 5 discriminator 3 view .LVU424
 1703 010c 142B     		cmp	r3, #20
 1704 010e 28BF     		it	cs
 1705 0110 1423     		movcs	r3, #20
 1706 0112 1A46     		mov	r2, r3
 1707 0114 094B     		ldr	r3, .L109+12
 1708 0116 0093     		str	r3, [sp]
 1709 0118 0D4B     		ldr	r3, .L109+32
 1710 011a 0A49     		ldr	r1, .L109+20
 1711 011c 51F82220 		ldr	r2, [r1, r2, lsl #2]
 1712 0120 0949     		ldr	r1, .L109+24
 1713 0122 8968     		ldr	r1, [r1, #8]
 1714 0124 0948     		ldr	r0, .L109+28
 1715              	.LVL211:
 235:../switch_sdk/core/fal/tiger/fal_tiger_ctrlpkt.c ****     
 1716              		.loc 1 235 5 is_stmt 0 discriminator 3 view .LVU425
 1717 0126 FFF7FEFF 		bl	osal_printf
 1718              	.LVL212:
 1719 012a EDE7     		b	.L100
 1720              	.LVL213:
 1721              	.L103:
 235:../switch_sdk/core/fal/tiger/fal_tiger_ctrlpkt.c ****     
 1722              		.loc 1 235 5 discriminator 3 view .LVU426
 1723              	.LBE22:
 206:../switch_sdk/core/fal/tiger/fal_tiger_ctrlpkt.c ****     {
 1724              		.loc 1 206 5 view .LVU427
 1725 012c 0320     		movs	r0, #3
 1726 012e 8BE7     		b	.L89
 1727              	.L110:
 1728              		.align	2
 1729              	.L109:
 1730 0130 00000000 		.word	gcal_inited
 1731 0134 00000000 		.word	gpSwitchUnit
 1732 0138 00000000 		.word	yt_debug_level
 1733 013c 00000000 		.word	__FUNCTION__.5
 1734 0140 00000000 		.word	.LC7
 1735 0144 00000000 		.word	_yt_errmsg
 1736 0148 00000000 		.word	_yt_prompt_msg
 1737 014c 48000000 		.word	.LC1
 1738 0150 44000000 		.word	.LC8
 1739              		.cfi_endproc
 1740              	.LFE9:
 1742              		.section	.text.fal_tiger_ctrlpkt_nd_act_get,"ax",%progbits
 1743              		.align	1
 1744              		.global	fal_tiger_ctrlpkt_nd_act_get
 1745              		.syntax unified
 1746              		.thumb
 1747              		.thumb_func
 1749              	fal_tiger_ctrlpkt_nd_act_get:
 1750              	.LVL214:
 1751              	.LFB10:
 239:../switch_sdk/core/fal/tiger/fal_tiger_ctrlpkt.c **** 
 240:../switch_sdk/core/fal/tiger/fal_tiger_ctrlpkt.c **** yt_ret_t fal_tiger_ctrlpkt_nd_act_get(yt_unit_t unit, yt_port_t port, yt_ctrlpkt_l2_action_t *pAct_
 241:../switch_sdk/core/fal/tiger/fal_tiger_ctrlpkt.c **** {
 1752              		.loc 1 241 1 is_stmt 1 view -0
 1753              		.cfi_startproc
 1754              		@ args = 0, pretend = 0, frame = 8
 1755              		@ frame_needed = 0, uses_anonymous_args = 0
 1756              		.loc 1 241 1 is_stmt 0 view .LVU429
 1757 0000 70B5     		push	{r4, r5, r6, lr}
 1758              		.cfi_def_cfa_offset 16
 1759              		.cfi_offset 4, -16
 1760              		.cfi_offset 5, -12
 1761              		.cfi_offset 6, -8
 1762              		.cfi_offset 14, -4
 1763 0002 84B0     		sub	sp, sp, #16
 1764              		.cfi_def_cfa_offset 32
 1765 0004 1546     		mov	r5, r2
 242:../switch_sdk/core/fal/tiger/fal_tiger_ctrlpkt.c ****     l2_nd_per_port_ctrl_t entry;
 1766              		.loc 1 242 5 is_stmt 1 view .LVU430
 243:../switch_sdk/core/fal/tiger/fal_tiger_ctrlpkt.c ****     yt_macid_t macid;
 1767              		.loc 1 243 5 view .LVU431
 244:../switch_sdk/core/fal/tiger/fal_tiger_ctrlpkt.c ****     uint32_t copyMask;
 1768              		.loc 1 244 5 view .LVU432
 245:../switch_sdk/core/fal/tiger/fal_tiger_ctrlpkt.c ****     uint32_t dropMask;
 1769              		.loc 1 245 5 view .LVU433
 246:../switch_sdk/core/fal/tiger/fal_tiger_ctrlpkt.c ****     cmm_err_t ret = CMM_ERR_OK;
 1770              		.loc 1 246 5 view .LVU434
 1771              	.LVL215:
 247:../switch_sdk/core/fal/tiger/fal_tiger_ctrlpkt.c **** 
 248:../switch_sdk/core/fal/tiger/fal_tiger_ctrlpkt.c ****     macid = CAL_YTP_TO_MAC(unit,port);
 1772              		.loc 1 248 5 view .LVU435
 1773              		.loc 1 248 13 is_stmt 0 view .LVU436
 1774 0006 2E4B     		ldr	r3, .L123
 1775 0008 1B78     		ldrb	r3, [r3]	@ zero_extendqisi2
 1776 000a 53B1     		cbz	r3, .L119
 1777              		.loc 1 248 13 discriminator 1 view .LVU437
 1778 000c 2D4B     		ldr	r3, .L123+4
 1779 000e 53F82030 		ldr	r3, [r3, r0, lsl #2]
 1780 0012 1A7D     		ldrb	r2, [r3, #20]	@ zero_extendqisi2
 1781              	.LVL216:
 1782              		.loc 1 248 13 discriminator 1 view .LVU438
 1783 0014 8A42     		cmp	r2, r1
 1784 0016 17D9     		bls	.L120
 1785              		.loc 1 248 13 discriminator 3 view .LVU439
 1786 0018 0631     		adds	r1, r1, #6
 1787              	.LVL217:
 1788              		.loc 1 248 13 discriminator 3 view .LVU440
 1789 001a 53F82130 		ldr	r3, [r3, r1, lsl #2]
 1790 001e 1E78     		ldrb	r6, [r3]	@ zero_extendqisi2
 1791 0020 00E0     		b	.L112
 1792              	.LVL218:
 1793              	.L119:
 1794              		.loc 1 248 13 view .LVU441
 1795 0022 FF26     		movs	r6, #255
 1796              	.LVL219:
 1797              	.L112:
 249:../switch_sdk/core/fal/tiger/fal_tiger_ctrlpkt.c ****     CMM_ERR_CHK(HAL_TBL_REG_READ(unit, L2_ND_PER_PORT_CTRLm, 0, sizeof(l2_nd_per_port_ctrl_t), &ent
 1798              		.loc 1 249 5 is_stmt 1 discriminator 6 view .LVU442
 1799              		.loc 1 249 5 discriminator 6 view .LVU443
 1800 0024 03AB     		add	r3, sp, #12
 1801 0026 0093     		str	r3, [sp]
 1802 0028 0423     		movs	r3, #4
 1803 002a 0022     		movs	r2, #0
 1804 002c 7521     		movs	r1, #117
 1805 002e FFF7FEFF 		bl	hal_table_reg_read
 1806              	.LVL220:
 1807              		.loc 1 249 5 is_stmt 0 discriminator 6 view .LVU444
 1808 0032 0446     		mov	r4, r0
 1809              	.LVL221:
 1810              		.loc 1 249 5 discriminator 6 view .LVU445
 1811 0034 10F0FF03 		ands	r3, r0, #255
 1812 0038 18D0     		beq	.L113
 1813              		.loc 1 249 5 is_stmt 1 discriminator 1 view .LVU446
 1814              		.loc 1 249 5 discriminator 1 view .LVU447
 1815 003a 234A     		ldr	r2, .L123+8
 1816 003c 1278     		ldrb	r2, [r2]	@ zero_extendqisi2
 1817 003e 012A     		cmp	r2, #1
 1818 0040 04D8     		bhi	.L122
 1819              	.LVL222:
 1820              	.L114:
 1821              		.loc 1 249 5 discriminator 5 view .LVU448
 1822              		.loc 1 249 5 discriminator 5 view .LVU449
 1823              		.loc 1 249 5 discriminator 5 view .LVU450
 1824 0042 E0B2     		uxtb	r0, r4
 1825              	.L111:
 250:../switch_sdk/core/fal/tiger/fal_tiger_ctrlpkt.c ****         
 251:../switch_sdk/core/fal/tiger/fal_tiger_ctrlpkt.c ****     HAL_FIELD_GET(L2_ND_PER_PORT_CTRLm, L2_ND_PER_PORT_CTRL_COPY_TO_CPUf, &entry, &copyMask);
 252:../switch_sdk/core/fal/tiger/fal_tiger_ctrlpkt.c ****     HAL_FIELD_GET(L2_ND_PER_PORT_CTRLm, L2_ND_PER_PORT_CTRL_DROPf, &entry, &dropMask);
 253:../switch_sdk/core/fal/tiger/fal_tiger_ctrlpkt.c **** 
 254:../switch_sdk/core/fal/tiger/fal_tiger_ctrlpkt.c ****     if (copyMask & (1UL<<macid))
 255:../switch_sdk/core/fal/tiger/fal_tiger_ctrlpkt.c ****     {
 256:../switch_sdk/core/fal/tiger/fal_tiger_ctrlpkt.c ****         if (dropMask & (1UL<<macid))
 257:../switch_sdk/core/fal/tiger/fal_tiger_ctrlpkt.c ****         {
 258:../switch_sdk/core/fal/tiger/fal_tiger_ctrlpkt.c ****             *pAct_ctrl = L2_ACTION_TRAP;
 259:../switch_sdk/core/fal/tiger/fal_tiger_ctrlpkt.c ****         }
 260:../switch_sdk/core/fal/tiger/fal_tiger_ctrlpkt.c ****         else
 261:../switch_sdk/core/fal/tiger/fal_tiger_ctrlpkt.c ****         {
 262:../switch_sdk/core/fal/tiger/fal_tiger_ctrlpkt.c ****             *pAct_ctrl = L2_ACTION_COPY;
 263:../switch_sdk/core/fal/tiger/fal_tiger_ctrlpkt.c ****         }
 264:../switch_sdk/core/fal/tiger/fal_tiger_ctrlpkt.c ****     }
 265:../switch_sdk/core/fal/tiger/fal_tiger_ctrlpkt.c ****     else
 266:../switch_sdk/core/fal/tiger/fal_tiger_ctrlpkt.c ****     {
 267:../switch_sdk/core/fal/tiger/fal_tiger_ctrlpkt.c ****         if (dropMask & (1UL<<macid))
 268:../switch_sdk/core/fal/tiger/fal_tiger_ctrlpkt.c ****         {
 269:../switch_sdk/core/fal/tiger/fal_tiger_ctrlpkt.c ****             *pAct_ctrl = L2_ACTION_DROP;
 270:../switch_sdk/core/fal/tiger/fal_tiger_ctrlpkt.c ****         }
 271:../switch_sdk/core/fal/tiger/fal_tiger_ctrlpkt.c ****         else
 272:../switch_sdk/core/fal/tiger/fal_tiger_ctrlpkt.c ****         {
 273:../switch_sdk/core/fal/tiger/fal_tiger_ctrlpkt.c ****             *pAct_ctrl = L2_ACTION_FWD;
 274:../switch_sdk/core/fal/tiger/fal_tiger_ctrlpkt.c ****         }
 275:../switch_sdk/core/fal/tiger/fal_tiger_ctrlpkt.c ****     }
 276:../switch_sdk/core/fal/tiger/fal_tiger_ctrlpkt.c ****    
 277:../switch_sdk/core/fal/tiger/fal_tiger_ctrlpkt.c ****     return CMM_ERR_OK;    
 278:../switch_sdk/core/fal/tiger/fal_tiger_ctrlpkt.c **** }
 1826              		.loc 1 278 1 is_stmt 0 view .LVU451
 1827 0044 04B0     		add	sp, sp, #16
 1828              		.cfi_remember_state
 1829              		.cfi_def_cfa_offset 16
 1830              		@ sp needed
 1831 0046 70BD     		pop	{r4, r5, r6, pc}
 1832              	.LVL223:
 1833              	.L120:
 1834              		.cfi_restore_state
 248:../switch_sdk/core/fal/tiger/fal_tiger_ctrlpkt.c ****     CMM_ERR_CHK(HAL_TBL_REG_READ(unit, L2_ND_PER_PORT_CTRLm, 0, sizeof(l2_nd_per_port_ctrl_t), &ent
 1835              		.loc 1 248 13 view .LVU452
 1836 0048 FF26     		movs	r6, #255
 1837 004a EBE7     		b	.L112
 1838              	.LVL224:
 1839              	.L122:
 249:../switch_sdk/core/fal/tiger/fal_tiger_ctrlpkt.c ****     CMM_ERR_CHK(HAL_TBL_REG_READ(unit, L2_ND_PER_PORT_CTRLm, 0, sizeof(l2_nd_per_port_ctrl_t), &ent
 1840              		.loc 1 249 5 is_stmt 1 discriminator 3 view .LVU453
 1841              	.LBB23:
 249:../switch_sdk/core/fal/tiger/fal_tiger_ctrlpkt.c ****     CMM_ERR_CHK(HAL_TBL_REG_READ(unit, L2_ND_PER_PORT_CTRLm, 0, sizeof(l2_nd_per_port_ctrl_t), &ent
 1842              		.loc 1 249 5 discriminator 3 view .LVU454
 1843 004c 142B     		cmp	r3, #20
 1844 004e 28BF     		it	cs
 1845 0050 1423     		movcs	r3, #20
 1846 0052 1A46     		mov	r2, r3
 1847 0054 1D4B     		ldr	r3, .L123+12
 1848 0056 0093     		str	r3, [sp]
 1849 0058 1D4B     		ldr	r3, .L123+16
 1850 005a 1E49     		ldr	r1, .L123+20
 1851 005c 51F82220 		ldr	r2, [r1, r2, lsl #2]
 1852 0060 1D49     		ldr	r1, .L123+24
 1853 0062 8968     		ldr	r1, [r1, #8]
 1854 0064 1D48     		ldr	r0, .L123+28
 1855              	.LVL225:
 249:../switch_sdk/core/fal/tiger/fal_tiger_ctrlpkt.c ****     CMM_ERR_CHK(HAL_TBL_REG_READ(unit, L2_ND_PER_PORT_CTRLm, 0, sizeof(l2_nd_per_port_ctrl_t), &ent
 1856              		.loc 1 249 5 is_stmt 0 discriminator 3 view .LVU455
 1857 0066 FFF7FEFF 		bl	osal_printf
 1858              	.LVL226:
 1859 006a EAE7     		b	.L114
 1860              	.LVL227:
 1861              	.L113:
 249:../switch_sdk/core/fal/tiger/fal_tiger_ctrlpkt.c ****     CMM_ERR_CHK(HAL_TBL_REG_READ(unit, L2_ND_PER_PORT_CTRLm, 0, sizeof(l2_nd_per_port_ctrl_t), &ent
 1862              		.loc 1 249 5 discriminator 3 view .LVU456
 1863              	.LBE23:
 249:../switch_sdk/core/fal/tiger/fal_tiger_ctrlpkt.c ****     CMM_ERR_CHK(HAL_TBL_REG_READ(unit, L2_ND_PER_PORT_CTRLm, 0, sizeof(l2_nd_per_port_ctrl_t), &ent
 1864              		.loc 1 249 5 is_stmt 1 discriminator 2 view .LVU457
 251:../switch_sdk/core/fal/tiger/fal_tiger_ctrlpkt.c ****     HAL_FIELD_GET(L2_ND_PER_PORT_CTRLm, L2_ND_PER_PORT_CTRL_DROPf, &entry, &dropMask);
 1865              		.loc 1 251 5 discriminator 2 view .LVU458
 1866              	.LBB24:
 251:../switch_sdk/core/fal/tiger/fal_tiger_ctrlpkt.c ****     HAL_FIELD_GET(L2_ND_PER_PORT_CTRLm, L2_ND_PER_PORT_CTRL_DROPf, &entry, &dropMask);
 1867              		.loc 1 251 5 discriminator 2 view .LVU459
 251:../switch_sdk/core/fal/tiger/fal_tiger_ctrlpkt.c ****     HAL_FIELD_GET(L2_ND_PER_PORT_CTRLm, L2_ND_PER_PORT_CTRL_DROPf, &entry, &dropMask);
 1868              		.loc 1 251 5 discriminator 2 view .LVU460
 1869 006c 02AB     		add	r3, sp, #8
 1870 006e 03AA     		add	r2, sp, #12
 1871 0070 0121     		movs	r1, #1
 1872 0072 7520     		movs	r0, #117
 1873              	.LVL228:
 251:../switch_sdk/core/fal/tiger/fal_tiger_ctrlpkt.c ****     HAL_FIELD_GET(L2_ND_PER_PORT_CTRLm, L2_ND_PER_PORT_CTRL_DROPf, &entry, &dropMask);
 1874              		.loc 1 251 5 is_stmt 0 discriminator 2 view .LVU461
 1875 0074 FFF7FEFF 		bl	hal_tbl_reg_field_get
 1876              	.LVL229:
 251:../switch_sdk/core/fal/tiger/fal_tiger_ctrlpkt.c ****     HAL_FIELD_GET(L2_ND_PER_PORT_CTRLm, L2_ND_PER_PORT_CTRL_DROPf, &entry, &dropMask);
 1877              		.loc 1 251 5 is_stmt 1 discriminator 2 view .LVU462
 1878 0078 029C     		ldr	r4, [sp, #8]
 1879              	.LVL230:
 251:../switch_sdk/core/fal/tiger/fal_tiger_ctrlpkt.c ****     HAL_FIELD_GET(L2_ND_PER_PORT_CTRLm, L2_ND_PER_PORT_CTRL_DROPf, &entry, &dropMask);
 1880              		.loc 1 251 5 is_stmt 0 discriminator 2 view .LVU463
 1881              	.LBE24:
 251:../switch_sdk/core/fal/tiger/fal_tiger_ctrlpkt.c ****     HAL_FIELD_GET(L2_ND_PER_PORT_CTRLm, L2_ND_PER_PORT_CTRL_DROPf, &entry, &dropMask);
 1882              		.loc 1 251 5 is_stmt 1 discriminator 2 view .LVU464
 252:../switch_sdk/core/fal/tiger/fal_tiger_ctrlpkt.c **** 
 1883              		.loc 1 252 5 discriminator 2 view .LVU465
 1884              	.LBB25:
 252:../switch_sdk/core/fal/tiger/fal_tiger_ctrlpkt.c **** 
 1885              		.loc 1 252 5 discriminator 2 view .LVU466
 252:../switch_sdk/core/fal/tiger/fal_tiger_ctrlpkt.c **** 
 1886              		.loc 1 252 5 discriminator 2 view .LVU467
 1887 007a 02AB     		add	r3, sp, #8
 1888 007c 03AA     		add	r2, sp, #12
 1889 007e 0021     		movs	r1, #0
 1890 0080 7520     		movs	r0, #117
 1891 0082 FFF7FEFF 		bl	hal_tbl_reg_field_get
 1892              	.LVL231:
 252:../switch_sdk/core/fal/tiger/fal_tiger_ctrlpkt.c **** 
 1893              		.loc 1 252 5 discriminator 2 view .LVU468
 1894 0086 029B     		ldr	r3, [sp, #8]
 1895              	.LVL232:
 252:../switch_sdk/core/fal/tiger/fal_tiger_ctrlpkt.c **** 
 1896              		.loc 1 252 5 is_stmt 0 discriminator 2 view .LVU469
 1897              	.LBE25:
 252:../switch_sdk/core/fal/tiger/fal_tiger_ctrlpkt.c **** 
 1898              		.loc 1 252 5 is_stmt 1 discriminator 2 view .LVU470
 254:../switch_sdk/core/fal/tiger/fal_tiger_ctrlpkt.c ****     {
 1899              		.loc 1 254 5 discriminator 2 view .LVU471
 254:../switch_sdk/core/fal/tiger/fal_tiger_ctrlpkt.c ****     {
 1900              		.loc 1 254 9 is_stmt 0 discriminator 2 view .LVU472
 1901 0088 24FA06F0 		lsr	r0, r4, r6
 254:../switch_sdk/core/fal/tiger/fal_tiger_ctrlpkt.c ****     {
 1902              		.loc 1 254 8 discriminator 2 view .LVU473
 1903 008c 10F00100 		ands	r0, r0, #1
 1904 0090 0AD0     		beq	.L116
 256:../switch_sdk/core/fal/tiger/fal_tiger_ctrlpkt.c ****         {
 1905              		.loc 1 256 9 is_stmt 1 view .LVU474
 256:../switch_sdk/core/fal/tiger/fal_tiger_ctrlpkt.c ****         {
 1906              		.loc 1 256 13 is_stmt 0 view .LVU475
 1907 0092 F340     		lsrs	r3, r3, r6
 1908              	.LVL233:
 256:../switch_sdk/core/fal/tiger/fal_tiger_ctrlpkt.c ****         {
 1909              		.loc 1 256 12 view .LVU476
 1910 0094 13F00100 		ands	r0, r3, #1
 1911 0098 03D0     		beq	.L117
 258:../switch_sdk/core/fal/tiger/fal_tiger_ctrlpkt.c ****         }
 1912              		.loc 1 258 13 is_stmt 1 view .LVU477
 258:../switch_sdk/core/fal/tiger/fal_tiger_ctrlpkt.c ****         }
 1913              		.loc 1 258 24 is_stmt 0 view .LVU478
 1914 009a 0123     		movs	r3, #1
 1915 009c 2B70     		strb	r3, [r5]
 1916              	.LVL234:
 277:../switch_sdk/core/fal/tiger/fal_tiger_ctrlpkt.c **** }
 1917              		.loc 1 277 12 view .LVU479
 1918 009e 0020     		movs	r0, #0
 1919 00a0 D0E7     		b	.L111
 1920              	.LVL235:
 1921              	.L117:
 262:../switch_sdk/core/fal/tiger/fal_tiger_ctrlpkt.c ****         }
 1922              		.loc 1 262 13 is_stmt 1 view .LVU480
 262:../switch_sdk/core/fal/tiger/fal_tiger_ctrlpkt.c ****         }
 1923              		.loc 1 262 24 is_stmt 0 view .LVU481
 1924 00a2 0323     		movs	r3, #3
 1925 00a4 2B70     		strb	r3, [r5]
 1926              	.LVL236:
 262:../switch_sdk/core/fal/tiger/fal_tiger_ctrlpkt.c ****         }
 1927              		.loc 1 262 24 view .LVU482
 1928 00a6 CDE7     		b	.L111
 1929              	.LVL237:
 1930              	.L116:
 267:../switch_sdk/core/fal/tiger/fal_tiger_ctrlpkt.c ****         {
 1931              		.loc 1 267 9 is_stmt 1 view .LVU483
 267:../switch_sdk/core/fal/tiger/fal_tiger_ctrlpkt.c ****         {
 1932              		.loc 1 267 13 is_stmt 0 view .LVU484
 1933 00a8 F340     		lsrs	r3, r3, r6
 1934              	.LVL238:
 267:../switch_sdk/core/fal/tiger/fal_tiger_ctrlpkt.c ****         {
 1935              		.loc 1 267 12 view .LVU485
 1936 00aa 13F00103 		ands	r3, r3, #1
 1937 00ae 02D0     		beq	.L118
 269:../switch_sdk/core/fal/tiger/fal_tiger_ctrlpkt.c ****         }
 1938              		.loc 1 269 13 is_stmt 1 view .LVU486
 269:../switch_sdk/core/fal/tiger/fal_tiger_ctrlpkt.c ****         }
 1939              		.loc 1 269 24 is_stmt 0 view .LVU487
 1940 00b0 0223     		movs	r3, #2
 1941 00b2 2B70     		strb	r3, [r5]
 1942              	.LVL239:
 269:../switch_sdk/core/fal/tiger/fal_tiger_ctrlpkt.c ****         }
 1943              		.loc 1 269 24 view .LVU488
 1944 00b4 C6E7     		b	.L111
 1945              	.LVL240:
 1946              	.L118:
 273:../switch_sdk/core/fal/tiger/fal_tiger_ctrlpkt.c ****         }
 1947              		.loc 1 273 13 is_stmt 1 view .LVU489
 273:../switch_sdk/core/fal/tiger/fal_tiger_ctrlpkt.c ****         }
 1948              		.loc 1 273 24 is_stmt 0 view .LVU490
 1949 00b6 0022     		movs	r2, #0
 1950 00b8 2A70     		strb	r2, [r5]
 1951              	.LVL241:
 277:../switch_sdk/core/fal/tiger/fal_tiger_ctrlpkt.c **** }
 1952              		.loc 1 277 12 view .LVU491
 1953 00ba 1846     		mov	r0, r3
 1954 00bc C2E7     		b	.L111
 1955              	.L124:
 1956 00be 00BF     		.align	2
 1957              	.L123:
 1958 00c0 00000000 		.word	gcal_inited
 1959 00c4 00000000 		.word	gpSwitchUnit
 1960 00c8 00000000 		.word	yt_debug_level
 1961 00cc 00000000 		.word	__FUNCTION__.4
 1962 00d0 00000000 		.word	.LC7
 1963 00d4 00000000 		.word	_yt_errmsg
 1964 00d8 00000000 		.word	_yt_prompt_msg
 1965 00dc 48000000 		.word	.LC1
 1966              		.cfi_endproc
 1967              	.LFE10:
 1969              		.section	.rodata.fal_tiger_ctrlpkt_lldp_eee_act_set.str1.4,"aMS",%progbits,1
 1970              		.align	2
 1971              	.LC9:
 1972 0000 68616C5F 		.ascii	"hal_table_reg_read(unit,118,0,sizeof(l2_lldp_eee_pe"
 1972      7461626C 
 1972      655F7265 
 1972      675F7265 
 1972      61642875 
 1973 0033 725F706F 		.ascii	"r_port_ctrl_t),&entry)\000"
 1973      72745F63 
 1973      74726C5F 
 1973      74292C26 
 1973      656E7472 
 1974 004a 0000     		.align	2
 1975              	.LC10:
 1976 004c 68616C5F 		.ascii	"hal_table_reg_write(unit,118,0,sizeof(l2_lldp_eee_p"
 1976      7461626C 
 1976      655F7265 
 1976      675F7772 
 1976      69746528 
 1977 007f 65725F70 		.ascii	"er_port_ctrl_t),&entry)\000"
 1977      6F72745F 
 1977      6374726C 
 1977      5F74292C 
 1977      26656E74 
 1978              		.section	.text.fal_tiger_ctrlpkt_lldp_eee_act_set,"ax",%progbits
 1979              		.align	1
 1980              		.global	fal_tiger_ctrlpkt_lldp_eee_act_set
 1981              		.syntax unified
 1982              		.thumb
 1983              		.thumb_func
 1985              	fal_tiger_ctrlpkt_lldp_eee_act_set:
 1986              	.LVL242:
 1987              	.LFB11:
 279:../switch_sdk/core/fal/tiger/fal_tiger_ctrlpkt.c **** 
 280:../switch_sdk/core/fal/tiger/fal_tiger_ctrlpkt.c **** yt_ret_t fal_tiger_ctrlpkt_lldp_eee_act_set(yt_unit_t unit, yt_port_t port, yt_ctrlpkt_l2_action_t 
 281:../switch_sdk/core/fal/tiger/fal_tiger_ctrlpkt.c **** {
 1988              		.loc 1 281 1 is_stmt 1 view -0
 1989              		.cfi_startproc
 1990              		@ args = 0, pretend = 0, frame = 8
 1991              		@ frame_needed = 0, uses_anonymous_args = 0
 1992              		.loc 1 281 1 is_stmt 0 view .LVU493
 1993 0000 F0B5     		push	{r4, r5, r6, r7, lr}
 1994              		.cfi_def_cfa_offset 20
 1995              		.cfi_offset 4, -20
 1996              		.cfi_offset 5, -16
 1997              		.cfi_offset 6, -12
 1998              		.cfi_offset 7, -8
 1999              		.cfi_offset 14, -4
 2000 0002 85B0     		sub	sp, sp, #20
 2001              		.cfi_def_cfa_offset 40
 2002 0004 0546     		mov	r5, r0
 2003 0006 1646     		mov	r6, r2
 282:../switch_sdk/core/fal/tiger/fal_tiger_ctrlpkt.c ****     l2_lldp_eee_per_port_ctrl_t entry;
 2004              		.loc 1 282 5 is_stmt 1 view .LVU494
 283:../switch_sdk/core/fal/tiger/fal_tiger_ctrlpkt.c ****     yt_macid_t macid;
 2005              		.loc 1 283 5 view .LVU495
 284:../switch_sdk/core/fal/tiger/fal_tiger_ctrlpkt.c ****     uint32_t copyMask;
 2006              		.loc 1 284 5 view .LVU496
 285:../switch_sdk/core/fal/tiger/fal_tiger_ctrlpkt.c ****     uint32_t dropMask;
 2007              		.loc 1 285 5 view .LVU497
 286:../switch_sdk/core/fal/tiger/fal_tiger_ctrlpkt.c ****     cmm_err_t ret = CMM_ERR_OK;
 2008              		.loc 1 286 5 view .LVU498
 2009              	.LVL243:
 287:../switch_sdk/core/fal/tiger/fal_tiger_ctrlpkt.c **** 
 288:../switch_sdk/core/fal/tiger/fal_tiger_ctrlpkt.c ****     macid = CAL_YTP_TO_MAC(unit,port);
 2010              		.loc 1 288 5 view .LVU499
 2011              		.loc 1 288 13 is_stmt 0 view .LVU500
 2012 0008 494B     		ldr	r3, .L145
 2013 000a 1B78     		ldrb	r3, [r3]	@ zero_extendqisi2
 2014 000c 53B1     		cbz	r3, .L137
 2015              		.loc 1 288 13 discriminator 1 view .LVU501
 2016 000e 494B     		ldr	r3, .L145+4
 2017 0010 53F82030 		ldr	r3, [r3, r0, lsl #2]
 2018 0014 1A7D     		ldrb	r2, [r3, #20]	@ zero_extendqisi2
 2019              	.LVL244:
 2020              		.loc 1 288 13 discriminator 1 view .LVU502
 2021 0016 8A42     		cmp	r2, r1
 2022 0018 18D9     		bls	.L138
 2023              		.loc 1 288 13 discriminator 3 view .LVU503
 2024 001a 0631     		adds	r1, r1, #6
 2025              	.LVL245:
 2026              		.loc 1 288 13 discriminator 3 view .LVU504
 2027 001c 53F82130 		ldr	r3, [r3, r1, lsl #2]
 2028 0020 1F78     		ldrb	r7, [r3]	@ zero_extendqisi2
 2029 0022 00E0     		b	.L126
 2030              	.LVL246:
 2031              	.L137:
 2032              		.loc 1 288 13 view .LVU505
 2033 0024 FF27     		movs	r7, #255
 2034              	.LVL247:
 2035              	.L126:
 289:../switch_sdk/core/fal/tiger/fal_tiger_ctrlpkt.c **** 
 290:../switch_sdk/core/fal/tiger/fal_tiger_ctrlpkt.c ****     CMM_ERR_CHK(HAL_TBL_REG_READ(unit, L2_LLDP_EEE_PER_PORT_CTRLm, 0, sizeof(l2_lldp_eee_per_port_c
 2036              		.loc 1 290 5 is_stmt 1 discriminator 6 view .LVU506
 2037              		.loc 1 290 5 discriminator 6 view .LVU507
 2038 0026 03AA     		add	r2, sp, #12
 2039 0028 0092     		str	r2, [sp]
 2040 002a 0423     		movs	r3, #4
 2041 002c 0022     		movs	r2, #0
 2042 002e 7621     		movs	r1, #118
 2043 0030 2846     		mov	r0, r5
 2044              	.LVL248:
 2045              		.loc 1 290 5 is_stmt 0 discriminator 6 view .LVU508
 2046 0032 FFF7FEFF 		bl	hal_table_reg_read
 2047              	.LVL249:
 2048 0036 0446     		mov	r4, r0
 2049              	.LVL250:
 2050              		.loc 1 290 5 discriminator 6 view .LVU509
 2051 0038 10F0FF03 		ands	r3, r0, #255
 2052 003c 18D0     		beq	.L127
 2053              		.loc 1 290 5 is_stmt 1 discriminator 1 view .LVU510
 2054              		.loc 1 290 5 discriminator 1 view .LVU511
 2055 003e 3E4A     		ldr	r2, .L145+8
 2056 0040 1278     		ldrb	r2, [r2]	@ zero_extendqisi2
 2057 0042 012A     		cmp	r2, #1
 2058 0044 04D8     		bhi	.L142
 2059              	.LVL251:
 2060              	.L128:
 2061              		.loc 1 290 5 discriminator 5 view .LVU512
 2062              		.loc 1 290 5 discriminator 5 view .LVU513
 2063              		.loc 1 290 5 discriminator 5 view .LVU514
 2064 0046 E0B2     		uxtb	r0, r4
 2065              	.LVL252:
 2066              	.L125:
 291:../switch_sdk/core/fal/tiger/fal_tiger_ctrlpkt.c ****     HAL_FIELD_GET(L2_LLDP_EEE_PER_PORT_CTRLm, L2_LLDP_EEE_PER_PORT_CTRL_COPY_TO_CPUf, &entry, &copy
 292:../switch_sdk/core/fal/tiger/fal_tiger_ctrlpkt.c ****     HAL_FIELD_GET(L2_LLDP_EEE_PER_PORT_CTRLm, L2_LLDP_EEE_PER_PORT_CTRL_DROPf, &entry, &dropMask);
 293:../switch_sdk/core/fal/tiger/fal_tiger_ctrlpkt.c **** 
 294:../switch_sdk/core/fal/tiger/fal_tiger_ctrlpkt.c ****     switch(act_ctrl)
 295:../switch_sdk/core/fal/tiger/fal_tiger_ctrlpkt.c ****     {
 296:../switch_sdk/core/fal/tiger/fal_tiger_ctrlpkt.c ****         case L2_ACTION_FWD:
 297:../switch_sdk/core/fal/tiger/fal_tiger_ctrlpkt.c ****             copyMask = (uint32_t)CLR_FIELD(copyMask, macid, 1);
 298:../switch_sdk/core/fal/tiger/fal_tiger_ctrlpkt.c ****             dropMask = (uint32_t)CLR_FIELD(dropMask, macid, 1);
 299:../switch_sdk/core/fal/tiger/fal_tiger_ctrlpkt.c ****             break;
 300:../switch_sdk/core/fal/tiger/fal_tiger_ctrlpkt.c **** 
 301:../switch_sdk/core/fal/tiger/fal_tiger_ctrlpkt.c ****         case L2_ACTION_TRAP:
 302:../switch_sdk/core/fal/tiger/fal_tiger_ctrlpkt.c ****             copyMask |= (uint32_t)(1UL<<macid);
 303:../switch_sdk/core/fal/tiger/fal_tiger_ctrlpkt.c ****             dropMask |= (uint32_t)(1UL<<macid);
 304:../switch_sdk/core/fal/tiger/fal_tiger_ctrlpkt.c ****             break;
 305:../switch_sdk/core/fal/tiger/fal_tiger_ctrlpkt.c **** 
 306:../switch_sdk/core/fal/tiger/fal_tiger_ctrlpkt.c ****         case L2_ACTION_DROP:
 307:../switch_sdk/core/fal/tiger/fal_tiger_ctrlpkt.c ****             copyMask = (uint32_t)CLR_FIELD(copyMask, macid, 1);
 308:../switch_sdk/core/fal/tiger/fal_tiger_ctrlpkt.c ****             dropMask |= (uint32_t)(1UL<<macid);
 309:../switch_sdk/core/fal/tiger/fal_tiger_ctrlpkt.c ****             break;
 310:../switch_sdk/core/fal/tiger/fal_tiger_ctrlpkt.c **** 
 311:../switch_sdk/core/fal/tiger/fal_tiger_ctrlpkt.c ****         case L2_ACTION_COPY:
 312:../switch_sdk/core/fal/tiger/fal_tiger_ctrlpkt.c ****             copyMask |= (uint32_t)(1UL<<macid);
 313:../switch_sdk/core/fal/tiger/fal_tiger_ctrlpkt.c ****             dropMask = (uint32_t)CLR_FIELD(dropMask, macid, 1);;
 314:../switch_sdk/core/fal/tiger/fal_tiger_ctrlpkt.c ****             break;
 315:../switch_sdk/core/fal/tiger/fal_tiger_ctrlpkt.c **** 
 316:../switch_sdk/core/fal/tiger/fal_tiger_ctrlpkt.c ****         default:
 317:../switch_sdk/core/fal/tiger/fal_tiger_ctrlpkt.c ****             return CMM_ERR_NOT_SUPPORT;
 318:../switch_sdk/core/fal/tiger/fal_tiger_ctrlpkt.c ****     }
 319:../switch_sdk/core/fal/tiger/fal_tiger_ctrlpkt.c ****     
 320:../switch_sdk/core/fal/tiger/fal_tiger_ctrlpkt.c ****     HAL_FIELD_SET(L2_LLDP_EEE_PER_PORT_CTRLm, L2_LLDP_EEE_PER_PORT_CTRL_COPY_TO_CPUf, &entry, copyM
 321:../switch_sdk/core/fal/tiger/fal_tiger_ctrlpkt.c ****     HAL_FIELD_SET(L2_LLDP_EEE_PER_PORT_CTRLm, L2_LLDP_EEE_PER_PORT_CTRL_DROPf, &entry, dropMask);
 322:../switch_sdk/core/fal/tiger/fal_tiger_ctrlpkt.c ****     
 323:../switch_sdk/core/fal/tiger/fal_tiger_ctrlpkt.c ****     CMM_ERR_CHK(HAL_TBL_REG_WRITE(unit, L2_LLDP_EEE_PER_PORT_CTRLm, 0, sizeof(l2_lldp_eee_per_port_
 324:../switch_sdk/core/fal/tiger/fal_tiger_ctrlpkt.c ****     
 325:../switch_sdk/core/fal/tiger/fal_tiger_ctrlpkt.c ****     return CMM_ERR_OK;
 326:../switch_sdk/core/fal/tiger/fal_tiger_ctrlpkt.c **** }
 2067              		.loc 1 326 1 is_stmt 0 view .LVU515
 2068 0048 05B0     		add	sp, sp, #20
 2069              		.cfi_remember_state
 2070              		.cfi_def_cfa_offset 20
 2071              		@ sp needed
 2072 004a F0BD     		pop	{r4, r5, r6, r7, pc}
 2073              	.LVL253:
 2074              	.L138:
 2075              		.cfi_restore_state
 288:../switch_sdk/core/fal/tiger/fal_tiger_ctrlpkt.c **** 
 2076              		.loc 1 288 13 view .LVU516
 2077 004c FF27     		movs	r7, #255
 2078 004e EAE7     		b	.L126
 2079              	.LVL254:
 2080              	.L142:
 290:../switch_sdk/core/fal/tiger/fal_tiger_ctrlpkt.c ****     HAL_FIELD_GET(L2_LLDP_EEE_PER_PORT_CTRLm, L2_LLDP_EEE_PER_PORT_CTRL_COPY_TO_CPUf, &entry, &copy
 2081              		.loc 1 290 5 is_stmt 1 discriminator 3 view .LVU517
 2082              	.LBB26:
 290:../switch_sdk/core/fal/tiger/fal_tiger_ctrlpkt.c ****     HAL_FIELD_GET(L2_LLDP_EEE_PER_PORT_CTRLm, L2_LLDP_EEE_PER_PORT_CTRL_COPY_TO_CPUf, &entry, &copy
 2083              		.loc 1 290 5 discriminator 3 view .LVU518
 2084 0050 142B     		cmp	r3, #20
 2085 0052 28BF     		it	cs
 2086 0054 1423     		movcs	r3, #20
 2087 0056 1A46     		mov	r2, r3
 2088 0058 384B     		ldr	r3, .L145+12
 2089 005a 0093     		str	r3, [sp]
 2090 005c 384B     		ldr	r3, .L145+16
 2091 005e 3949     		ldr	r1, .L145+20
 2092 0060 51F82220 		ldr	r2, [r1, r2, lsl #2]
 2093 0064 3849     		ldr	r1, .L145+24
 2094 0066 8968     		ldr	r1, [r1, #8]
 2095 0068 3848     		ldr	r0, .L145+28
 2096              	.LVL255:
 290:../switch_sdk/core/fal/tiger/fal_tiger_ctrlpkt.c ****     HAL_FIELD_GET(L2_LLDP_EEE_PER_PORT_CTRLm, L2_LLDP_EEE_PER_PORT_CTRL_COPY_TO_CPUf, &entry, &copy
 2097              		.loc 1 290 5 is_stmt 0 discriminator 3 view .LVU519
 2098 006a FFF7FEFF 		bl	osal_printf
 2099              	.LVL256:
 2100 006e EAE7     		b	.L128
 2101              	.LVL257:
 2102              	.L127:
 290:../switch_sdk/core/fal/tiger/fal_tiger_ctrlpkt.c ****     HAL_FIELD_GET(L2_LLDP_EEE_PER_PORT_CTRLm, L2_LLDP_EEE_PER_PORT_CTRL_COPY_TO_CPUf, &entry, &copy
 2103              		.loc 1 290 5 discriminator 3 view .LVU520
 2104              	.LBE26:
 290:../switch_sdk/core/fal/tiger/fal_tiger_ctrlpkt.c ****     HAL_FIELD_GET(L2_LLDP_EEE_PER_PORT_CTRLm, L2_LLDP_EEE_PER_PORT_CTRL_COPY_TO_CPUf, &entry, &copy
 2105              		.loc 1 290 5 is_stmt 1 discriminator 2 view .LVU521
 291:../switch_sdk/core/fal/tiger/fal_tiger_ctrlpkt.c ****     HAL_FIELD_GET(L2_LLDP_EEE_PER_PORT_CTRLm, L2_LLDP_EEE_PER_PORT_CTRL_COPY_TO_CPUf, &entry, &copy
 2106              		.loc 1 291 5 discriminator 2 view .LVU522
 2107              	.LBB27:
 291:../switch_sdk/core/fal/tiger/fal_tiger_ctrlpkt.c ****     HAL_FIELD_GET(L2_LLDP_EEE_PER_PORT_CTRLm, L2_LLDP_EEE_PER_PORT_CTRL_COPY_TO_CPUf, &entry, &copy
 2108              		.loc 1 291 5 discriminator 2 view .LVU523
 291:../switch_sdk/core/fal/tiger/fal_tiger_ctrlpkt.c ****     HAL_FIELD_GET(L2_LLDP_EEE_PER_PORT_CTRLm, L2_LLDP_EEE_PER_PORT_CTRL_COPY_TO_CPUf, &entry, &copy
 2109              		.loc 1 291 5 discriminator 2 view .LVU524
 2110 0070 02AB     		add	r3, sp, #8
 2111 0072 03AA     		add	r2, sp, #12
 2112 0074 0121     		movs	r1, #1
 2113 0076 7620     		movs	r0, #118
 2114              	.LVL258:
 291:../switch_sdk/core/fal/tiger/fal_tiger_ctrlpkt.c ****     HAL_FIELD_GET(L2_LLDP_EEE_PER_PORT_CTRLm, L2_LLDP_EEE_PER_PORT_CTRL_COPY_TO_CPUf, &entry, &copy
 2115              		.loc 1 291 5 is_stmt 0 discriminator 2 view .LVU525
 2116 0078 FFF7FEFF 		bl	hal_tbl_reg_field_get
 2117              	.LVL259:
 291:../switch_sdk/core/fal/tiger/fal_tiger_ctrlpkt.c ****     HAL_FIELD_GET(L2_LLDP_EEE_PER_PORT_CTRLm, L2_LLDP_EEE_PER_PORT_CTRL_COPY_TO_CPUf, &entry, &copy
 2118              		.loc 1 291 5 is_stmt 1 discriminator 2 view .LVU526
 2119 007c 029C     		ldr	r4, [sp, #8]
 2120              	.LVL260:
 291:../switch_sdk/core/fal/tiger/fal_tiger_ctrlpkt.c ****     HAL_FIELD_GET(L2_LLDP_EEE_PER_PORT_CTRLm, L2_LLDP_EEE_PER_PORT_CTRL_COPY_TO_CPUf, &entry, &copy
 2121              		.loc 1 291 5 is_stmt 0 discriminator 2 view .LVU527
 2122              	.LBE27:
 291:../switch_sdk/core/fal/tiger/fal_tiger_ctrlpkt.c ****     HAL_FIELD_GET(L2_LLDP_EEE_PER_PORT_CTRLm, L2_LLDP_EEE_PER_PORT_CTRL_COPY_TO_CPUf, &entry, &copy
 2123              		.loc 1 291 5 is_stmt 1 discriminator 2 view .LVU528
 292:../switch_sdk/core/fal/tiger/fal_tiger_ctrlpkt.c **** 
 2124              		.loc 1 292 5 discriminator 2 view .LVU529
 2125              	.LBB28:
 292:../switch_sdk/core/fal/tiger/fal_tiger_ctrlpkt.c **** 
 2126              		.loc 1 292 5 discriminator 2 view .LVU530
 292:../switch_sdk/core/fal/tiger/fal_tiger_ctrlpkt.c **** 
 2127              		.loc 1 292 5 discriminator 2 view .LVU531
 2128 007e 02AB     		add	r3, sp, #8
 2129 0080 03AA     		add	r2, sp, #12
 2130 0082 0021     		movs	r1, #0
 2131 0084 7620     		movs	r0, #118
 2132 0086 FFF7FEFF 		bl	hal_tbl_reg_field_get
 2133              	.LVL261:
 292:../switch_sdk/core/fal/tiger/fal_tiger_ctrlpkt.c **** 
 2134              		.loc 1 292 5 discriminator 2 view .LVU532
 2135 008a 029A     		ldr	r2, [sp, #8]
 2136              	.LVL262:
 292:../switch_sdk/core/fal/tiger/fal_tiger_ctrlpkt.c **** 
 2137              		.loc 1 292 5 is_stmt 0 discriminator 2 view .LVU533
 2138              	.LBE28:
 292:../switch_sdk/core/fal/tiger/fal_tiger_ctrlpkt.c **** 
 2139              		.loc 1 292 5 is_stmt 1 discriminator 2 view .LVU534
 294:../switch_sdk/core/fal/tiger/fal_tiger_ctrlpkt.c ****     {
 2140              		.loc 1 294 5 discriminator 2 view .LVU535
 2141 008c 032E     		cmp	r6, #3
 2142 008e 4DD8     		bhi	.L139
 2143 0090 DFE806F0 		tbb	[pc, r6]
 2144              	.L131:
 2145 0094 02       		.byte	(.L134-.L131)/2
 2146 0095 21       		.byte	(.L133-.L131)/2
 2147 0096 28       		.byte	(.L132-.L131)/2
 2148 0097 2F       		.byte	(.L130-.L131)/2
 2149              		.p2align 1
 2150              	.L134:
 297:../switch_sdk/core/fal/tiger/fal_tiger_ctrlpkt.c ****             dropMask = (uint32_t)CLR_FIELD(dropMask, macid, 1);
 2151              		.loc 1 297 13 view .LVU536
 297:../switch_sdk/core/fal/tiger/fal_tiger_ctrlpkt.c ****             dropMask = (uint32_t)CLR_FIELD(dropMask, macid, 1);
 2152              		.loc 1 297 34 is_stmt 0 view .LVU537
 2153 0098 0121     		movs	r1, #1
 2154 009a B940     		lsls	r1, r1, r7
 2155 009c 24EA0103 		bic	r3, r4, r1
 2156              	.LVL263:
 298:../switch_sdk/core/fal/tiger/fal_tiger_ctrlpkt.c ****             break;
 2157              		.loc 1 298 13 is_stmt 1 view .LVU538
 298:../switch_sdk/core/fal/tiger/fal_tiger_ctrlpkt.c ****             break;
 2158              		.loc 1 298 34 is_stmt 0 view .LVU539
 2159 00a0 22EA0104 		bic	r4, r2, r1
 2160              	.LVL264:
 299:../switch_sdk/core/fal/tiger/fal_tiger_ctrlpkt.c **** 
 2161              		.loc 1 299 13 is_stmt 1 view .LVU540
 2162              	.L135:
 320:../switch_sdk/core/fal/tiger/fal_tiger_ctrlpkt.c ****     HAL_FIELD_SET(L2_LLDP_EEE_PER_PORT_CTRLm, L2_LLDP_EEE_PER_PORT_CTRL_DROPf, &entry, dropMask);
 2163              		.loc 1 320 5 view .LVU541
 2164 00a4 03AE     		add	r6, sp, #12
 2165 00a6 3246     		mov	r2, r6
 2166 00a8 0121     		movs	r1, #1
 2167 00aa 7620     		movs	r0, #118
 2168 00ac FFF7FEFF 		bl	hal_tbl_reg_field_set
 2169              	.LVL265:
 321:../switch_sdk/core/fal/tiger/fal_tiger_ctrlpkt.c ****     
 2170              		.loc 1 321 5 view .LVU542
 2171 00b0 2346     		mov	r3, r4
 2172 00b2 3246     		mov	r2, r6
 2173 00b4 0021     		movs	r1, #0
 2174 00b6 7620     		movs	r0, #118
 2175 00b8 FFF7FEFF 		bl	hal_tbl_reg_field_set
 2176              	.LVL266:
 323:../switch_sdk/core/fal/tiger/fal_tiger_ctrlpkt.c ****     
 2177              		.loc 1 323 5 view .LVU543
 323:../switch_sdk/core/fal/tiger/fal_tiger_ctrlpkt.c ****     
 2178              		.loc 1 323 5 view .LVU544
 2179 00bc 0096     		str	r6, [sp]
 2180 00be 0423     		movs	r3, #4
 2181 00c0 0022     		movs	r2, #0
 2182 00c2 7621     		movs	r1, #118
 2183 00c4 2846     		mov	r0, r5
 2184 00c6 FFF7FEFF 		bl	hal_table_reg_write
 2185              	.LVL267:
 2186 00ca 0446     		mov	r4, r0
 2187              	.LVL268:
 323:../switch_sdk/core/fal/tiger/fal_tiger_ctrlpkt.c ****     
 2188              		.loc 1 323 5 is_stmt 0 view .LVU545
 2189 00cc 10F0FF03 		ands	r3, r0, #255
 2190 00d0 16D1     		bne	.L143
 325:../switch_sdk/core/fal/tiger/fal_tiger_ctrlpkt.c **** }
 2191              		.loc 1 325 12 view .LVU546
 2192 00d2 0020     		movs	r0, #0
 2193              	.LVL269:
 325:../switch_sdk/core/fal/tiger/fal_tiger_ctrlpkt.c **** }
 2194              		.loc 1 325 12 view .LVU547
 2195 00d4 B8E7     		b	.L125
 2196              	.LVL270:
 2197              	.L133:
 302:../switch_sdk/core/fal/tiger/fal_tiger_ctrlpkt.c ****             dropMask |= (uint32_t)(1UL<<macid);
 2198              		.loc 1 302 13 is_stmt 1 view .LVU548
 302:../switch_sdk/core/fal/tiger/fal_tiger_ctrlpkt.c ****             dropMask |= (uint32_t)(1UL<<macid);
 2199              		.loc 1 302 39 is_stmt 0 view .LVU549
 2200 00d6 0121     		movs	r1, #1
 2201 00d8 B940     		lsls	r1, r1, r7
 302:../switch_sdk/core/fal/tiger/fal_tiger_ctrlpkt.c ****             dropMask |= (uint32_t)(1UL<<macid);
 2202              		.loc 1 302 22 view .LVU550
 2203 00da 44EA0103 		orr	r3, r4, r1
 2204              	.LVL271:
 303:../switch_sdk/core/fal/tiger/fal_tiger_ctrlpkt.c ****             break;
 2205              		.loc 1 303 13 is_stmt 1 view .LVU551
 303:../switch_sdk/core/fal/tiger/fal_tiger_ctrlpkt.c ****             break;
 2206              		.loc 1 303 22 is_stmt 0 view .LVU552
 2207 00de 42EA0104 		orr	r4, r2, r1
 2208              	.LVL272:
 304:../switch_sdk/core/fal/tiger/fal_tiger_ctrlpkt.c **** 
 2209              		.loc 1 304 13 is_stmt 1 view .LVU553
 2210 00e2 DFE7     		b	.L135
 2211              	.LVL273:
 2212              	.L132:
 307:../switch_sdk/core/fal/tiger/fal_tiger_ctrlpkt.c ****             dropMask |= (uint32_t)(1UL<<macid);
 2213              		.loc 1 307 13 view .LVU554
 307:../switch_sdk/core/fal/tiger/fal_tiger_ctrlpkt.c ****             dropMask |= (uint32_t)(1UL<<macid);
 2214              		.loc 1 307 34 is_stmt 0 view .LVU555
 2215 00e4 0121     		movs	r1, #1
 2216 00e6 B940     		lsls	r1, r1, r7
 2217 00e8 24EA0103 		bic	r3, r4, r1
 2218              	.LVL274:
 308:../switch_sdk/core/fal/tiger/fal_tiger_ctrlpkt.c ****             break;
 2219              		.loc 1 308 13 is_stmt 1 view .LVU556
 308:../switch_sdk/core/fal/tiger/fal_tiger_ctrlpkt.c ****             break;
 2220              		.loc 1 308 22 is_stmt 0 view .LVU557
 2221 00ec 42EA0104 		orr	r4, r2, r1
 2222              	.LVL275:
 309:../switch_sdk/core/fal/tiger/fal_tiger_ctrlpkt.c **** 
 2223              		.loc 1 309 13 is_stmt 1 view .LVU558
 2224 00f0 D8E7     		b	.L135
 2225              	.LVL276:
 2226              	.L130:
 312:../switch_sdk/core/fal/tiger/fal_tiger_ctrlpkt.c ****             dropMask = (uint32_t)CLR_FIELD(dropMask, macid, 1);;
 2227              		.loc 1 312 13 view .LVU559
 312:../switch_sdk/core/fal/tiger/fal_tiger_ctrlpkt.c ****             dropMask = (uint32_t)CLR_FIELD(dropMask, macid, 1);;
 2228              		.loc 1 312 39 is_stmt 0 view .LVU560
 2229 00f2 0121     		movs	r1, #1
 2230 00f4 B940     		lsls	r1, r1, r7
 312:../switch_sdk/core/fal/tiger/fal_tiger_ctrlpkt.c ****             dropMask = (uint32_t)CLR_FIELD(dropMask, macid, 1);;
 2231              		.loc 1 312 22 view .LVU561
 2232 00f6 44EA0103 		orr	r3, r4, r1
 2233              	.LVL277:
 313:../switch_sdk/core/fal/tiger/fal_tiger_ctrlpkt.c ****             break;
 2234              		.loc 1 313 13 is_stmt 1 view .LVU562
 313:../switch_sdk/core/fal/tiger/fal_tiger_ctrlpkt.c ****             break;
 2235              		.loc 1 313 34 is_stmt 0 view .LVU563
 2236 00fa 22EA0104 		bic	r4, r2, r1
 2237              	.LVL278:
 313:../switch_sdk/core/fal/tiger/fal_tiger_ctrlpkt.c ****             break;
 2238              		.loc 1 313 64 is_stmt 1 view .LVU564
 314:../switch_sdk/core/fal/tiger/fal_tiger_ctrlpkt.c **** 
 2239              		.loc 1 314 13 view .LVU565
 2240 00fe D1E7     		b	.L135
 2241              	.LVL279:
 2242              	.L143:
 323:../switch_sdk/core/fal/tiger/fal_tiger_ctrlpkt.c ****     
 2243              		.loc 1 323 5 discriminator 1 view .LVU566
 323:../switch_sdk/core/fal/tiger/fal_tiger_ctrlpkt.c ****     
 2244              		.loc 1 323 5 discriminator 1 view .LVU567
 2245 0100 0D4A     		ldr	r2, .L145+8
 2246 0102 1278     		ldrb	r2, [r2]	@ zero_extendqisi2
 2247 0104 012A     		cmp	r2, #1
 2248 0106 01D8     		bhi	.L144
 2249              	.LVL280:
 2250              	.L136:
 323:../switch_sdk/core/fal/tiger/fal_tiger_ctrlpkt.c ****     
 2251              		.loc 1 323 5 discriminator 5 view .LVU568
 323:../switch_sdk/core/fal/tiger/fal_tiger_ctrlpkt.c ****     
 2252              		.loc 1 323 5 discriminator 5 view .LVU569
 323:../switch_sdk/core/fal/tiger/fal_tiger_ctrlpkt.c ****     
 2253              		.loc 1 323 5 discriminator 5 view .LVU570
 2254 0108 E0B2     		uxtb	r0, r4
 2255 010a 9DE7     		b	.L125
 2256              	.LVL281:
 2257              	.L144:
 323:../switch_sdk/core/fal/tiger/fal_tiger_ctrlpkt.c ****     
 2258              		.loc 1 323 5 discriminator 3 view .LVU571
 2259              	.LBB29:
 323:../switch_sdk/core/fal/tiger/fal_tiger_ctrlpkt.c ****     
 2260              		.loc 1 323 5 discriminator 3 view .LVU572
 2261 010c 142B     		cmp	r3, #20
 2262 010e 28BF     		it	cs
 2263 0110 1423     		movcs	r3, #20
 2264 0112 1A46     		mov	r2, r3
 2265 0114 094B     		ldr	r3, .L145+12
 2266 0116 0093     		str	r3, [sp]
 2267 0118 0D4B     		ldr	r3, .L145+32
 2268 011a 0A49     		ldr	r1, .L145+20
 2269 011c 51F82220 		ldr	r2, [r1, r2, lsl #2]
 2270 0120 0949     		ldr	r1, .L145+24
 2271 0122 8968     		ldr	r1, [r1, #8]
 2272 0124 0948     		ldr	r0, .L145+28
 2273              	.LVL282:
 323:../switch_sdk/core/fal/tiger/fal_tiger_ctrlpkt.c ****     
 2274              		.loc 1 323 5 is_stmt 0 discriminator 3 view .LVU573
 2275 0126 FFF7FEFF 		bl	osal_printf
 2276              	.LVL283:
 2277 012a EDE7     		b	.L136
 2278              	.LVL284:
 2279              	.L139:
 323:../switch_sdk/core/fal/tiger/fal_tiger_ctrlpkt.c ****     
 2280              		.loc 1 323 5 discriminator 3 view .LVU574
 2281              	.LBE29:
 294:../switch_sdk/core/fal/tiger/fal_tiger_ctrlpkt.c ****     {
 2282              		.loc 1 294 5 view .LVU575
 2283 012c 0320     		movs	r0, #3
 2284 012e 8BE7     		b	.L125
 2285              	.L146:
 2286              		.align	2
 2287              	.L145:
 2288 0130 00000000 		.word	gcal_inited
 2289 0134 00000000 		.word	gpSwitchUnit
 2290 0138 00000000 		.word	yt_debug_level
 2291 013c 00000000 		.word	__FUNCTION__.3
 2292 0140 00000000 		.word	.LC9
 2293 0144 00000000 		.word	_yt_errmsg
 2294 0148 00000000 		.word	_yt_prompt_msg
 2295 014c 48000000 		.word	.LC1
 2296 0150 4C000000 		.word	.LC10
 2297              		.cfi_endproc
 2298              	.LFE11:
 2300              		.section	.text.fal_tiger_ctrlpkt_lldp_eee_act_get,"ax",%progbits
 2301              		.align	1
 2302              		.global	fal_tiger_ctrlpkt_lldp_eee_act_get
 2303              		.syntax unified
 2304              		.thumb
 2305              		.thumb_func
 2307              	fal_tiger_ctrlpkt_lldp_eee_act_get:
 2308              	.LVL285:
 2309              	.LFB12:
 327:../switch_sdk/core/fal/tiger/fal_tiger_ctrlpkt.c **** 
 328:../switch_sdk/core/fal/tiger/fal_tiger_ctrlpkt.c **** yt_ret_t fal_tiger_ctrlpkt_lldp_eee_act_get(yt_unit_t unit, yt_port_t port, yt_ctrlpkt_l2_action_t 
 329:../switch_sdk/core/fal/tiger/fal_tiger_ctrlpkt.c **** {
 2310              		.loc 1 329 1 is_stmt 1 view -0
 2311              		.cfi_startproc
 2312              		@ args = 0, pretend = 0, frame = 8
 2313              		@ frame_needed = 0, uses_anonymous_args = 0
 2314              		.loc 1 329 1 is_stmt 0 view .LVU577
 2315 0000 70B5     		push	{r4, r5, r6, lr}
 2316              		.cfi_def_cfa_offset 16
 2317              		.cfi_offset 4, -16
 2318              		.cfi_offset 5, -12
 2319              		.cfi_offset 6, -8
 2320              		.cfi_offset 14, -4
 2321 0002 84B0     		sub	sp, sp, #16
 2322              		.cfi_def_cfa_offset 32
 2323 0004 1546     		mov	r5, r2
 330:../switch_sdk/core/fal/tiger/fal_tiger_ctrlpkt.c ****     l2_lldp_eee_per_port_ctrl_t entry;
 2324              		.loc 1 330 5 is_stmt 1 view .LVU578
 331:../switch_sdk/core/fal/tiger/fal_tiger_ctrlpkt.c ****     yt_macid_t macid;
 2325              		.loc 1 331 5 view .LVU579
 332:../switch_sdk/core/fal/tiger/fal_tiger_ctrlpkt.c ****     uint32_t copyMask;
 2326              		.loc 1 332 5 view .LVU580
 333:../switch_sdk/core/fal/tiger/fal_tiger_ctrlpkt.c ****     uint32_t dropMask;
 2327              		.loc 1 333 5 view .LVU581
 334:../switch_sdk/core/fal/tiger/fal_tiger_ctrlpkt.c ****     cmm_err_t ret = CMM_ERR_OK;
 2328              		.loc 1 334 5 view .LVU582
 2329              	.LVL286:
 335:../switch_sdk/core/fal/tiger/fal_tiger_ctrlpkt.c **** 
 336:../switch_sdk/core/fal/tiger/fal_tiger_ctrlpkt.c ****     macid = CAL_YTP_TO_MAC(unit,port);
 2330              		.loc 1 336 5 view .LVU583
 2331              		.loc 1 336 13 is_stmt 0 view .LVU584
 2332 0006 2E4B     		ldr	r3, .L159
 2333 0008 1B78     		ldrb	r3, [r3]	@ zero_extendqisi2
 2334 000a 53B1     		cbz	r3, .L155
 2335              		.loc 1 336 13 discriminator 1 view .LVU585
 2336 000c 2D4B     		ldr	r3, .L159+4
 2337 000e 53F82030 		ldr	r3, [r3, r0, lsl #2]
 2338 0012 1A7D     		ldrb	r2, [r3, #20]	@ zero_extendqisi2
 2339              	.LVL287:
 2340              		.loc 1 336 13 discriminator 1 view .LVU586
 2341 0014 8A42     		cmp	r2, r1
 2342 0016 17D9     		bls	.L156
 2343              		.loc 1 336 13 discriminator 3 view .LVU587
 2344 0018 0631     		adds	r1, r1, #6
 2345              	.LVL288:
 2346              		.loc 1 336 13 discriminator 3 view .LVU588
 2347 001a 53F82130 		ldr	r3, [r3, r1, lsl #2]
 2348 001e 1E78     		ldrb	r6, [r3]	@ zero_extendqisi2
 2349 0020 00E0     		b	.L148
 2350              	.LVL289:
 2351              	.L155:
 2352              		.loc 1 336 13 view .LVU589
 2353 0022 FF26     		movs	r6, #255
 2354              	.LVL290:
 2355              	.L148:
 337:../switch_sdk/core/fal/tiger/fal_tiger_ctrlpkt.c ****     CMM_ERR_CHK(HAL_TBL_REG_READ(unit, L2_LLDP_EEE_PER_PORT_CTRLm, 0, sizeof(l2_lldp_eee_per_port_c
 2356              		.loc 1 337 5 is_stmt 1 discriminator 6 view .LVU590
 2357              		.loc 1 337 5 discriminator 6 view .LVU591
 2358 0024 03AB     		add	r3, sp, #12
 2359 0026 0093     		str	r3, [sp]
 2360 0028 0423     		movs	r3, #4
 2361 002a 0022     		movs	r2, #0
 2362 002c 7621     		movs	r1, #118
 2363 002e FFF7FEFF 		bl	hal_table_reg_read
 2364              	.LVL291:
 2365              		.loc 1 337 5 is_stmt 0 discriminator 6 view .LVU592
 2366 0032 0446     		mov	r4, r0
 2367              	.LVL292:
 2368              		.loc 1 337 5 discriminator 6 view .LVU593
 2369 0034 10F0FF03 		ands	r3, r0, #255
 2370 0038 18D0     		beq	.L149
 2371              		.loc 1 337 5 is_stmt 1 discriminator 1 view .LVU594
 2372              		.loc 1 337 5 discriminator 1 view .LVU595
 2373 003a 234A     		ldr	r2, .L159+8
 2374 003c 1278     		ldrb	r2, [r2]	@ zero_extendqisi2
 2375 003e 012A     		cmp	r2, #1
 2376 0040 04D8     		bhi	.L158
 2377              	.LVL293:
 2378              	.L150:
 2379              		.loc 1 337 5 discriminator 5 view .LVU596
 2380              		.loc 1 337 5 discriminator 5 view .LVU597
 2381              		.loc 1 337 5 discriminator 5 view .LVU598
 2382 0042 E0B2     		uxtb	r0, r4
 2383              	.L147:
 338:../switch_sdk/core/fal/tiger/fal_tiger_ctrlpkt.c ****         
 339:../switch_sdk/core/fal/tiger/fal_tiger_ctrlpkt.c ****     HAL_FIELD_GET(L2_LLDP_EEE_PER_PORT_CTRLm, L2_LLDP_EEE_PER_PORT_CTRL_COPY_TO_CPUf, &entry, &copy
 340:../switch_sdk/core/fal/tiger/fal_tiger_ctrlpkt.c ****     HAL_FIELD_GET(L2_LLDP_EEE_PER_PORT_CTRLm, L2_LLDP_EEE_PER_PORT_CTRL_DROPf, &entry, &dropMask);
 341:../switch_sdk/core/fal/tiger/fal_tiger_ctrlpkt.c **** 
 342:../switch_sdk/core/fal/tiger/fal_tiger_ctrlpkt.c ****     if (copyMask & (1UL<<macid))
 343:../switch_sdk/core/fal/tiger/fal_tiger_ctrlpkt.c ****     {
 344:../switch_sdk/core/fal/tiger/fal_tiger_ctrlpkt.c ****         if (dropMask & (1UL<<macid))
 345:../switch_sdk/core/fal/tiger/fal_tiger_ctrlpkt.c ****         {
 346:../switch_sdk/core/fal/tiger/fal_tiger_ctrlpkt.c ****             *pAct_ctrl = L2_ACTION_TRAP;
 347:../switch_sdk/core/fal/tiger/fal_tiger_ctrlpkt.c ****         }
 348:../switch_sdk/core/fal/tiger/fal_tiger_ctrlpkt.c ****         else
 349:../switch_sdk/core/fal/tiger/fal_tiger_ctrlpkt.c ****         {
 350:../switch_sdk/core/fal/tiger/fal_tiger_ctrlpkt.c ****             *pAct_ctrl = L2_ACTION_COPY;
 351:../switch_sdk/core/fal/tiger/fal_tiger_ctrlpkt.c ****         }
 352:../switch_sdk/core/fal/tiger/fal_tiger_ctrlpkt.c ****     }
 353:../switch_sdk/core/fal/tiger/fal_tiger_ctrlpkt.c ****     else
 354:../switch_sdk/core/fal/tiger/fal_tiger_ctrlpkt.c ****     {
 355:../switch_sdk/core/fal/tiger/fal_tiger_ctrlpkt.c ****         if (dropMask & (1UL<<macid))
 356:../switch_sdk/core/fal/tiger/fal_tiger_ctrlpkt.c ****         {
 357:../switch_sdk/core/fal/tiger/fal_tiger_ctrlpkt.c ****             *pAct_ctrl = L2_ACTION_DROP;
 358:../switch_sdk/core/fal/tiger/fal_tiger_ctrlpkt.c ****         }
 359:../switch_sdk/core/fal/tiger/fal_tiger_ctrlpkt.c ****         else
 360:../switch_sdk/core/fal/tiger/fal_tiger_ctrlpkt.c ****         {
 361:../switch_sdk/core/fal/tiger/fal_tiger_ctrlpkt.c ****             *pAct_ctrl = L2_ACTION_FWD;
 362:../switch_sdk/core/fal/tiger/fal_tiger_ctrlpkt.c ****         }
 363:../switch_sdk/core/fal/tiger/fal_tiger_ctrlpkt.c ****     }
 364:../switch_sdk/core/fal/tiger/fal_tiger_ctrlpkt.c ****    
 365:../switch_sdk/core/fal/tiger/fal_tiger_ctrlpkt.c ****     return CMM_ERR_OK;
 366:../switch_sdk/core/fal/tiger/fal_tiger_ctrlpkt.c **** }
 2384              		.loc 1 366 1 is_stmt 0 view .LVU599
 2385 0044 04B0     		add	sp, sp, #16
 2386              		.cfi_remember_state
 2387              		.cfi_def_cfa_offset 16
 2388              		@ sp needed
 2389 0046 70BD     		pop	{r4, r5, r6, pc}
 2390              	.LVL294:
 2391              	.L156:
 2392              		.cfi_restore_state
 336:../switch_sdk/core/fal/tiger/fal_tiger_ctrlpkt.c ****     CMM_ERR_CHK(HAL_TBL_REG_READ(unit, L2_LLDP_EEE_PER_PORT_CTRLm, 0, sizeof(l2_lldp_eee_per_port_c
 2393              		.loc 1 336 13 view .LVU600
 2394 0048 FF26     		movs	r6, #255
 2395 004a EBE7     		b	.L148
 2396              	.LVL295:
 2397              	.L158:
 337:../switch_sdk/core/fal/tiger/fal_tiger_ctrlpkt.c ****     CMM_ERR_CHK(HAL_TBL_REG_READ(unit, L2_LLDP_EEE_PER_PORT_CTRLm, 0, sizeof(l2_lldp_eee_per_port_c
 2398              		.loc 1 337 5 is_stmt 1 discriminator 3 view .LVU601
 2399              	.LBB30:
 337:../switch_sdk/core/fal/tiger/fal_tiger_ctrlpkt.c ****     CMM_ERR_CHK(HAL_TBL_REG_READ(unit, L2_LLDP_EEE_PER_PORT_CTRLm, 0, sizeof(l2_lldp_eee_per_port_c
 2400              		.loc 1 337 5 discriminator 3 view .LVU602
 2401 004c 142B     		cmp	r3, #20
 2402 004e 28BF     		it	cs
 2403 0050 1423     		movcs	r3, #20
 2404 0052 1A46     		mov	r2, r3
 2405 0054 1D4B     		ldr	r3, .L159+12
 2406 0056 0093     		str	r3, [sp]
 2407 0058 1D4B     		ldr	r3, .L159+16
 2408 005a 1E49     		ldr	r1, .L159+20
 2409 005c 51F82220 		ldr	r2, [r1, r2, lsl #2]
 2410 0060 1D49     		ldr	r1, .L159+24
 2411 0062 8968     		ldr	r1, [r1, #8]
 2412 0064 1D48     		ldr	r0, .L159+28
 2413              	.LVL296:
 337:../switch_sdk/core/fal/tiger/fal_tiger_ctrlpkt.c ****     CMM_ERR_CHK(HAL_TBL_REG_READ(unit, L2_LLDP_EEE_PER_PORT_CTRLm, 0, sizeof(l2_lldp_eee_per_port_c
 2414              		.loc 1 337 5 is_stmt 0 discriminator 3 view .LVU603
 2415 0066 FFF7FEFF 		bl	osal_printf
 2416              	.LVL297:
 2417 006a EAE7     		b	.L150
 2418              	.LVL298:
 2419              	.L149:
 337:../switch_sdk/core/fal/tiger/fal_tiger_ctrlpkt.c ****     CMM_ERR_CHK(HAL_TBL_REG_READ(unit, L2_LLDP_EEE_PER_PORT_CTRLm, 0, sizeof(l2_lldp_eee_per_port_c
 2420              		.loc 1 337 5 discriminator 3 view .LVU604
 2421              	.LBE30:
 337:../switch_sdk/core/fal/tiger/fal_tiger_ctrlpkt.c ****     CMM_ERR_CHK(HAL_TBL_REG_READ(unit, L2_LLDP_EEE_PER_PORT_CTRLm, 0, sizeof(l2_lldp_eee_per_port_c
 2422              		.loc 1 337 5 is_stmt 1 discriminator 2 view .LVU605
 339:../switch_sdk/core/fal/tiger/fal_tiger_ctrlpkt.c ****     HAL_FIELD_GET(L2_LLDP_EEE_PER_PORT_CTRLm, L2_LLDP_EEE_PER_PORT_CTRL_DROPf, &entry, &dropMask);
 2423              		.loc 1 339 5 discriminator 2 view .LVU606
 2424              	.LBB31:
 339:../switch_sdk/core/fal/tiger/fal_tiger_ctrlpkt.c ****     HAL_FIELD_GET(L2_LLDP_EEE_PER_PORT_CTRLm, L2_LLDP_EEE_PER_PORT_CTRL_DROPf, &entry, &dropMask);
 2425              		.loc 1 339 5 discriminator 2 view .LVU607
 339:../switch_sdk/core/fal/tiger/fal_tiger_ctrlpkt.c ****     HAL_FIELD_GET(L2_LLDP_EEE_PER_PORT_CTRLm, L2_LLDP_EEE_PER_PORT_CTRL_DROPf, &entry, &dropMask);
 2426              		.loc 1 339 5 discriminator 2 view .LVU608
 2427 006c 02AB     		add	r3, sp, #8
 2428 006e 03AA     		add	r2, sp, #12
 2429 0070 0121     		movs	r1, #1
 2430 0072 7620     		movs	r0, #118
 2431              	.LVL299:
 339:../switch_sdk/core/fal/tiger/fal_tiger_ctrlpkt.c ****     HAL_FIELD_GET(L2_LLDP_EEE_PER_PORT_CTRLm, L2_LLDP_EEE_PER_PORT_CTRL_DROPf, &entry, &dropMask);
 2432              		.loc 1 339 5 is_stmt 0 discriminator 2 view .LVU609
 2433 0074 FFF7FEFF 		bl	hal_tbl_reg_field_get
 2434              	.LVL300:
 339:../switch_sdk/core/fal/tiger/fal_tiger_ctrlpkt.c ****     HAL_FIELD_GET(L2_LLDP_EEE_PER_PORT_CTRLm, L2_LLDP_EEE_PER_PORT_CTRL_DROPf, &entry, &dropMask);
 2435              		.loc 1 339 5 is_stmt 1 discriminator 2 view .LVU610
 2436 0078 029C     		ldr	r4, [sp, #8]
 2437              	.LVL301:
 339:../switch_sdk/core/fal/tiger/fal_tiger_ctrlpkt.c ****     HAL_FIELD_GET(L2_LLDP_EEE_PER_PORT_CTRLm, L2_LLDP_EEE_PER_PORT_CTRL_DROPf, &entry, &dropMask);
 2438              		.loc 1 339 5 is_stmt 0 discriminator 2 view .LVU611
 2439              	.LBE31:
 339:../switch_sdk/core/fal/tiger/fal_tiger_ctrlpkt.c ****     HAL_FIELD_GET(L2_LLDP_EEE_PER_PORT_CTRLm, L2_LLDP_EEE_PER_PORT_CTRL_DROPf, &entry, &dropMask);
 2440              		.loc 1 339 5 is_stmt 1 discriminator 2 view .LVU612
 340:../switch_sdk/core/fal/tiger/fal_tiger_ctrlpkt.c **** 
 2441              		.loc 1 340 5 discriminator 2 view .LVU613
 2442              	.LBB32:
 340:../switch_sdk/core/fal/tiger/fal_tiger_ctrlpkt.c **** 
 2443              		.loc 1 340 5 discriminator 2 view .LVU614
 340:../switch_sdk/core/fal/tiger/fal_tiger_ctrlpkt.c **** 
 2444              		.loc 1 340 5 discriminator 2 view .LVU615
 2445 007a 02AB     		add	r3, sp, #8
 2446 007c 03AA     		add	r2, sp, #12
 2447 007e 0021     		movs	r1, #0
 2448 0080 7620     		movs	r0, #118
 2449 0082 FFF7FEFF 		bl	hal_tbl_reg_field_get
 2450              	.LVL302:
 340:../switch_sdk/core/fal/tiger/fal_tiger_ctrlpkt.c **** 
 2451              		.loc 1 340 5 discriminator 2 view .LVU616
 2452 0086 029B     		ldr	r3, [sp, #8]
 2453              	.LVL303:
 340:../switch_sdk/core/fal/tiger/fal_tiger_ctrlpkt.c **** 
 2454              		.loc 1 340 5 is_stmt 0 discriminator 2 view .LVU617
 2455              	.LBE32:
 340:../switch_sdk/core/fal/tiger/fal_tiger_ctrlpkt.c **** 
 2456              		.loc 1 340 5 is_stmt 1 discriminator 2 view .LVU618
 342:../switch_sdk/core/fal/tiger/fal_tiger_ctrlpkt.c ****     {
 2457              		.loc 1 342 5 discriminator 2 view .LVU619
 342:../switch_sdk/core/fal/tiger/fal_tiger_ctrlpkt.c ****     {
 2458              		.loc 1 342 9 is_stmt 0 discriminator 2 view .LVU620
 2459 0088 24FA06F0 		lsr	r0, r4, r6
 342:../switch_sdk/core/fal/tiger/fal_tiger_ctrlpkt.c ****     {
 2460              		.loc 1 342 8 discriminator 2 view .LVU621
 2461 008c 10F00100 		ands	r0, r0, #1
 2462 0090 0AD0     		beq	.L152
 344:../switch_sdk/core/fal/tiger/fal_tiger_ctrlpkt.c ****         {
 2463              		.loc 1 344 9 is_stmt 1 view .LVU622
 344:../switch_sdk/core/fal/tiger/fal_tiger_ctrlpkt.c ****         {
 2464              		.loc 1 344 13 is_stmt 0 view .LVU623
 2465 0092 F340     		lsrs	r3, r3, r6
 2466              	.LVL304:
 344:../switch_sdk/core/fal/tiger/fal_tiger_ctrlpkt.c ****         {
 2467              		.loc 1 344 12 view .LVU624
 2468 0094 13F00100 		ands	r0, r3, #1
 2469 0098 03D0     		beq	.L153
 346:../switch_sdk/core/fal/tiger/fal_tiger_ctrlpkt.c ****         }
 2470              		.loc 1 346 13 is_stmt 1 view .LVU625
 346:../switch_sdk/core/fal/tiger/fal_tiger_ctrlpkt.c ****         }
 2471              		.loc 1 346 24 is_stmt 0 view .LVU626
 2472 009a 0123     		movs	r3, #1
 2473 009c 2B70     		strb	r3, [r5]
 2474              	.LVL305:
 365:../switch_sdk/core/fal/tiger/fal_tiger_ctrlpkt.c **** }
 2475              		.loc 1 365 12 view .LVU627
 2476 009e 0020     		movs	r0, #0
 2477 00a0 D0E7     		b	.L147
 2478              	.LVL306:
 2479              	.L153:
 350:../switch_sdk/core/fal/tiger/fal_tiger_ctrlpkt.c ****         }
 2480              		.loc 1 350 13 is_stmt 1 view .LVU628
 350:../switch_sdk/core/fal/tiger/fal_tiger_ctrlpkt.c ****         }
 2481              		.loc 1 350 24 is_stmt 0 view .LVU629
 2482 00a2 0323     		movs	r3, #3
 2483 00a4 2B70     		strb	r3, [r5]
 2484              	.LVL307:
 350:../switch_sdk/core/fal/tiger/fal_tiger_ctrlpkt.c ****         }
 2485              		.loc 1 350 24 view .LVU630
 2486 00a6 CDE7     		b	.L147
 2487              	.LVL308:
 2488              	.L152:
 355:../switch_sdk/core/fal/tiger/fal_tiger_ctrlpkt.c ****         {
 2489              		.loc 1 355 9 is_stmt 1 view .LVU631
 355:../switch_sdk/core/fal/tiger/fal_tiger_ctrlpkt.c ****         {
 2490              		.loc 1 355 13 is_stmt 0 view .LVU632
 2491 00a8 F340     		lsrs	r3, r3, r6
 2492              	.LVL309:
 355:../switch_sdk/core/fal/tiger/fal_tiger_ctrlpkt.c ****         {
 2493              		.loc 1 355 12 view .LVU633
 2494 00aa 13F00103 		ands	r3, r3, #1
 2495 00ae 02D0     		beq	.L154
 357:../switch_sdk/core/fal/tiger/fal_tiger_ctrlpkt.c ****         }
 2496              		.loc 1 357 13 is_stmt 1 view .LVU634
 357:../switch_sdk/core/fal/tiger/fal_tiger_ctrlpkt.c ****         }
 2497              		.loc 1 357 24 is_stmt 0 view .LVU635
 2498 00b0 0223     		movs	r3, #2
 2499 00b2 2B70     		strb	r3, [r5]
 2500              	.LVL310:
 357:../switch_sdk/core/fal/tiger/fal_tiger_ctrlpkt.c ****         }
 2501              		.loc 1 357 24 view .LVU636
 2502 00b4 C6E7     		b	.L147
 2503              	.LVL311:
 2504              	.L154:
 361:../switch_sdk/core/fal/tiger/fal_tiger_ctrlpkt.c ****         }
 2505              		.loc 1 361 13 is_stmt 1 view .LVU637
 361:../switch_sdk/core/fal/tiger/fal_tiger_ctrlpkt.c ****         }
 2506              		.loc 1 361 24 is_stmt 0 view .LVU638
 2507 00b6 0022     		movs	r2, #0
 2508 00b8 2A70     		strb	r2, [r5]
 2509              	.LVL312:
 365:../switch_sdk/core/fal/tiger/fal_tiger_ctrlpkt.c **** }
 2510              		.loc 1 365 12 view .LVU639
 2511 00ba 1846     		mov	r0, r3
 2512 00bc C2E7     		b	.L147
 2513              	.L160:
 2514 00be 00BF     		.align	2
 2515              	.L159:
 2516 00c0 00000000 		.word	gcal_inited
 2517 00c4 00000000 		.word	gpSwitchUnit
 2518 00c8 00000000 		.word	yt_debug_level
 2519 00cc 00000000 		.word	__FUNCTION__.2
 2520 00d0 00000000 		.word	.LC9
 2521 00d4 00000000 		.word	_yt_errmsg
 2522 00d8 00000000 		.word	_yt_prompt_msg
 2523 00dc 48000000 		.word	.LC1
 2524              		.cfi_endproc
 2525              	.LFE12:
 2527              		.section	.rodata.fal_tiger_ctrlpkt_lldp_act_set.str1.4,"aMS",%progbits,1
 2528              		.align	2
 2529              	.LC11:
 2530 0000 68616C5F 		.ascii	"hal_table_reg_read(unit,119,0,sizeof(l2_lldp_per_po"
 2530      7461626C 
 2530      655F7265 
 2530      675F7265 
 2530      61642875 
 2531 0033 72745F63 		.ascii	"rt_ctrl_t),&entry)\000"
 2531      74726C5F 
 2531      74292C26 
 2531      656E7472 
 2531      792900
 2532 0046 0000     		.align	2
 2533              	.LC12:
 2534 0048 68616C5F 		.ascii	"hal_table_reg_write(unit,119,0,sizeof(l2_lldp_per_p"
 2534      7461626C 
 2534      655F7265 
 2534      675F7772 
 2534      69746528 
 2535 007b 6F72745F 		.ascii	"ort_ctrl_t),&entry)\000"
 2535      6374726C 
 2535      5F74292C 
 2535      26656E74 
 2535      72792900 
 2536              		.section	.text.fal_tiger_ctrlpkt_lldp_act_set,"ax",%progbits
 2537              		.align	1
 2538              		.global	fal_tiger_ctrlpkt_lldp_act_set
 2539              		.syntax unified
 2540              		.thumb
 2541              		.thumb_func
 2543              	fal_tiger_ctrlpkt_lldp_act_set:
 2544              	.LVL313:
 2545              	.LFB13:
 367:../switch_sdk/core/fal/tiger/fal_tiger_ctrlpkt.c **** 
 368:../switch_sdk/core/fal/tiger/fal_tiger_ctrlpkt.c **** yt_ret_t fal_tiger_ctrlpkt_lldp_act_set(yt_unit_t unit, yt_port_t port, yt_ctrlpkt_l2_action_t act_
 369:../switch_sdk/core/fal/tiger/fal_tiger_ctrlpkt.c **** {
 2546              		.loc 1 369 1 is_stmt 1 view -0
 2547              		.cfi_startproc
 2548              		@ args = 0, pretend = 0, frame = 8
 2549              		@ frame_needed = 0, uses_anonymous_args = 0
 2550              		.loc 1 369 1 is_stmt 0 view .LVU641
 2551 0000 F0B5     		push	{r4, r5, r6, r7, lr}
 2552              		.cfi_def_cfa_offset 20
 2553              		.cfi_offset 4, -20
 2554              		.cfi_offset 5, -16
 2555              		.cfi_offset 6, -12
 2556              		.cfi_offset 7, -8
 2557              		.cfi_offset 14, -4
 2558 0002 85B0     		sub	sp, sp, #20
 2559              		.cfi_def_cfa_offset 40
 2560 0004 0546     		mov	r5, r0
 2561 0006 1646     		mov	r6, r2
 370:../switch_sdk/core/fal/tiger/fal_tiger_ctrlpkt.c ****     l2_lldp_per_port_ctrl_t entry;
 2562              		.loc 1 370 5 is_stmt 1 view .LVU642
 371:../switch_sdk/core/fal/tiger/fal_tiger_ctrlpkt.c ****     yt_macid_t macid;
 2563              		.loc 1 371 5 view .LVU643
 372:../switch_sdk/core/fal/tiger/fal_tiger_ctrlpkt.c ****     uint32_t copyMask;
 2564              		.loc 1 372 5 view .LVU644
 373:../switch_sdk/core/fal/tiger/fal_tiger_ctrlpkt.c ****     uint32_t dropMask;
 2565              		.loc 1 373 5 view .LVU645
 374:../switch_sdk/core/fal/tiger/fal_tiger_ctrlpkt.c ****     cmm_err_t ret = CMM_ERR_OK;
 2566              		.loc 1 374 5 view .LVU646
 2567              	.LVL314:
 375:../switch_sdk/core/fal/tiger/fal_tiger_ctrlpkt.c **** 
 376:../switch_sdk/core/fal/tiger/fal_tiger_ctrlpkt.c ****     macid = CAL_YTP_TO_MAC(unit,port);
 2568              		.loc 1 376 5 view .LVU647
 2569              		.loc 1 376 13 is_stmt 0 view .LVU648
 2570 0008 494B     		ldr	r3, .L181
 2571 000a 1B78     		ldrb	r3, [r3]	@ zero_extendqisi2
 2572 000c 53B1     		cbz	r3, .L173
 2573              		.loc 1 376 13 discriminator 1 view .LVU649
 2574 000e 494B     		ldr	r3, .L181+4
 2575 0010 53F82030 		ldr	r3, [r3, r0, lsl #2]
 2576 0014 1A7D     		ldrb	r2, [r3, #20]	@ zero_extendqisi2
 2577              	.LVL315:
 2578              		.loc 1 376 13 discriminator 1 view .LVU650
 2579 0016 8A42     		cmp	r2, r1
 2580 0018 18D9     		bls	.L174
 2581              		.loc 1 376 13 discriminator 3 view .LVU651
 2582 001a 0631     		adds	r1, r1, #6
 2583              	.LVL316:
 2584              		.loc 1 376 13 discriminator 3 view .LVU652
 2585 001c 53F82130 		ldr	r3, [r3, r1, lsl #2]
 2586 0020 1F78     		ldrb	r7, [r3]	@ zero_extendqisi2
 2587 0022 00E0     		b	.L162
 2588              	.LVL317:
 2589              	.L173:
 2590              		.loc 1 376 13 view .LVU653
 2591 0024 FF27     		movs	r7, #255
 2592              	.LVL318:
 2593              	.L162:
 377:../switch_sdk/core/fal/tiger/fal_tiger_ctrlpkt.c **** 
 378:../switch_sdk/core/fal/tiger/fal_tiger_ctrlpkt.c ****     CMM_ERR_CHK(HAL_TBL_REG_READ(unit, L2_LLDP_PER_PORT_CTRLm, 0, sizeof(l2_lldp_per_port_ctrl_t), 
 2594              		.loc 1 378 5 is_stmt 1 discriminator 6 view .LVU654
 2595              		.loc 1 378 5 discriminator 6 view .LVU655
 2596 0026 03AA     		add	r2, sp, #12
 2597 0028 0092     		str	r2, [sp]
 2598 002a 0423     		movs	r3, #4
 2599 002c 0022     		movs	r2, #0
 2600 002e 7721     		movs	r1, #119
 2601 0030 2846     		mov	r0, r5
 2602              	.LVL319:
 2603              		.loc 1 378 5 is_stmt 0 discriminator 6 view .LVU656
 2604 0032 FFF7FEFF 		bl	hal_table_reg_read
 2605              	.LVL320:
 2606 0036 0446     		mov	r4, r0
 2607              	.LVL321:
 2608              		.loc 1 378 5 discriminator 6 view .LVU657
 2609 0038 10F0FF03 		ands	r3, r0, #255
 2610 003c 18D0     		beq	.L163
 2611              		.loc 1 378 5 is_stmt 1 discriminator 1 view .LVU658
 2612              		.loc 1 378 5 discriminator 1 view .LVU659
 2613 003e 3E4A     		ldr	r2, .L181+8
 2614 0040 1278     		ldrb	r2, [r2]	@ zero_extendqisi2
 2615 0042 012A     		cmp	r2, #1
 2616 0044 04D8     		bhi	.L178
 2617              	.LVL322:
 2618              	.L164:
 2619              		.loc 1 378 5 discriminator 5 view .LVU660
 2620              		.loc 1 378 5 discriminator 5 view .LVU661
 2621              		.loc 1 378 5 discriminator 5 view .LVU662
 2622 0046 E0B2     		uxtb	r0, r4
 2623              	.LVL323:
 2624              	.L161:
 379:../switch_sdk/core/fal/tiger/fal_tiger_ctrlpkt.c ****     HAL_FIELD_GET(L2_LLDP_PER_PORT_CTRLm, L2_LLDP_PER_PORT_CTRL_COPY_TO_CPUf, &entry, &copyMask);
 380:../switch_sdk/core/fal/tiger/fal_tiger_ctrlpkt.c ****     HAL_FIELD_GET(L2_LLDP_PER_PORT_CTRLm, L2_LLDP_PER_PORT_CTRL_DROPf, &entry, &dropMask);
 381:../switch_sdk/core/fal/tiger/fal_tiger_ctrlpkt.c **** 
 382:../switch_sdk/core/fal/tiger/fal_tiger_ctrlpkt.c ****     switch(act_ctrl)
 383:../switch_sdk/core/fal/tiger/fal_tiger_ctrlpkt.c ****     {
 384:../switch_sdk/core/fal/tiger/fal_tiger_ctrlpkt.c ****         case L2_ACTION_FWD:
 385:../switch_sdk/core/fal/tiger/fal_tiger_ctrlpkt.c ****             copyMask = (uint32_t)CLR_FIELD(copyMask, macid, 1);
 386:../switch_sdk/core/fal/tiger/fal_tiger_ctrlpkt.c ****             dropMask = (uint32_t)CLR_FIELD(dropMask, macid, 1);
 387:../switch_sdk/core/fal/tiger/fal_tiger_ctrlpkt.c ****             break;
 388:../switch_sdk/core/fal/tiger/fal_tiger_ctrlpkt.c **** 
 389:../switch_sdk/core/fal/tiger/fal_tiger_ctrlpkt.c ****         case L2_ACTION_TRAP:
 390:../switch_sdk/core/fal/tiger/fal_tiger_ctrlpkt.c ****             copyMask |= (uint32_t)(1UL<<macid);
 391:../switch_sdk/core/fal/tiger/fal_tiger_ctrlpkt.c ****             dropMask |= (uint32_t)(1UL<<macid);
 392:../switch_sdk/core/fal/tiger/fal_tiger_ctrlpkt.c ****             break;
 393:../switch_sdk/core/fal/tiger/fal_tiger_ctrlpkt.c **** 
 394:../switch_sdk/core/fal/tiger/fal_tiger_ctrlpkt.c ****         case L2_ACTION_DROP:
 395:../switch_sdk/core/fal/tiger/fal_tiger_ctrlpkt.c ****             copyMask = (uint32_t)CLR_FIELD(copyMask, macid, 1);
 396:../switch_sdk/core/fal/tiger/fal_tiger_ctrlpkt.c ****             dropMask |= (uint32_t)(1UL<<macid);
 397:../switch_sdk/core/fal/tiger/fal_tiger_ctrlpkt.c ****             break;
 398:../switch_sdk/core/fal/tiger/fal_tiger_ctrlpkt.c **** 
 399:../switch_sdk/core/fal/tiger/fal_tiger_ctrlpkt.c ****         case L2_ACTION_COPY:
 400:../switch_sdk/core/fal/tiger/fal_tiger_ctrlpkt.c ****             copyMask |= (uint32_t)(1UL<<macid);
 401:../switch_sdk/core/fal/tiger/fal_tiger_ctrlpkt.c ****             dropMask = (uint32_t)CLR_FIELD(dropMask, macid, 1);;
 402:../switch_sdk/core/fal/tiger/fal_tiger_ctrlpkt.c ****             break;
 403:../switch_sdk/core/fal/tiger/fal_tiger_ctrlpkt.c **** 
 404:../switch_sdk/core/fal/tiger/fal_tiger_ctrlpkt.c ****         default:
 405:../switch_sdk/core/fal/tiger/fal_tiger_ctrlpkt.c ****             return CMM_ERR_NOT_SUPPORT;
 406:../switch_sdk/core/fal/tiger/fal_tiger_ctrlpkt.c ****     }
 407:../switch_sdk/core/fal/tiger/fal_tiger_ctrlpkt.c ****     
 408:../switch_sdk/core/fal/tiger/fal_tiger_ctrlpkt.c ****     HAL_FIELD_SET(L2_LLDP_PER_PORT_CTRLm, L2_LLDP_PER_PORT_CTRL_COPY_TO_CPUf, &entry, copyMask);
 409:../switch_sdk/core/fal/tiger/fal_tiger_ctrlpkt.c ****     HAL_FIELD_SET(L2_LLDP_PER_PORT_CTRLm, L2_LLDP_PER_PORT_CTRL_DROPf, &entry, dropMask);
 410:../switch_sdk/core/fal/tiger/fal_tiger_ctrlpkt.c ****     
 411:../switch_sdk/core/fal/tiger/fal_tiger_ctrlpkt.c ****     CMM_ERR_CHK(HAL_TBL_REG_WRITE(unit, L2_LLDP_PER_PORT_CTRLm, 0, sizeof(l2_lldp_per_port_ctrl_t),
 412:../switch_sdk/core/fal/tiger/fal_tiger_ctrlpkt.c ****     
 413:../switch_sdk/core/fal/tiger/fal_tiger_ctrlpkt.c ****     return CMM_ERR_OK;
 414:../switch_sdk/core/fal/tiger/fal_tiger_ctrlpkt.c **** }
 2625              		.loc 1 414 1 is_stmt 0 view .LVU663
 2626 0048 05B0     		add	sp, sp, #20
 2627              		.cfi_remember_state
 2628              		.cfi_def_cfa_offset 20
 2629              		@ sp needed
 2630 004a F0BD     		pop	{r4, r5, r6, r7, pc}
 2631              	.LVL324:
 2632              	.L174:
 2633              		.cfi_restore_state
 376:../switch_sdk/core/fal/tiger/fal_tiger_ctrlpkt.c **** 
 2634              		.loc 1 376 13 view .LVU664
 2635 004c FF27     		movs	r7, #255
 2636 004e EAE7     		b	.L162
 2637              	.LVL325:
 2638              	.L178:
 378:../switch_sdk/core/fal/tiger/fal_tiger_ctrlpkt.c ****     HAL_FIELD_GET(L2_LLDP_PER_PORT_CTRLm, L2_LLDP_PER_PORT_CTRL_COPY_TO_CPUf, &entry, &copyMask);
 2639              		.loc 1 378 5 is_stmt 1 discriminator 3 view .LVU665
 2640              	.LBB33:
 378:../switch_sdk/core/fal/tiger/fal_tiger_ctrlpkt.c ****     HAL_FIELD_GET(L2_LLDP_PER_PORT_CTRLm, L2_LLDP_PER_PORT_CTRL_COPY_TO_CPUf, &entry, &copyMask);
 2641              		.loc 1 378 5 discriminator 3 view .LVU666
 2642 0050 142B     		cmp	r3, #20
 2643 0052 28BF     		it	cs
 2644 0054 1423     		movcs	r3, #20
 2645 0056 1A46     		mov	r2, r3
 2646 0058 384B     		ldr	r3, .L181+12
 2647 005a 0093     		str	r3, [sp]
 2648 005c 384B     		ldr	r3, .L181+16
 2649 005e 3949     		ldr	r1, .L181+20
 2650 0060 51F82220 		ldr	r2, [r1, r2, lsl #2]
 2651 0064 3849     		ldr	r1, .L181+24
 2652 0066 8968     		ldr	r1, [r1, #8]
 2653 0068 3848     		ldr	r0, .L181+28
 2654              	.LVL326:
 378:../switch_sdk/core/fal/tiger/fal_tiger_ctrlpkt.c ****     HAL_FIELD_GET(L2_LLDP_PER_PORT_CTRLm, L2_LLDP_PER_PORT_CTRL_COPY_TO_CPUf, &entry, &copyMask);
 2655              		.loc 1 378 5 is_stmt 0 discriminator 3 view .LVU667
 2656 006a FFF7FEFF 		bl	osal_printf
 2657              	.LVL327:
 2658 006e EAE7     		b	.L164
 2659              	.LVL328:
 2660              	.L163:
 378:../switch_sdk/core/fal/tiger/fal_tiger_ctrlpkt.c ****     HAL_FIELD_GET(L2_LLDP_PER_PORT_CTRLm, L2_LLDP_PER_PORT_CTRL_COPY_TO_CPUf, &entry, &copyMask);
 2661              		.loc 1 378 5 discriminator 3 view .LVU668
 2662              	.LBE33:
 378:../switch_sdk/core/fal/tiger/fal_tiger_ctrlpkt.c ****     HAL_FIELD_GET(L2_LLDP_PER_PORT_CTRLm, L2_LLDP_PER_PORT_CTRL_COPY_TO_CPUf, &entry, &copyMask);
 2663              		.loc 1 378 5 is_stmt 1 discriminator 2 view .LVU669
 379:../switch_sdk/core/fal/tiger/fal_tiger_ctrlpkt.c ****     HAL_FIELD_GET(L2_LLDP_PER_PORT_CTRLm, L2_LLDP_PER_PORT_CTRL_COPY_TO_CPUf, &entry, &copyMask);
 2664              		.loc 1 379 5 discriminator 2 view .LVU670
 2665              	.LBB34:
 379:../switch_sdk/core/fal/tiger/fal_tiger_ctrlpkt.c ****     HAL_FIELD_GET(L2_LLDP_PER_PORT_CTRLm, L2_LLDP_PER_PORT_CTRL_COPY_TO_CPUf, &entry, &copyMask);
 2666              		.loc 1 379 5 discriminator 2 view .LVU671
 379:../switch_sdk/core/fal/tiger/fal_tiger_ctrlpkt.c ****     HAL_FIELD_GET(L2_LLDP_PER_PORT_CTRLm, L2_LLDP_PER_PORT_CTRL_COPY_TO_CPUf, &entry, &copyMask);
 2667              		.loc 1 379 5 discriminator 2 view .LVU672
 2668 0070 02AB     		add	r3, sp, #8
 2669 0072 03AA     		add	r2, sp, #12
 2670 0074 0121     		movs	r1, #1
 2671 0076 7720     		movs	r0, #119
 2672              	.LVL329:
 379:../switch_sdk/core/fal/tiger/fal_tiger_ctrlpkt.c ****     HAL_FIELD_GET(L2_LLDP_PER_PORT_CTRLm, L2_LLDP_PER_PORT_CTRL_COPY_TO_CPUf, &entry, &copyMask);
 2673              		.loc 1 379 5 is_stmt 0 discriminator 2 view .LVU673
 2674 0078 FFF7FEFF 		bl	hal_tbl_reg_field_get
 2675              	.LVL330:
 379:../switch_sdk/core/fal/tiger/fal_tiger_ctrlpkt.c ****     HAL_FIELD_GET(L2_LLDP_PER_PORT_CTRLm, L2_LLDP_PER_PORT_CTRL_COPY_TO_CPUf, &entry, &copyMask);
 2676              		.loc 1 379 5 is_stmt 1 discriminator 2 view .LVU674
 2677 007c 029C     		ldr	r4, [sp, #8]
 2678              	.LVL331:
 379:../switch_sdk/core/fal/tiger/fal_tiger_ctrlpkt.c ****     HAL_FIELD_GET(L2_LLDP_PER_PORT_CTRLm, L2_LLDP_PER_PORT_CTRL_COPY_TO_CPUf, &entry, &copyMask);
 2679              		.loc 1 379 5 is_stmt 0 discriminator 2 view .LVU675
 2680              	.LBE34:
 379:../switch_sdk/core/fal/tiger/fal_tiger_ctrlpkt.c ****     HAL_FIELD_GET(L2_LLDP_PER_PORT_CTRLm, L2_LLDP_PER_PORT_CTRL_COPY_TO_CPUf, &entry, &copyMask);
 2681              		.loc 1 379 5 is_stmt 1 discriminator 2 view .LVU676
 380:../switch_sdk/core/fal/tiger/fal_tiger_ctrlpkt.c **** 
 2682              		.loc 1 380 5 discriminator 2 view .LVU677
 2683              	.LBB35:
 380:../switch_sdk/core/fal/tiger/fal_tiger_ctrlpkt.c **** 
 2684              		.loc 1 380 5 discriminator 2 view .LVU678
 380:../switch_sdk/core/fal/tiger/fal_tiger_ctrlpkt.c **** 
 2685              		.loc 1 380 5 discriminator 2 view .LVU679
 2686 007e 02AB     		add	r3, sp, #8
 2687 0080 03AA     		add	r2, sp, #12
 2688 0082 0021     		movs	r1, #0
 2689 0084 7720     		movs	r0, #119
 2690 0086 FFF7FEFF 		bl	hal_tbl_reg_field_get
 2691              	.LVL332:
 380:../switch_sdk/core/fal/tiger/fal_tiger_ctrlpkt.c **** 
 2692              		.loc 1 380 5 discriminator 2 view .LVU680
 2693 008a 029A     		ldr	r2, [sp, #8]
 2694              	.LVL333:
 380:../switch_sdk/core/fal/tiger/fal_tiger_ctrlpkt.c **** 
 2695              		.loc 1 380 5 is_stmt 0 discriminator 2 view .LVU681
 2696              	.LBE35:
 380:../switch_sdk/core/fal/tiger/fal_tiger_ctrlpkt.c **** 
 2697              		.loc 1 380 5 is_stmt 1 discriminator 2 view .LVU682
 382:../switch_sdk/core/fal/tiger/fal_tiger_ctrlpkt.c ****     {
 2698              		.loc 1 382 5 discriminator 2 view .LVU683
 2699 008c 032E     		cmp	r6, #3
 2700 008e 4DD8     		bhi	.L175
 2701 0090 DFE806F0 		tbb	[pc, r6]
 2702              	.L167:
 2703 0094 02       		.byte	(.L170-.L167)/2
 2704 0095 21       		.byte	(.L169-.L167)/2
 2705 0096 28       		.byte	(.L168-.L167)/2
 2706 0097 2F       		.byte	(.L166-.L167)/2
 2707              		.p2align 1
 2708              	.L170:
 385:../switch_sdk/core/fal/tiger/fal_tiger_ctrlpkt.c ****             dropMask = (uint32_t)CLR_FIELD(dropMask, macid, 1);
 2709              		.loc 1 385 13 view .LVU684
 385:../switch_sdk/core/fal/tiger/fal_tiger_ctrlpkt.c ****             dropMask = (uint32_t)CLR_FIELD(dropMask, macid, 1);
 2710              		.loc 1 385 34 is_stmt 0 view .LVU685
 2711 0098 0121     		movs	r1, #1
 2712 009a B940     		lsls	r1, r1, r7
 2713 009c 24EA0103 		bic	r3, r4, r1
 2714              	.LVL334:
 386:../switch_sdk/core/fal/tiger/fal_tiger_ctrlpkt.c ****             break;
 2715              		.loc 1 386 13 is_stmt 1 view .LVU686
 386:../switch_sdk/core/fal/tiger/fal_tiger_ctrlpkt.c ****             break;
 2716              		.loc 1 386 34 is_stmt 0 view .LVU687
 2717 00a0 22EA0104 		bic	r4, r2, r1
 2718              	.LVL335:
 387:../switch_sdk/core/fal/tiger/fal_tiger_ctrlpkt.c **** 
 2719              		.loc 1 387 13 is_stmt 1 view .LVU688
 2720              	.L171:
 408:../switch_sdk/core/fal/tiger/fal_tiger_ctrlpkt.c ****     HAL_FIELD_SET(L2_LLDP_PER_PORT_CTRLm, L2_LLDP_PER_PORT_CTRL_DROPf, &entry, dropMask);
 2721              		.loc 1 408 5 view .LVU689
 2722 00a4 03AE     		add	r6, sp, #12
 2723 00a6 3246     		mov	r2, r6
 2724 00a8 0121     		movs	r1, #1
 2725 00aa 7720     		movs	r0, #119
 2726 00ac FFF7FEFF 		bl	hal_tbl_reg_field_set
 2727              	.LVL336:
 409:../switch_sdk/core/fal/tiger/fal_tiger_ctrlpkt.c ****     
 2728              		.loc 1 409 5 view .LVU690
 2729 00b0 2346     		mov	r3, r4
 2730 00b2 3246     		mov	r2, r6
 2731 00b4 0021     		movs	r1, #0
 2732 00b6 7720     		movs	r0, #119
 2733 00b8 FFF7FEFF 		bl	hal_tbl_reg_field_set
 2734              	.LVL337:
 411:../switch_sdk/core/fal/tiger/fal_tiger_ctrlpkt.c ****     
 2735              		.loc 1 411 5 view .LVU691
 411:../switch_sdk/core/fal/tiger/fal_tiger_ctrlpkt.c ****     
 2736              		.loc 1 411 5 view .LVU692
 2737 00bc 0096     		str	r6, [sp]
 2738 00be 0423     		movs	r3, #4
 2739 00c0 0022     		movs	r2, #0
 2740 00c2 7721     		movs	r1, #119
 2741 00c4 2846     		mov	r0, r5
 2742 00c6 FFF7FEFF 		bl	hal_table_reg_write
 2743              	.LVL338:
 2744 00ca 0446     		mov	r4, r0
 2745              	.LVL339:
 411:../switch_sdk/core/fal/tiger/fal_tiger_ctrlpkt.c ****     
 2746              		.loc 1 411 5 is_stmt 0 view .LVU693
 2747 00cc 10F0FF03 		ands	r3, r0, #255
 2748 00d0 16D1     		bne	.L179
 413:../switch_sdk/core/fal/tiger/fal_tiger_ctrlpkt.c **** }
 2749              		.loc 1 413 12 view .LVU694
 2750 00d2 0020     		movs	r0, #0
 2751              	.LVL340:
 413:../switch_sdk/core/fal/tiger/fal_tiger_ctrlpkt.c **** }
 2752              		.loc 1 413 12 view .LVU695
 2753 00d4 B8E7     		b	.L161
 2754              	.LVL341:
 2755              	.L169:
 390:../switch_sdk/core/fal/tiger/fal_tiger_ctrlpkt.c ****             dropMask |= (uint32_t)(1UL<<macid);
 2756              		.loc 1 390 13 is_stmt 1 view .LVU696
 390:../switch_sdk/core/fal/tiger/fal_tiger_ctrlpkt.c ****             dropMask |= (uint32_t)(1UL<<macid);
 2757              		.loc 1 390 39 is_stmt 0 view .LVU697
 2758 00d6 0121     		movs	r1, #1
 2759 00d8 B940     		lsls	r1, r1, r7
 390:../switch_sdk/core/fal/tiger/fal_tiger_ctrlpkt.c ****             dropMask |= (uint32_t)(1UL<<macid);
 2760              		.loc 1 390 22 view .LVU698
 2761 00da 44EA0103 		orr	r3, r4, r1
 2762              	.LVL342:
 391:../switch_sdk/core/fal/tiger/fal_tiger_ctrlpkt.c ****             break;
 2763              		.loc 1 391 13 is_stmt 1 view .LVU699
 391:../switch_sdk/core/fal/tiger/fal_tiger_ctrlpkt.c ****             break;
 2764              		.loc 1 391 22 is_stmt 0 view .LVU700
 2765 00de 42EA0104 		orr	r4, r2, r1
 2766              	.LVL343:
 392:../switch_sdk/core/fal/tiger/fal_tiger_ctrlpkt.c **** 
 2767              		.loc 1 392 13 is_stmt 1 view .LVU701
 2768 00e2 DFE7     		b	.L171
 2769              	.LVL344:
 2770              	.L168:
 395:../switch_sdk/core/fal/tiger/fal_tiger_ctrlpkt.c ****             dropMask |= (uint32_t)(1UL<<macid);
 2771              		.loc 1 395 13 view .LVU702
 395:../switch_sdk/core/fal/tiger/fal_tiger_ctrlpkt.c ****             dropMask |= (uint32_t)(1UL<<macid);
 2772              		.loc 1 395 34 is_stmt 0 view .LVU703
 2773 00e4 0121     		movs	r1, #1
 2774 00e6 B940     		lsls	r1, r1, r7
 2775 00e8 24EA0103 		bic	r3, r4, r1
 2776              	.LVL345:
 396:../switch_sdk/core/fal/tiger/fal_tiger_ctrlpkt.c ****             break;
 2777              		.loc 1 396 13 is_stmt 1 view .LVU704
 396:../switch_sdk/core/fal/tiger/fal_tiger_ctrlpkt.c ****             break;
 2778              		.loc 1 396 22 is_stmt 0 view .LVU705
 2779 00ec 42EA0104 		orr	r4, r2, r1
 2780              	.LVL346:
 397:../switch_sdk/core/fal/tiger/fal_tiger_ctrlpkt.c **** 
 2781              		.loc 1 397 13 is_stmt 1 view .LVU706
 2782 00f0 D8E7     		b	.L171
 2783              	.LVL347:
 2784              	.L166:
 400:../switch_sdk/core/fal/tiger/fal_tiger_ctrlpkt.c ****             dropMask = (uint32_t)CLR_FIELD(dropMask, macid, 1);;
 2785              		.loc 1 400 13 view .LVU707
 400:../switch_sdk/core/fal/tiger/fal_tiger_ctrlpkt.c ****             dropMask = (uint32_t)CLR_FIELD(dropMask, macid, 1);;
 2786              		.loc 1 400 39 is_stmt 0 view .LVU708
 2787 00f2 0121     		movs	r1, #1
 2788 00f4 B940     		lsls	r1, r1, r7
 400:../switch_sdk/core/fal/tiger/fal_tiger_ctrlpkt.c ****             dropMask = (uint32_t)CLR_FIELD(dropMask, macid, 1);;
 2789              		.loc 1 400 22 view .LVU709
 2790 00f6 44EA0103 		orr	r3, r4, r1
 2791              	.LVL348:
 401:../switch_sdk/core/fal/tiger/fal_tiger_ctrlpkt.c ****             break;
 2792              		.loc 1 401 13 is_stmt 1 view .LVU710
 401:../switch_sdk/core/fal/tiger/fal_tiger_ctrlpkt.c ****             break;
 2793              		.loc 1 401 34 is_stmt 0 view .LVU711
 2794 00fa 22EA0104 		bic	r4, r2, r1
 2795              	.LVL349:
 401:../switch_sdk/core/fal/tiger/fal_tiger_ctrlpkt.c ****             break;
 2796              		.loc 1 401 64 is_stmt 1 view .LVU712
 402:../switch_sdk/core/fal/tiger/fal_tiger_ctrlpkt.c **** 
 2797              		.loc 1 402 13 view .LVU713
 2798 00fe D1E7     		b	.L171
 2799              	.LVL350:
 2800              	.L179:
 411:../switch_sdk/core/fal/tiger/fal_tiger_ctrlpkt.c ****     
 2801              		.loc 1 411 5 discriminator 1 view .LVU714
 411:../switch_sdk/core/fal/tiger/fal_tiger_ctrlpkt.c ****     
 2802              		.loc 1 411 5 discriminator 1 view .LVU715
 2803 0100 0D4A     		ldr	r2, .L181+8
 2804 0102 1278     		ldrb	r2, [r2]	@ zero_extendqisi2
 2805 0104 012A     		cmp	r2, #1
 2806 0106 01D8     		bhi	.L180
 2807              	.LVL351:
 2808              	.L172:
 411:../switch_sdk/core/fal/tiger/fal_tiger_ctrlpkt.c ****     
 2809              		.loc 1 411 5 discriminator 5 view .LVU716
 411:../switch_sdk/core/fal/tiger/fal_tiger_ctrlpkt.c ****     
 2810              		.loc 1 411 5 discriminator 5 view .LVU717
 411:../switch_sdk/core/fal/tiger/fal_tiger_ctrlpkt.c ****     
 2811              		.loc 1 411 5 discriminator 5 view .LVU718
 2812 0108 E0B2     		uxtb	r0, r4
 2813 010a 9DE7     		b	.L161
 2814              	.LVL352:
 2815              	.L180:
 411:../switch_sdk/core/fal/tiger/fal_tiger_ctrlpkt.c ****     
 2816              		.loc 1 411 5 discriminator 3 view .LVU719
 2817              	.LBB36:
 411:../switch_sdk/core/fal/tiger/fal_tiger_ctrlpkt.c ****     
 2818              		.loc 1 411 5 discriminator 3 view .LVU720
 2819 010c 142B     		cmp	r3, #20
 2820 010e 28BF     		it	cs
 2821 0110 1423     		movcs	r3, #20
 2822 0112 1A46     		mov	r2, r3
 2823 0114 094B     		ldr	r3, .L181+12
 2824 0116 0093     		str	r3, [sp]
 2825 0118 0D4B     		ldr	r3, .L181+32
 2826 011a 0A49     		ldr	r1, .L181+20
 2827 011c 51F82220 		ldr	r2, [r1, r2, lsl #2]
 2828 0120 0949     		ldr	r1, .L181+24
 2829 0122 8968     		ldr	r1, [r1, #8]
 2830 0124 0948     		ldr	r0, .L181+28
 2831              	.LVL353:
 411:../switch_sdk/core/fal/tiger/fal_tiger_ctrlpkt.c ****     
 2832              		.loc 1 411 5 is_stmt 0 discriminator 3 view .LVU721
 2833 0126 FFF7FEFF 		bl	osal_printf
 2834              	.LVL354:
 2835 012a EDE7     		b	.L172
 2836              	.LVL355:
 2837              	.L175:
 411:../switch_sdk/core/fal/tiger/fal_tiger_ctrlpkt.c ****     
 2838              		.loc 1 411 5 discriminator 3 view .LVU722
 2839              	.LBE36:
 382:../switch_sdk/core/fal/tiger/fal_tiger_ctrlpkt.c ****     {
 2840              		.loc 1 382 5 view .LVU723
 2841 012c 0320     		movs	r0, #3
 2842 012e 8BE7     		b	.L161
 2843              	.L182:
 2844              		.align	2
 2845              	.L181:
 2846 0130 00000000 		.word	gcal_inited
 2847 0134 00000000 		.word	gpSwitchUnit
 2848 0138 00000000 		.word	yt_debug_level
 2849 013c 00000000 		.word	__FUNCTION__.1
 2850 0140 00000000 		.word	.LC11
 2851 0144 00000000 		.word	_yt_errmsg
 2852 0148 00000000 		.word	_yt_prompt_msg
 2853 014c 48000000 		.word	.LC1
 2854 0150 48000000 		.word	.LC12
 2855              		.cfi_endproc
 2856              	.LFE13:
 2858              		.section	.text.fal_tiger_ctrlpkt_lldp_act_get,"ax",%progbits
 2859              		.align	1
 2860              		.global	fal_tiger_ctrlpkt_lldp_act_get
 2861              		.syntax unified
 2862              		.thumb
 2863              		.thumb_func
 2865              	fal_tiger_ctrlpkt_lldp_act_get:
 2866              	.LVL356:
 2867              	.LFB14:
 415:../switch_sdk/core/fal/tiger/fal_tiger_ctrlpkt.c **** 
 416:../switch_sdk/core/fal/tiger/fal_tiger_ctrlpkt.c **** yt_ret_t fal_tiger_ctrlpkt_lldp_act_get(yt_unit_t unit, yt_port_t port, yt_ctrlpkt_l2_action_t *pAc
 417:../switch_sdk/core/fal/tiger/fal_tiger_ctrlpkt.c **** {
 2868              		.loc 1 417 1 is_stmt 1 view -0
 2869              		.cfi_startproc
 2870              		@ args = 0, pretend = 0, frame = 8
 2871              		@ frame_needed = 0, uses_anonymous_args = 0
 2872              		.loc 1 417 1 is_stmt 0 view .LVU725
 2873 0000 70B5     		push	{r4, r5, r6, lr}
 2874              		.cfi_def_cfa_offset 16
 2875              		.cfi_offset 4, -16
 2876              		.cfi_offset 5, -12
 2877              		.cfi_offset 6, -8
 2878              		.cfi_offset 14, -4
 2879 0002 84B0     		sub	sp, sp, #16
 2880              		.cfi_def_cfa_offset 32
 2881 0004 1546     		mov	r5, r2
 418:../switch_sdk/core/fal/tiger/fal_tiger_ctrlpkt.c ****     l2_lldp_per_port_ctrl_t entry;
 2882              		.loc 1 418 5 is_stmt 1 view .LVU726
 419:../switch_sdk/core/fal/tiger/fal_tiger_ctrlpkt.c ****     yt_macid_t macid;
 2883              		.loc 1 419 5 view .LVU727
 420:../switch_sdk/core/fal/tiger/fal_tiger_ctrlpkt.c ****     uint32_t copyMask;
 2884              		.loc 1 420 5 view .LVU728
 421:../switch_sdk/core/fal/tiger/fal_tiger_ctrlpkt.c ****     uint32_t dropMask;
 2885              		.loc 1 421 5 view .LVU729
 422:../switch_sdk/core/fal/tiger/fal_tiger_ctrlpkt.c ****     cmm_err_t ret = CMM_ERR_OK;
 2886              		.loc 1 422 5 view .LVU730
 2887              	.LVL357:
 423:../switch_sdk/core/fal/tiger/fal_tiger_ctrlpkt.c **** 
 424:../switch_sdk/core/fal/tiger/fal_tiger_ctrlpkt.c ****     macid = CAL_YTP_TO_MAC(unit,port);
 2888              		.loc 1 424 5 view .LVU731
 2889              		.loc 1 424 13 is_stmt 0 view .LVU732
 2890 0006 2E4B     		ldr	r3, .L195
 2891 0008 1B78     		ldrb	r3, [r3]	@ zero_extendqisi2
 2892 000a 53B1     		cbz	r3, .L191
 2893              		.loc 1 424 13 discriminator 1 view .LVU733
 2894 000c 2D4B     		ldr	r3, .L195+4
 2895 000e 53F82030 		ldr	r3, [r3, r0, lsl #2]
 2896 0012 1A7D     		ldrb	r2, [r3, #20]	@ zero_extendqisi2
 2897              	.LVL358:
 2898              		.loc 1 424 13 discriminator 1 view .LVU734
 2899 0014 8A42     		cmp	r2, r1
 2900 0016 17D9     		bls	.L192
 2901              		.loc 1 424 13 discriminator 3 view .LVU735
 2902 0018 0631     		adds	r1, r1, #6
 2903              	.LVL359:
 2904              		.loc 1 424 13 discriminator 3 view .LVU736
 2905 001a 53F82130 		ldr	r3, [r3, r1, lsl #2]
 2906 001e 1E78     		ldrb	r6, [r3]	@ zero_extendqisi2
 2907 0020 00E0     		b	.L184
 2908              	.LVL360:
 2909              	.L191:
 2910              		.loc 1 424 13 view .LVU737
 2911 0022 FF26     		movs	r6, #255
 2912              	.LVL361:
 2913              	.L184:
 425:../switch_sdk/core/fal/tiger/fal_tiger_ctrlpkt.c ****     CMM_ERR_CHK(HAL_TBL_REG_READ(unit, L2_LLDP_PER_PORT_CTRLm, 0, sizeof(l2_lldp_per_port_ctrl_t), 
 2914              		.loc 1 425 5 is_stmt 1 discriminator 6 view .LVU738
 2915              		.loc 1 425 5 discriminator 6 view .LVU739
 2916 0024 03AB     		add	r3, sp, #12
 2917 0026 0093     		str	r3, [sp]
 2918 0028 0423     		movs	r3, #4
 2919 002a 0022     		movs	r2, #0
 2920 002c 7721     		movs	r1, #119
 2921 002e FFF7FEFF 		bl	hal_table_reg_read
 2922              	.LVL362:
 2923              		.loc 1 425 5 is_stmt 0 discriminator 6 view .LVU740
 2924 0032 0446     		mov	r4, r0
 2925              	.LVL363:
 2926              		.loc 1 425 5 discriminator 6 view .LVU741
 2927 0034 10F0FF03 		ands	r3, r0, #255
 2928 0038 18D0     		beq	.L185
 2929              		.loc 1 425 5 is_stmt 1 discriminator 1 view .LVU742
 2930              		.loc 1 425 5 discriminator 1 view .LVU743
 2931 003a 234A     		ldr	r2, .L195+8
 2932 003c 1278     		ldrb	r2, [r2]	@ zero_extendqisi2
 2933 003e 012A     		cmp	r2, #1
 2934 0040 04D8     		bhi	.L194
 2935              	.LVL364:
 2936              	.L186:
 2937              		.loc 1 425 5 discriminator 5 view .LVU744
 2938              		.loc 1 425 5 discriminator 5 view .LVU745
 2939              		.loc 1 425 5 discriminator 5 view .LVU746
 2940 0042 E0B2     		uxtb	r0, r4
 2941              	.L183:
 426:../switch_sdk/core/fal/tiger/fal_tiger_ctrlpkt.c ****         
 427:../switch_sdk/core/fal/tiger/fal_tiger_ctrlpkt.c ****     HAL_FIELD_GET(L2_LLDP_PER_PORT_CTRLm, L2_LLDP_PER_PORT_CTRL_COPY_TO_CPUf, &entry, &copyMask);
 428:../switch_sdk/core/fal/tiger/fal_tiger_ctrlpkt.c ****     HAL_FIELD_GET(L2_LLDP_PER_PORT_CTRLm, L2_LLDP_PER_PORT_CTRL_DROPf, &entry, &dropMask);
 429:../switch_sdk/core/fal/tiger/fal_tiger_ctrlpkt.c **** 
 430:../switch_sdk/core/fal/tiger/fal_tiger_ctrlpkt.c ****     if (copyMask & (1UL<<macid))
 431:../switch_sdk/core/fal/tiger/fal_tiger_ctrlpkt.c ****     {
 432:../switch_sdk/core/fal/tiger/fal_tiger_ctrlpkt.c ****         if (dropMask & (1UL<<macid))
 433:../switch_sdk/core/fal/tiger/fal_tiger_ctrlpkt.c ****         {
 434:../switch_sdk/core/fal/tiger/fal_tiger_ctrlpkt.c ****             *pAct_ctrl = L2_ACTION_TRAP;
 435:../switch_sdk/core/fal/tiger/fal_tiger_ctrlpkt.c ****         }
 436:../switch_sdk/core/fal/tiger/fal_tiger_ctrlpkt.c ****         else
 437:../switch_sdk/core/fal/tiger/fal_tiger_ctrlpkt.c ****         {
 438:../switch_sdk/core/fal/tiger/fal_tiger_ctrlpkt.c ****             *pAct_ctrl = L2_ACTION_COPY;
 439:../switch_sdk/core/fal/tiger/fal_tiger_ctrlpkt.c ****         }
 440:../switch_sdk/core/fal/tiger/fal_tiger_ctrlpkt.c ****     }
 441:../switch_sdk/core/fal/tiger/fal_tiger_ctrlpkt.c ****     else
 442:../switch_sdk/core/fal/tiger/fal_tiger_ctrlpkt.c ****     {
 443:../switch_sdk/core/fal/tiger/fal_tiger_ctrlpkt.c ****         if (dropMask & (1UL<<macid))
 444:../switch_sdk/core/fal/tiger/fal_tiger_ctrlpkt.c ****         {
 445:../switch_sdk/core/fal/tiger/fal_tiger_ctrlpkt.c ****             *pAct_ctrl = L2_ACTION_DROP;
 446:../switch_sdk/core/fal/tiger/fal_tiger_ctrlpkt.c ****         }
 447:../switch_sdk/core/fal/tiger/fal_tiger_ctrlpkt.c ****         else
 448:../switch_sdk/core/fal/tiger/fal_tiger_ctrlpkt.c ****         {
 449:../switch_sdk/core/fal/tiger/fal_tiger_ctrlpkt.c ****             *pAct_ctrl = L2_ACTION_FWD;
 450:../switch_sdk/core/fal/tiger/fal_tiger_ctrlpkt.c ****         }
 451:../switch_sdk/core/fal/tiger/fal_tiger_ctrlpkt.c ****     }
 452:../switch_sdk/core/fal/tiger/fal_tiger_ctrlpkt.c ****    
 453:../switch_sdk/core/fal/tiger/fal_tiger_ctrlpkt.c ****     return CMM_ERR_OK;
 454:../switch_sdk/core/fal/tiger/fal_tiger_ctrlpkt.c **** }
 2942              		.loc 1 454 1 is_stmt 0 view .LVU747
 2943 0044 04B0     		add	sp, sp, #16
 2944              		.cfi_remember_state
 2945              		.cfi_def_cfa_offset 16
 2946              		@ sp needed
 2947 0046 70BD     		pop	{r4, r5, r6, pc}
 2948              	.LVL365:
 2949              	.L192:
 2950              		.cfi_restore_state
 424:../switch_sdk/core/fal/tiger/fal_tiger_ctrlpkt.c ****     CMM_ERR_CHK(HAL_TBL_REG_READ(unit, L2_LLDP_PER_PORT_CTRLm, 0, sizeof(l2_lldp_per_port_ctrl_t), 
 2951              		.loc 1 424 13 view .LVU748
 2952 0048 FF26     		movs	r6, #255
 2953 004a EBE7     		b	.L184
 2954              	.LVL366:
 2955              	.L194:
 425:../switch_sdk/core/fal/tiger/fal_tiger_ctrlpkt.c ****     CMM_ERR_CHK(HAL_TBL_REG_READ(unit, L2_LLDP_PER_PORT_CTRLm, 0, sizeof(l2_lldp_per_port_ctrl_t), 
 2956              		.loc 1 425 5 is_stmt 1 discriminator 3 view .LVU749
 2957              	.LBB37:
 425:../switch_sdk/core/fal/tiger/fal_tiger_ctrlpkt.c ****     CMM_ERR_CHK(HAL_TBL_REG_READ(unit, L2_LLDP_PER_PORT_CTRLm, 0, sizeof(l2_lldp_per_port_ctrl_t), 
 2958              		.loc 1 425 5 discriminator 3 view .LVU750
 2959 004c 142B     		cmp	r3, #20
 2960 004e 28BF     		it	cs
 2961 0050 1423     		movcs	r3, #20
 2962 0052 1A46     		mov	r2, r3
 2963 0054 1D4B     		ldr	r3, .L195+12
 2964 0056 0093     		str	r3, [sp]
 2965 0058 1D4B     		ldr	r3, .L195+16
 2966 005a 1E49     		ldr	r1, .L195+20
 2967 005c 51F82220 		ldr	r2, [r1, r2, lsl #2]
 2968 0060 1D49     		ldr	r1, .L195+24
 2969 0062 8968     		ldr	r1, [r1, #8]
 2970 0064 1D48     		ldr	r0, .L195+28
 2971              	.LVL367:
 425:../switch_sdk/core/fal/tiger/fal_tiger_ctrlpkt.c ****     CMM_ERR_CHK(HAL_TBL_REG_READ(unit, L2_LLDP_PER_PORT_CTRLm, 0, sizeof(l2_lldp_per_port_ctrl_t), 
 2972              		.loc 1 425 5 is_stmt 0 discriminator 3 view .LVU751
 2973 0066 FFF7FEFF 		bl	osal_printf
 2974              	.LVL368:
 2975 006a EAE7     		b	.L186
 2976              	.LVL369:
 2977              	.L185:
 425:../switch_sdk/core/fal/tiger/fal_tiger_ctrlpkt.c ****     CMM_ERR_CHK(HAL_TBL_REG_READ(unit, L2_LLDP_PER_PORT_CTRLm, 0, sizeof(l2_lldp_per_port_ctrl_t), 
 2978              		.loc 1 425 5 discriminator 3 view .LVU752
 2979              	.LBE37:
 425:../switch_sdk/core/fal/tiger/fal_tiger_ctrlpkt.c ****     CMM_ERR_CHK(HAL_TBL_REG_READ(unit, L2_LLDP_PER_PORT_CTRLm, 0, sizeof(l2_lldp_per_port_ctrl_t), 
 2980              		.loc 1 425 5 is_stmt 1 discriminator 2 view .LVU753
 427:../switch_sdk/core/fal/tiger/fal_tiger_ctrlpkt.c ****     HAL_FIELD_GET(L2_LLDP_PER_PORT_CTRLm, L2_LLDP_PER_PORT_CTRL_DROPf, &entry, &dropMask);
 2981              		.loc 1 427 5 discriminator 2 view .LVU754
 2982              	.LBB38:
 427:../switch_sdk/core/fal/tiger/fal_tiger_ctrlpkt.c ****     HAL_FIELD_GET(L2_LLDP_PER_PORT_CTRLm, L2_LLDP_PER_PORT_CTRL_DROPf, &entry, &dropMask);
 2983              		.loc 1 427 5 discriminator 2 view .LVU755
 427:../switch_sdk/core/fal/tiger/fal_tiger_ctrlpkt.c ****     HAL_FIELD_GET(L2_LLDP_PER_PORT_CTRLm, L2_LLDP_PER_PORT_CTRL_DROPf, &entry, &dropMask);
 2984              		.loc 1 427 5 discriminator 2 view .LVU756
 2985 006c 02AB     		add	r3, sp, #8
 2986 006e 03AA     		add	r2, sp, #12
 2987 0070 0121     		movs	r1, #1
 2988 0072 7720     		movs	r0, #119
 2989              	.LVL370:
 427:../switch_sdk/core/fal/tiger/fal_tiger_ctrlpkt.c ****     HAL_FIELD_GET(L2_LLDP_PER_PORT_CTRLm, L2_LLDP_PER_PORT_CTRL_DROPf, &entry, &dropMask);
 2990              		.loc 1 427 5 is_stmt 0 discriminator 2 view .LVU757
 2991 0074 FFF7FEFF 		bl	hal_tbl_reg_field_get
 2992              	.LVL371:
 427:../switch_sdk/core/fal/tiger/fal_tiger_ctrlpkt.c ****     HAL_FIELD_GET(L2_LLDP_PER_PORT_CTRLm, L2_LLDP_PER_PORT_CTRL_DROPf, &entry, &dropMask);
 2993              		.loc 1 427 5 is_stmt 1 discriminator 2 view .LVU758
 2994 0078 029C     		ldr	r4, [sp, #8]
 2995              	.LVL372:
 427:../switch_sdk/core/fal/tiger/fal_tiger_ctrlpkt.c ****     HAL_FIELD_GET(L2_LLDP_PER_PORT_CTRLm, L2_LLDP_PER_PORT_CTRL_DROPf, &entry, &dropMask);
 2996              		.loc 1 427 5 is_stmt 0 discriminator 2 view .LVU759
 2997              	.LBE38:
 427:../switch_sdk/core/fal/tiger/fal_tiger_ctrlpkt.c ****     HAL_FIELD_GET(L2_LLDP_PER_PORT_CTRLm, L2_LLDP_PER_PORT_CTRL_DROPf, &entry, &dropMask);
 2998              		.loc 1 427 5 is_stmt 1 discriminator 2 view .LVU760
 428:../switch_sdk/core/fal/tiger/fal_tiger_ctrlpkt.c **** 
 2999              		.loc 1 428 5 discriminator 2 view .LVU761
 3000              	.LBB39:
 428:../switch_sdk/core/fal/tiger/fal_tiger_ctrlpkt.c **** 
 3001              		.loc 1 428 5 discriminator 2 view .LVU762
 428:../switch_sdk/core/fal/tiger/fal_tiger_ctrlpkt.c **** 
 3002              		.loc 1 428 5 discriminator 2 view .LVU763
 3003 007a 02AB     		add	r3, sp, #8
 3004 007c 03AA     		add	r2, sp, #12
 3005 007e 0021     		movs	r1, #0
 3006 0080 7720     		movs	r0, #119
 3007 0082 FFF7FEFF 		bl	hal_tbl_reg_field_get
 3008              	.LVL373:
 428:../switch_sdk/core/fal/tiger/fal_tiger_ctrlpkt.c **** 
 3009              		.loc 1 428 5 discriminator 2 view .LVU764
 3010 0086 029B     		ldr	r3, [sp, #8]
 3011              	.LVL374:
 428:../switch_sdk/core/fal/tiger/fal_tiger_ctrlpkt.c **** 
 3012              		.loc 1 428 5 is_stmt 0 discriminator 2 view .LVU765
 3013              	.LBE39:
 428:../switch_sdk/core/fal/tiger/fal_tiger_ctrlpkt.c **** 
 3014              		.loc 1 428 5 is_stmt 1 discriminator 2 view .LVU766
 430:../switch_sdk/core/fal/tiger/fal_tiger_ctrlpkt.c ****     {
 3015              		.loc 1 430 5 discriminator 2 view .LVU767
 430:../switch_sdk/core/fal/tiger/fal_tiger_ctrlpkt.c ****     {
 3016              		.loc 1 430 9 is_stmt 0 discriminator 2 view .LVU768
 3017 0088 24FA06F0 		lsr	r0, r4, r6
 430:../switch_sdk/core/fal/tiger/fal_tiger_ctrlpkt.c ****     {
 3018              		.loc 1 430 8 discriminator 2 view .LVU769
 3019 008c 10F00100 		ands	r0, r0, #1
 3020 0090 0AD0     		beq	.L188
 432:../switch_sdk/core/fal/tiger/fal_tiger_ctrlpkt.c ****         {
 3021              		.loc 1 432 9 is_stmt 1 view .LVU770
 432:../switch_sdk/core/fal/tiger/fal_tiger_ctrlpkt.c ****         {
 3022              		.loc 1 432 13 is_stmt 0 view .LVU771
 3023 0092 F340     		lsrs	r3, r3, r6
 3024              	.LVL375:
 432:../switch_sdk/core/fal/tiger/fal_tiger_ctrlpkt.c ****         {
 3025              		.loc 1 432 12 view .LVU772
 3026 0094 13F00100 		ands	r0, r3, #1
 3027 0098 03D0     		beq	.L189
 434:../switch_sdk/core/fal/tiger/fal_tiger_ctrlpkt.c ****         }
 3028              		.loc 1 434 13 is_stmt 1 view .LVU773
 434:../switch_sdk/core/fal/tiger/fal_tiger_ctrlpkt.c ****         }
 3029              		.loc 1 434 24 is_stmt 0 view .LVU774
 3030 009a 0123     		movs	r3, #1
 3031 009c 2B70     		strb	r3, [r5]
 3032              	.LVL376:
 453:../switch_sdk/core/fal/tiger/fal_tiger_ctrlpkt.c **** }
 3033              		.loc 1 453 12 view .LVU775
 3034 009e 0020     		movs	r0, #0
 3035 00a0 D0E7     		b	.L183
 3036              	.LVL377:
 3037              	.L189:
 438:../switch_sdk/core/fal/tiger/fal_tiger_ctrlpkt.c ****         }
 3038              		.loc 1 438 13 is_stmt 1 view .LVU776
 438:../switch_sdk/core/fal/tiger/fal_tiger_ctrlpkt.c ****         }
 3039              		.loc 1 438 24 is_stmt 0 view .LVU777
 3040 00a2 0323     		movs	r3, #3
 3041 00a4 2B70     		strb	r3, [r5]
 3042              	.LVL378:
 438:../switch_sdk/core/fal/tiger/fal_tiger_ctrlpkt.c ****         }
 3043              		.loc 1 438 24 view .LVU778
 3044 00a6 CDE7     		b	.L183
 3045              	.LVL379:
 3046              	.L188:
 443:../switch_sdk/core/fal/tiger/fal_tiger_ctrlpkt.c ****         {
 3047              		.loc 1 443 9 is_stmt 1 view .LVU779
 443:../switch_sdk/core/fal/tiger/fal_tiger_ctrlpkt.c ****         {
 3048              		.loc 1 443 13 is_stmt 0 view .LVU780
 3049 00a8 F340     		lsrs	r3, r3, r6
 3050              	.LVL380:
 443:../switch_sdk/core/fal/tiger/fal_tiger_ctrlpkt.c ****         {
 3051              		.loc 1 443 12 view .LVU781
 3052 00aa 13F00103 		ands	r3, r3, #1
 3053 00ae 02D0     		beq	.L190
 445:../switch_sdk/core/fal/tiger/fal_tiger_ctrlpkt.c ****         }
 3054              		.loc 1 445 13 is_stmt 1 view .LVU782
 445:../switch_sdk/core/fal/tiger/fal_tiger_ctrlpkt.c ****         }
 3055              		.loc 1 445 24 is_stmt 0 view .LVU783
 3056 00b0 0223     		movs	r3, #2
 3057 00b2 2B70     		strb	r3, [r5]
 3058              	.LVL381:
 445:../switch_sdk/core/fal/tiger/fal_tiger_ctrlpkt.c ****         }
 3059              		.loc 1 445 24 view .LVU784
 3060 00b4 C6E7     		b	.L183
 3061              	.LVL382:
 3062              	.L190:
 449:../switch_sdk/core/fal/tiger/fal_tiger_ctrlpkt.c ****         }
 3063              		.loc 1 449 13 is_stmt 1 view .LVU785
 449:../switch_sdk/core/fal/tiger/fal_tiger_ctrlpkt.c ****         }
 3064              		.loc 1 449 24 is_stmt 0 view .LVU786
 3065 00b6 0022     		movs	r2, #0
 3066 00b8 2A70     		strb	r2, [r5]
 3067              	.LVL383:
 453:../switch_sdk/core/fal/tiger/fal_tiger_ctrlpkt.c **** }
 3068              		.loc 1 453 12 view .LVU787
 3069 00ba 1846     		mov	r0, r3
 3070 00bc C2E7     		b	.L183
 3071              	.L196:
 3072 00be 00BF     		.align	2
 3073              	.L195:
 3074 00c0 00000000 		.word	gcal_inited
 3075 00c4 00000000 		.word	gpSwitchUnit
 3076 00c8 00000000 		.word	yt_debug_level
 3077 00cc 00000000 		.word	__FUNCTION__.0
 3078 00d0 00000000 		.word	.LC11
 3079 00d4 00000000 		.word	_yt_errmsg
 3080 00d8 00000000 		.word	_yt_prompt_msg
 3081 00dc 48000000 		.word	.LC1
 3082              		.cfi_endproc
 3083              	.LFE14:
 3085              		.section	.rodata.__FUNCTION__.0,"a"
 3086              		.align	2
 3089              	__FUNCTION__.0:
 3090 0000 66616C5F 		.ascii	"fal_tiger_ctrlpkt_lldp_act_get\000"
 3090      74696765 
 3090      725F6374 
 3090      726C706B 
 3090      745F6C6C 
 3091              		.section	.rodata.__FUNCTION__.1,"a"
 3092              		.align	2
 3095              	__FUNCTION__.1:
 3096 0000 66616C5F 		.ascii	"fal_tiger_ctrlpkt_lldp_act_set\000"
 3096      74696765 
 3096      725F6374 
 3096      726C706B 
 3096      745F6C6C 
 3097              		.section	.rodata.__FUNCTION__.2,"a"
 3098              		.align	2
 3101              	__FUNCTION__.2:
 3102 0000 66616C5F 		.ascii	"fal_tiger_ctrlpkt_lldp_eee_act_get\000"
 3102      74696765 
 3102      725F6374 
 3102      726C706B 
 3102      745F6C6C 
 3103              		.section	.rodata.__FUNCTION__.3,"a"
 3104              		.align	2
 3107              	__FUNCTION__.3:
 3108 0000 66616C5F 		.ascii	"fal_tiger_ctrlpkt_lldp_eee_act_set\000"
 3108      74696765 
 3108      725F6374 
 3108      726C706B 
 3108      745F6C6C 
 3109              		.section	.rodata.__FUNCTION__.4,"a"
 3110              		.align	2
 3113              	__FUNCTION__.4:
 3114 0000 66616C5F 		.ascii	"fal_tiger_ctrlpkt_nd_act_get\000"
 3114      74696765 
 3114      725F6374 
 3114      726C706B 
 3114      745F6E64 
 3115              		.section	.rodata.__FUNCTION__.5,"a"
 3116              		.align	2
 3119              	__FUNCTION__.5:
 3120 0000 66616C5F 		.ascii	"fal_tiger_ctrlpkt_nd_act_set\000"
 3120      74696765 
 3120      725F6374 
 3120      726C706B 
 3120      745F6E64 
 3121              		.section	.rodata.__FUNCTION__.6,"a"
 3122              		.align	2
 3125              	__FUNCTION__.6:
 3126 0000 66616C5F 		.ascii	"fal_tiger_ctrlpkt_arp_act_get\000"
 3126      74696765 
 3126      725F6374 
 3126      726C706B 
 3126      745F6172 
 3127              		.section	.rodata.__FUNCTION__.7,"a"
 3128              		.align	2
 3131              	__FUNCTION__.7:
 3132 0000 66616C5F 		.ascii	"fal_tiger_ctrlpkt_arp_act_set\000"
 3132      74696765 
 3132      725F6374 
 3132      726C706B 
 3132      745F6172 
 3133              		.section	.rodata.__FUNCTION__.8,"a"
 3134              		.align	2
 3137              	__FUNCTION__.8:
 3138 0000 66616C5F 		.ascii	"fal_tiger_ctrlpkt_unknown_mcast_act_get\000"
 3138      74696765 
 3138      725F6374 
 3138      726C706B 
 3138      745F756E 
 3139              		.section	.rodata.__FUNCTION__.9,"a"
 3140              		.align	2
 3143              	__FUNCTION__.9:
 3144 0000 66616C5F 		.ascii	"fal_tiger_ctrlpkt_unknown_mcast_act_set\000"
 3144      74696765 
 3144      725F6374 
 3144      726C706B 
 3144      745F756E 
 3145              		.section	.rodata.__FUNCTION__.10,"a"
 3146              		.align	2
 3149              	__FUNCTION__.10:
 3150 0000 66616C5F 		.ascii	"fal_tiger_ctrlpkt_unknown_ucast_act_get\000"
 3150      74696765 
 3150      725F6374 
 3150      726C706B 
 3150      745F756E 
 3151              		.section	.rodata.__FUNCTION__.11,"a"
 3152              		.align	2
 3155              	__FUNCTION__.11:
 3156 0000 66616C5F 		.ascii	"fal_tiger_ctrlpkt_unknown_ucast_act_set\000"
 3156      74696765 
 3156      725F6374 
 3156      726C706B 
 3156      745F756E 
 3157              		.text
 3158              	.Letext0:
 3159              		.file 2 "C:\\Users\\Dmitriy\\Desktop\\GD32F10x\\switch_sdk\\common\\include/yt_types.h"
 3160              		.file 3 "C:\\Users\\Dmitriy\\Desktop\\GD32F10x\\switch_sdk\\common\\include/yt_error.h"
 3161              		.file 4 "C:\\Users\\Dmitriy\\Desktop\\GD32F10x\\switch_sdk\\core\\fal\\chipdef/chipdef.h"
 3162              		.file 5 "C:\\Users\\Dmitriy\\Desktop\\GD32F10x\\switch_sdk\\core\\cal/cal_bprofile.h"
 3163              		.file 6 "C:\\Users\\Dmitriy\\Desktop\\GD32F10x\\switch_sdk\\core\\cal/cal_mgm.h"
 3164              		.file 7 "C:\\Users\\Dmitriy\\Desktop\\GD32F10x\\switch_sdk\\include/yt_ctrlpkt.h"
 3165              		.file 8 "../switch_sdk/core/fal/tiger/fal_tiger_entry.h"
 3166              		.file 9 "C:\\Users\\Dmitriy\\Desktop\\GD32F10x\\switch_sdk\\core\\hal/hal_mem.h"