   1              		.cpu cortex-m3
   2              		.arch armv7-m
   3              		.fpu softvfp
   4              		.eabi_attribute 20, 1
   5              		.eabi_attribute 21, 1
   6              		.eabi_attribute 23, 3
   7              		.eabi_attribute 24, 1
   8              		.eabi_attribute 25, 1
   9              		.eabi_attribute 26, 1
  10              		.eabi_attribute 30, 1
  11              		.eabi_attribute 34, 1
  12              		.eabi_attribute 18, 4
  13              		.file	"fal_tiger_nic.c"
  14              		.text
  15              	.Ltext0:
  16              		.cfi_sections	.debug_frame
  17              		.file 1 "../switch_sdk/core/fal/tiger/fal_tiger_nic.c"
  18              		.section	.rodata.fal_tiger_nic_init.str1.4,"aMS",%progbits,1
  19              		.align	2
  20              	.LC0:
  21 0000 68616C5F 		.ascii	"hal_table_reg_read(unit,124,10,sizeof(l2_learn_per_"
  21      7461626C 
  21      655F7265 
  21      675F7265 
  21      61642875 
  22 0033 706F7274 		.ascii	"port_ctrl),&l2_learn_per_port_ctrl)\000"
  22      5F637472 
  22      6C292C26 
  22      6C325F6C 
  22      6561726E 
  23 0057 00       		.align	2
  24              	.LC1:
  25 0058 25732573 		.ascii	"%s%s of \"%s\" in %s\015\012\000"
  25      206F6620 
  25      22257322 
  25      20696E20 
  25      25730D0A 
  26 006d 000000   		.align	2
  27              	.LC2:
  28 0070 68616C5F 		.ascii	"hal_table_reg_write(unit,124,10,sizeof(l2_learn_per"
  28      7461626C 
  28      655F7265 
  28      675F7772 
  28      69746528 
  29 00a3 5F706F72 		.ascii	"_port_ctrl),&l2_learn_per_port_ctrl)\000"
  29      745F6374 
  29      726C292C 
  29      266C325F 
  29      6C656172 
  30              		.section	.text.fal_tiger_nic_init,"ax",%progbits
  31              		.align	1
  32              		.global	fal_tiger_nic_init
  33              		.syntax unified
  34              		.thumb
  35              		.thumb_func
  37              	fal_tiger_nic_init:
  38              	.LVL0:
  39              	.LFB3:
   1:../switch_sdk/core/fal/tiger/fal_tiger_nic.c **** /*
   2:../switch_sdk/core/fal/tiger/fal_tiger_nic.c ****  * Include Files
   3:../switch_sdk/core/fal/tiger/fal_tiger_nic.c ****  */
   4:../switch_sdk/core/fal/tiger/fal_tiger_nic.c **** #include "yt_error.h"
   5:../switch_sdk/core/fal/tiger/fal_tiger_nic.c **** //#include "osal_mem.h"
   6:../switch_sdk/core/fal/tiger/fal_tiger_nic.c **** #include "hal_mem.h"
   7:../switch_sdk/core/fal/tiger/fal_tiger_nic.c **** #include "fal_tiger_struct.h"
   8:../switch_sdk/core/fal/tiger/fal_tiger_nic.c **** #include "fal_tiger_entry.h"
   9:../switch_sdk/core/fal/tiger/fal_tiger_nic.c **** #include "fal_tiger_mem.h"
  10:../switch_sdk/core/fal/tiger/fal_tiger_nic.c **** #include "fal_tiger_nic.h"
  11:../switch_sdk/core/fal/tiger/fal_tiger_nic.c **** #include "fal_tiger_port.h"
  12:../switch_sdk/core/fal/tiger/fal_tiger_nic.c **** #include "fal_tiger_l2.h"
  13:../switch_sdk/core/fal/tiger/fal_tiger_nic.c **** #include "fal_tiger_vlan.h"
  14:../switch_sdk/core/fal/tiger/fal_tiger_nic.c **** #include "fal_tiger_l2.h"
  15:../switch_sdk/core/fal/tiger/fal_tiger_nic.c **** #ifdef INTER_MCU
  16:../switch_sdk/core/fal/tiger/fal_tiger_nic.c **** #include "eth_export.h"
  17:../switch_sdk/core/fal/tiger/fal_tiger_nic.c **** #endif
  18:../switch_sdk/core/fal/tiger/fal_tiger_nic.c **** 
  19:../switch_sdk/core/fal/tiger/fal_tiger_nic.c **** yt_ret_t  fal_tiger_nic_init(yt_unit_t unit)
  20:../switch_sdk/core/fal/tiger/fal_tiger_nic.c **** {
  40              		.loc 1 20 1 view -0
  41              		.cfi_startproc
  42              		@ args = 0, pretend = 0, frame = 8
  43              		@ frame_needed = 0, uses_anonymous_args = 0
  44              		.loc 1 20 1 is_stmt 0 view .LVU1
  45 0000 30B5     		push	{r4, r5, lr}
  46              		.cfi_def_cfa_offset 12
  47              		.cfi_offset 4, -12
  48              		.cfi_offset 5, -8
  49              		.cfi_offset 14, -4
  50 0002 85B0     		sub	sp, sp, #20
  51              		.cfi_def_cfa_offset 32
  52 0004 0546     		mov	r5, r0
  21:../switch_sdk/core/fal/tiger/fal_tiger_nic.c ****     cmm_err_t ret = CMM_ERR_OK;
  53              		.loc 1 21 5 is_stmt 1 view .LVU2
  54              	.LVL1:
  22:../switch_sdk/core/fal/tiger/fal_tiger_nic.c ****     l2_learn_per_port_ctrln_t l2_learn_per_port_ctrl;
  55              		.loc 1 22 5 view .LVU3
  23:../switch_sdk/core/fal/tiger/fal_tiger_nic.c **** 
  24:../switch_sdk/core/fal/tiger/fal_tiger_nic.c ****     CMM_ERR_CHK(HAL_TBL_REG_READ(unit, L2_LEARN_PER_PORT_CTRLNm, FAL_INTERNAL_CPU_MACID, sizeof(l2_
  56              		.loc 1 24 5 view .LVU4
  57              		.loc 1 24 5 view .LVU5
  58 0006 03AB     		add	r3, sp, #12
  59 0008 0093     		str	r3, [sp]
  60 000a 0423     		movs	r3, #4
  61 000c 0A22     		movs	r2, #10
  62 000e 7C21     		movs	r1, #124
  63 0010 FFF7FEFF 		bl	hal_table_reg_read
  64              	.LVL2:
  65              		.loc 1 24 5 is_stmt 0 view .LVU6
  66 0014 10F0FF03 		ands	r3, r0, #255
  67 0018 17D0     		beq	.L2
  68 001a 0446     		mov	r4, r0
  69              		.loc 1 24 5 is_stmt 1 discriminator 1 view .LVU7
  70              		.loc 1 24 5 discriminator 1 view .LVU8
  71 001c 204A     		ldr	r2, .L11
  72 001e 1278     		ldrb	r2, [r2]	@ zero_extendqisi2
  73 0020 012A     		cmp	r2, #1
  74 0022 02D8     		bhi	.L8
  75              	.LVL3:
  76              	.L3:
  77              		.loc 1 24 5 discriminator 5 view .LVU9
  78              		.loc 1 24 5 discriminator 5 view .LVU10
  79              		.loc 1 24 5 discriminator 5 view .LVU11
  80 0024 E0B2     		uxtb	r0, r4
  81              	.LVL4:
  82              	.L1:
  25:../switch_sdk/core/fal/tiger/fal_tiger_nic.c ****     /* disable internal cpu port learn fdb*/
  26:../switch_sdk/core/fal/tiger/fal_tiger_nic.c ****     HAL_FIELD_SET(L2_LEARN_PER_PORT_CTRLNm, L2_LEARN_PER_PORT_CTRLN_LEARN_DISABLEf, &l2_learn_per_p
  27:../switch_sdk/core/fal/tiger/fal_tiger_nic.c ****     CMM_ERR_CHK(HAL_TBL_REG_WRITE(unit, L2_LEARN_PER_PORT_CTRLNm, FAL_INTERNAL_CPU_MACID, sizeof(l2
  28:../switch_sdk/core/fal/tiger/fal_tiger_nic.c **** 
  29:../switch_sdk/core/fal/tiger/fal_tiger_nic.c ****     return CMM_ERR_OK;
  30:../switch_sdk/core/fal/tiger/fal_tiger_nic.c **** }
  83              		.loc 1 30 1 is_stmt 0 view .LVU12
  84 0026 05B0     		add	sp, sp, #20
  85              		.cfi_remember_state
  86              		.cfi_def_cfa_offset 12
  87              		@ sp needed
  88 0028 30BD     		pop	{r4, r5, pc}
  89              	.LVL5:
  90              	.L8:
  91              		.cfi_restore_state
  24:../switch_sdk/core/fal/tiger/fal_tiger_nic.c ****     /* disable internal cpu port learn fdb*/
  92              		.loc 1 24 5 is_stmt 1 discriminator 3 view .LVU13
  93              	.LBB2:
  24:../switch_sdk/core/fal/tiger/fal_tiger_nic.c ****     /* disable internal cpu port learn fdb*/
  94              		.loc 1 24 5 discriminator 3 view .LVU14
  95 002a 142B     		cmp	r3, #20
  96 002c 28BF     		it	cs
  97 002e 1423     		movcs	r3, #20
  98 0030 1A46     		mov	r2, r3
  99 0032 1C4B     		ldr	r3, .L11+4
 100 0034 0093     		str	r3, [sp]
 101 0036 1C4B     		ldr	r3, .L11+8
 102 0038 1C49     		ldr	r1, .L11+12
 103 003a 51F82220 		ldr	r2, [r1, r2, lsl #2]
 104 003e 1C49     		ldr	r1, .L11+16
 105 0040 8968     		ldr	r1, [r1, #8]
 106 0042 1C48     		ldr	r0, .L11+20
 107              	.LVL6:
  24:../switch_sdk/core/fal/tiger/fal_tiger_nic.c ****     /* disable internal cpu port learn fdb*/
 108              		.loc 1 24 5 is_stmt 0 discriminator 3 view .LVU15
 109 0044 FFF7FEFF 		bl	osal_printf
 110              	.LVL7:
 111 0048 ECE7     		b	.L3
 112              	.LVL8:
 113              	.L2:
  24:../switch_sdk/core/fal/tiger/fal_tiger_nic.c ****     /* disable internal cpu port learn fdb*/
 114              		.loc 1 24 5 discriminator 3 view .LVU16
 115              	.LBE2:
  24:../switch_sdk/core/fal/tiger/fal_tiger_nic.c ****     /* disable internal cpu port learn fdb*/
 116              		.loc 1 24 5 is_stmt 1 discriminator 2 view .LVU17
  26:../switch_sdk/core/fal/tiger/fal_tiger_nic.c ****     CMM_ERR_CHK(HAL_TBL_REG_WRITE(unit, L2_LEARN_PER_PORT_CTRLNm, FAL_INTERNAL_CPU_MACID, sizeof(l2
 117              		.loc 1 26 5 discriminator 2 view .LVU18
 118 004a 03AC     		add	r4, sp, #12
 119 004c 0123     		movs	r3, #1
 120 004e 2246     		mov	r2, r4
 121 0050 0521     		movs	r1, #5
 122 0052 7C20     		movs	r0, #124
 123              	.LVL9:
  26:../switch_sdk/core/fal/tiger/fal_tiger_nic.c ****     CMM_ERR_CHK(HAL_TBL_REG_WRITE(unit, L2_LEARN_PER_PORT_CTRLNm, FAL_INTERNAL_CPU_MACID, sizeof(l2
 124              		.loc 1 26 5 is_stmt 0 discriminator 2 view .LVU19
 125 0054 FFF7FEFF 		bl	hal_tbl_reg_field_set
 126              	.LVL10:
  27:../switch_sdk/core/fal/tiger/fal_tiger_nic.c **** 
 127              		.loc 1 27 5 is_stmt 1 discriminator 2 view .LVU20
  27:../switch_sdk/core/fal/tiger/fal_tiger_nic.c **** 
 128              		.loc 1 27 5 discriminator 2 view .LVU21
 129 0058 0094     		str	r4, [sp]
 130 005a 0423     		movs	r3, #4
 131 005c 0A22     		movs	r2, #10
 132 005e 7C21     		movs	r1, #124
 133 0060 2846     		mov	r0, r5
 134 0062 FFF7FEFF 		bl	hal_table_reg_write
 135              	.LVL11:
 136 0066 0446     		mov	r4, r0
 137              	.LVL12:
  27:../switch_sdk/core/fal/tiger/fal_tiger_nic.c **** 
 138              		.loc 1 27 5 is_stmt 0 discriminator 2 view .LVU22
 139 0068 10F0FF03 		ands	r3, r0, #255
 140 006c 01D1     		bne	.L9
  29:../switch_sdk/core/fal/tiger/fal_tiger_nic.c **** }
 141              		.loc 1 29 12 view .LVU23
 142 006e 0020     		movs	r0, #0
 143              	.LVL13:
  29:../switch_sdk/core/fal/tiger/fal_tiger_nic.c **** }
 144              		.loc 1 29 12 view .LVU24
 145 0070 D9E7     		b	.L1
 146              	.LVL14:
 147              	.L9:
  27:../switch_sdk/core/fal/tiger/fal_tiger_nic.c **** 
 148              		.loc 1 27 5 is_stmt 1 discriminator 1 view .LVU25
  27:../switch_sdk/core/fal/tiger/fal_tiger_nic.c **** 
 149              		.loc 1 27 5 discriminator 1 view .LVU26
 150 0072 0B4A     		ldr	r2, .L11
 151 0074 1278     		ldrb	r2, [r2]	@ zero_extendqisi2
 152 0076 012A     		cmp	r2, #1
 153 0078 01D8     		bhi	.L10
 154              	.LVL15:
 155              	.L5:
  27:../switch_sdk/core/fal/tiger/fal_tiger_nic.c **** 
 156              		.loc 1 27 5 discriminator 5 view .LVU27
  27:../switch_sdk/core/fal/tiger/fal_tiger_nic.c **** 
 157              		.loc 1 27 5 discriminator 5 view .LVU28
  27:../switch_sdk/core/fal/tiger/fal_tiger_nic.c **** 
 158              		.loc 1 27 5 discriminator 5 view .LVU29
 159 007a E0B2     		uxtb	r0, r4
 160 007c D3E7     		b	.L1
 161              	.LVL16:
 162              	.L10:
  27:../switch_sdk/core/fal/tiger/fal_tiger_nic.c **** 
 163              		.loc 1 27 5 discriminator 3 view .LVU30
 164              	.LBB3:
  27:../switch_sdk/core/fal/tiger/fal_tiger_nic.c **** 
 165              		.loc 1 27 5 discriminator 3 view .LVU31
 166 007e 142B     		cmp	r3, #20
 167 0080 28BF     		it	cs
 168 0082 1423     		movcs	r3, #20
 169 0084 1A46     		mov	r2, r3
 170 0086 074B     		ldr	r3, .L11+4
 171 0088 0093     		str	r3, [sp]
 172 008a 0B4B     		ldr	r3, .L11+24
 173 008c 0749     		ldr	r1, .L11+12
 174 008e 51F82220 		ldr	r2, [r1, r2, lsl #2]
 175 0092 0749     		ldr	r1, .L11+16
 176 0094 8968     		ldr	r1, [r1, #8]
 177 0096 0748     		ldr	r0, .L11+20
 178              	.LVL17:
  27:../switch_sdk/core/fal/tiger/fal_tiger_nic.c **** 
 179              		.loc 1 27 5 is_stmt 0 discriminator 3 view .LVU32
 180 0098 FFF7FEFF 		bl	osal_printf
 181              	.LVL18:
 182 009c EDE7     		b	.L5
 183              	.L12:
 184 009e 00BF     		.align	2
 185              	.L11:
 186 00a0 00000000 		.word	yt_debug_level
 187 00a4 00000000 		.word	__FUNCTION__.10
 188 00a8 00000000 		.word	.LC0
 189 00ac 00000000 		.word	_yt_errmsg
 190 00b0 00000000 		.word	_yt_prompt_msg
 191 00b4 58000000 		.word	.LC1
 192 00b8 70000000 		.word	.LC2
 193              	.LBE3:
 194              		.cfi_endproc
 195              	.LFE3:
 197              		.section	.rodata.fal_tiger_nic_cpuport_mode_set.str1.4,"aMS",%progbits,1
 198              		.align	2
 199              	.LC3:
 200 0000 68616C5F 		.ascii	"hal_table_reg_read(unit,164,0,sizeof(cpu_copy_dst_c"
 200      7461626C 
 200      655F7265 
 200      675F7265 
 200      61642875 
 201 0033 74726C5F 		.ascii	"trl_t),&tmp_entry)\000"
 201      74292C26 
 201      746D705F 
 201      656E7472 
 201      792900
 202 0046 0000     		.align	2
 203              	.LC4:
 204 0048 68616C5F 		.ascii	"hal_table_reg_write(unit,164,0,sizeof(cpu_copy_dst_"
 204      7461626C 
 204      655F7265 
 204      675F7772 
 204      69746528 
 205 007b 6374726C 		.ascii	"ctrl_t),&tmp_entry)\000"
 205      5F74292C 
 205      26746D70 
 205      5F656E74 
 205      72792900 
 206              		.section	.text.fal_tiger_nic_cpuport_mode_set,"ax",%progbits
 207              		.align	1
 208              		.global	fal_tiger_nic_cpuport_mode_set
 209              		.syntax unified
 210              		.thumb
 211              		.thumb_func
 213              	fal_tiger_nic_cpuport_mode_set:
 214              	.LVL19:
 215              	.LFB4:
  31:../switch_sdk/core/fal/tiger/fal_tiger_nic.c **** 
  32:../switch_sdk/core/fal/tiger/fal_tiger_nic.c **** yt_ret_t  fal_tiger_nic_cpuport_mode_set(yt_unit_t unit, yt_cpuport_mode_t mode)
  33:../switch_sdk/core/fal/tiger/fal_tiger_nic.c **** {
 216              		.loc 1 33 1 is_stmt 1 view -0
 217              		.cfi_startproc
 218              		@ args = 0, pretend = 0, frame = 8
 219              		@ frame_needed = 0, uses_anonymous_args = 0
 220              		.loc 1 33 1 is_stmt 0 view .LVU34
 221 0000 70B5     		push	{r4, r5, r6, lr}
 222              		.cfi_def_cfa_offset 16
 223              		.cfi_offset 4, -16
 224              		.cfi_offset 5, -12
 225              		.cfi_offset 6, -8
 226              		.cfi_offset 14, -4
 227 0002 84B0     		sub	sp, sp, #16
 228              		.cfi_def_cfa_offset 32
 229 0004 0546     		mov	r5, r0
 230 0006 0E46     		mov	r6, r1
  34:../switch_sdk/core/fal/tiger/fal_tiger_nic.c ****     cpu_copy_dst_ctrl_t tmp_entry;
 231              		.loc 1 34 5 is_stmt 1 view .LVU35
  35:../switch_sdk/core/fal/tiger/fal_tiger_nic.c ****     cmm_err_t ret = CMM_ERR_OK;
 232              		.loc 1 35 5 view .LVU36
 233              	.LVL20:
  36:../switch_sdk/core/fal/tiger/fal_tiger_nic.c **** 
  37:../switch_sdk/core/fal/tiger/fal_tiger_nic.c ****     osal_memset(&tmp_entry, 0, sizeof(cpu_copy_dst_ctrl_t));
 234              		.loc 1 37 5 view .LVU37
 235 0008 03AC     		add	r4, sp, #12
 236 000a 0422     		movs	r2, #4
 237 000c 0021     		movs	r1, #0
 238              	.LVL21:
 239              		.loc 1 37 5 is_stmt 0 view .LVU38
 240 000e 2046     		mov	r0, r4
 241              	.LVL22:
 242              		.loc 1 37 5 view .LVU39
 243 0010 FFF7FEFF 		bl	osal_memset
 244              	.LVL23:
  38:../switch_sdk/core/fal/tiger/fal_tiger_nic.c **** 
  39:../switch_sdk/core/fal/tiger/fal_tiger_nic.c ****     CMM_ERR_CHK(HAL_TBL_REG_READ(unit, CPU_COPY_DST_CTRLm, 0, sizeof(cpu_copy_dst_ctrl_t), &tmp_ent
 245              		.loc 1 39 5 is_stmt 1 view .LVU40
 246              		.loc 1 39 5 view .LVU41
 247 0014 0094     		str	r4, [sp]
 248 0016 0423     		movs	r3, #4
 249 0018 0022     		movs	r2, #0
 250 001a A421     		movs	r1, #164
 251 001c 2846     		mov	r0, r5
 252 001e FFF7FEFF 		bl	hal_table_reg_read
 253              	.LVL24:
 254              		.loc 1 39 5 is_stmt 0 view .LVU42
 255 0022 10F0FF03 		ands	r3, r0, #255
 256 0026 04D1     		bne	.L23
 257              		.loc 1 39 5 is_stmt 1 discriminator 2 view .LVU43
  40:../switch_sdk/core/fal/tiger/fal_tiger_nic.c ****     if (mode == CPUPORT_MODE_INTERNAL)
 258              		.loc 1 40 5 discriminator 2 view .LVU44
 259              		.loc 1 40 8 is_stmt 0 discriminator 2 view .LVU45
 260 0028 DEB1     		cbz	r6, .L24
  41:../switch_sdk/core/fal/tiger/fal_tiger_nic.c ****     {
  42:../switch_sdk/core/fal/tiger/fal_tiger_nic.c ****         HAL_FIELD_SET(CPU_COPY_DST_CTRLm, CPU_COPY_DST_CTRL_TO_INT_CPUf, &tmp_entry, YT_ENABLE);
  43:../switch_sdk/core/fal/tiger/fal_tiger_nic.c ****         HAL_FIELD_SET(CPU_COPY_DST_CTRLm, CPU_COPY_DST_CTRL_TO_EXT_CPUf, &tmp_entry, YT_DISABLE);
  44:../switch_sdk/core/fal/tiger/fal_tiger_nic.c ****     }
  45:../switch_sdk/core/fal/tiger/fal_tiger_nic.c ****     else if (mode == CPUPORT_MODE_EXTERNAL)
 261              		.loc 1 45 10 is_stmt 1 view .LVU46
 262              		.loc 1 45 13 is_stmt 0 view .LVU47
 263 002a 012E     		cmp	r6, #1
 264 002c 33D0     		beq	.L25
  46:../switch_sdk/core/fal/tiger/fal_tiger_nic.c ****     {
  47:../switch_sdk/core/fal/tiger/fal_tiger_nic.c ****         HAL_FIELD_SET(CPU_COPY_DST_CTRLm, CPU_COPY_DST_CTRL_TO_INT_CPUf, &tmp_entry, YT_DISABLE);
  48:../switch_sdk/core/fal/tiger/fal_tiger_nic.c ****         HAL_FIELD_SET(CPU_COPY_DST_CTRLm, CPU_COPY_DST_CTRL_TO_EXT_CPUf, &tmp_entry, YT_ENABLE);
  49:../switch_sdk/core/fal/tiger/fal_tiger_nic.c ****     }
  50:../switch_sdk/core/fal/tiger/fal_tiger_nic.c ****     else
  51:../switch_sdk/core/fal/tiger/fal_tiger_nic.c ****     {
  52:../switch_sdk/core/fal/tiger/fal_tiger_nic.c ****         return CMM_ERR_INPUT;
 265              		.loc 1 52 16 view .LVU48
 266 002e 0520     		movs	r0, #5
 267              	.LVL25:
 268              		.loc 1 52 16 view .LVU49
 269 0030 05E0     		b	.L13
 270              	.LVL26:
 271              	.L23:
 272              		.loc 1 52 16 view .LVU50
 273 0032 0446     		mov	r4, r0
  39:../switch_sdk/core/fal/tiger/fal_tiger_nic.c ****     if (mode == CPUPORT_MODE_INTERNAL)
 274              		.loc 1 39 5 is_stmt 1 discriminator 1 view .LVU51
  39:../switch_sdk/core/fal/tiger/fal_tiger_nic.c ****     if (mode == CPUPORT_MODE_INTERNAL)
 275              		.loc 1 39 5 discriminator 1 view .LVU52
 276 0034 294A     		ldr	r2, .L29
 277 0036 1278     		ldrb	r2, [r2]	@ zero_extendqisi2
 278 0038 012A     		cmp	r2, #1
 279 003a 02D8     		bhi	.L26
 280              	.LVL27:
 281              	.L15:
  39:../switch_sdk/core/fal/tiger/fal_tiger_nic.c ****     if (mode == CPUPORT_MODE_INTERNAL)
 282              		.loc 1 39 5 discriminator 5 view .LVU53
  39:../switch_sdk/core/fal/tiger/fal_tiger_nic.c ****     if (mode == CPUPORT_MODE_INTERNAL)
 283              		.loc 1 39 5 discriminator 5 view .LVU54
  39:../switch_sdk/core/fal/tiger/fal_tiger_nic.c ****     if (mode == CPUPORT_MODE_INTERNAL)
 284              		.loc 1 39 5 discriminator 5 view .LVU55
 285 003c E0B2     		uxtb	r0, r4
 286              	.LVL28:
 287              	.L13:
  53:../switch_sdk/core/fal/tiger/fal_tiger_nic.c ****     }
  54:../switch_sdk/core/fal/tiger/fal_tiger_nic.c **** 
  55:../switch_sdk/core/fal/tiger/fal_tiger_nic.c ****     CMM_ERR_CHK(HAL_TBL_REG_WRITE(unit, CPU_COPY_DST_CTRLm, 0, sizeof(cpu_copy_dst_ctrl_t), &tmp_en
  56:../switch_sdk/core/fal/tiger/fal_tiger_nic.c **** 
  57:../switch_sdk/core/fal/tiger/fal_tiger_nic.c ****     return CMM_ERR_OK;
  58:../switch_sdk/core/fal/tiger/fal_tiger_nic.c **** }
 288              		.loc 1 58 1 is_stmt 0 view .LVU56
 289 003e 04B0     		add	sp, sp, #16
 290              		.cfi_remember_state
 291              		.cfi_def_cfa_offset 16
 292              		@ sp needed
 293 0040 70BD     		pop	{r4, r5, r6, pc}
 294              	.LVL29:
 295              	.L26:
 296              		.cfi_restore_state
  39:../switch_sdk/core/fal/tiger/fal_tiger_nic.c ****     if (mode == CPUPORT_MODE_INTERNAL)
 297              		.loc 1 39 5 is_stmt 1 discriminator 3 view .LVU57
 298              	.LBB4:
  39:../switch_sdk/core/fal/tiger/fal_tiger_nic.c ****     if (mode == CPUPORT_MODE_INTERNAL)
 299              		.loc 1 39 5 discriminator 3 view .LVU58
 300 0042 142B     		cmp	r3, #20
 301 0044 28BF     		it	cs
 302 0046 1423     		movcs	r3, #20
 303 0048 1A46     		mov	r2, r3
 304 004a 254B     		ldr	r3, .L29+4
 305 004c 0093     		str	r3, [sp]
 306 004e 254B     		ldr	r3, .L29+8
 307 0050 2549     		ldr	r1, .L29+12
 308 0052 51F82220 		ldr	r2, [r1, r2, lsl #2]
 309 0056 2549     		ldr	r1, .L29+16
 310 0058 8968     		ldr	r1, [r1, #8]
 311 005a 2548     		ldr	r0, .L29+20
 312              	.LVL30:
  39:../switch_sdk/core/fal/tiger/fal_tiger_nic.c ****     if (mode == CPUPORT_MODE_INTERNAL)
 313              		.loc 1 39 5 is_stmt 0 discriminator 3 view .LVU59
 314 005c FFF7FEFF 		bl	osal_printf
 315              	.LVL31:
 316 0060 ECE7     		b	.L15
 317              	.LVL32:
 318              	.L24:
  39:../switch_sdk/core/fal/tiger/fal_tiger_nic.c ****     if (mode == CPUPORT_MODE_INTERNAL)
 319              		.loc 1 39 5 discriminator 3 view .LVU60
 320              	.LBE4:
  42:../switch_sdk/core/fal/tiger/fal_tiger_nic.c ****         HAL_FIELD_SET(CPU_COPY_DST_CTRLm, CPU_COPY_DST_CTRL_TO_EXT_CPUf, &tmp_entry, YT_DISABLE);
 321              		.loc 1 42 9 is_stmt 1 view .LVU61
 322 0062 0123     		movs	r3, #1
 323 0064 03AA     		add	r2, sp, #12
 324 0066 1946     		mov	r1, r3
 325 0068 A420     		movs	r0, #164
 326              	.LVL33:
  42:../switch_sdk/core/fal/tiger/fal_tiger_nic.c ****         HAL_FIELD_SET(CPU_COPY_DST_CTRLm, CPU_COPY_DST_CTRL_TO_EXT_CPUf, &tmp_entry, YT_DISABLE);
 327              		.loc 1 42 9 is_stmt 0 view .LVU62
 328 006a FFF7FEFF 		bl	hal_tbl_reg_field_set
 329              	.LVL34:
  43:../switch_sdk/core/fal/tiger/fal_tiger_nic.c ****     }
 330              		.loc 1 43 9 is_stmt 1 view .LVU63
 331 006e 0023     		movs	r3, #0
 332 0070 03AA     		add	r2, sp, #12
 333 0072 0221     		movs	r1, #2
 334 0074 A420     		movs	r0, #164
 335 0076 FFF7FEFF 		bl	hal_tbl_reg_field_set
 336              	.LVL35:
 337              	.L18:
  55:../switch_sdk/core/fal/tiger/fal_tiger_nic.c **** 
 338              		.loc 1 55 5 view .LVU64
  55:../switch_sdk/core/fal/tiger/fal_tiger_nic.c **** 
 339              		.loc 1 55 5 view .LVU65
 340 007a 03AB     		add	r3, sp, #12
 341 007c 0093     		str	r3, [sp]
 342 007e 0423     		movs	r3, #4
 343 0080 0022     		movs	r2, #0
 344 0082 A421     		movs	r1, #164
 345 0084 2846     		mov	r0, r5
 346 0086 FFF7FEFF 		bl	hal_table_reg_write
 347              	.LVL36:
 348 008a 0446     		mov	r4, r0
 349              	.LVL37:
  55:../switch_sdk/core/fal/tiger/fal_tiger_nic.c **** 
 350              		.loc 1 55 5 is_stmt 0 view .LVU66
 351 008c 10F0FF03 		ands	r3, r0, #255
 352 0090 0ED1     		bne	.L27
  57:../switch_sdk/core/fal/tiger/fal_tiger_nic.c **** }
 353              		.loc 1 57 12 view .LVU67
 354 0092 0020     		movs	r0, #0
 355              	.LVL38:
  57:../switch_sdk/core/fal/tiger/fal_tiger_nic.c **** }
 356              		.loc 1 57 12 view .LVU68
 357 0094 D3E7     		b	.L13
 358              	.LVL39:
 359              	.L25:
  47:../switch_sdk/core/fal/tiger/fal_tiger_nic.c ****         HAL_FIELD_SET(CPU_COPY_DST_CTRLm, CPU_COPY_DST_CTRL_TO_EXT_CPUf, &tmp_entry, YT_ENABLE);
 360              		.loc 1 47 9 is_stmt 1 view .LVU69
 361 0096 0023     		movs	r3, #0
 362 0098 03AA     		add	r2, sp, #12
 363 009a 0121     		movs	r1, #1
 364 009c A420     		movs	r0, #164
 365              	.LVL40:
  47:../switch_sdk/core/fal/tiger/fal_tiger_nic.c ****         HAL_FIELD_SET(CPU_COPY_DST_CTRLm, CPU_COPY_DST_CTRL_TO_EXT_CPUf, &tmp_entry, YT_ENABLE);
 366              		.loc 1 47 9 is_stmt 0 view .LVU70
 367 009e FFF7FEFF 		bl	hal_tbl_reg_field_set
 368              	.LVL41:
  48:../switch_sdk/core/fal/tiger/fal_tiger_nic.c ****     }
 369              		.loc 1 48 9 is_stmt 1 view .LVU71
 370 00a2 0123     		movs	r3, #1
 371 00a4 03AA     		add	r2, sp, #12
 372 00a6 0221     		movs	r1, #2
 373 00a8 A420     		movs	r0, #164
 374 00aa FFF7FEFF 		bl	hal_tbl_reg_field_set
 375              	.LVL42:
 376 00ae E4E7     		b	.L18
 377              	.LVL43:
 378              	.L27:
  55:../switch_sdk/core/fal/tiger/fal_tiger_nic.c **** 
 379              		.loc 1 55 5 discriminator 1 view .LVU72
  55:../switch_sdk/core/fal/tiger/fal_tiger_nic.c **** 
 380              		.loc 1 55 5 discriminator 1 view .LVU73
 381 00b0 0A4A     		ldr	r2, .L29
 382 00b2 1278     		ldrb	r2, [r2]	@ zero_extendqisi2
 383 00b4 012A     		cmp	r2, #1
 384 00b6 01D8     		bhi	.L28
 385              	.LVL44:
 386              	.L19:
  55:../switch_sdk/core/fal/tiger/fal_tiger_nic.c **** 
 387              		.loc 1 55 5 discriminator 5 view .LVU74
  55:../switch_sdk/core/fal/tiger/fal_tiger_nic.c **** 
 388              		.loc 1 55 5 discriminator 5 view .LVU75
  55:../switch_sdk/core/fal/tiger/fal_tiger_nic.c **** 
 389              		.loc 1 55 5 discriminator 5 view .LVU76
 390 00b8 E0B2     		uxtb	r0, r4
 391 00ba C0E7     		b	.L13
 392              	.LVL45:
 393              	.L28:
  55:../switch_sdk/core/fal/tiger/fal_tiger_nic.c **** 
 394              		.loc 1 55 5 discriminator 3 view .LVU77
 395              	.LBB5:
  55:../switch_sdk/core/fal/tiger/fal_tiger_nic.c **** 
 396              		.loc 1 55 5 discriminator 3 view .LVU78
 397 00bc 142B     		cmp	r3, #20
 398 00be 28BF     		it	cs
 399 00c0 1423     		movcs	r3, #20
 400 00c2 1A46     		mov	r2, r3
 401 00c4 064B     		ldr	r3, .L29+4
 402 00c6 0093     		str	r3, [sp]
 403 00c8 0A4B     		ldr	r3, .L29+24
 404 00ca 0749     		ldr	r1, .L29+12
 405 00cc 51F82220 		ldr	r2, [r1, r2, lsl #2]
 406 00d0 0649     		ldr	r1, .L29+16
 407 00d2 8968     		ldr	r1, [r1, #8]
 408 00d4 0648     		ldr	r0, .L29+20
 409              	.LVL46:
  55:../switch_sdk/core/fal/tiger/fal_tiger_nic.c **** 
 410              		.loc 1 55 5 is_stmt 0 discriminator 3 view .LVU79
 411 00d6 FFF7FEFF 		bl	osal_printf
 412              	.LVL47:
 413 00da EDE7     		b	.L19
 414              	.L30:
 415              		.align	2
 416              	.L29:
 417 00dc 00000000 		.word	yt_debug_level
 418 00e0 00000000 		.word	__FUNCTION__.9
 419 00e4 00000000 		.word	.LC3
 420 00e8 00000000 		.word	_yt_errmsg
 421 00ec 00000000 		.word	_yt_prompt_msg
 422 00f0 58000000 		.word	.LC1
 423 00f4 48000000 		.word	.LC4
 424              	.LBE5:
 425              		.cfi_endproc
 426              	.LFE4:
 428              		.section	.text.fal_tiger_nic_cpuport_mode_get,"ax",%progbits
 429              		.align	1
 430              		.global	fal_tiger_nic_cpuport_mode_get
 431              		.syntax unified
 432              		.thumb
 433              		.thumb_func
 435              	fal_tiger_nic_cpuport_mode_get:
 436              	.LVL48:
 437              	.LFB5:
  59:../switch_sdk/core/fal/tiger/fal_tiger_nic.c **** 
  60:../switch_sdk/core/fal/tiger/fal_tiger_nic.c **** yt_ret_t  fal_tiger_nic_cpuport_mode_get(yt_unit_t unit, yt_cpuport_mode_t *pmode)
  61:../switch_sdk/core/fal/tiger/fal_tiger_nic.c **** {
 438              		.loc 1 61 1 is_stmt 1 view -0
 439              		.cfi_startproc
 440              		@ args = 0, pretend = 0, frame = 8
 441              		@ frame_needed = 0, uses_anonymous_args = 0
 442              		.loc 1 61 1 is_stmt 0 view .LVU81
 443 0000 70B5     		push	{r4, r5, r6, lr}
 444              		.cfi_def_cfa_offset 16
 445              		.cfi_offset 4, -16
 446              		.cfi_offset 5, -12
 447              		.cfi_offset 6, -8
 448              		.cfi_offset 14, -4
 449 0002 84B0     		sub	sp, sp, #16
 450              		.cfi_def_cfa_offset 32
 451 0004 0446     		mov	r4, r0
 452 0006 0D46     		mov	r5, r1
  62:../switch_sdk/core/fal/tiger/fal_tiger_nic.c ****     cpu_copy_dst_ctrl_t tmp_entry;
 453              		.loc 1 62 5 is_stmt 1 view .LVU82
  63:../switch_sdk/core/fal/tiger/fal_tiger_nic.c ****     cmm_err_t ret = CMM_ERR_OK;
 454              		.loc 1 63 5 view .LVU83
 455              	.LVL49:
  64:../switch_sdk/core/fal/tiger/fal_tiger_nic.c ****     uint32_t to_ext_cpu;
 456              		.loc 1 64 5 view .LVU84
  65:../switch_sdk/core/fal/tiger/fal_tiger_nic.c **** 
  66:../switch_sdk/core/fal/tiger/fal_tiger_nic.c ****     osal_memset(&tmp_entry, 0, sizeof(cpu_copy_dst_ctrl_t));
 457              		.loc 1 66 5 view .LVU85
 458 0008 03AE     		add	r6, sp, #12
 459 000a 0422     		movs	r2, #4
 460 000c 0021     		movs	r1, #0
 461              	.LVL50:
 462              		.loc 1 66 5 is_stmt 0 view .LVU86
 463 000e 3046     		mov	r0, r6
 464              	.LVL51:
 465              		.loc 1 66 5 view .LVU87
 466 0010 FFF7FEFF 		bl	osal_memset
 467              	.LVL52:
  67:../switch_sdk/core/fal/tiger/fal_tiger_nic.c **** 
  68:../switch_sdk/core/fal/tiger/fal_tiger_nic.c ****     CMM_ERR_CHK(HAL_TBL_REG_READ(unit, CPU_COPY_DST_CTRLm, 0, sizeof(cpu_copy_dst_ctrl_t), &tmp_ent
 468              		.loc 1 68 5 is_stmt 1 view .LVU88
 469              		.loc 1 68 5 view .LVU89
 470 0014 0096     		str	r6, [sp]
 471 0016 0423     		movs	r3, #4
 472 0018 0022     		movs	r2, #0
 473 001a A421     		movs	r1, #164
 474 001c 2046     		mov	r0, r4
 475 001e FFF7FEFF 		bl	hal_table_reg_read
 476              	.LVL53:
 477              		.loc 1 68 5 is_stmt 0 view .LVU90
 478 0022 10F0FF03 		ands	r3, r0, #255
 479 0026 17D0     		beq	.L32
 480 0028 0446     		mov	r4, r0
 481              		.loc 1 68 5 is_stmt 1 discriminator 1 view .LVU91
 482              		.loc 1 68 5 discriminator 1 view .LVU92
 483 002a 124A     		ldr	r2, .L37
 484 002c 1278     		ldrb	r2, [r2]	@ zero_extendqisi2
 485 002e 012A     		cmp	r2, #1
 486 0030 02D8     		bhi	.L36
 487              	.LVL54:
 488              	.L33:
 489              		.loc 1 68 5 discriminator 5 view .LVU93
 490              		.loc 1 68 5 discriminator 5 view .LVU94
 491              		.loc 1 68 5 discriminator 5 view .LVU95
 492 0032 E0B2     		uxtb	r0, r4
 493              	.L31:
  69:../switch_sdk/core/fal/tiger/fal_tiger_nic.c ****     HAL_FIELD_GET(CPU_COPY_DST_CTRLm, CPU_COPY_DST_CTRL_TO_EXT_CPUf, &tmp_entry, &to_ext_cpu);
  70:../switch_sdk/core/fal/tiger/fal_tiger_nic.c ****     *pmode = to_ext_cpu ? CPUPORT_MODE_EXTERNAL : CPUPORT_MODE_INTERNAL;
  71:../switch_sdk/core/fal/tiger/fal_tiger_nic.c **** 
  72:../switch_sdk/core/fal/tiger/fal_tiger_nic.c ****     return CMM_ERR_OK;
  73:../switch_sdk/core/fal/tiger/fal_tiger_nic.c **** }
 494              		.loc 1 73 1 is_stmt 0 view .LVU96
 495 0034 04B0     		add	sp, sp, #16
 496              		.cfi_remember_state
 497              		.cfi_def_cfa_offset 16
 498              		@ sp needed
 499 0036 70BD     		pop	{r4, r5, r6, pc}
 500              	.LVL55:
 501              	.L36:
 502              		.cfi_restore_state
  68:../switch_sdk/core/fal/tiger/fal_tiger_nic.c ****     HAL_FIELD_GET(CPU_COPY_DST_CTRLm, CPU_COPY_DST_CTRL_TO_EXT_CPUf, &tmp_entry, &to_ext_cpu);
 503              		.loc 1 68 5 is_stmt 1 discriminator 3 view .LVU97
 504              	.LBB6:
  68:../switch_sdk/core/fal/tiger/fal_tiger_nic.c ****     HAL_FIELD_GET(CPU_COPY_DST_CTRLm, CPU_COPY_DST_CTRL_TO_EXT_CPUf, &tmp_entry, &to_ext_cpu);
 505              		.loc 1 68 5 discriminator 3 view .LVU98
 506 0038 142B     		cmp	r3, #20
 507 003a 28BF     		it	cs
 508 003c 1423     		movcs	r3, #20
 509 003e 1A46     		mov	r2, r3
 510 0040 0D4B     		ldr	r3, .L37+4
 511 0042 0093     		str	r3, [sp]
 512 0044 0D4B     		ldr	r3, .L37+8
 513 0046 0E49     		ldr	r1, .L37+12
 514 0048 51F82220 		ldr	r2, [r1, r2, lsl #2]
 515 004c 0D49     		ldr	r1, .L37+16
 516 004e 8968     		ldr	r1, [r1, #8]
 517 0050 0D48     		ldr	r0, .L37+20
 518              	.LVL56:
  68:../switch_sdk/core/fal/tiger/fal_tiger_nic.c ****     HAL_FIELD_GET(CPU_COPY_DST_CTRLm, CPU_COPY_DST_CTRL_TO_EXT_CPUf, &tmp_entry, &to_ext_cpu);
 519              		.loc 1 68 5 is_stmt 0 discriminator 3 view .LVU99
 520 0052 FFF7FEFF 		bl	osal_printf
 521              	.LVL57:
 522 0056 ECE7     		b	.L33
 523              	.LVL58:
 524              	.L32:
  68:../switch_sdk/core/fal/tiger/fal_tiger_nic.c ****     HAL_FIELD_GET(CPU_COPY_DST_CTRLm, CPU_COPY_DST_CTRL_TO_EXT_CPUf, &tmp_entry, &to_ext_cpu);
 525              		.loc 1 68 5 discriminator 3 view .LVU100
 526              	.LBE6:
  68:../switch_sdk/core/fal/tiger/fal_tiger_nic.c ****     HAL_FIELD_GET(CPU_COPY_DST_CTRLm, CPU_COPY_DST_CTRL_TO_EXT_CPUf, &tmp_entry, &to_ext_cpu);
 527              		.loc 1 68 5 is_stmt 1 discriminator 2 view .LVU101
  69:../switch_sdk/core/fal/tiger/fal_tiger_nic.c ****     HAL_FIELD_GET(CPU_COPY_DST_CTRLm, CPU_COPY_DST_CTRL_TO_EXT_CPUf, &tmp_entry, &to_ext_cpu);
 528              		.loc 1 69 5 discriminator 2 view .LVU102
 529              	.LBB7:
  69:../switch_sdk/core/fal/tiger/fal_tiger_nic.c ****     HAL_FIELD_GET(CPU_COPY_DST_CTRLm, CPU_COPY_DST_CTRL_TO_EXT_CPUf, &tmp_entry, &to_ext_cpu);
 530              		.loc 1 69 5 discriminator 2 view .LVU103
  69:../switch_sdk/core/fal/tiger/fal_tiger_nic.c ****     HAL_FIELD_GET(CPU_COPY_DST_CTRLm, CPU_COPY_DST_CTRL_TO_EXT_CPUf, &tmp_entry, &to_ext_cpu);
 531              		.loc 1 69 5 discriminator 2 view .LVU104
 532 0058 02AB     		add	r3, sp, #8
 533 005a 03AA     		add	r2, sp, #12
 534 005c 0221     		movs	r1, #2
 535 005e A420     		movs	r0, #164
 536              	.LVL59:
  69:../switch_sdk/core/fal/tiger/fal_tiger_nic.c ****     HAL_FIELD_GET(CPU_COPY_DST_CTRLm, CPU_COPY_DST_CTRL_TO_EXT_CPUf, &tmp_entry, &to_ext_cpu);
 537              		.loc 1 69 5 is_stmt 0 discriminator 2 view .LVU105
 538 0060 FFF7FEFF 		bl	hal_tbl_reg_field_get
 539              	.LVL60:
  69:../switch_sdk/core/fal/tiger/fal_tiger_nic.c ****     HAL_FIELD_GET(CPU_COPY_DST_CTRLm, CPU_COPY_DST_CTRL_TO_EXT_CPUf, &tmp_entry, &to_ext_cpu);
 540              		.loc 1 69 5 is_stmt 1 discriminator 2 view .LVU106
  69:../switch_sdk/core/fal/tiger/fal_tiger_nic.c ****     HAL_FIELD_GET(CPU_COPY_DST_CTRLm, CPU_COPY_DST_CTRL_TO_EXT_CPUf, &tmp_entry, &to_ext_cpu);
 541              		.loc 1 69 5 is_stmt 0 discriminator 2 view .LVU107
 542              	.LBE7:
  69:../switch_sdk/core/fal/tiger/fal_tiger_nic.c ****     HAL_FIELD_GET(CPU_COPY_DST_CTRLm, CPU_COPY_DST_CTRL_TO_EXT_CPUf, &tmp_entry, &to_ext_cpu);
 543              		.loc 1 69 5 is_stmt 1 discriminator 2 view .LVU108
  70:../switch_sdk/core/fal/tiger/fal_tiger_nic.c **** 
 544              		.loc 1 70 5 discriminator 2 view .LVU109
  70:../switch_sdk/core/fal/tiger/fal_tiger_nic.c **** 
 545              		.loc 1 70 49 is_stmt 0 discriminator 2 view .LVU110
 546 0064 029B     		ldr	r3, [sp, #8]
 547 0066 003B     		subs	r3, r3, #0
 548 0068 18BF     		it	ne
 549 006a 0123     		movne	r3, #1
  70:../switch_sdk/core/fal/tiger/fal_tiger_nic.c **** 
 550              		.loc 1 70 12 discriminator 2 view .LVU111
 551 006c 2B70     		strb	r3, [r5]
 552              	.LVL61:
  72:../switch_sdk/core/fal/tiger/fal_tiger_nic.c **** }
 553              		.loc 1 72 5 is_stmt 1 discriminator 2 view .LVU112
  72:../switch_sdk/core/fal/tiger/fal_tiger_nic.c **** }
 554              		.loc 1 72 12 is_stmt 0 discriminator 2 view .LVU113
 555 006e 0020     		movs	r0, #0
 556 0070 E0E7     		b	.L31
 557              	.L38:
 558 0072 00BF     		.align	2
 559              	.L37:
 560 0074 00000000 		.word	yt_debug_level
 561 0078 00000000 		.word	__FUNCTION__.8
 562 007c 00000000 		.word	.LC3
 563 0080 00000000 		.word	_yt_errmsg
 564 0084 00000000 		.word	_yt_prompt_msg
 565 0088 58000000 		.word	.LC1
 566              		.cfi_endproc
 567              	.LFE5:
 569              		.section	.rodata.fal_tiger_nic_ext_cpuport_en_set.str1.4,"aMS",%progbits,1
 570              		.align	2
 571              	.LC5:
 572 0000 68616C5F 		.ascii	"hal_table_reg_read(unit,2,0,sizeof(ext_cpu_port_ctr"
 572      7461626C 
 572      655F7265 
 572      675F7265 
 572      61642875 
 573 0033 6C5F7429 		.ascii	"l_t),&entry)\000"
 573      2C26656E 
 573      74727929 
 573      00
 574              		.align	2
 575              	.LC6:
 576 0040 68616C5F 		.ascii	"hal_table_reg_write(unit,2,0,sizeof(ext_cpu_port_ct"
 576      7461626C 
 576      655F7265 
 576      675F7772 
 576      69746528 
 577 0073 726C5F74 		.ascii	"rl_t),&entry)\000"
 577      292C2665 
 577      6E747279 
 577      2900
 578              		.section	.text.fal_tiger_nic_ext_cpuport_en_set,"ax",%progbits
 579              		.align	1
 580              		.global	fal_tiger_nic_ext_cpuport_en_set
 581              		.syntax unified
 582              		.thumb
 583              		.thumb_func
 585              	fal_tiger_nic_ext_cpuport_en_set:
 586              	.LVL62:
 587              	.LFB6:
  74:../switch_sdk/core/fal/tiger/fal_tiger_nic.c **** 
  75:../switch_sdk/core/fal/tiger/fal_tiger_nic.c **** yt_ret_t  fal_tiger_nic_ext_cpuport_en_set(yt_unit_t unit,  yt_enable_t enable)
  76:../switch_sdk/core/fal/tiger/fal_tiger_nic.c **** {
 588              		.loc 1 76 1 is_stmt 1 view -0
 589              		.cfi_startproc
 590              		@ args = 0, pretend = 0, frame = 8
 591              		@ frame_needed = 0, uses_anonymous_args = 0
 592              		.loc 1 76 1 is_stmt 0 view .LVU115
 593 0000 F0B5     		push	{r4, r5, r6, r7, lr}
 594              		.cfi_def_cfa_offset 20
 595              		.cfi_offset 4, -20
 596              		.cfi_offset 5, -16
 597              		.cfi_offset 6, -12
 598              		.cfi_offset 7, -8
 599              		.cfi_offset 14, -4
 600 0002 85B0     		sub	sp, sp, #20
 601              		.cfi_def_cfa_offset 40
 602 0004 0646     		mov	r6, r0
 603 0006 0F46     		mov	r7, r1
  77:../switch_sdk/core/fal/tiger/fal_tiger_nic.c ****     ext_cpu_port_ctrl_t entry;
 604              		.loc 1 77 5 is_stmt 1 view .LVU116
  78:../switch_sdk/core/fal/tiger/fal_tiger_nic.c ****     cmm_err_t ret = CMM_ERR_OK;
 605              		.loc 1 78 5 view .LVU117
 606              	.LVL63:
  79:../switch_sdk/core/fal/tiger/fal_tiger_nic.c ****     yt_port_t ext_cpuport;
 607              		.loc 1 79 5 view .LVU118
  80:../switch_sdk/core/fal/tiger/fal_tiger_nic.c ****     uint32_t macid;
 608              		.loc 1 80 5 view .LVU119
  81:../switch_sdk/core/fal/tiger/fal_tiger_nic.c **** 
  82:../switch_sdk/core/fal/tiger/fal_tiger_nic.c ****     CMM_ERR_CHK(HAL_TBL_REG_READ(unit, EXT_CPU_PORT_CTRLm, 0,sizeof(ext_cpu_port_ctrl_t), &entry), 
 609              		.loc 1 82 5 view .LVU120
 610              		.loc 1 82 5 view .LVU121
 611 0008 03AB     		add	r3, sp, #12
 612 000a 0093     		str	r3, [sp]
 613 000c 0423     		movs	r3, #4
 614 000e 0022     		movs	r2, #0
 615 0010 0221     		movs	r1, #2
 616              	.LVL64:
 617              		.loc 1 82 5 is_stmt 0 view .LVU122
 618 0012 FFF7FEFF 		bl	hal_table_reg_read
 619              	.LVL65:
 620              		.loc 1 82 5 view .LVU123
 621 0016 10F0FF03 		ands	r3, r0, #255
 622 001a 17D0     		beq	.L40
 623 001c 0446     		mov	r4, r0
 624              		.loc 1 82 5 is_stmt 1 discriminator 1 view .LVU124
 625              		.loc 1 82 5 discriminator 1 view .LVU125
 626 001e 2F4A     		ldr	r2, .L54
 627 0020 1278     		ldrb	r2, [r2]	@ zero_extendqisi2
 628 0022 012A     		cmp	r2, #1
 629 0024 02D8     		bhi	.L50
 630              	.LVL66:
 631              	.L41:
 632              		.loc 1 82 5 discriminator 5 view .LVU126
 633              		.loc 1 82 5 discriminator 5 view .LVU127
 634              		.loc 1 82 5 discriminator 5 view .LVU128
 635 0026 E0B2     		uxtb	r0, r4
 636              	.LVL67:
 637              	.L39:
  83:../switch_sdk/core/fal/tiger/fal_tiger_nic.c ****     HAL_FIELD_SET(EXT_CPU_PORT_CTRLm, EXT_CPU_PORT_CTRL_EXT_CPU_PORT_ENf, &entry, enable);
  84:../switch_sdk/core/fal/tiger/fal_tiger_nic.c ****     CMM_ERR_CHK(HAL_TBL_REG_WRITE(unit, EXT_CPU_PORT_CTRLm, 0, sizeof(ext_cpu_port_ctrl_t), &entry)
  85:../switch_sdk/core/fal/tiger/fal_tiger_nic.c **** 
  86:../switch_sdk/core/fal/tiger/fal_tiger_nic.c ****     HAL_FIELD_GET(EXT_CPU_PORT_CTRLm, EXT_CPU_PORT_CTRL_EXT_CPU_PORT_NUMf, &entry, &macid);
  87:../switch_sdk/core/fal/tiger/fal_tiger_nic.c ****     CAL_MAC_TO_YTP(unit, macid, ext_cpuport);
  88:../switch_sdk/core/fal/tiger/fal_tiger_nic.c ****     /* enable the backpress on cpu port */
  89:../switch_sdk/core/fal/tiger/fal_tiger_nic.c **** #ifdef PORT_INCLUDED
  90:../switch_sdk/core/fal/tiger/fal_tiger_nic.c ****     fal_tiger_port_backpress_enable_set(unit, ext_cpuport, (enable?YT_DISABLE:YT_ENABLE));
  91:../switch_sdk/core/fal/tiger/fal_tiger_nic.c **** #endif
  92:../switch_sdk/core/fal/tiger/fal_tiger_nic.c ****     /* l2 learn on port */
  93:../switch_sdk/core/fal/tiger/fal_tiger_nic.c **** #ifdef L2_INCLUDED
  94:../switch_sdk/core/fal/tiger/fal_tiger_nic.c ****     fal_tiger_l2_port_learn_en_set(unit, ext_cpuport, (enable?YT_DISABLE:YT_ENABLE));
  95:../switch_sdk/core/fal/tiger/fal_tiger_nic.c **** #endif
  96:../switch_sdk/core/fal/tiger/fal_tiger_nic.c ****     /* udpate yt ext cpu port bit in portmask
  97:../switch_sdk/core/fal/tiger/fal_tiger_nic.c ****     CMM_PLIST_UPDATE(unit, ext_cpuport, (enable?FALSE:TRUE)); */
  98:../switch_sdk/core/fal/tiger/fal_tiger_nic.c ****     
  99:../switch_sdk/core/fal/tiger/fal_tiger_nic.c ****     return CMM_ERR_OK;
 100:../switch_sdk/core/fal/tiger/fal_tiger_nic.c **** }
 638              		.loc 1 100 1 is_stmt 0 view .LVU129
 639 0028 05B0     		add	sp, sp, #20
 640              		.cfi_remember_state
 641              		.cfi_def_cfa_offset 20
 642              		@ sp needed
 643 002a F0BD     		pop	{r4, r5, r6, r7, pc}
 644              	.LVL68:
 645              	.L50:
 646              		.cfi_restore_state
  82:../switch_sdk/core/fal/tiger/fal_tiger_nic.c ****     HAL_FIELD_SET(EXT_CPU_PORT_CTRLm, EXT_CPU_PORT_CTRL_EXT_CPU_PORT_ENf, &entry, enable);
 647              		.loc 1 82 5 is_stmt 1 discriminator 3 view .LVU130
 648              	.LBB8:
  82:../switch_sdk/core/fal/tiger/fal_tiger_nic.c ****     HAL_FIELD_SET(EXT_CPU_PORT_CTRLm, EXT_CPU_PORT_CTRL_EXT_CPU_PORT_ENf, &entry, enable);
 649              		.loc 1 82 5 discriminator 3 view .LVU131
 650 002c 142B     		cmp	r3, #20
 651 002e 28BF     		it	cs
 652 0030 1423     		movcs	r3, #20
 653 0032 1A46     		mov	r2, r3
 654 0034 2A4B     		ldr	r3, .L54+4
 655 0036 0093     		str	r3, [sp]
 656 0038 2A4B     		ldr	r3, .L54+8
 657 003a 2B49     		ldr	r1, .L54+12
 658 003c 51F82220 		ldr	r2, [r1, r2, lsl #2]
 659 0040 2A49     		ldr	r1, .L54+16
 660 0042 8968     		ldr	r1, [r1, #8]
 661 0044 2A48     		ldr	r0, .L54+20
 662              	.LVL69:
  82:../switch_sdk/core/fal/tiger/fal_tiger_nic.c ****     HAL_FIELD_SET(EXT_CPU_PORT_CTRLm, EXT_CPU_PORT_CTRL_EXT_CPU_PORT_ENf, &entry, enable);
 663              		.loc 1 82 5 is_stmt 0 discriminator 3 view .LVU132
 664 0046 FFF7FEFF 		bl	osal_printf
 665              	.LVL70:
 666 004a ECE7     		b	.L41
 667              	.LVL71:
 668              	.L40:
  82:../switch_sdk/core/fal/tiger/fal_tiger_nic.c ****     HAL_FIELD_SET(EXT_CPU_PORT_CTRLm, EXT_CPU_PORT_CTRL_EXT_CPU_PORT_ENf, &entry, enable);
 669              		.loc 1 82 5 discriminator 3 view .LVU133
 670              	.LBE8:
  82:../switch_sdk/core/fal/tiger/fal_tiger_nic.c ****     HAL_FIELD_SET(EXT_CPU_PORT_CTRLm, EXT_CPU_PORT_CTRL_EXT_CPU_PORT_ENf, &entry, enable);
 671              		.loc 1 82 5 is_stmt 1 discriminator 2 view .LVU134
  83:../switch_sdk/core/fal/tiger/fal_tiger_nic.c ****     HAL_FIELD_SET(EXT_CPU_PORT_CTRLm, EXT_CPU_PORT_CTRL_EXT_CPU_PORT_ENf, &entry, enable);
 672              		.loc 1 83 5 discriminator 2 view .LVU135
 673 004c 03AC     		add	r4, sp, #12
 674 004e 3B46     		mov	r3, r7
 675 0050 2246     		mov	r2, r4
 676 0052 0121     		movs	r1, #1
 677 0054 0220     		movs	r0, #2
 678              	.LVL72:
  83:../switch_sdk/core/fal/tiger/fal_tiger_nic.c ****     HAL_FIELD_SET(EXT_CPU_PORT_CTRLm, EXT_CPU_PORT_CTRL_EXT_CPU_PORT_ENf, &entry, enable);
 679              		.loc 1 83 5 is_stmt 0 discriminator 2 view .LVU136
 680 0056 FFF7FEFF 		bl	hal_tbl_reg_field_set
 681              	.LVL73:
  84:../switch_sdk/core/fal/tiger/fal_tiger_nic.c **** 
 682              		.loc 1 84 5 is_stmt 1 discriminator 2 view .LVU137
  84:../switch_sdk/core/fal/tiger/fal_tiger_nic.c **** 
 683              		.loc 1 84 5 discriminator 2 view .LVU138
 684 005a 0094     		str	r4, [sp]
 685 005c 0423     		movs	r3, #4
 686 005e 0022     		movs	r2, #0
 687 0060 0221     		movs	r1, #2
 688 0062 3046     		mov	r0, r6
 689 0064 FFF7FEFF 		bl	hal_table_reg_write
 690              	.LVL74:
 691 0068 0546     		mov	r5, r0
 692              	.LVL75:
  84:../switch_sdk/core/fal/tiger/fal_tiger_nic.c **** 
 693              		.loc 1 84 5 is_stmt 0 discriminator 2 view .LVU139
 694 006a 10F0FF04 		ands	r4, r0, #255
 695 006e 14D0     		beq	.L43
  84:../switch_sdk/core/fal/tiger/fal_tiger_nic.c **** 
 696              		.loc 1 84 5 is_stmt 1 discriminator 1 view .LVU140
  84:../switch_sdk/core/fal/tiger/fal_tiger_nic.c **** 
 697              		.loc 1 84 5 discriminator 1 view .LVU141
 698 0070 1A4B     		ldr	r3, .L54
 699 0072 1B78     		ldrb	r3, [r3]	@ zero_extendqisi2
 700 0074 012B     		cmp	r3, #1
 701 0076 01D8     		bhi	.L51
 702              	.LVL76:
 703              	.L44:
  84:../switch_sdk/core/fal/tiger/fal_tiger_nic.c **** 
 704              		.loc 1 84 5 discriminator 5 view .LVU142
  84:../switch_sdk/core/fal/tiger/fal_tiger_nic.c **** 
 705              		.loc 1 84 5 discriminator 5 view .LVU143
  84:../switch_sdk/core/fal/tiger/fal_tiger_nic.c **** 
 706              		.loc 1 84 5 discriminator 5 view .LVU144
 707 0078 E8B2     		uxtb	r0, r5
 708 007a D5E7     		b	.L39
 709              	.LVL77:
 710              	.L51:
  84:../switch_sdk/core/fal/tiger/fal_tiger_nic.c **** 
 711              		.loc 1 84 5 discriminator 3 view .LVU145
 712              	.LBB9:
  84:../switch_sdk/core/fal/tiger/fal_tiger_nic.c **** 
 713              		.loc 1 84 5 discriminator 3 view .LVU146
 714 007c 142C     		cmp	r4, #20
 715 007e 28BF     		it	cs
 716 0080 1424     		movcs	r4, #20
 717 0082 174B     		ldr	r3, .L54+4
 718 0084 0093     		str	r3, [sp]
 719 0086 1B4B     		ldr	r3, .L54+24
 720 0088 174A     		ldr	r2, .L54+12
 721 008a 52F82420 		ldr	r2, [r2, r4, lsl #2]
 722 008e 1749     		ldr	r1, .L54+16
 723 0090 8968     		ldr	r1, [r1, #8]
 724 0092 1748     		ldr	r0, .L54+20
 725              	.LVL78:
  84:../switch_sdk/core/fal/tiger/fal_tiger_nic.c **** 
 726              		.loc 1 84 5 is_stmt 0 discriminator 3 view .LVU147
 727 0094 FFF7FEFF 		bl	osal_printf
 728              	.LVL79:
 729 0098 EEE7     		b	.L44
 730              	.LVL80:
 731              	.L43:
  84:../switch_sdk/core/fal/tiger/fal_tiger_nic.c **** 
 732              		.loc 1 84 5 discriminator 3 view .LVU148
 733              	.LBE9:
  84:../switch_sdk/core/fal/tiger/fal_tiger_nic.c **** 
 734              		.loc 1 84 5 is_stmt 1 discriminator 2 view .LVU149
  86:../switch_sdk/core/fal/tiger/fal_tiger_nic.c ****     CAL_MAC_TO_YTP(unit, macid, ext_cpuport);
 735              		.loc 1 86 5 discriminator 2 view .LVU150
 736              	.LBB10:
  86:../switch_sdk/core/fal/tiger/fal_tiger_nic.c ****     CAL_MAC_TO_YTP(unit, macid, ext_cpuport);
 737              		.loc 1 86 5 discriminator 2 view .LVU151
  86:../switch_sdk/core/fal/tiger/fal_tiger_nic.c ****     CAL_MAC_TO_YTP(unit, macid, ext_cpuport);
 738              		.loc 1 86 5 discriminator 2 view .LVU152
 739 009a 02AB     		add	r3, sp, #8
 740 009c 03AA     		add	r2, sp, #12
 741 009e 0221     		movs	r1, #2
 742 00a0 0846     		mov	r0, r1
 743              	.LVL81:
  86:../switch_sdk/core/fal/tiger/fal_tiger_nic.c ****     CAL_MAC_TO_YTP(unit, macid, ext_cpuport);
 744              		.loc 1 86 5 is_stmt 0 discriminator 2 view .LVU153
 745 00a2 FFF7FEFF 		bl	hal_tbl_reg_field_get
 746              	.LVL82:
  86:../switch_sdk/core/fal/tiger/fal_tiger_nic.c ****     CAL_MAC_TO_YTP(unit, macid, ext_cpuport);
 747              		.loc 1 86 5 is_stmt 1 discriminator 2 view .LVU154
 748 00a6 0299     		ldr	r1, [sp, #8]
 749              	.LVL83:
  86:../switch_sdk/core/fal/tiger/fal_tiger_nic.c ****     CAL_MAC_TO_YTP(unit, macid, ext_cpuport);
 750              		.loc 1 86 5 is_stmt 0 discriminator 2 view .LVU155
 751              	.LBE10:
  86:../switch_sdk/core/fal/tiger/fal_tiger_nic.c ****     CAL_MAC_TO_YTP(unit, macid, ext_cpuport);
 752              		.loc 1 86 5 is_stmt 1 discriminator 2 view .LVU156
  87:../switch_sdk/core/fal/tiger/fal_tiger_nic.c ****     /* enable the backpress on cpu port */
 753              		.loc 1 87 5 discriminator 2 view .LVU157
 754              	.LBB11:
  87:../switch_sdk/core/fal/tiger/fal_tiger_nic.c ****     /* enable the backpress on cpu port */
 755              		.loc 1 87 5 discriminator 2 view .LVU158
  87:../switch_sdk/core/fal/tiger/fal_tiger_nic.c ****     /* enable the backpress on cpu port */
 756              		.loc 1 87 5 discriminator 2 view .LVU159
  87:../switch_sdk/core/fal/tiger/fal_tiger_nic.c ****     /* enable the backpress on cpu port */
 757              		.loc 1 87 5 discriminator 2 view .LVU160
 758              	.L45:
  87:../switch_sdk/core/fal/tiger/fal_tiger_nic.c ****     /* enable the backpress on cpu port */
 759              		.loc 1 87 5 discriminator 5 view .LVU161
 760 00a8 134B     		ldr	r3, .L54+28
 761 00aa 53F82620 		ldr	r2, [r3, r6, lsl #2]
 762 00ae 107D     		ldrb	r0, [r2, #20]	@ zero_extendqisi2
 763 00b0 A042     		cmp	r0, r4
 764 00b2 0AD9     		bls	.L52
  87:../switch_sdk/core/fal/tiger/fal_tiger_nic.c ****     /* enable the backpress on cpu port */
 765              		.loc 1 87 5 discriminator 6 view .LVU162
 766 00b4 A31D     		adds	r3, r4, #6
 767 00b6 52F82330 		ldr	r3, [r2, r3, lsl #2]
 768 00ba 1B78     		ldrb	r3, [r3]	@ zero_extendqisi2
 769 00bc 9942     		cmp	r1, r3
 770 00be 02D0     		beq	.L53
  87:../switch_sdk/core/fal/tiger/fal_tiger_nic.c ****     /* enable the backpress on cpu port */
 771              		.loc 1 87 5 discriminator 3 view .LVU163
 772 00c0 0134     		adds	r4, r4, #1
 773              	.LVL84:
  87:../switch_sdk/core/fal/tiger/fal_tiger_nic.c ****     /* enable the backpress on cpu port */
 774              		.loc 1 87 5 is_stmt 0 discriminator 3 view .LVU164
 775 00c2 E4B2     		uxtb	r4, r4
 776              	.LVL85:
  87:../switch_sdk/core/fal/tiger/fal_tiger_nic.c ****     /* enable the backpress on cpu port */
 777              		.loc 1 87 5 discriminator 3 view .LVU165
 778 00c4 F0E7     		b	.L45
 779              	.L53:
  87:../switch_sdk/core/fal/tiger/fal_tiger_nic.c ****     /* enable the backpress on cpu port */
 780              		.loc 1 87 5 is_stmt 1 discriminator 2 view .LVU166
 781 00c6 2146     		mov	r1, r4
 782              	.LVL86:
  87:../switch_sdk/core/fal/tiger/fal_tiger_nic.c ****     /* enable the backpress on cpu port */
 783              		.loc 1 87 5 discriminator 2 view .LVU167
 784 00c8 00E0     		b	.L47
 785              	.LVL87:
 786              	.L52:
  87:../switch_sdk/core/fal/tiger/fal_tiger_nic.c ****     /* enable the backpress on cpu port */
 787              		.loc 1 87 5 is_stmt 0 view .LVU168
 788 00ca FF21     		movs	r1, #255
 789              	.LVL88:
 790              	.L47:
  87:../switch_sdk/core/fal/tiger/fal_tiger_nic.c ****     /* enable the backpress on cpu port */
 791              		.loc 1 87 5 view .LVU169
 792              	.LBE11:
  87:../switch_sdk/core/fal/tiger/fal_tiger_nic.c ****     /* enable the backpress on cpu port */
 793              		.loc 1 87 5 is_stmt 1 discriminator 7 view .LVU170
  90:../switch_sdk/core/fal/tiger/fal_tiger_nic.c **** #endif
 794              		.loc 1 90 5 discriminator 7 view .LVU171
 795 00cc B7FA87F2 		clz	r2, r7
 796 00d0 5209     		lsrs	r2, r2, #5
 797 00d2 3046     		mov	r0, r6
 798 00d4 FFF7FEFF 		bl	fal_tiger_port_backpress_enable_set
 799              	.LVL89:
  99:../switch_sdk/core/fal/tiger/fal_tiger_nic.c **** }
 800              		.loc 1 99 5 discriminator 7 view .LVU172
  99:../switch_sdk/core/fal/tiger/fal_tiger_nic.c **** }
 801              		.loc 1 99 12 is_stmt 0 discriminator 7 view .LVU173
 802 00d8 0020     		movs	r0, #0
 803 00da A5E7     		b	.L39
 804              	.L55:
 805              		.align	2
 806              	.L54:
 807 00dc 00000000 		.word	yt_debug_level
 808 00e0 00000000 		.word	__FUNCTION__.7
 809 00e4 00000000 		.word	.LC5
 810 00e8 00000000 		.word	_yt_errmsg
 811 00ec 00000000 		.word	_yt_prompt_msg
 812 00f0 58000000 		.word	.LC1
 813 00f4 40000000 		.word	.LC6
 814 00f8 00000000 		.word	gpSwitchUnit
 815              		.cfi_endproc
 816              	.LFE6:
 818              		.section	.text.fal_tiger_nic_ext_cpuport_en_get,"ax",%progbits
 819              		.align	1
 820              		.global	fal_tiger_nic_ext_cpuport_en_get
 821              		.syntax unified
 822              		.thumb
 823              		.thumb_func
 825              	fal_tiger_nic_ext_cpuport_en_get:
 826              	.LVL90:
 827              	.LFB7:
 101:../switch_sdk/core/fal/tiger/fal_tiger_nic.c **** 
 102:../switch_sdk/core/fal/tiger/fal_tiger_nic.c **** yt_ret_t  fal_tiger_nic_ext_cpuport_en_get(yt_unit_t unit,  yt_enable_t *pEnable)
 103:../switch_sdk/core/fal/tiger/fal_tiger_nic.c **** {
 828              		.loc 1 103 1 is_stmt 1 view -0
 829              		.cfi_startproc
 830              		@ args = 0, pretend = 0, frame = 8
 831              		@ frame_needed = 0, uses_anonymous_args = 0
 832              		.loc 1 103 1 is_stmt 0 view .LVU175
 833 0000 30B5     		push	{r4, r5, lr}
 834              		.cfi_def_cfa_offset 12
 835              		.cfi_offset 4, -12
 836              		.cfi_offset 5, -8
 837              		.cfi_offset 14, -4
 838 0002 85B0     		sub	sp, sp, #20
 839              		.cfi_def_cfa_offset 32
 840 0004 0D46     		mov	r5, r1
 104:../switch_sdk/core/fal/tiger/fal_tiger_nic.c ****     ext_cpu_port_ctrl_t entry;
 841              		.loc 1 104 5 is_stmt 1 view .LVU176
 105:../switch_sdk/core/fal/tiger/fal_tiger_nic.c ****     cmm_err_t ret = CMM_ERR_OK;
 842              		.loc 1 105 5 view .LVU177
 843              	.LVL91:
 106:../switch_sdk/core/fal/tiger/fal_tiger_nic.c ****     uint32_t enable;
 844              		.loc 1 106 5 view .LVU178
 107:../switch_sdk/core/fal/tiger/fal_tiger_nic.c **** 
 108:../switch_sdk/core/fal/tiger/fal_tiger_nic.c ****     CMM_ERR_CHK(HAL_TBL_REG_READ(unit, EXT_CPU_PORT_CTRLm, 0,sizeof(ext_cpu_port_ctrl_t), &entry), 
 845              		.loc 1 108 5 view .LVU179
 846              		.loc 1 108 5 view .LVU180
 847 0006 03AB     		add	r3, sp, #12
 848 0008 0093     		str	r3, [sp]
 849 000a 0423     		movs	r3, #4
 850 000c 0022     		movs	r2, #0
 851 000e 0221     		movs	r1, #2
 852              	.LVL92:
 853              		.loc 1 108 5 is_stmt 0 view .LVU181
 854 0010 FFF7FEFF 		bl	hal_table_reg_read
 855              	.LVL93:
 856              		.loc 1 108 5 view .LVU182
 857 0014 10F0FF03 		ands	r3, r0, #255
 858 0018 17D0     		beq	.L57
 859 001a 0446     		mov	r4, r0
 860              		.loc 1 108 5 is_stmt 1 discriminator 1 view .LVU183
 861              		.loc 1 108 5 discriminator 1 view .LVU184
 862 001c 114A     		ldr	r2, .L62
 863 001e 1278     		ldrb	r2, [r2]	@ zero_extendqisi2
 864 0020 012A     		cmp	r2, #1
 865 0022 02D8     		bhi	.L61
 866              	.LVL94:
 867              	.L58:
 868              		.loc 1 108 5 discriminator 5 view .LVU185
 869              		.loc 1 108 5 discriminator 5 view .LVU186
 870              		.loc 1 108 5 discriminator 5 view .LVU187
 871 0024 E0B2     		uxtb	r0, r4
 872              	.L56:
 109:../switch_sdk/core/fal/tiger/fal_tiger_nic.c ****     HAL_FIELD_GET(EXT_CPU_PORT_CTRLm, EXT_CPU_PORT_CTRL_EXT_CPU_PORT_ENf, &entry, &enable);
 110:../switch_sdk/core/fal/tiger/fal_tiger_nic.c ****     *pEnable = enable ? YT_ENABLE : YT_DISABLE;
 111:../switch_sdk/core/fal/tiger/fal_tiger_nic.c **** 
 112:../switch_sdk/core/fal/tiger/fal_tiger_nic.c ****     return CMM_ERR_OK;
 113:../switch_sdk/core/fal/tiger/fal_tiger_nic.c **** }
 873              		.loc 1 113 1 is_stmt 0 view .LVU188
 874 0026 05B0     		add	sp, sp, #20
 875              		.cfi_remember_state
 876              		.cfi_def_cfa_offset 12
 877              		@ sp needed
 878 0028 30BD     		pop	{r4, r5, pc}
 879              	.LVL95:
 880              	.L61:
 881              		.cfi_restore_state
 108:../switch_sdk/core/fal/tiger/fal_tiger_nic.c ****     HAL_FIELD_GET(EXT_CPU_PORT_CTRLm, EXT_CPU_PORT_CTRL_EXT_CPU_PORT_ENf, &entry, &enable);
 882              		.loc 1 108 5 is_stmt 1 discriminator 3 view .LVU189
 883              	.LBB12:
 108:../switch_sdk/core/fal/tiger/fal_tiger_nic.c ****     HAL_FIELD_GET(EXT_CPU_PORT_CTRLm, EXT_CPU_PORT_CTRL_EXT_CPU_PORT_ENf, &entry, &enable);
 884              		.loc 1 108 5 discriminator 3 view .LVU190
 885 002a 142B     		cmp	r3, #20
 886 002c 28BF     		it	cs
 887 002e 1423     		movcs	r3, #20
 888 0030 1A46     		mov	r2, r3
 889 0032 0D4B     		ldr	r3, .L62+4
 890 0034 0093     		str	r3, [sp]
 891 0036 0D4B     		ldr	r3, .L62+8
 892 0038 0D49     		ldr	r1, .L62+12
 893 003a 51F82220 		ldr	r2, [r1, r2, lsl #2]
 894 003e 0D49     		ldr	r1, .L62+16
 895 0040 8968     		ldr	r1, [r1, #8]
 896 0042 0D48     		ldr	r0, .L62+20
 897              	.LVL96:
 108:../switch_sdk/core/fal/tiger/fal_tiger_nic.c ****     HAL_FIELD_GET(EXT_CPU_PORT_CTRLm, EXT_CPU_PORT_CTRL_EXT_CPU_PORT_ENf, &entry, &enable);
 898              		.loc 1 108 5 is_stmt 0 discriminator 3 view .LVU191
 899 0044 FFF7FEFF 		bl	osal_printf
 900              	.LVL97:
 901 0048 ECE7     		b	.L58
 902              	.LVL98:
 903              	.L57:
 108:../switch_sdk/core/fal/tiger/fal_tiger_nic.c ****     HAL_FIELD_GET(EXT_CPU_PORT_CTRLm, EXT_CPU_PORT_CTRL_EXT_CPU_PORT_ENf, &entry, &enable);
 904              		.loc 1 108 5 discriminator 3 view .LVU192
 905              	.LBE12:
 108:../switch_sdk/core/fal/tiger/fal_tiger_nic.c ****     HAL_FIELD_GET(EXT_CPU_PORT_CTRLm, EXT_CPU_PORT_CTRL_EXT_CPU_PORT_ENf, &entry, &enable);
 906              		.loc 1 108 5 is_stmt 1 discriminator 2 view .LVU193
 109:../switch_sdk/core/fal/tiger/fal_tiger_nic.c ****     HAL_FIELD_GET(EXT_CPU_PORT_CTRLm, EXT_CPU_PORT_CTRL_EXT_CPU_PORT_ENf, &entry, &enable);
 907              		.loc 1 109 5 discriminator 2 view .LVU194
 908              	.LBB13:
 109:../switch_sdk/core/fal/tiger/fal_tiger_nic.c ****     HAL_FIELD_GET(EXT_CPU_PORT_CTRLm, EXT_CPU_PORT_CTRL_EXT_CPU_PORT_ENf, &entry, &enable);
 909              		.loc 1 109 5 discriminator 2 view .LVU195
 109:../switch_sdk/core/fal/tiger/fal_tiger_nic.c ****     HAL_FIELD_GET(EXT_CPU_PORT_CTRLm, EXT_CPU_PORT_CTRL_EXT_CPU_PORT_ENf, &entry, &enable);
 910              		.loc 1 109 5 discriminator 2 view .LVU196
 911 004a 02AB     		add	r3, sp, #8
 912 004c 03AA     		add	r2, sp, #12
 913 004e 0121     		movs	r1, #1
 914 0050 0220     		movs	r0, #2
 915              	.LVL99:
 109:../switch_sdk/core/fal/tiger/fal_tiger_nic.c ****     HAL_FIELD_GET(EXT_CPU_PORT_CTRLm, EXT_CPU_PORT_CTRL_EXT_CPU_PORT_ENf, &entry, &enable);
 916              		.loc 1 109 5 is_stmt 0 discriminator 2 view .LVU197
 917 0052 FFF7FEFF 		bl	hal_tbl_reg_field_get
 918              	.LVL100:
 109:../switch_sdk/core/fal/tiger/fal_tiger_nic.c ****     HAL_FIELD_GET(EXT_CPU_PORT_CTRLm, EXT_CPU_PORT_CTRL_EXT_CPU_PORT_ENf, &entry, &enable);
 919              		.loc 1 109 5 is_stmt 1 discriminator 2 view .LVU198
 109:../switch_sdk/core/fal/tiger/fal_tiger_nic.c ****     HAL_FIELD_GET(EXT_CPU_PORT_CTRLm, EXT_CPU_PORT_CTRL_EXT_CPU_PORT_ENf, &entry, &enable);
 920              		.loc 1 109 5 is_stmt 0 discriminator 2 view .LVU199
 921              	.LBE13:
 109:../switch_sdk/core/fal/tiger/fal_tiger_nic.c ****     HAL_FIELD_GET(EXT_CPU_PORT_CTRLm, EXT_CPU_PORT_CTRL_EXT_CPU_PORT_ENf, &entry, &enable);
 922              		.loc 1 109 5 is_stmt 1 discriminator 2 view .LVU200
 110:../switch_sdk/core/fal/tiger/fal_tiger_nic.c **** 
 923              		.loc 1 110 5 discriminator 2 view .LVU201
 110:../switch_sdk/core/fal/tiger/fal_tiger_nic.c **** 
 924              		.loc 1 110 35 is_stmt 0 discriminator 2 view .LVU202
 925 0056 029B     		ldr	r3, [sp, #8]
 926 0058 003B     		subs	r3, r3, #0
 927 005a 18BF     		it	ne
 928 005c 0123     		movne	r3, #1
 110:../switch_sdk/core/fal/tiger/fal_tiger_nic.c **** 
 929              		.loc 1 110 14 discriminator 2 view .LVU203
 930 005e 2B70     		strb	r3, [r5]
 931              	.LVL101:
 112:../switch_sdk/core/fal/tiger/fal_tiger_nic.c **** }
 932              		.loc 1 112 5 is_stmt 1 discriminator 2 view .LVU204
 112:../switch_sdk/core/fal/tiger/fal_tiger_nic.c **** }
 933              		.loc 1 112 12 is_stmt 0 discriminator 2 view .LVU205
 934 0060 0020     		movs	r0, #0
 935 0062 E0E7     		b	.L56
 936              	.L63:
 937              		.align	2
 938              	.L62:
 939 0064 00000000 		.word	yt_debug_level
 940 0068 00000000 		.word	__FUNCTION__.6
 941 006c 00000000 		.word	.LC5
 942 0070 00000000 		.word	_yt_errmsg
 943 0074 00000000 		.word	_yt_prompt_msg
 944 0078 58000000 		.word	.LC1
 945              		.cfi_endproc
 946              	.LFE7:
 948              		.section	.text.fal_tiger_nic_ext_cpuport_port_set,"ax",%progbits
 949              		.align	1
 950              		.global	fal_tiger_nic_ext_cpuport_port_set
 951              		.syntax unified
 952              		.thumb
 953              		.thumb_func
 955              	fal_tiger_nic_ext_cpuport_port_set:
 956              	.LVL102:
 957              	.LFB8:
 114:../switch_sdk/core/fal/tiger/fal_tiger_nic.c **** 
 115:../switch_sdk/core/fal/tiger/fal_tiger_nic.c **** yt_ret_t  fal_tiger_nic_ext_cpuport_port_set(yt_unit_t unit,  yt_port_t port)
 116:../switch_sdk/core/fal/tiger/fal_tiger_nic.c **** {
 958              		.loc 1 116 1 is_stmt 1 view -0
 959              		.cfi_startproc
 960              		@ args = 0, pretend = 0, frame = 8
 961              		@ frame_needed = 0, uses_anonymous_args = 0
 962              		.loc 1 116 1 is_stmt 0 view .LVU207
 963 0000 F0B5     		push	{r4, r5, r6, r7, lr}
 964              		.cfi_def_cfa_offset 20
 965              		.cfi_offset 4, -20
 966              		.cfi_offset 5, -16
 967              		.cfi_offset 6, -12
 968              		.cfi_offset 7, -8
 969              		.cfi_offset 14, -4
 970 0002 85B0     		sub	sp, sp, #20
 971              		.cfi_def_cfa_offset 40
 972 0004 0546     		mov	r5, r0
 973 0006 0E46     		mov	r6, r1
 117:../switch_sdk/core/fal/tiger/fal_tiger_nic.c ****     ext_cpu_port_ctrl_t entry;
 974              		.loc 1 117 5 is_stmt 1 view .LVU208
 118:../switch_sdk/core/fal/tiger/fal_tiger_nic.c ****     cmm_err_t ret = CMM_ERR_OK;
 975              		.loc 1 118 5 view .LVU209
 976              	.LVL103:
 119:../switch_sdk/core/fal/tiger/fal_tiger_nic.c ****     yt_macid_t macid;
 977              		.loc 1 119 5 view .LVU210
 120:../switch_sdk/core/fal/tiger/fal_tiger_nic.c ****     uint32_t enable;
 978              		.loc 1 120 5 view .LVU211
 121:../switch_sdk/core/fal/tiger/fal_tiger_nic.c **** 
 122:../switch_sdk/core/fal/tiger/fal_tiger_nic.c ****     macid = CAL_YTP_TO_MAC(unit,port);
 979              		.loc 1 122 5 view .LVU212
 980              		.loc 1 122 13 is_stmt 0 view .LVU213
 981 0008 364B     		ldr	r3, .L78
 982 000a 1B78     		ldrb	r3, [r3]	@ zero_extendqisi2
 983 000c 53B1     		cbz	r3, .L71
 984              		.loc 1 122 13 discriminator 1 view .LVU214
 985 000e 364B     		ldr	r3, .L78+4
 986 0010 53F82030 		ldr	r3, [r3, r0, lsl #2]
 987 0014 1A7D     		ldrb	r2, [r3, #20]	@ zero_extendqisi2
 988 0016 8A42     		cmp	r2, r1
 989 0018 18D9     		bls	.L72
 990              		.loc 1 122 13 discriminator 3 view .LVU215
 991 001a 8A1D     		adds	r2, r1, #6
 992 001c 53F82230 		ldr	r3, [r3, r2, lsl #2]
 993 0020 1F78     		ldrb	r7, [r3]	@ zero_extendqisi2
 994 0022 00E0     		b	.L65
 995              	.L71:
 996              		.loc 1 122 13 view .LVU216
 997 0024 FF27     		movs	r7, #255
 998              	.L65:
 999              	.LVL104:
 123:../switch_sdk/core/fal/tiger/fal_tiger_nic.c **** 
 124:../switch_sdk/core/fal/tiger/fal_tiger_nic.c ****     CMM_ERR_CHK(HAL_TBL_REG_READ(unit, EXT_CPU_PORT_CTRLm, 0,sizeof(ext_cpu_port_ctrl_t), &entry), 
 1000              		.loc 1 124 5 is_stmt 1 discriminator 6 view .LVU217
 1001              		.loc 1 124 5 discriminator 6 view .LVU218
 1002 0026 03AB     		add	r3, sp, #12
 1003 0028 0093     		str	r3, [sp]
 1004 002a 0423     		movs	r3, #4
 1005 002c 0022     		movs	r2, #0
 1006 002e 0221     		movs	r1, #2
 1007              	.LVL105:
 1008              		.loc 1 124 5 is_stmt 0 discriminator 6 view .LVU219
 1009 0030 2846     		mov	r0, r5
 1010              	.LVL106:
 1011              		.loc 1 124 5 discriminator 6 view .LVU220
 1012 0032 FFF7FEFF 		bl	hal_table_reg_read
 1013              	.LVL107:
 1014 0036 0446     		mov	r4, r0
 1015              	.LVL108:
 1016              		.loc 1 124 5 discriminator 6 view .LVU221
 1017 0038 10F0FF03 		ands	r3, r0, #255
 1018 003c 18D0     		beq	.L66
 1019              		.loc 1 124 5 is_stmt 1 discriminator 1 view .LVU222
 1020              		.loc 1 124 5 discriminator 1 view .LVU223
 1021 003e 2B4A     		ldr	r2, .L78+8
 1022 0040 1278     		ldrb	r2, [r2]	@ zero_extendqisi2
 1023 0042 012A     		cmp	r2, #1
 1024 0044 04D8     		bhi	.L75
 1025              	.LVL109:
 1026              	.L67:
 1027              		.loc 1 124 5 discriminator 5 view .LVU224
 1028              		.loc 1 124 5 discriminator 5 view .LVU225
 1029              		.loc 1 124 5 discriminator 5 view .LVU226
 1030 0046 E0B2     		uxtb	r0, r4
 1031              	.LVL110:
 1032              	.L64:
 125:../switch_sdk/core/fal/tiger/fal_tiger_nic.c ****     HAL_FIELD_SET(EXT_CPU_PORT_CTRLm, EXT_CPU_PORT_CTRL_EXT_CPU_PORT_NUMf, &entry, macid);
 126:../switch_sdk/core/fal/tiger/fal_tiger_nic.c ****     CMM_ERR_CHK(HAL_TBL_REG_WRITE(unit, EXT_CPU_PORT_CTRLm, 0, sizeof(ext_cpu_port_ctrl_t), &entry)
 127:../switch_sdk/core/fal/tiger/fal_tiger_nic.c **** 
 128:../switch_sdk/core/fal/tiger/fal_tiger_nic.c ****     HAL_FIELD_GET(EXT_CPU_PORT_CTRLm, EXT_CPU_PORT_CTRL_EXT_CPU_PORT_ENf, &entry, &enable);
 129:../switch_sdk/core/fal/tiger/fal_tiger_nic.c ****     if(enable == YT_ENABLE)
 130:../switch_sdk/core/fal/tiger/fal_tiger_nic.c ****     {
 131:../switch_sdk/core/fal/tiger/fal_tiger_nic.c ****         /* disable the backpress on cpu port */
 132:../switch_sdk/core/fal/tiger/fal_tiger_nic.c **** #ifdef PORT_INCLUDED
 133:../switch_sdk/core/fal/tiger/fal_tiger_nic.c ****         fal_tiger_port_backpress_enable_set(unit, port, YT_DISABLE);
 134:../switch_sdk/core/fal/tiger/fal_tiger_nic.c **** #endif
 135:../switch_sdk/core/fal/tiger/fal_tiger_nic.c ****         /* l2 learn on port */
 136:../switch_sdk/core/fal/tiger/fal_tiger_nic.c **** #ifdef L2_INCLUDED
 137:../switch_sdk/core/fal/tiger/fal_tiger_nic.c ****         fal_tiger_l2_port_learn_en_set(unit, port, YT_DISABLE);
 138:../switch_sdk/core/fal/tiger/fal_tiger_nic.c **** #endif
 139:../switch_sdk/core/fal/tiger/fal_tiger_nic.c ****         /* udpate yt ext cpu port bit in portmask
 140:../switch_sdk/core/fal/tiger/fal_tiger_nic.c ****         CMM_PLIST_UPDATE(unit, port, FALSE); */
 141:../switch_sdk/core/fal/tiger/fal_tiger_nic.c ****      }
 142:../switch_sdk/core/fal/tiger/fal_tiger_nic.c ****     
 143:../switch_sdk/core/fal/tiger/fal_tiger_nic.c ****     return CMM_ERR_OK;
 144:../switch_sdk/core/fal/tiger/fal_tiger_nic.c **** }
 1033              		.loc 1 144 1 is_stmt 0 view .LVU227
 1034 0048 05B0     		add	sp, sp, #20
 1035              		.cfi_remember_state
 1036              		.cfi_def_cfa_offset 20
 1037              		@ sp needed
 1038 004a F0BD     		pop	{r4, r5, r6, r7, pc}
 1039              	.LVL111:
 1040              	.L72:
 1041              		.cfi_restore_state
 122:../switch_sdk/core/fal/tiger/fal_tiger_nic.c **** 
 1042              		.loc 1 122 13 view .LVU228
 1043 004c FF27     		movs	r7, #255
 1044 004e EAE7     		b	.L65
 1045              	.LVL112:
 1046              	.L75:
 124:../switch_sdk/core/fal/tiger/fal_tiger_nic.c ****     HAL_FIELD_SET(EXT_CPU_PORT_CTRLm, EXT_CPU_PORT_CTRL_EXT_CPU_PORT_NUMf, &entry, macid);
 1047              		.loc 1 124 5 is_stmt 1 discriminator 3 view .LVU229
 1048              	.LBB14:
 124:../switch_sdk/core/fal/tiger/fal_tiger_nic.c ****     HAL_FIELD_SET(EXT_CPU_PORT_CTRLm, EXT_CPU_PORT_CTRL_EXT_CPU_PORT_NUMf, &entry, macid);
 1049              		.loc 1 124 5 discriminator 3 view .LVU230
 1050 0050 142B     		cmp	r3, #20
 1051 0052 28BF     		it	cs
 1052 0054 1423     		movcs	r3, #20
 1053 0056 1A46     		mov	r2, r3
 1054 0058 254B     		ldr	r3, .L78+12
 1055 005a 0093     		str	r3, [sp]
 1056 005c 254B     		ldr	r3, .L78+16
 1057 005e 2649     		ldr	r1, .L78+20
 1058 0060 51F82220 		ldr	r2, [r1, r2, lsl #2]
 1059 0064 2549     		ldr	r1, .L78+24
 1060 0066 8968     		ldr	r1, [r1, #8]
 1061 0068 2548     		ldr	r0, .L78+28
 1062              	.LVL113:
 124:../switch_sdk/core/fal/tiger/fal_tiger_nic.c ****     HAL_FIELD_SET(EXT_CPU_PORT_CTRLm, EXT_CPU_PORT_CTRL_EXT_CPU_PORT_NUMf, &entry, macid);
 1063              		.loc 1 124 5 is_stmt 0 discriminator 3 view .LVU231
 1064 006a FFF7FEFF 		bl	osal_printf
 1065              	.LVL114:
 1066 006e EAE7     		b	.L67
 1067              	.LVL115:
 1068              	.L66:
 124:../switch_sdk/core/fal/tiger/fal_tiger_nic.c ****     HAL_FIELD_SET(EXT_CPU_PORT_CTRLm, EXT_CPU_PORT_CTRL_EXT_CPU_PORT_NUMf, &entry, macid);
 1069              		.loc 1 124 5 discriminator 3 view .LVU232
 1070              	.LBE14:
 124:../switch_sdk/core/fal/tiger/fal_tiger_nic.c ****     HAL_FIELD_SET(EXT_CPU_PORT_CTRLm, EXT_CPU_PORT_CTRL_EXT_CPU_PORT_NUMf, &entry, macid);
 1071              		.loc 1 124 5 is_stmt 1 discriminator 2 view .LVU233
 125:../switch_sdk/core/fal/tiger/fal_tiger_nic.c ****     HAL_FIELD_SET(EXT_CPU_PORT_CTRLm, EXT_CPU_PORT_CTRL_EXT_CPU_PORT_NUMf, &entry, macid);
 1072              		.loc 1 125 5 discriminator 2 view .LVU234
 1073 0070 03AC     		add	r4, sp, #12
 1074 0072 3B46     		mov	r3, r7
 1075 0074 2246     		mov	r2, r4
 1076 0076 0221     		movs	r1, #2
 1077 0078 0846     		mov	r0, r1
 1078              	.LVL116:
 125:../switch_sdk/core/fal/tiger/fal_tiger_nic.c ****     HAL_FIELD_SET(EXT_CPU_PORT_CTRLm, EXT_CPU_PORT_CTRL_EXT_CPU_PORT_NUMf, &entry, macid);
 1079              		.loc 1 125 5 is_stmt 0 discriminator 2 view .LVU235
 1080 007a FFF7FEFF 		bl	hal_tbl_reg_field_set
 1081              	.LVL117:
 126:../switch_sdk/core/fal/tiger/fal_tiger_nic.c **** 
 1082              		.loc 1 126 5 is_stmt 1 discriminator 2 view .LVU236
 126:../switch_sdk/core/fal/tiger/fal_tiger_nic.c **** 
 1083              		.loc 1 126 5 discriminator 2 view .LVU237
 1084 007e 0094     		str	r4, [sp]
 1085 0080 0423     		movs	r3, #4
 1086 0082 0022     		movs	r2, #0
 1087 0084 0221     		movs	r1, #2
 1088 0086 2846     		mov	r0, r5
 1089 0088 FFF7FEFF 		bl	hal_table_reg_write
 1090              	.LVL118:
 1091 008c 0446     		mov	r4, r0
 1092              	.LVL119:
 126:../switch_sdk/core/fal/tiger/fal_tiger_nic.c **** 
 1093              		.loc 1 126 5 is_stmt 0 discriminator 2 view .LVU238
 1094 008e 10F0FF03 		ands	r3, r0, #255
 1095 0092 15D0     		beq	.L69
 126:../switch_sdk/core/fal/tiger/fal_tiger_nic.c **** 
 1096              		.loc 1 126 5 is_stmt 1 discriminator 1 view .LVU239
 126:../switch_sdk/core/fal/tiger/fal_tiger_nic.c **** 
 1097              		.loc 1 126 5 discriminator 1 view .LVU240
 1098 0094 154A     		ldr	r2, .L78+8
 1099 0096 1278     		ldrb	r2, [r2]	@ zero_extendqisi2
 1100 0098 012A     		cmp	r2, #1
 1101 009a 01D8     		bhi	.L76
 1102              	.LVL120:
 1103              	.L70:
 126:../switch_sdk/core/fal/tiger/fal_tiger_nic.c **** 
 1104              		.loc 1 126 5 discriminator 5 view .LVU241
 126:../switch_sdk/core/fal/tiger/fal_tiger_nic.c **** 
 1105              		.loc 1 126 5 discriminator 5 view .LVU242
 126:../switch_sdk/core/fal/tiger/fal_tiger_nic.c **** 
 1106              		.loc 1 126 5 discriminator 5 view .LVU243
 1107 009c E0B2     		uxtb	r0, r4
 1108 009e D3E7     		b	.L64
 1109              	.LVL121:
 1110              	.L76:
 126:../switch_sdk/core/fal/tiger/fal_tiger_nic.c **** 
 1111              		.loc 1 126 5 discriminator 3 view .LVU244
 1112              	.LBB15:
 126:../switch_sdk/core/fal/tiger/fal_tiger_nic.c **** 
 1113              		.loc 1 126 5 discriminator 3 view .LVU245
 1114 00a0 142B     		cmp	r3, #20
 1115 00a2 28BF     		it	cs
 1116 00a4 1423     		movcs	r3, #20
 1117 00a6 1A46     		mov	r2, r3
 1118 00a8 114B     		ldr	r3, .L78+12
 1119 00aa 0093     		str	r3, [sp]
 1120 00ac 154B     		ldr	r3, .L78+32
 1121 00ae 1249     		ldr	r1, .L78+20
 1122 00b0 51F82220 		ldr	r2, [r1, r2, lsl #2]
 1123 00b4 1149     		ldr	r1, .L78+24
 1124 00b6 8968     		ldr	r1, [r1, #8]
 1125 00b8 1148     		ldr	r0, .L78+28
 1126              	.LVL122:
 126:../switch_sdk/core/fal/tiger/fal_tiger_nic.c **** 
 1127              		.loc 1 126 5 is_stmt 0 discriminator 3 view .LVU246
 1128 00ba FFF7FEFF 		bl	osal_printf
 1129              	.LVL123:
 1130 00be EDE7     		b	.L70
 1131              	.LVL124:
 1132              	.L69:
 126:../switch_sdk/core/fal/tiger/fal_tiger_nic.c **** 
 1133              		.loc 1 126 5 discriminator 3 view .LVU247
 1134              	.LBE15:
 126:../switch_sdk/core/fal/tiger/fal_tiger_nic.c **** 
 1135              		.loc 1 126 5 is_stmt 1 discriminator 2 view .LVU248
 128:../switch_sdk/core/fal/tiger/fal_tiger_nic.c ****     if(enable == YT_ENABLE)
 1136              		.loc 1 128 5 discriminator 2 view .LVU249
 1137              	.LBB16:
 128:../switch_sdk/core/fal/tiger/fal_tiger_nic.c ****     if(enable == YT_ENABLE)
 1138              		.loc 1 128 5 discriminator 2 view .LVU250
 128:../switch_sdk/core/fal/tiger/fal_tiger_nic.c ****     if(enable == YT_ENABLE)
 1139              		.loc 1 128 5 discriminator 2 view .LVU251
 1140 00c0 02AB     		add	r3, sp, #8
 1141 00c2 03AA     		add	r2, sp, #12
 1142 00c4 0121     		movs	r1, #1
 1143 00c6 0220     		movs	r0, #2
 1144              	.LVL125:
 128:../switch_sdk/core/fal/tiger/fal_tiger_nic.c ****     if(enable == YT_ENABLE)
 1145              		.loc 1 128 5 is_stmt 0 discriminator 2 view .LVU252
 1146 00c8 FFF7FEFF 		bl	hal_tbl_reg_field_get
 1147              	.LVL126:
 128:../switch_sdk/core/fal/tiger/fal_tiger_nic.c ****     if(enable == YT_ENABLE)
 1148              		.loc 1 128 5 is_stmt 1 discriminator 2 view .LVU253
 1149 00cc 029B     		ldr	r3, [sp, #8]
 1150              	.LVL127:
 128:../switch_sdk/core/fal/tiger/fal_tiger_nic.c ****     if(enable == YT_ENABLE)
 1151              		.loc 1 128 5 is_stmt 0 discriminator 2 view .LVU254
 1152              	.LBE16:
 128:../switch_sdk/core/fal/tiger/fal_tiger_nic.c ****     if(enable == YT_ENABLE)
 1153              		.loc 1 128 5 is_stmt 1 discriminator 2 view .LVU255
 129:../switch_sdk/core/fal/tiger/fal_tiger_nic.c ****     {
 1154              		.loc 1 129 5 discriminator 2 view .LVU256
 129:../switch_sdk/core/fal/tiger/fal_tiger_nic.c ****     {
 1155              		.loc 1 129 7 is_stmt 0 discriminator 2 view .LVU257
 1156 00ce 012B     		cmp	r3, #1
 1157 00d0 01D0     		beq	.L77
 143:../switch_sdk/core/fal/tiger/fal_tiger_nic.c **** }
 1158              		.loc 1 143 12 view .LVU258
 1159 00d2 0020     		movs	r0, #0
 1160 00d4 B8E7     		b	.L64
 1161              	.L77:
 133:../switch_sdk/core/fal/tiger/fal_tiger_nic.c **** #endif
 1162              		.loc 1 133 9 is_stmt 1 view .LVU259
 1163 00d6 0022     		movs	r2, #0
 1164 00d8 3146     		mov	r1, r6
 1165 00da 2846     		mov	r0, r5
 1166 00dc FFF7FEFF 		bl	fal_tiger_port_backpress_enable_set
 1167              	.LVL128:
 143:../switch_sdk/core/fal/tiger/fal_tiger_nic.c **** }
 1168              		.loc 1 143 12 is_stmt 0 view .LVU260
 1169 00e0 0020     		movs	r0, #0
 1170 00e2 B1E7     		b	.L64
 1171              	.L79:
 1172              		.align	2
 1173              	.L78:
 1174 00e4 00000000 		.word	gcal_inited
 1175 00e8 00000000 		.word	gpSwitchUnit
 1176 00ec 00000000 		.word	yt_debug_level
 1177 00f0 00000000 		.word	__FUNCTION__.5
 1178 00f4 00000000 		.word	.LC5
 1179 00f8 00000000 		.word	_yt_errmsg
 1180 00fc 00000000 		.word	_yt_prompt_msg
 1181 0100 58000000 		.word	.LC1
 1182 0104 40000000 		.word	.LC6
 1183              		.cfi_endproc
 1184              	.LFE8:
 1186              		.section	.text.fal_tiger_nic_ext_cpuport_port_get,"ax",%progbits
 1187              		.align	1
 1188              		.global	fal_tiger_nic_ext_cpuport_port_get
 1189              		.syntax unified
 1190              		.thumb
 1191              		.thumb_func
 1193              	fal_tiger_nic_ext_cpuport_port_get:
 1194              	.LVL129:
 1195              	.LFB9:
 145:../switch_sdk/core/fal/tiger/fal_tiger_nic.c **** 
 146:../switch_sdk/core/fal/tiger/fal_tiger_nic.c **** yt_ret_t  fal_tiger_nic_ext_cpuport_port_get(yt_unit_t unit,  yt_port_t *pport)
 147:../switch_sdk/core/fal/tiger/fal_tiger_nic.c **** {
 1196              		.loc 1 147 1 is_stmt 1 view -0
 1197              		.cfi_startproc
 1198              		@ args = 0, pretend = 0, frame = 8
 1199              		@ frame_needed = 0, uses_anonymous_args = 0
 1200              		.loc 1 147 1 is_stmt 0 view .LVU262
 1201 0000 F0B5     		push	{r4, r5, r6, r7, lr}
 1202              		.cfi_def_cfa_offset 20
 1203              		.cfi_offset 4, -20
 1204              		.cfi_offset 5, -16
 1205              		.cfi_offset 6, -12
 1206              		.cfi_offset 7, -8
 1207              		.cfi_offset 14, -4
 1208 0002 85B0     		sub	sp, sp, #20
 1209              		.cfi_def_cfa_offset 40
 1210 0004 0546     		mov	r5, r0
 1211 0006 0E46     		mov	r6, r1
 148:../switch_sdk/core/fal/tiger/fal_tiger_nic.c ****     ext_cpu_port_ctrl_t entry;
 1212              		.loc 1 148 5 is_stmt 1 view .LVU263
 149:../switch_sdk/core/fal/tiger/fal_tiger_nic.c ****     cmm_err_t ret = CMM_ERR_OK;
 1213              		.loc 1 149 5 view .LVU264
 1214              	.LVL130:
 150:../switch_sdk/core/fal/tiger/fal_tiger_nic.c ****     uint32_t macid;
 1215              		.loc 1 150 5 view .LVU265
 151:../switch_sdk/core/fal/tiger/fal_tiger_nic.c **** 
 152:../switch_sdk/core/fal/tiger/fal_tiger_nic.c ****     CMM_ERR_CHK(HAL_TBL_REG_READ(unit, EXT_CPU_PORT_CTRLm, 0,sizeof(ext_cpu_port_ctrl_t), &entry), 
 1216              		.loc 1 152 5 view .LVU266
 1217              		.loc 1 152 5 view .LVU267
 1218 0008 03AB     		add	r3, sp, #12
 1219 000a 0093     		str	r3, [sp]
 1220 000c 0423     		movs	r3, #4
 1221 000e 0022     		movs	r2, #0
 1222 0010 0221     		movs	r1, #2
 1223              	.LVL131:
 1224              		.loc 1 152 5 is_stmt 0 view .LVU268
 1225 0012 FFF7FEFF 		bl	hal_table_reg_read
 1226              	.LVL132:
 1227              		.loc 1 152 5 view .LVU269
 1228 0016 10F0FF04 		ands	r4, r0, #255
 1229 001a 16D0     		beq	.L81
 1230 001c 0746     		mov	r7, r0
 1231              		.loc 1 152 5 is_stmt 1 discriminator 1 view .LVU270
 1232              		.loc 1 152 5 discriminator 1 view .LVU271
 1233 001e 194B     		ldr	r3, .L91
 1234 0020 1B78     		ldrb	r3, [r3]	@ zero_extendqisi2
 1235 0022 012B     		cmp	r3, #1
 1236 0024 02D8     		bhi	.L88
 1237              	.LVL133:
 1238              	.L82:
 1239              		.loc 1 152 5 discriminator 5 view .LVU272
 1240              		.loc 1 152 5 discriminator 5 view .LVU273
 1241              		.loc 1 152 5 discriminator 5 view .LVU274
 1242 0026 F8B2     		uxtb	r0, r7
 1243              	.L80:
 153:../switch_sdk/core/fal/tiger/fal_tiger_nic.c ****     HAL_FIELD_GET(EXT_CPU_PORT_CTRLm, EXT_CPU_PORT_CTRL_EXT_CPU_PORT_NUMf, &entry, &macid);
 154:../switch_sdk/core/fal/tiger/fal_tiger_nic.c ****     CAL_MAC_TO_YTP(unit, macid, (*pport));
 155:../switch_sdk/core/fal/tiger/fal_tiger_nic.c **** 
 156:../switch_sdk/core/fal/tiger/fal_tiger_nic.c ****     return CMM_ERR_OK;
 157:../switch_sdk/core/fal/tiger/fal_tiger_nic.c **** }
 1244              		.loc 1 157 1 is_stmt 0 view .LVU275
 1245 0028 05B0     		add	sp, sp, #20
 1246              		.cfi_remember_state
 1247              		.cfi_def_cfa_offset 20
 1248              		@ sp needed
 1249 002a F0BD     		pop	{r4, r5, r6, r7, pc}
 1250              	.LVL134:
 1251              	.L88:
 1252              		.cfi_restore_state
 152:../switch_sdk/core/fal/tiger/fal_tiger_nic.c ****     HAL_FIELD_GET(EXT_CPU_PORT_CTRLm, EXT_CPU_PORT_CTRL_EXT_CPU_PORT_NUMf, &entry, &macid);
 1253              		.loc 1 152 5 is_stmt 1 discriminator 3 view .LVU276
 1254              	.LBB17:
 152:../switch_sdk/core/fal/tiger/fal_tiger_nic.c ****     HAL_FIELD_GET(EXT_CPU_PORT_CTRLm, EXT_CPU_PORT_CTRL_EXT_CPU_PORT_NUMf, &entry, &macid);
 1255              		.loc 1 152 5 discriminator 3 view .LVU277
 1256 002c 142C     		cmp	r4, #20
 1257 002e 28BF     		it	cs
 1258 0030 1424     		movcs	r4, #20
 1259 0032 154B     		ldr	r3, .L91+4
 1260 0034 0093     		str	r3, [sp]
 1261 0036 154B     		ldr	r3, .L91+8
 1262 0038 154A     		ldr	r2, .L91+12
 1263 003a 52F82420 		ldr	r2, [r2, r4, lsl #2]
 1264 003e 1549     		ldr	r1, .L91+16
 1265 0040 8968     		ldr	r1, [r1, #8]
 1266 0042 1548     		ldr	r0, .L91+20
 1267              	.LVL135:
 152:../switch_sdk/core/fal/tiger/fal_tiger_nic.c ****     HAL_FIELD_GET(EXT_CPU_PORT_CTRLm, EXT_CPU_PORT_CTRL_EXT_CPU_PORT_NUMf, &entry, &macid);
 1268              		.loc 1 152 5 is_stmt 0 discriminator 3 view .LVU278
 1269 0044 FFF7FEFF 		bl	osal_printf
 1270              	.LVL136:
 1271 0048 EDE7     		b	.L82
 1272              	.LVL137:
 1273              	.L81:
 152:../switch_sdk/core/fal/tiger/fal_tiger_nic.c ****     HAL_FIELD_GET(EXT_CPU_PORT_CTRLm, EXT_CPU_PORT_CTRL_EXT_CPU_PORT_NUMf, &entry, &macid);
 1274              		.loc 1 152 5 discriminator 3 view .LVU279
 1275              	.LBE17:
 152:../switch_sdk/core/fal/tiger/fal_tiger_nic.c ****     HAL_FIELD_GET(EXT_CPU_PORT_CTRLm, EXT_CPU_PORT_CTRL_EXT_CPU_PORT_NUMf, &entry, &macid);
 1276              		.loc 1 152 5 is_stmt 1 discriminator 2 view .LVU280
 153:../switch_sdk/core/fal/tiger/fal_tiger_nic.c ****     HAL_FIELD_GET(EXT_CPU_PORT_CTRLm, EXT_CPU_PORT_CTRL_EXT_CPU_PORT_NUMf, &entry, &macid);
 1277              		.loc 1 153 5 discriminator 2 view .LVU281
 1278              	.LBB18:
 153:../switch_sdk/core/fal/tiger/fal_tiger_nic.c ****     HAL_FIELD_GET(EXT_CPU_PORT_CTRLm, EXT_CPU_PORT_CTRL_EXT_CPU_PORT_NUMf, &entry, &macid);
 1279              		.loc 1 153 5 discriminator 2 view .LVU282
 153:../switch_sdk/core/fal/tiger/fal_tiger_nic.c ****     HAL_FIELD_GET(EXT_CPU_PORT_CTRLm, EXT_CPU_PORT_CTRL_EXT_CPU_PORT_NUMf, &entry, &macid);
 1280              		.loc 1 153 5 discriminator 2 view .LVU283
 1281 004a 02AB     		add	r3, sp, #8
 1282 004c 03AA     		add	r2, sp, #12
 1283 004e 0221     		movs	r1, #2
 1284 0050 0846     		mov	r0, r1
 1285              	.LVL138:
 153:../switch_sdk/core/fal/tiger/fal_tiger_nic.c ****     HAL_FIELD_GET(EXT_CPU_PORT_CTRLm, EXT_CPU_PORT_CTRL_EXT_CPU_PORT_NUMf, &entry, &macid);
 1286              		.loc 1 153 5 is_stmt 0 discriminator 2 view .LVU284
 1287 0052 FFF7FEFF 		bl	hal_tbl_reg_field_get
 1288              	.LVL139:
 153:../switch_sdk/core/fal/tiger/fal_tiger_nic.c ****     HAL_FIELD_GET(EXT_CPU_PORT_CTRLm, EXT_CPU_PORT_CTRL_EXT_CPU_PORT_NUMf, &entry, &macid);
 1289              		.loc 1 153 5 is_stmt 1 discriminator 2 view .LVU285
 1290 0056 0299     		ldr	r1, [sp, #8]
 1291              	.LVL140:
 153:../switch_sdk/core/fal/tiger/fal_tiger_nic.c ****     HAL_FIELD_GET(EXT_CPU_PORT_CTRLm, EXT_CPU_PORT_CTRL_EXT_CPU_PORT_NUMf, &entry, &macid);
 1292              		.loc 1 153 5 is_stmt 0 discriminator 2 view .LVU286
 1293              	.LBE18:
 153:../switch_sdk/core/fal/tiger/fal_tiger_nic.c ****     HAL_FIELD_GET(EXT_CPU_PORT_CTRLm, EXT_CPU_PORT_CTRL_EXT_CPU_PORT_NUMf, &entry, &macid);
 1294              		.loc 1 153 5 is_stmt 1 discriminator 2 view .LVU287
 154:../switch_sdk/core/fal/tiger/fal_tiger_nic.c **** 
 1295              		.loc 1 154 5 discriminator 2 view .LVU288
 1296              	.LBB19:
 154:../switch_sdk/core/fal/tiger/fal_tiger_nic.c **** 
 1297              		.loc 1 154 5 discriminator 2 view .LVU289
 154:../switch_sdk/core/fal/tiger/fal_tiger_nic.c **** 
 1298              		.loc 1 154 5 discriminator 2 view .LVU290
 1299 0058 FF23     		movs	r3, #255
 1300 005a 3360     		str	r3, [r6]
 154:../switch_sdk/core/fal/tiger/fal_tiger_nic.c **** 
 1301              		.loc 1 154 5 discriminator 2 view .LVU291
 1302              	.LVL141:
 1303              	.L84:
 154:../switch_sdk/core/fal/tiger/fal_tiger_nic.c **** 
 1304              		.loc 1 154 5 discriminator 5 view .LVU292
 1305 005c 0F4B     		ldr	r3, .L91+24
 1306 005e 53F82530 		ldr	r3, [r3, r5, lsl #2]
 1307 0062 1A7D     		ldrb	r2, [r3, #20]	@ zero_extendqisi2
 1308 0064 A242     		cmp	r2, r4
 1309 0066 0BD9     		bls	.L89
 154:../switch_sdk/core/fal/tiger/fal_tiger_nic.c **** 
 1310              		.loc 1 154 5 discriminator 6 view .LVU293
 1311 0068 A21D     		adds	r2, r4, #6
 1312 006a 53F82230 		ldr	r3, [r3, r2, lsl #2]
 1313 006e 1B78     		ldrb	r3, [r3]	@ zero_extendqisi2
 1314 0070 9942     		cmp	r1, r3
 1315 0072 02D0     		beq	.L90
 154:../switch_sdk/core/fal/tiger/fal_tiger_nic.c **** 
 1316              		.loc 1 154 5 discriminator 3 view .LVU294
 1317 0074 0134     		adds	r4, r4, #1
 1318              	.LVL142:
 154:../switch_sdk/core/fal/tiger/fal_tiger_nic.c **** 
 1319              		.loc 1 154 5 is_stmt 0 discriminator 3 view .LVU295
 1320 0076 E4B2     		uxtb	r4, r4
 1321              	.LVL143:
 154:../switch_sdk/core/fal/tiger/fal_tiger_nic.c **** 
 1322              		.loc 1 154 5 discriminator 3 view .LVU296
 1323 0078 F0E7     		b	.L84
 1324              	.L90:
 154:../switch_sdk/core/fal/tiger/fal_tiger_nic.c **** 
 1325              		.loc 1 154 5 is_stmt 1 discriminator 2 view .LVU297
 1326 007a 3460     		str	r4, [r6]
 154:../switch_sdk/core/fal/tiger/fal_tiger_nic.c **** 
 1327              		.loc 1 154 5 discriminator 2 view .LVU298
 1328              	.LBE19:
 156:../switch_sdk/core/fal/tiger/fal_tiger_nic.c **** }
 1329              		.loc 1 156 12 is_stmt 0 discriminator 2 view .LVU299
 1330 007c 0020     		movs	r0, #0
 1331              	.LBB20:
 154:../switch_sdk/core/fal/tiger/fal_tiger_nic.c **** 
 1332              		.loc 1 154 5 discriminator 2 view .LVU300
 1333 007e D3E7     		b	.L80
 1334              	.L89:
 154:../switch_sdk/core/fal/tiger/fal_tiger_nic.c **** 
 1335              		.loc 1 154 5 discriminator 2 view .LVU301
 1336              	.LBE20:
 156:../switch_sdk/core/fal/tiger/fal_tiger_nic.c **** }
 1337              		.loc 1 156 12 view .LVU302
 1338 0080 0020     		movs	r0, #0
 1339 0082 D1E7     		b	.L80
 1340              	.L92:
 1341              		.align	2
 1342              	.L91:
 1343 0084 00000000 		.word	yt_debug_level
 1344 0088 00000000 		.word	__FUNCTION__.4
 1345 008c 00000000 		.word	.LC5
 1346 0090 00000000 		.word	_yt_errmsg
 1347 0094 00000000 		.word	_yt_prompt_msg
 1348 0098 58000000 		.word	.LC1
 1349 009c 00000000 		.word	gpSwitchUnit
 1350              		.cfi_endproc
 1351              	.LFE9:
 1353              		.section	.rodata.fal_tiger_nic_cpuport_tagtpid_set.str1.4,"aMS",%progbits,1
 1354              		.align	2
 1355              	.LC7:
 1356 0000 68616C5F 		.ascii	"hal_table_reg_write(unit,3,0,sizeof(cpu_tag_tpid_t)"
 1356      7461626C 
 1356      655F7265 
 1356      675F7772 
 1356      69746528 
 1357 0033 2C266370 		.ascii	",&cpu_tag_tpid)\000"
 1357      755F7461 
 1357      675F7470 
 1357      69642900 
 1358              		.section	.text.fal_tiger_nic_cpuport_tagtpid_set,"ax",%progbits
 1359              		.align	1
 1360              		.global	fal_tiger_nic_cpuport_tagtpid_set
 1361              		.syntax unified
 1362              		.thumb
 1363              		.thumb_func
 1365              	fal_tiger_nic_cpuport_tagtpid_set:
 1366              	.LVL144:
 1367              	.LFB10:
 158:../switch_sdk/core/fal/tiger/fal_tiger_nic.c **** 
 159:../switch_sdk/core/fal/tiger/fal_tiger_nic.c **** yt_ret_t  fal_tiger_nic_cpuport_tagtpid_set(yt_unit_t unit, uint16_t tpid)
 160:../switch_sdk/core/fal/tiger/fal_tiger_nic.c **** {
 1368              		.loc 1 160 1 is_stmt 1 view -0
 1369              		.cfi_startproc
 1370              		@ args = 0, pretend = 0, frame = 8
 1371              		@ frame_needed = 0, uses_anonymous_args = 0
 1372              		.loc 1 160 1 is_stmt 0 view .LVU304
 1373 0000 30B5     		push	{r4, r5, lr}
 1374              		.cfi_def_cfa_offset 12
 1375              		.cfi_offset 4, -12
 1376              		.cfi_offset 5, -8
 1377              		.cfi_offset 14, -4
 1378 0002 85B0     		sub	sp, sp, #20
 1379              		.cfi_def_cfa_offset 32
 1380 0004 0446     		mov	r4, r0
 1381 0006 0B46     		mov	r3, r1
 161:../switch_sdk/core/fal/tiger/fal_tiger_nic.c ****     cpu_tag_tpid_t cpu_tag_tpid;
 1382              		.loc 1 161 5 is_stmt 1 view .LVU305
 162:../switch_sdk/core/fal/tiger/fal_tiger_nic.c ****     cmm_err_t ret = CMM_ERR_OK;
 1383              		.loc 1 162 5 view .LVU306
 1384              	.LVL145:
 163:../switch_sdk/core/fal/tiger/fal_tiger_nic.c **** 
 164:../switch_sdk/core/fal/tiger/fal_tiger_nic.c ****     HAL_FIELD_SET(CPU_TAG_TPIDm, CPU_TAG_TPID_TPIDf, &cpu_tag_tpid, tpid);
 1385              		.loc 1 164 5 view .LVU307
 1386 0008 03AD     		add	r5, sp, #12
 1387 000a 2A46     		mov	r2, r5
 1388 000c 0021     		movs	r1, #0
 1389              	.LVL146:
 1390              		.loc 1 164 5 is_stmt 0 view .LVU308
 1391 000e 0320     		movs	r0, #3
 1392              	.LVL147:
 1393              		.loc 1 164 5 view .LVU309
 1394 0010 FFF7FEFF 		bl	hal_tbl_reg_field_set
 1395              	.LVL148:
 165:../switch_sdk/core/fal/tiger/fal_tiger_nic.c ****     CMM_ERR_CHK(HAL_TBL_REG_WRITE(unit, CPU_TAG_TPIDm, 0, sizeof(cpu_tag_tpid_t), &cpu_tag_tpid), r
 1396              		.loc 1 165 5 is_stmt 1 view .LVU310
 1397              		.loc 1 165 5 view .LVU311
 1398 0014 0095     		str	r5, [sp]
 1399 0016 0423     		movs	r3, #4
 1400 0018 0022     		movs	r2, #0
 1401 001a 0321     		movs	r1, #3
 1402 001c 2046     		mov	r0, r4
 1403 001e FFF7FEFF 		bl	hal_table_reg_write
 1404              	.LVL149:
 1405              		.loc 1 165 5 is_stmt 0 view .LVU312
 1406 0022 10F0FF03 		ands	r3, r0, #255
 1407 0026 02D1     		bne	.L98
 166:../switch_sdk/core/fal/tiger/fal_tiger_nic.c ****    
 167:../switch_sdk/core/fal/tiger/fal_tiger_nic.c ****     return CMM_ERR_OK;
 1408              		.loc 1 167 12 view .LVU313
 1409 0028 0020     		movs	r0, #0
 1410              	.LVL150:
 1411              	.L93:
 168:../switch_sdk/core/fal/tiger/fal_tiger_nic.c **** }
 1412              		.loc 1 168 1 view .LVU314
 1413 002a 05B0     		add	sp, sp, #20
 1414              		.cfi_remember_state
 1415              		.cfi_def_cfa_offset 12
 1416              		@ sp needed
 1417 002c 30BD     		pop	{r4, r5, pc}
 1418              	.LVL151:
 1419              	.L98:
 1420              		.cfi_restore_state
 1421              		.loc 1 168 1 view .LVU315
 1422 002e 0446     		mov	r4, r0
 165:../switch_sdk/core/fal/tiger/fal_tiger_nic.c ****     CMM_ERR_CHK(HAL_TBL_REG_WRITE(unit, CPU_TAG_TPIDm, 0, sizeof(cpu_tag_tpid_t), &cpu_tag_tpid), r
 1423              		.loc 1 165 5 is_stmt 1 discriminator 1 view .LVU316
 165:../switch_sdk/core/fal/tiger/fal_tiger_nic.c ****     CMM_ERR_CHK(HAL_TBL_REG_WRITE(unit, CPU_TAG_TPIDm, 0, sizeof(cpu_tag_tpid_t), &cpu_tag_tpid), r
 1424              		.loc 1 165 5 discriminator 1 view .LVU317
 1425 0030 0A4A     		ldr	r2, .L100
 1426 0032 1278     		ldrb	r2, [r2]	@ zero_extendqisi2
 1427 0034 012A     		cmp	r2, #1
 1428 0036 01D8     		bhi	.L99
 1429              	.LVL152:
 1430              	.L95:
 165:../switch_sdk/core/fal/tiger/fal_tiger_nic.c ****     CMM_ERR_CHK(HAL_TBL_REG_WRITE(unit, CPU_TAG_TPIDm, 0, sizeof(cpu_tag_tpid_t), &cpu_tag_tpid), r
 1431              		.loc 1 165 5 discriminator 5 view .LVU318
 165:../switch_sdk/core/fal/tiger/fal_tiger_nic.c ****     CMM_ERR_CHK(HAL_TBL_REG_WRITE(unit, CPU_TAG_TPIDm, 0, sizeof(cpu_tag_tpid_t), &cpu_tag_tpid), r
 1432              		.loc 1 165 5 discriminator 5 view .LVU319
 165:../switch_sdk/core/fal/tiger/fal_tiger_nic.c ****     CMM_ERR_CHK(HAL_TBL_REG_WRITE(unit, CPU_TAG_TPIDm, 0, sizeof(cpu_tag_tpid_t), &cpu_tag_tpid), r
 1433              		.loc 1 165 5 discriminator 5 view .LVU320
 1434 0038 E0B2     		uxtb	r0, r4
 1435 003a F6E7     		b	.L93
 1436              	.LVL153:
 1437              	.L99:
 165:../switch_sdk/core/fal/tiger/fal_tiger_nic.c ****     CMM_ERR_CHK(HAL_TBL_REG_WRITE(unit, CPU_TAG_TPIDm, 0, sizeof(cpu_tag_tpid_t), &cpu_tag_tpid), r
 1438              		.loc 1 165 5 discriminator 3 view .LVU321
 1439              	.LBB21:
 165:../switch_sdk/core/fal/tiger/fal_tiger_nic.c ****     CMM_ERR_CHK(HAL_TBL_REG_WRITE(unit, CPU_TAG_TPIDm, 0, sizeof(cpu_tag_tpid_t), &cpu_tag_tpid), r
 1440              		.loc 1 165 5 discriminator 3 view .LVU322
 1441 003c 142B     		cmp	r3, #20
 1442 003e 28BF     		it	cs
 1443 0040 1423     		movcs	r3, #20
 1444 0042 1A46     		mov	r2, r3
 1445 0044 064B     		ldr	r3, .L100+4
 1446 0046 0093     		str	r3, [sp]
 1447 0048 064B     		ldr	r3, .L100+8
 1448 004a 0749     		ldr	r1, .L100+12
 1449 004c 51F82220 		ldr	r2, [r1, r2, lsl #2]
 1450 0050 0649     		ldr	r1, .L100+16
 1451 0052 8968     		ldr	r1, [r1, #8]
 1452 0054 0648     		ldr	r0, .L100+20
 1453              	.LVL154:
 165:../switch_sdk/core/fal/tiger/fal_tiger_nic.c ****     CMM_ERR_CHK(HAL_TBL_REG_WRITE(unit, CPU_TAG_TPIDm, 0, sizeof(cpu_tag_tpid_t), &cpu_tag_tpid), r
 1454              		.loc 1 165 5 is_stmt 0 discriminator 3 view .LVU323
 1455 0056 FFF7FEFF 		bl	osal_printf
 1456              	.LVL155:
 1457 005a EDE7     		b	.L95
 1458              	.L101:
 1459              		.align	2
 1460              	.L100:
 1461 005c 00000000 		.word	yt_debug_level
 1462 0060 00000000 		.word	__FUNCTION__.3
 1463 0064 00000000 		.word	.LC7
 1464 0068 00000000 		.word	_yt_errmsg
 1465 006c 00000000 		.word	_yt_prompt_msg
 1466 0070 58000000 		.word	.LC1
 1467              	.LBE21:
 1468              		.cfi_endproc
 1469              	.LFE10:
 1471              		.section	.rodata.fal_tiger_nic_cpuport_tagtpid_get.str1.4,"aMS",%progbits,1
 1472              		.align	2
 1473              	.LC8:
 1474 0000 68616C5F 		.ascii	"hal_table_reg_read(unit,3,0,sizeof(cpu_tag_tpid_t),"
 1474      7461626C 
 1474      655F7265 
 1474      675F7265 
 1474      61642875 
 1475 0033 26637075 		.ascii	"&cpu_tag_tpid)\000"
 1475      5F746167 
 1475      5F747069 
 1475      642900
 1476              		.section	.text.fal_tiger_nic_cpuport_tagtpid_get,"ax",%progbits
 1477              		.align	1
 1478              		.global	fal_tiger_nic_cpuport_tagtpid_get
 1479              		.syntax unified
 1480              		.thumb
 1481              		.thumb_func
 1483              	fal_tiger_nic_cpuport_tagtpid_get:
 1484              	.LVL156:
 1485              	.LFB11:
 169:../switch_sdk/core/fal/tiger/fal_tiger_nic.c **** 
 170:../switch_sdk/core/fal/tiger/fal_tiger_nic.c **** yt_ret_t  fal_tiger_nic_cpuport_tagtpid_get(yt_unit_t unit, uint16_t *ptpid)
 171:../switch_sdk/core/fal/tiger/fal_tiger_nic.c **** {
 1486              		.loc 1 171 1 is_stmt 1 view -0
 1487              		.cfi_startproc
 1488              		@ args = 0, pretend = 0, frame = 8
 1489              		@ frame_needed = 0, uses_anonymous_args = 0
 1490              		.loc 1 171 1 is_stmt 0 view .LVU325
 1491 0000 30B5     		push	{r4, r5, lr}
 1492              		.cfi_def_cfa_offset 12
 1493              		.cfi_offset 4, -12
 1494              		.cfi_offset 5, -8
 1495              		.cfi_offset 14, -4
 1496 0002 85B0     		sub	sp, sp, #20
 1497              		.cfi_def_cfa_offset 32
 1498 0004 0D46     		mov	r5, r1
 172:../switch_sdk/core/fal/tiger/fal_tiger_nic.c ****     cpu_tag_tpid_t cpu_tag_tpid;
 1499              		.loc 1 172 5 is_stmt 1 view .LVU326
 173:../switch_sdk/core/fal/tiger/fal_tiger_nic.c ****     uint32_t tpid;
 1500              		.loc 1 173 5 view .LVU327
 174:../switch_sdk/core/fal/tiger/fal_tiger_nic.c ****     cmm_err_t ret = CMM_ERR_OK;
 1501              		.loc 1 174 5 view .LVU328
 1502              	.LVL157:
 175:../switch_sdk/core/fal/tiger/fal_tiger_nic.c **** 
 176:../switch_sdk/core/fal/tiger/fal_tiger_nic.c ****     CMM_ERR_CHK(HAL_TBL_REG_READ(unit, CPU_TAG_TPIDm, 0, sizeof(cpu_tag_tpid_t), &cpu_tag_tpid), re
 1503              		.loc 1 176 5 view .LVU329
 1504              		.loc 1 176 5 view .LVU330
 1505 0006 03AB     		add	r3, sp, #12
 1506 0008 0093     		str	r3, [sp]
 1507 000a 0423     		movs	r3, #4
 1508 000c 0022     		movs	r2, #0
 1509 000e 0321     		movs	r1, #3
 1510              	.LVL158:
 1511              		.loc 1 176 5 is_stmt 0 view .LVU331
 1512 0010 FFF7FEFF 		bl	hal_table_reg_read
 1513              	.LVL159:
 1514              		.loc 1 176 5 view .LVU332
 1515 0014 10F0FF03 		ands	r3, r0, #255
 1516 0018 17D0     		beq	.L103
 1517 001a 0446     		mov	r4, r0
 1518              		.loc 1 176 5 is_stmt 1 discriminator 1 view .LVU333
 1519              		.loc 1 176 5 discriminator 1 view .LVU334
 1520 001c 104A     		ldr	r2, .L108
 1521 001e 1278     		ldrb	r2, [r2]	@ zero_extendqisi2
 1522 0020 012A     		cmp	r2, #1
 1523 0022 02D8     		bhi	.L107
 1524              	.LVL160:
 1525              	.L104:
 1526              		.loc 1 176 5 discriminator 5 view .LVU335
 1527              		.loc 1 176 5 discriminator 5 view .LVU336
 1528              		.loc 1 176 5 discriminator 5 view .LVU337
 1529 0024 E0B2     		uxtb	r0, r4
 1530              	.L102:
 177:../switch_sdk/core/fal/tiger/fal_tiger_nic.c ****     HAL_FIELD_GET(CPU_TAG_TPIDm, CPU_TAG_TPID_TPIDf, &cpu_tag_tpid, &tpid);
 178:../switch_sdk/core/fal/tiger/fal_tiger_nic.c ****     *ptpid = tpid;
 179:../switch_sdk/core/fal/tiger/fal_tiger_nic.c ****    
 180:../switch_sdk/core/fal/tiger/fal_tiger_nic.c ****     return CMM_ERR_OK;
 181:../switch_sdk/core/fal/tiger/fal_tiger_nic.c **** }
 1531              		.loc 1 181 1 is_stmt 0 view .LVU338
 1532 0026 05B0     		add	sp, sp, #20
 1533              		.cfi_remember_state
 1534              		.cfi_def_cfa_offset 12
 1535              		@ sp needed
 1536 0028 30BD     		pop	{r4, r5, pc}
 1537              	.LVL161:
 1538              	.L107:
 1539              		.cfi_restore_state
 176:../switch_sdk/core/fal/tiger/fal_tiger_nic.c ****     HAL_FIELD_GET(CPU_TAG_TPIDm, CPU_TAG_TPID_TPIDf, &cpu_tag_tpid, &tpid);
 1540              		.loc 1 176 5 is_stmt 1 discriminator 3 view .LVU339
 1541              	.LBB22:
 176:../switch_sdk/core/fal/tiger/fal_tiger_nic.c ****     HAL_FIELD_GET(CPU_TAG_TPIDm, CPU_TAG_TPID_TPIDf, &cpu_tag_tpid, &tpid);
 1542              		.loc 1 176 5 discriminator 3 view .LVU340
 1543 002a 142B     		cmp	r3, #20
 1544 002c 28BF     		it	cs
 1545 002e 1423     		movcs	r3, #20
 1546 0030 1A46     		mov	r2, r3
 1547 0032 0C4B     		ldr	r3, .L108+4
 1548 0034 0093     		str	r3, [sp]
 1549 0036 0C4B     		ldr	r3, .L108+8
 1550 0038 0C49     		ldr	r1, .L108+12
 1551 003a 51F82220 		ldr	r2, [r1, r2, lsl #2]
 1552 003e 0C49     		ldr	r1, .L108+16
 1553 0040 8968     		ldr	r1, [r1, #8]
 1554 0042 0C48     		ldr	r0, .L108+20
 1555              	.LVL162:
 176:../switch_sdk/core/fal/tiger/fal_tiger_nic.c ****     HAL_FIELD_GET(CPU_TAG_TPIDm, CPU_TAG_TPID_TPIDf, &cpu_tag_tpid, &tpid);
 1556              		.loc 1 176 5 is_stmt 0 discriminator 3 view .LVU341
 1557 0044 FFF7FEFF 		bl	osal_printf
 1558              	.LVL163:
 1559 0048 ECE7     		b	.L104
 1560              	.LVL164:
 1561              	.L103:
 176:../switch_sdk/core/fal/tiger/fal_tiger_nic.c ****     HAL_FIELD_GET(CPU_TAG_TPIDm, CPU_TAG_TPID_TPIDf, &cpu_tag_tpid, &tpid);
 1562              		.loc 1 176 5 discriminator 3 view .LVU342
 1563              	.LBE22:
 176:../switch_sdk/core/fal/tiger/fal_tiger_nic.c ****     HAL_FIELD_GET(CPU_TAG_TPIDm, CPU_TAG_TPID_TPIDf, &cpu_tag_tpid, &tpid);
 1564              		.loc 1 176 5 is_stmt 1 discriminator 2 view .LVU343
 177:../switch_sdk/core/fal/tiger/fal_tiger_nic.c ****     HAL_FIELD_GET(CPU_TAG_TPIDm, CPU_TAG_TPID_TPIDf, &cpu_tag_tpid, &tpid);
 1565              		.loc 1 177 5 discriminator 2 view .LVU344
 1566              	.LBB23:
 177:../switch_sdk/core/fal/tiger/fal_tiger_nic.c ****     HAL_FIELD_GET(CPU_TAG_TPIDm, CPU_TAG_TPID_TPIDf, &cpu_tag_tpid, &tpid);
 1567              		.loc 1 177 5 discriminator 2 view .LVU345
 177:../switch_sdk/core/fal/tiger/fal_tiger_nic.c ****     HAL_FIELD_GET(CPU_TAG_TPIDm, CPU_TAG_TPID_TPIDf, &cpu_tag_tpid, &tpid);
 1568              		.loc 1 177 5 discriminator 2 view .LVU346
 1569 004a 02AB     		add	r3, sp, #8
 1570 004c 03AA     		add	r2, sp, #12
 1571 004e 0021     		movs	r1, #0
 1572 0050 0320     		movs	r0, #3
 1573              	.LVL165:
 177:../switch_sdk/core/fal/tiger/fal_tiger_nic.c ****     HAL_FIELD_GET(CPU_TAG_TPIDm, CPU_TAG_TPID_TPIDf, &cpu_tag_tpid, &tpid);
 1574              		.loc 1 177 5 is_stmt 0 discriminator 2 view .LVU347
 1575 0052 FFF7FEFF 		bl	hal_tbl_reg_field_get
 1576              	.LVL166:
 177:../switch_sdk/core/fal/tiger/fal_tiger_nic.c ****     HAL_FIELD_GET(CPU_TAG_TPIDm, CPU_TAG_TPID_TPIDf, &cpu_tag_tpid, &tpid);
 1577              		.loc 1 177 5 is_stmt 1 discriminator 2 view .LVU348
 1578 0056 029B     		ldr	r3, [sp, #8]
 1579              	.LVL167:
 177:../switch_sdk/core/fal/tiger/fal_tiger_nic.c ****     HAL_FIELD_GET(CPU_TAG_TPIDm, CPU_TAG_TPID_TPIDf, &cpu_tag_tpid, &tpid);
 1580              		.loc 1 177 5 is_stmt 0 discriminator 2 view .LVU349
 1581              	.LBE23:
 177:../switch_sdk/core/fal/tiger/fal_tiger_nic.c ****     HAL_FIELD_GET(CPU_TAG_TPIDm, CPU_TAG_TPID_TPIDf, &cpu_tag_tpid, &tpid);
 1582              		.loc 1 177 5 is_stmt 1 discriminator 2 view .LVU350
 178:../switch_sdk/core/fal/tiger/fal_tiger_nic.c ****    
 1583              		.loc 1 178 5 discriminator 2 view .LVU351
 178:../switch_sdk/core/fal/tiger/fal_tiger_nic.c ****    
 1584              		.loc 1 178 12 is_stmt 0 discriminator 2 view .LVU352
 1585 0058 2B80     		strh	r3, [r5]	@ movhi
 180:../switch_sdk/core/fal/tiger/fal_tiger_nic.c **** }
 1586              		.loc 1 180 5 is_stmt 1 discriminator 2 view .LVU353
 180:../switch_sdk/core/fal/tiger/fal_tiger_nic.c **** }
 1587              		.loc 1 180 12 is_stmt 0 discriminator 2 view .LVU354
 1588 005a 0020     		movs	r0, #0
 1589 005c E3E7     		b	.L102
 1590              	.L109:
 1591 005e 00BF     		.align	2
 1592              	.L108:
 1593 0060 00000000 		.word	yt_debug_level
 1594 0064 00000000 		.word	__FUNCTION__.2
 1595 0068 00000000 		.word	.LC8
 1596 006c 00000000 		.word	_yt_errmsg
 1597 0070 00000000 		.word	_yt_prompt_msg
 1598 0074 58000000 		.word	.LC1
 1599              		.cfi_endproc
 1600              	.LFE11:
 1602              		.section	.text.fal_tiger_nic_ext_cputag_en_set,"ax",%progbits
 1603              		.align	1
 1604              		.global	fal_tiger_nic_ext_cputag_en_set
 1605              		.syntax unified
 1606              		.thumb
 1607              		.thumb_func
 1609              	fal_tiger_nic_ext_cputag_en_set:
 1610              	.LVL168:
 1611              	.LFB12:
 182:../switch_sdk/core/fal/tiger/fal_tiger_nic.c **** 
 183:../switch_sdk/core/fal/tiger/fal_tiger_nic.c **** yt_ret_t  fal_tiger_nic_ext_cputag_en_set(yt_unit_t unit,  yt_enable_t enable)
 184:../switch_sdk/core/fal/tiger/fal_tiger_nic.c **** {
 1612              		.loc 1 184 1 is_stmt 1 view -0
 1613              		.cfi_startproc
 1614              		@ args = 0, pretend = 0, frame = 8
 1615              		@ frame_needed = 0, uses_anonymous_args = 0
 1616              		.loc 1 184 1 is_stmt 0 view .LVU356
 1617 0000 70B5     		push	{r4, r5, r6, lr}
 1618              		.cfi_def_cfa_offset 16
 1619              		.cfi_offset 4, -16
 1620              		.cfi_offset 5, -12
 1621              		.cfi_offset 6, -8
 1622              		.cfi_offset 14, -4
 1623 0002 84B0     		sub	sp, sp, #16
 1624              		.cfi_def_cfa_offset 32
 1625 0004 0546     		mov	r5, r0
 1626 0006 0E46     		mov	r6, r1
 185:../switch_sdk/core/fal/tiger/fal_tiger_nic.c ****     ext_cpu_port_ctrl_t entry;
 1627              		.loc 1 185 5 is_stmt 1 view .LVU357
 186:../switch_sdk/core/fal/tiger/fal_tiger_nic.c ****     cmm_err_t ret = CMM_ERR_OK;
 1628              		.loc 1 186 5 view .LVU358
 1629              	.LVL169:
 187:../switch_sdk/core/fal/tiger/fal_tiger_nic.c **** 
 188:../switch_sdk/core/fal/tiger/fal_tiger_nic.c ****     CMM_ERR_CHK(HAL_TBL_REG_READ(unit, EXT_CPU_PORT_CTRLm, 0,sizeof(ext_cpu_port_ctrl_t), &entry), 
 1630              		.loc 1 188 5 view .LVU359
 1631              		.loc 1 188 5 view .LVU360
 1632 0008 03AB     		add	r3, sp, #12
 1633 000a 0093     		str	r3, [sp]
 1634 000c 0423     		movs	r3, #4
 1635 000e 0022     		movs	r2, #0
 1636 0010 0221     		movs	r1, #2
 1637              	.LVL170:
 1638              		.loc 1 188 5 is_stmt 0 view .LVU361
 1639 0012 FFF7FEFF 		bl	hal_table_reg_read
 1640              	.LVL171:
 1641              		.loc 1 188 5 view .LVU362
 1642 0016 10F0FF03 		ands	r3, r0, #255
 1643 001a 17D0     		beq	.L111
 1644 001c 0446     		mov	r4, r0
 1645              		.loc 1 188 5 is_stmt 1 discriminator 1 view .LVU363
 1646              		.loc 1 188 5 discriminator 1 view .LVU364
 1647 001e 204A     		ldr	r2, .L120
 1648 0020 1278     		ldrb	r2, [r2]	@ zero_extendqisi2
 1649 0022 012A     		cmp	r2, #1
 1650 0024 02D8     		bhi	.L117
 1651              	.LVL172:
 1652              	.L112:
 1653              		.loc 1 188 5 discriminator 5 view .LVU365
 1654              		.loc 1 188 5 discriminator 5 view .LVU366
 1655              		.loc 1 188 5 discriminator 5 view .LVU367
 1656 0026 E0B2     		uxtb	r0, r4
 1657              	.LVL173:
 1658              	.L110:
 189:../switch_sdk/core/fal/tiger/fal_tiger_nic.c ****     HAL_FIELD_SET(EXT_CPU_PORT_CTRLm, EXT_CPU_PORT_CTRL_EXT_CPU_TAG_ENf, &entry, enable);
 190:../switch_sdk/core/fal/tiger/fal_tiger_nic.c ****     CMM_ERR_CHK(HAL_TBL_REG_WRITE(unit, EXT_CPU_PORT_CTRLm, 0, sizeof(ext_cpu_port_ctrl_t), &entry)
 191:../switch_sdk/core/fal/tiger/fal_tiger_nic.c ****     
 192:../switch_sdk/core/fal/tiger/fal_tiger_nic.c ****     return CMM_ERR_OK;
 193:../switch_sdk/core/fal/tiger/fal_tiger_nic.c **** }
 1659              		.loc 1 193 1 is_stmt 0 view .LVU368
 1660 0028 04B0     		add	sp, sp, #16
 1661              		.cfi_remember_state
 1662              		.cfi_def_cfa_offset 16
 1663              		@ sp needed
 1664 002a 70BD     		pop	{r4, r5, r6, pc}
 1665              	.LVL174:
 1666              	.L117:
 1667              		.cfi_restore_state
 188:../switch_sdk/core/fal/tiger/fal_tiger_nic.c ****     HAL_FIELD_SET(EXT_CPU_PORT_CTRLm, EXT_CPU_PORT_CTRL_EXT_CPU_TAG_ENf, &entry, enable);
 1668              		.loc 1 188 5 is_stmt 1 discriminator 3 view .LVU369
 1669              	.LBB24:
 188:../switch_sdk/core/fal/tiger/fal_tiger_nic.c ****     HAL_FIELD_SET(EXT_CPU_PORT_CTRLm, EXT_CPU_PORT_CTRL_EXT_CPU_TAG_ENf, &entry, enable);
 1670              		.loc 1 188 5 discriminator 3 view .LVU370
 1671 002c 142B     		cmp	r3, #20
 1672 002e 28BF     		it	cs
 1673 0030 1423     		movcs	r3, #20
 1674 0032 1A46     		mov	r2, r3
 1675 0034 1B4B     		ldr	r3, .L120+4
 1676 0036 0093     		str	r3, [sp]
 1677 0038 1B4B     		ldr	r3, .L120+8
 1678 003a 1C49     		ldr	r1, .L120+12
 1679 003c 51F82220 		ldr	r2, [r1, r2, lsl #2]
 1680 0040 1B49     		ldr	r1, .L120+16
 1681 0042 8968     		ldr	r1, [r1, #8]
 1682 0044 1B48     		ldr	r0, .L120+20
 1683              	.LVL175:
 188:../switch_sdk/core/fal/tiger/fal_tiger_nic.c ****     HAL_FIELD_SET(EXT_CPU_PORT_CTRLm, EXT_CPU_PORT_CTRL_EXT_CPU_TAG_ENf, &entry, enable);
 1684              		.loc 1 188 5 is_stmt 0 discriminator 3 view .LVU371
 1685 0046 FFF7FEFF 		bl	osal_printf
 1686              	.LVL176:
 1687 004a ECE7     		b	.L112
 1688              	.LVL177:
 1689              	.L111:
 188:../switch_sdk/core/fal/tiger/fal_tiger_nic.c ****     HAL_FIELD_SET(EXT_CPU_PORT_CTRLm, EXT_CPU_PORT_CTRL_EXT_CPU_TAG_ENf, &entry, enable);
 1690              		.loc 1 188 5 discriminator 3 view .LVU372
 1691              	.LBE24:
 188:../switch_sdk/core/fal/tiger/fal_tiger_nic.c ****     HAL_FIELD_SET(EXT_CPU_PORT_CTRLm, EXT_CPU_PORT_CTRL_EXT_CPU_TAG_ENf, &entry, enable);
 1692              		.loc 1 188 5 is_stmt 1 discriminator 2 view .LVU373
 189:../switch_sdk/core/fal/tiger/fal_tiger_nic.c ****     HAL_FIELD_SET(EXT_CPU_PORT_CTRLm, EXT_CPU_PORT_CTRL_EXT_CPU_TAG_ENf, &entry, enable);
 1693              		.loc 1 189 5 discriminator 2 view .LVU374
 1694 004c 03AC     		add	r4, sp, #12
 1695 004e 3346     		mov	r3, r6
 1696 0050 2246     		mov	r2, r4
 1697 0052 0021     		movs	r1, #0
 1698 0054 0220     		movs	r0, #2
 1699              	.LVL178:
 189:../switch_sdk/core/fal/tiger/fal_tiger_nic.c ****     HAL_FIELD_SET(EXT_CPU_PORT_CTRLm, EXT_CPU_PORT_CTRL_EXT_CPU_TAG_ENf, &entry, enable);
 1700              		.loc 1 189 5 is_stmt 0 discriminator 2 view .LVU375
 1701 0056 FFF7FEFF 		bl	hal_tbl_reg_field_set
 1702              	.LVL179:
 190:../switch_sdk/core/fal/tiger/fal_tiger_nic.c ****     
 1703              		.loc 1 190 5 is_stmt 1 discriminator 2 view .LVU376
 190:../switch_sdk/core/fal/tiger/fal_tiger_nic.c ****     
 1704              		.loc 1 190 5 discriminator 2 view .LVU377
 1705 005a 0094     		str	r4, [sp]
 1706 005c 0423     		movs	r3, #4
 1707 005e 0022     		movs	r2, #0
 1708 0060 0221     		movs	r1, #2
 1709 0062 2846     		mov	r0, r5
 1710 0064 FFF7FEFF 		bl	hal_table_reg_write
 1711              	.LVL180:
 1712 0068 0446     		mov	r4, r0
 1713              	.LVL181:
 190:../switch_sdk/core/fal/tiger/fal_tiger_nic.c ****     
 1714              		.loc 1 190 5 is_stmt 0 discriminator 2 view .LVU378
 1715 006a 10F0FF03 		ands	r3, r0, #255
 1716 006e 01D1     		bne	.L118
 192:../switch_sdk/core/fal/tiger/fal_tiger_nic.c **** }
 1717              		.loc 1 192 12 view .LVU379
 1718 0070 0020     		movs	r0, #0
 1719              	.LVL182:
 192:../switch_sdk/core/fal/tiger/fal_tiger_nic.c **** }
 1720              		.loc 1 192 12 view .LVU380
 1721 0072 D9E7     		b	.L110
 1722              	.LVL183:
 1723              	.L118:
 190:../switch_sdk/core/fal/tiger/fal_tiger_nic.c ****     
 1724              		.loc 1 190 5 is_stmt 1 discriminator 1 view .LVU381
 190:../switch_sdk/core/fal/tiger/fal_tiger_nic.c ****     
 1725              		.loc 1 190 5 discriminator 1 view .LVU382
 1726 0074 0A4A     		ldr	r2, .L120
 1727 0076 1278     		ldrb	r2, [r2]	@ zero_extendqisi2
 1728 0078 012A     		cmp	r2, #1
 1729 007a 01D8     		bhi	.L119
 1730              	.LVL184:
 1731              	.L114:
 190:../switch_sdk/core/fal/tiger/fal_tiger_nic.c ****     
 1732              		.loc 1 190 5 discriminator 5 view .LVU383
 190:../switch_sdk/core/fal/tiger/fal_tiger_nic.c ****     
 1733              		.loc 1 190 5 discriminator 5 view .LVU384
 190:../switch_sdk/core/fal/tiger/fal_tiger_nic.c ****     
 1734              		.loc 1 190 5 discriminator 5 view .LVU385
 1735 007c E0B2     		uxtb	r0, r4
 1736 007e D3E7     		b	.L110
 1737              	.LVL185:
 1738              	.L119:
 190:../switch_sdk/core/fal/tiger/fal_tiger_nic.c ****     
 1739              		.loc 1 190 5 discriminator 3 view .LVU386
 1740              	.LBB25:
 190:../switch_sdk/core/fal/tiger/fal_tiger_nic.c ****     
 1741              		.loc 1 190 5 discriminator 3 view .LVU387
 1742 0080 142B     		cmp	r3, #20
 1743 0082 28BF     		it	cs
 1744 0084 1423     		movcs	r3, #20
 1745 0086 1A46     		mov	r2, r3
 1746 0088 064B     		ldr	r3, .L120+4
 1747 008a 0093     		str	r3, [sp]
 1748 008c 0A4B     		ldr	r3, .L120+24
 1749 008e 0749     		ldr	r1, .L120+12
 1750 0090 51F82220 		ldr	r2, [r1, r2, lsl #2]
 1751 0094 0649     		ldr	r1, .L120+16
 1752 0096 8968     		ldr	r1, [r1, #8]
 1753 0098 0648     		ldr	r0, .L120+20
 1754              	.LVL186:
 190:../switch_sdk/core/fal/tiger/fal_tiger_nic.c ****     
 1755              		.loc 1 190 5 is_stmt 0 discriminator 3 view .LVU388
 1756 009a FFF7FEFF 		bl	osal_printf
 1757              	.LVL187:
 1758 009e EDE7     		b	.L114
 1759              	.L121:
 1760              		.align	2
 1761              	.L120:
 1762 00a0 00000000 		.word	yt_debug_level
 1763 00a4 00000000 		.word	__FUNCTION__.1
 1764 00a8 00000000 		.word	.LC5
 1765 00ac 00000000 		.word	_yt_errmsg
 1766 00b0 00000000 		.word	_yt_prompt_msg
 1767 00b4 58000000 		.word	.LC1
 1768 00b8 40000000 		.word	.LC6
 1769              	.LBE25:
 1770              		.cfi_endproc
 1771              	.LFE12:
 1773              		.section	.text.fal_tiger_nic_ext_cputag_en_get,"ax",%progbits
 1774              		.align	1
 1775              		.global	fal_tiger_nic_ext_cputag_en_get
 1776              		.syntax unified
 1777              		.thumb
 1778              		.thumb_func
 1780              	fal_tiger_nic_ext_cputag_en_get:
 1781              	.LVL188:
 1782              	.LFB13:
 194:../switch_sdk/core/fal/tiger/fal_tiger_nic.c **** 
 195:../switch_sdk/core/fal/tiger/fal_tiger_nic.c **** yt_ret_t  fal_tiger_nic_ext_cputag_en_get(yt_unit_t unit,  yt_enable_t *pEnable)
 196:../switch_sdk/core/fal/tiger/fal_tiger_nic.c **** {
 1783              		.loc 1 196 1 is_stmt 1 view -0
 1784              		.cfi_startproc
 1785              		@ args = 0, pretend = 0, frame = 8
 1786              		@ frame_needed = 0, uses_anonymous_args = 0
 1787              		.loc 1 196 1 is_stmt 0 view .LVU390
 1788 0000 30B5     		push	{r4, r5, lr}
 1789              		.cfi_def_cfa_offset 12
 1790              		.cfi_offset 4, -12
 1791              		.cfi_offset 5, -8
 1792              		.cfi_offset 14, -4
 1793 0002 85B0     		sub	sp, sp, #20
 1794              		.cfi_def_cfa_offset 32
 1795 0004 0D46     		mov	r5, r1
 197:../switch_sdk/core/fal/tiger/fal_tiger_nic.c ****     ext_cpu_port_ctrl_t entry;
 1796              		.loc 1 197 5 is_stmt 1 view .LVU391
 198:../switch_sdk/core/fal/tiger/fal_tiger_nic.c ****     uint32_t enable;
 1797              		.loc 1 198 5 view .LVU392
 199:../switch_sdk/core/fal/tiger/fal_tiger_nic.c ****     cmm_err_t ret = CMM_ERR_OK;
 1798              		.loc 1 199 5 view .LVU393
 1799              	.LVL189:
 200:../switch_sdk/core/fal/tiger/fal_tiger_nic.c **** 
 201:../switch_sdk/core/fal/tiger/fal_tiger_nic.c ****     CMM_ERR_CHK(HAL_TBL_REG_READ(unit, EXT_CPU_PORT_CTRLm, 0,sizeof(ext_cpu_port_ctrl_t), &entry), 
 1800              		.loc 1 201 5 view .LVU394
 1801              		.loc 1 201 5 view .LVU395
 1802 0006 03AB     		add	r3, sp, #12
 1803 0008 0093     		str	r3, [sp]
 1804 000a 0423     		movs	r3, #4
 1805 000c 0022     		movs	r2, #0
 1806 000e 0221     		movs	r1, #2
 1807              	.LVL190:
 1808              		.loc 1 201 5 is_stmt 0 view .LVU396
 1809 0010 FFF7FEFF 		bl	hal_table_reg_read
 1810              	.LVL191:
 1811              		.loc 1 201 5 view .LVU397
 1812 0014 10F0FF03 		ands	r3, r0, #255
 1813 0018 17D0     		beq	.L123
 1814 001a 0446     		mov	r4, r0
 1815              		.loc 1 201 5 is_stmt 1 discriminator 1 view .LVU398
 1816              		.loc 1 201 5 discriminator 1 view .LVU399
 1817 001c 114A     		ldr	r2, .L128
 1818 001e 1278     		ldrb	r2, [r2]	@ zero_extendqisi2
 1819 0020 012A     		cmp	r2, #1
 1820 0022 02D8     		bhi	.L127
 1821              	.LVL192:
 1822              	.L124:
 1823              		.loc 1 201 5 discriminator 5 view .LVU400
 1824              		.loc 1 201 5 discriminator 5 view .LVU401
 1825              		.loc 1 201 5 discriminator 5 view .LVU402
 1826 0024 E0B2     		uxtb	r0, r4
 1827              	.L122:
 202:../switch_sdk/core/fal/tiger/fal_tiger_nic.c ****     HAL_FIELD_GET(EXT_CPU_PORT_CTRLm, EXT_CPU_PORT_CTRL_EXT_CPU_TAG_ENf, &entry, &enable);
 203:../switch_sdk/core/fal/tiger/fal_tiger_nic.c ****     *pEnable = enable ? YT_ENABLE : YT_DISABLE;
 204:../switch_sdk/core/fal/tiger/fal_tiger_nic.c **** 
 205:../switch_sdk/core/fal/tiger/fal_tiger_nic.c ****     return CMM_ERR_OK;
 206:../switch_sdk/core/fal/tiger/fal_tiger_nic.c **** }
 1828              		.loc 1 206 1 is_stmt 0 view .LVU403
 1829 0026 05B0     		add	sp, sp, #20
 1830              		.cfi_remember_state
 1831              		.cfi_def_cfa_offset 12
 1832              		@ sp needed
 1833 0028 30BD     		pop	{r4, r5, pc}
 1834              	.LVL193:
 1835              	.L127:
 1836              		.cfi_restore_state
 201:../switch_sdk/core/fal/tiger/fal_tiger_nic.c ****     HAL_FIELD_GET(EXT_CPU_PORT_CTRLm, EXT_CPU_PORT_CTRL_EXT_CPU_TAG_ENf, &entry, &enable);
 1837              		.loc 1 201 5 is_stmt 1 discriminator 3 view .LVU404
 1838              	.LBB26:
 201:../switch_sdk/core/fal/tiger/fal_tiger_nic.c ****     HAL_FIELD_GET(EXT_CPU_PORT_CTRLm, EXT_CPU_PORT_CTRL_EXT_CPU_TAG_ENf, &entry, &enable);
 1839              		.loc 1 201 5 discriminator 3 view .LVU405
 1840 002a 142B     		cmp	r3, #20
 1841 002c 28BF     		it	cs
 1842 002e 1423     		movcs	r3, #20
 1843 0030 1A46     		mov	r2, r3
 1844 0032 0D4B     		ldr	r3, .L128+4
 1845 0034 0093     		str	r3, [sp]
 1846 0036 0D4B     		ldr	r3, .L128+8
 1847 0038 0D49     		ldr	r1, .L128+12
 1848 003a 51F82220 		ldr	r2, [r1, r2, lsl #2]
 1849 003e 0D49     		ldr	r1, .L128+16
 1850 0040 8968     		ldr	r1, [r1, #8]
 1851 0042 0D48     		ldr	r0, .L128+20
 1852              	.LVL194:
 201:../switch_sdk/core/fal/tiger/fal_tiger_nic.c ****     HAL_FIELD_GET(EXT_CPU_PORT_CTRLm, EXT_CPU_PORT_CTRL_EXT_CPU_TAG_ENf, &entry, &enable);
 1853              		.loc 1 201 5 is_stmt 0 discriminator 3 view .LVU406
 1854 0044 FFF7FEFF 		bl	osal_printf
 1855              	.LVL195:
 1856 0048 ECE7     		b	.L124
 1857              	.LVL196:
 1858              	.L123:
 201:../switch_sdk/core/fal/tiger/fal_tiger_nic.c ****     HAL_FIELD_GET(EXT_CPU_PORT_CTRLm, EXT_CPU_PORT_CTRL_EXT_CPU_TAG_ENf, &entry, &enable);
 1859              		.loc 1 201 5 discriminator 3 view .LVU407
 1860              	.LBE26:
 201:../switch_sdk/core/fal/tiger/fal_tiger_nic.c ****     HAL_FIELD_GET(EXT_CPU_PORT_CTRLm, EXT_CPU_PORT_CTRL_EXT_CPU_TAG_ENf, &entry, &enable);
 1861              		.loc 1 201 5 is_stmt 1 discriminator 2 view .LVU408
 202:../switch_sdk/core/fal/tiger/fal_tiger_nic.c ****     HAL_FIELD_GET(EXT_CPU_PORT_CTRLm, EXT_CPU_PORT_CTRL_EXT_CPU_TAG_ENf, &entry, &enable);
 1862              		.loc 1 202 5 discriminator 2 view .LVU409
 1863              	.LBB27:
 202:../switch_sdk/core/fal/tiger/fal_tiger_nic.c ****     HAL_FIELD_GET(EXT_CPU_PORT_CTRLm, EXT_CPU_PORT_CTRL_EXT_CPU_TAG_ENf, &entry, &enable);
 1864              		.loc 1 202 5 discriminator 2 view .LVU410
 202:../switch_sdk/core/fal/tiger/fal_tiger_nic.c ****     HAL_FIELD_GET(EXT_CPU_PORT_CTRLm, EXT_CPU_PORT_CTRL_EXT_CPU_TAG_ENf, &entry, &enable);
 1865              		.loc 1 202 5 discriminator 2 view .LVU411
 1866 004a 02AB     		add	r3, sp, #8
 1867 004c 03AA     		add	r2, sp, #12
 1868 004e 0021     		movs	r1, #0
 1869 0050 0220     		movs	r0, #2
 1870              	.LVL197:
 202:../switch_sdk/core/fal/tiger/fal_tiger_nic.c ****     HAL_FIELD_GET(EXT_CPU_PORT_CTRLm, EXT_CPU_PORT_CTRL_EXT_CPU_TAG_ENf, &entry, &enable);
 1871              		.loc 1 202 5 is_stmt 0 discriminator 2 view .LVU412
 1872 0052 FFF7FEFF 		bl	hal_tbl_reg_field_get
 1873              	.LVL198:
 202:../switch_sdk/core/fal/tiger/fal_tiger_nic.c ****     HAL_FIELD_GET(EXT_CPU_PORT_CTRLm, EXT_CPU_PORT_CTRL_EXT_CPU_TAG_ENf, &entry, &enable);
 1874              		.loc 1 202 5 is_stmt 1 discriminator 2 view .LVU413
 202:../switch_sdk/core/fal/tiger/fal_tiger_nic.c ****     HAL_FIELD_GET(EXT_CPU_PORT_CTRLm, EXT_CPU_PORT_CTRL_EXT_CPU_TAG_ENf, &entry, &enable);
 1875              		.loc 1 202 5 is_stmt 0 discriminator 2 view .LVU414
 1876              	.LBE27:
 202:../switch_sdk/core/fal/tiger/fal_tiger_nic.c ****     HAL_FIELD_GET(EXT_CPU_PORT_CTRLm, EXT_CPU_PORT_CTRL_EXT_CPU_TAG_ENf, &entry, &enable);
 1877              		.loc 1 202 5 is_stmt 1 discriminator 2 view .LVU415
 203:../switch_sdk/core/fal/tiger/fal_tiger_nic.c **** 
 1878              		.loc 1 203 5 discriminator 2 view .LVU416
 203:../switch_sdk/core/fal/tiger/fal_tiger_nic.c **** 
 1879              		.loc 1 203 35 is_stmt 0 discriminator 2 view .LVU417
 1880 0056 029B     		ldr	r3, [sp, #8]
 1881 0058 003B     		subs	r3, r3, #0
 1882 005a 18BF     		it	ne
 1883 005c 0123     		movne	r3, #1
 203:../switch_sdk/core/fal/tiger/fal_tiger_nic.c **** 
 1884              		.loc 1 203 14 discriminator 2 view .LVU418
 1885 005e 2B70     		strb	r3, [r5]
 1886              	.LVL199:
 205:../switch_sdk/core/fal/tiger/fal_tiger_nic.c **** }
 1887              		.loc 1 205 5 is_stmt 1 discriminator 2 view .LVU419
 205:../switch_sdk/core/fal/tiger/fal_tiger_nic.c **** }
 1888              		.loc 1 205 12 is_stmt 0 discriminator 2 view .LVU420
 1889 0060 0020     		movs	r0, #0
 1890 0062 E0E7     		b	.L122
 1891              	.L129:
 1892              		.align	2
 1893              	.L128:
 1894 0064 00000000 		.word	yt_debug_level
 1895 0068 00000000 		.word	__FUNCTION__.0
 1896 006c 00000000 		.word	.LC5
 1897 0070 00000000 		.word	_yt_errmsg
 1898 0074 00000000 		.word	_yt_prompt_msg
 1899 0078 58000000 		.word	.LC1
 1900              		.cfi_endproc
 1901              	.LFE13:
 1903              		.section	.text.fal_tiger_nic_rx_register,"ax",%progbits
 1904              		.align	1
 1905              		.global	fal_tiger_nic_rx_register
 1906              		.syntax unified
 1907              		.thumb
 1908              		.thumb_func
 1910              	fal_tiger_nic_rx_register:
 1911              	.LVL200:
 1912              	.LFB14:
 207:../switch_sdk/core/fal/tiger/fal_tiger_nic.c **** 
 208:../switch_sdk/core/fal/tiger/fal_tiger_nic.c **** yt_ret_t fal_tiger_nic_rx_register(yt_unit_t unit, yt_nic_rx_cb_f rx_cb)
 209:../switch_sdk/core/fal/tiger/fal_tiger_nic.c **** {
 1913              		.loc 1 209 1 is_stmt 1 view -0
 1914              		.cfi_startproc
 1915              		@ args = 0, pretend = 0, frame = 0
 1916              		@ frame_needed = 0, uses_anonymous_args = 0
 1917              		@ link register save eliminated.
 210:../switch_sdk/core/fal/tiger/fal_tiger_nic.c **** #ifdef INTER_MCU
 211:../switch_sdk/core/fal/tiger/fal_tiger_nic.c ****     cmm_err_t ret = CMM_ERR_OK;
 212:../switch_sdk/core/fal/tiger/fal_tiger_nic.c **** 
 213:../switch_sdk/core/fal/tiger/fal_tiger_nic.c ****     CMM_ERR_CHK(eth_rx_register(rx_cb), ret);
 214:../switch_sdk/core/fal/tiger/fal_tiger_nic.c **** #else
 215:../switch_sdk/core/fal/tiger/fal_tiger_nic.c **** 	CMM_UNUSED_PARAM(unit);
 1918              		.loc 1 215 2 view .LVU422
 216:../switch_sdk/core/fal/tiger/fal_tiger_nic.c **** 	CMM_UNUSED_PARAM(rx_cb);
 1919              		.loc 1 216 2 view .LVU423
 217:../switch_sdk/core/fal/tiger/fal_tiger_nic.c **** #endif
 218:../switch_sdk/core/fal/tiger/fal_tiger_nic.c ****     return CMM_ERR_OK;
 1920              		.loc 1 218 5 view .LVU424
 219:../switch_sdk/core/fal/tiger/fal_tiger_nic.c **** }
 1921              		.loc 1 219 1 is_stmt 0 view .LVU425
 1922 0000 0020     		movs	r0, #0
 1923              	.LVL201:
 1924              		.loc 1 219 1 view .LVU426
 1925 0002 7047     		bx	lr
 1926              		.cfi_endproc
 1927              	.LFE14:
 1929              		.section	.text.fal_tiger_nic_rx_handler,"ax",%progbits
 1930              		.align	1
 1931              		.global	fal_tiger_nic_rx_handler
 1932              		.syntax unified
 1933              		.thumb
 1934              		.thumb_func
 1936              	fal_tiger_nic_rx_handler:
 1937              	.LVL202:
 1938              	.LFB15:
 220:../switch_sdk/core/fal/tiger/fal_tiger_nic.c **** 
 221:../switch_sdk/core/fal/tiger/fal_tiger_nic.c **** yt_ret_t fal_tiger_nic_rx_handler(yt_unit_t unit)
 222:../switch_sdk/core/fal/tiger/fal_tiger_nic.c **** {
 1939              		.loc 1 222 1 is_stmt 1 view -0
 1940              		.cfi_startproc
 1941              		@ args = 0, pretend = 0, frame = 0
 1942              		@ frame_needed = 0, uses_anonymous_args = 0
 1943              		@ link register save eliminated.
 223:../switch_sdk/core/fal/tiger/fal_tiger_nic.c **** #ifdef INTER_MCU
 224:../switch_sdk/core/fal/tiger/fal_tiger_nic.c ****     cmm_err_t ret = CMM_ERR_OK;
 225:../switch_sdk/core/fal/tiger/fal_tiger_nic.c **** 
 226:../switch_sdk/core/fal/tiger/fal_tiger_nic.c ****     CMM_ERR_CHK(eth_rx_handler(), ret);
 227:../switch_sdk/core/fal/tiger/fal_tiger_nic.c **** #else
 228:../switch_sdk/core/fal/tiger/fal_tiger_nic.c **** 	CMM_UNUSED_PARAM(unit);
 1944              		.loc 1 228 2 view .LVU428
 229:../switch_sdk/core/fal/tiger/fal_tiger_nic.c **** #endif
 230:../switch_sdk/core/fal/tiger/fal_tiger_nic.c ****     return CMM_ERR_OK;
 1945              		.loc 1 230 5 view .LVU429
 231:../switch_sdk/core/fal/tiger/fal_tiger_nic.c **** }
 1946              		.loc 1 231 1 is_stmt 0 view .LVU430
 1947 0000 0020     		movs	r0, #0
 1948              	.LVL203:
 1949              		.loc 1 231 1 view .LVU431
 1950 0002 7047     		bx	lr
 1951              		.cfi_endproc
 1952              	.LFE15:
 1954              		.section	.text.fal_tiger_nic_tx,"ax",%progbits
 1955              		.align	1
 1956              		.global	fal_tiger_nic_tx
 1957              		.syntax unified
 1958              		.thumb
 1959              		.thumb_func
 1961              	fal_tiger_nic_tx:
 1962              	.LVL204:
 1963              	.LFB16:
 232:../switch_sdk/core/fal/tiger/fal_tiger_nic.c **** 
 233:../switch_sdk/core/fal/tiger/fal_tiger_nic.c **** yt_ret_t fal_tiger_nic_tx(yt_unit_t unit, yt_tx_pkt_t *p_tx_pkt, uint8_t mem_free_flag)
 234:../switch_sdk/core/fal/tiger/fal_tiger_nic.c **** {
 1964              		.loc 1 234 1 is_stmt 1 view -0
 1965              		.cfi_startproc
 1966              		@ args = 0, pretend = 0, frame = 0
 1967              		@ frame_needed = 0, uses_anonymous_args = 0
 1968              		@ link register save eliminated.
 235:../switch_sdk/core/fal/tiger/fal_tiger_nic.c **** #ifdef INTER_MCU
 236:../switch_sdk/core/fal/tiger/fal_tiger_nic.c ****     cmm_err_t ret = CMM_ERR_OK;
 237:../switch_sdk/core/fal/tiger/fal_tiger_nic.c ****     yt_port_mask_t macmask;
 238:../switch_sdk/core/fal/tiger/fal_tiger_nic.c ****     yt_port_mask_t port_member;
 239:../switch_sdk/core/fal/tiger/fal_tiger_nic.c ****     yt_port_mask_t untag_port_member;
 240:../switch_sdk/core/fal/tiger/fal_tiger_nic.c ****     uint16_t lookup_index = 0;
 241:../switch_sdk/core/fal/tiger/fal_tiger_nic.c ****     yt_l2_fdb_info_t fdb_info;
 242:../switch_sdk/core/fal/tiger/fal_tiger_nic.c ****     yt_mac_addr_t mac_addr;
 243:../switch_sdk/core/fal/tiger/fal_tiger_nic.c ****     uint8_t index;
 244:../switch_sdk/core/fal/tiger/fal_tiger_nic.c ****     
 245:../switch_sdk/core/fal/tiger/fal_tiger_nic.c ****     if (NIC_TX_BY_PORTLIST == p_tx_pkt->tx_pkt_info.tx_flag)
 246:../switch_sdk/core/fal/tiger/fal_tiger_nic.c ****     {
 247:../switch_sdk/core/fal/tiger/fal_tiger_nic.c ****         CMM_PARAM_CHK((0 == p_tx_pkt->tx_pkt_info.port_mask.portbits[0]), CMM_ERR_PORTLIST);
 248:../switch_sdk/core/fal/tiger/fal_tiger_nic.c ****         CAL_YTPLIST_TO_MLIST(unit, p_tx_pkt->tx_pkt_info.port_mask, macmask);        
 249:../switch_sdk/core/fal/tiger/fal_tiger_nic.c ****     }
 250:../switch_sdk/core/fal/tiger/fal_tiger_nic.c ****     else if (NIC_TX_BY_VLAN == p_tx_pkt->tx_pkt_info.tx_flag)
 251:../switch_sdk/core/fal/tiger/fal_tiger_nic.c ****     {
 252:../switch_sdk/core/fal/tiger/fal_tiger_nic.c ****         for (index = 0; index < MAC_ADDR_LEN; index++)
 253:../switch_sdk/core/fal/tiger/fal_tiger_nic.c ****         {
 254:../switch_sdk/core/fal/tiger/fal_tiger_nic.c ****             mac_addr.addr[index] = p_tx_pkt->p_pkt_buff[index];
 255:../switch_sdk/core/fal/tiger/fal_tiger_nic.c ****         }
 256:../switch_sdk/core/fal/tiger/fal_tiger_nic.c ****         
 257:../switch_sdk/core/fal/tiger/fal_tiger_nic.c ****         ret = fal_tiger_l2_fdb_get(unit, p_tx_pkt->tx_pkt_info.vlan_id, mac_addr, &fdb_info, &looku
 258:../switch_sdk/core/fal/tiger/fal_tiger_nic.c ****         if (CMM_ERR_ENTRY_NOT_FOUND == ret)
 259:../switch_sdk/core/fal/tiger/fal_tiger_nic.c ****         {
 260:../switch_sdk/core/fal/tiger/fal_tiger_nic.c ****             CMM_ERR_CHK(fal_tiger_vlan_port_get(unit, p_tx_pkt->tx_pkt_info.vlan_id, &port_member, 
 261:../switch_sdk/core/fal/tiger/fal_tiger_nic.c ****             CMM_PARAM_CHK((0 == port_member.portbits[0]), CMM_ERR_PORTLIST);
 262:../switch_sdk/core/fal/tiger/fal_tiger_nic.c ****             
 263:../switch_sdk/core/fal/tiger/fal_tiger_nic.c ****             CAL_YTPLIST_TO_MLIST(unit, port_member, macmask);
 264:../switch_sdk/core/fal/tiger/fal_tiger_nic.c ****         }
 265:../switch_sdk/core/fal/tiger/fal_tiger_nic.c ****         else
 266:../switch_sdk/core/fal/tiger/fal_tiger_nic.c ****         {
 267:../switch_sdk/core/fal/tiger/fal_tiger_nic.c ****             macmask.portbits[0] = fdb_info.DST_PORT_MASK;
 268:../switch_sdk/core/fal/tiger/fal_tiger_nic.c ****         }                    
 269:../switch_sdk/core/fal/tiger/fal_tiger_nic.c ****     }
 270:../switch_sdk/core/fal/tiger/fal_tiger_nic.c ****     else
 271:../switch_sdk/core/fal/tiger/fal_tiger_nic.c ****     {
 272:../switch_sdk/core/fal/tiger/fal_tiger_nic.c ****         macmask.portbits[0] = 0;
 273:../switch_sdk/core/fal/tiger/fal_tiger_nic.c ****     }
 274:../switch_sdk/core/fal/tiger/fal_tiger_nic.c **** 
 275:../switch_sdk/core/fal/tiger/fal_tiger_nic.c ****     CMM_ERR_CHK(eth_tx_by_portlist(p_tx_pkt->p_pkt_buff, p_tx_pkt->pkt_len, macmask.portbits[0], me
 276:../switch_sdk/core/fal/tiger/fal_tiger_nic.c **** #else
 277:../switch_sdk/core/fal/tiger/fal_tiger_nic.c ****     CMM_UNUSED_PARAM(unit);
 1969              		.loc 1 277 5 view .LVU433
 278:../switch_sdk/core/fal/tiger/fal_tiger_nic.c ****     CMM_UNUSED_PARAM(p_tx_pkt);
 1970              		.loc 1 278 5 view .LVU434
 279:../switch_sdk/core/fal/tiger/fal_tiger_nic.c ****     CMM_UNUSED_PARAM(mem_free_flag);
 1971              		.loc 1 279 5 view .LVU435
 280:../switch_sdk/core/fal/tiger/fal_tiger_nic.c **** #endif
 281:../switch_sdk/core/fal/tiger/fal_tiger_nic.c ****     return CMM_ERR_OK;
 1972              		.loc 1 281 5 view .LVU436
 282:../switch_sdk/core/fal/tiger/fal_tiger_nic.c **** }
 1973              		.loc 1 282 1 is_stmt 0 view .LVU437
 1974 0000 0020     		movs	r0, #0
 1975              	.LVL205:
 1976              		.loc 1 282 1 view .LVU438
 1977 0002 7047     		bx	lr
 1978              		.cfi_endproc
 1979              	.LFE16:
 1981              		.section	.text.fal_tiger_nic_eth_buf_cnt_len_set,"ax",%progbits
 1982              		.align	1
 1983              		.global	fal_tiger_nic_eth_buf_cnt_len_set
 1984              		.syntax unified
 1985              		.thumb
 1986              		.thumb_func
 1988              	fal_tiger_nic_eth_buf_cnt_len_set:
 1989              	.LVL206:
 1990              	.LFB17:
 283:../switch_sdk/core/fal/tiger/fal_tiger_nic.c **** 
 284:../switch_sdk/core/fal/tiger/fal_tiger_nic.c **** yt_ret_t fal_tiger_nic_eth_buf_cnt_len_set(yt_unit_t unit, uint16_t buf_cnt, uint16_t tx_buf_cnt, u
 285:../switch_sdk/core/fal/tiger/fal_tiger_nic.c **** {
 1991              		.loc 1 285 1 is_stmt 1 view -0
 1992              		.cfi_startproc
 1993              		@ args = 0, pretend = 0, frame = 0
 1994              		@ frame_needed = 0, uses_anonymous_args = 0
 1995              		@ link register save eliminated.
 286:../switch_sdk/core/fal/tiger/fal_tiger_nic.c **** #ifdef INTER_MCU
 287:../switch_sdk/core/fal/tiger/fal_tiger_nic.c ****     cmm_err_t ret = CMM_ERR_OK;
 288:../switch_sdk/core/fal/tiger/fal_tiger_nic.c ****     CMM_ERR_CHK(eth_buf_cnt_len_set(buf_cnt, tx_buf_cnt, buf_len), ret);
 289:../switch_sdk/core/fal/tiger/fal_tiger_nic.c **** #else
 290:../switch_sdk/core/fal/tiger/fal_tiger_nic.c ****     CMM_UNUSED_PARAM(unit);
 1996              		.loc 1 290 5 view .LVU440
 291:../switch_sdk/core/fal/tiger/fal_tiger_nic.c ****     CMM_UNUSED_PARAM(buf_cnt);
 1997              		.loc 1 291 5 view .LVU441
 292:../switch_sdk/core/fal/tiger/fal_tiger_nic.c ****     CMM_UNUSED_PARAM(tx_buf_cnt);
 1998              		.loc 1 292 5 view .LVU442
 293:../switch_sdk/core/fal/tiger/fal_tiger_nic.c ****     CMM_UNUSED_PARAM(buf_len);
 1999              		.loc 1 293 5 view .LVU443
 294:../switch_sdk/core/fal/tiger/fal_tiger_nic.c **** #endif
 295:../switch_sdk/core/fal/tiger/fal_tiger_nic.c **** 
 296:../switch_sdk/core/fal/tiger/fal_tiger_nic.c ****     return CMM_ERR_OK;
 2000              		.loc 1 296 5 view .LVU444
 297:../switch_sdk/core/fal/tiger/fal_tiger_nic.c **** }
 2001              		.loc 1 297 1 is_stmt 0 view .LVU445
 2002 0000 0020     		movs	r0, #0
 2003              	.LVL207:
 2004              		.loc 1 297 1 view .LVU446
 2005 0002 7047     		bx	lr
 2006              		.cfi_endproc
 2007              	.LFE17:
 2009              		.section	.text.fal_tiger_nic_eth_debug_flag_set,"ax",%progbits
 2010              		.align	1
 2011              		.global	fal_tiger_nic_eth_debug_flag_set
 2012              		.syntax unified
 2013              		.thumb
 2014              		.thumb_func
 2016              	fal_tiger_nic_eth_debug_flag_set:
 2017              	.LVL208:
 2018              	.LFB18:
 298:../switch_sdk/core/fal/tiger/fal_tiger_nic.c **** 
 299:../switch_sdk/core/fal/tiger/fal_tiger_nic.c **** yt_ret_t fal_tiger_nic_eth_debug_flag_set(yt_unit_t unit, uint8_t debug_flag)
 300:../switch_sdk/core/fal/tiger/fal_tiger_nic.c **** {
 2019              		.loc 1 300 1 is_stmt 1 view -0
 2020              		.cfi_startproc
 2021              		@ args = 0, pretend = 0, frame = 0
 2022              		@ frame_needed = 0, uses_anonymous_args = 0
 2023              		@ link register save eliminated.
 301:../switch_sdk/core/fal/tiger/fal_tiger_nic.c ****     CMM_UNUSED_PARAM(unit);
 2024              		.loc 1 301 5 view .LVU448
 302:../switch_sdk/core/fal/tiger/fal_tiger_nic.c **** #ifdef INTER_MCU
 303:../switch_sdk/core/fal/tiger/fal_tiger_nic.c ****     cmm_err_t ret = CMM_ERR_OK;
 304:../switch_sdk/core/fal/tiger/fal_tiger_nic.c ****     CMM_ERR_CHK(eth_debug_flag_set(debug_flag), ret);
 305:../switch_sdk/core/fal/tiger/fal_tiger_nic.c **** #else
 306:../switch_sdk/core/fal/tiger/fal_tiger_nic.c ****     CMM_UNUSED_PARAM(debug_flag);
 2025              		.loc 1 306 5 view .LVU449
 307:../switch_sdk/core/fal/tiger/fal_tiger_nic.c **** #endif
 308:../switch_sdk/core/fal/tiger/fal_tiger_nic.c **** 
 309:../switch_sdk/core/fal/tiger/fal_tiger_nic.c ****     return CMM_ERR_OK;
 2026              		.loc 1 309 5 view .LVU450
 310:../switch_sdk/core/fal/tiger/fal_tiger_nic.c **** }
 2027              		.loc 1 310 1 is_stmt 0 view .LVU451
 2028 0000 0020     		movs	r0, #0
 2029              	.LVL209:
 2030              		.loc 1 310 1 view .LVU452
 2031 0002 7047     		bx	lr
 2032              		.cfi_endproc
 2033              	.LFE18:
 2035              		.section	.text.fal_tiger_nic_eth_drv_init,"ax",%progbits
 2036              		.align	1
 2037              		.global	fal_tiger_nic_eth_drv_init
 2038              		.syntax unified
 2039              		.thumb
 2040              		.thumb_func
 2042              	fal_tiger_nic_eth_drv_init:
 2043              	.LVL210:
 2044              	.LFB19:
 311:../switch_sdk/core/fal/tiger/fal_tiger_nic.c **** 
 312:../switch_sdk/core/fal/tiger/fal_tiger_nic.c **** yt_ret_t fal_tiger_nic_eth_drv_init(yt_unit_t unit)
 313:../switch_sdk/core/fal/tiger/fal_tiger_nic.c **** {
 2045              		.loc 1 313 1 is_stmt 1 view -0
 2046              		.cfi_startproc
 2047              		@ args = 0, pretend = 0, frame = 0
 2048              		@ frame_needed = 0, uses_anonymous_args = 0
 2049              		@ link register save eliminated.
 314:../switch_sdk/core/fal/tiger/fal_tiger_nic.c **** #ifdef INTER_MCU
 315:../switch_sdk/core/fal/tiger/fal_tiger_nic.c ****     cmm_err_t ret = CMM_ERR_OK;
 316:../switch_sdk/core/fal/tiger/fal_tiger_nic.c ****     CMM_ERR_CHK(eth_init(), ret);
 317:../switch_sdk/core/fal/tiger/fal_tiger_nic.c **** #else
 318:../switch_sdk/core/fal/tiger/fal_tiger_nic.c ****     CMM_UNUSED_PARAM(unit);
 2050              		.loc 1 318 5 view .LVU454
 319:../switch_sdk/core/fal/tiger/fal_tiger_nic.c **** #endif
 320:../switch_sdk/core/fal/tiger/fal_tiger_nic.c **** 
 321:../switch_sdk/core/fal/tiger/fal_tiger_nic.c ****     return CMM_ERR_OK;
 2051              		.loc 1 321 5 view .LVU455
 322:../switch_sdk/core/fal/tiger/fal_tiger_nic.c **** }
 2052              		.loc 1 322 1 is_stmt 0 view .LVU456
 2053 0000 0020     		movs	r0, #0
 2054              	.LVL211:
 2055              		.loc 1 322 1 view .LVU457
 2056 0002 7047     		bx	lr
 2057              		.cfi_endproc
 2058              	.LFE19:
 2060              		.section	.rodata.__FUNCTION__.0,"a"
 2061              		.align	2
 2064              	__FUNCTION__.0:
 2065 0000 66616C5F 		.ascii	"fal_tiger_nic_ext_cputag_en_get\000"
 2065      74696765 
 2065      725F6E69 
 2065      635F6578 
 2065      745F6370 
 2066              		.section	.rodata.__FUNCTION__.1,"a"
 2067              		.align	2
 2070              	__FUNCTION__.1:
 2071 0000 66616C5F 		.ascii	"fal_tiger_nic_ext_cputag_en_set\000"
 2071      74696765 
 2071      725F6E69 
 2071      635F6578 
 2071      745F6370 
 2072              		.section	.rodata.__FUNCTION__.2,"a"
 2073              		.align	2
 2076              	__FUNCTION__.2:
 2077 0000 66616C5F 		.ascii	"fal_tiger_nic_cpuport_tagtpid_get\000"
 2077      74696765 
 2077      725F6E69 
 2077      635F6370 
 2077      75706F72 
 2078              		.section	.rodata.__FUNCTION__.3,"a"
 2079              		.align	2
 2082              	__FUNCTION__.3:
 2083 0000 66616C5F 		.ascii	"fal_tiger_nic_cpuport_tagtpid_set\000"
 2083      74696765 
 2083      725F6E69 
 2083      635F6370 
 2083      75706F72 
 2084              		.section	.rodata.__FUNCTION__.4,"a"
 2085              		.align	2
 2088              	__FUNCTION__.4:
 2089 0000 66616C5F 		.ascii	"fal_tiger_nic_ext_cpuport_port_get\000"
 2089      74696765 
 2089      725F6E69 
 2089      635F6578 
 2089      745F6370 
 2090              		.section	.rodata.__FUNCTION__.5,"a"
 2091              		.align	2
 2094              	__FUNCTION__.5:
 2095 0000 66616C5F 		.ascii	"fal_tiger_nic_ext_cpuport_port_set\000"
 2095      74696765 
 2095      725F6E69 
 2095      635F6578 
 2095      745F6370 
 2096              		.section	.rodata.__FUNCTION__.6,"a"
 2097              		.align	2
 2100              	__FUNCTION__.6:
 2101 0000 66616C5F 		.ascii	"fal_tiger_nic_ext_cpuport_en_get\000"
 2101      74696765 
 2101      725F6E69 
 2101      635F6578 
 2101      745F6370 
 2102              		.section	.rodata.__FUNCTION__.7,"a"
 2103              		.align	2
 2106              	__FUNCTION__.7:
 2107 0000 66616C5F 		.ascii	"fal_tiger_nic_ext_cpuport_en_set\000"
 2107      74696765 
 2107      725F6E69 
 2107      635F6578 
 2107      745F6370 
 2108              		.section	.rodata.__FUNCTION__.8,"a"
 2109              		.align	2
 2112              	__FUNCTION__.8:
 2113 0000 66616C5F 		.ascii	"fal_tiger_nic_cpuport_mode_get\000"
 2113      74696765 
 2113      725F6E69 
 2113      635F6370 
 2113      75706F72 
 2114              		.section	.rodata.__FUNCTION__.9,"a"
 2115              		.align	2
 2118              	__FUNCTION__.9:
 2119 0000 66616C5F 		.ascii	"fal_tiger_nic_cpuport_mode_set\000"
 2119      74696765 
 2119      725F6E69 
 2119      635F6370 
 2119      75706F72 
 2120              		.section	.rodata.__FUNCTION__.10,"a"
 2121              		.align	2
 2124              	__FUNCTION__.10:
 2125 0000 66616C5F 		.ascii	"fal_tiger_nic_init\000"
 2125      74696765 
 2125      725F6E69 
 2125      635F696E 
 2125      697400
 2126              		.text
 2127              	.Letext0:
 2128              		.file 2 "C:\\Users\\Dmitriy\\Desktop\\GD32F10x\\switch_sdk\\common\\include/yt_types.h"
 2129              		.file 3 "C:\\Users\\Dmitriy\\Desktop\\GD32F10x\\switch_sdk\\common\\include/yt_error.h"
 2130              		.file 4 "../switch_sdk/core/fal/tiger/fal_tiger_entry.h"
 2131              		.file 5 "C:\\Users\\Dmitriy\\Desktop\\GD32F10x\\switch_sdk\\core\\fal\\chipdef/chipdef.h"
 2132              		.file 6 "C:\\Users\\Dmitriy\\Desktop\\GD32F10x\\switch_sdk\\core\\cal/cal_bprofile.h"
 2133              		.file 7 "C:\\Users\\Dmitriy\\Desktop\\GD32F10x\\switch_sdk\\core\\cal/cal_mgm.h"
 2134              		.file 8 "C:\\Users\\Dmitriy\\Desktop\\GD32F10x\\switch_sdk\\include/yt_nic.h"
 2135              		.file 9 "../switch_sdk/core/fal/tiger/fal_tiger_port.h"
 2136              		.file 10 "C:\\Users\\Dmitriy\\Desktop\\GD32F10x\\switch_sdk\\core\\hal/hal_mem.h"