   1              		.cpu cortex-m3
   2              		.arch armv7-m
   3              		.fpu softvfp
   4              		.eabi_attribute 20, 1
   5              		.eabi_attribute 21, 1
   6              		.eabi_attribute 23, 3
   7              		.eabi_attribute 24, 1
   8              		.eabi_attribute 25, 1
   9              		.eabi_attribute 26, 1
  10              		.eabi_attribute 30, 1
  11              		.eabi_attribute 34, 1
  12              		.eabi_attribute 18, 4
  13              		.file	"fal_tiger_port.c"
  14              		.text
  15              	.Ltext0:
  16              		.cfi_sections	.debug_frame
  17              		.file 1 "../switch_sdk/core/fal/tiger/fal_tiger_port.c"
  18              		.section	.text.fal_port_speedDup_split,"ax",%progbits
  19              		.align	1
  20              		.syntax unified
  21              		.thumb
  22              		.thumb_func
  24              	fal_port_speedDup_split:
  25              	.LVL0:
  26              	.LFB3:
   1:../switch_sdk/core/fal/tiger/fal_tiger_port.c **** /*******************************************************************************
   2:../switch_sdk/core/fal/tiger/fal_tiger_port.c **** *                                                                              *
   3:../switch_sdk/core/fal/tiger/fal_tiger_port.c **** *  Copyright (c), 2022, Motorcomm Electronic Technology Co.,Ltd.               *
   4:../switch_sdk/core/fal/tiger/fal_tiger_port.c **** *  Motorcomm Confidential and Proprietary.                                     *
   5:../switch_sdk/core/fal/tiger/fal_tiger_port.c **** *                                                                              *
   6:../switch_sdk/core/fal/tiger/fal_tiger_port.c **** ********************************************************************************
   7:../switch_sdk/core/fal/tiger/fal_tiger_port.c **** */
   8:../switch_sdk/core/fal/tiger/fal_tiger_port.c **** /**
   9:../switch_sdk/core/fal/tiger/fal_tiger_port.c **** ********************************************************************************
  10:../switch_sdk/core/fal/tiger/fal_tiger_port.c **** * @file fal_tiger_port.c
  11:../switch_sdk/core/fal/tiger/fal_tiger_port.c **** *
  12:../switch_sdk/core/fal/tiger/fal_tiger_port.c **** * @brief x
  13:../switch_sdk/core/fal/tiger/fal_tiger_port.c **** *
  14:../switch_sdk/core/fal/tiger/fal_tiger_port.c **** ********************************************************************************
  15:../switch_sdk/core/fal/tiger/fal_tiger_port.c **** */
  16:../switch_sdk/core/fal/tiger/fal_tiger_port.c **** /*
  17:../switch_sdk/core/fal/tiger/fal_tiger_port.c ****  * Include Files
  18:../switch_sdk/core/fal/tiger/fal_tiger_port.c ****  */
  19:../switch_sdk/core/fal/tiger/fal_tiger_port.c **** #include "yt_error.h"
  20:../switch_sdk/core/fal/tiger/fal_tiger_port.c **** #include "yt_util.h"
  21:../switch_sdk/core/fal/tiger/fal_tiger_port.c **** //#include "osal_mem.h"
  22:../switch_sdk/core/fal/tiger/fal_tiger_port.c **** //#include "osal_print.h"
  23:../switch_sdk/core/fal/tiger/fal_tiger_port.c **** #include "fal_tiger_l2.h"
  24:../switch_sdk/core/fal/tiger/fal_tiger_port.c **** #include "hal_mem.h"
  25:../switch_sdk/core/fal/tiger/fal_tiger_port.c **** #include "hal_ctrl.h"
  26:../switch_sdk/core/fal/tiger/fal_tiger_port.c **** #include "fal_tiger_struct.h"
  27:../switch_sdk/core/fal/tiger/fal_tiger_port.c **** #include "fal_tiger_entry.h"
  28:../switch_sdk/core/fal/tiger/fal_tiger_port.c **** #include "fal_tiger_mem.h"
  29:../switch_sdk/core/fal/tiger/fal_tiger_port.c **** #include "cal_cmm.h"
  30:../switch_sdk/core/fal/tiger/fal_tiger_port.c **** #include "fal_tiger_port.h"
  31:../switch_sdk/core/fal/tiger/fal_tiger_port.c **** #include "fal_tiger_cmm.h"
  32:../switch_sdk/core/fal/tiger/fal_tiger_port.c **** #include "fal_monitor.h"
  33:../switch_sdk/core/fal/tiger/fal_tiger_port.c **** #include "phy_drv.h"
  34:../switch_sdk/core/fal/tiger/fal_tiger_port.c **** 
  35:../switch_sdk/core/fal/tiger/fal_tiger_port.c **** static yt_ret_t fal_port_speedDup_split(yt_port_speed_duplex_t speed_dup, yt_port_speed_t *pSpeed, 
  36:../switch_sdk/core/fal/tiger/fal_tiger_port.c **** {
  27              		.loc 1 36 1 view -0
  28              		.cfi_startproc
  29              		@ args = 0, pretend = 0, frame = 0
  30              		@ frame_needed = 0, uses_anonymous_args = 0
  31              		@ link register save eliminated.
  37:../switch_sdk/core/fal/tiger/fal_tiger_port.c ****     switch(speed_dup)
  32              		.loc 1 37 5 view .LVU1
  33 0000 0528     		cmp	r0, #5
  34 0002 23D8     		bhi	.L10
  35 0004 DFE800F0 		tbb	[pc, r0]
  36              	.L4:
  37 0008 03       		.byte	(.L9-.L4)/2
  38 0009 07       		.byte	(.L8-.L4)/2
  39 000a 0C       		.byte	(.L7-.L4)/2
  40 000b 11       		.byte	(.L6-.L4)/2
  41 000c 16       		.byte	(.L5-.L4)/2
  42 000d 1C       		.byte	(.L3-.L4)/2
  43              		.p2align 1
  44              	.L9:
  38:../switch_sdk/core/fal/tiger/fal_tiger_port.c ****     {
  39:../switch_sdk/core/fal/tiger/fal_tiger_port.c ****         case PORT_SPEED_DUP_10HALF:
  40:../switch_sdk/core/fal/tiger/fal_tiger_port.c ****             *pSpeed  = PORT_SPEED_10M;
  45              		.loc 1 40 13 view .LVU2
  46              		.loc 1 40 22 is_stmt 0 view .LVU3
  47 000e 0020     		movs	r0, #0
  48              	.LVL1:
  49              		.loc 1 40 22 view .LVU4
  50 0010 0870     		strb	r0, [r1]
  41:../switch_sdk/core/fal/tiger/fal_tiger_port.c ****             *pDuplex = PORT_DUPLEX_HALF;
  51              		.loc 1 41 13 is_stmt 1 view .LVU5
  52              		.loc 1 41 22 is_stmt 0 view .LVU6
  53 0012 1070     		strb	r0, [r2]
  42:../switch_sdk/core/fal/tiger/fal_tiger_port.c ****             break;
  54              		.loc 1 42 13 is_stmt 1 view .LVU7
  55 0014 7047     		bx	lr
  56              	.LVL2:
  57              	.L8:
  43:../switch_sdk/core/fal/tiger/fal_tiger_port.c ****         case PORT_SPEED_DUP_10FULL:
  44:../switch_sdk/core/fal/tiger/fal_tiger_port.c ****             *pSpeed  = PORT_SPEED_10M;
  58              		.loc 1 44 13 view .LVU8
  59              		.loc 1 44 22 is_stmt 0 view .LVU9
  60 0016 0020     		movs	r0, #0
  61              	.LVL3:
  62              		.loc 1 44 22 view .LVU10
  63 0018 0870     		strb	r0, [r1]
  45:../switch_sdk/core/fal/tiger/fal_tiger_port.c ****             *pDuplex = PORT_DUPLEX_FULL;
  64              		.loc 1 45 13 is_stmt 1 view .LVU11
  65              		.loc 1 45 22 is_stmt 0 view .LVU12
  66 001a 0123     		movs	r3, #1
  67 001c 1370     		strb	r3, [r2]
  46:../switch_sdk/core/fal/tiger/fal_tiger_port.c ****             break;
  68              		.loc 1 46 13 is_stmt 1 view .LVU13
  69 001e 7047     		bx	lr
  70              	.LVL4:
  71              	.L7:
  47:../switch_sdk/core/fal/tiger/fal_tiger_port.c ****         case PORT_SPEED_DUP_100HALF:
  48:../switch_sdk/core/fal/tiger/fal_tiger_port.c ****             *pSpeed  = PORT_SPEED_100M;
  72              		.loc 1 48 13 view .LVU14
  73              		.loc 1 48 22 is_stmt 0 view .LVU15
  74 0020 0123     		movs	r3, #1
  75 0022 0B70     		strb	r3, [r1]
  49:../switch_sdk/core/fal/tiger/fal_tiger_port.c ****             *pDuplex = PORT_DUPLEX_HALF;
  76              		.loc 1 49 13 is_stmt 1 view .LVU16
  77              		.loc 1 49 22 is_stmt 0 view .LVU17
  78 0024 0020     		movs	r0, #0
  79              	.LVL5:
  80              		.loc 1 49 22 view .LVU18
  81 0026 1070     		strb	r0, [r2]
  50:../switch_sdk/core/fal/tiger/fal_tiger_port.c ****             break;
  82              		.loc 1 50 13 is_stmt 1 view .LVU19
  83 0028 7047     		bx	lr
  84              	.LVL6:
  85              	.L6:
  51:../switch_sdk/core/fal/tiger/fal_tiger_port.c ****         case PORT_SPEED_DUP_100FULL:
  52:../switch_sdk/core/fal/tiger/fal_tiger_port.c ****             *pSpeed  = PORT_SPEED_100M;
  86              		.loc 1 52 13 view .LVU20
  87              		.loc 1 52 22 is_stmt 0 view .LVU21
  88 002a 0123     		movs	r3, #1
  89 002c 0B70     		strb	r3, [r1]
  53:../switch_sdk/core/fal/tiger/fal_tiger_port.c ****             *pDuplex = PORT_DUPLEX_FULL;
  90              		.loc 1 53 13 is_stmt 1 view .LVU22
  91              		.loc 1 53 22 is_stmt 0 view .LVU23
  92 002e 1370     		strb	r3, [r2]
  54:../switch_sdk/core/fal/tiger/fal_tiger_port.c ****             break;
  93              		.loc 1 54 13 is_stmt 1 view .LVU24
  55:../switch_sdk/core/fal/tiger/fal_tiger_port.c ****         case PORT_SPEED_DUP_1000FULL:
  56:../switch_sdk/core/fal/tiger/fal_tiger_port.c ****             *pSpeed  = PORT_SPEED_1000M;
  57:../switch_sdk/core/fal/tiger/fal_tiger_port.c ****             *pDuplex = PORT_DUPLEX_FULL;
  58:../switch_sdk/core/fal/tiger/fal_tiger_port.c ****             break;
  59:../switch_sdk/core/fal/tiger/fal_tiger_port.c ****         case PORT_SPEED_DUP_2500FULL:
  60:../switch_sdk/core/fal/tiger/fal_tiger_port.c ****             *pSpeed = PORT_SPEED_2500M;
  61:../switch_sdk/core/fal/tiger/fal_tiger_port.c ****             *pDuplex = PORT_DUPLEX_FULL;
  62:../switch_sdk/core/fal/tiger/fal_tiger_port.c ****             break;
  63:../switch_sdk/core/fal/tiger/fal_tiger_port.c ****         default:
  64:../switch_sdk/core/fal/tiger/fal_tiger_port.c ****             return CMM_ERR_INPUT;
  65:../switch_sdk/core/fal/tiger/fal_tiger_port.c ****     }
  66:../switch_sdk/core/fal/tiger/fal_tiger_port.c **** 
  67:../switch_sdk/core/fal/tiger/fal_tiger_port.c ****     return CMM_ERR_OK;
  94              		.loc 1 67 12 is_stmt 0 view .LVU25
  95 0030 0020     		movs	r0, #0
  96              	.LVL7:
  54:../switch_sdk/core/fal/tiger/fal_tiger_port.c ****             break;
  97              		.loc 1 54 13 view .LVU26
  98 0032 7047     		bx	lr
  99              	.LVL8:
 100              	.L5:
  56:../switch_sdk/core/fal/tiger/fal_tiger_port.c ****             *pDuplex = PORT_DUPLEX_FULL;
 101              		.loc 1 56 13 is_stmt 1 view .LVU27
  56:../switch_sdk/core/fal/tiger/fal_tiger_port.c ****             *pDuplex = PORT_DUPLEX_FULL;
 102              		.loc 1 56 22 is_stmt 0 view .LVU28
 103 0034 0223     		movs	r3, #2
 104 0036 0B70     		strb	r3, [r1]
  57:../switch_sdk/core/fal/tiger/fal_tiger_port.c ****             break;
 105              		.loc 1 57 13 is_stmt 1 view .LVU29
  57:../switch_sdk/core/fal/tiger/fal_tiger_port.c ****             break;
 106              		.loc 1 57 22 is_stmt 0 view .LVU30
 107 0038 0123     		movs	r3, #1
 108 003a 1370     		strb	r3, [r2]
  58:../switch_sdk/core/fal/tiger/fal_tiger_port.c ****         case PORT_SPEED_DUP_2500FULL:
 109              		.loc 1 58 13 is_stmt 1 view .LVU31
 110              		.loc 1 67 12 is_stmt 0 view .LVU32
 111 003c 0020     		movs	r0, #0
 112              	.LVL9:
  58:../switch_sdk/core/fal/tiger/fal_tiger_port.c ****         case PORT_SPEED_DUP_2500FULL:
 113              		.loc 1 58 13 view .LVU33
 114 003e 7047     		bx	lr
 115              	.LVL10:
 116              	.L3:
  60:../switch_sdk/core/fal/tiger/fal_tiger_port.c ****             *pDuplex = PORT_DUPLEX_FULL;
 117              		.loc 1 60 13 is_stmt 1 view .LVU34
  60:../switch_sdk/core/fal/tiger/fal_tiger_port.c ****             *pDuplex = PORT_DUPLEX_FULL;
 118              		.loc 1 60 21 is_stmt 0 view .LVU35
 119 0040 0323     		movs	r3, #3
 120 0042 0B70     		strb	r3, [r1]
  61:../switch_sdk/core/fal/tiger/fal_tiger_port.c ****             break;
 121              		.loc 1 61 13 is_stmt 1 view .LVU36
  61:../switch_sdk/core/fal/tiger/fal_tiger_port.c ****             break;
 122              		.loc 1 61 22 is_stmt 0 view .LVU37
 123 0044 0123     		movs	r3, #1
 124 0046 1370     		strb	r3, [r2]
  62:../switch_sdk/core/fal/tiger/fal_tiger_port.c ****         default:
 125              		.loc 1 62 13 is_stmt 1 view .LVU38
 126              		.loc 1 67 12 is_stmt 0 view .LVU39
 127 0048 0020     		movs	r0, #0
 128              	.LVL11:
  62:../switch_sdk/core/fal/tiger/fal_tiger_port.c ****         default:
 129              		.loc 1 62 13 view .LVU40
 130 004a 7047     		bx	lr
 131              	.LVL12:
 132              	.L10:
  37:../switch_sdk/core/fal/tiger/fal_tiger_port.c ****     {
 133              		.loc 1 37 5 view .LVU41
 134 004c 0520     		movs	r0, #5
 135              	.LVL13:
  68:../switch_sdk/core/fal/tiger/fal_tiger_port.c **** }
 136              		.loc 1 68 1 view .LVU42
 137 004e 7047     		bx	lr
 138              		.cfi_endproc
 139              	.LFE3:
 141              		.section	.text.fal_port_speedDup_combine,"ax",%progbits
 142              		.align	1
 143              		.syntax unified
 144              		.thumb
 145              		.thumb_func
 147              	fal_port_speedDup_combine:
 148              	.LVL14:
 149              	.LFB6:
  69:../switch_sdk/core/fal/tiger/fal_tiger_port.c **** 
  70:../switch_sdk/core/fal/tiger/fal_tiger_port.c **** static yt_ret_t fal_rgmii_strength_set(yt_unit_t unit, yt_dvddio_power_pad_t powerPad, yt_dvddio_po
  71:../switch_sdk/core/fal/tiger/fal_tiger_port.c **** {
  72:../switch_sdk/core/fal/tiger/fal_tiger_port.c ****     uint32_t reg_data = 0;
  73:../switch_sdk/core/fal/tiger/fal_tiger_port.c ****     cmm_err_t ret = CMM_ERR_OK;
  74:../switch_sdk/core/fal/tiger/fal_tiger_port.c ****     uint32_t index = 0;
  75:../switch_sdk/core/fal/tiger/fal_tiger_port.c **** 
  76:../switch_sdk/core/fal/tiger/fal_tiger_port.c ****     if (POWER_PAD_NORMAL == powerPad)
  77:../switch_sdk/core/fal/tiger/fal_tiger_port.c ****     {
  78:../switch_sdk/core/fal/tiger/fal_tiger_port.c ****         return CMM_ERR_OK;
  79:../switch_sdk/core/fal/tiger/fal_tiger_port.c ****     }
  80:../switch_sdk/core/fal/tiger/fal_tiger_port.c **** 
  81:../switch_sdk/core/fal/tiger/fal_tiger_port.c ****     index = (POWER_PAD_RGMII1 == powerPad) ? 0 : 1;
  82:../switch_sdk/core/fal/tiger/fal_tiger_port.c ****     switch(powerLevel)
  83:../switch_sdk/core/fal/tiger/fal_tiger_port.c ****     {
  84:../switch_sdk/core/fal/tiger/fal_tiger_port.c ****         case POWER18V:
  85:../switch_sdk/core/fal/tiger/fal_tiger_port.c ****             CMM_ERR_CHK(HAL_MEM_DIRECT_READ(unit, CHIP_MODE_SEL_REG, &reg_data), ret);
  86:../switch_sdk/core/fal/tiger/fal_tiger_port.c ****             SET_BIT(reg_data, 9);
  87:../switch_sdk/core/fal/tiger/fal_tiger_port.c ****             CMM_ERR_CHK(HAL_MEM_DIRECT_WRITE(unit, CHIP_MODE_SEL_REG, reg_data), ret);
  88:../switch_sdk/core/fal/tiger/fal_tiger_port.c **** 
  89:../switch_sdk/core/fal/tiger/fal_tiger_port.c ****             CMM_ERR_CHK(HAL_MEM_DIRECT_READ(unit, CHIP_PAD_PART_REG(index), &reg_data), ret);
  90:../switch_sdk/core/fal/tiger/fal_tiger_port.c ****             reg_data &= ~(0x7<<15);
  91:../switch_sdk/core/fal/tiger/fal_tiger_port.c ****             reg_data |= (0x4<<15);
  92:../switch_sdk/core/fal/tiger/fal_tiger_port.c ****             CMM_ERR_CHK(HAL_MEM_DIRECT_WRITE(unit, CHIP_PAD_PART_REG(index), reg_data), ret);
  93:../switch_sdk/core/fal/tiger/fal_tiger_port.c ****             break;
  94:../switch_sdk/core/fal/tiger/fal_tiger_port.c ****         case POWER25V:
  95:../switch_sdk/core/fal/tiger/fal_tiger_port.c ****         case POWER33V:
  96:../switch_sdk/core/fal/tiger/fal_tiger_port.c ****             CMM_ERR_CHK(HAL_MEM_DIRECT_READ(unit, CHIP_MODE_SEL_REG, &reg_data), ret);
  97:../switch_sdk/core/fal/tiger/fal_tiger_port.c ****             CLEAR_BIT(reg_data, 9);
  98:../switch_sdk/core/fal/tiger/fal_tiger_port.c ****             CMM_ERR_CHK(HAL_MEM_DIRECT_WRITE(unit, CHIP_MODE_SEL_REG, reg_data), ret);
  99:../switch_sdk/core/fal/tiger/fal_tiger_port.c **** 
 100:../switch_sdk/core/fal/tiger/fal_tiger_port.c ****             CMM_ERR_CHK(HAL_MEM_DIRECT_READ(unit, CHIP_PAD_PART_REG(index), &reg_data), ret);
 101:../switch_sdk/core/fal/tiger/fal_tiger_port.c ****             reg_data &= ~(0x7<<15);
 102:../switch_sdk/core/fal/tiger/fal_tiger_port.c ****             reg_data |= (0x3<<15);
 103:../switch_sdk/core/fal/tiger/fal_tiger_port.c ****             CMM_ERR_CHK(HAL_MEM_DIRECT_WRITE(unit, CHIP_PAD_PART_REG(index), reg_data), ret);
 104:../switch_sdk/core/fal/tiger/fal_tiger_port.c ****             break;
 105:../switch_sdk/core/fal/tiger/fal_tiger_port.c ****         default:
 106:../switch_sdk/core/fal/tiger/fal_tiger_port.c ****             return CMM_ERR_NOT_SUPPORT;
 107:../switch_sdk/core/fal/tiger/fal_tiger_port.c ****     }
 108:../switch_sdk/core/fal/tiger/fal_tiger_port.c ****     return ret;
 109:../switch_sdk/core/fal/tiger/fal_tiger_port.c **** }
 110:../switch_sdk/core/fal/tiger/fal_tiger_port.c **** 
 111:../switch_sdk/core/fal/tiger/fal_tiger_port.c **** static yt_ret_t fal_rgmii_vbias_set(yt_unit_t unit, yt_dvddio_power_pad_t powerPad, yt_dvddio_power
 112:../switch_sdk/core/fal/tiger/fal_tiger_port.c **** {
 113:../switch_sdk/core/fal/tiger/fal_tiger_port.c ****     uint32_t reg_data = 0;
 114:../switch_sdk/core/fal/tiger/fal_tiger_port.c ****     cmm_err_t ret = CMM_ERR_OK;
 115:../switch_sdk/core/fal/tiger/fal_tiger_port.c ****     uint32_t index = 0;
 116:../switch_sdk/core/fal/tiger/fal_tiger_port.c **** 
 117:../switch_sdk/core/fal/tiger/fal_tiger_port.c ****     if (POWER_PAD_NORMAL == powerPad)
 118:../switch_sdk/core/fal/tiger/fal_tiger_port.c ****     {
 119:../switch_sdk/core/fal/tiger/fal_tiger_port.c ****         return ret;
 120:../switch_sdk/core/fal/tiger/fal_tiger_port.c ****     }
 121:../switch_sdk/core/fal/tiger/fal_tiger_port.c **** 
 122:../switch_sdk/core/fal/tiger/fal_tiger_port.c ****     if ((CAL_SWCHIP_MODEL(unit) == YT_SW_MODEL_9218 && POWER_PAD_RGMII1 == powerPad) ||
 123:../switch_sdk/core/fal/tiger/fal_tiger_port.c ****            CAL_SWCHIP_MODEL(unit) == YT_SW_MODEL_9215)
 124:../switch_sdk/core/fal/tiger/fal_tiger_port.c ****     {
 125:../switch_sdk/core/fal/tiger/fal_tiger_port.c ****         index = 1;
 126:../switch_sdk/core/fal/tiger/fal_tiger_port.c ****     }
 127:../switch_sdk/core/fal/tiger/fal_tiger_port.c ****     else if (CAL_SWCHIP_MODEL(unit) == YT_SW_MODEL_9218 && POWER_PAD_RGMII2 == powerPad)
 128:../switch_sdk/core/fal/tiger/fal_tiger_port.c ****     {
 129:../switch_sdk/core/fal/tiger/fal_tiger_port.c ****         index = 3;
 130:../switch_sdk/core/fal/tiger/fal_tiger_port.c ****     }
 131:../switch_sdk/core/fal/tiger/fal_tiger_port.c ****     else
 132:../switch_sdk/core/fal/tiger/fal_tiger_port.c ****     {
 133:../switch_sdk/core/fal/tiger/fal_tiger_port.c ****         return CMM_ERR_NOT_SUPPORT;
 134:../switch_sdk/core/fal/tiger/fal_tiger_port.c ****     }
 135:../switch_sdk/core/fal/tiger/fal_tiger_port.c ****     switch(powerLevel)
 136:../switch_sdk/core/fal/tiger/fal_tiger_port.c ****     {
 137:../switch_sdk/core/fal/tiger/fal_tiger_port.c ****         case POWER18V:
 138:../switch_sdk/core/fal/tiger/fal_tiger_port.c ****         case POWER25V:
 139:../switch_sdk/core/fal/tiger/fal_tiger_port.c ****             CMM_ERR_CHK(HAL_MEM_DIRECT_READ(unit, CHIP_DCC_CALIB_CLK_SEL_REG, &reg_data), ret);
 140:../switch_sdk/core/fal/tiger/fal_tiger_port.c ****             reg_data &= ~(0x3<<index);
 141:../switch_sdk/core/fal/tiger/fal_tiger_port.c ****             CMM_ERR_CHK(HAL_MEM_DIRECT_WRITE(unit, CHIP_DCC_CALIB_CLK_SEL_REG, reg_data), ret);
 142:../switch_sdk/core/fal/tiger/fal_tiger_port.c ****             break;
 143:../switch_sdk/core/fal/tiger/fal_tiger_port.c ****         case POWER33V:
 144:../switch_sdk/core/fal/tiger/fal_tiger_port.c ****             CMM_ERR_CHK(HAL_MEM_DIRECT_READ(unit, CHIP_DCC_CALIB_CLK_SEL_REG, &reg_data), ret);
 145:../switch_sdk/core/fal/tiger/fal_tiger_port.c ****             reg_data &= ~(0x3<<index);
 146:../switch_sdk/core/fal/tiger/fal_tiger_port.c ****             reg_data |= (0x2<<index);
 147:../switch_sdk/core/fal/tiger/fal_tiger_port.c ****             CMM_ERR_CHK(HAL_MEM_DIRECT_WRITE(unit, CHIP_DCC_CALIB_CLK_SEL_REG, reg_data), ret);
 148:../switch_sdk/core/fal/tiger/fal_tiger_port.c ****             break;
 149:../switch_sdk/core/fal/tiger/fal_tiger_port.c ****         default:
 150:../switch_sdk/core/fal/tiger/fal_tiger_port.c ****             return CMM_ERR_NOT_SUPPORT;
 151:../switch_sdk/core/fal/tiger/fal_tiger_port.c ****     }
 152:../switch_sdk/core/fal/tiger/fal_tiger_port.c **** 
 153:../switch_sdk/core/fal/tiger/fal_tiger_port.c ****     return ret;
 154:../switch_sdk/core/fal/tiger/fal_tiger_port.c **** }
 155:../switch_sdk/core/fal/tiger/fal_tiger_port.c **** 
 156:../switch_sdk/core/fal/tiger/fal_tiger_port.c **** static yt_ret_t fal_port_speedDup_combine(yt_port_speed_t speed, yt_port_duplex_t duplex, yt_port_s
 157:../switch_sdk/core/fal/tiger/fal_tiger_port.c **** {
 150              		.loc 1 157 1 is_stmt 1 view -0
 151              		.cfi_startproc
 152              		@ args = 0, pretend = 0, frame = 0
 153              		@ frame_needed = 0, uses_anonymous_args = 0
 154              		@ link register save eliminated.
 158:../switch_sdk/core/fal/tiger/fal_tiger_port.c ****     if(duplex == PORT_DUPLEX_FULL)
 155              		.loc 1 158 5 view .LVU44
 156              		.loc 1 158 7 is_stmt 0 view .LVU45
 157 0000 0129     		cmp	r1, #1
 158 0002 03D0     		beq	.L23
 159:../switch_sdk/core/fal/tiger/fal_tiger_port.c ****     {
 160:../switch_sdk/core/fal/tiger/fal_tiger_port.c ****         if(speed == PORT_SPEED_10M)
 161:../switch_sdk/core/fal/tiger/fal_tiger_port.c ****         {
 162:../switch_sdk/core/fal/tiger/fal_tiger_port.c ****             *pSpeedDup = PORT_SPEED_DUP_10FULL;
 163:../switch_sdk/core/fal/tiger/fal_tiger_port.c ****         }
 164:../switch_sdk/core/fal/tiger/fal_tiger_port.c ****         else if(speed == PORT_SPEED_100M)
 165:../switch_sdk/core/fal/tiger/fal_tiger_port.c ****         {
 166:../switch_sdk/core/fal/tiger/fal_tiger_port.c ****             *pSpeedDup = PORT_SPEED_DUP_100FULL;
 167:../switch_sdk/core/fal/tiger/fal_tiger_port.c ****         }
 168:../switch_sdk/core/fal/tiger/fal_tiger_port.c ****         else if(speed == PORT_SPEED_1000M)
 169:../switch_sdk/core/fal/tiger/fal_tiger_port.c ****         {
 170:../switch_sdk/core/fal/tiger/fal_tiger_port.c ****             *pSpeedDup = PORT_SPEED_DUP_1000FULL;
 171:../switch_sdk/core/fal/tiger/fal_tiger_port.c ****         }
 172:../switch_sdk/core/fal/tiger/fal_tiger_port.c ****         else if(speed == PORT_SPEED_2500M)
 173:../switch_sdk/core/fal/tiger/fal_tiger_port.c ****         {
 174:../switch_sdk/core/fal/tiger/fal_tiger_port.c ****             *pSpeedDup = PORT_SPEED_DUP_2500FULL;
 175:../switch_sdk/core/fal/tiger/fal_tiger_port.c ****         }
 176:../switch_sdk/core/fal/tiger/fal_tiger_port.c ****         else
 177:../switch_sdk/core/fal/tiger/fal_tiger_port.c ****         {
 178:../switch_sdk/core/fal/tiger/fal_tiger_port.c ****             return CMM_ERR_INPUT;
 179:../switch_sdk/core/fal/tiger/fal_tiger_port.c ****         }
 180:../switch_sdk/core/fal/tiger/fal_tiger_port.c ****     }
 181:../switch_sdk/core/fal/tiger/fal_tiger_port.c ****     else if(duplex == PORT_DUPLEX_HALF)
 159              		.loc 1 181 10 is_stmt 1 view .LVU46
 160              		.loc 1 181 12 is_stmt 0 view .LVU47
 161 0004 01BB     		cbnz	r1, .L21
 182:../switch_sdk/core/fal/tiger/fal_tiger_port.c ****     {
 183:../switch_sdk/core/fal/tiger/fal_tiger_port.c ****         if(speed == PORT_SPEED_10M)
 162              		.loc 1 183 9 is_stmt 1 view .LVU48
 163              		.loc 1 183 11 is_stmt 0 view .LVU49
 164 0006 B8B9     		cbnz	r0, .L19
 184:../switch_sdk/core/fal/tiger/fal_tiger_port.c ****         {
 185:../switch_sdk/core/fal/tiger/fal_tiger_port.c ****             *pSpeedDup = PORT_SPEED_DUP_10HALF;
 165              		.loc 1 185 13 is_stmt 1 view .LVU50
 166              		.loc 1 185 24 is_stmt 0 view .LVU51
 167 0008 1070     		strb	r0, [r2]
 168 000a 7047     		bx	lr
 169              	.L23:
 160:../switch_sdk/core/fal/tiger/fal_tiger_port.c ****         {
 170              		.loc 1 160 9 is_stmt 1 view .LVU52
 171 000c 0328     		cmp	r0, #3
 172 000e 19D8     		bhi	.L20
 173 0010 DFE800F0 		tbb	[pc, r0]
 174              	.L15:
 175 0014 02       		.byte	(.L18-.L15)/2
 176 0015 06       		.byte	(.L17-.L15)/2
 177 0016 0A       		.byte	(.L16-.L15)/2
 178 0017 0E       		.byte	(.L14-.L15)/2
 179              		.p2align 1
 180              	.L18:
 162:../switch_sdk/core/fal/tiger/fal_tiger_port.c ****         }
 181              		.loc 1 162 13 view .LVU53
 162:../switch_sdk/core/fal/tiger/fal_tiger_port.c ****         }
 182              		.loc 1 162 24 is_stmt 0 view .LVU54
 183 0018 0123     		movs	r3, #1
 184 001a 1370     		strb	r3, [r2]
 186:../switch_sdk/core/fal/tiger/fal_tiger_port.c ****         }
 187:../switch_sdk/core/fal/tiger/fal_tiger_port.c ****         else if(speed == PORT_SPEED_100M)
 188:../switch_sdk/core/fal/tiger/fal_tiger_port.c ****         {
 189:../switch_sdk/core/fal/tiger/fal_tiger_port.c ****             *pSpeedDup = PORT_SPEED_DUP_100HALF;
 190:../switch_sdk/core/fal/tiger/fal_tiger_port.c ****         }
 191:../switch_sdk/core/fal/tiger/fal_tiger_port.c ****         else
 192:../switch_sdk/core/fal/tiger/fal_tiger_port.c ****         {
 193:../switch_sdk/core/fal/tiger/fal_tiger_port.c ****             return CMM_ERR_INPUT;
 194:../switch_sdk/core/fal/tiger/fal_tiger_port.c ****         }
 195:../switch_sdk/core/fal/tiger/fal_tiger_port.c ****     }
 196:../switch_sdk/core/fal/tiger/fal_tiger_port.c ****     else
 197:../switch_sdk/core/fal/tiger/fal_tiger_port.c ****     {
 198:../switch_sdk/core/fal/tiger/fal_tiger_port.c ****         return CMM_ERR_INPUT;
 199:../switch_sdk/core/fal/tiger/fal_tiger_port.c ****     }
 200:../switch_sdk/core/fal/tiger/fal_tiger_port.c **** 
 201:../switch_sdk/core/fal/tiger/fal_tiger_port.c ****     return CMM_ERR_OK;
 185              		.loc 1 201 12 view .LVU55
 186 001c 0020     		movs	r0, #0
 187              	.LVL15:
 188              		.loc 1 201 12 view .LVU56
 189 001e 7047     		bx	lr
 190              	.LVL16:
 191              	.L17:
 166:../switch_sdk/core/fal/tiger/fal_tiger_port.c ****         }
 192              		.loc 1 166 13 is_stmt 1 view .LVU57
 166:../switch_sdk/core/fal/tiger/fal_tiger_port.c ****         }
 193              		.loc 1 166 24 is_stmt 0 view .LVU58
 194 0020 0323     		movs	r3, #3
 195 0022 1370     		strb	r3, [r2]
 196              		.loc 1 201 12 view .LVU59
 197 0024 0020     		movs	r0, #0
 198              	.LVL17:
 199              		.loc 1 201 12 view .LVU60
 200 0026 7047     		bx	lr
 201              	.LVL18:
 202              	.L16:
 170:../switch_sdk/core/fal/tiger/fal_tiger_port.c ****         }
 203              		.loc 1 170 13 is_stmt 1 view .LVU61
 170:../switch_sdk/core/fal/tiger/fal_tiger_port.c ****         }
 204              		.loc 1 170 24 is_stmt 0 view .LVU62
 205 0028 0423     		movs	r3, #4
 206 002a 1370     		strb	r3, [r2]
 207              		.loc 1 201 12 view .LVU63
 208 002c 0020     		movs	r0, #0
 209              	.LVL19:
 210              		.loc 1 201 12 view .LVU64
 211 002e 7047     		bx	lr
 212              	.LVL20:
 213              	.L14:
 174:../switch_sdk/core/fal/tiger/fal_tiger_port.c ****         }
 214              		.loc 1 174 13 is_stmt 1 view .LVU65
 174:../switch_sdk/core/fal/tiger/fal_tiger_port.c ****         }
 215              		.loc 1 174 24 is_stmt 0 view .LVU66
 216 0030 0523     		movs	r3, #5
 217 0032 1370     		strb	r3, [r2]
 218              		.loc 1 201 12 view .LVU67
 219 0034 0020     		movs	r0, #0
 220              	.LVL21:
 221              		.loc 1 201 12 view .LVU68
 222 0036 7047     		bx	lr
 223              	.LVL22:
 224              	.L19:
 187:../switch_sdk/core/fal/tiger/fal_tiger_port.c ****         {
 225              		.loc 1 187 14 is_stmt 1 view .LVU69
 187:../switch_sdk/core/fal/tiger/fal_tiger_port.c ****         {
 226              		.loc 1 187 16 is_stmt 0 view .LVU70
 227 0038 0128     		cmp	r0, #1
 228 003a 07D1     		bne	.L22
 189:../switch_sdk/core/fal/tiger/fal_tiger_port.c ****         }
 229              		.loc 1 189 13 is_stmt 1 view .LVU71
 189:../switch_sdk/core/fal/tiger/fal_tiger_port.c ****         }
 230              		.loc 1 189 24 is_stmt 0 view .LVU72
 231 003c 0223     		movs	r3, #2
 232 003e 1370     		strb	r3, [r2]
 233              		.loc 1 201 12 view .LVU73
 234 0040 0020     		movs	r0, #0
 235              	.LVL23:
 236              		.loc 1 201 12 view .LVU74
 237 0042 7047     		bx	lr
 238              	.LVL24:
 239              	.L20:
 158:../switch_sdk/core/fal/tiger/fal_tiger_port.c ****     {
 240              		.loc 1 158 7 view .LVU75
 241 0044 0520     		movs	r0, #5
 242              	.LVL25:
 158:../switch_sdk/core/fal/tiger/fal_tiger_port.c ****     {
 243              		.loc 1 158 7 view .LVU76
 244 0046 7047     		bx	lr
 245              	.LVL26:
 246              	.L21:
 198:../switch_sdk/core/fal/tiger/fal_tiger_port.c ****     }
 247              		.loc 1 198 16 view .LVU77
 248 0048 0520     		movs	r0, #5
 249              	.LVL27:
 198:../switch_sdk/core/fal/tiger/fal_tiger_port.c ****     }
 250              		.loc 1 198 16 view .LVU78
 251 004a 7047     		bx	lr
 252              	.LVL28:
 253              	.L22:
 193:../switch_sdk/core/fal/tiger/fal_tiger_port.c ****         }
 254              		.loc 1 193 20 view .LVU79
 255 004c 0520     		movs	r0, #5
 256              	.LVL29:
 202:../switch_sdk/core/fal/tiger/fal_tiger_port.c **** }
 257              		.loc 1 202 1 view .LVU80
 258 004e 7047     		bx	lr
 259              		.cfi_endproc
 260              	.LFE6:
 262              		.section	.rodata.fal_port_serdes_init.str1.4,"aMS",%progbits,1
 263              		.align	2
 264              	.LC0:
 265 0000 696E745F 		.ascii	"int_phy_ext_reg_read(unit, phyAddr, 0xa0, &phyData)"
 265      7068795F 
 265      6578745F 
 265      7265675F 
 265      72656164 
 266 0033 00       		.ascii	"\000"
 267              		.align	2
 268              	.LC1:
 269 0034 25732573 		.ascii	"%s%s of \"%s\" in %s\015\012\000"
 269      206F6620 
 269      22257322 
 269      20696E20 
 269      25730D0A 
 270 0049 000000   		.align	2
 271              	.LC2:
 272 004c 696E745F 		.ascii	"int_phy_ext_reg_write(unit, phyAddr, 0xa0, phyData)"
 272      7068795F 
 272      6578745F 
 272      7265675F 
 272      77726974 
 273 007f 00       		.ascii	"\000"
 274              		.align	2
 275              	.LC3:
 276 0080 696E745F 		.ascii	"int_phy_ext_reg_read(unit, phyAddr, 0x2e, &phyData)"
 276      7068795F 
 276      6578745F 
 276      7265675F 
 276      72656164 
 277 00b3 00       		.ascii	"\000"
 278              		.align	2
 279              	.LC4:
 280 00b4 696E745F 		.ascii	"int_phy_ext_reg_write(unit, phyAddr, 0x2e, phyData)"
 280      7068795F 
 280      6578745F 
 280      7265675F 
 280      77726974 
 281 00e7 00       		.ascii	"\000"
 282              		.align	2
 283              	.LC5:
 284 00e8 696E745F 		.ascii	"int_phy_ext_reg_read(unit, phyAddr, 0x1d0, &phyData"
 284      7068795F 
 284      6578745F 
 284      7265675F 
 284      72656164 
 285 011b 2900     		.ascii	")\000"
 286 011d 000000   		.align	2
 287              	.LC6:
 288 0120 696E745F 		.ascii	"int_phy_ext_reg_write(unit, phyAddr, 0x1d0, phyData"
 288      7068795F 
 288      6578745F 
 288      7265675F 
 288      77726974 
 289 0153 2900     		.ascii	")\000"
 290              		.section	.text.fal_port_serdes_init,"ax",%progbits
 291              		.align	1
 292              		.syntax unified
 293              		.thumb
 294              		.thumb_func
 296              	fal_port_serdes_init:
 297              	.LVL30:
 298              	.LFB7:
 203:../switch_sdk/core/fal/tiger/fal_tiger_port.c **** 
 204:../switch_sdk/core/fal/tiger/fal_tiger_port.c **** static yt_ret_t fal_port_serdes_init(yt_unit_t unit)
 205:../switch_sdk/core/fal/tiger/fal_tiger_port.c **** {
 299              		.loc 1 205 1 is_stmt 1 view -0
 300              		.cfi_startproc
 301              		@ args = 0, pretend = 0, frame = 8
 302              		@ frame_needed = 0, uses_anonymous_args = 0
 206:../switch_sdk/core/fal/tiger/fal_tiger_port.c ****     cmm_err_t ret = CMM_ERR_OK;
 303              		.loc 1 206 5 view .LVU82
 207:../switch_sdk/core/fal/tiger/fal_tiger_port.c ****     uint8_t phyAddr;
 304              		.loc 1 207 5 view .LVU83
 208:../switch_sdk/core/fal/tiger/fal_tiger_port.c ****     uint16_t phyData;
 305              		.loc 1 208 5 view .LVU84
 209:../switch_sdk/core/fal/tiger/fal_tiger_port.c ****     static yt_bool_t initFlag = 0;
 306              		.loc 1 209 5 view .LVU85
 210:../switch_sdk/core/fal/tiger/fal_tiger_port.c ****     uint32_t bit = 0;
 307              		.loc 1 210 5 view .LVU86
 211:../switch_sdk/core/fal/tiger/fal_tiger_port.c **** 
 212:../switch_sdk/core/fal/tiger/fal_tiger_port.c ****     if(initFlag)
 308              		.loc 1 212 5 view .LVU87
 309              		.loc 1 212 8 is_stmt 0 view .LVU88
 310 0000 804B     		ldr	r3, .L60
 311 0002 1B78     		ldrb	r3, [r3]	@ zero_extendqisi2
 312              		.loc 1 212 7 view .LVU89
 313 0004 002B     		cmp	r3, #0
 314 0006 40F0FA80 		bne	.L41
 205:../switch_sdk/core/fal/tiger/fal_tiger_port.c ****     cmm_err_t ret = CMM_ERR_OK;
 315              		.loc 1 205 1 view .LVU90
 316 000a 70B5     		push	{r4, r5, r6, lr}
 317              		.cfi_def_cfa_offset 16
 318              		.cfi_offset 4, -16
 319              		.cfi_offset 5, -12
 320              		.cfi_offset 6, -8
 321              		.cfi_offset 14, -4
 322 000c 84B0     		sub	sp, sp, #16
 323              		.cfi_def_cfa_offset 32
 324 000e 0646     		mov	r6, r0
 213:../switch_sdk/core/fal/tiger/fal_tiger_port.c ****     {
 214:../switch_sdk/core/fal/tiger/fal_tiger_port.c ****         return CMM_ERR_OK;
 215:../switch_sdk/core/fal/tiger/fal_tiger_port.c ****     }
 216:../switch_sdk/core/fal/tiger/fal_tiger_port.c **** 
 217:../switch_sdk/core/fal/tiger/fal_tiger_port.c ****     for(phyAddr = 8; phyAddr <= 9; phyAddr++)
 325              		.loc 1 217 17 view .LVU91
 326 0010 0825     		movs	r5, #8
 327 0012 64E0     		b	.L26
 328              	.LVL31:
 329              	.L53:
 218:../switch_sdk/core/fal/tiger/fal_tiger_port.c ****     {
 219:../switch_sdk/core/fal/tiger/fal_tiger_port.c ****         CMM_ERR_CHK(int_phy_ext_reg_read(unit, phyAddr, 0xa0, &phyData), ret);
 330              		.loc 1 219 9 is_stmt 1 discriminator 1 view .LVU92
 331              		.loc 1 219 9 discriminator 1 view .LVU93
 332 0014 7C4A     		ldr	r2, .L60+4
 333 0016 1278     		ldrb	r2, [r2]	@ zero_extendqisi2
 334 0018 012A     		cmp	r2, #1
 335 001a 01D8     		bhi	.L47
 336              	.LVL32:
 337              	.L28:
 338              		.loc 1 219 9 discriminator 5 view .LVU94
 339              		.loc 1 219 9 discriminator 5 view .LVU95
 340              		.loc 1 219 9 discriminator 5 view .LVU96
 341 001c E0B2     		uxtb	r0, r4
 342 001e ECE0     		b	.L24
 343              	.LVL33:
 344              	.L47:
 345              		.loc 1 219 9 discriminator 3 view .LVU97
 346              	.LBB2:
 347              		.loc 1 219 9 discriminator 3 view .LVU98
 348 0020 142B     		cmp	r3, #20
 349 0022 28BF     		it	cs
 350 0024 1423     		movcs	r3, #20
 351 0026 1A46     		mov	r2, r3
 352 0028 784B     		ldr	r3, .L60+8
 353 002a 0093     		str	r3, [sp]
 354 002c 784B     		ldr	r3, .L60+12
 355 002e 7949     		ldr	r1, .L60+16
 356 0030 51F82220 		ldr	r2, [r1, r2, lsl #2]
 357 0034 7849     		ldr	r1, .L60+20
 358 0036 8968     		ldr	r1, [r1, #8]
 359 0038 7848     		ldr	r0, .L60+24
 360              	.LVL34:
 361              		.loc 1 219 9 is_stmt 0 discriminator 3 view .LVU99
 362 003a FFF7FEFF 		bl	osal_printf
 363              	.LVL35:
 364 003e EDE7     		b	.L28
 365              	.LVL36:
 366              	.L54:
 367              		.loc 1 219 9 discriminator 3 view .LVU100
 368              	.LBE2:
 220:../switch_sdk/core/fal/tiger/fal_tiger_port.c ****         if (CAL_SWCHIP_MODEL(unit) == YT_SW_MODEL_9218)
 221:../switch_sdk/core/fal/tiger/fal_tiger_port.c ****         {
 222:../switch_sdk/core/fal/tiger/fal_tiger_port.c ****             bit = 13;
 369              		.loc 1 222 17 view .LVU101
 370 0040 0D21     		movs	r1, #13
 371 0042 61E0     		b	.L29
 372              	.LVL37:
 373              	.L55:
 223:../switch_sdk/core/fal/tiger/fal_tiger_port.c ****         }
 224:../switch_sdk/core/fal/tiger/fal_tiger_port.c ****         else
 225:../switch_sdk/core/fal/tiger/fal_tiger_port.c ****         {
 226:../switch_sdk/core/fal/tiger/fal_tiger_port.c ****             bit = 14;
 227:../switch_sdk/core/fal/tiger/fal_tiger_port.c ****         }
 228:../switch_sdk/core/fal/tiger/fal_tiger_port.c ****         if (IS_BIT_SET(phyData, bit))
 229:../switch_sdk/core/fal/tiger/fal_tiger_port.c ****         {
 230:../switch_sdk/core/fal/tiger/fal_tiger_port.c ****             CLEAR_BIT(phyData, bit);
 231:../switch_sdk/core/fal/tiger/fal_tiger_port.c ****             CMM_ERR_CHK(int_phy_ext_reg_write(unit, phyAddr, 0xa0, phyData), ret);
 374              		.loc 1 231 13 is_stmt 1 discriminator 3 view .LVU102
 375              	.LBB3:
 376              		.loc 1 231 13 discriminator 3 view .LVU103
 377 0044 142B     		cmp	r3, #20
 378 0046 28BF     		it	cs
 379 0048 1423     		movcs	r3, #20
 380 004a 1A46     		mov	r2, r3
 381 004c 6F4B     		ldr	r3, .L60+8
 382 004e 0093     		str	r3, [sp]
 383 0050 734B     		ldr	r3, .L60+28
 384 0052 7049     		ldr	r1, .L60+16
 385 0054 51F82220 		ldr	r2, [r1, r2, lsl #2]
 386 0058 6F49     		ldr	r1, .L60+20
 387 005a 8968     		ldr	r1, [r1, #8]
 388 005c 6F48     		ldr	r0, .L60+24
 389              	.LVL38:
 390              		.loc 1 231 13 is_stmt 0 discriminator 3 view .LVU104
 391 005e FFF7FEFF 		bl	osal_printf
 392              	.LVL39:
 393 0062 6CE0     		b	.L31
 394              	.LVL40:
 395              	.L30:
 396              		.loc 1 231 13 discriminator 3 view .LVU105
 397              	.LBE3:
 398              		.loc 1 231 13 is_stmt 1 discriminator 2 view .LVU106
 232:../switch_sdk/core/fal/tiger/fal_tiger_port.c ****         }
 233:../switch_sdk/core/fal/tiger/fal_tiger_port.c **** 
 234:../switch_sdk/core/fal/tiger/fal_tiger_port.c ****         /*vco band init*/
 235:../switch_sdk/core/fal/tiger/fal_tiger_port.c ****         CMM_ERR_CHK(int_phy_ext_reg_read(unit, phyAddr, 0x2e, &phyData), ret);
 399              		.loc 1 235 9 discriminator 2 view .LVU107
 400              		.loc 1 235 9 discriminator 2 view .LVU108
 401 0064 0DF10E03 		add	r3, sp, #14
 402 0068 2E22     		movs	r2, #46
 403 006a 2946     		mov	r1, r5
 404 006c 3046     		mov	r0, r6
 405              	.LVL41:
 406              		.loc 1 235 9 is_stmt 0 discriminator 2 view .LVU109
 407 006e FFF7FEFF 		bl	int_phy_ext_reg_read
 408              	.LVL42:
 409 0072 0446     		mov	r4, r0
 410              	.LVL43:
 411              		.loc 1 235 9 discriminator 2 view .LVU110
 412 0074 10F0FF03 		ands	r3, r0, #255
 413 0078 63D1     		bne	.L48
 414              		.loc 1 235 9 is_stmt 1 discriminator 2 view .LVU111
 236:../switch_sdk/core/fal/tiger/fal_tiger_port.c ****         SET_BIT(phyData, 9);
 415              		.loc 1 236 9 discriminator 2 view .LVU112
 416 007a BDF80E30 		ldrh	r3, [sp, #14]
 417 007e 43F40073 		orr	r3, r3, #512
 418 0082 9BB2     		uxth	r3, r3
 419 0084 ADF80E30 		strh	r3, [sp, #14]	@ movhi
 237:../switch_sdk/core/fal/tiger/fal_tiger_port.c ****         CMM_ERR_CHK(int_phy_ext_reg_write(unit, phyAddr, 0x2e, phyData), ret);
 420              		.loc 1 237 9 discriminator 2 view .LVU113
 421              		.loc 1 237 9 discriminator 2 view .LVU114
 422 0088 2E22     		movs	r2, #46
 423 008a 2946     		mov	r1, r5
 424 008c 3046     		mov	r0, r6
 425              	.LVL44:
 426              		.loc 1 237 9 is_stmt 0 discriminator 2 view .LVU115
 427 008e FFF7FEFF 		bl	int_phy_ext_reg_write
 428              	.LVL45:
 429 0092 0446     		mov	r4, r0
 430              	.LVL46:
 431              		.loc 1 237 9 discriminator 2 view .LVU116
 432 0094 10F0FF03 		ands	r3, r0, #255
 433 0098 69D1     		bne	.L49
 434              		.loc 1 237 9 is_stmt 1 discriminator 2 view .LVU117
 238:../switch_sdk/core/fal/tiger/fal_tiger_port.c **** 
 239:../switch_sdk/core/fal/tiger/fal_tiger_port.c ****         /*serdes as mode */
 240:../switch_sdk/core/fal/tiger/fal_tiger_port.c ****         CMM_ERR_CHK(int_phy_ext_reg_read(unit, phyAddr, 0x1d0, &phyData), ret);
 435              		.loc 1 240 9 discriminator 2 view .LVU118
 436              		.loc 1 240 9 discriminator 2 view .LVU119
 437 009a 0DF10E03 		add	r3, sp, #14
 438 009e 4FF4E872 		mov	r2, #464
 439 00a2 2946     		mov	r1, r5
 440 00a4 3046     		mov	r0, r6
 441              	.LVL47:
 442              		.loc 1 240 9 is_stmt 0 discriminator 2 view .LVU120
 443 00a6 FFF7FEFF 		bl	int_phy_ext_reg_read
 444              	.LVL48:
 445 00aa 0446     		mov	r4, r0
 446              	.LVL49:
 447              		.loc 1 240 9 discriminator 2 view .LVU121
 448 00ac 10F0FF03 		ands	r3, r0, #255
 449 00b0 73D1     		bne	.L50
 450              		.loc 1 240 9 is_stmt 1 discriminator 2 view .LVU122
 241:../switch_sdk/core/fal/tiger/fal_tiger_port.c ****         phyData &= ~(0xff << 0);
 451              		.loc 1 241 9 discriminator 2 view .LVU123
 452              		.loc 1 241 17 is_stmt 0 discriminator 2 view .LVU124
 453 00b2 BDF80E30 		ldrh	r3, [sp, #14]
 454 00b6 03F47F43 		and	r3, r3, #65280
 455 00ba ADF80E30 		strh	r3, [sp, #14]	@ movhi
 242:../switch_sdk/core/fal/tiger/fal_tiger_port.c ****         phyData |= (0x80<<0);
 456              		.loc 1 242 9 is_stmt 1 discriminator 2 view .LVU125
 457              		.loc 1 242 17 is_stmt 0 discriminator 2 view .LVU126
 458 00be 43F08003 		orr	r3, r3, #128
 459 00c2 ADF80E30 		strh	r3, [sp, #14]	@ movhi
 243:../switch_sdk/core/fal/tiger/fal_tiger_port.c ****         CMM_ERR_CHK(int_phy_ext_reg_write(unit, phyAddr, 0x1d0, phyData), ret);
 460              		.loc 1 243 9 is_stmt 1 discriminator 2 view .LVU127
 461              		.loc 1 243 9 discriminator 2 view .LVU128
 462 00c6 4FF4E872 		mov	r2, #464
 463 00ca 2946     		mov	r1, r5
 464 00cc 3046     		mov	r0, r6
 465              	.LVL50:
 466              		.loc 1 243 9 is_stmt 0 discriminator 2 view .LVU129
 467 00ce FFF7FEFF 		bl	int_phy_ext_reg_write
 468              	.LVL51:
 469 00d2 0446     		mov	r4, r0
 470              	.LVL52:
 471              		.loc 1 243 9 discriminator 2 view .LVU130
 472 00d4 10F0FF03 		ands	r3, r0, #255
 473 00d8 75D1     		bne	.L51
 474              		.loc 1 243 9 is_stmt 1 discriminator 2 view .LVU131
 217:../switch_sdk/core/fal/tiger/fal_tiger_port.c ****     {
 475              		.loc 1 217 43 discriminator 2 view .LVU132
 476 00da 0135     		adds	r5, r5, #1
 477              	.LVL53:
 217:../switch_sdk/core/fal/tiger/fal_tiger_port.c ****     {
 478              		.loc 1 217 43 is_stmt 0 discriminator 2 view .LVU133
 479 00dc EDB2     		uxtb	r5, r5
 480              	.LVL54:
 481              	.L26:
 217:../switch_sdk/core/fal/tiger/fal_tiger_port.c ****     {
 482              		.loc 1 217 30 is_stmt 1 discriminator 2 view .LVU134
 483 00de 092D     		cmp	r5, #9
 484 00e0 00F28780 		bhi	.L52
 219:../switch_sdk/core/fal/tiger/fal_tiger_port.c ****         if (CAL_SWCHIP_MODEL(unit) == YT_SW_MODEL_9218)
 485              		.loc 1 219 9 view .LVU135
 219:../switch_sdk/core/fal/tiger/fal_tiger_port.c ****         if (CAL_SWCHIP_MODEL(unit) == YT_SW_MODEL_9218)
 486              		.loc 1 219 9 view .LVU136
 487 00e4 0DF10E03 		add	r3, sp, #14
 488 00e8 A022     		movs	r2, #160
 489 00ea 2946     		mov	r1, r5
 490 00ec 3046     		mov	r0, r6
 491 00ee FFF7FEFF 		bl	int_phy_ext_reg_read
 492              	.LVL55:
 493 00f2 0446     		mov	r4, r0
 494              	.LVL56:
 219:../switch_sdk/core/fal/tiger/fal_tiger_port.c ****         if (CAL_SWCHIP_MODEL(unit) == YT_SW_MODEL_9218)
 495              		.loc 1 219 9 is_stmt 0 view .LVU137
 496 00f4 10F0FF03 		ands	r3, r0, #255
 497 00f8 8CD1     		bne	.L53
 219:../switch_sdk/core/fal/tiger/fal_tiger_port.c ****         if (CAL_SWCHIP_MODEL(unit) == YT_SW_MODEL_9218)
 498              		.loc 1 219 9 is_stmt 1 discriminator 2 view .LVU138
 220:../switch_sdk/core/fal/tiger/fal_tiger_port.c ****         {
 499              		.loc 1 220 9 discriminator 2 view .LVU139
 220:../switch_sdk/core/fal/tiger/fal_tiger_port.c ****         {
 500              		.loc 1 220 13 is_stmt 0 discriminator 2 view .LVU140
 501 00fa 4A4B     		ldr	r3, .L60+32
 502 00fc 53F82630 		ldr	r3, [r3, r6, lsl #2]
 503 0100 9B78     		ldrb	r3, [r3, #2]	@ zero_extendqisi2
 220:../switch_sdk/core/fal/tiger/fal_tiger_port.c ****         {
 504              		.loc 1 220 12 discriminator 2 view .LVU141
 505 0102 012B     		cmp	r3, #1
 506 0104 9CD0     		beq	.L54
 226:../switch_sdk/core/fal/tiger/fal_tiger_port.c ****         }
 507              		.loc 1 226 17 view .LVU142
 508 0106 0E21     		movs	r1, #14
 509              	.L29:
 510              	.LVL57:
 228:../switch_sdk/core/fal/tiger/fal_tiger_port.c ****         {
 511              		.loc 1 228 9 is_stmt 1 view .LVU143
 228:../switch_sdk/core/fal/tiger/fal_tiger_port.c ****         {
 512              		.loc 1 228 13 is_stmt 0 view .LVU144
 513 0108 BDF80E30 		ldrh	r3, [sp, #14]
 514 010c 43FA01F2 		asr	r2, r3, r1
 228:../switch_sdk/core/fal/tiger/fal_tiger_port.c ****         {
 515              		.loc 1 228 12 view .LVU145
 516 0110 12F0010F 		tst	r2, #1
 517 0114 A6D0     		beq	.L30
 230:../switch_sdk/core/fal/tiger/fal_tiger_port.c ****             CMM_ERR_CHK(int_phy_ext_reg_write(unit, phyAddr, 0xa0, phyData), ret);
 518              		.loc 1 230 13 is_stmt 1 view .LVU146
 519 0116 0122     		movs	r2, #1
 520 0118 8A40     		lsls	r2, r2, r1
 521 011a D243     		mvns	r2, r2
 522 011c 12B2     		sxth	r2, r2
 523 011e 1340     		ands	r3, r3, r2
 524 0120 ADF80E30 		strh	r3, [sp, #14]	@ movhi
 231:../switch_sdk/core/fal/tiger/fal_tiger_port.c ****         }
 525              		.loc 1 231 13 view .LVU147
 231:../switch_sdk/core/fal/tiger/fal_tiger_port.c ****         }
 526              		.loc 1 231 13 view .LVU148
 527 0124 A022     		movs	r2, #160
 528 0126 2946     		mov	r1, r5
 529              	.LVL58:
 231:../switch_sdk/core/fal/tiger/fal_tiger_port.c ****         }
 530              		.loc 1 231 13 is_stmt 0 view .LVU149
 531 0128 3046     		mov	r0, r6
 532              	.LVL59:
 231:../switch_sdk/core/fal/tiger/fal_tiger_port.c ****         }
 533              		.loc 1 231 13 view .LVU150
 534 012a FFF7FEFF 		bl	int_phy_ext_reg_write
 535              	.LVL60:
 536 012e 0446     		mov	r4, r0
 537              	.LVL61:
 231:../switch_sdk/core/fal/tiger/fal_tiger_port.c ****         }
 538              		.loc 1 231 13 view .LVU151
 539 0130 10F0FF03 		ands	r3, r0, #255
 540 0134 96D0     		beq	.L30
 231:../switch_sdk/core/fal/tiger/fal_tiger_port.c ****         }
 541              		.loc 1 231 13 is_stmt 1 discriminator 1 view .LVU152
 231:../switch_sdk/core/fal/tiger/fal_tiger_port.c ****         }
 542              		.loc 1 231 13 discriminator 1 view .LVU153
 543 0136 344A     		ldr	r2, .L60+4
 544 0138 1278     		ldrb	r2, [r2]	@ zero_extendqisi2
 545 013a 012A     		cmp	r2, #1
 546 013c 82D8     		bhi	.L55
 547              	.LVL62:
 548              	.L31:
 231:../switch_sdk/core/fal/tiger/fal_tiger_port.c ****         }
 549              		.loc 1 231 13 discriminator 5 view .LVU154
 231:../switch_sdk/core/fal/tiger/fal_tiger_port.c ****         }
 550              		.loc 1 231 13 discriminator 5 view .LVU155
 231:../switch_sdk/core/fal/tiger/fal_tiger_port.c ****         }
 551              		.loc 1 231 13 discriminator 5 view .LVU156
 552 013e E0B2     		uxtb	r0, r4
 553 0140 5BE0     		b	.L24
 554              	.LVL63:
 555              	.L48:
 235:../switch_sdk/core/fal/tiger/fal_tiger_port.c ****         SET_BIT(phyData, 9);
 556              		.loc 1 235 9 discriminator 1 view .LVU157
 235:../switch_sdk/core/fal/tiger/fal_tiger_port.c ****         SET_BIT(phyData, 9);
 557              		.loc 1 235 9 discriminator 1 view .LVU158
 558 0142 314A     		ldr	r2, .L60+4
 559 0144 1278     		ldrb	r2, [r2]	@ zero_extendqisi2
 560 0146 012A     		cmp	r2, #1
 561 0148 01D8     		bhi	.L56
 562              	.LVL64:
 563              	.L33:
 235:../switch_sdk/core/fal/tiger/fal_tiger_port.c ****         SET_BIT(phyData, 9);
 564              		.loc 1 235 9 discriminator 5 view .LVU159
 235:../switch_sdk/core/fal/tiger/fal_tiger_port.c ****         SET_BIT(phyData, 9);
 565              		.loc 1 235 9 discriminator 5 view .LVU160
 235:../switch_sdk/core/fal/tiger/fal_tiger_port.c ****         SET_BIT(phyData, 9);
 566              		.loc 1 235 9 discriminator 5 view .LVU161
 567 014a E0B2     		uxtb	r0, r4
 568 014c 55E0     		b	.L24
 569              	.LVL65:
 570              	.L56:
 235:../switch_sdk/core/fal/tiger/fal_tiger_port.c ****         SET_BIT(phyData, 9);
 571              		.loc 1 235 9 discriminator 3 view .LVU162
 572              	.LBB4:
 235:../switch_sdk/core/fal/tiger/fal_tiger_port.c ****         SET_BIT(phyData, 9);
 573              		.loc 1 235 9 discriminator 3 view .LVU163
 574 014e 142B     		cmp	r3, #20
 575 0150 28BF     		it	cs
 576 0152 1423     		movcs	r3, #20
 577 0154 1A46     		mov	r2, r3
 578 0156 2D4B     		ldr	r3, .L60+8
 579 0158 0093     		str	r3, [sp]
 580 015a 334B     		ldr	r3, .L60+36
 581 015c 2D49     		ldr	r1, .L60+16
 582 015e 51F82220 		ldr	r2, [r1, r2, lsl #2]
 583 0162 2D49     		ldr	r1, .L60+20
 584 0164 8968     		ldr	r1, [r1, #8]
 585 0166 2D48     		ldr	r0, .L60+24
 586              	.LVL66:
 235:../switch_sdk/core/fal/tiger/fal_tiger_port.c ****         SET_BIT(phyData, 9);
 587              		.loc 1 235 9 is_stmt 0 discriminator 3 view .LVU164
 588 0168 FFF7FEFF 		bl	osal_printf
 589              	.LVL67:
 590 016c EDE7     		b	.L33
 591              	.LVL68:
 592              	.L49:
 235:../switch_sdk/core/fal/tiger/fal_tiger_port.c ****         SET_BIT(phyData, 9);
 593              		.loc 1 235 9 discriminator 3 view .LVU165
 594              	.LBE4:
 237:../switch_sdk/core/fal/tiger/fal_tiger_port.c **** 
 595              		.loc 1 237 9 is_stmt 1 discriminator 1 view .LVU166
 237:../switch_sdk/core/fal/tiger/fal_tiger_port.c **** 
 596              		.loc 1 237 9 discriminator 1 view .LVU167
 597 016e 264A     		ldr	r2, .L60+4
 598 0170 1278     		ldrb	r2, [r2]	@ zero_extendqisi2
 599 0172 012A     		cmp	r2, #1
 600 0174 01D8     		bhi	.L57
 601              	.LVL69:
 602              	.L35:
 237:../switch_sdk/core/fal/tiger/fal_tiger_port.c **** 
 603              		.loc 1 237 9 discriminator 5 view .LVU168
 237:../switch_sdk/core/fal/tiger/fal_tiger_port.c **** 
 604              		.loc 1 237 9 discriminator 5 view .LVU169
 237:../switch_sdk/core/fal/tiger/fal_tiger_port.c **** 
 605              		.loc 1 237 9 discriminator 5 view .LVU170
 606 0176 E0B2     		uxtb	r0, r4
 607 0178 3FE0     		b	.L24
 608              	.LVL70:
 609              	.L57:
 237:../switch_sdk/core/fal/tiger/fal_tiger_port.c **** 
 610              		.loc 1 237 9 discriminator 3 view .LVU171
 611              	.LBB5:
 237:../switch_sdk/core/fal/tiger/fal_tiger_port.c **** 
 612              		.loc 1 237 9 discriminator 3 view .LVU172
 613 017a 142B     		cmp	r3, #20
 614 017c 28BF     		it	cs
 615 017e 1423     		movcs	r3, #20
 616 0180 1A46     		mov	r2, r3
 617 0182 224B     		ldr	r3, .L60+8
 618 0184 0093     		str	r3, [sp]
 619 0186 294B     		ldr	r3, .L60+40
 620 0188 2249     		ldr	r1, .L60+16
 621 018a 51F82220 		ldr	r2, [r1, r2, lsl #2]
 622 018e 2249     		ldr	r1, .L60+20
 623 0190 8968     		ldr	r1, [r1, #8]
 624 0192 2248     		ldr	r0, .L60+24
 625              	.LVL71:
 237:../switch_sdk/core/fal/tiger/fal_tiger_port.c **** 
 626              		.loc 1 237 9 is_stmt 0 discriminator 3 view .LVU173
 627 0194 FFF7FEFF 		bl	osal_printf
 628              	.LVL72:
 629 0198 EDE7     		b	.L35
 630              	.LVL73:
 631              	.L50:
 237:../switch_sdk/core/fal/tiger/fal_tiger_port.c **** 
 632              		.loc 1 237 9 discriminator 3 view .LVU174
 633              	.LBE5:
 240:../switch_sdk/core/fal/tiger/fal_tiger_port.c ****         phyData &= ~(0xff << 0);
 634              		.loc 1 240 9 is_stmt 1 discriminator 1 view .LVU175
 240:../switch_sdk/core/fal/tiger/fal_tiger_port.c ****         phyData &= ~(0xff << 0);
 635              		.loc 1 240 9 discriminator 1 view .LVU176
 636 019a 1B4A     		ldr	r2, .L60+4
 637 019c 1278     		ldrb	r2, [r2]	@ zero_extendqisi2
 638 019e 012A     		cmp	r2, #1
 639 01a0 01D8     		bhi	.L58
 640              	.LVL74:
 641              	.L37:
 240:../switch_sdk/core/fal/tiger/fal_tiger_port.c ****         phyData &= ~(0xff << 0);
 642              		.loc 1 240 9 discriminator 5 view .LVU177
 240:../switch_sdk/core/fal/tiger/fal_tiger_port.c ****         phyData &= ~(0xff << 0);
 643              		.loc 1 240 9 discriminator 5 view .LVU178
 240:../switch_sdk/core/fal/tiger/fal_tiger_port.c ****         phyData &= ~(0xff << 0);
 644              		.loc 1 240 9 discriminator 5 view .LVU179
 645 01a2 E0B2     		uxtb	r0, r4
 646 01a4 29E0     		b	.L24
 647              	.LVL75:
 648              	.L58:
 240:../switch_sdk/core/fal/tiger/fal_tiger_port.c ****         phyData &= ~(0xff << 0);
 649              		.loc 1 240 9 discriminator 3 view .LVU180
 650              	.LBB6:
 240:../switch_sdk/core/fal/tiger/fal_tiger_port.c ****         phyData &= ~(0xff << 0);
 651              		.loc 1 240 9 discriminator 3 view .LVU181
 652 01a6 142B     		cmp	r3, #20
 653 01a8 28BF     		it	cs
 654 01aa 1423     		movcs	r3, #20
 655 01ac 1A46     		mov	r2, r3
 656 01ae 174B     		ldr	r3, .L60+8
 657 01b0 0093     		str	r3, [sp]
 658 01b2 1F4B     		ldr	r3, .L60+44
 659 01b4 1749     		ldr	r1, .L60+16
 660 01b6 51F82220 		ldr	r2, [r1, r2, lsl #2]
 661 01ba 1749     		ldr	r1, .L60+20
 662 01bc 8968     		ldr	r1, [r1, #8]
 663 01be 1748     		ldr	r0, .L60+24
 664              	.LVL76:
 240:../switch_sdk/core/fal/tiger/fal_tiger_port.c ****         phyData &= ~(0xff << 0);
 665              		.loc 1 240 9 is_stmt 0 discriminator 3 view .LVU182
 666 01c0 FFF7FEFF 		bl	osal_printf
 667              	.LVL77:
 668 01c4 EDE7     		b	.L37
 669              	.LVL78:
 670              	.L51:
 240:../switch_sdk/core/fal/tiger/fal_tiger_port.c ****         phyData &= ~(0xff << 0);
 671              		.loc 1 240 9 discriminator 3 view .LVU183
 672              	.LBE6:
 673              		.loc 1 243 9 is_stmt 1 discriminator 1 view .LVU184
 674              		.loc 1 243 9 discriminator 1 view .LVU185
 675 01c6 104A     		ldr	r2, .L60+4
 676 01c8 1278     		ldrb	r2, [r2]	@ zero_extendqisi2
 677 01ca 012A     		cmp	r2, #1
 678 01cc 01D8     		bhi	.L59
 679              	.LVL79:
 680              	.L39:
 681              		.loc 1 243 9 discriminator 5 view .LVU186
 682              		.loc 1 243 9 discriminator 5 view .LVU187
 683              		.loc 1 243 9 discriminator 5 view .LVU188
 684 01ce E0B2     		uxtb	r0, r4
 685 01d0 13E0     		b	.L24
 686              	.LVL80:
 687              	.L59:
 688              		.loc 1 243 9 discriminator 3 view .LVU189
 689              	.LBB7:
 690              		.loc 1 243 9 discriminator 3 view .LVU190
 691 01d2 142B     		cmp	r3, #20
 692 01d4 28BF     		it	cs
 693 01d6 1423     		movcs	r3, #20
 694 01d8 1A46     		mov	r2, r3
 695 01da 0C4B     		ldr	r3, .L60+8
 696 01dc 0093     		str	r3, [sp]
 697 01de 154B     		ldr	r3, .L60+48
 698 01e0 0C49     		ldr	r1, .L60+16
 699 01e2 51F82220 		ldr	r2, [r1, r2, lsl #2]
 700 01e6 0C49     		ldr	r1, .L60+20
 701 01e8 8968     		ldr	r1, [r1, #8]
 702 01ea 0C48     		ldr	r0, .L60+24
 703              	.LVL81:
 704              		.loc 1 243 9 is_stmt 0 discriminator 3 view .LVU191
 705 01ec FFF7FEFF 		bl	osal_printf
 706              	.LVL82:
 707 01f0 EDE7     		b	.L39
 708              	.LVL83:
 709              	.L52:
 710              		.loc 1 243 9 discriminator 3 view .LVU192
 711              	.LBE7:
 244:../switch_sdk/core/fal/tiger/fal_tiger_port.c ****     }
 245:../switch_sdk/core/fal/tiger/fal_tiger_port.c **** 
 246:../switch_sdk/core/fal/tiger/fal_tiger_port.c ****     initFlag = 1;
 712              		.loc 1 246 5 is_stmt 1 view .LVU193
 713              		.loc 1 246 14 is_stmt 0 view .LVU194
 714 01f2 044B     		ldr	r3, .L60
 715 01f4 0122     		movs	r2, #1
 716 01f6 1A70     		strb	r2, [r3]
 247:../switch_sdk/core/fal/tiger/fal_tiger_port.c **** 
 248:../switch_sdk/core/fal/tiger/fal_tiger_port.c ****     return CMM_ERR_OK;
 717              		.loc 1 248 5 is_stmt 1 view .LVU195
 718              		.loc 1 248 12 is_stmt 0 view .LVU196
 719 01f8 0020     		movs	r0, #0
 720              	.L24:
 249:../switch_sdk/core/fal/tiger/fal_tiger_port.c **** }
 721              		.loc 1 249 1 view .LVU197
 722 01fa 04B0     		add	sp, sp, #16
 723              		.cfi_def_cfa_offset 16
 724              		@ sp needed
 725 01fc 70BD     		pop	{r4, r5, r6, pc}
 726              	.LVL84:
 727              	.L41:
 728              		.cfi_def_cfa_offset 0
 729              		.cfi_restore 4
 730              		.cfi_restore 5
 731              		.cfi_restore 6
 732              		.cfi_restore 14
 214:../switch_sdk/core/fal/tiger/fal_tiger_port.c ****     }
 733              		.loc 1 214 16 view .LVU198
 734 01fe 0020     		movs	r0, #0
 735              	.LVL85:
 736              		.loc 1 249 1 view .LVU199
 737 0200 7047     		bx	lr
 738              	.L61:
 739 0202 00BF     		.align	2
 740              	.L60:
 741 0204 00000000 		.word	initFlag.36
 742 0208 00000000 		.word	yt_debug_level
 743 020c 00000000 		.word	__FUNCTION__.35
 744 0210 00000000 		.word	.LC0
 745 0214 00000000 		.word	_yt_errmsg
 746 0218 00000000 		.word	_yt_prompt_msg
 747 021c 34000000 		.word	.LC1
 748 0220 4C000000 		.word	.LC2
 749 0224 00000000 		.word	gpSwitchUnit
 750 0228 80000000 		.word	.LC3
 751 022c B4000000 		.word	.LC4
 752 0230 E8000000 		.word	.LC5
 753 0234 20010000 		.word	.LC6
 754              		.cfi_endproc
 755              	.LFE7:
 757              		.section	.rodata.fal_rgmii_strength_set.str1.4,"aMS",%progbits,1
 758              		.align	2
 759              	.LC7:
 760 0000 68616C5F 		.ascii	"hal_mem32_read(unit, (0x80358), &reg_data)\000"
 760      6D656D33 
 760      325F7265 
 760      61642875 
 760      6E69742C 
 761 002b 00       		.align	2
 762              	.LC8:
 763 002c 68616C5F 		.ascii	"hal_mem32_write(unit, (0x80358), reg_data)\000"
 763      6D656D33 
 763      325F7772 
 763      69746528 
 763      756E6974 
 764 0057 00       		.align	2
 765              	.LC9:
 766 0058 68616C5F 		.ascii	"hal_mem32_read(unit, (0x803b0 + (0x4) * index), &re"
 766      6D656D33 
 766      325F7265 
 766      61642875 
 766      6E69742C 
 767 008b 675F6461 		.ascii	"g_data)\000"
 767      74612900 
 768 0093 00       		.align	2
 769              	.LC10:
 770 0094 68616C5F 		.ascii	"hal_mem32_write(unit, (0x803b0 + (0x4) * index), re"
 770      6D656D33 
 770      325F7772 
 770      69746528 
 770      756E6974 
 771 00c7 675F6461 		.ascii	"g_data)\000"
 771      74612900 
 772              		.section	.text.fal_rgmii_strength_set,"ax",%progbits
 773              		.align	1
 774              		.syntax unified
 775              		.thumb
 776              		.thumb_func
 778              	fal_rgmii_strength_set:
 779              	.LVL86:
 780              	.LFB4:
  71:../switch_sdk/core/fal/tiger/fal_tiger_port.c ****     uint32_t reg_data = 0;
 781              		.loc 1 71 1 is_stmt 1 view -0
 782              		.cfi_startproc
 783              		@ args = 0, pretend = 0, frame = 8
 784              		@ frame_needed = 0, uses_anonymous_args = 0
  71:../switch_sdk/core/fal/tiger/fal_tiger_port.c ****     uint32_t reg_data = 0;
 785              		.loc 1 71 1 is_stmt 0 view .LVU201
 786 0000 70B5     		push	{r4, r5, r6, lr}
 787              		.cfi_def_cfa_offset 16
 788              		.cfi_offset 4, -16
 789              		.cfi_offset 5, -12
 790              		.cfi_offset 6, -8
 791              		.cfi_offset 14, -4
 792 0002 84B0     		sub	sp, sp, #16
 793              		.cfi_def_cfa_offset 32
  72:../switch_sdk/core/fal/tiger/fal_tiger_port.c ****     cmm_err_t ret = CMM_ERR_OK;
 794              		.loc 1 72 5 is_stmt 1 view .LVU202
  72:../switch_sdk/core/fal/tiger/fal_tiger_port.c ****     cmm_err_t ret = CMM_ERR_OK;
 795              		.loc 1 72 14 is_stmt 0 view .LVU203
 796 0004 0023     		movs	r3, #0
 797 0006 0393     		str	r3, [sp, #12]
  73:../switch_sdk/core/fal/tiger/fal_tiger_port.c ****     uint32_t index = 0;
 798              		.loc 1 73 5 is_stmt 1 view .LVU204
 799              	.LVL87:
  74:../switch_sdk/core/fal/tiger/fal_tiger_port.c **** 
 800              		.loc 1 74 5 view .LVU205
  76:../switch_sdk/core/fal/tiger/fal_tiger_port.c ****     {
 801              		.loc 1 76 5 view .LVU206
  76:../switch_sdk/core/fal/tiger/fal_tiger_port.c ****     {
 802              		.loc 1 76 8 is_stmt 0 view .LVU207
 803 0008 0029     		cmp	r1, #0
 804 000a 00F01B81 		beq	.L81
 805 000e 0546     		mov	r5, r0
  81:../switch_sdk/core/fal/tiger/fal_tiger_port.c ****     switch(powerLevel)
 806              		.loc 1 81 5 is_stmt 1 view .LVU208
  81:../switch_sdk/core/fal/tiger/fal_tiger_port.c ****     switch(powerLevel)
 807              		.loc 1 81 48 is_stmt 0 view .LVU209
 808 0010 4E1E     		subs	r6, r1, #1
 809 0012 18BF     		it	ne
 810 0014 0126     		movne	r6, #1
 811              	.LVL88:
  82:../switch_sdk/core/fal/tiger/fal_tiger_port.c ****     {
 812              		.loc 1 82 5 is_stmt 1 view .LVU210
 813 0016 A2B1     		cbz	r2, .L64
 814 0018 013A     		subs	r2, r2, #1
 815              	.LVL89:
  82:../switch_sdk/core/fal/tiger/fal_tiger_port.c ****     {
 816              		.loc 1 82 5 is_stmt 0 view .LVU211
 817 001a D2B2     		uxtb	r2, r2
 818 001c 012A     		cmp	r2, #1
 819 001e 00F21481 		bhi	.L85
  96:../switch_sdk/core/fal/tiger/fal_tiger_port.c ****             CLEAR_BIT(reg_data, 9);
 820              		.loc 1 96 13 is_stmt 1 view .LVU212
  96:../switch_sdk/core/fal/tiger/fal_tiger_port.c ****             CLEAR_BIT(reg_data, 9);
 821              		.loc 1 96 13 view .LVU213
 822 0022 03AA     		add	r2, sp, #12
 823 0024 8A49     		ldr	r1, .L94
 824              	.LVL90:
  96:../switch_sdk/core/fal/tiger/fal_tiger_port.c ****             CLEAR_BIT(reg_data, 9);
 825              		.loc 1 96 13 is_stmt 0 view .LVU214
 826 0026 FFF7FEFF 		bl	hal_mem32_read
 827              	.LVL91:
  96:../switch_sdk/core/fal/tiger/fal_tiger_port.c ****             CLEAR_BIT(reg_data, 9);
 828              		.loc 1 96 13 view .LVU215
 829 002a 0446     		mov	r4, r0
 830              	.LVL92:
  96:../switch_sdk/core/fal/tiger/fal_tiger_port.c ****             CLEAR_BIT(reg_data, 9);
 831              		.loc 1 96 13 view .LVU216
 832 002c 10F0FF03 		ands	r3, r0, #255
 833 0030 00F09F80 		beq	.L74
  96:../switch_sdk/core/fal/tiger/fal_tiger_port.c ****             CLEAR_BIT(reg_data, 9);
 834              		.loc 1 96 13 is_stmt 1 discriminator 1 view .LVU217
  96:../switch_sdk/core/fal/tiger/fal_tiger_port.c ****             CLEAR_BIT(reg_data, 9);
 835              		.loc 1 96 13 discriminator 1 view .LVU218
 836 0034 874A     		ldr	r2, .L94+4
 837 0036 1278     		ldrb	r2, [r2]	@ zero_extendqisi2
 838 0038 012A     		cmp	r2, #1
 839 003a 00F28A80 		bhi	.L86
 840              	.LVL93:
 841              	.L75:
  96:../switch_sdk/core/fal/tiger/fal_tiger_port.c ****             CLEAR_BIT(reg_data, 9);
 842              		.loc 1 96 13 discriminator 5 view .LVU219
  96:../switch_sdk/core/fal/tiger/fal_tiger_port.c ****             CLEAR_BIT(reg_data, 9);
 843              		.loc 1 96 13 discriminator 5 view .LVU220
  96:../switch_sdk/core/fal/tiger/fal_tiger_port.c ****             CLEAR_BIT(reg_data, 9);
 844              		.loc 1 96 13 discriminator 5 view .LVU221
 845 003e E0B2     		uxtb	r0, r4
 846 0040 01E1     		b	.L62
 847              	.LVL94:
 848              	.L64:
  85:../switch_sdk/core/fal/tiger/fal_tiger_port.c ****             SET_BIT(reg_data, 9);
 849              		.loc 1 85 13 view .LVU222
  85:../switch_sdk/core/fal/tiger/fal_tiger_port.c ****             SET_BIT(reg_data, 9);
 850              		.loc 1 85 13 view .LVU223
 851 0042 03AA     		add	r2, sp, #12
 852              	.LVL95:
  85:../switch_sdk/core/fal/tiger/fal_tiger_port.c ****             SET_BIT(reg_data, 9);
 853              		.loc 1 85 13 is_stmt 0 view .LVU224
 854 0044 8249     		ldr	r1, .L94
 855              	.LVL96:
  85:../switch_sdk/core/fal/tiger/fal_tiger_port.c ****             SET_BIT(reg_data, 9);
 856              		.loc 1 85 13 view .LVU225
 857 0046 FFF7FEFF 		bl	hal_mem32_read
 858              	.LVL97:
  85:../switch_sdk/core/fal/tiger/fal_tiger_port.c ****             SET_BIT(reg_data, 9);
 859              		.loc 1 85 13 view .LVU226
 860 004a 0446     		mov	r4, r0
 861              	.LVL98:
  85:../switch_sdk/core/fal/tiger/fal_tiger_port.c ****             SET_BIT(reg_data, 9);
 862              		.loc 1 85 13 view .LVU227
 863 004c 10F0FF03 		ands	r3, r0, #255
 864 0050 15D0     		beq	.L66
  85:../switch_sdk/core/fal/tiger/fal_tiger_port.c ****             SET_BIT(reg_data, 9);
 865              		.loc 1 85 13 is_stmt 1 discriminator 1 view .LVU228
  85:../switch_sdk/core/fal/tiger/fal_tiger_port.c ****             SET_BIT(reg_data, 9);
 866              		.loc 1 85 13 discriminator 1 view .LVU229
 867 0052 804A     		ldr	r2, .L94+4
 868 0054 1278     		ldrb	r2, [r2]	@ zero_extendqisi2
 869 0056 012A     		cmp	r2, #1
 870 0058 01D8     		bhi	.L87
 871              	.LVL99:
 872              	.L67:
  85:../switch_sdk/core/fal/tiger/fal_tiger_port.c ****             SET_BIT(reg_data, 9);
 873              		.loc 1 85 13 discriminator 5 view .LVU230
  85:../switch_sdk/core/fal/tiger/fal_tiger_port.c ****             SET_BIT(reg_data, 9);
 874              		.loc 1 85 13 discriminator 5 view .LVU231
  85:../switch_sdk/core/fal/tiger/fal_tiger_port.c ****             SET_BIT(reg_data, 9);
 875              		.loc 1 85 13 discriminator 5 view .LVU232
 876 005a E0B2     		uxtb	r0, r4
 877 005c F3E0     		b	.L62
 878              	.LVL100:
 879              	.L87:
  85:../switch_sdk/core/fal/tiger/fal_tiger_port.c ****             SET_BIT(reg_data, 9);
 880              		.loc 1 85 13 discriminator 3 view .LVU233
 881              	.LBB8:
  85:../switch_sdk/core/fal/tiger/fal_tiger_port.c ****             SET_BIT(reg_data, 9);
 882              		.loc 1 85 13 discriminator 3 view .LVU234
 883 005e 142B     		cmp	r3, #20
 884 0060 28BF     		it	cs
 885 0062 1423     		movcs	r3, #20
 886 0064 1A46     		mov	r2, r3
 887 0066 7C4B     		ldr	r3, .L94+8
 888 0068 0093     		str	r3, [sp]
 889 006a 7C4B     		ldr	r3, .L94+12
 890 006c 7C49     		ldr	r1, .L94+16
 891 006e 51F82220 		ldr	r2, [r1, r2, lsl #2]
 892 0072 7C49     		ldr	r1, .L94+20
 893 0074 8968     		ldr	r1, [r1, #8]
 894 0076 7C48     		ldr	r0, .L94+24
 895              	.LVL101:
  85:../switch_sdk/core/fal/tiger/fal_tiger_port.c ****             SET_BIT(reg_data, 9);
 896              		.loc 1 85 13 is_stmt 0 discriminator 3 view .LVU235
 897 0078 FFF7FEFF 		bl	osal_printf
 898              	.LVL102:
 899 007c EDE7     		b	.L67
 900              	.LVL103:
 901              	.L66:
  85:../switch_sdk/core/fal/tiger/fal_tiger_port.c ****             SET_BIT(reg_data, 9);
 902              		.loc 1 85 13 discriminator 3 view .LVU236
 903              	.LBE8:
  85:../switch_sdk/core/fal/tiger/fal_tiger_port.c ****             SET_BIT(reg_data, 9);
 904              		.loc 1 85 13 is_stmt 1 discriminator 2 view .LVU237
  86:../switch_sdk/core/fal/tiger/fal_tiger_port.c ****             CMM_ERR_CHK(HAL_MEM_DIRECT_WRITE(unit, CHIP_MODE_SEL_REG, reg_data), ret);
 905              		.loc 1 86 13 discriminator 2 view .LVU238
 906 007e 039A     		ldr	r2, [sp, #12]
 907 0080 42F40072 		orr	r2, r2, #512
 908 0084 0392     		str	r2, [sp, #12]
  87:../switch_sdk/core/fal/tiger/fal_tiger_port.c **** 
 909              		.loc 1 87 13 discriminator 2 view .LVU239
  87:../switch_sdk/core/fal/tiger/fal_tiger_port.c **** 
 910              		.loc 1 87 13 discriminator 2 view .LVU240
 911 0086 7249     		ldr	r1, .L94
 912 0088 2846     		mov	r0, r5
 913              	.LVL104:
  87:../switch_sdk/core/fal/tiger/fal_tiger_port.c **** 
 914              		.loc 1 87 13 is_stmt 0 discriminator 2 view .LVU241
 915 008a FFF7FEFF 		bl	hal_mem32_write
 916              	.LVL105:
 917 008e 0446     		mov	r4, r0
 918              	.LVL106:
  87:../switch_sdk/core/fal/tiger/fal_tiger_port.c **** 
 919              		.loc 1 87 13 discriminator 2 view .LVU242
 920 0090 10F0FF03 		ands	r3, r0, #255
 921 0094 15D0     		beq	.L68
  87:../switch_sdk/core/fal/tiger/fal_tiger_port.c **** 
 922              		.loc 1 87 13 is_stmt 1 discriminator 1 view .LVU243
  87:../switch_sdk/core/fal/tiger/fal_tiger_port.c **** 
 923              		.loc 1 87 13 discriminator 1 view .LVU244
 924 0096 6F4A     		ldr	r2, .L94+4
 925 0098 1278     		ldrb	r2, [r2]	@ zero_extendqisi2
 926 009a 012A     		cmp	r2, #1
 927 009c 01D8     		bhi	.L88
 928              	.LVL107:
 929              	.L69:
  87:../switch_sdk/core/fal/tiger/fal_tiger_port.c **** 
 930              		.loc 1 87 13 discriminator 5 view .LVU245
  87:../switch_sdk/core/fal/tiger/fal_tiger_port.c **** 
 931              		.loc 1 87 13 discriminator 5 view .LVU246
  87:../switch_sdk/core/fal/tiger/fal_tiger_port.c **** 
 932              		.loc 1 87 13 discriminator 5 view .LVU247
 933 009e E0B2     		uxtb	r0, r4
 934 00a0 D1E0     		b	.L62
 935              	.LVL108:
 936              	.L88:
  87:../switch_sdk/core/fal/tiger/fal_tiger_port.c **** 
 937              		.loc 1 87 13 discriminator 3 view .LVU248
 938              	.LBB9:
  87:../switch_sdk/core/fal/tiger/fal_tiger_port.c **** 
 939              		.loc 1 87 13 discriminator 3 view .LVU249
 940 00a2 142B     		cmp	r3, #20
 941 00a4 28BF     		it	cs
 942 00a6 1423     		movcs	r3, #20
 943 00a8 1A46     		mov	r2, r3
 944 00aa 6B4B     		ldr	r3, .L94+8
 945 00ac 0093     		str	r3, [sp]
 946 00ae 6F4B     		ldr	r3, .L94+28
 947 00b0 6B49     		ldr	r1, .L94+16
 948 00b2 51F82220 		ldr	r2, [r1, r2, lsl #2]
 949 00b6 6B49     		ldr	r1, .L94+20
 950 00b8 8968     		ldr	r1, [r1, #8]
 951 00ba 6B48     		ldr	r0, .L94+24
 952              	.LVL109:
  87:../switch_sdk/core/fal/tiger/fal_tiger_port.c **** 
 953              		.loc 1 87 13 is_stmt 0 discriminator 3 view .LVU250
 954 00bc FFF7FEFF 		bl	osal_printf
 955              	.LVL110:
 956 00c0 EDE7     		b	.L69
 957              	.LVL111:
 958              	.L68:
  87:../switch_sdk/core/fal/tiger/fal_tiger_port.c **** 
 959              		.loc 1 87 13 discriminator 3 view .LVU251
 960              	.LBE9:
  87:../switch_sdk/core/fal/tiger/fal_tiger_port.c **** 
 961              		.loc 1 87 13 is_stmt 1 discriminator 2 view .LVU252
  89:../switch_sdk/core/fal/tiger/fal_tiger_port.c ****             reg_data &= ~(0x7<<15);
 962              		.loc 1 89 13 discriminator 2 view .LVU253
  89:../switch_sdk/core/fal/tiger/fal_tiger_port.c ****             reg_data &= ~(0x7<<15);
 963              		.loc 1 89 13 discriminator 2 view .LVU254
 964 00c2 06F50036 		add	r6, r6, #131072
 965              	.LVL112:
  89:../switch_sdk/core/fal/tiger/fal_tiger_port.c ****             reg_data &= ~(0x7<<15);
 966              		.loc 1 89 13 is_stmt 0 discriminator 2 view .LVU255
 967 00c6 EC36     		adds	r6, r6, #236
 968              	.LVL113:
  89:../switch_sdk/core/fal/tiger/fal_tiger_port.c ****             reg_data &= ~(0x7<<15);
 969              		.loc 1 89 13 discriminator 2 view .LVU256
 970 00c8 B600     		lsls	r6, r6, #2
 971              	.LVL114:
  89:../switch_sdk/core/fal/tiger/fal_tiger_port.c ****             reg_data &= ~(0x7<<15);
 972              		.loc 1 89 13 discriminator 2 view .LVU257
 973 00ca 03AA     		add	r2, sp, #12
 974 00cc 3146     		mov	r1, r6
 975 00ce 2846     		mov	r0, r5
 976              	.LVL115:
  89:../switch_sdk/core/fal/tiger/fal_tiger_port.c ****             reg_data &= ~(0x7<<15);
 977              		.loc 1 89 13 discriminator 2 view .LVU258
 978 00d0 FFF7FEFF 		bl	hal_mem32_read
 979              	.LVL116:
 980 00d4 0446     		mov	r4, r0
 981              	.LVL117:
  89:../switch_sdk/core/fal/tiger/fal_tiger_port.c ****             reg_data &= ~(0x7<<15);
 982              		.loc 1 89 13 discriminator 2 view .LVU259
 983 00d6 10F0FF03 		ands	r3, r0, #255
 984 00da 15D0     		beq	.L70
  89:../switch_sdk/core/fal/tiger/fal_tiger_port.c ****             reg_data &= ~(0x7<<15);
 985              		.loc 1 89 13 is_stmt 1 discriminator 1 view .LVU260
  89:../switch_sdk/core/fal/tiger/fal_tiger_port.c ****             reg_data &= ~(0x7<<15);
 986              		.loc 1 89 13 discriminator 1 view .LVU261
 987 00dc 5D4A     		ldr	r2, .L94+4
 988 00de 1278     		ldrb	r2, [r2]	@ zero_extendqisi2
 989 00e0 012A     		cmp	r2, #1
 990 00e2 01D8     		bhi	.L89
 991              	.LVL118:
 992              	.L71:
  89:../switch_sdk/core/fal/tiger/fal_tiger_port.c ****             reg_data &= ~(0x7<<15);
 993              		.loc 1 89 13 discriminator 5 view .LVU262
  89:../switch_sdk/core/fal/tiger/fal_tiger_port.c ****             reg_data &= ~(0x7<<15);
 994              		.loc 1 89 13 discriminator 5 view .LVU263
  89:../switch_sdk/core/fal/tiger/fal_tiger_port.c ****             reg_data &= ~(0x7<<15);
 995              		.loc 1 89 13 discriminator 5 view .LVU264
 996 00e4 E0B2     		uxtb	r0, r4
 997 00e6 AEE0     		b	.L62
 998              	.LVL119:
 999              	.L89:
  89:../switch_sdk/core/fal/tiger/fal_tiger_port.c ****             reg_data &= ~(0x7<<15);
 1000              		.loc 1 89 13 discriminator 3 view .LVU265
 1001              	.LBB10:
  89:../switch_sdk/core/fal/tiger/fal_tiger_port.c ****             reg_data &= ~(0x7<<15);
 1002              		.loc 1 89 13 discriminator 3 view .LVU266
 1003 00e8 142B     		cmp	r3, #20
 1004 00ea 28BF     		it	cs
 1005 00ec 1423     		movcs	r3, #20
 1006 00ee 1A46     		mov	r2, r3
 1007 00f0 594B     		ldr	r3, .L94+8
 1008 00f2 0093     		str	r3, [sp]
 1009 00f4 5E4B     		ldr	r3, .L94+32
 1010 00f6 5A49     		ldr	r1, .L94+16
 1011 00f8 51F82220 		ldr	r2, [r1, r2, lsl #2]
 1012 00fc 5949     		ldr	r1, .L94+20
 1013 00fe 8968     		ldr	r1, [r1, #8]
 1014 0100 5948     		ldr	r0, .L94+24
 1015              	.LVL120:
  89:../switch_sdk/core/fal/tiger/fal_tiger_port.c ****             reg_data &= ~(0x7<<15);
 1016              		.loc 1 89 13 is_stmt 0 discriminator 3 view .LVU267
 1017 0102 FFF7FEFF 		bl	osal_printf
 1018              	.LVL121:
 1019 0106 EDE7     		b	.L71
 1020              	.LVL122:
 1021              	.L70:
  89:../switch_sdk/core/fal/tiger/fal_tiger_port.c ****             reg_data &= ~(0x7<<15);
 1022              		.loc 1 89 13 discriminator 3 view .LVU268
 1023              	.LBE10:
  89:../switch_sdk/core/fal/tiger/fal_tiger_port.c ****             reg_data &= ~(0x7<<15);
 1024              		.loc 1 89 13 is_stmt 1 discriminator 2 view .LVU269
  90:../switch_sdk/core/fal/tiger/fal_tiger_port.c ****             reg_data |= (0x4<<15);
 1025              		.loc 1 90 13 discriminator 2 view .LVU270
  90:../switch_sdk/core/fal/tiger/fal_tiger_port.c ****             reg_data |= (0x4<<15);
 1026              		.loc 1 90 22 is_stmt 0 discriminator 2 view .LVU271
 1027 0108 039A     		ldr	r2, [sp, #12]
 1028 010a 22F46032 		bic	r2, r2, #229376
 1029 010e 0392     		str	r2, [sp, #12]
  91:../switch_sdk/core/fal/tiger/fal_tiger_port.c ****             CMM_ERR_CHK(HAL_MEM_DIRECT_WRITE(unit, CHIP_PAD_PART_REG(index), reg_data), ret);
 1030              		.loc 1 91 13 is_stmt 1 discriminator 2 view .LVU272
  91:../switch_sdk/core/fal/tiger/fal_tiger_port.c ****             CMM_ERR_CHK(HAL_MEM_DIRECT_WRITE(unit, CHIP_PAD_PART_REG(index), reg_data), ret);
 1031              		.loc 1 91 22 is_stmt 0 discriminator 2 view .LVU273
 1032 0110 42F40032 		orr	r2, r2, #131072
 1033 0114 0392     		str	r2, [sp, #12]
  92:../switch_sdk/core/fal/tiger/fal_tiger_port.c ****             break;
 1034              		.loc 1 92 13 is_stmt 1 discriminator 2 view .LVU274
  92:../switch_sdk/core/fal/tiger/fal_tiger_port.c ****             break;
 1035              		.loc 1 92 13 discriminator 2 view .LVU275
 1036 0116 3146     		mov	r1, r6
 1037 0118 2846     		mov	r0, r5
 1038              	.LVL123:
  92:../switch_sdk/core/fal/tiger/fal_tiger_port.c ****             break;
 1039              		.loc 1 92 13 is_stmt 0 discriminator 2 view .LVU276
 1040 011a FFF7FEFF 		bl	hal_mem32_write
 1041              	.LVL124:
 1042 011e 0446     		mov	r4, r0
 1043              	.LVL125:
  92:../switch_sdk/core/fal/tiger/fal_tiger_port.c ****             break;
 1044              		.loc 1 92 13 discriminator 2 view .LVU277
 1045 0120 10F0FF00 		ands	r0, r0, #255
 1046              	.LVL126:
  92:../switch_sdk/core/fal/tiger/fal_tiger_port.c ****             break;
 1047              		.loc 1 92 13 discriminator 2 view .LVU278
 1048 0124 00F08F80 		beq	.L62
  92:../switch_sdk/core/fal/tiger/fal_tiger_port.c ****             break;
 1049              		.loc 1 92 13 is_stmt 1 discriminator 1 view .LVU279
  92:../switch_sdk/core/fal/tiger/fal_tiger_port.c ****             break;
 1050              		.loc 1 92 13 discriminator 1 view .LVU280
 1051 0128 4A4B     		ldr	r3, .L94+4
 1052 012a 1B78     		ldrb	r3, [r3]	@ zero_extendqisi2
 1053 012c 012B     		cmp	r3, #1
 1054 012e 01D8     		bhi	.L90
 1055              	.L73:
  92:../switch_sdk/core/fal/tiger/fal_tiger_port.c ****             break;
 1056              		.loc 1 92 13 discriminator 5 view .LVU281
  92:../switch_sdk/core/fal/tiger/fal_tiger_port.c ****             break;
 1057              		.loc 1 92 13 discriminator 5 view .LVU282
  92:../switch_sdk/core/fal/tiger/fal_tiger_port.c ****             break;
 1058              		.loc 1 92 13 discriminator 5 view .LVU283
 1059 0130 E0B2     		uxtb	r0, r4
 1060 0132 88E0     		b	.L62
 1061              	.L90:
  92:../switch_sdk/core/fal/tiger/fal_tiger_port.c ****             break;
 1062              		.loc 1 92 13 discriminator 3 view .LVU284
 1063              	.LBB11:
  92:../switch_sdk/core/fal/tiger/fal_tiger_port.c ****             break;
 1064              		.loc 1 92 13 discriminator 3 view .LVU285
 1065 0134 1428     		cmp	r0, #20
 1066 0136 28BF     		it	cs
 1067 0138 1420     		movcs	r0, #20
 1068 013a 474B     		ldr	r3, .L94+8
 1069 013c 0093     		str	r3, [sp]
 1070 013e 4D4B     		ldr	r3, .L94+36
 1071 0140 474A     		ldr	r2, .L94+16
 1072 0142 52F82020 		ldr	r2, [r2, r0, lsl #2]
 1073 0146 4749     		ldr	r1, .L94+20
 1074 0148 8968     		ldr	r1, [r1, #8]
 1075 014a 4748     		ldr	r0, .L94+24
 1076 014c FFF7FEFF 		bl	osal_printf
 1077              	.LVL127:
 1078 0150 EEE7     		b	.L73
 1079              	.LVL128:
 1080              	.L86:
  92:../switch_sdk/core/fal/tiger/fal_tiger_port.c ****             break;
 1081              		.loc 1 92 13 is_stmt 0 discriminator 3 view .LVU286
 1082              	.LBE11:
  96:../switch_sdk/core/fal/tiger/fal_tiger_port.c ****             CLEAR_BIT(reg_data, 9);
 1083              		.loc 1 96 13 is_stmt 1 discriminator 3 view .LVU287
 1084              	.LBB12:
  96:../switch_sdk/core/fal/tiger/fal_tiger_port.c ****             CLEAR_BIT(reg_data, 9);
 1085              		.loc 1 96 13 discriminator 3 view .LVU288
 1086 0152 142B     		cmp	r3, #20
 1087 0154 28BF     		it	cs
 1088 0156 1423     		movcs	r3, #20
 1089 0158 1A46     		mov	r2, r3
 1090 015a 3F4B     		ldr	r3, .L94+8
 1091 015c 0093     		str	r3, [sp]
 1092 015e 3F4B     		ldr	r3, .L94+12
 1093 0160 3F49     		ldr	r1, .L94+16
 1094 0162 51F82220 		ldr	r2, [r1, r2, lsl #2]
 1095 0166 3F49     		ldr	r1, .L94+20
 1096 0168 8968     		ldr	r1, [r1, #8]
 1097 016a 3F48     		ldr	r0, .L94+24
 1098              	.LVL129:
  96:../switch_sdk/core/fal/tiger/fal_tiger_port.c ****             CLEAR_BIT(reg_data, 9);
 1099              		.loc 1 96 13 is_stmt 0 discriminator 3 view .LVU289
 1100 016c FFF7FEFF 		bl	osal_printf
 1101              	.LVL130:
 1102 0170 65E7     		b	.L75
 1103              	.LVL131:
 1104              	.L74:
  96:../switch_sdk/core/fal/tiger/fal_tiger_port.c ****             CLEAR_BIT(reg_data, 9);
 1105              		.loc 1 96 13 discriminator 3 view .LVU290
 1106              	.LBE12:
  96:../switch_sdk/core/fal/tiger/fal_tiger_port.c ****             CLEAR_BIT(reg_data, 9);
 1107              		.loc 1 96 13 is_stmt 1 discriminator 2 view .LVU291
  97:../switch_sdk/core/fal/tiger/fal_tiger_port.c ****             CMM_ERR_CHK(HAL_MEM_DIRECT_WRITE(unit, CHIP_MODE_SEL_REG, reg_data), ret);
 1108              		.loc 1 97 13 discriminator 2 view .LVU292
 1109 0172 039A     		ldr	r2, [sp, #12]
 1110 0174 22F40072 		bic	r2, r2, #512
 1111 0178 0392     		str	r2, [sp, #12]
  98:../switch_sdk/core/fal/tiger/fal_tiger_port.c **** 
 1112              		.loc 1 98 13 discriminator 2 view .LVU293
  98:../switch_sdk/core/fal/tiger/fal_tiger_port.c **** 
 1113              		.loc 1 98 13 discriminator 2 view .LVU294
 1114 017a 3549     		ldr	r1, .L94
 1115 017c 2846     		mov	r0, r5
 1116              	.LVL132:
  98:../switch_sdk/core/fal/tiger/fal_tiger_port.c **** 
 1117              		.loc 1 98 13 is_stmt 0 discriminator 2 view .LVU295
 1118 017e FFF7FEFF 		bl	hal_mem32_write
 1119              	.LVL133:
 1120 0182 0446     		mov	r4, r0
 1121              	.LVL134:
  98:../switch_sdk/core/fal/tiger/fal_tiger_port.c **** 
 1122              		.loc 1 98 13 discriminator 2 view .LVU296
 1123 0184 10F0FF03 		ands	r3, r0, #255
 1124 0188 15D0     		beq	.L76
  98:../switch_sdk/core/fal/tiger/fal_tiger_port.c **** 
 1125              		.loc 1 98 13 is_stmt 1 discriminator 1 view .LVU297
  98:../switch_sdk/core/fal/tiger/fal_tiger_port.c **** 
 1126              		.loc 1 98 13 discriminator 1 view .LVU298
 1127 018a 324A     		ldr	r2, .L94+4
 1128 018c 1278     		ldrb	r2, [r2]	@ zero_extendqisi2
 1129 018e 012A     		cmp	r2, #1
 1130 0190 01D8     		bhi	.L91
 1131              	.LVL135:
 1132              	.L77:
  98:../switch_sdk/core/fal/tiger/fal_tiger_port.c **** 
 1133              		.loc 1 98 13 discriminator 5 view .LVU299
  98:../switch_sdk/core/fal/tiger/fal_tiger_port.c **** 
 1134              		.loc 1 98 13 discriminator 5 view .LVU300
  98:../switch_sdk/core/fal/tiger/fal_tiger_port.c **** 
 1135              		.loc 1 98 13 discriminator 5 view .LVU301
 1136 0192 E0B2     		uxtb	r0, r4
 1137 0194 57E0     		b	.L62
 1138              	.LVL136:
 1139              	.L91:
  98:../switch_sdk/core/fal/tiger/fal_tiger_port.c **** 
 1140              		.loc 1 98 13 discriminator 3 view .LVU302
 1141              	.LBB13:
  98:../switch_sdk/core/fal/tiger/fal_tiger_port.c **** 
 1142              		.loc 1 98 13 discriminator 3 view .LVU303
 1143 0196 142B     		cmp	r3, #20
 1144 0198 28BF     		it	cs
 1145 019a 1423     		movcs	r3, #20
 1146 019c 1A46     		mov	r2, r3
 1147 019e 2E4B     		ldr	r3, .L94+8
 1148 01a0 0093     		str	r3, [sp]
 1149 01a2 324B     		ldr	r3, .L94+28
 1150 01a4 2E49     		ldr	r1, .L94+16
 1151 01a6 51F82220 		ldr	r2, [r1, r2, lsl #2]
 1152 01aa 2E49     		ldr	r1, .L94+20
 1153 01ac 8968     		ldr	r1, [r1, #8]
 1154 01ae 2E48     		ldr	r0, .L94+24
 1155              	.LVL137:
  98:../switch_sdk/core/fal/tiger/fal_tiger_port.c **** 
 1156              		.loc 1 98 13 is_stmt 0 discriminator 3 view .LVU304
 1157 01b0 FFF7FEFF 		bl	osal_printf
 1158              	.LVL138:
 1159 01b4 EDE7     		b	.L77
 1160              	.LVL139:
 1161              	.L76:
  98:../switch_sdk/core/fal/tiger/fal_tiger_port.c **** 
 1162              		.loc 1 98 13 discriminator 3 view .LVU305
 1163              	.LBE13:
  98:../switch_sdk/core/fal/tiger/fal_tiger_port.c **** 
 1164              		.loc 1 98 13 is_stmt 1 discriminator 2 view .LVU306
 100:../switch_sdk/core/fal/tiger/fal_tiger_port.c ****             reg_data &= ~(0x7<<15);
 1165              		.loc 1 100 13 discriminator 2 view .LVU307
 100:../switch_sdk/core/fal/tiger/fal_tiger_port.c ****             reg_data &= ~(0x7<<15);
 1166              		.loc 1 100 13 discriminator 2 view .LVU308
 1167 01b6 06F50036 		add	r6, r6, #131072
 1168              	.LVL140:
 100:../switch_sdk/core/fal/tiger/fal_tiger_port.c ****             reg_data &= ~(0x7<<15);
 1169              		.loc 1 100 13 is_stmt 0 discriminator 2 view .LVU309
 1170 01ba EC36     		adds	r6, r6, #236
 1171              	.LVL141:
 100:../switch_sdk/core/fal/tiger/fal_tiger_port.c ****             reg_data &= ~(0x7<<15);
 1172              		.loc 1 100 13 discriminator 2 view .LVU310
 1173 01bc B600     		lsls	r6, r6, #2
 1174              	.LVL142:
 100:../switch_sdk/core/fal/tiger/fal_tiger_port.c ****             reg_data &= ~(0x7<<15);
 1175              		.loc 1 100 13 discriminator 2 view .LVU311
 1176 01be 03AA     		add	r2, sp, #12
 1177 01c0 3146     		mov	r1, r6
 1178 01c2 2846     		mov	r0, r5
 1179              	.LVL143:
 100:../switch_sdk/core/fal/tiger/fal_tiger_port.c ****             reg_data &= ~(0x7<<15);
 1180              		.loc 1 100 13 discriminator 2 view .LVU312
 1181 01c4 FFF7FEFF 		bl	hal_mem32_read
 1182              	.LVL144:
 1183 01c8 0446     		mov	r4, r0
 1184              	.LVL145:
 100:../switch_sdk/core/fal/tiger/fal_tiger_port.c ****             reg_data &= ~(0x7<<15);
 1185              		.loc 1 100 13 discriminator 2 view .LVU313
 1186 01ca 10F0FF03 		ands	r3, r0, #255
 1187 01ce 15D0     		beq	.L78
 100:../switch_sdk/core/fal/tiger/fal_tiger_port.c ****             reg_data &= ~(0x7<<15);
 1188              		.loc 1 100 13 is_stmt 1 discriminator 1 view .LVU314
 100:../switch_sdk/core/fal/tiger/fal_tiger_port.c ****             reg_data &= ~(0x7<<15);
 1189              		.loc 1 100 13 discriminator 1 view .LVU315
 1190 01d0 204A     		ldr	r2, .L94+4
 1191 01d2 1278     		ldrb	r2, [r2]	@ zero_extendqisi2
 1192 01d4 012A     		cmp	r2, #1
 1193 01d6 01D8     		bhi	.L92
 1194              	.LVL146:
 1195              	.L79:
 100:../switch_sdk/core/fal/tiger/fal_tiger_port.c ****             reg_data &= ~(0x7<<15);
 1196              		.loc 1 100 13 discriminator 5 view .LVU316
 100:../switch_sdk/core/fal/tiger/fal_tiger_port.c ****             reg_data &= ~(0x7<<15);
 1197              		.loc 1 100 13 discriminator 5 view .LVU317
 100:../switch_sdk/core/fal/tiger/fal_tiger_port.c ****             reg_data &= ~(0x7<<15);
 1198              		.loc 1 100 13 discriminator 5 view .LVU318
 1199 01d8 E0B2     		uxtb	r0, r4
 1200 01da 34E0     		b	.L62
 1201              	.LVL147:
 1202              	.L92:
 100:../switch_sdk/core/fal/tiger/fal_tiger_port.c ****             reg_data &= ~(0x7<<15);
 1203              		.loc 1 100 13 discriminator 3 view .LVU319
 1204              	.LBB14:
 100:../switch_sdk/core/fal/tiger/fal_tiger_port.c ****             reg_data &= ~(0x7<<15);
 1205              		.loc 1 100 13 discriminator 3 view .LVU320
 1206 01dc 142B     		cmp	r3, #20
 1207 01de 28BF     		it	cs
 1208 01e0 1423     		movcs	r3, #20
 1209 01e2 1A46     		mov	r2, r3
 1210 01e4 1C4B     		ldr	r3, .L94+8
 1211 01e6 0093     		str	r3, [sp]
 1212 01e8 214B     		ldr	r3, .L94+32
 1213 01ea 1D49     		ldr	r1, .L94+16
 1214 01ec 51F82220 		ldr	r2, [r1, r2, lsl #2]
 1215 01f0 1C49     		ldr	r1, .L94+20
 1216 01f2 8968     		ldr	r1, [r1, #8]
 1217 01f4 1C48     		ldr	r0, .L94+24
 1218              	.LVL148:
 100:../switch_sdk/core/fal/tiger/fal_tiger_port.c ****             reg_data &= ~(0x7<<15);
 1219              		.loc 1 100 13 is_stmt 0 discriminator 3 view .LVU321
 1220 01f6 FFF7FEFF 		bl	osal_printf
 1221              	.LVL149:
 1222 01fa EDE7     		b	.L79
 1223              	.LVL150:
 1224              	.L78:
 100:../switch_sdk/core/fal/tiger/fal_tiger_port.c ****             reg_data &= ~(0x7<<15);
 1225              		.loc 1 100 13 discriminator 3 view .LVU322
 1226              	.LBE14:
 100:../switch_sdk/core/fal/tiger/fal_tiger_port.c ****             reg_data &= ~(0x7<<15);
 1227              		.loc 1 100 13 is_stmt 1 discriminator 2 view .LVU323
 101:../switch_sdk/core/fal/tiger/fal_tiger_port.c ****             reg_data |= (0x3<<15);
 1228              		.loc 1 101 13 discriminator 2 view .LVU324
 101:../switch_sdk/core/fal/tiger/fal_tiger_port.c ****             reg_data |= (0x3<<15);
 1229              		.loc 1 101 22 is_stmt 0 discriminator 2 view .LVU325
 1230 01fc 039A     		ldr	r2, [sp, #12]
 1231 01fe 22F46032 		bic	r2, r2, #229376
 1232 0202 0392     		str	r2, [sp, #12]
 102:../switch_sdk/core/fal/tiger/fal_tiger_port.c ****             CMM_ERR_CHK(HAL_MEM_DIRECT_WRITE(unit, CHIP_PAD_PART_REG(index), reg_data), ret);
 1233              		.loc 1 102 13 is_stmt 1 discriminator 2 view .LVU326
 102:../switch_sdk/core/fal/tiger/fal_tiger_port.c ****             CMM_ERR_CHK(HAL_MEM_DIRECT_WRITE(unit, CHIP_PAD_PART_REG(index), reg_data), ret);
 1234              		.loc 1 102 22 is_stmt 0 discriminator 2 view .LVU327
 1235 0204 42F4C032 		orr	r2, r2, #98304
 1236 0208 0392     		str	r2, [sp, #12]
 103:../switch_sdk/core/fal/tiger/fal_tiger_port.c ****             break;
 1237              		.loc 1 103 13 is_stmt 1 discriminator 2 view .LVU328
 103:../switch_sdk/core/fal/tiger/fal_tiger_port.c ****             break;
 1238              		.loc 1 103 13 discriminator 2 view .LVU329
 1239 020a 3146     		mov	r1, r6
 1240 020c 2846     		mov	r0, r5
 1241              	.LVL151:
 103:../switch_sdk/core/fal/tiger/fal_tiger_port.c ****             break;
 1242              		.loc 1 103 13 is_stmt 0 discriminator 2 view .LVU330
 1243 020e FFF7FEFF 		bl	hal_mem32_write
 1244              	.LVL152:
 1245 0212 0446     		mov	r4, r0
 1246              	.LVL153:
 103:../switch_sdk/core/fal/tiger/fal_tiger_port.c ****             break;
 1247              		.loc 1 103 13 discriminator 2 view .LVU331
 1248 0214 10F0FF00 		ands	r0, r0, #255
 1249              	.LVL154:
 103:../switch_sdk/core/fal/tiger/fal_tiger_port.c ****             break;
 1250              		.loc 1 103 13 discriminator 2 view .LVU332
 1251 0218 15D0     		beq	.L62
 103:../switch_sdk/core/fal/tiger/fal_tiger_port.c ****             break;
 1252              		.loc 1 103 13 is_stmt 1 discriminator 1 view .LVU333
 103:../switch_sdk/core/fal/tiger/fal_tiger_port.c ****             break;
 1253              		.loc 1 103 13 discriminator 1 view .LVU334
 1254 021a 0E4B     		ldr	r3, .L94+4
 1255 021c 1B78     		ldrb	r3, [r3]	@ zero_extendqisi2
 1256 021e 012B     		cmp	r3, #1
 1257 0220 01D8     		bhi	.L93
 1258              	.L80:
 103:../switch_sdk/core/fal/tiger/fal_tiger_port.c ****             break;
 1259              		.loc 1 103 13 discriminator 5 view .LVU335
 103:../switch_sdk/core/fal/tiger/fal_tiger_port.c ****             break;
 1260              		.loc 1 103 13 discriminator 5 view .LVU336
 103:../switch_sdk/core/fal/tiger/fal_tiger_port.c ****             break;
 1261              		.loc 1 103 13 discriminator 5 view .LVU337
 1262 0222 E0B2     		uxtb	r0, r4
 1263 0224 0FE0     		b	.L62
 1264              	.L93:
 103:../switch_sdk/core/fal/tiger/fal_tiger_port.c ****             break;
 1265              		.loc 1 103 13 discriminator 3 view .LVU338
 1266              	.LBB15:
 103:../switch_sdk/core/fal/tiger/fal_tiger_port.c ****             break;
 1267              		.loc 1 103 13 discriminator 3 view .LVU339
 1268 0226 1428     		cmp	r0, #20
 1269 0228 28BF     		it	cs
 1270 022a 1420     		movcs	r0, #20
 1271 022c 0A4B     		ldr	r3, .L94+8
 1272 022e 0093     		str	r3, [sp]
 1273 0230 104B     		ldr	r3, .L94+36
 1274 0232 0B4A     		ldr	r2, .L94+16
 1275 0234 52F82020 		ldr	r2, [r2, r0, lsl #2]
 1276 0238 0A49     		ldr	r1, .L94+20
 1277 023a 8968     		ldr	r1, [r1, #8]
 1278 023c 0A48     		ldr	r0, .L94+24
 1279 023e FFF7FEFF 		bl	osal_printf
 1280              	.LVL155:
 1281 0242 EEE7     		b	.L80
 1282              	.LVL156:
 1283              	.L81:
 103:../switch_sdk/core/fal/tiger/fal_tiger_port.c ****             break;
 1284              		.loc 1 103 13 is_stmt 0 discriminator 3 view .LVU340
 1285              	.LBE15:
  78:../switch_sdk/core/fal/tiger/fal_tiger_port.c ****     }
 1286              		.loc 1 78 16 view .LVU341
 1287 0244 0020     		movs	r0, #0
 1288              	.LVL157:
 1289              	.L62:
 109:../switch_sdk/core/fal/tiger/fal_tiger_port.c **** 
 1290              		.loc 1 109 1 view .LVU342
 1291 0246 04B0     		add	sp, sp, #16
 1292              		.cfi_remember_state
 1293              		.cfi_def_cfa_offset 16
 1294              		@ sp needed
 1295 0248 70BD     		pop	{r4, r5, r6, pc}
 1296              	.LVL158:
 1297              	.L85:
 1298              		.cfi_restore_state
  82:../switch_sdk/core/fal/tiger/fal_tiger_port.c ****     {
 1299              		.loc 1 82 5 view .LVU343
 1300 024a 0320     		movs	r0, #3
 1301              	.LVL159:
  82:../switch_sdk/core/fal/tiger/fal_tiger_port.c ****     {
 1302              		.loc 1 82 5 view .LVU344
 1303 024c FBE7     		b	.L62
 1304              	.L95:
 1305 024e 00BF     		.align	2
 1306              	.L94:
 1307 0250 58030800 		.word	525144
 1308 0254 00000000 		.word	yt_debug_level
 1309 0258 00000000 		.word	__FUNCTION__.2
 1310 025c 00000000 		.word	.LC7
 1311 0260 00000000 		.word	_yt_errmsg
 1312 0264 00000000 		.word	_yt_prompt_msg
 1313 0268 34000000 		.word	.LC1
 1314 026c 2C000000 		.word	.LC8
 1315 0270 58000000 		.word	.LC9
 1316 0274 94000000 		.word	.LC10
 1317              		.cfi_endproc
 1318              	.LFE4:
 1320              		.section	.rodata.fal_rgmii_vbias_set.str1.4,"aMS",%progbits,1
 1321              		.align	2
 1322              	.LC11:
 1323 0000 68616C5F 		.ascii	"hal_mem32_read(unit, (0x8d01c), &reg_data)\000"
 1323      6D656D33 
 1323      325F7265 
 1323      61642875 
 1323      6E69742C 
 1324 002b 00       		.align	2
 1325              	.LC12:
 1326 002c 68616C5F 		.ascii	"hal_mem32_write(unit, (0x8d01c), reg_data)\000"
 1326      6D656D33 
 1326      325F7772 
 1326      69746528 
 1326      756E6974 
 1327              		.section	.text.fal_rgmii_vbias_set,"ax",%progbits
 1328              		.align	1
 1329              		.syntax unified
 1330              		.thumb
 1331              		.thumb_func
 1333              	fal_rgmii_vbias_set:
 1334              	.LVL160:
 1335              	.LFB5:
 112:../switch_sdk/core/fal/tiger/fal_tiger_port.c ****     uint32_t reg_data = 0;
 1336              		.loc 1 112 1 is_stmt 1 view -0
 1337              		.cfi_startproc
 1338              		@ args = 0, pretend = 0, frame = 8
 1339              		@ frame_needed = 0, uses_anonymous_args = 0
 112:../switch_sdk/core/fal/tiger/fal_tiger_port.c ****     uint32_t reg_data = 0;
 1340              		.loc 1 112 1 is_stmt 0 view .LVU346
 1341 0000 70B5     		push	{r4, r5, r6, lr}
 1342              		.cfi_def_cfa_offset 16
 1343              		.cfi_offset 4, -16
 1344              		.cfi_offset 5, -12
 1345              		.cfi_offset 6, -8
 1346              		.cfi_offset 14, -4
 1347 0002 84B0     		sub	sp, sp, #16
 1348              		.cfi_def_cfa_offset 32
 113:../switch_sdk/core/fal/tiger/fal_tiger_port.c ****     cmm_err_t ret = CMM_ERR_OK;
 1349              		.loc 1 113 5 is_stmt 1 view .LVU347
 113:../switch_sdk/core/fal/tiger/fal_tiger_port.c ****     cmm_err_t ret = CMM_ERR_OK;
 1350              		.loc 1 113 14 is_stmt 0 view .LVU348
 1351 0004 0023     		movs	r3, #0
 1352 0006 0393     		str	r3, [sp, #12]
 114:../switch_sdk/core/fal/tiger/fal_tiger_port.c ****     uint32_t index = 0;
 1353              		.loc 1 114 5 is_stmt 1 view .LVU349
 1354              	.LVL161:
 115:../switch_sdk/core/fal/tiger/fal_tiger_port.c **** 
 1355              		.loc 1 115 5 view .LVU350
 117:../switch_sdk/core/fal/tiger/fal_tiger_port.c ****     {
 1356              		.loc 1 117 5 view .LVU351
 117:../switch_sdk/core/fal/tiger/fal_tiger_port.c ****     {
 1357              		.loc 1 117 8 is_stmt 0 view .LVU352
 1358 0008 0029     		cmp	r1, #0
 1359 000a 00F0A480 		beq	.L109
 1360 000e 0446     		mov	r4, r0
 1361 0010 0846     		mov	r0, r1
 1362              	.LVL162:
 122:../switch_sdk/core/fal/tiger/fal_tiger_port.c ****            CAL_SWCHIP_MODEL(unit) == YT_SW_MODEL_9215)
 1363              		.loc 1 122 5 is_stmt 1 view .LVU353
 122:../switch_sdk/core/fal/tiger/fal_tiger_port.c ****            CAL_SWCHIP_MODEL(unit) == YT_SW_MODEL_9215)
 1364              		.loc 1 122 10 is_stmt 0 view .LVU354
 1365 0012 544B     		ldr	r3, .L121
 1366 0014 53F82430 		ldr	r3, [r3, r4, lsl #2]
 1367 0018 9B78     		ldrb	r3, [r3, #2]	@ zero_extendqisi2
 122:../switch_sdk/core/fal/tiger/fal_tiger_port.c ****            CAL_SWCHIP_MODEL(unit) == YT_SW_MODEL_9215)
 1368              		.loc 1 122 8 view .LVU355
 1369 001a 012B     		cmp	r3, #1
 1370 001c 08D0     		beq	.L115
 1371              	.L98:
 122:../switch_sdk/core/fal/tiger/fal_tiger_port.c ****            CAL_SWCHIP_MODEL(unit) == YT_SW_MODEL_9215)
 1372              		.loc 1 122 86 discriminator 3 view .LVU356
 1373 001e 5BB1     		cbz	r3, .L111
 127:../switch_sdk/core/fal/tiger/fal_tiger_port.c ****     {
 1374              		.loc 1 127 10 is_stmt 1 view .LVU357
 127:../switch_sdk/core/fal/tiger/fal_tiger_port.c ****     {
 1375              		.loc 1 127 13 is_stmt 0 view .LVU358
 1376 0020 012B     		cmp	r3, #1
 1377 0022 40F09B80 		bne	.L112
 127:../switch_sdk/core/fal/tiger/fal_tiger_port.c ****     {
 1378              		.loc 1 127 57 discriminator 1 view .LVU359
 1379 0026 0228     		cmp	r0, #2
 1380 0028 40F09A80 		bne	.L113
 129:../switch_sdk/core/fal/tiger/fal_tiger_port.c ****     }
 1381              		.loc 1 129 15 view .LVU360
 1382 002c 0326     		movs	r6, #3
 1383 002e 04E0     		b	.L99
 1384              	.L115:
 122:../switch_sdk/core/fal/tiger/fal_tiger_port.c ****            CAL_SWCHIP_MODEL(unit) == YT_SW_MODEL_9215)
 1385              		.loc 1 122 53 discriminator 1 view .LVU361
 1386 0030 0129     		cmp	r1, #1
 1387 0032 F4D1     		bne	.L98
 125:../switch_sdk/core/fal/tiger/fal_tiger_port.c ****     }
 1388              		.loc 1 125 15 view .LVU362
 1389 0034 0126     		movs	r6, #1
 1390 0036 00E0     		b	.L99
 1391              	.L111:
 1392 0038 0126     		movs	r6, #1
 1393              	.L99:
 1394              	.LVL163:
 135:../switch_sdk/core/fal/tiger/fal_tiger_port.c ****     {
 1395              		.loc 1 135 5 is_stmt 1 view .LVU363
 1396 003a 012A     		cmp	r2, #1
 1397 003c 12D9     		bls	.L100
 1398 003e 022A     		cmp	r2, #2
 1399 0040 0ED1     		bne	.L116
 144:../switch_sdk/core/fal/tiger/fal_tiger_port.c ****             reg_data &= ~(0x3<<index);
 1400              		.loc 1 144 13 view .LVU364
 144:../switch_sdk/core/fal/tiger/fal_tiger_port.c ****             reg_data &= ~(0x3<<index);
 1401              		.loc 1 144 13 view .LVU365
 1402 0042 03AA     		add	r2, sp, #12
 1403              	.LVL164:
 144:../switch_sdk/core/fal/tiger/fal_tiger_port.c ****             reg_data &= ~(0x3<<index);
 1404              		.loc 1 144 13 is_stmt 0 view .LVU366
 1405 0044 4849     		ldr	r1, .L121+4
 1406              	.LVL165:
 144:../switch_sdk/core/fal/tiger/fal_tiger_port.c ****             reg_data &= ~(0x3<<index);
 1407              		.loc 1 144 13 view .LVU367
 1408 0046 2046     		mov	r0, r4
 1409 0048 FFF7FEFF 		bl	hal_mem32_read
 1410              	.LVL166:
 1411 004c 0546     		mov	r5, r0
 1412              	.LVL167:
 144:../switch_sdk/core/fal/tiger/fal_tiger_port.c ****             reg_data &= ~(0x3<<index);
 1413              		.loc 1 144 13 view .LVU368
 1414 004e 10F0FF03 		ands	r3, r0, #255
 1415 0052 59D0     		beq	.L106
 144:../switch_sdk/core/fal/tiger/fal_tiger_port.c ****             reg_data &= ~(0x3<<index);
 1416              		.loc 1 144 13 is_stmt 1 discriminator 1 view .LVU369
 144:../switch_sdk/core/fal/tiger/fal_tiger_port.c ****             reg_data &= ~(0x3<<index);
 1417              		.loc 1 144 13 discriminator 1 view .LVU370
 1418 0054 454A     		ldr	r2, .L121+8
 1419 0056 1278     		ldrb	r2, [r2]	@ zero_extendqisi2
 1420 0058 012A     		cmp	r2, #1
 1421 005a 45D8     		bhi	.L117
 1422              	.LVL168:
 1423              	.L107:
 144:../switch_sdk/core/fal/tiger/fal_tiger_port.c ****             reg_data &= ~(0x3<<index);
 1424              		.loc 1 144 13 discriminator 5 view .LVU371
 144:../switch_sdk/core/fal/tiger/fal_tiger_port.c ****             reg_data &= ~(0x3<<index);
 1425              		.loc 1 144 13 discriminator 5 view .LVU372
 144:../switch_sdk/core/fal/tiger/fal_tiger_port.c ****             reg_data &= ~(0x3<<index);
 1426              		.loc 1 144 13 discriminator 5 view .LVU373
 1427 005c E8B2     		uxtb	r0, r5
 1428 005e 7BE0     		b	.L96
 1429              	.LVL169:
 1430              	.L116:
 135:../switch_sdk/core/fal/tiger/fal_tiger_port.c ****     {
 1431              		.loc 1 135 5 is_stmt 0 view .LVU374
 1432 0060 0320     		movs	r0, #3
 1433 0062 79E0     		b	.L96
 1434              	.L100:
 139:../switch_sdk/core/fal/tiger/fal_tiger_port.c ****             reg_data &= ~(0x3<<index);
 1435              		.loc 1 139 13 is_stmt 1 view .LVU375
 139:../switch_sdk/core/fal/tiger/fal_tiger_port.c ****             reg_data &= ~(0x3<<index);
 1436              		.loc 1 139 13 view .LVU376
 1437 0064 03AA     		add	r2, sp, #12
 1438              	.LVL170:
 139:../switch_sdk/core/fal/tiger/fal_tiger_port.c ****             reg_data &= ~(0x3<<index);
 1439              		.loc 1 139 13 is_stmt 0 view .LVU377
 1440 0066 4049     		ldr	r1, .L121+4
 1441              	.LVL171:
 139:../switch_sdk/core/fal/tiger/fal_tiger_port.c ****             reg_data &= ~(0x3<<index);
 1442              		.loc 1 139 13 view .LVU378
 1443 0068 2046     		mov	r0, r4
 1444 006a FFF7FEFF 		bl	hal_mem32_read
 1445              	.LVL172:
 1446 006e 0546     		mov	r5, r0
 1447              	.LVL173:
 139:../switch_sdk/core/fal/tiger/fal_tiger_port.c ****             reg_data &= ~(0x3<<index);
 1448              		.loc 1 139 13 view .LVU379
 1449 0070 10F0FF03 		ands	r3, r0, #255
 1450 0074 15D0     		beq	.L102
 139:../switch_sdk/core/fal/tiger/fal_tiger_port.c ****             reg_data &= ~(0x3<<index);
 1451              		.loc 1 139 13 is_stmt 1 discriminator 1 view .LVU380
 139:../switch_sdk/core/fal/tiger/fal_tiger_port.c ****             reg_data &= ~(0x3<<index);
 1452              		.loc 1 139 13 discriminator 1 view .LVU381
 1453 0076 3D4A     		ldr	r2, .L121+8
 1454 0078 1278     		ldrb	r2, [r2]	@ zero_extendqisi2
 1455 007a 012A     		cmp	r2, #1
 1456 007c 01D8     		bhi	.L118
 1457              	.LVL174:
 1458              	.L103:
 139:../switch_sdk/core/fal/tiger/fal_tiger_port.c ****             reg_data &= ~(0x3<<index);
 1459              		.loc 1 139 13 discriminator 5 view .LVU382
 139:../switch_sdk/core/fal/tiger/fal_tiger_port.c ****             reg_data &= ~(0x3<<index);
 1460              		.loc 1 139 13 discriminator 5 view .LVU383
 139:../switch_sdk/core/fal/tiger/fal_tiger_port.c ****             reg_data &= ~(0x3<<index);
 1461              		.loc 1 139 13 discriminator 5 view .LVU384
 1462 007e E8B2     		uxtb	r0, r5
 1463 0080 6AE0     		b	.L96
 1464              	.LVL175:
 1465              	.L118:
 139:../switch_sdk/core/fal/tiger/fal_tiger_port.c ****             reg_data &= ~(0x3<<index);
 1466              		.loc 1 139 13 discriminator 3 view .LVU385
 1467              	.LBB16:
 139:../switch_sdk/core/fal/tiger/fal_tiger_port.c ****             reg_data &= ~(0x3<<index);
 1468              		.loc 1 139 13 discriminator 3 view .LVU386
 1469 0082 142B     		cmp	r3, #20
 1470 0084 28BF     		it	cs
 1471 0086 1423     		movcs	r3, #20
 1472 0088 1A46     		mov	r2, r3
 1473 008a 394B     		ldr	r3, .L121+12
 1474 008c 0093     		str	r3, [sp]
 1475 008e 394B     		ldr	r3, .L121+16
 1476 0090 3949     		ldr	r1, .L121+20
 1477 0092 51F82220 		ldr	r2, [r1, r2, lsl #2]
 1478 0096 3949     		ldr	r1, .L121+24
 1479 0098 8968     		ldr	r1, [r1, #8]
 1480 009a 3948     		ldr	r0, .L121+28
 1481              	.LVL176:
 139:../switch_sdk/core/fal/tiger/fal_tiger_port.c ****             reg_data &= ~(0x3<<index);
 1482              		.loc 1 139 13 is_stmt 0 discriminator 3 view .LVU387
 1483 009c FFF7FEFF 		bl	osal_printf
 1484              	.LVL177:
 1485 00a0 EDE7     		b	.L103
 1486              	.LVL178:
 1487              	.L102:
 139:../switch_sdk/core/fal/tiger/fal_tiger_port.c ****             reg_data &= ~(0x3<<index);
 1488              		.loc 1 139 13 discriminator 3 view .LVU388
 1489              	.LBE16:
 139:../switch_sdk/core/fal/tiger/fal_tiger_port.c ****             reg_data &= ~(0x3<<index);
 1490              		.loc 1 139 13 is_stmt 1 discriminator 2 view .LVU389
 140:../switch_sdk/core/fal/tiger/fal_tiger_port.c ****             CMM_ERR_CHK(HAL_MEM_DIRECT_WRITE(unit, CHIP_DCC_CALIB_CLK_SEL_REG, reg_data), ret);
 1491              		.loc 1 140 13 discriminator 2 view .LVU390
 140:../switch_sdk/core/fal/tiger/fal_tiger_port.c ****             CMM_ERR_CHK(HAL_MEM_DIRECT_WRITE(unit, CHIP_DCC_CALIB_CLK_SEL_REG, reg_data), ret);
 1492              		.loc 1 140 30 is_stmt 0 discriminator 2 view .LVU391
 1493 00a2 0323     		movs	r3, #3
 1494 00a4 B340     		lsls	r3, r3, r6
 140:../switch_sdk/core/fal/tiger/fal_tiger_port.c ****             CMM_ERR_CHK(HAL_MEM_DIRECT_WRITE(unit, CHIP_DCC_CALIB_CLK_SEL_REG, reg_data), ret);
 1495              		.loc 1 140 22 discriminator 2 view .LVU392
 1496 00a6 039A     		ldr	r2, [sp, #12]
 1497 00a8 22EA0302 		bic	r2, r2, r3
 1498 00ac 0392     		str	r2, [sp, #12]
 141:../switch_sdk/core/fal/tiger/fal_tiger_port.c ****             break;
 1499              		.loc 1 141 13 is_stmt 1 discriminator 2 view .LVU393
 141:../switch_sdk/core/fal/tiger/fal_tiger_port.c ****             break;
 1500              		.loc 1 141 13 discriminator 2 view .LVU394
 1501 00ae 2E49     		ldr	r1, .L121+4
 1502 00b0 2046     		mov	r0, r4
 1503              	.LVL179:
 141:../switch_sdk/core/fal/tiger/fal_tiger_port.c ****             break;
 1504              		.loc 1 141 13 is_stmt 0 discriminator 2 view .LVU395
 1505 00b2 FFF7FEFF 		bl	hal_mem32_write
 1506              	.LVL180:
 1507 00b6 0446     		mov	r4, r0
 1508              	.LVL181:
 141:../switch_sdk/core/fal/tiger/fal_tiger_port.c ****             break;
 1509              		.loc 1 141 13 discriminator 2 view .LVU396
 1510 00b8 10F0FF00 		ands	r0, r0, #255
 1511              	.LVL182:
 141:../switch_sdk/core/fal/tiger/fal_tiger_port.c ****             break;
 1512              		.loc 1 141 13 discriminator 2 view .LVU397
 1513 00bc 4CD0     		beq	.L96
 141:../switch_sdk/core/fal/tiger/fal_tiger_port.c ****             break;
 1514              		.loc 1 141 13 is_stmt 1 discriminator 1 view .LVU398
 141:../switch_sdk/core/fal/tiger/fal_tiger_port.c ****             break;
 1515              		.loc 1 141 13 discriminator 1 view .LVU399
 1516 00be 2B4B     		ldr	r3, .L121+8
 1517 00c0 1B78     		ldrb	r3, [r3]	@ zero_extendqisi2
 1518 00c2 012B     		cmp	r3, #1
 1519 00c4 01D8     		bhi	.L119
 1520              	.L105:
 141:../switch_sdk/core/fal/tiger/fal_tiger_port.c ****             break;
 1521              		.loc 1 141 13 discriminator 5 view .LVU400
 141:../switch_sdk/core/fal/tiger/fal_tiger_port.c ****             break;
 1522              		.loc 1 141 13 discriminator 5 view .LVU401
 141:../switch_sdk/core/fal/tiger/fal_tiger_port.c ****             break;
 1523              		.loc 1 141 13 discriminator 5 view .LVU402
 1524 00c6 E0B2     		uxtb	r0, r4
 1525 00c8 46E0     		b	.L96
 1526              	.L119:
 141:../switch_sdk/core/fal/tiger/fal_tiger_port.c ****             break;
 1527              		.loc 1 141 13 discriminator 3 view .LVU403
 1528              	.LBB17:
 141:../switch_sdk/core/fal/tiger/fal_tiger_port.c ****             break;
 1529              		.loc 1 141 13 discriminator 3 view .LVU404
 1530 00ca 1428     		cmp	r0, #20
 1531 00cc 28BF     		it	cs
 1532 00ce 1420     		movcs	r0, #20
 1533 00d0 274B     		ldr	r3, .L121+12
 1534 00d2 0093     		str	r3, [sp]
 1535 00d4 2B4B     		ldr	r3, .L121+32
 1536 00d6 284A     		ldr	r2, .L121+20
 1537 00d8 52F82020 		ldr	r2, [r2, r0, lsl #2]
 1538 00dc 2749     		ldr	r1, .L121+24
 1539 00de 8968     		ldr	r1, [r1, #8]
 1540 00e0 2748     		ldr	r0, .L121+28
 1541 00e2 FFF7FEFF 		bl	osal_printf
 1542              	.LVL183:
 1543 00e6 EEE7     		b	.L105
 1544              	.LVL184:
 1545              	.L117:
 141:../switch_sdk/core/fal/tiger/fal_tiger_port.c ****             break;
 1546              		.loc 1 141 13 is_stmt 0 discriminator 3 view .LVU405
 1547              	.LBE17:
 144:../switch_sdk/core/fal/tiger/fal_tiger_port.c ****             reg_data &= ~(0x3<<index);
 1548              		.loc 1 144 13 is_stmt 1 discriminator 3 view .LVU406
 1549              	.LBB18:
 144:../switch_sdk/core/fal/tiger/fal_tiger_port.c ****             reg_data &= ~(0x3<<index);
 1550              		.loc 1 144 13 discriminator 3 view .LVU407
 1551 00e8 142B     		cmp	r3, #20
 1552 00ea 28BF     		it	cs
 1553 00ec 1423     		movcs	r3, #20
 1554 00ee 1A46     		mov	r2, r3
 1555 00f0 1F4B     		ldr	r3, .L121+12
 1556 00f2 0093     		str	r3, [sp]
 1557 00f4 1F4B     		ldr	r3, .L121+16
 1558 00f6 2049     		ldr	r1, .L121+20
 1559 00f8 51F82220 		ldr	r2, [r1, r2, lsl #2]
 1560 00fc 1F49     		ldr	r1, .L121+24
 1561 00fe 8968     		ldr	r1, [r1, #8]
 1562 0100 1F48     		ldr	r0, .L121+28
 1563              	.LVL185:
 144:../switch_sdk/core/fal/tiger/fal_tiger_port.c ****             reg_data &= ~(0x3<<index);
 1564              		.loc 1 144 13 is_stmt 0 discriminator 3 view .LVU408
 1565 0102 FFF7FEFF 		bl	osal_printf
 1566              	.LVL186:
 1567 0106 A9E7     		b	.L107
 1568              	.LVL187:
 1569              	.L106:
 144:../switch_sdk/core/fal/tiger/fal_tiger_port.c ****             reg_data &= ~(0x3<<index);
 1570              		.loc 1 144 13 discriminator 3 view .LVU409
 1571              	.LBE18:
 144:../switch_sdk/core/fal/tiger/fal_tiger_port.c ****             reg_data &= ~(0x3<<index);
 1572              		.loc 1 144 13 is_stmt 1 discriminator 2 view .LVU410
 145:../switch_sdk/core/fal/tiger/fal_tiger_port.c ****             reg_data |= (0x2<<index);
 1573              		.loc 1 145 13 discriminator 2 view .LVU411
 145:../switch_sdk/core/fal/tiger/fal_tiger_port.c ****             reg_data |= (0x2<<index);
 1574              		.loc 1 145 30 is_stmt 0 discriminator 2 view .LVU412
 1575 0108 0323     		movs	r3, #3
 1576 010a B340     		lsls	r3, r3, r6
 145:../switch_sdk/core/fal/tiger/fal_tiger_port.c ****             reg_data |= (0x2<<index);
 1577              		.loc 1 145 22 discriminator 2 view .LVU413
 1578 010c 039A     		ldr	r2, [sp, #12]
 1579 010e 22EA0302 		bic	r2, r2, r3
 1580 0112 0392     		str	r2, [sp, #12]
 146:../switch_sdk/core/fal/tiger/fal_tiger_port.c ****             CMM_ERR_CHK(HAL_MEM_DIRECT_WRITE(unit, CHIP_DCC_CALIB_CLK_SEL_REG, reg_data), ret);
 1581              		.loc 1 146 13 is_stmt 1 discriminator 2 view .LVU414
 146:../switch_sdk/core/fal/tiger/fal_tiger_port.c ****             CMM_ERR_CHK(HAL_MEM_DIRECT_WRITE(unit, CHIP_DCC_CALIB_CLK_SEL_REG, reg_data), ret);
 1582              		.loc 1 146 29 is_stmt 0 discriminator 2 view .LVU415
 1583 0114 0223     		movs	r3, #2
 1584 0116 B340     		lsls	r3, r3, r6
 146:../switch_sdk/core/fal/tiger/fal_tiger_port.c ****             CMM_ERR_CHK(HAL_MEM_DIRECT_WRITE(unit, CHIP_DCC_CALIB_CLK_SEL_REG, reg_data), ret);
 1585              		.loc 1 146 22 discriminator 2 view .LVU416
 1586 0118 1A43     		orrs	r2, r2, r3
 1587 011a 0392     		str	r2, [sp, #12]
 147:../switch_sdk/core/fal/tiger/fal_tiger_port.c ****             break;
 1588              		.loc 1 147 13 is_stmt 1 discriminator 2 view .LVU417
 147:../switch_sdk/core/fal/tiger/fal_tiger_port.c ****             break;
 1589              		.loc 1 147 13 discriminator 2 view .LVU418
 1590 011c 1249     		ldr	r1, .L121+4
 1591 011e 2046     		mov	r0, r4
 1592              	.LVL188:
 147:../switch_sdk/core/fal/tiger/fal_tiger_port.c ****             break;
 1593              		.loc 1 147 13 is_stmt 0 discriminator 2 view .LVU419
 1594 0120 FFF7FEFF 		bl	hal_mem32_write
 1595              	.LVL189:
 1596 0124 0446     		mov	r4, r0
 1597              	.LVL190:
 147:../switch_sdk/core/fal/tiger/fal_tiger_port.c ****             break;
 1598              		.loc 1 147 13 discriminator 2 view .LVU420
 1599 0126 10F0FF00 		ands	r0, r0, #255
 1600              	.LVL191:
 147:../switch_sdk/core/fal/tiger/fal_tiger_port.c ****             break;
 1601              		.loc 1 147 13 discriminator 2 view .LVU421
 1602 012a 15D0     		beq	.L96
 147:../switch_sdk/core/fal/tiger/fal_tiger_port.c ****             break;
 1603              		.loc 1 147 13 is_stmt 1 discriminator 1 view .LVU422
 147:../switch_sdk/core/fal/tiger/fal_tiger_port.c ****             break;
 1604              		.loc 1 147 13 discriminator 1 view .LVU423
 1605 012c 0F4B     		ldr	r3, .L121+8
 1606 012e 1B78     		ldrb	r3, [r3]	@ zero_extendqisi2
 1607 0130 012B     		cmp	r3, #1
 1608 0132 01D8     		bhi	.L120
 1609              	.L108:
 147:../switch_sdk/core/fal/tiger/fal_tiger_port.c ****             break;
 1610              		.loc 1 147 13 discriminator 5 view .LVU424
 147:../switch_sdk/core/fal/tiger/fal_tiger_port.c ****             break;
 1611              		.loc 1 147 13 discriminator 5 view .LVU425
 147:../switch_sdk/core/fal/tiger/fal_tiger_port.c ****             break;
 1612              		.loc 1 147 13 discriminator 5 view .LVU426
 1613 0134 E0B2     		uxtb	r0, r4
 1614 0136 0FE0     		b	.L96
 1615              	.L120:
 147:../switch_sdk/core/fal/tiger/fal_tiger_port.c ****             break;
 1616              		.loc 1 147 13 discriminator 3 view .LVU427
 1617              	.LBB19:
 147:../switch_sdk/core/fal/tiger/fal_tiger_port.c ****             break;
 1618              		.loc 1 147 13 discriminator 3 view .LVU428
 1619 0138 1428     		cmp	r0, #20
 1620 013a 28BF     		it	cs
 1621 013c 1420     		movcs	r0, #20
 1622 013e 0C4B     		ldr	r3, .L121+12
 1623 0140 0093     		str	r3, [sp]
 1624 0142 104B     		ldr	r3, .L121+32
 1625 0144 0C4A     		ldr	r2, .L121+20
 1626 0146 52F82020 		ldr	r2, [r2, r0, lsl #2]
 1627 014a 0C49     		ldr	r1, .L121+24
 1628 014c 8968     		ldr	r1, [r1, #8]
 1629 014e 0C48     		ldr	r0, .L121+28
 1630 0150 FFF7FEFF 		bl	osal_printf
 1631              	.LVL192:
 1632 0154 EEE7     		b	.L108
 1633              	.LVL193:
 1634              	.L109:
 147:../switch_sdk/core/fal/tiger/fal_tiger_port.c ****             break;
 1635              		.loc 1 147 13 is_stmt 0 discriminator 3 view .LVU429
 1636              	.LBE19:
 119:../switch_sdk/core/fal/tiger/fal_tiger_port.c ****     }
 1637              		.loc 1 119 16 view .LVU430
 1638 0156 0020     		movs	r0, #0
 1639              	.LVL194:
 1640              	.L96:
 154:../switch_sdk/core/fal/tiger/fal_tiger_port.c **** 
 1641              		.loc 1 154 1 view .LVU431
 1642 0158 04B0     		add	sp, sp, #16
 1643              		.cfi_remember_state
 1644              		.cfi_def_cfa_offset 16
 1645              		@ sp needed
 1646 015a 70BD     		pop	{r4, r5, r6, pc}
 1647              	.LVL195:
 1648              	.L112:
 1649              		.cfi_restore_state
 133:../switch_sdk/core/fal/tiger/fal_tiger_port.c ****     }
 1650              		.loc 1 133 16 view .LVU432
 1651 015c 0320     		movs	r0, #3
 1652 015e FBE7     		b	.L96
 1653              	.L113:
 1654 0160 0320     		movs	r0, #3
 1655 0162 F9E7     		b	.L96
 1656              	.L122:
 1657              		.align	2
 1658              	.L121:
 1659 0164 00000000 		.word	gpSwitchUnit
 1660 0168 1CD00800 		.word	577564
 1661 016c 00000000 		.word	yt_debug_level
 1662 0170 00000000 		.word	__FUNCTION__.1
 1663 0174 00000000 		.word	.LC11
 1664 0178 00000000 		.word	_yt_errmsg
 1665 017c 00000000 		.word	_yt_prompt_msg
 1666 0180 34000000 		.word	.LC1
 1667 0184 2C000000 		.word	.LC12
 1668              		.cfi_endproc
 1669              	.LFE5:
 1671              		.section	.rodata.fal_tiger_port_init.str1.4,"aMS",%progbits,1
 1672              		.align	2
 1673              	.LC13:
 1674 0000 66616C5F 		.ascii	"fal_port_serdes_init(unit)\000"
 1674      706F7274 
 1674      5F736572 
 1674      6465735F 
 1674      696E6974 
 1675              		.section	.text.fal_tiger_port_init,"ax",%progbits
 1676              		.align	1
 1677              		.global	fal_tiger_port_init
 1678              		.syntax unified
 1679              		.thumb
 1680              		.thumb_func
 1682              	fal_tiger_port_init:
 1683              	.LVL196:
 1684              	.LFB8:
 250:../switch_sdk/core/fal/tiger/fal_tiger_port.c **** 
 251:../switch_sdk/core/fal/tiger/fal_tiger_port.c **** yt_ret_t fal_tiger_port_init(yt_unit_t unit)
 252:../switch_sdk/core/fal/tiger/fal_tiger_port.c **** {
 1685              		.loc 1 252 1 is_stmt 1 view -0
 1686              		.cfi_startproc
 1687              		@ args = 0, pretend = 0, frame = 0
 1688              		@ frame_needed = 0, uses_anonymous_args = 0
 1689              		.loc 1 252 1 is_stmt 0 view .LVU434
 1690 0000 30B5     		push	{r4, r5, lr}
 1691              		.cfi_def_cfa_offset 12
 1692              		.cfi_offset 4, -12
 1693              		.cfi_offset 5, -8
 1694              		.cfi_offset 14, -4
 1695 0002 83B0     		sub	sp, sp, #12
 1696              		.cfi_def_cfa_offset 24
 1697 0004 0446     		mov	r4, r0
 253:../switch_sdk/core/fal/tiger/fal_tiger_port.c ****     yt_port_t port;
 1698              		.loc 1 253 5 is_stmt 1 view .LVU435
 254:../switch_sdk/core/fal/tiger/fal_tiger_port.c ****     yt_macid_t mac_id;
 1699              		.loc 1 254 5 view .LVU436
 255:../switch_sdk/core/fal/tiger/fal_tiger_port.c ****     cmm_err_t ret = CMM_ERR_OK;
 1700              		.loc 1 255 5 view .LVU437
 1701              	.LVL197:
 256:../switch_sdk/core/fal/tiger/fal_tiger_port.c **** 
 257:../switch_sdk/core/fal/tiger/fal_tiger_port.c ****     for(port = 0; port < CAL_PORT_NUM_ON_UNIT(unit); port++)
 1702              		.loc 1 257 5 view .LVU438
 1703              		.loc 1 257 14 is_stmt 0 view .LVU439
 1704 0006 0025     		movs	r5, #0
 1705              		.loc 1 257 5 view .LVU440
 1706 0008 0FE0     		b	.L124
 1707              	.LVL198:
 1708              	.L130:
 258:../switch_sdk/core/fal/tiger/fal_tiger_port.c ****     {
 259:../switch_sdk/core/fal/tiger/fal_tiger_port.c ****         mac_id = CAL_YTP_TO_MAC(unit, port);
 1709              		.loc 1 259 18 view .LVU441
 1710 000a FF22     		movs	r2, #255
 1711              	.L125:
 1712              	.LVL199:
 260:../switch_sdk/core/fal/tiger/fal_tiger_port.c ****         if(HALPHYDRV(unit, mac_id) != NULL)
 1713              		.loc 1 260 9 is_stmt 1 discriminator 6 view .LVU442
 1714              		.loc 1 260 12 is_stmt 0 discriminator 6 view .LVU443
 1715 000c C4EBC403 		rsb	r3, r4, r4, lsl #3
 1716 0010 04EB8303 		add	r3, r4, r3, lsl #2
 1717 0014 1344     		add	r3, r3, r2
 1718 0016 1C4A     		ldr	r2, .L136
 1719              	.LVL200:
 1720              		.loc 1 260 12 discriminator 6 view .LVU444
 1721 0018 02EB8303 		add	r3, r2, r3, lsl #2
 1722 001c 5B68     		ldr	r3, [r3, #4]
 1723              		.loc 1 260 11 discriminator 6 view .LVU445
 1724 001e 1BB1     		cbz	r3, .L126
 261:../switch_sdk/core/fal/tiger/fal_tiger_port.c ****         {
 262:../switch_sdk/core/fal/tiger/fal_tiger_port.c ****             HALPHYDRV_FUNC(unit, mac_id)->phy_init(unit);
 1725              		.loc 1 262 13 is_stmt 1 view .LVU446
 1726 0020 9B68     		ldr	r3, [r3, #8]
 1727              		.loc 1 262 41 is_stmt 0 view .LVU447
 1728 0022 5B68     		ldr	r3, [r3, #4]
 1729              		.loc 1 262 13 view .LVU448
 1730 0024 2046     		mov	r0, r4
 1731 0026 9847     		blx	r3
 1732              	.LVL201:
 1733              	.L126:
 257:../switch_sdk/core/fal/tiger/fal_tiger_port.c ****     {
 1734              		.loc 1 257 58 is_stmt 1 discriminator 2 view .LVU449
 1735 0028 0135     		adds	r5, r5, #1
 1736              	.LVL202:
 1737              	.L124:
 257:../switch_sdk/core/fal/tiger/fal_tiger_port.c ****     {
 1738              		.loc 1 257 24 discriminator 1 view .LVU450
 257:../switch_sdk/core/fal/tiger/fal_tiger_port.c ****     {
 1739              		.loc 1 257 26 is_stmt 0 discriminator 1 view .LVU451
 1740 002a 184B     		ldr	r3, .L136+4
 1741 002c 53F82430 		ldr	r3, [r3, r4, lsl #2]
 1742 0030 1A7D     		ldrb	r2, [r3, #20]	@ zero_extendqisi2
 257:../switch_sdk/core/fal/tiger/fal_tiger_port.c ****     {
 1743              		.loc 1 257 24 discriminator 1 view .LVU452
 1744 0032 AA42     		cmp	r2, r5
 1745 0034 08D9     		bls	.L133
 259:../switch_sdk/core/fal/tiger/fal_tiger_port.c ****         if(HALPHYDRV(unit, mac_id) != NULL)
 1746              		.loc 1 259 9 is_stmt 1 view .LVU453
 259:../switch_sdk/core/fal/tiger/fal_tiger_port.c ****         if(HALPHYDRV(unit, mac_id) != NULL)
 1747              		.loc 1 259 18 is_stmt 0 view .LVU454
 1748 0036 164A     		ldr	r2, .L136+8
 1749 0038 1278     		ldrb	r2, [r2]	@ zero_extendqisi2
 1750 003a 002A     		cmp	r2, #0
 1751 003c E5D0     		beq	.L130
 259:../switch_sdk/core/fal/tiger/fal_tiger_port.c ****         if(HALPHYDRV(unit, mac_id) != NULL)
 1752              		.loc 1 259 18 discriminator 3 view .LVU455
 1753 003e AA1D     		adds	r2, r5, #6
 1754 0040 53F82230 		ldr	r3, [r3, r2, lsl #2]
 1755 0044 1A78     		ldrb	r2, [r3]	@ zero_extendqisi2
 1756 0046 E1E7     		b	.L125
 1757              	.L133:
 263:../switch_sdk/core/fal/tiger/fal_tiger_port.c ****         }
 264:../switch_sdk/core/fal/tiger/fal_tiger_port.c ****     }
 265:../switch_sdk/core/fal/tiger/fal_tiger_port.c ****     CMM_ERR_CHK(fal_port_serdes_init(unit), ret);
 1758              		.loc 1 265 5 is_stmt 1 view .LVU456
 1759              		.loc 1 265 5 view .LVU457
 1760 0048 2046     		mov	r0, r4
 1761 004a FFF7FEFF 		bl	fal_port_serdes_init
 1762              	.LVL203:
 1763 004e 0446     		mov	r4, r0
 1764              	.LVL204:
 1765              		.loc 1 265 5 is_stmt 0 view .LVU458
 1766 0050 10F0FF03 		ands	r3, r0, #255
 1767 0054 02D1     		bne	.L134
 266:../switch_sdk/core/fal/tiger/fal_tiger_port.c ****     return CMM_ERR_OK;
 1768              		.loc 1 266 12 view .LVU459
 1769 0056 0020     		movs	r0, #0
 1770              	.LVL205:
 1771              	.L123:
 267:../switch_sdk/core/fal/tiger/fal_tiger_port.c **** }
 1772              		.loc 1 267 1 view .LVU460
 1773 0058 03B0     		add	sp, sp, #12
 1774              		.cfi_remember_state
 1775              		.cfi_def_cfa_offset 12
 1776              		@ sp needed
 1777 005a 30BD     		pop	{r4, r5, pc}
 1778              	.LVL206:
 1779              	.L134:
 1780              		.cfi_restore_state
 265:../switch_sdk/core/fal/tiger/fal_tiger_port.c ****     return CMM_ERR_OK;
 1781              		.loc 1 265 5 is_stmt 1 discriminator 1 view .LVU461
 265:../switch_sdk/core/fal/tiger/fal_tiger_port.c ****     return CMM_ERR_OK;
 1782              		.loc 1 265 5 discriminator 1 view .LVU462
 1783 005c 0D4A     		ldr	r2, .L136+12
 1784 005e 1278     		ldrb	r2, [r2]	@ zero_extendqisi2
 1785 0060 012A     		cmp	r2, #1
 1786 0062 01D8     		bhi	.L135
 1787              	.LVL207:
 1788              	.L129:
 265:../switch_sdk/core/fal/tiger/fal_tiger_port.c ****     return CMM_ERR_OK;
 1789              		.loc 1 265 5 discriminator 5 view .LVU463
 265:../switch_sdk/core/fal/tiger/fal_tiger_port.c ****     return CMM_ERR_OK;
 1790              		.loc 1 265 5 discriminator 5 view .LVU464
 265:../switch_sdk/core/fal/tiger/fal_tiger_port.c ****     return CMM_ERR_OK;
 1791              		.loc 1 265 5 discriminator 5 view .LVU465
 1792 0064 E0B2     		uxtb	r0, r4
 1793 0066 F7E7     		b	.L123
 1794              	.LVL208:
 1795              	.L135:
 265:../switch_sdk/core/fal/tiger/fal_tiger_port.c ****     return CMM_ERR_OK;
 1796              		.loc 1 265 5 discriminator 3 view .LVU466
 1797              	.LBB20:
 265:../switch_sdk/core/fal/tiger/fal_tiger_port.c ****     return CMM_ERR_OK;
 1798              		.loc 1 265 5 discriminator 3 view .LVU467
 1799 0068 142B     		cmp	r3, #20
 1800 006a 28BF     		it	cs
 1801 006c 1423     		movcs	r3, #20
 1802 006e 1A46     		mov	r2, r3
 1803 0070 094B     		ldr	r3, .L136+16
 1804 0072 0093     		str	r3, [sp]
 1805 0074 094B     		ldr	r3, .L136+20
 1806 0076 0A49     		ldr	r1, .L136+24
 1807 0078 51F82220 		ldr	r2, [r1, r2, lsl #2]
 1808 007c 0949     		ldr	r1, .L136+28
 1809 007e 8968     		ldr	r1, [r1, #8]
 1810 0080 0948     		ldr	r0, .L136+32
 1811              	.LVL209:
 265:../switch_sdk/core/fal/tiger/fal_tiger_port.c ****     return CMM_ERR_OK;
 1812              		.loc 1 265 5 is_stmt 0 discriminator 3 view .LVU468
 1813 0082 FFF7FEFF 		bl	osal_printf
 1814              	.LVL210:
 1815 0086 EDE7     		b	.L129
 1816              	.L137:
 1817              		.align	2
 1818              	.L136:
 1819 0088 00000000 		.word	gHalCtrl
 1820 008c 00000000 		.word	gpSwitchUnit
 1821 0090 00000000 		.word	gcal_inited
 1822 0094 00000000 		.word	yt_debug_level
 1823 0098 00000000 		.word	__FUNCTION__.37
 1824 009c 00000000 		.word	.LC13
 1825 00a0 00000000 		.word	_yt_errmsg
 1826 00a4 00000000 		.word	_yt_prompt_msg
 1827 00a8 34000000 		.word	.LC1
 1828              	.LBE20:
 1829              		.cfi_endproc
 1830              	.LFE8:
 1832              		.section	.rodata.fal_tiger_port_enable_get.str1.4,"aMS",%progbits,1
 1833              		.align	2
 1834              	.LC14:
 1835 0000 25732573 		.ascii	"%s%s\015\012\000"
 1835      0D0A00
 1836              		.section	.text.fal_tiger_port_enable_get,"ax",%progbits
 1837              		.align	1
 1838              		.global	fal_tiger_port_enable_get
 1839              		.syntax unified
 1840              		.thumb
 1841              		.thumb_func
 1843              	fal_tiger_port_enable_get:
 1844              	.LVL211:
 1845              	.LFB10:
 268:../switch_sdk/core/fal/tiger/fal_tiger_port.c **** 
 269:../switch_sdk/core/fal/tiger/fal_tiger_port.c **** yt_ret_t fal_tiger_port_enable_set(yt_unit_t unit, yt_port_t port, yt_enable_t enable)
 270:../switch_sdk/core/fal/tiger/fal_tiger_port.c **** {
 271:../switch_sdk/core/fal/tiger/fal_tiger_port.c ****     cmm_err_t ret = CMM_ERR_OK;
 272:../switch_sdk/core/fal/tiger/fal_tiger_port.c ****     port_ctrl_t port_ctrl;
 273:../switch_sdk/core/fal/tiger/fal_tiger_port.c ****     yt_port_t phy_addr;
 274:../switch_sdk/core/fal/tiger/fal_tiger_port.c ****     yt_macid_t mac_id;
 275:../switch_sdk/core/fal/tiger/fal_tiger_port.c ****     yt_enable_t orgEnable;
 276:../switch_sdk/core/fal/tiger/fal_tiger_port.c ****     uint32_t regData;
 277:../switch_sdk/core/fal/tiger/fal_tiger_port.c **** 
 278:../switch_sdk/core/fal/tiger/fal_tiger_port.c ****     mac_id = CAL_YTP_TO_MAC(unit, port);
 279:../switch_sdk/core/fal/tiger/fal_tiger_port.c ****     phy_addr = CAL_YTP_TO_PHYADDR(unit, port);
 280:../switch_sdk/core/fal/tiger/fal_tiger_port.c **** 
 281:../switch_sdk/core/fal/tiger/fal_tiger_port.c ****     if(YT_ENABLE == enable  &&
 282:../switch_sdk/core/fal/tiger/fal_tiger_port.c ****         CAL_PORT_TYPE_INTPHY == CAL_YTP_PORT_TYPE(unit, port))
 283:../switch_sdk/core/fal/tiger/fal_tiger_port.c ****     {
 284:../switch_sdk/core/fal/tiger/fal_tiger_port.c ****         /*enable phy*/
 285:../switch_sdk/core/fal/tiger/fal_tiger_port.c ****         HAL_MEM_DIRECT_READ(unit, 0x8002c, &regData);
 286:../switch_sdk/core/fal/tiger/fal_tiger_port.c ****         if(!(regData & (1<<(mac_id+8))))
 287:../switch_sdk/core/fal/tiger/fal_tiger_port.c ****         {
 288:../switch_sdk/core/fal/tiger/fal_tiger_port.c ****             regData = regData | (1<<(mac_id+8)) | 0xff;
 289:../switch_sdk/core/fal/tiger/fal_tiger_port.c ****             HAL_MEM_DIRECT_WRITE(unit, 0x8002c, regData);
 290:../switch_sdk/core/fal/tiger/fal_tiger_port.c ****         }
 291:../switch_sdk/core/fal/tiger/fal_tiger_port.c ****     }
 292:../switch_sdk/core/fal/tiger/fal_tiger_port.c **** 
 293:../switch_sdk/core/fal/tiger/fal_tiger_port.c ****     /* if no change, do nothing */
 294:../switch_sdk/core/fal/tiger/fal_tiger_port.c ****     fal_tiger_port_enable_get(unit, port, &orgEnable);
 295:../switch_sdk/core/fal/tiger/fal_tiger_port.c ****     if(orgEnable == enable)
 296:../switch_sdk/core/fal/tiger/fal_tiger_port.c ****     {
 297:../switch_sdk/core/fal/tiger/fal_tiger_port.c ****         return CMM_ERR_OK;
 298:../switch_sdk/core/fal/tiger/fal_tiger_port.c ****     }
 299:../switch_sdk/core/fal/tiger/fal_tiger_port.c **** 
 300:../switch_sdk/core/fal/tiger/fal_tiger_port.c ****     CMM_PARAM_CHK(HAL_TBL_REG_READ(unit, PORT_CTRLm, mac_id, sizeof(port_ctrl_t), &port_ctrl), ret)
 301:../switch_sdk/core/fal/tiger/fal_tiger_port.c ****     HAL_FIELD_SET(PORT_CTRLm, PORT_CTRL_AN_LINK_ENf, &port_ctrl, enable);
 302:../switch_sdk/core/fal/tiger/fal_tiger_port.c ****     HAL_FIELD_SET(PORT_CTRLm, PORT_CTRL_TXMAC_ENf, &port_ctrl, enable);
 303:../switch_sdk/core/fal/tiger/fal_tiger_port.c ****     HAL_FIELD_SET(PORT_CTRLm, PORT_CTRL_RXMAC_ENf, &port_ctrl, enable);
 304:../switch_sdk/core/fal/tiger/fal_tiger_port.c ****     CMM_PARAM_CHK(HAL_TBL_REG_WRITE(unit, PORT_CTRLm, mac_id, sizeof(port_ctrl_t), &port_ctrl), ret
 305:../switch_sdk/core/fal/tiger/fal_tiger_port.c **** 
 306:../switch_sdk/core/fal/tiger/fal_tiger_port.c ****     if(phy_addr != INVALID_ID)
 307:../switch_sdk/core/fal/tiger/fal_tiger_port.c ****     {
 308:../switch_sdk/core/fal/tiger/fal_tiger_port.c ****         if(HALPHYDRV(unit, mac_id) != NULL)
 309:../switch_sdk/core/fal/tiger/fal_tiger_port.c ****         {
 310:../switch_sdk/core/fal/tiger/fal_tiger_port.c ****             HALPHYDRV_FUNC(unit, mac_id)->phy_enable_set(unit, phy_addr, enable);
 311:../switch_sdk/core/fal/tiger/fal_tiger_port.c ****         }
 312:../switch_sdk/core/fal/tiger/fal_tiger_port.c ****     }
 313:../switch_sdk/core/fal/tiger/fal_tiger_port.c **** 
 314:../switch_sdk/core/fal/tiger/fal_tiger_port.c ****     return CMM_ERR_OK;
 315:../switch_sdk/core/fal/tiger/fal_tiger_port.c **** }
 316:../switch_sdk/core/fal/tiger/fal_tiger_port.c **** 
 317:../switch_sdk/core/fal/tiger/fal_tiger_port.c **** yt_ret_t fal_tiger_port_enable_get(yt_unit_t unit, yt_port_t port, yt_enable_t *pEnable)
 318:../switch_sdk/core/fal/tiger/fal_tiger_port.c **** {
 1846              		.loc 1 318 1 is_stmt 1 view -0
 1847              		.cfi_startproc
 1848              		@ args = 0, pretend = 0, frame = 16
 1849              		@ frame_needed = 0, uses_anonymous_args = 0
 1850              		.loc 1 318 1 is_stmt 0 view .LVU470
 1851 0000 2DE9F047 		push	{r4, r5, r6, r7, r8, r9, r10, lr}
 1852              		.cfi_def_cfa_offset 32
 1853              		.cfi_offset 4, -32
 1854              		.cfi_offset 5, -28
 1855              		.cfi_offset 6, -24
 1856              		.cfi_offset 7, -20
 1857              		.cfi_offset 8, -16
 1858              		.cfi_offset 9, -12
 1859              		.cfi_offset 10, -8
 1860              		.cfi_offset 14, -4
 1861 0004 86B0     		sub	sp, sp, #24
 1862              		.cfi_def_cfa_offset 56
 1863 0006 0446     		mov	r4, r0
 1864 0008 1546     		mov	r5, r2
 319:../switch_sdk/core/fal/tiger/fal_tiger_port.c ****     cmm_err_t ret = CMM_ERR_OK;
 1865              		.loc 1 319 5 is_stmt 1 view .LVU471
 1866              	.LVL212:
 320:../switch_sdk/core/fal/tiger/fal_tiger_port.c ****     port_ctrl_t port_ctrl;
 1867              		.loc 1 320 5 view .LVU472
 321:../switch_sdk/core/fal/tiger/fal_tiger_port.c ****     yt_port_t phy_addr;
 1868              		.loc 1 321 5 view .LVU473
 322:../switch_sdk/core/fal/tiger/fal_tiger_port.c ****     yt_macid_t mac_id;
 1869              		.loc 1 322 5 view .LVU474
 323:../switch_sdk/core/fal/tiger/fal_tiger_port.c ****     uint32_t an_en;
 1870              		.loc 1 323 5 view .LVU475
 324:../switch_sdk/core/fal/tiger/fal_tiger_port.c ****     uint32_t tx_en;
 1871              		.loc 1 324 5 view .LVU476
 325:../switch_sdk/core/fal/tiger/fal_tiger_port.c ****     uint32_t rx_en;
 1872              		.loc 1 325 5 view .LVU477
 326:../switch_sdk/core/fal/tiger/fal_tiger_port.c ****     yt_enable_t phy_en = YT_ENABLE;
 1873              		.loc 1 326 5 view .LVU478
 1874              		.loc 1 326 17 is_stmt 0 view .LVU479
 1875 000a 0123     		movs	r3, #1
 1876 000c 8DF81330 		strb	r3, [sp, #19]
 327:../switch_sdk/core/fal/tiger/fal_tiger_port.c **** 
 328:../switch_sdk/core/fal/tiger/fal_tiger_port.c ****     mac_id = CAL_YTP_TO_MAC(unit, port);
 1877              		.loc 1 328 5 is_stmt 1 view .LVU480
 1878              		.loc 1 328 14 is_stmt 0 view .LVU481
 1879 0010 364B     		ldr	r3, .L150
 1880 0012 1B78     		ldrb	r3, [r3]	@ zero_extendqisi2
 1881 0014 53B1     		cbz	r3, .L146
 1882              		.loc 1 328 14 discriminator 1 view .LVU482
 1883 0016 364B     		ldr	r3, .L150+4
 1884 0018 53F82030 		ldr	r3, [r3, r0, lsl #2]
 1885 001c 1A7D     		ldrb	r2, [r3, #20]	@ zero_extendqisi2
 1886              	.LVL213:
 1887              		.loc 1 328 14 discriminator 1 view .LVU483
 1888 001e 8A42     		cmp	r2, r1
 1889 0020 1DD9     		bls	.L147
 1890              		.loc 1 328 14 discriminator 3 view .LVU484
 1891 0022 8A1D     		adds	r2, r1, #6
 1892 0024 53F82230 		ldr	r3, [r3, r2, lsl #2]
 1893 0028 1E78     		ldrb	r6, [r3]	@ zero_extendqisi2
 1894 002a 00E0     		b	.L139
 1895              	.LVL214:
 1896              	.L146:
 1897              		.loc 1 328 14 view .LVU485
 1898 002c FF26     		movs	r6, #255
 1899              	.LVL215:
 1900              	.L139:
 329:../switch_sdk/core/fal/tiger/fal_tiger_port.c ****     phy_addr = CAL_YTP_TO_PHYADDR(unit, port);
 1901              		.loc 1 329 5 is_stmt 1 discriminator 6 view .LVU486
 1902              		.loc 1 329 16 is_stmt 0 discriminator 6 view .LVU487
 1903 002e 304B     		ldr	r3, .L150+4
 1904 0030 53F82430 		ldr	r3, [r3, r4, lsl #2]
 1905 0034 0631     		adds	r1, r1, #6
 1906              	.LVL216:
 1907              		.loc 1 329 16 discriminator 6 view .LVU488
 1908 0036 53F82130 		ldr	r3, [r3, r1, lsl #2]
 1909 003a DF78     		ldrb	r7, [r3, #3]	@ zero_extendqisi2
 1910              	.LVL217:
 330:../switch_sdk/core/fal/tiger/fal_tiger_port.c **** 
 331:../switch_sdk/core/fal/tiger/fal_tiger_port.c ****     CMM_PARAM_CHK(HAL_TBL_REG_READ(unit, PORT_CTRLm, mac_id, sizeof(port_ctrl_t), &port_ctrl), ret)
 1911              		.loc 1 331 5 is_stmt 1 discriminator 6 view .LVU489
 1912              		.loc 1 331 5 discriminator 6 view .LVU490
 1913 003c 05AB     		add	r3, sp, #20
 1914 003e 0093     		str	r3, [sp]
 1915 0040 0423     		movs	r3, #4
 1916 0042 3246     		mov	r2, r6
 1917 0044 0B21     		movs	r1, #11
 1918              	.LVL218:
 1919              		.loc 1 331 5 is_stmt 0 discriminator 6 view .LVU491
 1920 0046 2046     		mov	r0, r4
 1921              	.LVL219:
 1922              		.loc 1 331 5 discriminator 6 view .LVU492
 1923 0048 FFF7FEFF 		bl	hal_table_reg_read
 1924              	.LVL220:
 1925 004c 88B1     		cbz	r0, .L140
 1926              		.loc 1 331 5 is_stmt 1 discriminator 1 view .LVU493
 1927              		.loc 1 331 5 discriminator 1 view .LVU494
 1928 004e 294B     		ldr	r3, .L150+8
 1929 0050 1B78     		ldrb	r3, [r3]	@ zero_extendqisi2
 1930 0052 012B     		cmp	r3, #1
 1931 0054 05D8     		bhi	.L149
 1932              	.L142:
 332:../switch_sdk/core/fal/tiger/fal_tiger_port.c ****     HAL_FIELD_GET(PORT_CTRLm, PORT_CTRL_AN_LINK_ENf, &port_ctrl, &an_en);
 333:../switch_sdk/core/fal/tiger/fal_tiger_port.c ****     HAL_FIELD_GET(PORT_CTRLm, PORT_CTRL_TXMAC_ENf, &port_ctrl, &tx_en);
 334:../switch_sdk/core/fal/tiger/fal_tiger_port.c ****     HAL_FIELD_GET(PORT_CTRLm, PORT_CTRL_RXMAC_ENf, &port_ctrl, &rx_en);
 335:../switch_sdk/core/fal/tiger/fal_tiger_port.c **** 
 336:../switch_sdk/core/fal/tiger/fal_tiger_port.c ****     if(phy_addr != INVALID_ID)
 337:../switch_sdk/core/fal/tiger/fal_tiger_port.c ****     {
 338:../switch_sdk/core/fal/tiger/fal_tiger_port.c ****         if(HALPHYDRV(unit, mac_id) != NULL)
 339:../switch_sdk/core/fal/tiger/fal_tiger_port.c ****         {
 340:../switch_sdk/core/fal/tiger/fal_tiger_port.c ****             HALPHYDRV_FUNC(unit, mac_id)->phy_enable_get(unit, phy_addr, &phy_en);
 341:../switch_sdk/core/fal/tiger/fal_tiger_port.c ****         }
 342:../switch_sdk/core/fal/tiger/fal_tiger_port.c ****     }
 343:../switch_sdk/core/fal/tiger/fal_tiger_port.c **** 
 344:../switch_sdk/core/fal/tiger/fal_tiger_port.c ****     if((an_en || tx_en || rx_en) && phy_en)
 345:../switch_sdk/core/fal/tiger/fal_tiger_port.c ****     {
 346:../switch_sdk/core/fal/tiger/fal_tiger_port.c ****         *pEnable = YT_ENABLE;
 347:../switch_sdk/core/fal/tiger/fal_tiger_port.c ****     }
 348:../switch_sdk/core/fal/tiger/fal_tiger_port.c ****     else
 349:../switch_sdk/core/fal/tiger/fal_tiger_port.c ****     {
 350:../switch_sdk/core/fal/tiger/fal_tiger_port.c ****         *pEnable = YT_DISABLE;
 351:../switch_sdk/core/fal/tiger/fal_tiger_port.c ****     }
 352:../switch_sdk/core/fal/tiger/fal_tiger_port.c ****     
 353:../switch_sdk/core/fal/tiger/fal_tiger_port.c ****     return CMM_ERR_OK;
 354:../switch_sdk/core/fal/tiger/fal_tiger_port.c **** }
 1933              		.loc 1 354 1 is_stmt 0 view .LVU495
 1934 0056 0020     		movs	r0, #0
 1935 0058 06B0     		add	sp, sp, #24
 1936              		.cfi_remember_state
 1937              		.cfi_def_cfa_offset 32
 1938              		@ sp needed
 1939 005a BDE8F087 		pop	{r4, r5, r6, r7, r8, r9, r10, pc}
 1940              	.LVL221:
 1941              	.L147:
 1942              		.cfi_restore_state
 328:../switch_sdk/core/fal/tiger/fal_tiger_port.c ****     phy_addr = CAL_YTP_TO_PHYADDR(unit, port);
 1943              		.loc 1 328 14 view .LVU496
 1944 005e FF26     		movs	r6, #255
 1945 0060 E5E7     		b	.L139
 1946              	.LVL222:
 1947              	.L149:
 331:../switch_sdk/core/fal/tiger/fal_tiger_port.c ****     HAL_FIELD_GET(PORT_CTRLm, PORT_CTRL_AN_LINK_ENf, &port_ctrl, &an_en);
 1948              		.loc 1 331 5 is_stmt 1 discriminator 3 view .LVU497
 1949              	.LBB21:
 331:../switch_sdk/core/fal/tiger/fal_tiger_port.c ****     HAL_FIELD_GET(PORT_CTRLm, PORT_CTRL_AN_LINK_ENf, &port_ctrl, &an_en);
 1950              		.loc 1 331 5 discriminator 3 view .LVU498
 1951 0062 254B     		ldr	r3, .L150+12
 1952 0064 1A68     		ldr	r2, [r3]
 1953 0066 254B     		ldr	r3, .L150+16
 1954 0068 9968     		ldr	r1, [r3, #8]
 1955 006a 2548     		ldr	r0, .L150+20
 1956 006c FFF7FEFF 		bl	osal_printf
 1957              	.LVL223:
 1958              	.LBE21:
 331:../switch_sdk/core/fal/tiger/fal_tiger_port.c ****     HAL_FIELD_GET(PORT_CTRLm, PORT_CTRL_AN_LINK_ENf, &port_ctrl, &an_en);
 1959              		.loc 1 331 5 discriminator 3 view .LVU499
 331:../switch_sdk/core/fal/tiger/fal_tiger_port.c ****     HAL_FIELD_GET(PORT_CTRLm, PORT_CTRL_AN_LINK_ENf, &port_ctrl, &an_en);
 1960              		.loc 1 331 5 discriminator 3 view .LVU500
 331:../switch_sdk/core/fal/tiger/fal_tiger_port.c ****     HAL_FIELD_GET(PORT_CTRLm, PORT_CTRL_AN_LINK_ENf, &port_ctrl, &an_en);
 1961              		.loc 1 331 5 discriminator 3 view .LVU501
 1962 0070 F1E7     		b	.L142
 1963              	.L140:
 331:../switch_sdk/core/fal/tiger/fal_tiger_port.c ****     HAL_FIELD_GET(PORT_CTRLm, PORT_CTRL_AN_LINK_ENf, &port_ctrl, &an_en);
 1964              		.loc 1 331 5 discriminator 2 view .LVU502
 332:../switch_sdk/core/fal/tiger/fal_tiger_port.c ****     HAL_FIELD_GET(PORT_CTRLm, PORT_CTRL_AN_LINK_ENf, &port_ctrl, &an_en);
 1965              		.loc 1 332 5 discriminator 2 view .LVU503
 1966              	.LBB22:
 332:../switch_sdk/core/fal/tiger/fal_tiger_port.c ****     HAL_FIELD_GET(PORT_CTRLm, PORT_CTRL_AN_LINK_ENf, &port_ctrl, &an_en);
 1967              		.loc 1 332 5 discriminator 2 view .LVU504
 332:../switch_sdk/core/fal/tiger/fal_tiger_port.c ****     HAL_FIELD_GET(PORT_CTRLm, PORT_CTRL_AN_LINK_ENf, &port_ctrl, &an_en);
 1968              		.loc 1 332 5 discriminator 2 view .LVU505
 1969 0072 03AB     		add	r3, sp, #12
 1970 0074 05AA     		add	r2, sp, #20
 1971 0076 0121     		movs	r1, #1
 1972 0078 0B20     		movs	r0, #11
 1973 007a FFF7FEFF 		bl	hal_tbl_reg_field_get
 1974              	.LVL224:
 332:../switch_sdk/core/fal/tiger/fal_tiger_port.c ****     HAL_FIELD_GET(PORT_CTRLm, PORT_CTRL_AN_LINK_ENf, &port_ctrl, &an_en);
 1975              		.loc 1 332 5 discriminator 2 view .LVU506
 1976 007e DDF80C80 		ldr	r8, [sp, #12]
 1977              	.LVL225:
 332:../switch_sdk/core/fal/tiger/fal_tiger_port.c ****     HAL_FIELD_GET(PORT_CTRLm, PORT_CTRL_AN_LINK_ENf, &port_ctrl, &an_en);
 1978              		.loc 1 332 5 is_stmt 0 discriminator 2 view .LVU507
 1979              	.LBE22:
 332:../switch_sdk/core/fal/tiger/fal_tiger_port.c ****     HAL_FIELD_GET(PORT_CTRLm, PORT_CTRL_AN_LINK_ENf, &port_ctrl, &an_en);
 1980              		.loc 1 332 5 is_stmt 1 discriminator 2 view .LVU508
 333:../switch_sdk/core/fal/tiger/fal_tiger_port.c ****     HAL_FIELD_GET(PORT_CTRLm, PORT_CTRL_RXMAC_ENf, &port_ctrl, &rx_en);
 1981              		.loc 1 333 5 discriminator 2 view .LVU509
 1982              	.LBB23:
 333:../switch_sdk/core/fal/tiger/fal_tiger_port.c ****     HAL_FIELD_GET(PORT_CTRLm, PORT_CTRL_RXMAC_ENf, &port_ctrl, &rx_en);
 1983              		.loc 1 333 5 discriminator 2 view .LVU510
 333:../switch_sdk/core/fal/tiger/fal_tiger_port.c ****     HAL_FIELD_GET(PORT_CTRLm, PORT_CTRL_RXMAC_ENf, &port_ctrl, &rx_en);
 1984              		.loc 1 333 5 discriminator 2 view .LVU511
 1985 0082 03AB     		add	r3, sp, #12
 1986 0084 05AA     		add	r2, sp, #20
 1987 0086 0721     		movs	r1, #7
 1988 0088 0B20     		movs	r0, #11
 1989 008a FFF7FEFF 		bl	hal_tbl_reg_field_get
 1990              	.LVL226:
 333:../switch_sdk/core/fal/tiger/fal_tiger_port.c ****     HAL_FIELD_GET(PORT_CTRLm, PORT_CTRL_RXMAC_ENf, &port_ctrl, &rx_en);
 1991              		.loc 1 333 5 discriminator 2 view .LVU512
 1992 008e DDF80C90 		ldr	r9, [sp, #12]
 1993              	.LVL227:
 333:../switch_sdk/core/fal/tiger/fal_tiger_port.c ****     HAL_FIELD_GET(PORT_CTRLm, PORT_CTRL_RXMAC_ENf, &port_ctrl, &rx_en);
 1994              		.loc 1 333 5 is_stmt 0 discriminator 2 view .LVU513
 1995              	.LBE23:
 333:../switch_sdk/core/fal/tiger/fal_tiger_port.c ****     HAL_FIELD_GET(PORT_CTRLm, PORT_CTRL_RXMAC_ENf, &port_ctrl, &rx_en);
 1996              		.loc 1 333 5 is_stmt 1 discriminator 2 view .LVU514
 334:../switch_sdk/core/fal/tiger/fal_tiger_port.c **** 
 1997              		.loc 1 334 5 discriminator 2 view .LVU515
 1998              	.LBB24:
 334:../switch_sdk/core/fal/tiger/fal_tiger_port.c **** 
 1999              		.loc 1 334 5 discriminator 2 view .LVU516
 334:../switch_sdk/core/fal/tiger/fal_tiger_port.c **** 
 2000              		.loc 1 334 5 discriminator 2 view .LVU517
 2001 0092 03AB     		add	r3, sp, #12
 2002 0094 05AA     		add	r2, sp, #20
 2003 0096 0621     		movs	r1, #6
 2004 0098 0B20     		movs	r0, #11
 2005 009a FFF7FEFF 		bl	hal_tbl_reg_field_get
 2006              	.LVL228:
 334:../switch_sdk/core/fal/tiger/fal_tiger_port.c **** 
 2007              		.loc 1 334 5 discriminator 2 view .LVU518
 2008 009e DDF80CA0 		ldr	r10, [sp, #12]
 2009              	.LVL229:
 334:../switch_sdk/core/fal/tiger/fal_tiger_port.c **** 
 2010              		.loc 1 334 5 is_stmt 0 discriminator 2 view .LVU519
 2011              	.LBE24:
 334:../switch_sdk/core/fal/tiger/fal_tiger_port.c **** 
 2012              		.loc 1 334 5 is_stmt 1 discriminator 2 view .LVU520
 336:../switch_sdk/core/fal/tiger/fal_tiger_port.c ****     {
 2013              		.loc 1 336 5 discriminator 2 view .LVU521
 336:../switch_sdk/core/fal/tiger/fal_tiger_port.c ****     {
 2014              		.loc 1 336 7 is_stmt 0 discriminator 2 view .LVU522
 2015 00a2 FF2F     		cmp	r7, #255
 2016 00a4 10D0     		beq	.L143
 338:../switch_sdk/core/fal/tiger/fal_tiger_port.c ****         {
 2017              		.loc 1 338 9 is_stmt 1 view .LVU523
 338:../switch_sdk/core/fal/tiger/fal_tiger_port.c ****         {
 2018              		.loc 1 338 12 is_stmt 0 view .LVU524
 2019 00a6 C4EBC403 		rsb	r3, r4, r4, lsl #3
 2020 00aa 04EB8303 		add	r3, r4, r3, lsl #2
 2021 00ae 3344     		add	r3, r3, r6
 2022 00b0 144A     		ldr	r2, .L150+24
 2023 00b2 02EB8303 		add	r3, r2, r3, lsl #2
 2024 00b6 5B68     		ldr	r3, [r3, #4]
 338:../switch_sdk/core/fal/tiger/fal_tiger_port.c ****         {
 2025              		.loc 1 338 11 view .LVU525
 2026 00b8 33B1     		cbz	r3, .L143
 340:../switch_sdk/core/fal/tiger/fal_tiger_port.c ****         }
 2027              		.loc 1 340 13 is_stmt 1 view .LVU526
 2028 00ba 9B68     		ldr	r3, [r3, #8]
 340:../switch_sdk/core/fal/tiger/fal_tiger_port.c ****         }
 2029              		.loc 1 340 41 is_stmt 0 view .LVU527
 2030 00bc 1B69     		ldr	r3, [r3, #16]
 340:../switch_sdk/core/fal/tiger/fal_tiger_port.c ****         }
 2031              		.loc 1 340 13 view .LVU528
 2032 00be 0DF11302 		add	r2, sp, #19
 2033 00c2 3946     		mov	r1, r7
 2034 00c4 2046     		mov	r0, r4
 2035 00c6 9847     		blx	r3
 2036              	.LVL230:
 2037              	.L143:
 344:../switch_sdk/core/fal/tiger/fal_tiger_port.c ****     {
 2038              		.loc 1 344 5 is_stmt 1 view .LVU529
 344:../switch_sdk/core/fal/tiger/fal_tiger_port.c ****     {
 2039              		.loc 1 344 7 is_stmt 0 view .LVU530
 2040 00c8 B8F1000F 		cmp	r8, #0
 2041 00cc 05D1     		bne	.L144
 344:../switch_sdk/core/fal/tiger/fal_tiger_port.c ****     {
 2042              		.loc 1 344 15 discriminator 2 view .LVU531
 2043 00ce B9F1000F 		cmp	r9, #0
 2044 00d2 02D1     		bne	.L144
 344:../switch_sdk/core/fal/tiger/fal_tiger_port.c ****     {
 2045              		.loc 1 344 24 discriminator 4 view .LVU532
 2046 00d4 BAF1000F 		cmp	r10, #0
 2047 00d8 05D0     		beq	.L145
 2048              	.L144:
 344:../switch_sdk/core/fal/tiger/fal_tiger_port.c ****     {
 2049              		.loc 1 344 34 discriminator 5 view .LVU533
 2050 00da 9DF81330 		ldrb	r3, [sp, #19]	@ zero_extendqisi2
 2051 00de 13B1     		cbz	r3, .L145
 346:../switch_sdk/core/fal/tiger/fal_tiger_port.c ****     }
 2052              		.loc 1 346 9 is_stmt 1 view .LVU534
 346:../switch_sdk/core/fal/tiger/fal_tiger_port.c ****     }
 2053              		.loc 1 346 18 is_stmt 0 view .LVU535
 2054 00e0 0123     		movs	r3, #1
 2055 00e2 2B70     		strb	r3, [r5]
 2056 00e4 B7E7     		b	.L142
 2057              	.L145:
 350:../switch_sdk/core/fal/tiger/fal_tiger_port.c ****     }
 2058              		.loc 1 350 9 is_stmt 1 view .LVU536
 350:../switch_sdk/core/fal/tiger/fal_tiger_port.c ****     }
 2059              		.loc 1 350 18 is_stmt 0 view .LVU537
 2060 00e6 0023     		movs	r3, #0
 2061 00e8 2B70     		strb	r3, [r5]
 2062 00ea B4E7     		b	.L142
 2063              	.L151:
 2064              		.align	2
 2065              	.L150:
 2066 00ec 00000000 		.word	gcal_inited
 2067 00f0 00000000 		.word	gpSwitchUnit
 2068 00f4 00000000 		.word	yt_debug_level
 2069 00f8 00000000 		.word	_yt_errmsg
 2070 00fc 00000000 		.word	_yt_prompt_msg
 2071 0100 00000000 		.word	.LC14
 2072 0104 00000000 		.word	gHalCtrl
 2073              		.cfi_endproc
 2074              	.LFE10:
 2076              		.section	.text.fal_tiger_port_enable_set,"ax",%progbits
 2077              		.align	1
 2078              		.global	fal_tiger_port_enable_set
 2079              		.syntax unified
 2080              		.thumb
 2081              		.thumb_func
 2083              	fal_tiger_port_enable_set:
 2084              	.LVL231:
 2085              	.LFB9:
 270:../switch_sdk/core/fal/tiger/fal_tiger_port.c ****     cmm_err_t ret = CMM_ERR_OK;
 2086              		.loc 1 270 1 is_stmt 1 view -0
 2087              		.cfi_startproc
 2088              		@ args = 0, pretend = 0, frame = 16
 2089              		@ frame_needed = 0, uses_anonymous_args = 0
 270:../switch_sdk/core/fal/tiger/fal_tiger_port.c ****     cmm_err_t ret = CMM_ERR_OK;
 2090              		.loc 1 270 1 is_stmt 0 view .LVU539
 2091 0000 2DE9F041 		push	{r4, r5, r6, r7, r8, lr}
 2092              		.cfi_def_cfa_offset 24
 2093              		.cfi_offset 4, -24
 2094              		.cfi_offset 5, -20
 2095              		.cfi_offset 6, -16
 2096              		.cfi_offset 7, -12
 2097              		.cfi_offset 8, -8
 2098              		.cfi_offset 14, -4
 2099 0004 86B0     		sub	sp, sp, #24
 2100              		.cfi_def_cfa_offset 48
 2101 0006 0446     		mov	r4, r0
 2102 0008 0E46     		mov	r6, r1
 2103 000a 1546     		mov	r5, r2
 271:../switch_sdk/core/fal/tiger/fal_tiger_port.c ****     port_ctrl_t port_ctrl;
 2104              		.loc 1 271 5 is_stmt 1 view .LVU540
 2105              	.LVL232:
 272:../switch_sdk/core/fal/tiger/fal_tiger_port.c ****     yt_port_t phy_addr;
 2106              		.loc 1 272 5 view .LVU541
 273:../switch_sdk/core/fal/tiger/fal_tiger_port.c ****     yt_macid_t mac_id;
 2107              		.loc 1 273 5 view .LVU542
 274:../switch_sdk/core/fal/tiger/fal_tiger_port.c ****     yt_enable_t orgEnable;
 2108              		.loc 1 274 5 view .LVU543
 275:../switch_sdk/core/fal/tiger/fal_tiger_port.c ****     uint32_t regData;
 2109              		.loc 1 275 5 view .LVU544
 276:../switch_sdk/core/fal/tiger/fal_tiger_port.c **** 
 2110              		.loc 1 276 5 view .LVU545
 278:../switch_sdk/core/fal/tiger/fal_tiger_port.c ****     phy_addr = CAL_YTP_TO_PHYADDR(unit, port);
 2111              		.loc 1 278 5 view .LVU546
 278:../switch_sdk/core/fal/tiger/fal_tiger_port.c ****     phy_addr = CAL_YTP_TO_PHYADDR(unit, port);
 2112              		.loc 1 278 14 is_stmt 0 view .LVU547
 2113 000c 4F4B     		ldr	r3, .L169
 2114 000e 1A78     		ldrb	r2, [r3]	@ zero_extendqisi2
 2115              	.LVL233:
 278:../switch_sdk/core/fal/tiger/fal_tiger_port.c ****     phy_addr = CAL_YTP_TO_PHYADDR(unit, port);
 2116              		.loc 1 278 14 view .LVU548
 2117 0010 52B1     		cbz	r2, .L161
 278:../switch_sdk/core/fal/tiger/fal_tiger_port.c ****     phy_addr = CAL_YTP_TO_PHYADDR(unit, port);
 2118              		.loc 1 278 14 discriminator 1 view .LVU549
 2119 0012 4F4B     		ldr	r3, .L169+4
 2120 0014 53F82030 		ldr	r3, [r3, r0, lsl #2]
 2121 0018 197D     		ldrb	r1, [r3, #20]	@ zero_extendqisi2
 2122              	.LVL234:
 278:../switch_sdk/core/fal/tiger/fal_tiger_port.c ****     phy_addr = CAL_YTP_TO_PHYADDR(unit, port);
 2123              		.loc 1 278 14 discriminator 1 view .LVU550
 2124 001a B142     		cmp	r1, r6
 2125 001c 2BD9     		bls	.L162
 278:../switch_sdk/core/fal/tiger/fal_tiger_port.c ****     phy_addr = CAL_YTP_TO_PHYADDR(unit, port);
 2126              		.loc 1 278 14 discriminator 3 view .LVU551
 2127 001e B11D     		adds	r1, r6, #6
 2128 0020 53F82130 		ldr	r3, [r3, r1, lsl #2]
 2129 0024 1F78     		ldrb	r7, [r3]	@ zero_extendqisi2
 2130 0026 00E0     		b	.L153
 2131              	.LVL235:
 2132              	.L161:
 278:../switch_sdk/core/fal/tiger/fal_tiger_port.c ****     phy_addr = CAL_YTP_TO_PHYADDR(unit, port);
 2133              		.loc 1 278 14 view .LVU552
 2134 0028 FF27     		movs	r7, #255
 2135              	.LVL236:
 2136              	.L153:
 279:../switch_sdk/core/fal/tiger/fal_tiger_port.c **** 
 2137              		.loc 1 279 5 is_stmt 1 discriminator 6 view .LVU553
 279:../switch_sdk/core/fal/tiger/fal_tiger_port.c **** 
 2138              		.loc 1 279 16 is_stmt 0 discriminator 6 view .LVU554
 2139 002a 494B     		ldr	r3, .L169+4
 2140 002c 53F82430 		ldr	r3, [r3, r4, lsl #2]
 2141 0030 B11D     		adds	r1, r6, #6
 2142 0032 53F82110 		ldr	r1, [r3, r1, lsl #2]
 2143 0036 91F80380 		ldrb	r8, [r1, #3]	@ zero_extendqisi2
 2144              	.LVL237:
 281:../switch_sdk/core/fal/tiger/fal_tiger_port.c ****         CAL_PORT_TYPE_INTPHY == CAL_YTP_PORT_TYPE(unit, port))
 2145              		.loc 1 281 5 is_stmt 1 discriminator 6 view .LVU555
 281:../switch_sdk/core/fal/tiger/fal_tiger_port.c ****         CAL_PORT_TYPE_INTPHY == CAL_YTP_PORT_TYPE(unit, port))
 2146              		.loc 1 281 7 is_stmt 0 discriminator 6 view .LVU556
 2147 003a 012D     		cmp	r5, #1
 2148 003c 1DD0     		beq	.L166
 2149              	.LVL238:
 2150              	.L154:
 294:../switch_sdk/core/fal/tiger/fal_tiger_port.c ****     if(orgEnable == enable)
 2151              		.loc 1 294 5 is_stmt 1 view .LVU557
 2152 003e 0DF11302 		add	r2, sp, #19
 2153 0042 3146     		mov	r1, r6
 2154 0044 2046     		mov	r0, r4
 2155 0046 FFF7FEFF 		bl	fal_tiger_port_enable_get
 2156              	.LVL239:
 295:../switch_sdk/core/fal/tiger/fal_tiger_port.c ****     {
 2157              		.loc 1 295 5 view .LVU558
 295:../switch_sdk/core/fal/tiger/fal_tiger_port.c ****     {
 2158              		.loc 1 295 18 is_stmt 0 view .LVU559
 2159 004a 9DF81330 		ldrb	r3, [sp, #19]	@ zero_extendqisi2
 295:../switch_sdk/core/fal/tiger/fal_tiger_port.c ****     {
 2160              		.loc 1 295 7 view .LVU560
 2161 004e AB42     		cmp	r3, r5
 2162 0050 0DD0     		beq	.L156
 300:../switch_sdk/core/fal/tiger/fal_tiger_port.c ****     HAL_FIELD_SET(PORT_CTRLm, PORT_CTRL_AN_LINK_ENf, &port_ctrl, enable);
 2163              		.loc 1 300 5 is_stmt 1 view .LVU561
 300:../switch_sdk/core/fal/tiger/fal_tiger_port.c ****     HAL_FIELD_SET(PORT_CTRLm, PORT_CTRL_AN_LINK_ENf, &port_ctrl, enable);
 2164              		.loc 1 300 5 view .LVU562
 2165 0052 05AB     		add	r3, sp, #20
 2166 0054 0093     		str	r3, [sp]
 2167 0056 0423     		movs	r3, #4
 2168 0058 3A46     		mov	r2, r7
 2169 005a 0B21     		movs	r1, #11
 2170 005c 2046     		mov	r0, r4
 2171 005e FFF7FEFF 		bl	hal_table_reg_read
 2172              	.LVL240:
 2173 0062 0028     		cmp	r0, #0
 2174 0064 36D0     		beq	.L157
 300:../switch_sdk/core/fal/tiger/fal_tiger_port.c ****     HAL_FIELD_SET(PORT_CTRLm, PORT_CTRL_AN_LINK_ENf, &port_ctrl, enable);
 2175              		.loc 1 300 5 discriminator 1 view .LVU563
 300:../switch_sdk/core/fal/tiger/fal_tiger_port.c ****     HAL_FIELD_SET(PORT_CTRLm, PORT_CTRL_AN_LINK_ENf, &port_ctrl, enable);
 2176              		.loc 1 300 5 discriminator 1 view .LVU564
 2177 0066 3B4B     		ldr	r3, .L169+8
 2178 0068 1B78     		ldrb	r3, [r3]	@ zero_extendqisi2
 2179 006a 012B     		cmp	r3, #1
 2180 006c 2AD8     		bhi	.L167
 2181              	.LVL241:
 2182              	.L156:
 315:../switch_sdk/core/fal/tiger/fal_tiger_port.c **** 
 2183              		.loc 1 315 1 is_stmt 0 view .LVU565
 2184 006e 0020     		movs	r0, #0
 2185 0070 06B0     		add	sp, sp, #24
 2186              		.cfi_remember_state
 2187              		.cfi_def_cfa_offset 24
 2188              		@ sp needed
 2189 0072 BDE8F081 		pop	{r4, r5, r6, r7, r8, pc}
 2190              	.LVL242:
 2191              	.L162:
 2192              		.cfi_restore_state
 278:../switch_sdk/core/fal/tiger/fal_tiger_port.c ****     phy_addr = CAL_YTP_TO_PHYADDR(unit, port);
 2193              		.loc 1 278 14 view .LVU566
 2194 0076 FF27     		movs	r7, #255
 2195 0078 D7E7     		b	.L153
 2196              	.LVL243:
 2197              	.L166:
 282:../switch_sdk/core/fal/tiger/fal_tiger_port.c ****     {
 2198              		.loc 1 282 33 view .LVU567
 2199 007a 22B1     		cbz	r2, .L163
 282:../switch_sdk/core/fal/tiger/fal_tiger_port.c ****     {
 2200              		.loc 1 282 33 discriminator 1 view .LVU568
 2201 007c 1A7D     		ldrb	r2, [r3, #20]	@ zero_extendqisi2
 2202 007e B242     		cmp	r2, r6
 2203 0080 1ED9     		bls	.L164
 282:../switch_sdk/core/fal/tiger/fal_tiger_port.c ****     {
 2204              		.loc 1 282 33 discriminator 3 view .LVU569
 2205 0082 0978     		ldrb	r1, [r1]	@ zero_extendqisi2
 2206 0084 00E0     		b	.L155
 2207              	.L163:
 282:../switch_sdk/core/fal/tiger/fal_tiger_port.c ****     {
 2208              		.loc 1 282 33 view .LVU570
 2209 0086 FF21     		movs	r1, #255
 2210              	.L155:
 282:../switch_sdk/core/fal/tiger/fal_tiger_port.c ****     {
 2211              		.loc 1 282 33 discriminator 6 view .LVU571
 2212 0088 D3F8B020 		ldr	r2, [r3, #176]
 2213 008c 9378     		ldrb	r3, [r2, #2]	@ zero_extendqisi2
 2214 008e 5278     		ldrb	r2, [r2, #1]	@ zero_extendqisi2
 2215 0090 1344     		add	r3, r3, r2
 281:../switch_sdk/core/fal/tiger/fal_tiger_port.c ****         CAL_PORT_TYPE_INTPHY == CAL_YTP_PORT_TYPE(unit, port))
 2216              		.loc 1 281 29 discriminator 6 view .LVU572
 2217 0092 8B42     		cmp	r3, r1
 2218 0094 D3DD     		ble	.L154
 285:../switch_sdk/core/fal/tiger/fal_tiger_port.c ****         if(!(regData & (1<<(mac_id+8))))
 2219              		.loc 1 285 9 is_stmt 1 view .LVU573
 2220 0096 03AA     		add	r2, sp, #12
 2221 0098 2F49     		ldr	r1, .L169+12
 2222 009a 2046     		mov	r0, r4
 2223              	.LVL244:
 285:../switch_sdk/core/fal/tiger/fal_tiger_port.c ****         if(!(regData & (1<<(mac_id+8))))
 2224              		.loc 1 285 9 is_stmt 0 view .LVU574
 2225 009c FFF7FEFF 		bl	hal_mem32_read
 2226              	.LVL245:
 286:../switch_sdk/core/fal/tiger/fal_tiger_port.c ****         {
 2227              		.loc 1 286 9 is_stmt 1 view .LVU575
 286:../switch_sdk/core/fal/tiger/fal_tiger_port.c ****         {
 2228              		.loc 1 286 35 is_stmt 0 view .LVU576
 2229 00a0 07F10802 		add	r2, r7, #8
 286:../switch_sdk/core/fal/tiger/fal_tiger_port.c ****         {
 2230              		.loc 1 286 26 view .LVU577
 2231 00a4 0123     		movs	r3, #1
 2232 00a6 9340     		lsls	r3, r3, r2
 286:../switch_sdk/core/fal/tiger/fal_tiger_port.c ****         {
 2233              		.loc 1 286 22 view .LVU578
 2234 00a8 039A     		ldr	r2, [sp, #12]
 286:../switch_sdk/core/fal/tiger/fal_tiger_port.c ****         {
 2235              		.loc 1 286 11 view .LVU579
 2236 00aa 1342     		tst	r3, r2
 2237 00ac C7D1     		bne	.L154
 288:../switch_sdk/core/fal/tiger/fal_tiger_port.c ****             HAL_MEM_DIRECT_WRITE(unit, 0x8002c, regData);
 2238              		.loc 1 288 13 is_stmt 1 view .LVU580
 288:../switch_sdk/core/fal/tiger/fal_tiger_port.c ****             HAL_MEM_DIRECT_WRITE(unit, 0x8002c, regData);
 2239              		.loc 1 288 31 is_stmt 0 view .LVU581
 2240 00ae 1343     		orrs	r3, r3, r2
 288:../switch_sdk/core/fal/tiger/fal_tiger_port.c ****             HAL_MEM_DIRECT_WRITE(unit, 0x8002c, regData);
 2241              		.loc 1 288 49 view .LVU582
 2242 00b0 43F0FF02 		orr	r2, r3, #255
 288:../switch_sdk/core/fal/tiger/fal_tiger_port.c ****             HAL_MEM_DIRECT_WRITE(unit, 0x8002c, regData);
 2243              		.loc 1 288 21 view .LVU583
 2244 00b4 0392     		str	r2, [sp, #12]
 289:../switch_sdk/core/fal/tiger/fal_tiger_port.c ****         }
 2245              		.loc 1 289 13 is_stmt 1 view .LVU584
 2246 00b6 2849     		ldr	r1, .L169+12
 2247 00b8 2046     		mov	r0, r4
 2248 00ba FFF7FEFF 		bl	hal_mem32_write
 2249              	.LVL246:
 2250 00be BEE7     		b	.L154
 2251              	.LVL247:
 2252              	.L164:
 282:../switch_sdk/core/fal/tiger/fal_tiger_port.c ****     {
 2253              		.loc 1 282 33 is_stmt 0 view .LVU585
 2254 00c0 FF21     		movs	r1, #255
 2255 00c2 E1E7     		b	.L155
 2256              	.LVL248:
 2257              	.L167:
 300:../switch_sdk/core/fal/tiger/fal_tiger_port.c ****     HAL_FIELD_SET(PORT_CTRLm, PORT_CTRL_AN_LINK_ENf, &port_ctrl, enable);
 2258              		.loc 1 300 5 is_stmt 1 discriminator 3 view .LVU586
 2259              	.LBB25:
 300:../switch_sdk/core/fal/tiger/fal_tiger_port.c ****     HAL_FIELD_SET(PORT_CTRLm, PORT_CTRL_AN_LINK_ENf, &port_ctrl, enable);
 2260              		.loc 1 300 5 discriminator 3 view .LVU587
 2261 00c4 254B     		ldr	r3, .L169+16
 2262 00c6 1A68     		ldr	r2, [r3]
 2263 00c8 254B     		ldr	r3, .L169+20
 2264 00ca 9968     		ldr	r1, [r3, #8]
 2265 00cc 2548     		ldr	r0, .L169+24
 2266 00ce FFF7FEFF 		bl	osal_printf
 2267              	.LVL249:
 2268              	.LBE25:
 300:../switch_sdk/core/fal/tiger/fal_tiger_port.c ****     HAL_FIELD_SET(PORT_CTRLm, PORT_CTRL_AN_LINK_ENf, &port_ctrl, enable);
 2269              		.loc 1 300 5 discriminator 3 view .LVU588
 300:../switch_sdk/core/fal/tiger/fal_tiger_port.c ****     HAL_FIELD_SET(PORT_CTRLm, PORT_CTRL_AN_LINK_ENf, &port_ctrl, enable);
 2270              		.loc 1 300 5 discriminator 3 view .LVU589
 300:../switch_sdk/core/fal/tiger/fal_tiger_port.c ****     HAL_FIELD_SET(PORT_CTRLm, PORT_CTRL_AN_LINK_ENf, &port_ctrl, enable);
 2271              		.loc 1 300 5 discriminator 3 view .LVU590
 2272 00d2 CCE7     		b	.L156
 2273              	.L157:
 300:../switch_sdk/core/fal/tiger/fal_tiger_port.c ****     HAL_FIELD_SET(PORT_CTRLm, PORT_CTRL_AN_LINK_ENf, &port_ctrl, enable);
 2274              		.loc 1 300 5 discriminator 2 view .LVU591
 301:../switch_sdk/core/fal/tiger/fal_tiger_port.c ****     HAL_FIELD_SET(PORT_CTRLm, PORT_CTRL_TXMAC_ENf, &port_ctrl, enable);
 2275              		.loc 1 301 5 discriminator 2 view .LVU592
 2276 00d4 05AE     		add	r6, sp, #20
 2277              	.LVL250:
 301:../switch_sdk/core/fal/tiger/fal_tiger_port.c ****     HAL_FIELD_SET(PORT_CTRLm, PORT_CTRL_TXMAC_ENf, &port_ctrl, enable);
 2278              		.loc 1 301 5 is_stmt 0 discriminator 2 view .LVU593
 2279 00d6 2B46     		mov	r3, r5
 2280 00d8 3246     		mov	r2, r6
 2281 00da 0121     		movs	r1, #1
 2282 00dc 0B20     		movs	r0, #11
 2283 00de FFF7FEFF 		bl	hal_tbl_reg_field_set
 2284              	.LVL251:
 302:../switch_sdk/core/fal/tiger/fal_tiger_port.c ****     HAL_FIELD_SET(PORT_CTRLm, PORT_CTRL_RXMAC_ENf, &port_ctrl, enable);
 2285              		.loc 1 302 5 is_stmt 1 discriminator 2 view .LVU594
 2286 00e2 2B46     		mov	r3, r5
 2287 00e4 3246     		mov	r2, r6
 2288 00e6 0721     		movs	r1, #7
 2289 00e8 0B20     		movs	r0, #11
 2290 00ea FFF7FEFF 		bl	hal_tbl_reg_field_set
 2291              	.LVL252:
 303:../switch_sdk/core/fal/tiger/fal_tiger_port.c ****     CMM_PARAM_CHK(HAL_TBL_REG_WRITE(unit, PORT_CTRLm, mac_id, sizeof(port_ctrl_t), &port_ctrl), ret
 2292              		.loc 1 303 5 discriminator 2 view .LVU595
 2293 00ee 2B46     		mov	r3, r5
 2294 00f0 3246     		mov	r2, r6
 2295 00f2 0621     		movs	r1, #6
 2296 00f4 0B20     		movs	r0, #11
 2297 00f6 FFF7FEFF 		bl	hal_tbl_reg_field_set
 2298              	.LVL253:
 304:../switch_sdk/core/fal/tiger/fal_tiger_port.c **** 
 2299              		.loc 1 304 5 discriminator 2 view .LVU596
 304:../switch_sdk/core/fal/tiger/fal_tiger_port.c **** 
 2300              		.loc 1 304 5 discriminator 2 view .LVU597
 2301 00fa 0096     		str	r6, [sp]
 2302 00fc 0423     		movs	r3, #4
 2303 00fe 3A46     		mov	r2, r7
 2304 0100 0B21     		movs	r1, #11
 2305 0102 2046     		mov	r0, r4
 2306 0104 FFF7FEFF 		bl	hal_table_reg_write
 2307              	.LVL254:
 2308 0108 A0B9     		cbnz	r0, .L168
 304:../switch_sdk/core/fal/tiger/fal_tiger_port.c **** 
 2309              		.loc 1 304 5 discriminator 2 view .LVU598
 306:../switch_sdk/core/fal/tiger/fal_tiger_port.c ****     {
 2310              		.loc 1 306 5 discriminator 2 view .LVU599
 306:../switch_sdk/core/fal/tiger/fal_tiger_port.c ****     {
 2311              		.loc 1 306 7 is_stmt 0 discriminator 2 view .LVU600
 2312 010a B8F1FF0F 		cmp	r8, #255
 2313 010e AED0     		beq	.L156
 308:../switch_sdk/core/fal/tiger/fal_tiger_port.c ****         {
 2314              		.loc 1 308 9 is_stmt 1 view .LVU601
 308:../switch_sdk/core/fal/tiger/fal_tiger_port.c ****         {
 2315              		.loc 1 308 12 is_stmt 0 view .LVU602
 2316 0110 C4EBC403 		rsb	r3, r4, r4, lsl #3
 2317 0114 04EB8303 		add	r3, r4, r3, lsl #2
 2318 0118 3B44     		add	r3, r3, r7
 2319 011a 134A     		ldr	r2, .L169+28
 2320 011c 02EB8303 		add	r3, r2, r3, lsl #2
 2321 0120 5B68     		ldr	r3, [r3, #4]
 308:../switch_sdk/core/fal/tiger/fal_tiger_port.c ****         {
 2322              		.loc 1 308 11 view .LVU603
 2323 0122 002B     		cmp	r3, #0
 2324 0124 A3D0     		beq	.L156
 310:../switch_sdk/core/fal/tiger/fal_tiger_port.c ****         }
 2325              		.loc 1 310 13 is_stmt 1 view .LVU604
 2326 0126 9B68     		ldr	r3, [r3, #8]
 310:../switch_sdk/core/fal/tiger/fal_tiger_port.c ****         }
 2327              		.loc 1 310 41 is_stmt 0 view .LVU605
 2328 0128 DB68     		ldr	r3, [r3, #12]
 310:../switch_sdk/core/fal/tiger/fal_tiger_port.c ****         }
 2329              		.loc 1 310 13 view .LVU606
 2330 012a 2A46     		mov	r2, r5
 2331 012c 4146     		mov	r1, r8
 2332 012e 2046     		mov	r0, r4
 2333 0130 9847     		blx	r3
 2334              	.LVL255:
 2335 0132 9CE7     		b	.L156
 2336              	.L168:
 304:../switch_sdk/core/fal/tiger/fal_tiger_port.c **** 
 2337              		.loc 1 304 5 is_stmt 1 discriminator 1 view .LVU607
 304:../switch_sdk/core/fal/tiger/fal_tiger_port.c **** 
 2338              		.loc 1 304 5 discriminator 1 view .LVU608
 2339 0134 074B     		ldr	r3, .L169+8
 2340 0136 1B78     		ldrb	r3, [r3]	@ zero_extendqisi2
 2341 0138 012B     		cmp	r3, #1
 2342 013a 98D9     		bls	.L156
 304:../switch_sdk/core/fal/tiger/fal_tiger_port.c **** 
 2343              		.loc 1 304 5 discriminator 3 view .LVU609
 2344              	.LBB26:
 304:../switch_sdk/core/fal/tiger/fal_tiger_port.c **** 
 2345              		.loc 1 304 5 discriminator 3 view .LVU610
 2346 013c 074B     		ldr	r3, .L169+16
 2347 013e 1A68     		ldr	r2, [r3]
 2348 0140 074B     		ldr	r3, .L169+20
 2349 0142 9968     		ldr	r1, [r3, #8]
 2350 0144 0748     		ldr	r0, .L169+24
 2351 0146 FFF7FEFF 		bl	osal_printf
 2352              	.LVL256:
 2353              	.LBE26:
 304:../switch_sdk/core/fal/tiger/fal_tiger_port.c **** 
 2354              		.loc 1 304 5 discriminator 3 view .LVU611
 304:../switch_sdk/core/fal/tiger/fal_tiger_port.c **** 
 2355              		.loc 1 304 5 discriminator 3 view .LVU612
 304:../switch_sdk/core/fal/tiger/fal_tiger_port.c **** 
 2356              		.loc 1 304 5 discriminator 3 view .LVU613
 2357 014a 90E7     		b	.L156
 2358              	.L170:
 2359              		.align	2
 2360              	.L169:
 2361 014c 00000000 		.word	gcal_inited
 2362 0150 00000000 		.word	gpSwitchUnit
 2363 0154 00000000 		.word	yt_debug_level
 2364 0158 2C000800 		.word	524332
 2365 015c 00000000 		.word	_yt_errmsg
 2366 0160 00000000 		.word	_yt_prompt_msg
 2367 0164 00000000 		.word	.LC14
 2368 0168 00000000 		.word	gHalCtrl
 2369              		.cfi_endproc
 2370              	.LFE9:
 2372              		.section	.rodata.fal_tiger_port_link_status_get.str1.4,"aMS",%progbits,1
 2373              		.align	2
 2374              	.LC15:
 2375 0000 68616C5F 		.ascii	"hal_table_reg_read(unit,12,mac_id,sizeof(port_statu"
 2375      7461626C 
 2375      655F7265 
 2375      675F7265 
 2375      61642875 
 2376 0033 735F7429 		.ascii	"s_t),&status)\000"
 2376      2C267374 
 2376      61747573 
 2376      2900
 2377              		.section	.text.fal_tiger_port_link_status_get,"ax",%progbits
 2378              		.align	1
 2379              		.global	fal_tiger_port_link_status_get
 2380              		.syntax unified
 2381              		.thumb
 2382              		.thumb_func
 2384              	fal_tiger_port_link_status_get:
 2385              	.LVL257:
 2386              	.LFB11:
 355:../switch_sdk/core/fal/tiger/fal_tiger_port.c **** 
 356:../switch_sdk/core/fal/tiger/fal_tiger_port.c **** yt_ret_t fal_tiger_port_link_status_get(yt_unit_t unit, yt_port_t port, yt_port_link_status_t *pLin
 357:../switch_sdk/core/fal/tiger/fal_tiger_port.c **** {
 2387              		.loc 1 357 1 view -0
 2388              		.cfi_startproc
 2389              		@ args = 0, pretend = 0, frame = 8
 2390              		@ frame_needed = 0, uses_anonymous_args = 0
 2391              		.loc 1 357 1 is_stmt 0 view .LVU615
 2392 0000 F0B5     		push	{r4, r5, r6, r7, lr}
 2393              		.cfi_def_cfa_offset 20
 2394              		.cfi_offset 4, -20
 2395              		.cfi_offset 5, -16
 2396              		.cfi_offset 6, -12
 2397              		.cfi_offset 7, -8
 2398              		.cfi_offset 14, -4
 2399 0002 85B0     		sub	sp, sp, #20
 2400              		.cfi_def_cfa_offset 40
 2401 0004 0546     		mov	r5, r0
 2402 0006 1646     		mov	r6, r2
 358:../switch_sdk/core/fal/tiger/fal_tiger_port.c ****     cmm_err_t ret = CMM_ERR_OK;
 2403              		.loc 1 358 5 is_stmt 1 view .LVU616
 2404              	.LVL258:
 359:../switch_sdk/core/fal/tiger/fal_tiger_port.c ****     port_status_t   status;
 2405              		.loc 1 359 5 view .LVU617
 360:../switch_sdk/core/fal/tiger/fal_tiger_port.c ****     yt_macid_t mac_id;
 2406              		.loc 1 360 5 view .LVU618
 361:../switch_sdk/core/fal/tiger/fal_tiger_port.c **** 
 362:../switch_sdk/core/fal/tiger/fal_tiger_port.c ****     mac_id = CAL_YTP_TO_MAC(unit,port);
 2407              		.loc 1 362 5 view .LVU619
 2408              		.loc 1 362 14 is_stmt 0 view .LVU620
 2409 0008 214B     		ldr	r3, .L180
 2410 000a 1B78     		ldrb	r3, [r3]	@ zero_extendqisi2
 2411 000c 53B1     		cbz	r3, .L176
 2412              		.loc 1 362 14 discriminator 1 view .LVU621
 2413 000e 214B     		ldr	r3, .L180+4
 2414 0010 53F82030 		ldr	r3, [r3, r0, lsl #2]
 2415 0014 1A7D     		ldrb	r2, [r3, #20]	@ zero_extendqisi2
 2416              	.LVL259:
 2417              		.loc 1 362 14 discriminator 1 view .LVU622
 2418 0016 8A42     		cmp	r2, r1
 2419 0018 1DD9     		bls	.L177
 2420              		.loc 1 362 14 discriminator 3 view .LVU623
 2421 001a 0631     		adds	r1, r1, #6
 2422              	.LVL260:
 2423              		.loc 1 362 14 discriminator 3 view .LVU624
 2424 001c 53F82130 		ldr	r3, [r3, r1, lsl #2]
 2425 0020 1F78     		ldrb	r7, [r3]	@ zero_extendqisi2
 2426 0022 00E0     		b	.L172
 2427              	.LVL261:
 2428              	.L176:
 2429              		.loc 1 362 14 view .LVU625
 2430 0024 FF27     		movs	r7, #255
 2431              	.LVL262:
 2432              	.L172:
 363:../switch_sdk/core/fal/tiger/fal_tiger_port.c ****     osal_memset(&status, 0, sizeof(port_status_t));
 2433              		.loc 1 363 5 is_stmt 1 discriminator 6 view .LVU626
 2434 0026 03AC     		add	r4, sp, #12
 2435 0028 0422     		movs	r2, #4
 2436 002a 0021     		movs	r1, #0
 2437 002c 2046     		mov	r0, r4
 2438              	.LVL263:
 2439              		.loc 1 363 5 is_stmt 0 discriminator 6 view .LVU627
 2440 002e FFF7FEFF 		bl	osal_memset
 2441              	.LVL264:
 364:../switch_sdk/core/fal/tiger/fal_tiger_port.c ****     
 365:../switch_sdk/core/fal/tiger/fal_tiger_port.c ****     CMM_ERR_CHK(HAL_TBL_REG_READ(unit, PORT_STATUSm, mac_id, sizeof(port_status_t), &status), ret);
 2442              		.loc 1 365 5 is_stmt 1 discriminator 6 view .LVU628
 2443              		.loc 1 365 5 discriminator 6 view .LVU629
 2444 0032 0094     		str	r4, [sp]
 2445 0034 0423     		movs	r3, #4
 2446 0036 3A46     		mov	r2, r7
 2447 0038 0C21     		movs	r1, #12
 2448 003a 2846     		mov	r0, r5
 2449 003c FFF7FEFF 		bl	hal_table_reg_read
 2450              	.LVL265:
 2451 0040 0446     		mov	r4, r0
 2452              	.LVL266:
 2453              		.loc 1 365 5 is_stmt 0 discriminator 6 view .LVU630
 2454 0042 10F0FF03 		ands	r3, r0, #255
 2455 0046 18D0     		beq	.L173
 2456              		.loc 1 365 5 is_stmt 1 discriminator 1 view .LVU631
 2457              		.loc 1 365 5 discriminator 1 view .LVU632
 2458 0048 134A     		ldr	r2, .L180+8
 2459 004a 1278     		ldrb	r2, [r2]	@ zero_extendqisi2
 2460 004c 012A     		cmp	r2, #1
 2461 004e 04D8     		bhi	.L179
 2462              	.LVL267:
 2463              	.L174:
 2464              		.loc 1 365 5 discriminator 5 view .LVU633
 2465              		.loc 1 365 5 discriminator 5 view .LVU634
 2466              		.loc 1 365 5 discriminator 5 view .LVU635
 2467 0050 E0B2     		uxtb	r0, r4
 2468              	.L171:
 366:../switch_sdk/core/fal/tiger/fal_tiger_port.c ****     HAL_FIELD_GET(PORT_STATUSm, PORT_STATUS_LINKf, &status, pLinkStatus);
 367:../switch_sdk/core/fal/tiger/fal_tiger_port.c **** 
 368:../switch_sdk/core/fal/tiger/fal_tiger_port.c ****     return CMM_ERR_OK;
 369:../switch_sdk/core/fal/tiger/fal_tiger_port.c **** }
 2469              		.loc 1 369 1 is_stmt 0 view .LVU636
 2470 0052 05B0     		add	sp, sp, #20
 2471              		.cfi_remember_state
 2472              		.cfi_def_cfa_offset 20
 2473              		@ sp needed
 2474 0054 F0BD     		pop	{r4, r5, r6, r7, pc}
 2475              	.LVL268:
 2476              	.L177:
 2477              		.cfi_restore_state
 362:../switch_sdk/core/fal/tiger/fal_tiger_port.c ****     osal_memset(&status, 0, sizeof(port_status_t));
 2478              		.loc 1 362 14 view .LVU637
 2479 0056 FF27     		movs	r7, #255
 2480 0058 E5E7     		b	.L172
 2481              	.LVL269:
 2482              	.L179:
 365:../switch_sdk/core/fal/tiger/fal_tiger_port.c ****     HAL_FIELD_GET(PORT_STATUSm, PORT_STATUS_LINKf, &status, pLinkStatus);
 2483              		.loc 1 365 5 is_stmt 1 discriminator 3 view .LVU638
 2484              	.LBB27:
 365:../switch_sdk/core/fal/tiger/fal_tiger_port.c ****     HAL_FIELD_GET(PORT_STATUSm, PORT_STATUS_LINKf, &status, pLinkStatus);
 2485              		.loc 1 365 5 discriminator 3 view .LVU639
 2486 005a 142B     		cmp	r3, #20
 2487 005c 28BF     		it	cs
 2488 005e 1423     		movcs	r3, #20
 2489 0060 1A46     		mov	r2, r3
 2490 0062 0E4B     		ldr	r3, .L180+12
 2491 0064 0093     		str	r3, [sp]
 2492 0066 0E4B     		ldr	r3, .L180+16
 2493 0068 0E49     		ldr	r1, .L180+20
 2494 006a 51F82220 		ldr	r2, [r1, r2, lsl #2]
 2495 006e 0E49     		ldr	r1, .L180+24
 2496 0070 8968     		ldr	r1, [r1, #8]
 2497 0072 0E48     		ldr	r0, .L180+28
 2498              	.LVL270:
 365:../switch_sdk/core/fal/tiger/fal_tiger_port.c ****     HAL_FIELD_GET(PORT_STATUSm, PORT_STATUS_LINKf, &status, pLinkStatus);
 2499              		.loc 1 365 5 is_stmt 0 discriminator 3 view .LVU640
 2500 0074 FFF7FEFF 		bl	osal_printf
 2501              	.LVL271:
 2502 0078 EAE7     		b	.L174
 2503              	.LVL272:
 2504              	.L173:
 365:../switch_sdk/core/fal/tiger/fal_tiger_port.c ****     HAL_FIELD_GET(PORT_STATUSm, PORT_STATUS_LINKf, &status, pLinkStatus);
 2505              		.loc 1 365 5 discriminator 3 view .LVU641
 2506              	.LBE27:
 365:../switch_sdk/core/fal/tiger/fal_tiger_port.c ****     HAL_FIELD_GET(PORT_STATUSm, PORT_STATUS_LINKf, &status, pLinkStatus);
 2507              		.loc 1 365 5 is_stmt 1 discriminator 2 view .LVU642
 366:../switch_sdk/core/fal/tiger/fal_tiger_port.c ****     HAL_FIELD_GET(PORT_STATUSm, PORT_STATUS_LINKf, &status, pLinkStatus);
 2508              		.loc 1 366 5 discriminator 2 view .LVU643
 2509              	.LBB28:
 366:../switch_sdk/core/fal/tiger/fal_tiger_port.c ****     HAL_FIELD_GET(PORT_STATUSm, PORT_STATUS_LINKf, &status, pLinkStatus);
 2510              		.loc 1 366 5 discriminator 2 view .LVU644
 366:../switch_sdk/core/fal/tiger/fal_tiger_port.c ****     HAL_FIELD_GET(PORT_STATUSm, PORT_STATUS_LINKf, &status, pLinkStatus);
 2511              		.loc 1 366 5 discriminator 2 view .LVU645
 2512 007a 02AB     		add	r3, sp, #8
 2513 007c 03AA     		add	r2, sp, #12
 2514 007e 0021     		movs	r1, #0
 2515 0080 0C20     		movs	r0, #12
 2516              	.LVL273:
 366:../switch_sdk/core/fal/tiger/fal_tiger_port.c ****     HAL_FIELD_GET(PORT_STATUSm, PORT_STATUS_LINKf, &status, pLinkStatus);
 2517              		.loc 1 366 5 is_stmt 0 discriminator 2 view .LVU646
 2518 0082 FFF7FEFF 		bl	hal_tbl_reg_field_get
 2519              	.LVL274:
 366:../switch_sdk/core/fal/tiger/fal_tiger_port.c ****     HAL_FIELD_GET(PORT_STATUSm, PORT_STATUS_LINKf, &status, pLinkStatus);
 2520              		.loc 1 366 5 is_stmt 1 discriminator 2 view .LVU647
 2521 0086 029B     		ldr	r3, [sp, #8]
 2522 0088 3370     		strb	r3, [r6]
 2523              	.LBE28:
 366:../switch_sdk/core/fal/tiger/fal_tiger_port.c ****     HAL_FIELD_GET(PORT_STATUSm, PORT_STATUS_LINKf, &status, pLinkStatus);
 2524              		.loc 1 366 5 discriminator 2 view .LVU648
 368:../switch_sdk/core/fal/tiger/fal_tiger_port.c **** }
 2525              		.loc 1 368 5 discriminator 2 view .LVU649
 368:../switch_sdk/core/fal/tiger/fal_tiger_port.c **** }
 2526              		.loc 1 368 12 is_stmt 0 discriminator 2 view .LVU650
 2527 008a 0020     		movs	r0, #0
 2528 008c E1E7     		b	.L171
 2529              	.L181:
 2530 008e 00BF     		.align	2
 2531              	.L180:
 2532 0090 00000000 		.word	gcal_inited
 2533 0094 00000000 		.word	gpSwitchUnit
 2534 0098 00000000 		.word	yt_debug_level
 2535 009c 00000000 		.word	__FUNCTION__.34
 2536 00a0 00000000 		.word	.LC15
 2537 00a4 00000000 		.word	_yt_errmsg
 2538 00a8 00000000 		.word	_yt_prompt_msg
 2539 00ac 34000000 		.word	.LC1
 2540              		.cfi_endproc
 2541              	.LFE11:
 2543              		.section	.rodata.fal_tiger_port_link_status_all_get.str1.4,"aMS",%progbits,1
 2544              		.align	2
 2545              	.LC16:
 2546 0000 68616C5F 		.ascii	"hal_table_reg_read(unit,12,mac_id,sizeof(port_statu"
 2546      7461626C 
 2546      655F7265 
 2546      675F7265 
 2546      61642875 
 2547 0033 735F7429 		.ascii	"s_t),&port_status)\000"
 2547      2C26706F 
 2547      72745F73 
 2547      74617475 
 2547      732900
 2548              		.section	.text.fal_tiger_port_link_status_all_get,"ax",%progbits
 2549              		.align	1
 2550              		.global	fal_tiger_port_link_status_all_get
 2551              		.syntax unified
 2552              		.thumb
 2553              		.thumb_func
 2555              	fal_tiger_port_link_status_all_get:
 2556              	.LVL275:
 2557              	.LFB12:
 370:../switch_sdk/core/fal/tiger/fal_tiger_port.c **** 
 371:../switch_sdk/core/fal/tiger/fal_tiger_port.c **** yt_ret_t fal_tiger_port_link_status_all_get(yt_unit_t unit, yt_port_t port, yt_port_linkStatus_all_
 372:../switch_sdk/core/fal/tiger/fal_tiger_port.c **** {
 2558              		.loc 1 372 1 is_stmt 1 view -0
 2559              		.cfi_startproc
 2560              		@ args = 0, pretend = 0, frame = 8
 2561              		@ frame_needed = 0, uses_anonymous_args = 0
 2562              		.loc 1 372 1 is_stmt 0 view .LVU652
 2563 0000 F0B5     		push	{r4, r5, r6, r7, lr}
 2564              		.cfi_def_cfa_offset 20
 2565              		.cfi_offset 4, -20
 2566              		.cfi_offset 5, -16
 2567              		.cfi_offset 6, -12
 2568              		.cfi_offset 7, -8
 2569              		.cfi_offset 14, -4
 2570 0002 85B0     		sub	sp, sp, #20
 2571              		.cfi_def_cfa_offset 40
 2572 0004 0646     		mov	r6, r0
 2573 0006 1546     		mov	r5, r2
 373:../switch_sdk/core/fal/tiger/fal_tiger_port.c ****     cmm_err_t ret = CMM_ERR_OK;
 2574              		.loc 1 373 5 is_stmt 1 view .LVU653
 2575              	.LVL276:
 374:../switch_sdk/core/fal/tiger/fal_tiger_port.c ****     port_status_t   port_status;
 2576              		.loc 1 374 5 view .LVU654
 375:../switch_sdk/core/fal/tiger/fal_tiger_port.c ****     yt_macid_t mac_id;
 2577              		.loc 1 375 5 view .LVU655
 376:../switch_sdk/core/fal/tiger/fal_tiger_port.c **** 
 377:../switch_sdk/core/fal/tiger/fal_tiger_port.c ****     mac_id = CAL_YTP_TO_MAC(unit,port);
 2578              		.loc 1 377 5 view .LVU656
 2579              		.loc 1 377 14 is_stmt 0 view .LVU657
 2580 0008 374B     		ldr	r3, .L193
 2581 000a 1B78     		ldrb	r3, [r3]	@ zero_extendqisi2
 2582 000c 53B1     		cbz	r3, .L187
 2583              		.loc 1 377 14 discriminator 1 view .LVU658
 2584 000e 374B     		ldr	r3, .L193+4
 2585 0010 53F82030 		ldr	r3, [r3, r0, lsl #2]
 2586 0014 1A7D     		ldrb	r2, [r3, #20]	@ zero_extendqisi2
 2587              	.LVL277:
 2588              		.loc 1 377 14 discriminator 1 view .LVU659
 2589 0016 8A42     		cmp	r2, r1
 2590 0018 1DD9     		bls	.L188
 2591              		.loc 1 377 14 discriminator 3 view .LVU660
 2592 001a 0631     		adds	r1, r1, #6
 2593              	.LVL278:
 2594              		.loc 1 377 14 discriminator 3 view .LVU661
 2595 001c 53F82130 		ldr	r3, [r3, r1, lsl #2]
 2596 0020 1F78     		ldrb	r7, [r3]	@ zero_extendqisi2
 2597 0022 00E0     		b	.L183
 2598              	.LVL279:
 2599              	.L187:
 2600              		.loc 1 377 14 view .LVU662
 2601 0024 FF27     		movs	r7, #255
 2602              	.LVL280:
 2603              	.L183:
 378:../switch_sdk/core/fal/tiger/fal_tiger_port.c ****     osal_memset(&port_status, 0, sizeof(port_status_t));
 2604              		.loc 1 378 5 is_stmt 1 discriminator 6 view .LVU663
 2605 0026 03AC     		add	r4, sp, #12
 2606 0028 0422     		movs	r2, #4
 2607 002a 0021     		movs	r1, #0
 2608 002c 2046     		mov	r0, r4
 2609              	.LVL281:
 2610              		.loc 1 378 5 is_stmt 0 discriminator 6 view .LVU664
 2611 002e FFF7FEFF 		bl	osal_memset
 2612              	.LVL282:
 379:../switch_sdk/core/fal/tiger/fal_tiger_port.c ****     
 380:../switch_sdk/core/fal/tiger/fal_tiger_port.c ****     CMM_ERR_CHK(HAL_TBL_REG_READ(unit, PORT_STATUSm, mac_id, sizeof(port_status_t), &port_status), 
 2613              		.loc 1 380 5 is_stmt 1 discriminator 6 view .LVU665
 2614              		.loc 1 380 5 discriminator 6 view .LVU666
 2615 0032 0094     		str	r4, [sp]
 2616 0034 0423     		movs	r3, #4
 2617 0036 3A46     		mov	r2, r7
 2618 0038 0C21     		movs	r1, #12
 2619 003a 3046     		mov	r0, r6
 2620 003c FFF7FEFF 		bl	hal_table_reg_read
 2621              	.LVL283:
 2622 0040 0446     		mov	r4, r0
 2623              	.LVL284:
 2624              		.loc 1 380 5 is_stmt 0 discriminator 6 view .LVU667
 2625 0042 10F0FF03 		ands	r3, r0, #255
 2626 0046 18D0     		beq	.L184
 2627              		.loc 1 380 5 is_stmt 1 discriminator 1 view .LVU668
 2628              		.loc 1 380 5 discriminator 1 view .LVU669
 2629 0048 294A     		ldr	r2, .L193+8
 2630 004a 1278     		ldrb	r2, [r2]	@ zero_extendqisi2
 2631 004c 012A     		cmp	r2, #1
 2632 004e 04D8     		bhi	.L191
 2633              	.LVL285:
 2634              	.L185:
 2635              		.loc 1 380 5 discriminator 5 view .LVU670
 2636              		.loc 1 380 5 discriminator 5 view .LVU671
 2637              		.loc 1 380 5 discriminator 5 view .LVU672
 2638 0050 E0B2     		uxtb	r0, r4
 2639              	.L182:
 381:../switch_sdk/core/fal/tiger/fal_tiger_port.c **** 
 382:../switch_sdk/core/fal/tiger/fal_tiger_port.c ****     HAL_FIELD_GET(PORT_STATUSm, PORT_STATUS_LINKf, &port_status, &pAllLinkStatus->link_status);
 383:../switch_sdk/core/fal/tiger/fal_tiger_port.c ****     HAL_FIELD_GET(PORT_STATUSm, PORT_STATUS_SPEED_MODEf, &port_status, &pAllLinkStatus->link_speed)
 384:../switch_sdk/core/fal/tiger/fal_tiger_port.c ****     HAL_FIELD_GET(PORT_STATUSm, PORT_STATUS_DUPLEX_MODEf, &port_status, &pAllLinkStatus->link_duple
 385:../switch_sdk/core/fal/tiger/fal_tiger_port.c ****     HAL_FIELD_GET(PORT_STATUSm, PORT_STATUS_RX_FC_ENf, &port_status, &pAllLinkStatus->rx_fc_en);
 386:../switch_sdk/core/fal/tiger/fal_tiger_port.c ****     HAL_FIELD_GET(PORT_STATUSm, PORT_STATUS_TX_FC_ENf, &port_status, &pAllLinkStatus->tx_fc_en);
 387:../switch_sdk/core/fal/tiger/fal_tiger_port.c **** 
 388:../switch_sdk/core/fal/tiger/fal_tiger_port.c ****     /*b100 for mac and sds 2.5g*/
 389:../switch_sdk/core/fal/tiger/fal_tiger_port.c ****     if((yt_port_speed_mode_t)pAllLinkStatus->link_speed == PORT_SPEED_MODE_2500M)
 390:../switch_sdk/core/fal/tiger/fal_tiger_port.c ****     {
 391:../switch_sdk/core/fal/tiger/fal_tiger_port.c ****         pAllLinkStatus->link_speed = PORT_SPEED_2500M;
 392:../switch_sdk/core/fal/tiger/fal_tiger_port.c ****     }
 393:../switch_sdk/core/fal/tiger/fal_tiger_port.c **** 
 394:../switch_sdk/core/fal/tiger/fal_tiger_port.c ****     return CMM_ERR_OK;
 395:../switch_sdk/core/fal/tiger/fal_tiger_port.c **** }
 2640              		.loc 1 395 1 is_stmt 0 view .LVU673
 2641 0052 05B0     		add	sp, sp, #20
 2642              		.cfi_remember_state
 2643              		.cfi_def_cfa_offset 20
 2644              		@ sp needed
 2645 0054 F0BD     		pop	{r4, r5, r6, r7, pc}
 2646              	.LVL286:
 2647              	.L188:
 2648              		.cfi_restore_state
 377:../switch_sdk/core/fal/tiger/fal_tiger_port.c ****     osal_memset(&port_status, 0, sizeof(port_status_t));
 2649              		.loc 1 377 14 view .LVU674
 2650 0056 FF27     		movs	r7, #255
 2651 0058 E5E7     		b	.L183
 2652              	.LVL287:
 2653              	.L191:
 380:../switch_sdk/core/fal/tiger/fal_tiger_port.c **** 
 2654              		.loc 1 380 5 is_stmt 1 discriminator 3 view .LVU675
 2655              	.LBB29:
 380:../switch_sdk/core/fal/tiger/fal_tiger_port.c **** 
 2656              		.loc 1 380 5 discriminator 3 view .LVU676
 2657 005a 142B     		cmp	r3, #20
 2658 005c 28BF     		it	cs
 2659 005e 1423     		movcs	r3, #20
 2660 0060 1A46     		mov	r2, r3
 2661 0062 244B     		ldr	r3, .L193+12
 2662 0064 0093     		str	r3, [sp]
 2663 0066 244B     		ldr	r3, .L193+16
 2664 0068 2449     		ldr	r1, .L193+20
 2665 006a 51F82220 		ldr	r2, [r1, r2, lsl #2]
 2666 006e 2449     		ldr	r1, .L193+24
 2667 0070 8968     		ldr	r1, [r1, #8]
 2668 0072 2448     		ldr	r0, .L193+28
 2669              	.LVL288:
 380:../switch_sdk/core/fal/tiger/fal_tiger_port.c **** 
 2670              		.loc 1 380 5 is_stmt 0 discriminator 3 view .LVU677
 2671 0074 FFF7FEFF 		bl	osal_printf
 2672              	.LVL289:
 2673 0078 EAE7     		b	.L185
 2674              	.LVL290:
 2675              	.L184:
 380:../switch_sdk/core/fal/tiger/fal_tiger_port.c **** 
 2676              		.loc 1 380 5 discriminator 3 view .LVU678
 2677              	.LBE29:
 380:../switch_sdk/core/fal/tiger/fal_tiger_port.c **** 
 2678              		.loc 1 380 5 is_stmt 1 discriminator 2 view .LVU679
 382:../switch_sdk/core/fal/tiger/fal_tiger_port.c ****     HAL_FIELD_GET(PORT_STATUSm, PORT_STATUS_SPEED_MODEf, &port_status, &pAllLinkStatus->link_speed)
 2679              		.loc 1 382 5 discriminator 2 view .LVU680
 2680              	.LBB30:
 382:../switch_sdk/core/fal/tiger/fal_tiger_port.c ****     HAL_FIELD_GET(PORT_STATUSm, PORT_STATUS_SPEED_MODEf, &port_status, &pAllLinkStatus->link_speed)
 2681              		.loc 1 382 5 discriminator 2 view .LVU681
 382:../switch_sdk/core/fal/tiger/fal_tiger_port.c ****     HAL_FIELD_GET(PORT_STATUSm, PORT_STATUS_SPEED_MODEf, &port_status, &pAllLinkStatus->link_speed)
 2682              		.loc 1 382 5 discriminator 2 view .LVU682
 2683 007a 02AB     		add	r3, sp, #8
 2684 007c 03AA     		add	r2, sp, #12
 2685 007e 0021     		movs	r1, #0
 2686 0080 0C20     		movs	r0, #12
 2687              	.LVL291:
 382:../switch_sdk/core/fal/tiger/fal_tiger_port.c ****     HAL_FIELD_GET(PORT_STATUSm, PORT_STATUS_SPEED_MODEf, &port_status, &pAllLinkStatus->link_speed)
 2688              		.loc 1 382 5 is_stmt 0 discriminator 2 view .LVU683
 2689 0082 FFF7FEFF 		bl	hal_tbl_reg_field_get
 2690              	.LVL292:
 382:../switch_sdk/core/fal/tiger/fal_tiger_port.c ****     HAL_FIELD_GET(PORT_STATUSm, PORT_STATUS_SPEED_MODEf, &port_status, &pAllLinkStatus->link_speed)
 2691              		.loc 1 382 5 is_stmt 1 discriminator 2 view .LVU684
 2692 0086 029B     		ldr	r3, [sp, #8]
 2693 0088 2B70     		strb	r3, [r5]
 2694              	.LBE30:
 382:../switch_sdk/core/fal/tiger/fal_tiger_port.c ****     HAL_FIELD_GET(PORT_STATUSm, PORT_STATUS_SPEED_MODEf, &port_status, &pAllLinkStatus->link_speed)
 2695              		.loc 1 382 5 discriminator 2 view .LVU685
 383:../switch_sdk/core/fal/tiger/fal_tiger_port.c ****     HAL_FIELD_GET(PORT_STATUSm, PORT_STATUS_DUPLEX_MODEf, &port_status, &pAllLinkStatus->link_duple
 2696              		.loc 1 383 5 discriminator 2 view .LVU686
 2697              	.LBB31:
 383:../switch_sdk/core/fal/tiger/fal_tiger_port.c ****     HAL_FIELD_GET(PORT_STATUSm, PORT_STATUS_DUPLEX_MODEf, &port_status, &pAllLinkStatus->link_duple
 2698              		.loc 1 383 5 discriminator 2 view .LVU687
 383:../switch_sdk/core/fal/tiger/fal_tiger_port.c ****     HAL_FIELD_GET(PORT_STATUSm, PORT_STATUS_DUPLEX_MODEf, &port_status, &pAllLinkStatus->link_duple
 2699              		.loc 1 383 5 discriminator 2 view .LVU688
 2700 008a 02AB     		add	r3, sp, #8
 2701 008c 03AA     		add	r2, sp, #12
 2702 008e 0621     		movs	r1, #6
 2703 0090 0C20     		movs	r0, #12
 2704 0092 FFF7FEFF 		bl	hal_tbl_reg_field_get
 2705              	.LVL293:
 383:../switch_sdk/core/fal/tiger/fal_tiger_port.c ****     HAL_FIELD_GET(PORT_STATUSm, PORT_STATUS_DUPLEX_MODEf, &port_status, &pAllLinkStatus->link_duple
 2706              		.loc 1 383 5 discriminator 2 view .LVU689
 2707 0096 029B     		ldr	r3, [sp, #8]
 2708 0098 6B70     		strb	r3, [r5, #1]
 2709              	.LBE31:
 383:../switch_sdk/core/fal/tiger/fal_tiger_port.c ****     HAL_FIELD_GET(PORT_STATUSm, PORT_STATUS_DUPLEX_MODEf, &port_status, &pAllLinkStatus->link_duple
 2710              		.loc 1 383 5 discriminator 2 view .LVU690
 384:../switch_sdk/core/fal/tiger/fal_tiger_port.c ****     HAL_FIELD_GET(PORT_STATUSm, PORT_STATUS_RX_FC_ENf, &port_status, &pAllLinkStatus->rx_fc_en);
 2711              		.loc 1 384 5 discriminator 2 view .LVU691
 2712              	.LBB32:
 384:../switch_sdk/core/fal/tiger/fal_tiger_port.c ****     HAL_FIELD_GET(PORT_STATUSm, PORT_STATUS_RX_FC_ENf, &port_status, &pAllLinkStatus->rx_fc_en);
 2713              		.loc 1 384 5 discriminator 2 view .LVU692
 384:../switch_sdk/core/fal/tiger/fal_tiger_port.c ****     HAL_FIELD_GET(PORT_STATUSm, PORT_STATUS_RX_FC_ENf, &port_status, &pAllLinkStatus->rx_fc_en);
 2714              		.loc 1 384 5 discriminator 2 view .LVU693
 2715 009a 02AB     		add	r3, sp, #8
 2716 009c 03AA     		add	r2, sp, #12
 2717 009e 0121     		movs	r1, #1
 2718 00a0 0C20     		movs	r0, #12
 2719 00a2 FFF7FEFF 		bl	hal_tbl_reg_field_get
 2720              	.LVL294:
 384:../switch_sdk/core/fal/tiger/fal_tiger_port.c ****     HAL_FIELD_GET(PORT_STATUSm, PORT_STATUS_RX_FC_ENf, &port_status, &pAllLinkStatus->rx_fc_en);
 2721              		.loc 1 384 5 discriminator 2 view .LVU694
 2722 00a6 029B     		ldr	r3, [sp, #8]
 2723 00a8 AB70     		strb	r3, [r5, #2]
 2724              	.LBE32:
 384:../switch_sdk/core/fal/tiger/fal_tiger_port.c ****     HAL_FIELD_GET(PORT_STATUSm, PORT_STATUS_RX_FC_ENf, &port_status, &pAllLinkStatus->rx_fc_en);
 2725              		.loc 1 384 5 discriminator 2 view .LVU695
 385:../switch_sdk/core/fal/tiger/fal_tiger_port.c ****     HAL_FIELD_GET(PORT_STATUSm, PORT_STATUS_TX_FC_ENf, &port_status, &pAllLinkStatus->tx_fc_en);
 2726              		.loc 1 385 5 discriminator 2 view .LVU696
 2727              	.LBB33:
 385:../switch_sdk/core/fal/tiger/fal_tiger_port.c ****     HAL_FIELD_GET(PORT_STATUSm, PORT_STATUS_TX_FC_ENf, &port_status, &pAllLinkStatus->tx_fc_en);
 2728              		.loc 1 385 5 discriminator 2 view .LVU697
 385:../switch_sdk/core/fal/tiger/fal_tiger_port.c ****     HAL_FIELD_GET(PORT_STATUSm, PORT_STATUS_TX_FC_ENf, &port_status, &pAllLinkStatus->tx_fc_en);
 2729              		.loc 1 385 5 discriminator 2 view .LVU698
 2730 00aa 02AB     		add	r3, sp, #8
 2731 00ac 03AA     		add	r2, sp, #12
 2732 00ae 0221     		movs	r1, #2
 2733 00b0 0C20     		movs	r0, #12
 2734 00b2 FFF7FEFF 		bl	hal_tbl_reg_field_get
 2735              	.LVL295:
 385:../switch_sdk/core/fal/tiger/fal_tiger_port.c ****     HAL_FIELD_GET(PORT_STATUSm, PORT_STATUS_TX_FC_ENf, &port_status, &pAllLinkStatus->tx_fc_en);
 2736              		.loc 1 385 5 discriminator 2 view .LVU699
 2737 00b6 029B     		ldr	r3, [sp, #8]
 2738 00b8 003B     		subs	r3, r3, #0
 2739 00ba 18BF     		it	ne
 2740 00bc 0123     		movne	r3, #1
 2741 00be EB70     		strb	r3, [r5, #3]
 2742              	.LBE33:
 385:../switch_sdk/core/fal/tiger/fal_tiger_port.c ****     HAL_FIELD_GET(PORT_STATUSm, PORT_STATUS_TX_FC_ENf, &port_status, &pAllLinkStatus->tx_fc_en);
 2743              		.loc 1 385 5 discriminator 2 view .LVU700
 386:../switch_sdk/core/fal/tiger/fal_tiger_port.c **** 
 2744              		.loc 1 386 5 discriminator 2 view .LVU701
 2745              	.LBB34:
 386:../switch_sdk/core/fal/tiger/fal_tiger_port.c **** 
 2746              		.loc 1 386 5 discriminator 2 view .LVU702
 386:../switch_sdk/core/fal/tiger/fal_tiger_port.c **** 
 2747              		.loc 1 386 5 discriminator 2 view .LVU703
 2748 00c0 02AB     		add	r3, sp, #8
 2749 00c2 03AA     		add	r2, sp, #12
 2750 00c4 0321     		movs	r1, #3
 2751 00c6 0C20     		movs	r0, #12
 2752 00c8 FFF7FEFF 		bl	hal_tbl_reg_field_get
 2753              	.LVL296:
 386:../switch_sdk/core/fal/tiger/fal_tiger_port.c **** 
 2754              		.loc 1 386 5 discriminator 2 view .LVU704
 2755 00cc 029B     		ldr	r3, [sp, #8]
 2756 00ce 003B     		subs	r3, r3, #0
 2757 00d0 18BF     		it	ne
 2758 00d2 0123     		movne	r3, #1
 2759 00d4 2B71     		strb	r3, [r5, #4]
 2760              	.LBE34:
 386:../switch_sdk/core/fal/tiger/fal_tiger_port.c **** 
 2761              		.loc 1 386 5 discriminator 2 view .LVU705
 389:../switch_sdk/core/fal/tiger/fal_tiger_port.c ****     {
 2762              		.loc 1 389 5 discriminator 2 view .LVU706
 389:../switch_sdk/core/fal/tiger/fal_tiger_port.c ****     {
 2763              		.loc 1 389 44 is_stmt 0 discriminator 2 view .LVU707
 2764 00d6 6B78     		ldrb	r3, [r5, #1]	@ zero_extendqisi2
 389:../switch_sdk/core/fal/tiger/fal_tiger_port.c ****     {
 2765              		.loc 1 389 7 discriminator 2 view .LVU708
 2766 00d8 042B     		cmp	r3, #4
 2767 00da 01D0     		beq	.L192
 394:../switch_sdk/core/fal/tiger/fal_tiger_port.c **** }
 2768              		.loc 1 394 12 view .LVU709
 2769 00dc 0020     		movs	r0, #0
 2770 00de B8E7     		b	.L182
 2771              	.L192:
 391:../switch_sdk/core/fal/tiger/fal_tiger_port.c ****     }
 2772              		.loc 1 391 9 is_stmt 1 view .LVU710
 391:../switch_sdk/core/fal/tiger/fal_tiger_port.c ****     }
 2773              		.loc 1 391 36 is_stmt 0 view .LVU711
 2774 00e0 0323     		movs	r3, #3
 2775 00e2 6B70     		strb	r3, [r5, #1]
 394:../switch_sdk/core/fal/tiger/fal_tiger_port.c **** }
 2776              		.loc 1 394 12 view .LVU712
 2777 00e4 0020     		movs	r0, #0
 2778 00e6 B4E7     		b	.L182
 2779              	.L194:
 2780              		.align	2
 2781              	.L193:
 2782 00e8 00000000 		.word	gcal_inited
 2783 00ec 00000000 		.word	gpSwitchUnit
 2784 00f0 00000000 		.word	yt_debug_level
 2785 00f4 00000000 		.word	__FUNCTION__.33
 2786 00f8 00000000 		.word	.LC16
 2787 00fc 00000000 		.word	_yt_errmsg
 2788 0100 00000000 		.word	_yt_prompt_msg
 2789 0104 34000000 		.word	.LC1
 2790              		.cfi_endproc
 2791              	.LFE12:
 2793              		.section	.rodata.fal_tiger_port_backpress_enable_set.str1.4,"aMS",%progbits,1
 2794              		.align	2
 2795              	.LC17:
 2796 0000 68616C5F 		.ascii	"hal_table_reg_read(unit,11,port_mac_id,sizeof(port_"
 2796      7461626C 
 2796      655F7265 
 2796      675F7265 
 2796      61642875 
 2797 0033 6374726C 		.ascii	"ctrl_t),&port_ctrl)\000"
 2797      5F74292C 
 2797      26706F72 
 2797      745F6374 
 2797      726C2900 
 2798 0047 00       		.align	2
 2799              	.LC18:
 2800 0048 68616C5F 		.ascii	"hal_table_reg_write(unit,11,port_mac_id,sizeof(port"
 2800      7461626C 
 2800      655F7265 
 2800      675F7772 
 2800      69746528 
 2801 007b 5F637472 		.ascii	"_ctrl_t),&port_ctrl)\000"
 2801      6C5F7429 
 2801      2C26706F 
 2801      72745F63 
 2801      74726C29 
 2802              		.section	.text.fal_tiger_port_backpress_enable_set,"ax",%progbits
 2803              		.align	1
 2804              		.global	fal_tiger_port_backpress_enable_set
 2805              		.syntax unified
 2806              		.thumb
 2807              		.thumb_func
 2809              	fal_tiger_port_backpress_enable_set:
 2810              	.LVL297:
 2811              	.LFB13:
 396:../switch_sdk/core/fal/tiger/fal_tiger_port.c **** 
 397:../switch_sdk/core/fal/tiger/fal_tiger_port.c **** yt_ret_t fal_tiger_port_backpress_enable_set(yt_unit_t unit, yt_port_t port, yt_enable_t enable)
 398:../switch_sdk/core/fal/tiger/fal_tiger_port.c **** {
 2812              		.loc 1 398 1 is_stmt 1 view -0
 2813              		.cfi_startproc
 2814              		@ args = 0, pretend = 0, frame = 8
 2815              		@ frame_needed = 0, uses_anonymous_args = 0
 2816              		.loc 1 398 1 is_stmt 0 view .LVU714
 2817 0000 F0B5     		push	{r4, r5, r6, r7, lr}
 2818              		.cfi_def_cfa_offset 20
 2819              		.cfi_offset 4, -20
 2820              		.cfi_offset 5, -16
 2821              		.cfi_offset 6, -12
 2822              		.cfi_offset 7, -8
 2823              		.cfi_offset 14, -4
 2824 0002 85B0     		sub	sp, sp, #20
 2825              		.cfi_def_cfa_offset 40
 2826 0004 0646     		mov	r6, r0
 2827 0006 1746     		mov	r7, r2
 399:../switch_sdk/core/fal/tiger/fal_tiger_port.c ****     cmm_err_t ret = CMM_ERR_OK;
 2828              		.loc 1 399 5 is_stmt 1 view .LVU715
 2829              	.LVL298:
 400:../switch_sdk/core/fal/tiger/fal_tiger_port.c ****     yt_port_t port_mac_id;
 2830              		.loc 1 400 5 view .LVU716
 401:../switch_sdk/core/fal/tiger/fal_tiger_port.c ****     port_ctrl_t    port_ctrl;
 2831              		.loc 1 401 5 view .LVU717
 402:../switch_sdk/core/fal/tiger/fal_tiger_port.c **** 
 403:../switch_sdk/core/fal/tiger/fal_tiger_port.c ****     port_mac_id = CAL_YTP_TO_MAC(unit,port);
 2832              		.loc 1 403 5 view .LVU718
 2833              		.loc 1 403 19 is_stmt 0 view .LVU719
 2834 0008 2E4B     		ldr	r3, .L208
 2835 000a 1B78     		ldrb	r3, [r3]	@ zero_extendqisi2
 2836 000c 53B1     		cbz	r3, .L201
 2837              		.loc 1 403 19 discriminator 1 view .LVU720
 2838 000e 2E4B     		ldr	r3, .L208+4
 2839 0010 53F82030 		ldr	r3, [r3, r0, lsl #2]
 2840 0014 1A7D     		ldrb	r2, [r3, #20]	@ zero_extendqisi2
 2841              	.LVL299:
 2842              		.loc 1 403 19 discriminator 1 view .LVU721
 2843 0016 8A42     		cmp	r2, r1
 2844 0018 18D9     		bls	.L202
 2845              		.loc 1 403 19 discriminator 3 view .LVU722
 2846 001a 0631     		adds	r1, r1, #6
 2847              	.LVL300:
 2848              		.loc 1 403 19 discriminator 3 view .LVU723
 2849 001c 53F82130 		ldr	r3, [r3, r1, lsl #2]
 2850 0020 1D78     		ldrb	r5, [r3]	@ zero_extendqisi2
 2851 0022 00E0     		b	.L196
 2852              	.LVL301:
 2853              	.L201:
 2854              		.loc 1 403 19 view .LVU724
 2855 0024 FF25     		movs	r5, #255
 2856              	.LVL302:
 2857              	.L196:
 404:../switch_sdk/core/fal/tiger/fal_tiger_port.c **** 
 405:../switch_sdk/core/fal/tiger/fal_tiger_port.c ****     CMM_ERR_CHK(HAL_TBL_REG_READ(unit, PORT_CTRLm, port_mac_id, sizeof(port_ctrl_t), &port_ctrl), r
 2858              		.loc 1 405 5 is_stmt 1 discriminator 6 view .LVU725
 2859              		.loc 1 405 5 discriminator 6 view .LVU726
 2860 0026 03AB     		add	r3, sp, #12
 2861 0028 0093     		str	r3, [sp]
 2862 002a 0423     		movs	r3, #4
 2863 002c 2A46     		mov	r2, r5
 2864 002e 0B21     		movs	r1, #11
 2865 0030 3046     		mov	r0, r6
 2866              	.LVL303:
 2867              		.loc 1 405 5 is_stmt 0 discriminator 6 view .LVU727
 2868 0032 FFF7FEFF 		bl	hal_table_reg_read
 2869              	.LVL304:
 2870 0036 0446     		mov	r4, r0
 2871              	.LVL305:
 2872              		.loc 1 405 5 discriminator 6 view .LVU728
 2873 0038 10F0FF03 		ands	r3, r0, #255
 2874 003c 18D0     		beq	.L197
 2875              		.loc 1 405 5 is_stmt 1 discriminator 1 view .LVU729
 2876              		.loc 1 405 5 discriminator 1 view .LVU730
 2877 003e 234A     		ldr	r2, .L208+8
 2878 0040 1278     		ldrb	r2, [r2]	@ zero_extendqisi2
 2879 0042 012A     		cmp	r2, #1
 2880 0044 04D8     		bhi	.L205
 2881              	.LVL306:
 2882              	.L198:
 2883              		.loc 1 405 5 discriminator 5 view .LVU731
 2884              		.loc 1 405 5 discriminator 5 view .LVU732
 2885              		.loc 1 405 5 discriminator 5 view .LVU733
 2886 0046 E0B2     		uxtb	r0, r4
 2887              	.LVL307:
 2888              	.L195:
 406:../switch_sdk/core/fal/tiger/fal_tiger_port.c ****     HAL_FIELD_SET(PORT_CTRLm, PORT_CTRL_HALF_FC_ENf, &port_ctrl, enable);
 407:../switch_sdk/core/fal/tiger/fal_tiger_port.c ****     CMM_ERR_CHK(HAL_TBL_REG_WRITE(unit, PORT_CTRLm, port_mac_id, sizeof(port_ctrl_t), &port_ctrl), 
 408:../switch_sdk/core/fal/tiger/fal_tiger_port.c **** 
 409:../switch_sdk/core/fal/tiger/fal_tiger_port.c ****     return CMM_ERR_OK;
 410:../switch_sdk/core/fal/tiger/fal_tiger_port.c **** }
 2889              		.loc 1 410 1 is_stmt 0 view .LVU734
 2890 0048 05B0     		add	sp, sp, #20
 2891              		.cfi_remember_state
 2892              		.cfi_def_cfa_offset 20
 2893              		@ sp needed
 2894 004a F0BD     		pop	{r4, r5, r6, r7, pc}
 2895              	.LVL308:
 2896              	.L202:
 2897              		.cfi_restore_state
 403:../switch_sdk/core/fal/tiger/fal_tiger_port.c **** 
 2898              		.loc 1 403 19 view .LVU735
 2899 004c FF25     		movs	r5, #255
 2900 004e EAE7     		b	.L196
 2901              	.LVL309:
 2902              	.L205:
 405:../switch_sdk/core/fal/tiger/fal_tiger_port.c ****     HAL_FIELD_SET(PORT_CTRLm, PORT_CTRL_HALF_FC_ENf, &port_ctrl, enable);
 2903              		.loc 1 405 5 is_stmt 1 discriminator 3 view .LVU736
 2904              	.LBB35:
 405:../switch_sdk/core/fal/tiger/fal_tiger_port.c ****     HAL_FIELD_SET(PORT_CTRLm, PORT_CTRL_HALF_FC_ENf, &port_ctrl, enable);
 2905              		.loc 1 405 5 discriminator 3 view .LVU737
 2906 0050 142B     		cmp	r3, #20
 2907 0052 28BF     		it	cs
 2908 0054 1423     		movcs	r3, #20
 2909 0056 1A46     		mov	r2, r3
 2910 0058 1D4B     		ldr	r3, .L208+12
 2911 005a 0093     		str	r3, [sp]
 2912 005c 1D4B     		ldr	r3, .L208+16
 2913 005e 1E49     		ldr	r1, .L208+20
 2914 0060 51F82220 		ldr	r2, [r1, r2, lsl #2]
 2915 0064 1D49     		ldr	r1, .L208+24
 2916 0066 8968     		ldr	r1, [r1, #8]
 2917 0068 1D48     		ldr	r0, .L208+28
 2918              	.LVL310:
 405:../switch_sdk/core/fal/tiger/fal_tiger_port.c ****     HAL_FIELD_SET(PORT_CTRLm, PORT_CTRL_HALF_FC_ENf, &port_ctrl, enable);
 2919              		.loc 1 405 5 is_stmt 0 discriminator 3 view .LVU738
 2920 006a FFF7FEFF 		bl	osal_printf
 2921              	.LVL311:
 2922 006e EAE7     		b	.L198
 2923              	.LVL312:
 2924              	.L197:
 405:../switch_sdk/core/fal/tiger/fal_tiger_port.c ****     HAL_FIELD_SET(PORT_CTRLm, PORT_CTRL_HALF_FC_ENf, &port_ctrl, enable);
 2925              		.loc 1 405 5 discriminator 3 view .LVU739
 2926              	.LBE35:
 405:../switch_sdk/core/fal/tiger/fal_tiger_port.c ****     HAL_FIELD_SET(PORT_CTRLm, PORT_CTRL_HALF_FC_ENf, &port_ctrl, enable);
 2927              		.loc 1 405 5 is_stmt 1 discriminator 2 view .LVU740
 406:../switch_sdk/core/fal/tiger/fal_tiger_port.c ****     HAL_FIELD_SET(PORT_CTRLm, PORT_CTRL_HALF_FC_ENf, &port_ctrl, enable);
 2928              		.loc 1 406 5 discriminator 2 view .LVU741
 2929 0070 03AC     		add	r4, sp, #12
 2930 0072 3B46     		mov	r3, r7
 2931 0074 2246     		mov	r2, r4
 2932 0076 0221     		movs	r1, #2
 2933 0078 0B20     		movs	r0, #11
 2934              	.LVL313:
 406:../switch_sdk/core/fal/tiger/fal_tiger_port.c ****     HAL_FIELD_SET(PORT_CTRLm, PORT_CTRL_HALF_FC_ENf, &port_ctrl, enable);
 2935              		.loc 1 406 5 is_stmt 0 discriminator 2 view .LVU742
 2936 007a FFF7FEFF 		bl	hal_tbl_reg_field_set
 2937              	.LVL314:
 407:../switch_sdk/core/fal/tiger/fal_tiger_port.c **** 
 2938              		.loc 1 407 5 is_stmt 1 discriminator 2 view .LVU743
 407:../switch_sdk/core/fal/tiger/fal_tiger_port.c **** 
 2939              		.loc 1 407 5 discriminator 2 view .LVU744
 2940 007e 0094     		str	r4, [sp]
 2941 0080 0423     		movs	r3, #4
 2942 0082 2A46     		mov	r2, r5
 2943 0084 0B21     		movs	r1, #11
 2944 0086 3046     		mov	r0, r6
 2945 0088 FFF7FEFF 		bl	hal_table_reg_write
 2946              	.LVL315:
 2947 008c 0446     		mov	r4, r0
 2948              	.LVL316:
 407:../switch_sdk/core/fal/tiger/fal_tiger_port.c **** 
 2949              		.loc 1 407 5 is_stmt 0 discriminator 2 view .LVU745
 2950 008e 10F0FF03 		ands	r3, r0, #255
 2951 0092 01D1     		bne	.L206
 409:../switch_sdk/core/fal/tiger/fal_tiger_port.c **** }
 2952              		.loc 1 409 12 view .LVU746
 2953 0094 0020     		movs	r0, #0
 2954              	.LVL317:
 409:../switch_sdk/core/fal/tiger/fal_tiger_port.c **** }
 2955              		.loc 1 409 12 view .LVU747
 2956 0096 D7E7     		b	.L195
 2957              	.LVL318:
 2958              	.L206:
 407:../switch_sdk/core/fal/tiger/fal_tiger_port.c **** 
 2959              		.loc 1 407 5 is_stmt 1 discriminator 1 view .LVU748
 407:../switch_sdk/core/fal/tiger/fal_tiger_port.c **** 
 2960              		.loc 1 407 5 discriminator 1 view .LVU749
 2961 0098 0C4A     		ldr	r2, .L208+8
 2962 009a 1278     		ldrb	r2, [r2]	@ zero_extendqisi2
 2963 009c 012A     		cmp	r2, #1
 2964 009e 01D8     		bhi	.L207
 2965              	.LVL319:
 2966              	.L200:
 407:../switch_sdk/core/fal/tiger/fal_tiger_port.c **** 
 2967              		.loc 1 407 5 discriminator 5 view .LVU750
 407:../switch_sdk/core/fal/tiger/fal_tiger_port.c **** 
 2968              		.loc 1 407 5 discriminator 5 view .LVU751
 407:../switch_sdk/core/fal/tiger/fal_tiger_port.c **** 
 2969              		.loc 1 407 5 discriminator 5 view .LVU752
 2970 00a0 E0B2     		uxtb	r0, r4
 2971 00a2 D1E7     		b	.L195
 2972              	.LVL320:
 2973              	.L207:
 407:../switch_sdk/core/fal/tiger/fal_tiger_port.c **** 
 2974              		.loc 1 407 5 discriminator 3 view .LVU753
 2975              	.LBB36:
 407:../switch_sdk/core/fal/tiger/fal_tiger_port.c **** 
 2976              		.loc 1 407 5 discriminator 3 view .LVU754
 2977 00a4 142B     		cmp	r3, #20
 2978 00a6 28BF     		it	cs
 2979 00a8 1423     		movcs	r3, #20
 2980 00aa 1A46     		mov	r2, r3
 2981 00ac 084B     		ldr	r3, .L208+12
 2982 00ae 0093     		str	r3, [sp]
 2983 00b0 0C4B     		ldr	r3, .L208+32
 2984 00b2 0949     		ldr	r1, .L208+20
 2985 00b4 51F82220 		ldr	r2, [r1, r2, lsl #2]
 2986 00b8 0849     		ldr	r1, .L208+24
 2987 00ba 8968     		ldr	r1, [r1, #8]
 2988 00bc 0848     		ldr	r0, .L208+28
 2989              	.LVL321:
 407:../switch_sdk/core/fal/tiger/fal_tiger_port.c **** 
 2990              		.loc 1 407 5 is_stmt 0 discriminator 3 view .LVU755
 2991 00be FFF7FEFF 		bl	osal_printf
 2992              	.LVL322:
 2993 00c2 EDE7     		b	.L200
 2994              	.L209:
 2995              		.align	2
 2996              	.L208:
 2997 00c4 00000000 		.word	gcal_inited
 2998 00c8 00000000 		.word	gpSwitchUnit
 2999 00cc 00000000 		.word	yt_debug_level
 3000 00d0 00000000 		.word	__FUNCTION__.32
 3001 00d4 00000000 		.word	.LC17
 3002 00d8 00000000 		.word	_yt_errmsg
 3003 00dc 00000000 		.word	_yt_prompt_msg
 3004 00e0 34000000 		.word	.LC1
 3005 00e4 48000000 		.word	.LC18
 3006              	.LBE36:
 3007              		.cfi_endproc
 3008              	.LFE13:
 3010              		.section	.text.fal_tiger_port_backpress_enable_get,"ax",%progbits
 3011              		.align	1
 3012              		.global	fal_tiger_port_backpress_enable_get
 3013              		.syntax unified
 3014              		.thumb
 3015              		.thumb_func
 3017              	fal_tiger_port_backpress_enable_get:
 3018              	.LVL323:
 3019              	.LFB14:
 411:../switch_sdk/core/fal/tiger/fal_tiger_port.c **** 
 412:../switch_sdk/core/fal/tiger/fal_tiger_port.c **** yt_ret_t fal_tiger_port_backpress_enable_get(yt_unit_t unit, yt_port_t port, yt_enable_t *pEnable)
 413:../switch_sdk/core/fal/tiger/fal_tiger_port.c **** {
 3020              		.loc 1 413 1 is_stmt 1 view -0
 3021              		.cfi_startproc
 3022              		@ args = 0, pretend = 0, frame = 8
 3023              		@ frame_needed = 0, uses_anonymous_args = 0
 414:../switch_sdk/core/fal/tiger/fal_tiger_port.c ****     cmm_err_t ret = CMM_ERR_OK;
 3024              		.loc 1 414 5 view .LVU757
 415:../switch_sdk/core/fal/tiger/fal_tiger_port.c ****     yt_port_t port_mac_id;
 3025              		.loc 1 415 5 view .LVU758
 416:../switch_sdk/core/fal/tiger/fal_tiger_port.c ****     port_ctrl_t    port_ctrl;
 3026              		.loc 1 416 5 view .LVU759
 417:../switch_sdk/core/fal/tiger/fal_tiger_port.c ****     uint32_t half_fc_enable;
 3027              		.loc 1 417 5 view .LVU760
 418:../switch_sdk/core/fal/tiger/fal_tiger_port.c **** 
 419:../switch_sdk/core/fal/tiger/fal_tiger_port.c ****     if(NULL == pEnable)
 3028              		.loc 1 419 5 view .LVU761
 3029              		.loc 1 419 7 is_stmt 0 view .LVU762
 3030 0000 002A     		cmp	r2, #0
 3031 0002 42D0     		beq	.L215
 413:../switch_sdk/core/fal/tiger/fal_tiger_port.c ****     cmm_err_t ret = CMM_ERR_OK;
 3032              		.loc 1 413 1 view .LVU763
 3033 0004 30B5     		push	{r4, r5, lr}
 3034              		.cfi_def_cfa_offset 12
 3035              		.cfi_offset 4, -12
 3036              		.cfi_offset 5, -8
 3037              		.cfi_offset 14, -4
 3038 0006 85B0     		sub	sp, sp, #20
 3039              		.cfi_def_cfa_offset 32
 3040 0008 1546     		mov	r5, r2
 420:../switch_sdk/core/fal/tiger/fal_tiger_port.c ****         return CMM_ERR_NULL_POINT;
 421:../switch_sdk/core/fal/tiger/fal_tiger_port.c **** 
 422:../switch_sdk/core/fal/tiger/fal_tiger_port.c ****     port_mac_id = CAL_YTP_TO_MAC(unit,port);
 3041              		.loc 1 422 5 is_stmt 1 view .LVU764
 3042              		.loc 1 422 19 is_stmt 0 view .LVU765
 3043 000a 214B     		ldr	r3, .L223
 3044 000c 1B78     		ldrb	r3, [r3]	@ zero_extendqisi2
 3045 000e 53B1     		cbz	r3, .L216
 3046              		.loc 1 422 19 discriminator 1 view .LVU766
 3047 0010 204B     		ldr	r3, .L223+4
 3048 0012 53F82030 		ldr	r3, [r3, r0, lsl #2]
 3049 0016 1A7D     		ldrb	r2, [r3, #20]	@ zero_extendqisi2
 3050              	.LVL324:
 3051              		.loc 1 422 19 discriminator 1 view .LVU767
 3052 0018 8A42     		cmp	r2, r1
 3053 001a 16D9     		bls	.L217
 3054              		.loc 1 422 19 discriminator 3 view .LVU768
 3055 001c 0631     		adds	r1, r1, #6
 3056              	.LVL325:
 3057              		.loc 1 422 19 discriminator 3 view .LVU769
 3058 001e 53F82130 		ldr	r3, [r3, r1, lsl #2]
 3059 0022 1A78     		ldrb	r2, [r3]	@ zero_extendqisi2
 3060 0024 00E0     		b	.L212
 3061              	.LVL326:
 3062              	.L216:
 3063              		.loc 1 422 19 view .LVU770
 3064 0026 FF22     		movs	r2, #255
 3065              	.LVL327:
 3066              	.L212:
 423:../switch_sdk/core/fal/tiger/fal_tiger_port.c **** 
 424:../switch_sdk/core/fal/tiger/fal_tiger_port.c ****     CMM_ERR_CHK(HAL_TBL_REG_READ(unit, PORT_CTRLm, port_mac_id, sizeof(port_ctrl_t), &port_ctrl), r
 3067              		.loc 1 424 5 is_stmt 1 discriminator 6 view .LVU771
 3068              		.loc 1 424 5 discriminator 6 view .LVU772
 3069 0028 03AB     		add	r3, sp, #12
 3070 002a 0093     		str	r3, [sp]
 3071 002c 0423     		movs	r3, #4
 3072 002e 0B21     		movs	r1, #11
 3073 0030 FFF7FEFF 		bl	hal_table_reg_read
 3074              	.LVL328:
 3075              		.loc 1 424 5 is_stmt 0 discriminator 6 view .LVU773
 3076 0034 0446     		mov	r4, r0
 3077              	.LVL329:
 3078              		.loc 1 424 5 discriminator 6 view .LVU774
 3079 0036 10F0FF03 		ands	r3, r0, #255
 3080 003a 18D0     		beq	.L213
 3081              		.loc 1 424 5 is_stmt 1 discriminator 1 view .LVU775
 3082              		.loc 1 424 5 discriminator 1 view .LVU776
 3083 003c 164A     		ldr	r2, .L223+8
 3084 003e 1278     		ldrb	r2, [r2]	@ zero_extendqisi2
 3085 0040 012A     		cmp	r2, #1
 3086 0042 04D8     		bhi	.L222
 3087              	.LVL330:
 3088              	.L214:
 3089              		.loc 1 424 5 discriminator 5 view .LVU777
 3090              		.loc 1 424 5 discriminator 5 view .LVU778
 3091              		.loc 1 424 5 discriminator 5 view .LVU779
 3092 0044 E0B2     		uxtb	r0, r4
 3093              	.L210:
 425:../switch_sdk/core/fal/tiger/fal_tiger_port.c ****     HAL_FIELD_GET(PORT_CTRLm, PORT_CTRL_HALF_FC_ENf, &port_ctrl, &half_fc_enable);
 426:../switch_sdk/core/fal/tiger/fal_tiger_port.c ****     
 427:../switch_sdk/core/fal/tiger/fal_tiger_port.c ****     *pEnable = half_fc_enable == 1 ? YT_ENABLE : YT_DISABLE;
 428:../switch_sdk/core/fal/tiger/fal_tiger_port.c **** 
 429:../switch_sdk/core/fal/tiger/fal_tiger_port.c ****     return CMM_ERR_OK;
 430:../switch_sdk/core/fal/tiger/fal_tiger_port.c **** }
 3094              		.loc 1 430 1 is_stmt 0 view .LVU780
 3095 0046 05B0     		add	sp, sp, #20
 3096              		.cfi_remember_state
 3097              		.cfi_def_cfa_offset 12
 3098              		@ sp needed
 3099 0048 30BD     		pop	{r4, r5, pc}
 3100              	.LVL331:
 3101              	.L217:
 3102              		.cfi_restore_state
 422:../switch_sdk/core/fal/tiger/fal_tiger_port.c **** 
 3103              		.loc 1 422 19 view .LVU781
 3104 004a FF22     		movs	r2, #255
 3105 004c ECE7     		b	.L212
 3106              	.LVL332:
 3107              	.L222:
 424:../switch_sdk/core/fal/tiger/fal_tiger_port.c ****     HAL_FIELD_GET(PORT_CTRLm, PORT_CTRL_HALF_FC_ENf, &port_ctrl, &half_fc_enable);
 3108              		.loc 1 424 5 is_stmt 1 discriminator 3 view .LVU782
 3109              	.LBB37:
 424:../switch_sdk/core/fal/tiger/fal_tiger_port.c ****     HAL_FIELD_GET(PORT_CTRLm, PORT_CTRL_HALF_FC_ENf, &port_ctrl, &half_fc_enable);
 3110              		.loc 1 424 5 discriminator 3 view .LVU783
 3111 004e 142B     		cmp	r3, #20
 3112 0050 28BF     		it	cs
 3113 0052 1423     		movcs	r3, #20
 3114 0054 1A46     		mov	r2, r3
 3115 0056 114B     		ldr	r3, .L223+12
 3116 0058 0093     		str	r3, [sp]
 3117 005a 114B     		ldr	r3, .L223+16
 3118 005c 1149     		ldr	r1, .L223+20
 3119 005e 51F82220 		ldr	r2, [r1, r2, lsl #2]
 3120 0062 1149     		ldr	r1, .L223+24
 3121 0064 8968     		ldr	r1, [r1, #8]
 3122 0066 1148     		ldr	r0, .L223+28
 3123              	.LVL333:
 424:../switch_sdk/core/fal/tiger/fal_tiger_port.c ****     HAL_FIELD_GET(PORT_CTRLm, PORT_CTRL_HALF_FC_ENf, &port_ctrl, &half_fc_enable);
 3124              		.loc 1 424 5 is_stmt 0 discriminator 3 view .LVU784
 3125 0068 FFF7FEFF 		bl	osal_printf
 3126              	.LVL334:
 3127 006c EAE7     		b	.L214
 3128              	.LVL335:
 3129              	.L213:
 424:../switch_sdk/core/fal/tiger/fal_tiger_port.c ****     HAL_FIELD_GET(PORT_CTRLm, PORT_CTRL_HALF_FC_ENf, &port_ctrl, &half_fc_enable);
 3130              		.loc 1 424 5 discriminator 3 view .LVU785
 3131              	.LBE37:
 424:../switch_sdk/core/fal/tiger/fal_tiger_port.c ****     HAL_FIELD_GET(PORT_CTRLm, PORT_CTRL_HALF_FC_ENf, &port_ctrl, &half_fc_enable);
 3132              		.loc 1 424 5 is_stmt 1 discriminator 2 view .LVU786
 425:../switch_sdk/core/fal/tiger/fal_tiger_port.c ****     HAL_FIELD_GET(PORT_CTRLm, PORT_CTRL_HALF_FC_ENf, &port_ctrl, &half_fc_enable);
 3133              		.loc 1 425 5 discriminator 2 view .LVU787
 3134              	.LBB38:
 425:../switch_sdk/core/fal/tiger/fal_tiger_port.c ****     HAL_FIELD_GET(PORT_CTRLm, PORT_CTRL_HALF_FC_ENf, &port_ctrl, &half_fc_enable);
 3135              		.loc 1 425 5 discriminator 2 view .LVU788
 425:../switch_sdk/core/fal/tiger/fal_tiger_port.c ****     HAL_FIELD_GET(PORT_CTRLm, PORT_CTRL_HALF_FC_ENf, &port_ctrl, &half_fc_enable);
 3136              		.loc 1 425 5 discriminator 2 view .LVU789
 3137 006e 02AB     		add	r3, sp, #8
 3138 0070 03AA     		add	r2, sp, #12
 3139 0072 0221     		movs	r1, #2
 3140 0074 0B20     		movs	r0, #11
 3141              	.LVL336:
 425:../switch_sdk/core/fal/tiger/fal_tiger_port.c ****     HAL_FIELD_GET(PORT_CTRLm, PORT_CTRL_HALF_FC_ENf, &port_ctrl, &half_fc_enable);
 3142              		.loc 1 425 5 is_stmt 0 discriminator 2 view .LVU790
 3143 0076 FFF7FEFF 		bl	hal_tbl_reg_field_get
 3144              	.LVL337:
 425:../switch_sdk/core/fal/tiger/fal_tiger_port.c ****     HAL_FIELD_GET(PORT_CTRLm, PORT_CTRL_HALF_FC_ENf, &port_ctrl, &half_fc_enable);
 3145              		.loc 1 425 5 is_stmt 1 discriminator 2 view .LVU791
 425:../switch_sdk/core/fal/tiger/fal_tiger_port.c ****     HAL_FIELD_GET(PORT_CTRLm, PORT_CTRL_HALF_FC_ENf, &port_ctrl, &half_fc_enable);
 3146              		.loc 1 425 5 is_stmt 0 discriminator 2 view .LVU792
 3147              	.LBE38:
 425:../switch_sdk/core/fal/tiger/fal_tiger_port.c ****     HAL_FIELD_GET(PORT_CTRLm, PORT_CTRL_HALF_FC_ENf, &port_ctrl, &half_fc_enable);
 3148              		.loc 1 425 5 is_stmt 1 discriminator 2 view .LVU793
 427:../switch_sdk/core/fal/tiger/fal_tiger_port.c **** 
 3149              		.loc 1 427 5 discriminator 2 view .LVU794
 427:../switch_sdk/core/fal/tiger/fal_tiger_port.c **** 
 3150              		.loc 1 427 48 is_stmt 0 discriminator 2 view .LVU795
 3151 007a 029B     		ldr	r3, [sp, #8]
 3152 007c 012B     		cmp	r3, #1
 3153 007e 14BF     		ite	ne
 3154 0080 0023     		movne	r3, #0
 3155 0082 0123     		moveq	r3, #1
 427:../switch_sdk/core/fal/tiger/fal_tiger_port.c **** 
 3156              		.loc 1 427 14 discriminator 2 view .LVU796
 3157 0084 2B70     		strb	r3, [r5]
 3158              	.LVL338:
 429:../switch_sdk/core/fal/tiger/fal_tiger_port.c **** }
 3159              		.loc 1 429 5 is_stmt 1 discriminator 2 view .LVU797
 429:../switch_sdk/core/fal/tiger/fal_tiger_port.c **** }
 3160              		.loc 1 429 12 is_stmt 0 discriminator 2 view .LVU798
 3161 0086 0020     		movs	r0, #0
 3162 0088 DDE7     		b	.L210
 3163              	.LVL339:
 3164              	.L215:
 3165              		.cfi_def_cfa_offset 0
 3166              		.cfi_restore 4
 3167              		.cfi_restore 5
 3168              		.cfi_restore 14
 420:../switch_sdk/core/fal/tiger/fal_tiger_port.c **** 
 3169              		.loc 1 420 16 view .LVU799
 3170 008a 0220     		movs	r0, #2
 3171              	.LVL340:
 3172              		.loc 1 430 1 view .LVU800
 3173 008c 7047     		bx	lr
 3174              	.L224:
 3175 008e 00BF     		.align	2
 3176              	.L223:
 3177 0090 00000000 		.word	gcal_inited
 3178 0094 00000000 		.word	gpSwitchUnit
 3179 0098 00000000 		.word	yt_debug_level
 3180 009c 00000000 		.word	__FUNCTION__.31
 3181 00a0 00000000 		.word	.LC17
 3182 00a4 00000000 		.word	_yt_errmsg
 3183 00a8 00000000 		.word	_yt_prompt_msg
 3184 00ac 34000000 		.word	.LC1
 3185              		.cfi_endproc
 3186              	.LFE14:
 3188              		.section	.rodata.fal_tiger_port_cascade_set.str1.4,"aMS",%progbits,1
 3189              		.align	2
 3190              	.LC19:
 3191 0000 68616C5F 		.ascii	"hal_table_reg_read(unit,168,0,sizeof(cascade_ctrl_t"
 3191      7461626C 
 3191      655F7265 
 3191      675F7265 
 3191      61642875 
 3192 0033 292C2665 		.ascii	"),&entry)\000"
 3192      6E747279 
 3192      2900
 3193 003d 000000   		.align	2
 3194              	.LC20:
 3195 0040 68616C5F 		.ascii	"hal_table_reg_write(unit,168,0,sizeof(cascade_ctrl_"
 3195      7461626C 
 3195      655F7265 
 3195      675F7772 
 3195      69746528 
 3196 0073 74292C26 		.ascii	"t),&entry)\000"
 3196      656E7472 
 3196      792900
 3197 007e 0000     		.align	2
 3198              	.LC21:
 3199 0080 68616C5F 		.ascii	"hal_table_reg_write(unit,169,0,sizeof(loop_detect_a"
 3199      7461626C 
 3199      655F7265 
 3199      675F7772 
 3199      69746528 
 3200 00b3 63745F63 		.ascii	"ct_ctrl_t),&act_ctrl_entry)\000"
 3200      74726C5F 
 3200      74292C26 
 3200      6163745F 
 3200      6374726C 
 3201              		.section	.text.fal_tiger_port_cascade_set,"ax",%progbits
 3202              		.align	1
 3203              		.global	fal_tiger_port_cascade_set
 3204              		.syntax unified
 3205              		.thumb
 3206              		.thumb_func
 3208              	fal_tiger_port_cascade_set:
 3209              	.LVL341:
 3210              	.LFB15:
 431:../switch_sdk/core/fal/tiger/fal_tiger_port.c **** 
 432:../switch_sdk/core/fal/tiger/fal_tiger_port.c **** yt_ret_t fal_tiger_port_cascade_set(yt_unit_t unit, yt_cascade_info_t cascade_info)
 433:../switch_sdk/core/fal/tiger/fal_tiger_port.c **** {
 3211              		.loc 1 433 1 is_stmt 1 view -0
 3212              		.cfi_startproc
 3213              		@ args = 24, pretend = 16, frame = 8
 3214              		@ frame_needed = 0, uses_anonymous_args = 0
 3215              		.loc 1 433 1 is_stmt 0 view .LVU802
 3216 0000 84B0     		sub	sp, sp, #16
 3217              		.cfi_def_cfa_offset 16
 3218 0002 30B5     		push	{r4, r5, lr}
 3219              		.cfi_def_cfa_offset 28
 3220              		.cfi_offset 4, -28
 3221              		.cfi_offset 5, -24
 3222              		.cfi_offset 14, -20
 3223 0004 85B0     		sub	sp, sp, #20
 3224              		.cfi_def_cfa_offset 48
 3225 0006 0546     		mov	r5, r0
 3226 0008 09AC     		add	r4, sp, #36
 3227 000a 84E80E00 		stm	r4, {r1, r2, r3}
 434:../switch_sdk/core/fal/tiger/fal_tiger_port.c ****     cascade_ctrl_t entry;
 3228              		.loc 1 434 5 is_stmt 1 view .LVU803
 435:../switch_sdk/core/fal/tiger/fal_tiger_port.c ****     cmm_err_t ret = CMM_ERR_OK;
 3229              		.loc 1 435 5 view .LVU804
 3230              	.LVL342:
 436:../switch_sdk/core/fal/tiger/fal_tiger_port.c ****     yt_macid_t mac_id;
 3231              		.loc 1 436 5 view .LVU805
 437:../switch_sdk/core/fal/tiger/fal_tiger_port.c ****     uint32_t field_id;
 3232              		.loc 1 437 5 view .LVU806
 438:../switch_sdk/core/fal/tiger/fal_tiger_port.c ****     uint32_t i;
 3233              		.loc 1 438 5 view .LVU807
 439:../switch_sdk/core/fal/tiger/fal_tiger_port.c ****     loop_detect_act_ctrl_t act_ctrl_entry;
 3234              		.loc 1 439 5 view .LVU808
 440:../switch_sdk/core/fal/tiger/fal_tiger_port.c **** 
 441:../switch_sdk/core/fal/tiger/fal_tiger_port.c ****     CMM_ERR_CHK(HAL_TBL_REG_READ(unit, CASCADE_CTRLm, 0, sizeof(cascade_ctrl_t), &entry), ret);
 3235              		.loc 1 441 5 view .LVU809
 3236              		.loc 1 441 5 view .LVU810
 3237 000e 03AB     		add	r3, sp, #12
 3238 0010 0093     		str	r3, [sp]
 3239 0012 0423     		movs	r3, #4
 3240 0014 0022     		movs	r2, #0
 3241 0016 A821     		movs	r1, #168
 3242 0018 FFF7FEFF 		bl	hal_table_reg_read
 3243              	.LVL343:
 3244              		.loc 1 441 5 is_stmt 0 view .LVU811
 3245 001c 10F0FF03 		ands	r3, r0, #255
 3246 0020 1AD0     		beq	.L226
 3247 0022 0446     		mov	r4, r0
 3248              		.loc 1 441 5 is_stmt 1 discriminator 1 view .LVU812
 3249              		.loc 1 441 5 discriminator 1 view .LVU813
 3250 0024 4E4A     		ldr	r2, .L250
 3251 0026 1278     		ldrb	r2, [r2]	@ zero_extendqisi2
 3252 0028 012A     		cmp	r2, #1
 3253 002a 05D8     		bhi	.L244
 3254              	.LVL344:
 3255              	.L227:
 3256              		.loc 1 441 5 discriminator 5 view .LVU814
 3257              		.loc 1 441 5 discriminator 5 view .LVU815
 3258              		.loc 1 441 5 discriminator 5 view .LVU816
 3259 002c E0B2     		uxtb	r0, r4
 3260              	.LVL345:
 3261              	.L225:
 442:../switch_sdk/core/fal/tiger/fal_tiger_port.c ****     HAL_FIELD_SET(CASCADE_CTRLm, CASCADE_CTRL_ENf, &entry, cascade_info.en);
 443:../switch_sdk/core/fal/tiger/fal_tiger_port.c ****     act_ctrl_entry.entry_data[0] = YT_CASCADE_FWD_PORTMASK;
 444:../switch_sdk/core/fal/tiger/fal_tiger_port.c ****     for (i = 0; i < YT_MAX_CASCADE_PORT_NUM; i++)
 445:../switch_sdk/core/fal/tiger/fal_tiger_port.c ****     {
 446:../switch_sdk/core/fal/tiger/fal_tiger_port.c ****         if (0 == i)
 447:../switch_sdk/core/fal/tiger/fal_tiger_port.c ****             field_id = CASCADE_CTRL_PORT0f;
 448:../switch_sdk/core/fal/tiger/fal_tiger_port.c ****         else if (1 == i)
 449:../switch_sdk/core/fal/tiger/fal_tiger_port.c ****             field_id = CASCADE_CTRL_PORT1f;
 450:../switch_sdk/core/fal/tiger/fal_tiger_port.c ****         else
 451:../switch_sdk/core/fal/tiger/fal_tiger_port.c ****             return CMM_ERR_EXCEED_RANGE;
 452:../switch_sdk/core/fal/tiger/fal_tiger_port.c **** 
 453:../switch_sdk/core/fal/tiger/fal_tiger_port.c ****         if (cascade_info.ports[i].valid)
 454:../switch_sdk/core/fal/tiger/fal_tiger_port.c ****         {
 455:../switch_sdk/core/fal/tiger/fal_tiger_port.c ****             mac_id = CAL_YTP_TO_MAC(unit, cascade_info.ports[i].port_num);
 456:../switch_sdk/core/fal/tiger/fal_tiger_port.c ****             CLEAR_BIT(act_ctrl_entry.entry_data[0], mac_id);
 457:../switch_sdk/core/fal/tiger/fal_tiger_port.c ****         }
 458:../switch_sdk/core/fal/tiger/fal_tiger_port.c ****         else
 459:../switch_sdk/core/fal/tiger/fal_tiger_port.c ****         {
 460:../switch_sdk/core/fal/tiger/fal_tiger_port.c ****             mac_id = YT_INVALID_CASCADE_PORT;
 461:../switch_sdk/core/fal/tiger/fal_tiger_port.c ****         }
 462:../switch_sdk/core/fal/tiger/fal_tiger_port.c ****         HAL_FIELD_SET(CASCADE_CTRLm, field_id, &entry, mac_id);
 463:../switch_sdk/core/fal/tiger/fal_tiger_port.c ****     }
 464:../switch_sdk/core/fal/tiger/fal_tiger_port.c ****     CMM_ERR_CHK(HAL_TBL_REG_WRITE(unit, CASCADE_CTRLm, 0, sizeof(cascade_ctrl_t), &entry), ret);
 465:../switch_sdk/core/fal/tiger/fal_tiger_port.c ****     CMM_ERR_CHK(HAL_TBL_REG_WRITE(unit, LOOP_DETECT_ACT_CTRLm, 0, sizeof(loop_detect_act_ctrl_t), &
 466:../switch_sdk/core/fal/tiger/fal_tiger_port.c **** 
 467:../switch_sdk/core/fal/tiger/fal_tiger_port.c ****     return CMM_ERR_OK;
 468:../switch_sdk/core/fal/tiger/fal_tiger_port.c **** }
 3262              		.loc 1 468 1 is_stmt 0 view .LVU817
 3263 002e 05B0     		add	sp, sp, #20
 3264              		.cfi_remember_state
 3265              		.cfi_def_cfa_offset 28
 3266              		@ sp needed
 3267 0030 BDE83040 		pop	{r4, r5, lr}
 3268              		.cfi_restore 14
 3269              		.cfi_restore 5
 3270              		.cfi_restore 4
 3271              		.cfi_def_cfa_offset 16
 3272 0034 04B0     		add	sp, sp, #16
 3273              		.cfi_def_cfa_offset 0
 3274 0036 7047     		bx	lr
 3275              	.LVL346:
 3276              	.L244:
 3277              		.cfi_restore_state
 441:../switch_sdk/core/fal/tiger/fal_tiger_port.c ****     HAL_FIELD_SET(CASCADE_CTRLm, CASCADE_CTRL_ENf, &entry, cascade_info.en);
 3278              		.loc 1 441 5 is_stmt 1 discriminator 3 view .LVU818
 3279              	.LBB39:
 441:../switch_sdk/core/fal/tiger/fal_tiger_port.c ****     HAL_FIELD_SET(CASCADE_CTRLm, CASCADE_CTRL_ENf, &entry, cascade_info.en);
 3280              		.loc 1 441 5 discriminator 3 view .LVU819
 3281 0038 142B     		cmp	r3, #20
 3282 003a 28BF     		it	cs
 3283 003c 1423     		movcs	r3, #20
 3284 003e 1A46     		mov	r2, r3
 3285 0040 484B     		ldr	r3, .L250+4
 3286 0042 0093     		str	r3, [sp]
 3287 0044 484B     		ldr	r3, .L250+8
 3288 0046 4949     		ldr	r1, .L250+12
 3289 0048 51F82220 		ldr	r2, [r1, r2, lsl #2]
 3290 004c 4849     		ldr	r1, .L250+16
 3291 004e 8968     		ldr	r1, [r1, #8]
 3292 0050 4848     		ldr	r0, .L250+20
 3293              	.LVL347:
 441:../switch_sdk/core/fal/tiger/fal_tiger_port.c ****     HAL_FIELD_SET(CASCADE_CTRLm, CASCADE_CTRL_ENf, &entry, cascade_info.en);
 3294              		.loc 1 441 5 is_stmt 0 discriminator 3 view .LVU820
 3295 0052 FFF7FEFF 		bl	osal_printf
 3296              	.LVL348:
 3297 0056 E9E7     		b	.L227
 3298              	.LVL349:
 3299              	.L226:
 441:../switch_sdk/core/fal/tiger/fal_tiger_port.c ****     HAL_FIELD_SET(CASCADE_CTRLm, CASCADE_CTRL_ENf, &entry, cascade_info.en);
 3300              		.loc 1 441 5 discriminator 3 view .LVU821
 3301              	.LBE39:
 441:../switch_sdk/core/fal/tiger/fal_tiger_port.c ****     HAL_FIELD_SET(CASCADE_CTRLm, CASCADE_CTRL_ENf, &entry, cascade_info.en);
 3302              		.loc 1 441 5 is_stmt 1 discriminator 2 view .LVU822
 442:../switch_sdk/core/fal/tiger/fal_tiger_port.c ****     HAL_FIELD_SET(CASCADE_CTRLm, CASCADE_CTRL_ENf, &entry, cascade_info.en);
 3303              		.loc 1 442 5 discriminator 2 view .LVU823
 3304 0058 9DF82430 		ldrb	r3, [sp, #36]	@ zero_extendqisi2
 3305 005c 03AA     		add	r2, sp, #12
 3306 005e 0221     		movs	r1, #2
 3307 0060 A820     		movs	r0, #168
 3308              	.LVL350:
 442:../switch_sdk/core/fal/tiger/fal_tiger_port.c ****     HAL_FIELD_SET(CASCADE_CTRLm, CASCADE_CTRL_ENf, &entry, cascade_info.en);
 3309              		.loc 1 442 5 is_stmt 0 discriminator 2 view .LVU824
 3310 0062 FFF7FEFF 		bl	hal_tbl_reg_field_set
 3311              	.LVL351:
 443:../switch_sdk/core/fal/tiger/fal_tiger_port.c ****     for (i = 0; i < YT_MAX_CASCADE_PORT_NUM; i++)
 3312              		.loc 1 443 5 is_stmt 1 discriminator 2 view .LVU825
 443:../switch_sdk/core/fal/tiger/fal_tiger_port.c ****     for (i = 0; i < YT_MAX_CASCADE_PORT_NUM; i++)
 3313              		.loc 1 443 34 is_stmt 0 discriminator 2 view .LVU826
 3314 0066 40F2FF73 		movw	r3, #2047
 3315 006a 0293     		str	r3, [sp, #8]
 444:../switch_sdk/core/fal/tiger/fal_tiger_port.c ****     {
 3316              		.loc 1 444 5 is_stmt 1 discriminator 2 view .LVU827
 3317              	.LVL352:
 444:../switch_sdk/core/fal/tiger/fal_tiger_port.c ****     {
 3318              		.loc 1 444 12 is_stmt 0 discriminator 2 view .LVU828
 3319 006c 0024     		movs	r4, #0
 3320              	.LVL353:
 3321              	.L229:
 444:../switch_sdk/core/fal/tiger/fal_tiger_port.c ****     {
 3322              		.loc 1 444 19 is_stmt 1 discriminator 1 view .LVU829
 3323 006e 012C     		cmp	r4, #1
 3324 0070 2FD8     		bhi	.L245
 446:../switch_sdk/core/fal/tiger/fal_tiger_port.c ****             field_id = CASCADE_CTRL_PORT0f;
 3325              		.loc 1 446 9 view .LVU830
 446:../switch_sdk/core/fal/tiger/fal_tiger_port.c ****             field_id = CASCADE_CTRL_PORT0f;
 3326              		.loc 1 446 12 is_stmt 0 view .LVU831
 3327 0072 2CB1     		cbz	r4, .L237
 448:../switch_sdk/core/fal/tiger/fal_tiger_port.c ****             field_id = CASCADE_CTRL_PORT1f;
 3328              		.loc 1 448 14 is_stmt 1 view .LVU832
 448:../switch_sdk/core/fal/tiger/fal_tiger_port.c ****             field_id = CASCADE_CTRL_PORT1f;
 3329              		.loc 1 448 17 is_stmt 0 view .LVU833
 3330 0074 012C     		cmp	r4, #1
 3331 0076 01D0     		beq	.L246
 451:../switch_sdk/core/fal/tiger/fal_tiger_port.c **** 
 3332              		.loc 1 451 20 view .LVU834
 3333 0078 1120     		movs	r0, #17
 3334 007a D8E7     		b	.L225
 3335              	.L246:
 449:../switch_sdk/core/fal/tiger/fal_tiger_port.c ****         else
 3336              		.loc 1 449 22 view .LVU835
 3337 007c 0021     		movs	r1, #0
 3338 007e 00E0     		b	.L230
 3339              	.L237:
 447:../switch_sdk/core/fal/tiger/fal_tiger_port.c ****         else if (1 == i)
 3340              		.loc 1 447 22 view .LVU836
 3341 0080 0121     		movs	r1, #1
 3342              	.L230:
 3343              	.LVL354:
 453:../switch_sdk/core/fal/tiger/fal_tiger_port.c ****         {
 3344              		.loc 1 453 9 is_stmt 1 view .LVU837
 453:../switch_sdk/core/fal/tiger/fal_tiger_port.c ****         {
 3345              		.loc 1 453 34 is_stmt 0 view .LVU838
 3346 0082 08AB     		add	r3, sp, #32
 3347 0084 03EBC403 		add	r3, r3, r4, lsl #3
 3348 0088 1B7A     		ldrb	r3, [r3, #8]	@ zero_extendqisi2
 453:../switch_sdk/core/fal/tiger/fal_tiger_port.c ****         {
 3349              		.loc 1 453 12 view .LVU839
 3350 008a DBB1     		cbz	r3, .L239
 455:../switch_sdk/core/fal/tiger/fal_tiger_port.c ****             CLEAR_BIT(act_ctrl_entry.entry_data[0], mac_id);
 3351              		.loc 1 455 13 is_stmt 1 view .LVU840
 455:../switch_sdk/core/fal/tiger/fal_tiger_port.c ****             CLEAR_BIT(act_ctrl_entry.entry_data[0], mac_id);
 3352              		.loc 1 455 22 is_stmt 0 view .LVU841
 3353 008c 3A4B     		ldr	r3, .L250+24
 3354 008e 1B78     		ldrb	r3, [r3]	@ zero_extendqisi2
 3355 0090 73B1     		cbz	r3, .L240
 455:../switch_sdk/core/fal/tiger/fal_tiger_port.c ****             CLEAR_BIT(act_ctrl_entry.entry_data[0], mac_id);
 3356              		.loc 1 455 22 discriminator 1 view .LVU842
 3357 0092 08AB     		add	r3, sp, #32
 3358 0094 03EBC403 		add	r3, r3, r4, lsl #3
 3359 0098 DB68     		ldr	r3, [r3, #12]
 3360 009a 384A     		ldr	r2, .L250+28
 3361 009c 52F82520 		ldr	r2, [r2, r5, lsl #2]
 3362 00a0 107D     		ldrb	r0, [r2, #20]	@ zero_extendqisi2
 3363 00a2 8342     		cmp	r3, r0
 3364 00a4 0CD2     		bcs	.L241
 455:../switch_sdk/core/fal/tiger/fal_tiger_port.c ****             CLEAR_BIT(act_ctrl_entry.entry_data[0], mac_id);
 3365              		.loc 1 455 22 discriminator 3 view .LVU843
 3366 00a6 0633     		adds	r3, r3, #6
 3367 00a8 52F82330 		ldr	r3, [r2, r3, lsl #2]
 3368 00ac 1B78     		ldrb	r3, [r3]	@ zero_extendqisi2
 3369 00ae 00E0     		b	.L232
 3370              	.L240:
 455:../switch_sdk/core/fal/tiger/fal_tiger_port.c ****             CLEAR_BIT(act_ctrl_entry.entry_data[0], mac_id);
 3371              		.loc 1 455 22 view .LVU844
 3372 00b0 FF23     		movs	r3, #255
 3373              	.L232:
 3374              	.LVL355:
 456:../switch_sdk/core/fal/tiger/fal_tiger_port.c ****         }
 3375              		.loc 1 456 13 is_stmt 1 discriminator 6 view .LVU845
 3376 00b2 0120     		movs	r0, #1
 3377 00b4 9840     		lsls	r0, r0, r3
 3378 00b6 029A     		ldr	r2, [sp, #8]
 3379 00b8 22EA0002 		bic	r2, r2, r0
 3380 00bc 0292     		str	r2, [sp, #8]
 3381 00be 02E0     		b	.L231
 3382              	.LVL356:
 3383              	.L241:
 455:../switch_sdk/core/fal/tiger/fal_tiger_port.c ****             CLEAR_BIT(act_ctrl_entry.entry_data[0], mac_id);
 3384              		.loc 1 455 22 is_stmt 0 view .LVU846
 3385 00c0 FF23     		movs	r3, #255
 3386 00c2 F6E7     		b	.L232
 3387              	.L239:
 460:../switch_sdk/core/fal/tiger/fal_tiger_port.c ****         }
 3388              		.loc 1 460 20 view .LVU847
 3389 00c4 0F23     		movs	r3, #15
 3390              	.L231:
 3391              	.LVL357:
 462:../switch_sdk/core/fal/tiger/fal_tiger_port.c ****     }
 3392              		.loc 1 462 9 is_stmt 1 discriminator 2 view .LVU848
 3393 00c6 03AA     		add	r2, sp, #12
 3394 00c8 A820     		movs	r0, #168
 3395 00ca FFF7FEFF 		bl	hal_tbl_reg_field_set
 3396              	.LVL358:
 444:../switch_sdk/core/fal/tiger/fal_tiger_port.c ****     {
 3397              		.loc 1 444 47 discriminator 2 view .LVU849
 3398 00ce 0134     		adds	r4, r4, #1
 3399              	.LVL359:
 444:../switch_sdk/core/fal/tiger/fal_tiger_port.c ****     {
 3400              		.loc 1 444 47 is_stmt 0 discriminator 2 view .LVU850
 3401 00d0 CDE7     		b	.L229
 3402              	.LVL360:
 3403              	.L245:
 464:../switch_sdk/core/fal/tiger/fal_tiger_port.c ****     CMM_ERR_CHK(HAL_TBL_REG_WRITE(unit, LOOP_DETECT_ACT_CTRLm, 0, sizeof(loop_detect_act_ctrl_t), &
 3404              		.loc 1 464 5 is_stmt 1 view .LVU851
 464:../switch_sdk/core/fal/tiger/fal_tiger_port.c ****     CMM_ERR_CHK(HAL_TBL_REG_WRITE(unit, LOOP_DETECT_ACT_CTRLm, 0, sizeof(loop_detect_act_ctrl_t), &
 3405              		.loc 1 464 5 view .LVU852
 3406 00d2 03AB     		add	r3, sp, #12
 3407 00d4 0093     		str	r3, [sp]
 3408 00d6 0423     		movs	r3, #4
 3409 00d8 0022     		movs	r2, #0
 3410 00da A821     		movs	r1, #168
 3411 00dc 2846     		mov	r0, r5
 3412 00de FFF7FEFF 		bl	hal_table_reg_write
 3413              	.LVL361:
 3414 00e2 0446     		mov	r4, r0
 3415              	.LVL362:
 464:../switch_sdk/core/fal/tiger/fal_tiger_port.c ****     CMM_ERR_CHK(HAL_TBL_REG_WRITE(unit, LOOP_DETECT_ACT_CTRLm, 0, sizeof(loop_detect_act_ctrl_t), &
 3416              		.loc 1 464 5 is_stmt 0 view .LVU853
 3417 00e4 10F0FF03 		ands	r3, r0, #255
 3418 00e8 15D0     		beq	.L234
 464:../switch_sdk/core/fal/tiger/fal_tiger_port.c ****     CMM_ERR_CHK(HAL_TBL_REG_WRITE(unit, LOOP_DETECT_ACT_CTRLm, 0, sizeof(loop_detect_act_ctrl_t), &
 3419              		.loc 1 464 5 is_stmt 1 discriminator 1 view .LVU854
 464:../switch_sdk/core/fal/tiger/fal_tiger_port.c ****     CMM_ERR_CHK(HAL_TBL_REG_WRITE(unit, LOOP_DETECT_ACT_CTRLm, 0, sizeof(loop_detect_act_ctrl_t), &
 3420              		.loc 1 464 5 discriminator 1 view .LVU855
 3421 00ea 1D4A     		ldr	r2, .L250
 3422 00ec 1278     		ldrb	r2, [r2]	@ zero_extendqisi2
 3423 00ee 012A     		cmp	r2, #1
 3424 00f0 01D8     		bhi	.L247
 3425              	.LVL363:
 3426              	.L235:
 464:../switch_sdk/core/fal/tiger/fal_tiger_port.c ****     CMM_ERR_CHK(HAL_TBL_REG_WRITE(unit, LOOP_DETECT_ACT_CTRLm, 0, sizeof(loop_detect_act_ctrl_t), &
 3427              		.loc 1 464 5 discriminator 5 view .LVU856
 464:../switch_sdk/core/fal/tiger/fal_tiger_port.c ****     CMM_ERR_CHK(HAL_TBL_REG_WRITE(unit, LOOP_DETECT_ACT_CTRLm, 0, sizeof(loop_detect_act_ctrl_t), &
 3428              		.loc 1 464 5 discriminator 5 view .LVU857
 464:../switch_sdk/core/fal/tiger/fal_tiger_port.c ****     CMM_ERR_CHK(HAL_TBL_REG_WRITE(unit, LOOP_DETECT_ACT_CTRLm, 0, sizeof(loop_detect_act_ctrl_t), &
 3429              		.loc 1 464 5 discriminator 5 view .LVU858
 3430 00f2 E0B2     		uxtb	r0, r4
 3431 00f4 9BE7     		b	.L225
 3432              	.LVL364:
 3433              	.L247:
 464:../switch_sdk/core/fal/tiger/fal_tiger_port.c ****     CMM_ERR_CHK(HAL_TBL_REG_WRITE(unit, LOOP_DETECT_ACT_CTRLm, 0, sizeof(loop_detect_act_ctrl_t), &
 3434              		.loc 1 464 5 discriminator 3 view .LVU859
 3435              	.LBB40:
 464:../switch_sdk/core/fal/tiger/fal_tiger_port.c ****     CMM_ERR_CHK(HAL_TBL_REG_WRITE(unit, LOOP_DETECT_ACT_CTRLm, 0, sizeof(loop_detect_act_ctrl_t), &
 3436              		.loc 1 464 5 discriminator 3 view .LVU860
 3437 00f6 142B     		cmp	r3, #20
 3438 00f8 28BF     		it	cs
 3439 00fa 1423     		movcs	r3, #20
 3440 00fc 1A46     		mov	r2, r3
 3441 00fe 194B     		ldr	r3, .L250+4
 3442 0100 0093     		str	r3, [sp]
 3443 0102 1F4B     		ldr	r3, .L250+32
 3444 0104 1949     		ldr	r1, .L250+12
 3445 0106 51F82220 		ldr	r2, [r1, r2, lsl #2]
 3446 010a 1949     		ldr	r1, .L250+16
 3447 010c 8968     		ldr	r1, [r1, #8]
 3448 010e 1948     		ldr	r0, .L250+20
 3449              	.LVL365:
 464:../switch_sdk/core/fal/tiger/fal_tiger_port.c ****     CMM_ERR_CHK(HAL_TBL_REG_WRITE(unit, LOOP_DETECT_ACT_CTRLm, 0, sizeof(loop_detect_act_ctrl_t), &
 3450              		.loc 1 464 5 is_stmt 0 discriminator 3 view .LVU861
 3451 0110 FFF7FEFF 		bl	osal_printf
 3452              	.LVL366:
 3453 0114 EDE7     		b	.L235
 3454              	.LVL367:
 3455              	.L234:
 464:../switch_sdk/core/fal/tiger/fal_tiger_port.c ****     CMM_ERR_CHK(HAL_TBL_REG_WRITE(unit, LOOP_DETECT_ACT_CTRLm, 0, sizeof(loop_detect_act_ctrl_t), &
 3456              		.loc 1 464 5 discriminator 3 view .LVU862
 3457              	.LBE40:
 464:../switch_sdk/core/fal/tiger/fal_tiger_port.c ****     CMM_ERR_CHK(HAL_TBL_REG_WRITE(unit, LOOP_DETECT_ACT_CTRLm, 0, sizeof(loop_detect_act_ctrl_t), &
 3458              		.loc 1 464 5 is_stmt 1 discriminator 2 view .LVU863
 465:../switch_sdk/core/fal/tiger/fal_tiger_port.c **** 
 3459              		.loc 1 465 5 discriminator 2 view .LVU864
 465:../switch_sdk/core/fal/tiger/fal_tiger_port.c **** 
 3460              		.loc 1 465 5 discriminator 2 view .LVU865
 3461 0116 02AB     		add	r3, sp, #8
 3462 0118 0093     		str	r3, [sp]
 3463 011a 0423     		movs	r3, #4
 3464 011c 0022     		movs	r2, #0
 3465 011e A921     		movs	r1, #169
 3466 0120 2846     		mov	r0, r5
 3467              	.LVL368:
 465:../switch_sdk/core/fal/tiger/fal_tiger_port.c **** 
 3468              		.loc 1 465 5 is_stmt 0 discriminator 2 view .LVU866
 3469 0122 FFF7FEFF 		bl	hal_table_reg_write
 3470              	.LVL369:
 3471 0126 0446     		mov	r4, r0
 3472              	.LVL370:
 465:../switch_sdk/core/fal/tiger/fal_tiger_port.c **** 
 3473              		.loc 1 465 5 discriminator 2 view .LVU867
 3474 0128 10F0FF03 		ands	r3, r0, #255
 3475 012c 01D1     		bne	.L248
 467:../switch_sdk/core/fal/tiger/fal_tiger_port.c **** }
 3476              		.loc 1 467 12 view .LVU868
 3477 012e 0020     		movs	r0, #0
 3478              	.LVL371:
 467:../switch_sdk/core/fal/tiger/fal_tiger_port.c **** }
 3479              		.loc 1 467 12 view .LVU869
 3480 0130 7DE7     		b	.L225
 3481              	.LVL372:
 3482              	.L248:
 465:../switch_sdk/core/fal/tiger/fal_tiger_port.c **** 
 3483              		.loc 1 465 5 is_stmt 1 discriminator 1 view .LVU870
 465:../switch_sdk/core/fal/tiger/fal_tiger_port.c **** 
 3484              		.loc 1 465 5 discriminator 1 view .LVU871
 3485 0132 0B4A     		ldr	r2, .L250
 3486 0134 1278     		ldrb	r2, [r2]	@ zero_extendqisi2
 3487 0136 012A     		cmp	r2, #1
 3488 0138 01D8     		bhi	.L249
 3489              	.LVL373:
 3490              	.L236:
 465:../switch_sdk/core/fal/tiger/fal_tiger_port.c **** 
 3491              		.loc 1 465 5 discriminator 5 view .LVU872
 465:../switch_sdk/core/fal/tiger/fal_tiger_port.c **** 
 3492              		.loc 1 465 5 discriminator 5 view .LVU873
 465:../switch_sdk/core/fal/tiger/fal_tiger_port.c **** 
 3493              		.loc 1 465 5 discriminator 5 view .LVU874
 3494 013a E0B2     		uxtb	r0, r4
 3495 013c 77E7     		b	.L225
 3496              	.LVL374:
 3497              	.L249:
 465:../switch_sdk/core/fal/tiger/fal_tiger_port.c **** 
 3498              		.loc 1 465 5 discriminator 3 view .LVU875
 3499              	.LBB41:
 465:../switch_sdk/core/fal/tiger/fal_tiger_port.c **** 
 3500              		.loc 1 465 5 discriminator 3 view .LVU876
 3501 013e 142B     		cmp	r3, #20
 3502 0140 28BF     		it	cs
 3503 0142 1423     		movcs	r3, #20
 3504 0144 1A46     		mov	r2, r3
 3505 0146 074B     		ldr	r3, .L250+4
 3506 0148 0093     		str	r3, [sp]
 3507 014a 0E4B     		ldr	r3, .L250+36
 3508 014c 0749     		ldr	r1, .L250+12
 3509 014e 51F82220 		ldr	r2, [r1, r2, lsl #2]
 3510 0152 0749     		ldr	r1, .L250+16
 3511 0154 8968     		ldr	r1, [r1, #8]
 3512 0156 0748     		ldr	r0, .L250+20
 3513              	.LVL375:
 465:../switch_sdk/core/fal/tiger/fal_tiger_port.c **** 
 3514              		.loc 1 465 5 is_stmt 0 discriminator 3 view .LVU877
 3515 0158 FFF7FEFF 		bl	osal_printf
 3516              	.LVL376:
 3517 015c EDE7     		b	.L236
 3518              	.L251:
 3519 015e 00BF     		.align	2
 3520              	.L250:
 3521 0160 00000000 		.word	yt_debug_level
 3522 0164 00000000 		.word	__FUNCTION__.30
 3523 0168 00000000 		.word	.LC19
 3524 016c 00000000 		.word	_yt_errmsg
 3525 0170 00000000 		.word	_yt_prompt_msg
 3526 0174 34000000 		.word	.LC1
 3527 0178 00000000 		.word	gcal_inited
 3528 017c 00000000 		.word	gpSwitchUnit
 3529 0180 40000000 		.word	.LC20
 3530 0184 80000000 		.word	.LC21
 3531              	.LBE41:
 3532              		.cfi_endproc
 3533              	.LFE15:
 3535              		.section	.text.fal_tiger_port_cascade_get,"ax",%progbits
 3536              		.align	1
 3537              		.global	fal_tiger_port_cascade_get
 3538              		.syntax unified
 3539              		.thumb
 3540              		.thumb_func
 3542              	fal_tiger_port_cascade_get:
 3543              	.LVL377:
 3544              	.LFB16:
 469:../switch_sdk/core/fal/tiger/fal_tiger_port.c **** 
 470:../switch_sdk/core/fal/tiger/fal_tiger_port.c **** yt_ret_t fal_tiger_port_cascade_get(yt_unit_t unit, yt_cascade_info_t *pCascade_info)
 471:../switch_sdk/core/fal/tiger/fal_tiger_port.c **** {
 3545              		.loc 1 471 1 is_stmt 1 view -0
 3546              		.cfi_startproc
 3547              		@ args = 0, pretend = 0, frame = 8
 3548              		@ frame_needed = 0, uses_anonymous_args = 0
 472:../switch_sdk/core/fal/tiger/fal_tiger_port.c ****     cmm_err_t ret = CMM_ERR_OK;
 3549              		.loc 1 472 5 view .LVU879
 473:../switch_sdk/core/fal/tiger/fal_tiger_port.c ****     cascade_ctrl_t entry;
 3550              		.loc 1 473 5 view .LVU880
 474:../switch_sdk/core/fal/tiger/fal_tiger_port.c ****     yt_macid_t mac_id;
 3551              		.loc 1 474 5 view .LVU881
 475:../switch_sdk/core/fal/tiger/fal_tiger_port.c ****     uint32_t field_id;
 3552              		.loc 1 475 5 view .LVU882
 476:../switch_sdk/core/fal/tiger/fal_tiger_port.c ****     uint32_t i;
 3553              		.loc 1 476 5 view .LVU883
 477:../switch_sdk/core/fal/tiger/fal_tiger_port.c **** 
 478:../switch_sdk/core/fal/tiger/fal_tiger_port.c ****     if(NULL == pCascade_info)
 3554              		.loc 1 478 5 view .LVU884
 3555              		.loc 1 478 7 is_stmt 0 view .LVU885
 3556 0000 0029     		cmp	r1, #0
 3557 0002 63D0     		beq	.L264
 471:../switch_sdk/core/fal/tiger/fal_tiger_port.c ****     cmm_err_t ret = CMM_ERR_OK;
 3558              		.loc 1 471 1 view .LVU886
 3559 0004 F0B5     		push	{r4, r5, r6, r7, lr}
 3560              		.cfi_def_cfa_offset 20
 3561              		.cfi_offset 4, -20
 3562              		.cfi_offset 5, -16
 3563              		.cfi_offset 6, -12
 3564              		.cfi_offset 7, -8
 3565              		.cfi_offset 14, -4
 3566 0006 85B0     		sub	sp, sp, #20
 3567              		.cfi_def_cfa_offset 40
 3568 0008 0546     		mov	r5, r0
 3569 000a 0F46     		mov	r7, r1
 479:../switch_sdk/core/fal/tiger/fal_tiger_port.c ****         return CMM_ERR_NULL_POINT;
 480:../switch_sdk/core/fal/tiger/fal_tiger_port.c **** 
 481:../switch_sdk/core/fal/tiger/fal_tiger_port.c ****     CMM_ERR_CHK(HAL_TBL_REG_READ(unit, CASCADE_CTRLm, 0, sizeof(cascade_ctrl_t), &entry), ret);
 3570              		.loc 1 481 5 is_stmt 1 view .LVU887
 3571              		.loc 1 481 5 view .LVU888
 3572 000c 03AB     		add	r3, sp, #12
 3573 000e 0093     		str	r3, [sp]
 3574 0010 0423     		movs	r3, #4
 3575 0012 0022     		movs	r2, #0
 3576 0014 A821     		movs	r1, #168
 3577              	.LVL378:
 3578              		.loc 1 481 5 is_stmt 0 view .LVU889
 3579 0016 FFF7FEFF 		bl	hal_table_reg_read
 3580              	.LVL379:
 3581              		.loc 1 481 5 view .LVU890
 3582 001a 0446     		mov	r4, r0
 3583              	.LVL380:
 3584              		.loc 1 481 5 view .LVU891
 3585 001c 10F0FF06 		ands	r6, r0, #255
 3586 0020 15D0     		beq	.L254
 3587              		.loc 1 481 5 is_stmt 1 discriminator 1 view .LVU892
 3588              		.loc 1 481 5 discriminator 1 view .LVU893
 3589 0022 2B4B     		ldr	r3, .L275
 3590 0024 1B78     		ldrb	r3, [r3]	@ zero_extendqisi2
 3591 0026 012B     		cmp	r3, #1
 3592 0028 02D8     		bhi	.L271
 3593              	.LVL381:
 3594              	.L255:
 3595              		.loc 1 481 5 discriminator 5 view .LVU894
 3596              		.loc 1 481 5 discriminator 5 view .LVU895
 3597              		.loc 1 481 5 discriminator 5 view .LVU896
 3598 002a E0B2     		uxtb	r0, r4
 3599              	.L252:
 482:../switch_sdk/core/fal/tiger/fal_tiger_port.c ****     HAL_FIELD_GET(CASCADE_CTRLm, CASCADE_CTRL_ENf, &entry, &pCascade_info->en);
 483:../switch_sdk/core/fal/tiger/fal_tiger_port.c ****     for (i = 0; i < YT_MAX_CASCADE_PORT_NUM; i++)
 484:../switch_sdk/core/fal/tiger/fal_tiger_port.c ****     {
 485:../switch_sdk/core/fal/tiger/fal_tiger_port.c ****         if (0 == i)
 486:../switch_sdk/core/fal/tiger/fal_tiger_port.c ****             field_id = CASCADE_CTRL_PORT0f;
 487:../switch_sdk/core/fal/tiger/fal_tiger_port.c ****         else if (1 == i)
 488:../switch_sdk/core/fal/tiger/fal_tiger_port.c ****             field_id = CASCADE_CTRL_PORT1f;
 489:../switch_sdk/core/fal/tiger/fal_tiger_port.c ****         else
 490:../switch_sdk/core/fal/tiger/fal_tiger_port.c ****             return CMM_ERR_EXCEED_RANGE;
 491:../switch_sdk/core/fal/tiger/fal_tiger_port.c **** 
 492:../switch_sdk/core/fal/tiger/fal_tiger_port.c ****         HAL_FIELD_GET(CASCADE_CTRLm, field_id, &entry, &mac_id);
 493:../switch_sdk/core/fal/tiger/fal_tiger_port.c ****         if (YT_INVALID_CASCADE_PORT == mac_id)
 494:../switch_sdk/core/fal/tiger/fal_tiger_port.c ****         {
 495:../switch_sdk/core/fal/tiger/fal_tiger_port.c ****             pCascade_info->ports[i].valid = 0;
 496:../switch_sdk/core/fal/tiger/fal_tiger_port.c ****             pCascade_info->ports[i].port_num = YT_INVALID_CASCADE_PORT;
 497:../switch_sdk/core/fal/tiger/fal_tiger_port.c ****         }
 498:../switch_sdk/core/fal/tiger/fal_tiger_port.c ****         else
 499:../switch_sdk/core/fal/tiger/fal_tiger_port.c ****         {
 500:../switch_sdk/core/fal/tiger/fal_tiger_port.c ****             pCascade_info->ports[i].valid = 1;
 501:../switch_sdk/core/fal/tiger/fal_tiger_port.c ****             CAL_MAC_TO_YTP(unit, mac_id, pCascade_info->ports[i].port_num);
 502:../switch_sdk/core/fal/tiger/fal_tiger_port.c ****         }
 503:../switch_sdk/core/fal/tiger/fal_tiger_port.c ****     }
 504:../switch_sdk/core/fal/tiger/fal_tiger_port.c **** 
 505:../switch_sdk/core/fal/tiger/fal_tiger_port.c ****     return CMM_ERR_OK;
 506:../switch_sdk/core/fal/tiger/fal_tiger_port.c **** }
 3600              		.loc 1 506 1 is_stmt 0 view .LVU897
 3601 002c 05B0     		add	sp, sp, #20
 3602              		.cfi_remember_state
 3603              		.cfi_def_cfa_offset 20
 3604              		@ sp needed
 3605 002e F0BD     		pop	{r4, r5, r6, r7, pc}
 3606              	.LVL382:
 3607              	.L271:
 3608              		.cfi_restore_state
 481:../switch_sdk/core/fal/tiger/fal_tiger_port.c ****     HAL_FIELD_GET(CASCADE_CTRLm, CASCADE_CTRL_ENf, &entry, &pCascade_info->en);
 3609              		.loc 1 481 5 is_stmt 1 discriminator 3 view .LVU898
 3610              	.LBB42:
 481:../switch_sdk/core/fal/tiger/fal_tiger_port.c ****     HAL_FIELD_GET(CASCADE_CTRLm, CASCADE_CTRL_ENf, &entry, &pCascade_info->en);
 3611              		.loc 1 481 5 discriminator 3 view .LVU899
 3612 0030 142E     		cmp	r6, #20
 3613 0032 28BF     		it	cs
 3614 0034 1426     		movcs	r6, #20
 3615 0036 274B     		ldr	r3, .L275+4
 3616 0038 0093     		str	r3, [sp]
 3617 003a 274B     		ldr	r3, .L275+8
 3618 003c 274A     		ldr	r2, .L275+12
 3619 003e 52F82620 		ldr	r2, [r2, r6, lsl #2]
