   1              		.cpu cortex-m3
   2              		.arch armv7-m
   3              		.fpu softvfp
   4              		.eabi_attribute 20, 1
   5              		.eabi_attribute 21, 1
   6              		.eabi_attribute 23, 3
   7              		.eabi_attribute 24, 1
   8              		.eabi_attribute 25, 1
   9              		.eabi_attribute 26, 1
  10              		.eabi_attribute 30, 1
  11              		.eabi_attribute 34, 1
  12              		.eabi_attribute 18, 4
  13              		.file	"fal_tiger_port_isolation.c"
  14              		.text
  15              	.Ltext0:
  16              		.cfi_sections	.debug_frame
  17              		.file 1 "../switch_sdk/core/fal/tiger/fal_tiger_port_isolation.c"
  18              		.section	.rodata.fal_tiger_port_isolation_set.str1.4,"aMS",%progbits,1
  19              		.align	2
  20              	.LC0:
  21 0000 68616C5F 		.ascii	"hal_table_reg_read(unit,120,macid,sizeof(l2_port_is"
  21      7461626C 
  21      655F7265 
  21      675F7265 
  21      61642875 
  22 0033 6F6C6174 		.ascii	"olation_ctrln_t),&entry)\000"
  22      696F6E5F 
  22      6374726C 
  22      6E5F7429 
  22      2C26656E 
  23              		.align	2
  24              	.LC1:
  25 004c 25732573 		.ascii	"%s%s of \"%s\" in %s\015\012\000"
  25      206F6620 
  25      22257322 
  25      20696E20 
  25      25730D0A 
  26 0061 000000   		.align	2
  27              	.LC2:
  28 0064 68616C5F 		.ascii	"hal_table_reg_write(unit,120,macid,sizeof(l2_port_i"
  28      7461626C 
  28      655F7265 
  28      675F7772 
  28      69746528 
  29 0097 736F6C61 		.ascii	"solation_ctrln_t),&entry)\000"
  29      74696F6E 
  29      5F637472 
  29      6C6E5F74 
  29      292C2665 
  30              		.section	.text.fal_tiger_port_isolation_set,"ax",%progbits
  31              		.align	1
  32              		.global	fal_tiger_port_isolation_set
  33              		.syntax unified
  34              		.thumb
  35              		.thumb_func
  37              	fal_tiger_port_isolation_set:
  38              	.LVL0:
  39              	.LFB3:
   1:../switch_sdk/core/fal/tiger/fal_tiger_port_isolation.c **** /*
   2:../switch_sdk/core/fal/tiger/fal_tiger_port_isolation.c ****  * Include Files
   3:../switch_sdk/core/fal/tiger/fal_tiger_port_isolation.c ****  */
   4:../switch_sdk/core/fal/tiger/fal_tiger_port_isolation.c **** #include "yt_error.h"
   5:../switch_sdk/core/fal/tiger/fal_tiger_port_isolation.c **** //#include "osal_mem.h"
   6:../switch_sdk/core/fal/tiger/fal_tiger_port_isolation.c **** //#include "osal_print.h"
   7:../switch_sdk/core/fal/tiger/fal_tiger_port_isolation.c **** #include "fal_tiger_port_isolation.h"
   8:../switch_sdk/core/fal/tiger/fal_tiger_port_isolation.c **** #include "hal_mem.h"
   9:../switch_sdk/core/fal/tiger/fal_tiger_port_isolation.c **** #include "fal_tiger_struct.h"
  10:../switch_sdk/core/fal/tiger/fal_tiger_port_isolation.c **** #include "fal_tiger_entry.h"
  11:../switch_sdk/core/fal/tiger/fal_tiger_port_isolation.c **** #include "fal_tiger_mem.h"
  12:../switch_sdk/core/fal/tiger/fal_tiger_port_isolation.c **** 
  13:../switch_sdk/core/fal/tiger/fal_tiger_port_isolation.c **** 
  14:../switch_sdk/core/fal/tiger/fal_tiger_port_isolation.c **** yt_ret_t fal_tiger_port_isolation_set(yt_unit_t unit, yt_port_t port, yt_port_mask_t iso_portmask)
  15:../switch_sdk/core/fal/tiger/fal_tiger_port_isolation.c **** {
  40              		.loc 1 15 1 view -0
  41              		.cfi_startproc
  42              		@ args = 0, pretend = 0, frame = 16
  43              		@ frame_needed = 0, uses_anonymous_args = 0
  44              		.loc 1 15 1 is_stmt 0 view .LVU1
  45 0000 70B5     		push	{r4, r5, r6, lr}
  46              		.cfi_def_cfa_offset 16
  47              		.cfi_offset 4, -16
  48              		.cfi_offset 5, -12
  49              		.cfi_offset 6, -8
  50              		.cfi_offset 14, -4
  51 0002 86B0     		sub	sp, sp, #24
  52              		.cfi_def_cfa_offset 40
  53 0004 0446     		mov	r4, r0
  54 0006 0392     		str	r2, [sp, #12]
  16:../switch_sdk/core/fal/tiger/fal_tiger_port_isolation.c ****     l2_port_isolation_ctrln_t  entry;
  55              		.loc 1 16 5 is_stmt 1 view .LVU2
  17:../switch_sdk/core/fal/tiger/fal_tiger_port_isolation.c ****     cmm_err_t ret = CMM_ERR_OK;
  56              		.loc 1 17 5 view .LVU3
  57              	.LVL1:
  18:../switch_sdk/core/fal/tiger/fal_tiger_port_isolation.c ****     yt_macid_t macid;
  58              		.loc 1 18 5 view .LVU4
  19:../switch_sdk/core/fal/tiger/fal_tiger_port_isolation.c ****     yt_port_mask_t macmask;
  59              		.loc 1 19 5 view .LVU5
  20:../switch_sdk/core/fal/tiger/fal_tiger_port_isolation.c **** 
  21:../switch_sdk/core/fal/tiger/fal_tiger_port_isolation.c ****     macid = CAL_YTP_TO_MAC(unit,port);
  60              		.loc 1 21 5 view .LVU6
  61              		.loc 1 21 13 is_stmt 0 view .LVU7
  62 0008 4A4B     		ldr	r3, .L20
  63 000a 1B78     		ldrb	r3, [r3]	@ zero_extendqisi2
  64 000c 53B1     		cbz	r3, .L12
  65              		.loc 1 21 13 discriminator 1 view .LVU8
  66 000e 4A4B     		ldr	r3, .L20+4
  67 0010 53F82030 		ldr	r3, [r3, r0, lsl #2]
  68 0014 1A7D     		ldrb	r2, [r3, #20]	@ zero_extendqisi2
  69 0016 8A42     		cmp	r2, r1
  70 0018 09D9     		bls	.L13
  71              		.loc 1 21 13 discriminator 3 view .LVU9
  72 001a 0631     		adds	r1, r1, #6
  73              	.LVL2:
  74              		.loc 1 21 13 discriminator 3 view .LVU10
  75 001c 53F82130 		ldr	r3, [r3, r1, lsl #2]
  76 0020 1D78     		ldrb	r5, [r3]	@ zero_extendqisi2
  77 0022 00E0     		b	.L2
  78              	.LVL3:
  79              	.L12:
  80              		.loc 1 21 13 view .LVU11
  81 0024 FF25     		movs	r5, #255
  82              	.LVL4:
  83              	.L2:
  22:../switch_sdk/core/fal/tiger/fal_tiger_port_isolation.c ****     CAL_YTPLIST_TO_MLIST(unit,iso_portmask, macmask);
  84              		.loc 1 22 5 is_stmt 1 discriminator 6 view .LVU12
  85              	.LBB2:
  86              		.loc 1 22 5 discriminator 6 view .LVU13
  87              		.loc 1 22 5 discriminator 6 view .LVU14
  88              		.loc 1 22 5 discriminator 6 view .LVU15
  89              	.LBB3:
  90              		.loc 1 22 5 discriminator 6 view .LVU16
  91              		.loc 1 22 5 discriminator 6 view .LVU17
  92              		.loc 1 22 5 is_stmt 0 discriminator 6 view .LVU18
  93 0026 0023     		movs	r3, #0
  94              	.LVL5:
  95              	.L3:
  96              		.loc 1 22 5 is_stmt 1 discriminator 1 view .LVU19
  97 0028 1BB1     		cbz	r3, .L4
  98              	.LBE3:
  99              		.loc 1 22 5 is_stmt 0 view .LVU20
 100 002a 0023     		movs	r3, #0
 101              	.LVL6:
 102              		.loc 1 22 5 view .LVU21
 103 002c 0CE0     		b	.L5
 104              	.LVL7:
 105              	.L13:
 106              		.loc 1 22 5 view .LVU22
 107              	.LBE2:
  21:../switch_sdk/core/fal/tiger/fal_tiger_port_isolation.c ****     CAL_YTPLIST_TO_MLIST(unit,iso_portmask, macmask);
 108              		.loc 1 21 13 view .LVU23
 109 002e FF25     		movs	r5, #255
 110 0030 F9E7     		b	.L2
 111              	.LVL8:
 112              	.L4:
 113              	.LBB7:
 114              	.LBB4:
 115              		.loc 1 22 5 is_stmt 1 discriminator 3 view .LVU24
 116 0032 06AA     		add	r2, sp, #24
 117 0034 02EB8302 		add	r2, r2, r3, lsl #2
 118 0038 0021     		movs	r1, #0
 119 003a 42F8081C 		str	r1, [r2, #-8]
 120              		.loc 1 22 5 discriminator 3 view .LVU25
 121 003e 0133     		adds	r3, r3, #1
 122              	.LVL9:
 123              		.loc 1 22 5 is_stmt 0 discriminator 3 view .LVU26
 124 0040 DBB2     		uxtb	r3, r3
 125              	.LVL10:
 126              		.loc 1 22 5 discriminator 3 view .LVU27
 127 0042 F1E7     		b	.L3
 128              	.LVL11:
 129              	.L6:
 130              		.loc 1 22 5 discriminator 3 view .LVU28
 131              	.LBE4:
 132              		.loc 1 22 5 is_stmt 1 discriminator 16 view .LVU29
 133              		.loc 1 22 5 discriminator 16 view .LVU30
 134 0044 0133     		adds	r3, r3, #1
 135              	.LVL12:
 136              		.loc 1 22 5 is_stmt 0 discriminator 16 view .LVU31
 137 0046 DBB2     		uxtb	r3, r3
 138              	.LVL13:
 139              	.L5:
 140              		.loc 1 22 5 is_stmt 1 discriminator 17 view .LVU32
 141 0048 3B4A     		ldr	r2, .L20+4
 142 004a 52F82410 		ldr	r1, [r2, r4, lsl #2]
 143 004e 0A7D     		ldrb	r2, [r1, #20]	@ zero_extendqisi2
 144 0050 9A42     		cmp	r2, r3
 145 0052 21D9     		bls	.L16
 146              		.loc 1 22 5 discriminator 18 view .LVU33
 147              	.LBB5:
 148              		.loc 1 22 5 discriminator 18 view .LVU34
 149              		.loc 1 22 5 discriminator 18 view .LVU35
 150              		.loc 1 22 5 discriminator 18 view .LVU36
 151 0054 5A09     		lsrs	r2, r3, #5
 152              	.LVL14:
 153              		.loc 1 22 5 discriminator 18 view .LVU37
 154 0056 03F01F00 		and	r0, r3, #31
 155              	.LVL15:
 156              		.loc 1 22 5 discriminator 18 view .LVU38
 157 005a 1F2B     		cmp	r3, #31
 158 005c F2D8     		bhi	.L6
 159              		.loc 1 22 5 is_stmt 0 discriminator 6 view .LVU39
 160 005e 06AE     		add	r6, sp, #24
 161 0060 06EB8202 		add	r2, r6, r2, lsl #2
 162              	.LVL16:
 163              		.loc 1 22 5 discriminator 6 view .LVU40
 164 0064 52F80C6C 		ldr	r6, [r2, #-12]
 165 0068 0122     		movs	r2, #1
 166 006a 8240     		lsls	r2, r2, r0
 167 006c 1642     		tst	r6, r2
 168 006e E9D0     		beq	.L6
 169              	.LVL17:
 170              		.loc 1 22 5 discriminator 6 view .LVU41
 171              	.LBE5:
 172              		.loc 1 22 5 is_stmt 1 view .LVU42
 173              		.loc 1 22 5 view .LVU43
 174              		.loc 1 22 5 view .LVU44
 175              	.LBB6:
 176              		.loc 1 22 5 view .LVU45
 177              		.loc 1 22 5 view .LVU46
 178              		.loc 1 22 5 view .LVU47
 179 0070 9A1D     		adds	r2, r3, #6
 180 0072 51F82220 		ldr	r2, [r1, r2, lsl #2]
 181 0076 1278     		ldrb	r2, [r2]	@ zero_extendqisi2
 182 0078 5109     		lsrs	r1, r2, #5
 183              	.LVL18:
 184              		.loc 1 22 5 view .LVU48
 185 007a 02F01F06 		and	r6, r2, #31
 186              	.LVL19:
 187              		.loc 1 22 5 view .LVU49
 188 007e 1F2A     		cmp	r2, #31
 189 0080 E0D8     		bhi	.L6
 190              		.loc 1 22 5 discriminator 14 view .LVU50
 191 0082 06AA     		add	r2, sp, #24
 192 0084 02EB8102 		add	r2, r2, r1, lsl #2
 193 0088 52F8081C 		ldr	r1, [r2, #-8]
 194              	.LVL20:
 195              		.loc 1 22 5 is_stmt 0 discriminator 14 view .LVU51
 196 008c 0120     		movs	r0, #1
 197              	.LVL21:
 198              		.loc 1 22 5 discriminator 14 view .LVU52
 199 008e B040     		lsls	r0, r0, r6
 200 0090 0143     		orrs	r1, r1, r0
 201 0092 42F8081C 		str	r1, [r2, #-8]
 202 0096 D5E7     		b	.L6
 203              	.LVL22:
 204              	.L16:
 205              		.loc 1 22 5 discriminator 14 view .LVU53
 206              	.LBE6:
 207              	.LBE7:
 208              		.loc 1 22 5 is_stmt 1 discriminator 19 view .LVU54
  23:../switch_sdk/core/fal/tiger/fal_tiger_port_isolation.c **** 
  24:../switch_sdk/core/fal/tiger/fal_tiger_port_isolation.c ****     CMM_ERR_CHK(HAL_TBL_REG_READ(unit, L2_PORT_ISOLATION_CTRLNm, macid, sizeof(l2_port_isolation_ct
 209              		.loc 1 24 5 discriminator 19 view .LVU55
 210              		.loc 1 24 5 discriminator 19 view .LVU56
 211 0098 05AB     		add	r3, sp, #20
 212              	.LVL23:
 213              		.loc 1 24 5 is_stmt 0 discriminator 19 view .LVU57
 214 009a 0093     		str	r3, [sp]
 215 009c 0423     		movs	r3, #4
 216 009e 2A46     		mov	r2, r5
 217 00a0 7821     		movs	r1, #120
 218 00a2 2046     		mov	r0, r4
 219 00a4 FFF7FEFF 		bl	hal_table_reg_read
 220              	.LVL24:
 221 00a8 0646     		mov	r6, r0
 222              	.LVL25:
 223              		.loc 1 24 5 discriminator 19 view .LVU58
 224 00aa 10F0FF03 		ands	r3, r0, #255
 225 00ae 16D0     		beq	.L8
 226              		.loc 1 24 5 is_stmt 1 discriminator 1 view .LVU59
 227              		.loc 1 24 5 discriminator 1 view .LVU60
 228 00b0 224A     		ldr	r2, .L20+8
 229 00b2 1278     		ldrb	r2, [r2]	@ zero_extendqisi2
 230 00b4 012A     		cmp	r2, #1
 231 00b6 02D8     		bhi	.L17
 232              	.LVL26:
 233              	.L9:
 234              		.loc 1 24 5 discriminator 5 view .LVU61
 235              		.loc 1 24 5 discriminator 5 view .LVU62
 236              		.loc 1 24 5 discriminator 5 view .LVU63
 237 00b8 F0B2     		uxtb	r0, r6
 238              	.LVL27:
 239              	.L1:
  25:../switch_sdk/core/fal/tiger/fal_tiger_port_isolation.c ****     HAL_FIELD_SET(L2_PORT_ISOLATION_CTRLNm, L2_PORT_ISOLATION_CTRLN_ISOLATED_PORT_MASKf, &entry, ma
  26:../switch_sdk/core/fal/tiger/fal_tiger_port_isolation.c ****     CMM_ERR_CHK(HAL_TBL_REG_WRITE(unit, L2_PORT_ISOLATION_CTRLNm, macid, sizeof(l2_port_isolation_c
  27:../switch_sdk/core/fal/tiger/fal_tiger_port_isolation.c ****     return CMM_ERR_OK;
  28:../switch_sdk/core/fal/tiger/fal_tiger_port_isolation.c **** }
 240              		.loc 1 28 1 is_stmt 0 view .LVU64
 241 00ba 06B0     		add	sp, sp, #24
 242              		.cfi_remember_state
 243              		.cfi_def_cfa_offset 16
 244              		@ sp needed
 245 00bc 70BD     		pop	{r4, r5, r6, pc}
 246              	.LVL28:
 247              	.L17:
 248              		.cfi_restore_state
  24:../switch_sdk/core/fal/tiger/fal_tiger_port_isolation.c ****     HAL_FIELD_SET(L2_PORT_ISOLATION_CTRLNm, L2_PORT_ISOLATION_CTRLN_ISOLATED_PORT_MASKf, &entry, ma
 249              		.loc 1 24 5 is_stmt 1 discriminator 3 view .LVU65
 250              	.LBB8:
  24:../switch_sdk/core/fal/tiger/fal_tiger_port_isolation.c ****     HAL_FIELD_SET(L2_PORT_ISOLATION_CTRLNm, L2_PORT_ISOLATION_CTRLN_ISOLATED_PORT_MASKf, &entry, ma
 251              		.loc 1 24 5 discriminator 3 view .LVU66
 252 00be 142B     		cmp	r3, #20
 253 00c0 28BF     		it	cs
 254 00c2 1423     		movcs	r3, #20
 255 00c4 1A46     		mov	r2, r3
 256 00c6 1E4B     		ldr	r3, .L20+12
 257 00c8 0093     		str	r3, [sp]
 258 00ca 1E4B     		ldr	r3, .L20+16
 259 00cc 1E49     		ldr	r1, .L20+20
 260 00ce 51F82220 		ldr	r2, [r1, r2, lsl #2]
 261 00d2 1E49     		ldr	r1, .L20+24
 262 00d4 8968     		ldr	r1, [r1, #8]
 263 00d6 1E48     		ldr	r0, .L20+28
 264              	.LVL29:
  24:../switch_sdk/core/fal/tiger/fal_tiger_port_isolation.c ****     HAL_FIELD_SET(L2_PORT_ISOLATION_CTRLNm, L2_PORT_ISOLATION_CTRLN_ISOLATED_PORT_MASKf, &entry, ma
 265              		.loc 1 24 5 is_stmt 0 discriminator 3 view .LVU67
 266 00d8 FFF7FEFF 		bl	osal_printf
 267              	.LVL30:
 268 00dc ECE7     		b	.L9
 269              	.LVL31:
 270              	.L8:
  24:../switch_sdk/core/fal/tiger/fal_tiger_port_isolation.c ****     HAL_FIELD_SET(L2_PORT_ISOLATION_CTRLNm, L2_PORT_ISOLATION_CTRLN_ISOLATED_PORT_MASKf, &entry, ma
 271              		.loc 1 24 5 discriminator 3 view .LVU68
 272              	.LBE8:
  24:../switch_sdk/core/fal/tiger/fal_tiger_port_isolation.c ****     HAL_FIELD_SET(L2_PORT_ISOLATION_CTRLNm, L2_PORT_ISOLATION_CTRLN_ISOLATED_PORT_MASKf, &entry, ma
 273              		.loc 1 24 5 is_stmt 1 discriminator 2 view .LVU69
  25:../switch_sdk/core/fal/tiger/fal_tiger_port_isolation.c ****     HAL_FIELD_SET(L2_PORT_ISOLATION_CTRLNm, L2_PORT_ISOLATION_CTRLN_ISOLATED_PORT_MASKf, &entry, ma
 274              		.loc 1 25 5 discriminator 2 view .LVU70
 275 00de 05AE     		add	r6, sp, #20
 276 00e0 049B     		ldr	r3, [sp, #16]
 277 00e2 3246     		mov	r2, r6
 278 00e4 0021     		movs	r1, #0
 279 00e6 7820     		movs	r0, #120
 280              	.LVL32:
  25:../switch_sdk/core/fal/tiger/fal_tiger_port_isolation.c ****     HAL_FIELD_SET(L2_PORT_ISOLATION_CTRLNm, L2_PORT_ISOLATION_CTRLN_ISOLATED_PORT_MASKf, &entry, ma
 281              		.loc 1 25 5 is_stmt 0 discriminator 2 view .LVU71
 282 00e8 FFF7FEFF 		bl	hal_tbl_reg_field_set
 283              	.LVL33:
  26:../switch_sdk/core/fal/tiger/fal_tiger_port_isolation.c ****     return CMM_ERR_OK;
 284              		.loc 1 26 5 is_stmt 1 discriminator 2 view .LVU72
  26:../switch_sdk/core/fal/tiger/fal_tiger_port_isolation.c ****     return CMM_ERR_OK;
 285              		.loc 1 26 5 discriminator 2 view .LVU73
 286 00ec 0096     		str	r6, [sp]
 287 00ee 0423     		movs	r3, #4
 288 00f0 2A46     		mov	r2, r5
 289 00f2 7821     		movs	r1, #120
 290 00f4 2046     		mov	r0, r4
 291 00f6 FFF7FEFF 		bl	hal_table_reg_write
 292              	.LVL34:
 293 00fa 0646     		mov	r6, r0
 294              	.LVL35:
  26:../switch_sdk/core/fal/tiger/fal_tiger_port_isolation.c ****     return CMM_ERR_OK;
 295              		.loc 1 26 5 is_stmt 0 discriminator 2 view .LVU74
 296 00fc 10F0FF03 		ands	r3, r0, #255
 297 0100 01D1     		bne	.L18
  27:../switch_sdk/core/fal/tiger/fal_tiger_port_isolation.c **** }
 298              		.loc 1 27 12 view .LVU75
 299 0102 0020     		movs	r0, #0
 300              	.LVL36:
  27:../switch_sdk/core/fal/tiger/fal_tiger_port_isolation.c **** }
 301              		.loc 1 27 12 view .LVU76
 302 0104 D9E7     		b	.L1
 303              	.LVL37:
 304              	.L18:
  26:../switch_sdk/core/fal/tiger/fal_tiger_port_isolation.c ****     return CMM_ERR_OK;
 305              		.loc 1 26 5 is_stmt 1 discriminator 1 view .LVU77
  26:../switch_sdk/core/fal/tiger/fal_tiger_port_isolation.c ****     return CMM_ERR_OK;
 306              		.loc 1 26 5 discriminator 1 view .LVU78
 307 0106 0D4A     		ldr	r2, .L20+8
 308 0108 1278     		ldrb	r2, [r2]	@ zero_extendqisi2
 309 010a 012A     		cmp	r2, #1
 310 010c 01D8     		bhi	.L19
 311              	.LVL38:
 312              	.L11:
  26:../switch_sdk/core/fal/tiger/fal_tiger_port_isolation.c ****     return CMM_ERR_OK;
 313              		.loc 1 26 5 discriminator 5 view .LVU79
  26:../switch_sdk/core/fal/tiger/fal_tiger_port_isolation.c ****     return CMM_ERR_OK;
 314              		.loc 1 26 5 discriminator 5 view .LVU80
  26:../switch_sdk/core/fal/tiger/fal_tiger_port_isolation.c ****     return CMM_ERR_OK;
 315              		.loc 1 26 5 discriminator 5 view .LVU81
 316 010e F0B2     		uxtb	r0, r6
 317 0110 D3E7     		b	.L1
 318              	.LVL39:
 319              	.L19:
  26:../switch_sdk/core/fal/tiger/fal_tiger_port_isolation.c ****     return CMM_ERR_OK;
 320              		.loc 1 26 5 discriminator 3 view .LVU82
 321              	.LBB9:
  26:../switch_sdk/core/fal/tiger/fal_tiger_port_isolation.c ****     return CMM_ERR_OK;
 322              		.loc 1 26 5 discriminator 3 view .LVU83
 323 0112 142B     		cmp	r3, #20
 324 0114 28BF     		it	cs
 325 0116 1423     		movcs	r3, #20
 326 0118 1A46     		mov	r2, r3
 327 011a 094B     		ldr	r3, .L20+12
 328 011c 0093     		str	r3, [sp]
 329 011e 0D4B     		ldr	r3, .L20+32
 330 0120 0949     		ldr	r1, .L20+20
 331 0122 51F82220 		ldr	r2, [r1, r2, lsl #2]
 332 0126 0949     		ldr	r1, .L20+24
 333 0128 8968     		ldr	r1, [r1, #8]
 334 012a 0948     		ldr	r0, .L20+28
 335              	.LVL40:
  26:../switch_sdk/core/fal/tiger/fal_tiger_port_isolation.c ****     return CMM_ERR_OK;
 336              		.loc 1 26 5 is_stmt 0 discriminator 3 view .LVU84
 337 012c FFF7FEFF 		bl	osal_printf
 338              	.LVL41:
 339 0130 EDE7     		b	.L11
 340              	.L21:
 341 0132 00BF     		.align	2
 342              	.L20:
 343 0134 00000000 		.word	gcal_inited
 344 0138 00000000 		.word	gpSwitchUnit
 345 013c 00000000 		.word	yt_debug_level
 346 0140 00000000 		.word	__FUNCTION__.1
 347 0144 00000000 		.word	.LC0
 348 0148 00000000 		.word	_yt_errmsg
 349 014c 00000000 		.word	_yt_prompt_msg
 350 0150 4C000000 		.word	.LC1
 351 0154 64000000 		.word	.LC2
 352              	.LBE9:
 353              		.cfi_endproc
 354              	.LFE3:
 356              		.section	.text.fal_tiger_port_isolation_get,"ax",%progbits
 357              		.align	1
 358              		.global	fal_tiger_port_isolation_get
 359              		.syntax unified
 360              		.thumb
 361              		.thumb_func
 363              	fal_tiger_port_isolation_get:
 364              	.LVL42:
 365              	.LFB4:
  29:../switch_sdk/core/fal/tiger/fal_tiger_port_isolation.c **** 
  30:../switch_sdk/core/fal/tiger/fal_tiger_port_isolation.c **** yt_ret_t fal_tiger_port_isolation_get(yt_unit_t unit, yt_port_t port, yt_port_mask_t *pIso_portmask
  31:../switch_sdk/core/fal/tiger/fal_tiger_port_isolation.c **** {
 366              		.loc 1 31 1 is_stmt 1 view -0
 367              		.cfi_startproc
 368              		@ args = 0, pretend = 0, frame = 16
 369              		@ frame_needed = 0, uses_anonymous_args = 0
 370              		.loc 1 31 1 is_stmt 0 view .LVU86
 371 0000 F0B5     		push	{r4, r5, r6, r7, lr}
 372              		.cfi_def_cfa_offset 20
 373              		.cfi_offset 4, -20
 374              		.cfi_offset 5, -16
 375              		.cfi_offset 6, -12
 376              		.cfi_offset 7, -8
 377              		.cfi_offset 14, -4
 378 0002 87B0     		sub	sp, sp, #28
 379              		.cfi_def_cfa_offset 48
 380 0004 0546     		mov	r5, r0
 381 0006 1646     		mov	r6, r2
  32:../switch_sdk/core/fal/tiger/fal_tiger_port_isolation.c ****     l2_port_isolation_ctrln_t  entry;
 382              		.loc 1 32 5 is_stmt 1 view .LVU87
  33:../switch_sdk/core/fal/tiger/fal_tiger_port_isolation.c ****     cmm_err_t ret = CMM_ERR_OK;
 383              		.loc 1 33 5 view .LVU88
 384              	.LVL43:
  34:../switch_sdk/core/fal/tiger/fal_tiger_port_isolation.c ****     yt_macid_t macid;
 385              		.loc 1 34 5 view .LVU89
  35:../switch_sdk/core/fal/tiger/fal_tiger_port_isolation.c ****     yt_port_mask_t macmask;
 386              		.loc 1 35 5 view .LVU90
  36:../switch_sdk/core/fal/tiger/fal_tiger_port_isolation.c ****     uint32_t portmask;
 387              		.loc 1 36 5 view .LVU91
  37:../switch_sdk/core/fal/tiger/fal_tiger_port_isolation.c **** 
  38:../switch_sdk/core/fal/tiger/fal_tiger_port_isolation.c ****     macid = CAL_YTP_TO_MAC(unit,port);
 388              		.loc 1 38 5 view .LVU92
 389              		.loc 1 38 13 is_stmt 0 view .LVU93
 390 0008 374B     		ldr	r3, .L39
 391 000a 1B78     		ldrb	r3, [r3]	@ zero_extendqisi2
 392 000c 53B1     		cbz	r3, .L34
 393              		.loc 1 38 13 discriminator 1 view .LVU94
 394 000e 374B     		ldr	r3, .L39+4
 395 0010 53F82030 		ldr	r3, [r3, r0, lsl #2]
 396 0014 1A7D     		ldrb	r2, [r3, #20]	@ zero_extendqisi2
 397              	.LVL44:
 398              		.loc 1 38 13 discriminator 1 view .LVU95
 399 0016 8A42     		cmp	r2, r1
 400 0018 19D9     		bls	.L35
 401              		.loc 1 38 13 discriminator 3 view .LVU96
 402 001a 0631     		adds	r1, r1, #6
 403              	.LVL45:
 404              		.loc 1 38 13 discriminator 3 view .LVU97
 405 001c 53F82130 		ldr	r3, [r3, r1, lsl #2]
 406 0020 1A78     		ldrb	r2, [r3]	@ zero_extendqisi2
 407 0022 00E0     		b	.L23
 408              	.LVL46:
 409              	.L34:
 410              		.loc 1 38 13 view .LVU98
 411 0024 FF22     		movs	r2, #255
 412              	.LVL47:
 413              	.L23:
  39:../switch_sdk/core/fal/tiger/fal_tiger_port_isolation.c **** 
  40:../switch_sdk/core/fal/tiger/fal_tiger_port_isolation.c ****     CMM_CLEAR_MEMBER_PORT(macmask);
 414              		.loc 1 40 5 is_stmt 1 discriminator 6 view .LVU99
 415              	.LBB10:
 416              		.loc 1 40 5 discriminator 6 view .LVU100
 417              		.loc 1 40 5 discriminator 6 view .LVU101
 418              		.loc 1 40 5 is_stmt 0 discriminator 6 view .LVU102
 419 0026 0023     		movs	r3, #0
 420              	.LVL48:
 421              	.L24:
 422              		.loc 1 40 5 is_stmt 1 discriminator 1 view .LVU103
 423 0028 9BB1     		cbz	r3, .L25
 424              	.LBE10:
 425              		.loc 1 40 5 discriminator 4 view .LVU104
  41:../switch_sdk/core/fal/tiger/fal_tiger_port_isolation.c ****     CMM_ERR_CHK(HAL_TBL_REG_READ(unit, L2_PORT_ISOLATION_CTRLNm, macid, sizeof(l2_port_isolation_ct
 426              		.loc 1 41 5 discriminator 4 view .LVU105
 427              		.loc 1 41 5 discriminator 4 view .LVU106
 428 002a 05AB     		add	r3, sp, #20
 429              	.LVL49:
 430              		.loc 1 41 5 is_stmt 0 discriminator 4 view .LVU107
 431 002c 0093     		str	r3, [sp]
 432 002e 0423     		movs	r3, #4
 433 0030 7821     		movs	r1, #120
 434 0032 2846     		mov	r0, r5
 435 0034 FFF7FEFF 		bl	hal_table_reg_read
 436              	.LVL50:
 437              		.loc 1 41 5 discriminator 4 view .LVU108
 438 0038 0746     		mov	r7, r0
 439              	.LVL51:
 440              		.loc 1 41 5 discriminator 4 view .LVU109
 441 003a 10F0FF04 		ands	r4, r0, #255
 442 003e 20D0     		beq	.L26
 443              		.loc 1 41 5 is_stmt 1 discriminator 1 view .LVU110
 444              		.loc 1 41 5 discriminator 1 view .LVU111
 445 0040 2B4B     		ldr	r3, .L39+8
 446 0042 1B78     		ldrb	r3, [r3]	@ zero_extendqisi2
 447 0044 012B     		cmp	r3, #1
 448 0046 0DD8     		bhi	.L37
 449              	.LVL52:
 450              	.L27:
 451              		.loc 1 41 5 discriminator 5 view .LVU112
 452              		.loc 1 41 5 discriminator 5 view .LVU113
 453              		.loc 1 41 5 discriminator 5 view .LVU114
 454 0048 F8B2     		uxtb	r0, r7
 455              	.L22:
  42:../switch_sdk/core/fal/tiger/fal_tiger_port_isolation.c ****     HAL_FIELD_GET(L2_PORT_ISOLATION_CTRLNm, L2_PORT_ISOLATION_CTRLN_ISOLATED_PORT_MASKf, &entry, &p
  43:../switch_sdk/core/fal/tiger/fal_tiger_port_isolation.c ****     macmask.portbits[0] = portmask;
  44:../switch_sdk/core/fal/tiger/fal_tiger_port_isolation.c **** 
  45:../switch_sdk/core/fal/tiger/fal_tiger_port_isolation.c ****     CAL_MLIST_TO_YTPLIST(unit, macmask, (*pIso_portmask));
  46:../switch_sdk/core/fal/tiger/fal_tiger_port_isolation.c ****     
  47:../switch_sdk/core/fal/tiger/fal_tiger_port_isolation.c ****     return CMM_ERR_OK;
  48:../switch_sdk/core/fal/tiger/fal_tiger_port_isolation.c **** }
 456              		.loc 1 48 1 is_stmt 0 view .LVU115
 457 004a 07B0     		add	sp, sp, #28
 458              		.cfi_remember_state
 459              		.cfi_def_cfa_offset 20
 460              		@ sp needed
 461 004c F0BD     		pop	{r4, r5, r6, r7, pc}
 462              	.LVL53:
 463              	.L35:
 464              		.cfi_restore_state
  38:../switch_sdk/core/fal/tiger/fal_tiger_port_isolation.c **** 
 465              		.loc 1 38 13 view .LVU116
 466 004e FF22     		movs	r2, #255
 467 0050 E9E7     		b	.L23
 468              	.LVL54:
 469              	.L25:
 470              	.LBB11:
  40:../switch_sdk/core/fal/tiger/fal_tiger_port_isolation.c ****     CMM_ERR_CHK(HAL_TBL_REG_READ(unit, L2_PORT_ISOLATION_CTRLNm, macid, sizeof(l2_port_isolation_ct
 471              		.loc 1 40 5 is_stmt 1 discriminator 3 view .LVU117
 472 0052 06A9     		add	r1, sp, #24
 473 0054 01EB8301 		add	r1, r1, r3, lsl #2
 474 0058 0020     		movs	r0, #0
 475 005a 41F8080C 		str	r0, [r1, #-8]
  40:../switch_sdk/core/fal/tiger/fal_tiger_port_isolation.c ****     CMM_ERR_CHK(HAL_TBL_REG_READ(unit, L2_PORT_ISOLATION_CTRLNm, macid, sizeof(l2_port_isolation_ct
 476              		.loc 1 40 5 discriminator 3 view .LVU118
 477 005e 0133     		adds	r3, r3, #1
 478              	.LVL55:
  40:../switch_sdk/core/fal/tiger/fal_tiger_port_isolation.c ****     CMM_ERR_CHK(HAL_TBL_REG_READ(unit, L2_PORT_ISOLATION_CTRLNm, macid, sizeof(l2_port_isolation_ct
 479              		.loc 1 40 5 is_stmt 0 discriminator 3 view .LVU119
 480 0060 DBB2     		uxtb	r3, r3
 481              	.LVL56:
  40:../switch_sdk/core/fal/tiger/fal_tiger_port_isolation.c ****     CMM_ERR_CHK(HAL_TBL_REG_READ(unit, L2_PORT_ISOLATION_CTRLNm, macid, sizeof(l2_port_isolation_ct
 482              		.loc 1 40 5 discriminator 3 view .LVU120
 483 0062 E1E7     		b	.L24
 484              	.LVL57:
 485              	.L37:
  40:../switch_sdk/core/fal/tiger/fal_tiger_port_isolation.c ****     CMM_ERR_CHK(HAL_TBL_REG_READ(unit, L2_PORT_ISOLATION_CTRLNm, macid, sizeof(l2_port_isolation_ct
 486              		.loc 1 40 5 discriminator 3 view .LVU121
 487              	.LBE11:
  41:../switch_sdk/core/fal/tiger/fal_tiger_port_isolation.c ****     HAL_FIELD_GET(L2_PORT_ISOLATION_CTRLNm, L2_PORT_ISOLATION_CTRLN_ISOLATED_PORT_MASKf, &entry, &p
 488              		.loc 1 41 5 is_stmt 1 discriminator 3 view .LVU122
 489              	.LBB12:
  41:../switch_sdk/core/fal/tiger/fal_tiger_port_isolation.c ****     HAL_FIELD_GET(L2_PORT_ISOLATION_CTRLNm, L2_PORT_ISOLATION_CTRLN_ISOLATED_PORT_MASKf, &entry, &p
 490              		.loc 1 41 5 discriminator 3 view .LVU123
 491 0064 142C     		cmp	r4, #20
 492 0066 28BF     		it	cs
 493 0068 1424     		movcs	r4, #20
 494 006a 224B     		ldr	r3, .L39+12
 495 006c 0093     		str	r3, [sp]
 496 006e 224B     		ldr	r3, .L39+16
 497 0070 224A     		ldr	r2, .L39+20
 498 0072 52F82420 		ldr	r2, [r2, r4, lsl #2]
 499 0076 2249     		ldr	r1, .L39+24
 500 0078 8968     		ldr	r1, [r1, #8]
 501 007a 2248     		ldr	r0, .L39+28
 502              	.LVL58:
  41:../switch_sdk/core/fal/tiger/fal_tiger_port_isolation.c ****     HAL_FIELD_GET(L2_PORT_ISOLATION_CTRLNm, L2_PORT_ISOLATION_CTRLN_ISOLATED_PORT_MASKf, &entry, &p
 503              		.loc 1 41 5 is_stmt 0 discriminator 3 view .LVU124
 504 007c FFF7FEFF 		bl	osal_printf
 505              	.LVL59:
 506 0080 E2E7     		b	.L27
 507              	.LVL60:
 508              	.L26:
  41:../switch_sdk/core/fal/tiger/fal_tiger_port_isolation.c ****     HAL_FIELD_GET(L2_PORT_ISOLATION_CTRLNm, L2_PORT_ISOLATION_CTRLN_ISOLATED_PORT_MASKf, &entry, &p
 509              		.loc 1 41 5 discriminator 3 view .LVU125
 510              	.LBE12:
  41:../switch_sdk/core/fal/tiger/fal_tiger_port_isolation.c ****     HAL_FIELD_GET(L2_PORT_ISOLATION_CTRLNm, L2_PORT_ISOLATION_CTRLN_ISOLATED_PORT_MASKf, &entry, &p
 511              		.loc 1 41 5 is_stmt 1 discriminator 2 view .LVU126
  42:../switch_sdk/core/fal/tiger/fal_tiger_port_isolation.c ****     macmask.portbits[0] = portmask;
 512              		.loc 1 42 5 discriminator 2 view .LVU127
 513              	.LBB13:
  42:../switch_sdk/core/fal/tiger/fal_tiger_port_isolation.c ****     macmask.portbits[0] = portmask;
 514              		.loc 1 42 5 discriminator 2 view .LVU128
  42:../switch_sdk/core/fal/tiger/fal_tiger_port_isolation.c ****     macmask.portbits[0] = portmask;
 515              		.loc 1 42 5 discriminator 2 view .LVU129
 516 0082 03AB     		add	r3, sp, #12
 517 0084 05AA     		add	r2, sp, #20
 518 0086 0021     		movs	r1, #0
 519 0088 7820     		movs	r0, #120
 520              	.LVL61:
  42:../switch_sdk/core/fal/tiger/fal_tiger_port_isolation.c ****     macmask.portbits[0] = portmask;
 521              		.loc 1 42 5 is_stmt 0 discriminator 2 view .LVU130
 522 008a FFF7FEFF 		bl	hal_tbl_reg_field_get
 523              	.LVL62:
  42:../switch_sdk/core/fal/tiger/fal_tiger_port_isolation.c ****     macmask.portbits[0] = portmask;
 524              		.loc 1 42 5 is_stmt 1 discriminator 2 view .LVU131
 525 008e 0398     		ldr	r0, [sp, #12]
 526              	.LVL63:
  42:../switch_sdk/core/fal/tiger/fal_tiger_port_isolation.c ****     macmask.portbits[0] = portmask;
 527              		.loc 1 42 5 is_stmt 0 discriminator 2 view .LVU132
 528              	.LBE13:
  42:../switch_sdk/core/fal/tiger/fal_tiger_port_isolation.c ****     macmask.portbits[0] = portmask;
 529              		.loc 1 42 5 is_stmt 1 discriminator 2 view .LVU133
  43:../switch_sdk/core/fal/tiger/fal_tiger_port_isolation.c **** 
 530              		.loc 1 43 5 discriminator 2 view .LVU134
  43:../switch_sdk/core/fal/tiger/fal_tiger_port_isolation.c **** 
 531              		.loc 1 43 25 is_stmt 0 discriminator 2 view .LVU135
 532 0090 0490     		str	r0, [sp, #16]
  45:../switch_sdk/core/fal/tiger/fal_tiger_port_isolation.c ****     
 533              		.loc 1 45 5 is_stmt 1 discriminator 2 view .LVU136
 534              	.LBB14:
  45:../switch_sdk/core/fal/tiger/fal_tiger_port_isolation.c ****     
 535              		.loc 1 45 5 discriminator 2 view .LVU137
 536              	.LVL64:
  45:../switch_sdk/core/fal/tiger/fal_tiger_port_isolation.c ****     
 537              		.loc 1 45 5 discriminator 2 view .LVU138
  45:../switch_sdk/core/fal/tiger/fal_tiger_port_isolation.c ****     
 538              		.loc 1 45 5 discriminator 2 view .LVU139
 539              	.LBB15:
  45:../switch_sdk/core/fal/tiger/fal_tiger_port_isolation.c ****     
 540              		.loc 1 45 5 discriminator 2 view .LVU140
  45:../switch_sdk/core/fal/tiger/fal_tiger_port_isolation.c ****     
 541              		.loc 1 45 5 discriminator 2 view .LVU141
  45:../switch_sdk/core/fal/tiger/fal_tiger_port_isolation.c ****     
 542              		.loc 1 45 5 is_stmt 0 discriminator 2 view .LVU142
 543 0092 2346     		mov	r3, r4
 544              	.LVL65:
 545              	.L29:
  45:../switch_sdk/core/fal/tiger/fal_tiger_port_isolation.c ****     
 546              		.loc 1 45 5 is_stmt 1 discriminator 1 view .LVU143
 547 0094 3BB9     		cbnz	r3, .L31
  45:../switch_sdk/core/fal/tiger/fal_tiger_port_isolation.c ****     
 548              		.loc 1 45 5 discriminator 3 view .LVU144
 549 0096 0022     		movs	r2, #0
 550 0098 46F82320 		str	r2, [r6, r3, lsl #2]
  45:../switch_sdk/core/fal/tiger/fal_tiger_port_isolation.c ****     
 551              		.loc 1 45 5 discriminator 3 view .LVU145
 552 009c 0133     		adds	r3, r3, #1
 553              	.LVL66:
  45:../switch_sdk/core/fal/tiger/fal_tiger_port_isolation.c ****     
 554              		.loc 1 45 5 is_stmt 0 discriminator 3 view .LVU146
 555 009e DBB2     		uxtb	r3, r3
 556              	.LVL67:
  45:../switch_sdk/core/fal/tiger/fal_tiger_port_isolation.c ****     
 557              		.loc 1 45 5 discriminator 3 view .LVU147
 558 00a0 F8E7     		b	.L29
 559              	.LVL68:
 560              	.L32:
  45:../switch_sdk/core/fal/tiger/fal_tiger_port_isolation.c ****     
 561              		.loc 1 45 5 discriminator 3 view .LVU148
 562              	.LBE15:
  45:../switch_sdk/core/fal/tiger/fal_tiger_port_isolation.c ****     
 563              		.loc 1 45 5 is_stmt 1 discriminator 16 view .LVU149
  45:../switch_sdk/core/fal/tiger/fal_tiger_port_isolation.c ****     
 564              		.loc 1 45 5 discriminator 16 view .LVU150
 565 00a2 0134     		adds	r4, r4, #1
 566              	.LVL69:
  45:../switch_sdk/core/fal/tiger/fal_tiger_port_isolation.c ****     
 567              		.loc 1 45 5 is_stmt 0 discriminator 16 view .LVU151
 568 00a4 E4B2     		uxtb	r4, r4
 569              	.LVL70:
 570              	.L31:
  45:../switch_sdk/core/fal/tiger/fal_tiger_port_isolation.c ****     
 571              		.loc 1 45 5 is_stmt 1 discriminator 17 view .LVU152
 572 00a6 114B     		ldr	r3, .L39+4
 573 00a8 53F82530 		ldr	r3, [r3, r5, lsl #2]
 574 00ac 197D     		ldrb	r1, [r3, #20]	@ zero_extendqisi2
 575 00ae A142     		cmp	r1, r4
 576 00b0 18D9     		bls	.L38
  45:../switch_sdk/core/fal/tiger/fal_tiger_port_isolation.c ****     
 577              		.loc 1 45 5 discriminator 18 view .LVU153
 578              	.LBB16:
  45:../switch_sdk/core/fal/tiger/fal_tiger_port_isolation.c ****     
 579              		.loc 1 45 5 discriminator 18 view .LVU154
  45:../switch_sdk/core/fal/tiger/fal_tiger_port_isolation.c ****     
 580              		.loc 1 45 5 discriminator 18 view .LVU155
  45:../switch_sdk/core/fal/tiger/fal_tiger_port_isolation.c ****     
 581              		.loc 1 45 5 discriminator 18 view .LVU156
 582 00b2 A21D     		adds	r2, r4, #6
 583 00b4 53F82230 		ldr	r3, [r3, r2, lsl #2]
 584 00b8 1B78     		ldrb	r3, [r3]	@ zero_extendqisi2
 585              	.LVL71:
  45:../switch_sdk/core/fal/tiger/fal_tiger_port_isolation.c ****     
 586              		.loc 1 45 5 discriminator 18 view .LVU157
 587 00ba 03F01F02 		and	r2, r3, #31
 588              	.LVL72:
  45:../switch_sdk/core/fal/tiger/fal_tiger_port_isolation.c ****     
 589              		.loc 1 45 5 discriminator 18 view .LVU158
 590 00be 1F2B     		cmp	r3, #31
 591 00c0 EFD8     		bhi	.L32
  45:../switch_sdk/core/fal/tiger/fal_tiger_port_isolation.c ****     
 592              		.loc 1 45 5 is_stmt 0 discriminator 6 view .LVU159
 593 00c2 0123     		movs	r3, #1
 594              	.LVL73:
  45:../switch_sdk/core/fal/tiger/fal_tiger_port_isolation.c ****     
 595              		.loc 1 45 5 discriminator 6 view .LVU160
 596 00c4 9340     		lsls	r3, r3, r2
 597 00c6 1842     		tst	r0, r3
 598 00c8 EBD0     		beq	.L32
 599              	.LVL74:
  45:../switch_sdk/core/fal/tiger/fal_tiger_port_isolation.c ****     
 600              		.loc 1 45 5 discriminator 6 view .LVU161
 601              	.LBE16:
  45:../switch_sdk/core/fal/tiger/fal_tiger_port_isolation.c ****     
 602              		.loc 1 45 5 is_stmt 1 view .LVU162
  45:../switch_sdk/core/fal/tiger/fal_tiger_port_isolation.c ****     
 603              		.loc 1 45 5 view .LVU163
  45:../switch_sdk/core/fal/tiger/fal_tiger_port_isolation.c ****     
 604              		.loc 1 45 5 view .LVU164
 605              	.LBB17:
  45:../switch_sdk/core/fal/tiger/fal_tiger_port_isolation.c ****     
 606              		.loc 1 45 5 view .LVU165
  45:../switch_sdk/core/fal/tiger/fal_tiger_port_isolation.c ****     
 607              		.loc 1 45 5 view .LVU166
  45:../switch_sdk/core/fal/tiger/fal_tiger_port_isolation.c ****     
 608              		.loc 1 45 5 view .LVU167
 609 00ca 6309     		lsrs	r3, r4, #5
 610              	.LVL75:
  45:../switch_sdk/core/fal/tiger/fal_tiger_port_isolation.c ****     
 611              		.loc 1 45 5 view .LVU168
 612 00cc 04F01F07 		and	r7, r4, #31
 613              	.LVL76:
  45:../switch_sdk/core/fal/tiger/fal_tiger_port_isolation.c ****     
 614              		.loc 1 45 5 view .LVU169
 615 00d0 1F2C     		cmp	r4, #31
 616 00d2 E6D8     		bhi	.L32
  45:../switch_sdk/core/fal/tiger/fal_tiger_port_isolation.c ****     
 617              		.loc 1 45 5 discriminator 14 view .LVU170
 618 00d4 56F82320 		ldr	r2, [r6, r3, lsl #2]
 619              	.LVL77:
  45:../switch_sdk/core/fal/tiger/fal_tiger_port_isolation.c ****     
 620              		.loc 1 45 5 is_stmt 0 discriminator 14 view .LVU171
 621 00d8 0121     		movs	r1, #1
 622 00da B940     		lsls	r1, r1, r7
 623 00dc 0A43     		orrs	r2, r2, r1
 624 00de 46F82320 		str	r2, [r6, r3, lsl #2]
 625              	.LVL78:
  45:../switch_sdk/core/fal/tiger/fal_tiger_port_isolation.c ****     
 626              		.loc 1 45 5 discriminator 14 view .LVU172
 627 00e2 DEE7     		b	.L32
 628              	.LVL79:
 629              	.L38:
  45:../switch_sdk/core/fal/tiger/fal_tiger_port_isolation.c ****     
 630              		.loc 1 45 5 discriminator 14 view .LVU173
 631              	.LBE17:
 632              	.LBE14:
  47:../switch_sdk/core/fal/tiger/fal_tiger_port_isolation.c **** }
 633              		.loc 1 47 12 view .LVU174
 634 00e4 0020     		movs	r0, #0
 635              	.LVL80:
  47:../switch_sdk/core/fal/tiger/fal_tiger_port_isolation.c **** }
 636              		.loc 1 47 12 view .LVU175
 637 00e6 B0E7     		b	.L22
 638              	.L40:
 639              		.align	2
 640              	.L39:
 641 00e8 00000000 		.word	gcal_inited
 642 00ec 00000000 		.word	gpSwitchUnit
 643 00f0 00000000 		.word	yt_debug_level
 644 00f4 00000000 		.word	__FUNCTION__.0
 645 00f8 00000000 		.word	.LC0
 646 00fc 00000000 		.word	_yt_errmsg
 647 0100 00000000 		.word	_yt_prompt_msg
 648 0104 4C000000 		.word	.LC1
 649              		.cfi_endproc
 650              	.LFE4:
 652              		.section	.rodata.__FUNCTION__.0,"a"
 653              		.align	2
 656              	__FUNCTION__.0:
 657 0000 66616C5F 		.ascii	"fal_tiger_port_isolation_get\000"
 657      74696765 
 657      725F706F 
 657      72745F69 
 657      736F6C61 
 658              		.section	.rodata.__FUNCTION__.1,"a"
 659              		.align	2
 662              	__FUNCTION__.1:
 663 0000 66616C5F 		.ascii	"fal_tiger_port_isolation_set\000"
 663      74696765 
 663      725F706F 
 663      72745F69 
 663      736F6C61 
 664              		.text
 665              	.Letext0:
 666              		.file 2 "C:\\Users\\Dmitriy\\Desktop\\GD32F10x\\switch_sdk\\common\\include/yt_types.h"
 667              		.file 3 "C:\\Users\\Dmitriy\\Desktop\\GD32F10x\\switch_sdk\\common\\include/yt_error.h"
 668              		.file 4 "C:\\Users\\Dmitriy\\Desktop\\GD32F10x\\switch_sdk\\core\\fal\\chipdef/chipdef.h"
 669              		.file 5 "C:\\Users\\Dmitriy\\Desktop\\GD32F10x\\switch_sdk\\core\\cal/cal_bprofile.h"
 670              		.file 6 "C:\\Users\\Dmitriy\\Desktop\\GD32F10x\\switch_sdk\\core\\cal/cal_mgm.h"
 671              		.file 7 "../switch_sdk/core/fal/tiger/fal_tiger_entry.h"
 672              		.file 8 "C:\\Users\\Dmitriy\\Desktop\\GD32F10x\\switch_sdk\\core\\hal/hal_mem.h"