   1              		.cpu cortex-m3
   2              		.arch armv7-m
   3              		.fpu softvfp
   4              		.eabi_attribute 20, 1
   5              		.eabi_attribute 21, 1
   6              		.eabi_attribute 23, 3
   7              		.eabi_attribute 24, 1
   8              		.eabi_attribute 25, 1
   9              		.eabi_attribute 26, 1
  10              		.eabi_attribute 30, 1
  11              		.eabi_attribute 34, 1
  12              		.eabi_attribute 18, 4
  13              		.file	"fal_tiger_qos.c"
  14              		.text
  15              	.Ltext0:
  16              		.cfi_sections	.debug_frame
  17              		.file 1 "../switch_sdk/core/fal/tiger/fal_tiger_qos.c"
  18              		.section	.rodata.fal_tiger_qos_intPri_map_weight_set.str1.4,"aMS",%progbits,1
  19              		.align	2
  20              	.LC0:
  21 0000 25732573 		.ascii	"%s%s\015\012\000"
  21      0D0A00
  22 0007 00       		.align	2
  23              	.LC1:
  24 0008 68616C5F 		.ascii	"hal_table_reg_write(unit,113,macid,sizeof(qos_merge"
  24      7461626C 
  24      655F7265 
  24      675F7772 
  24      69746528 
  25 003b 5F707265 		.ascii	"_precedence_ctrln_t),&entry)\000"
  25      63656465 
  25      6E63655F 
  25      6374726C 
  25      6E5F7429 
  26              		.align	2
  27              	.LC2:
  28 0058 25732573 		.ascii	"%s%s of \"%s\" in %s\015\012\000"
  28      206F6620 
  28      22257322 
  28      20696E20 
  28      25730D0A 
  29              		.section	.text.fal_tiger_qos_intPri_map_weight_set,"ax",%progbits
  30              		.align	1
  31              		.global	fal_tiger_qos_intPri_map_weight_set
  32              		.syntax unified
  33              		.thumb
  34              		.thumb_func
  36              	fal_tiger_qos_intPri_map_weight_set:
  37              	.LVL0:
  38              	.LFB3:
   1:../switch_sdk/core/fal/tiger/fal_tiger_qos.c **** /*
   2:../switch_sdk/core/fal/tiger/fal_tiger_qos.c ****  * Include Files
   3:../switch_sdk/core/fal/tiger/fal_tiger_qos.c ****  */
   4:../switch_sdk/core/fal/tiger/fal_tiger_qos.c **** #include "yt_error.h"
   5:../switch_sdk/core/fal/tiger/fal_tiger_qos.c **** //#include "osal_mem.h"
   6:../switch_sdk/core/fal/tiger/fal_tiger_qos.c **** //#include "osal_print.h"
   7:../switch_sdk/core/fal/tiger/fal_tiger_qos.c **** #include "fal_tiger_qos.h"
   8:../switch_sdk/core/fal/tiger/fal_tiger_qos.c **** #include "fal_cmm.h"
   9:../switch_sdk/core/fal/tiger/fal_tiger_qos.c **** #include "hal_mem.h"
  10:../switch_sdk/core/fal/tiger/fal_tiger_qos.c **** #include "fal_tiger_struct.h"
  11:../switch_sdk/core/fal/tiger/fal_tiger_qos.c **** #include "fal_tiger_entry.h"
  12:../switch_sdk/core/fal/tiger/fal_tiger_qos.c **** #include "fal_tiger_mem.h"
  13:../switch_sdk/core/fal/tiger/fal_tiger_qos.c **** 
  14:../switch_sdk/core/fal/tiger/fal_tiger_qos.c **** static yt_ret_t fal_tiger_qos_ac_queue_flush(yt_unit_t unit, yt_qid_t qinfo);
  15:../switch_sdk/core/fal/tiger/fal_tiger_qos.c **** static yt_ret_t fal_tiger_qos_ac_enqueue_disable(yt_unit_t unit, yt_qid_t qinfo, uint8_t disable);
  16:../switch_sdk/core/fal/tiger/fal_tiger_qos.c **** 
  17:../switch_sdk/core/fal/tiger/fal_tiger_qos.c **** yt_ret_t fal_tiger_qos_intPri_map_weight_set(yt_unit_t unit, yt_port_t port, yt_qos_intPri_map_weig
  18:../switch_sdk/core/fal/tiger/fal_tiger_qos.c **** {
  39              		.loc 1 18 1 view -0
  40              		.cfi_startproc
  41              		@ args = 0, pretend = 0, frame = 24
  42              		@ frame_needed = 0, uses_anonymous_args = 0
  43              		.loc 1 18 1 is_stmt 0 view .LVU1
  44 0000 2DE9F04F 		push	{r4, r5, r6, r7, r8, r9, r10, fp, lr}
  45              		.cfi_def_cfa_offset 36
  46              		.cfi_offset 4, -36
  47              		.cfi_offset 5, -32
  48              		.cfi_offset 6, -28
  49              		.cfi_offset 7, -24
  50              		.cfi_offset 8, -20
  51              		.cfi_offset 9, -16
  52              		.cfi_offset 10, -12
  53              		.cfi_offset 11, -8
  54              		.cfi_offset 14, -4
  55 0004 89B0     		sub	sp, sp, #36
  56              		.cfi_def_cfa_offset 72
  57 0006 8346     		mov	fp, r0
  58 0008 04A8     		add	r0, sp, #16
  59              	.LVL1:
  60              		.loc 1 18 1 view .LVU2
  61 000a 80E80C00 		stm	r0, {r2, r3}
  19:../switch_sdk/core/fal/tiger/fal_tiger_qos.c ****     qos_merge_precedence_ctrln_t entry;
  62              		.loc 1 19 5 is_stmt 1 view .LVU3
  20:../switch_sdk/core/fal/tiger/fal_tiger_qos.c ****     cmm_err_t ret = CMM_ERR_OK;
  63              		.loc 1 20 5 view .LVU4
  64              	.LVL2:
  21:../switch_sdk/core/fal/tiger/fal_tiger_qos.c ****     yt_macid_t macid = CAL_YTP_TO_MAC(unit,port);
  65              		.loc 1 21 5 view .LVU5
  66              		.loc 1 21 24 is_stmt 0 view .LVU6
  67 000e 834B     		ldr	r3, .L43
  68 0010 1B78     		ldrb	r3, [r3]	@ zero_extendqisi2
  69 0012 5BB1     		cbz	r3, .L21
  70              		.loc 1 21 24 discriminator 1 view .LVU7
  71 0014 824B     		ldr	r3, .L43+4
  72 0016 53F82B30 		ldr	r3, [r3, fp, lsl #2]
  73 001a 1A7D     		ldrb	r2, [r3, #20]	@ zero_extendqisi2
  74 001c 8A42     		cmp	r2, r1
  75 001e 71D9     		bls	.L22
  76              		.loc 1 21 24 discriminator 3 view .LVU8
  77 0020 0631     		adds	r1, r1, #6
  78              	.LVL3:
  79              		.loc 1 21 24 discriminator 3 view .LVU9
  80 0022 53F82130 		ldr	r3, [r3, r1, lsl #2]
  81 0026 93F800A0 		ldrb	r10, [r3]	@ zero_extendqisi2
  82 002a 01E0     		b	.L2
  83              	.LVL4:
  84              	.L21:
  85              		.loc 1 21 24 view .LVU10
  86 002c 4FF0FF0A 		mov	r10, #255
  87              	.LVL5:
  88              	.L2:
  22:../switch_sdk/core/fal/tiger/fal_tiger_qos.c **** 
  23:../switch_sdk/core/fal/tiger/fal_tiger_qos.c ****     
  24:../switch_sdk/core/fal/tiger/fal_tiger_qos.c ****     CMM_PARAM_CHK(CAL_MAX_VALUE_INT_PRI(unit) < pri_tbl.mac_sa_pri, CMM_ERR_INPUT);
  89              		.loc 1 24 5 is_stmt 1 discriminator 6 view .LVU11
  90              		.loc 1 24 5 discriminator 6 view .LVU12
  91 0030 7B4B     		ldr	r3, .L43+4
  92 0032 53F82B30 		ldr	r3, [r3, fp, lsl #2]
  93 0036 D3F8AC30 		ldr	r3, [r3, #172]
  94 003a DA78     		ldrb	r2, [r3, #3]	@ zero_extendqisi2
  95 003c 9DF81030 		ldrb	r3, [sp, #16]	@ zero_extendqisi2
  96 0040 9A42     		cmp	r2, r3
  97 0042 62D3     		bcc	.L25
  98              		.loc 1 24 5 discriminator 2 view .LVU13
  25:../switch_sdk/core/fal/tiger/fal_tiger_qos.c ****     CMM_PARAM_CHK(CAL_MAX_VALUE_INT_PRI(unit) < pri_tbl.mac_da_pri, CMM_ERR_INPUT);
  99              		.loc 1 25 5 discriminator 2 view .LVU14
 100              		.loc 1 25 5 discriminator 2 view .LVU15
 101 0044 9DF81140 		ldrb	r4, [sp, #17]	@ zero_extendqisi2
 102 0048 A242     		cmp	r2, r4
 103 004a 6ED3     		bcc	.L26
 104              		.loc 1 25 5 discriminator 2 view .LVU16
  26:../switch_sdk/core/fal/tiger/fal_tiger_qos.c ****     CMM_PARAM_CHK(CAL_MAX_VALUE_INT_PRI(unit) < pri_tbl.vlan_pri, CMM_ERR_INPUT);
 105              		.loc 1 26 5 discriminator 2 view .LVU17
 106              		.loc 1 26 5 discriminator 2 view .LVU18
 107 004c 9DF81250 		ldrb	r5, [sp, #18]	@ zero_extendqisi2
 108 0050 AA42     		cmp	r2, r5
 109 0052 78D3     		bcc	.L27
 110              		.loc 1 26 5 discriminator 2 view .LVU19
  27:../switch_sdk/core/fal/tiger/fal_tiger_qos.c ****     CMM_PARAM_CHK(CAL_MAX_VALUE_INT_PRI(unit) < pri_tbl.acl_pri, CMM_ERR_INPUT);
 111              		.loc 1 27 5 discriminator 2 view .LVU20
 112              		.loc 1 27 5 discriminator 2 view .LVU21
 113 0054 9DF81370 		ldrb	r7, [sp, #19]	@ zero_extendqisi2
 114 0058 BA42     		cmp	r2, r7
 115 005a C0F08280 		bcc	.L28
 116              		.loc 1 27 5 discriminator 2 view .LVU22
  28:../switch_sdk/core/fal/tiger/fal_tiger_qos.c ****     CMM_PARAM_CHK(CAL_MAX_VALUE_INT_PRI(unit) < pri_tbl.dscp_pri, CMM_ERR_INPUT);
 117              		.loc 1 28 5 discriminator 2 view .LVU23
 118              		.loc 1 28 5 discriminator 2 view .LVU24
 119 005e 9DF81480 		ldrb	r8, [sp, #20]	@ zero_extendqisi2
 120 0062 4245     		cmp	r2, r8
 121 0064 C0F08B80 		bcc	.L29
 122              		.loc 1 28 5 discriminator 2 view .LVU25
  29:../switch_sdk/core/fal/tiger/fal_tiger_qos.c ****     CMM_PARAM_CHK(CAL_MAX_VALUE_INT_PRI(unit) < pri_tbl.cpri, CMM_ERR_INPUT);
 123              		.loc 1 29 5 discriminator 2 view .LVU26
 124              		.loc 1 29 5 discriminator 2 view .LVU27
 125 0068 9DF81590 		ldrb	r9, [sp, #21]	@ zero_extendqisi2
 126 006c 4A45     		cmp	r2, r9
 127 006e C0F09480 		bcc	.L30
 128              		.loc 1 29 5 discriminator 2 view .LVU28
  30:../switch_sdk/core/fal/tiger/fal_tiger_qos.c ****     CMM_PARAM_CHK(CAL_MAX_VALUE_INT_PRI(unit) < pri_tbl.spri, CMM_ERR_INPUT);
 129              		.loc 1 30 5 discriminator 2 view .LVU29
 130              		.loc 1 30 5 discriminator 2 view .LVU30
 131 0072 9DF81610 		ldrb	r1, [sp, #22]	@ zero_extendqisi2
 132 0076 0291     		str	r1, [sp, #8]
 133 0078 8A42     		cmp	r2, r1
 134 007a C0F09C80 		bcc	.L31
 135              		.loc 1 30 5 discriminator 2 view .LVU31
  31:../switch_sdk/core/fal/tiger/fal_tiger_qos.c ****     CMM_PARAM_CHK(CAL_MAX_VALUE_INT_PRI(unit) < pri_tbl.port_pri, CMM_ERR_INPUT);
 136              		.loc 1 31 5 discriminator 2 view .LVU32
 137              		.loc 1 31 5 discriminator 2 view .LVU33
 138 007e 9DF81710 		ldrb	r1, [sp, #23]	@ zero_extendqisi2
 139 0082 0391     		str	r1, [sp, #12]
 140 0084 8A42     		cmp	r2, r1
 141 0086 C0F0A480 		bcc	.L32
 142              		.loc 1 31 5 discriminator 2 view .LVU34
  32:../switch_sdk/core/fal/tiger/fal_tiger_qos.c ****     
  33:../switch_sdk/core/fal/tiger/fal_tiger_qos.c ****     HAL_FIELD_SET(QOS_MERGE_PRECEDENCE_CTRLNm, QOS_MERGE_PRECEDENCE_CTRLN_MAC_SA_INT_PRI_PRECEDENCE
 143              		.loc 1 33 5 discriminator 2 view .LVU35
 144 008a 07AE     		add	r6, sp, #28
 145 008c 3246     		mov	r2, r6
 146 008e 0721     		movs	r1, #7
 147 0090 7120     		movs	r0, #113
 148 0092 FFF7FEFF 		bl	hal_tbl_reg_field_set
 149              	.LVL6:
  34:../switch_sdk/core/fal/tiger/fal_tiger_qos.c ****     HAL_FIELD_SET(QOS_MERGE_PRECEDENCE_CTRLNm, QOS_MERGE_PRECEDENCE_CTRLN_MAC_DA_INT_PRI_PRECEDENCE
 150              		.loc 1 34 5 discriminator 2 view .LVU36
 151 0096 2346     		mov	r3, r4
 152 0098 3246     		mov	r2, r6
 153 009a 0621     		movs	r1, #6
 154 009c 7120     		movs	r0, #113
 155 009e FFF7FEFF 		bl	hal_tbl_reg_field_set
 156              	.LVL7:
  35:../switch_sdk/core/fal/tiger/fal_tiger_qos.c ****     HAL_FIELD_SET(QOS_MERGE_PRECEDENCE_CTRLNm, QOS_MERGE_PRECEDENCE_CTRLN_VLAN_INT_PRI_PRECEDENCEf,
 157              		.loc 1 35 5 discriminator 2 view .LVU37
 158 00a2 2B46     		mov	r3, r5
 159 00a4 3246     		mov	r2, r6
 160 00a6 0521     		movs	r1, #5
 161 00a8 7120     		movs	r0, #113
 162 00aa FFF7FEFF 		bl	hal_tbl_reg_field_set
 163              	.LVL8:
  36:../switch_sdk/core/fal/tiger/fal_tiger_qos.c ****     HAL_FIELD_SET(QOS_MERGE_PRECEDENCE_CTRLNm, QOS_MERGE_PRECEDENCE_CTRLN_ACL_INT_PRI_PRECEDENCEf, 
 164              		.loc 1 36 5 discriminator 2 view .LVU38
 165 00ae 3B46     		mov	r3, r7
 166 00b0 3246     		mov	r2, r6
 167 00b2 0421     		movs	r1, #4
 168 00b4 7120     		movs	r0, #113
 169 00b6 FFF7FEFF 		bl	hal_tbl_reg_field_set
 170              	.LVL9:
  37:../switch_sdk/core/fal/tiger/fal_tiger_qos.c ****     HAL_FIELD_SET(QOS_MERGE_PRECEDENCE_CTRLNm, QOS_MERGE_PRECEDENCE_CTRLN_DSCP2INT_PRI_PRECEDENCEf,
 171              		.loc 1 37 5 discriminator 2 view .LVU39
 172 00ba 4346     		mov	r3, r8
 173 00bc 3246     		mov	r2, r6
 174 00be 0321     		movs	r1, #3
 175 00c0 7120     		movs	r0, #113
 176 00c2 FFF7FEFF 		bl	hal_tbl_reg_field_set
 177              	.LVL10:
  38:../switch_sdk/core/fal/tiger/fal_tiger_qos.c ****     HAL_FIELD_SET(QOS_MERGE_PRECEDENCE_CTRLNm, QOS_MERGE_PRECEDENCE_CTRLN_CPRI2INT_PRI_PRECEDENCEf,
 178              		.loc 1 38 5 discriminator 2 view .LVU40
 179 00c6 4B46     		mov	r3, r9
 180 00c8 3246     		mov	r2, r6
 181 00ca 0221     		movs	r1, #2
 182 00cc 7120     		movs	r0, #113
 183 00ce FFF7FEFF 		bl	hal_tbl_reg_field_set
 184              	.LVL11:
  39:../switch_sdk/core/fal/tiger/fal_tiger_qos.c ****     HAL_FIELD_SET(QOS_MERGE_PRECEDENCE_CTRLNm, QOS_MERGE_PRECEDENCE_CTRLN_SPRI2INT_PRI_PRECEDENCEf,
 185              		.loc 1 39 5 discriminator 2 view .LVU41
 186 00d2 029B     		ldr	r3, [sp, #8]
 187 00d4 3246     		mov	r2, r6
 188 00d6 0121     		movs	r1, #1
 189 00d8 7120     		movs	r0, #113
 190 00da FFF7FEFF 		bl	hal_tbl_reg_field_set
 191              	.LVL12:
  40:../switch_sdk/core/fal/tiger/fal_tiger_qos.c ****     HAL_FIELD_SET(QOS_MERGE_PRECEDENCE_CTRLNm, QOS_MERGE_PRECEDENCE_CTRLN_PORT_PRI_PRECEDENCEf, &en
 192              		.loc 1 40 5 discriminator 2 view .LVU42
 193 00de 039B     		ldr	r3, [sp, #12]
 194 00e0 3246     		mov	r2, r6
 195 00e2 0021     		movs	r1, #0
 196 00e4 7120     		movs	r0, #113
 197 00e6 FFF7FEFF 		bl	hal_tbl_reg_field_set
 198              	.LVL13:
  41:../switch_sdk/core/fal/tiger/fal_tiger_qos.c ****     CMM_ERR_CHK(HAL_TBL_REG_WRITE(unit, QOS_MERGE_PRECEDENCE_CTRLNm, macid,sizeof(qos_merge_precede
 199              		.loc 1 41 5 discriminator 2 view .LVU43
 200              		.loc 1 41 5 discriminator 2 view .LVU44
 201 00ea 0096     		str	r6, [sp]
 202 00ec 0423     		movs	r3, #4
 203 00ee 5246     		mov	r2, r10
 204 00f0 7121     		movs	r1, #113
 205 00f2 5846     		mov	r0, fp
 206 00f4 FFF7FEFF 		bl	hal_table_reg_write
 207              	.LVL14:
 208 00f8 0446     		mov	r4, r0
 209              	.LVL15:
 210              		.loc 1 41 5 is_stmt 0 discriminator 2 view .LVU45
 211 00fa 10F0FF03 		ands	r3, r0, #255
 212 00fe 76D1     		bne	.L33
  42:../switch_sdk/core/fal/tiger/fal_tiger_qos.c ****     return CMM_ERR_OK;
 213              		.loc 1 42 12 view .LVU46
 214 0100 0020     		movs	r0, #0
 215              	.LVL16:
 216              		.loc 1 42 12 view .LVU47
 217 0102 07E0     		b	.L1
 218              	.LVL17:
 219              	.L22:
  21:../switch_sdk/core/fal/tiger/fal_tiger_qos.c **** 
 220              		.loc 1 21 24 view .LVU48
 221 0104 4FF0FF0A 		mov	r10, #255
 222 0108 92E7     		b	.L2
 223              	.LVL18:
 224              	.L25:
  24:../switch_sdk/core/fal/tiger/fal_tiger_qos.c ****     CMM_PARAM_CHK(CAL_MAX_VALUE_INT_PRI(unit) < pri_tbl.mac_da_pri, CMM_ERR_INPUT);
 225              		.loc 1 24 5 is_stmt 1 discriminator 1 view .LVU49
  24:../switch_sdk/core/fal/tiger/fal_tiger_qos.c ****     CMM_PARAM_CHK(CAL_MAX_VALUE_INT_PRI(unit) < pri_tbl.mac_da_pri, CMM_ERR_INPUT);
 226              		.loc 1 24 5 discriminator 1 view .LVU50
 227 010a 464B     		ldr	r3, .L43+8
 228 010c 1B78     		ldrb	r3, [r3]	@ zero_extendqisi2
 229 010e 012B     		cmp	r3, #1
 230 0110 03D8     		bhi	.L34
 231              	.L4:
  24:../switch_sdk/core/fal/tiger/fal_tiger_qos.c ****     CMM_PARAM_CHK(CAL_MAX_VALUE_INT_PRI(unit) < pri_tbl.mac_da_pri, CMM_ERR_INPUT);
 232              		.loc 1 24 5 discriminator 5 view .LVU51
  24:../switch_sdk/core/fal/tiger/fal_tiger_qos.c ****     CMM_PARAM_CHK(CAL_MAX_VALUE_INT_PRI(unit) < pri_tbl.mac_da_pri, CMM_ERR_INPUT);
 233              		.loc 1 24 5 discriminator 5 view .LVU52
  24:../switch_sdk/core/fal/tiger/fal_tiger_qos.c ****     CMM_PARAM_CHK(CAL_MAX_VALUE_INT_PRI(unit) < pri_tbl.mac_da_pri, CMM_ERR_INPUT);
 234              		.loc 1 24 5 discriminator 5 view .LVU53
 235 0112 0520     		movs	r0, #5
 236              	.LVL19:
 237              	.L1:
  43:../switch_sdk/core/fal/tiger/fal_tiger_qos.c **** }
 238              		.loc 1 43 1 is_stmt 0 view .LVU54
 239 0114 09B0     		add	sp, sp, #36
 240              		.cfi_remember_state
 241              		.cfi_def_cfa_offset 36
 242              		@ sp needed
 243 0116 BDE8F08F 		pop	{r4, r5, r6, r7, r8, r9, r10, fp, pc}
 244              	.LVL20:
 245              	.L34:
 246              		.cfi_restore_state
  24:../switch_sdk/core/fal/tiger/fal_tiger_qos.c ****     CMM_PARAM_CHK(CAL_MAX_VALUE_INT_PRI(unit) < pri_tbl.mac_da_pri, CMM_ERR_INPUT);
 247              		.loc 1 24 5 is_stmt 1 discriminator 3 view .LVU55
 248              	.LBB2:
  24:../switch_sdk/core/fal/tiger/fal_tiger_qos.c ****     CMM_PARAM_CHK(CAL_MAX_VALUE_INT_PRI(unit) < pri_tbl.mac_da_pri, CMM_ERR_INPUT);
 249              		.loc 1 24 5 discriminator 3 view .LVU56
 250 011a 434B     		ldr	r3, .L43+12
 251 011c 5A69     		ldr	r2, [r3, #20]
 252 011e 434B     		ldr	r3, .L43+16
 253 0120 9968     		ldr	r1, [r3, #8]
 254 0122 4348     		ldr	r0, .L43+20
 255 0124 FFF7FEFF 		bl	osal_printf
 256              	.LVL21:
 257 0128 F3E7     		b	.L4
 258              	.L26:
 259              	.LBE2:
  25:../switch_sdk/core/fal/tiger/fal_tiger_qos.c ****     CMM_PARAM_CHK(CAL_MAX_VALUE_INT_PRI(unit) < pri_tbl.vlan_pri, CMM_ERR_INPUT);
 260              		.loc 1 25 5 discriminator 1 view .LVU57
  25:../switch_sdk/core/fal/tiger/fal_tiger_qos.c ****     CMM_PARAM_CHK(CAL_MAX_VALUE_INT_PRI(unit) < pri_tbl.vlan_pri, CMM_ERR_INPUT);
 261              		.loc 1 25 5 discriminator 1 view .LVU58
 262 012a 3E4B     		ldr	r3, .L43+8
 263 012c 1B78     		ldrb	r3, [r3]	@ zero_extendqisi2
 264 012e 012B     		cmp	r3, #1
 265 0130 01D8     		bhi	.L35
 266              	.L7:
  25:../switch_sdk/core/fal/tiger/fal_tiger_qos.c ****     CMM_PARAM_CHK(CAL_MAX_VALUE_INT_PRI(unit) < pri_tbl.vlan_pri, CMM_ERR_INPUT);
 267              		.loc 1 25 5 discriminator 5 view .LVU59
  25:../switch_sdk/core/fal/tiger/fal_tiger_qos.c ****     CMM_PARAM_CHK(CAL_MAX_VALUE_INT_PRI(unit) < pri_tbl.vlan_pri, CMM_ERR_INPUT);
 268              		.loc 1 25 5 discriminator 5 view .LVU60
  25:../switch_sdk/core/fal/tiger/fal_tiger_qos.c ****     CMM_PARAM_CHK(CAL_MAX_VALUE_INT_PRI(unit) < pri_tbl.vlan_pri, CMM_ERR_INPUT);
 269              		.loc 1 25 5 discriminator 5 view .LVU61
 270 0132 0520     		movs	r0, #5
 271 0134 EEE7     		b	.L1
 272              	.L35:
  25:../switch_sdk/core/fal/tiger/fal_tiger_qos.c ****     CMM_PARAM_CHK(CAL_MAX_VALUE_INT_PRI(unit) < pri_tbl.vlan_pri, CMM_ERR_INPUT);
 273              		.loc 1 25 5 discriminator 3 view .LVU62
 274              	.LBB3:
  25:../switch_sdk/core/fal/tiger/fal_tiger_qos.c ****     CMM_PARAM_CHK(CAL_MAX_VALUE_INT_PRI(unit) < pri_tbl.vlan_pri, CMM_ERR_INPUT);
 275              		.loc 1 25 5 discriminator 3 view .LVU63
 276 0136 3C4B     		ldr	r3, .L43+12
 277 0138 5A69     		ldr	r2, [r3, #20]
 278 013a 3C4B     		ldr	r3, .L43+16
 279 013c 9968     		ldr	r1, [r3, #8]
 280 013e 3C48     		ldr	r0, .L43+20
 281 0140 FFF7FEFF 		bl	osal_printf
 282              	.LVL22:
 283 0144 F5E7     		b	.L7
 284              	.L27:
 285              	.LBE3:
  26:../switch_sdk/core/fal/tiger/fal_tiger_qos.c ****     CMM_PARAM_CHK(CAL_MAX_VALUE_INT_PRI(unit) < pri_tbl.acl_pri, CMM_ERR_INPUT);
 286              		.loc 1 26 5 discriminator 1 view .LVU64
  26:../switch_sdk/core/fal/tiger/fal_tiger_qos.c ****     CMM_PARAM_CHK(CAL_MAX_VALUE_INT_PRI(unit) < pri_tbl.acl_pri, CMM_ERR_INPUT);
 287              		.loc 1 26 5 discriminator 1 view .LVU65
 288 0146 374B     		ldr	r3, .L43+8
 289 0148 1B78     		ldrb	r3, [r3]	@ zero_extendqisi2
 290 014a 012B     		cmp	r3, #1
 291 014c 01D8     		bhi	.L36
 292              	.L9:
  26:../switch_sdk/core/fal/tiger/fal_tiger_qos.c ****     CMM_PARAM_CHK(CAL_MAX_VALUE_INT_PRI(unit) < pri_tbl.acl_pri, CMM_ERR_INPUT);
 293              		.loc 1 26 5 discriminator 5 view .LVU66
  26:../switch_sdk/core/fal/tiger/fal_tiger_qos.c ****     CMM_PARAM_CHK(CAL_MAX_VALUE_INT_PRI(unit) < pri_tbl.acl_pri, CMM_ERR_INPUT);
 294              		.loc 1 26 5 discriminator 5 view .LVU67
  26:../switch_sdk/core/fal/tiger/fal_tiger_qos.c ****     CMM_PARAM_CHK(CAL_MAX_VALUE_INT_PRI(unit) < pri_tbl.acl_pri, CMM_ERR_INPUT);
 295              		.loc 1 26 5 discriminator 5 view .LVU68
 296 014e 0520     		movs	r0, #5
 297 0150 E0E7     		b	.L1
 298              	.L36:
  26:../switch_sdk/core/fal/tiger/fal_tiger_qos.c ****     CMM_PARAM_CHK(CAL_MAX_VALUE_INT_PRI(unit) < pri_tbl.acl_pri, CMM_ERR_INPUT);
 299              		.loc 1 26 5 discriminator 3 view .LVU69
 300              	.LBB4:
  26:../switch_sdk/core/fal/tiger/fal_tiger_qos.c ****     CMM_PARAM_CHK(CAL_MAX_VALUE_INT_PRI(unit) < pri_tbl.acl_pri, CMM_ERR_INPUT);
 301              		.loc 1 26 5 discriminator 3 view .LVU70
 302 0152 354B     		ldr	r3, .L43+12
 303 0154 5A69     		ldr	r2, [r3, #20]
 304 0156 354B     		ldr	r3, .L43+16
 305 0158 9968     		ldr	r1, [r3, #8]
 306 015a 3548     		ldr	r0, .L43+20
 307 015c FFF7FEFF 		bl	osal_printf
 308              	.LVL23:
 309 0160 F5E7     		b	.L9
 310              	.L28:
 311              	.LBE4:
  27:../switch_sdk/core/fal/tiger/fal_tiger_qos.c ****     CMM_PARAM_CHK(CAL_MAX_VALUE_INT_PRI(unit) < pri_tbl.dscp_pri, CMM_ERR_INPUT);
 312              		.loc 1 27 5 discriminator 1 view .LVU71
  27:../switch_sdk/core/fal/tiger/fal_tiger_qos.c ****     CMM_PARAM_CHK(CAL_MAX_VALUE_INT_PRI(unit) < pri_tbl.dscp_pri, CMM_ERR_INPUT);
 313              		.loc 1 27 5 discriminator 1 view .LVU72
 314 0162 304B     		ldr	r3, .L43+8
 315 0164 1B78     		ldrb	r3, [r3]	@ zero_extendqisi2
 316 0166 012B     		cmp	r3, #1
 317 0168 01D8     		bhi	.L37
 318              	.L11:
  27:../switch_sdk/core/fal/tiger/fal_tiger_qos.c ****     CMM_PARAM_CHK(CAL_MAX_VALUE_INT_PRI(unit) < pri_tbl.dscp_pri, CMM_ERR_INPUT);
 319              		.loc 1 27 5 discriminator 5 view .LVU73
  27:../switch_sdk/core/fal/tiger/fal_tiger_qos.c ****     CMM_PARAM_CHK(CAL_MAX_VALUE_INT_PRI(unit) < pri_tbl.dscp_pri, CMM_ERR_INPUT);
 320              		.loc 1 27 5 discriminator 5 view .LVU74
  27:../switch_sdk/core/fal/tiger/fal_tiger_qos.c ****     CMM_PARAM_CHK(CAL_MAX_VALUE_INT_PRI(unit) < pri_tbl.dscp_pri, CMM_ERR_INPUT);
 321              		.loc 1 27 5 discriminator 5 view .LVU75
 322 016a 0520     		movs	r0, #5
 323 016c D2E7     		b	.L1
 324              	.L37:
  27:../switch_sdk/core/fal/tiger/fal_tiger_qos.c ****     CMM_PARAM_CHK(CAL_MAX_VALUE_INT_PRI(unit) < pri_tbl.dscp_pri, CMM_ERR_INPUT);
 325              		.loc 1 27 5 discriminator 3 view .LVU76
 326              	.LBB5:
  27:../switch_sdk/core/fal/tiger/fal_tiger_qos.c ****     CMM_PARAM_CHK(CAL_MAX_VALUE_INT_PRI(unit) < pri_tbl.dscp_pri, CMM_ERR_INPUT);
 327              		.loc 1 27 5 discriminator 3 view .LVU77
 328 016e 2E4B     		ldr	r3, .L43+12
 329 0170 5A69     		ldr	r2, [r3, #20]
 330 0172 2E4B     		ldr	r3, .L43+16
 331 0174 9968     		ldr	r1, [r3, #8]
 332 0176 2E48     		ldr	r0, .L43+20
 333 0178 FFF7FEFF 		bl	osal_printf
 334              	.LVL24:
 335 017c F5E7     		b	.L11
 336              	.L29:
 337              	.LBE5:
  28:../switch_sdk/core/fal/tiger/fal_tiger_qos.c ****     CMM_PARAM_CHK(CAL_MAX_VALUE_INT_PRI(unit) < pri_tbl.cpri, CMM_ERR_INPUT);
 338              		.loc 1 28 5 discriminator 1 view .LVU78
  28:../switch_sdk/core/fal/tiger/fal_tiger_qos.c ****     CMM_PARAM_CHK(CAL_MAX_VALUE_INT_PRI(unit) < pri_tbl.cpri, CMM_ERR_INPUT);
 339              		.loc 1 28 5 discriminator 1 view .LVU79
 340 017e 294B     		ldr	r3, .L43+8
 341 0180 1B78     		ldrb	r3, [r3]	@ zero_extendqisi2
 342 0182 012B     		cmp	r3, #1
 343 0184 01D8     		bhi	.L38
 344              	.L13:
  28:../switch_sdk/core/fal/tiger/fal_tiger_qos.c ****     CMM_PARAM_CHK(CAL_MAX_VALUE_INT_PRI(unit) < pri_tbl.cpri, CMM_ERR_INPUT);
 345              		.loc 1 28 5 discriminator 5 view .LVU80
  28:../switch_sdk/core/fal/tiger/fal_tiger_qos.c ****     CMM_PARAM_CHK(CAL_MAX_VALUE_INT_PRI(unit) < pri_tbl.cpri, CMM_ERR_INPUT);
 346              		.loc 1 28 5 discriminator 5 view .LVU81
  28:../switch_sdk/core/fal/tiger/fal_tiger_qos.c ****     CMM_PARAM_CHK(CAL_MAX_VALUE_INT_PRI(unit) < pri_tbl.cpri, CMM_ERR_INPUT);
 347              		.loc 1 28 5 discriminator 5 view .LVU82
 348 0186 0520     		movs	r0, #5
 349 0188 C4E7     		b	.L1
 350              	.L38:
  28:../switch_sdk/core/fal/tiger/fal_tiger_qos.c ****     CMM_PARAM_CHK(CAL_MAX_VALUE_INT_PRI(unit) < pri_tbl.cpri, CMM_ERR_INPUT);
 351              		.loc 1 28 5 discriminator 3 view .LVU83
 352              	.LBB6:
  28:../switch_sdk/core/fal/tiger/fal_tiger_qos.c ****     CMM_PARAM_CHK(CAL_MAX_VALUE_INT_PRI(unit) < pri_tbl.cpri, CMM_ERR_INPUT);
 353              		.loc 1 28 5 discriminator 3 view .LVU84
 354 018a 274B     		ldr	r3, .L43+12
 355 018c 5A69     		ldr	r2, [r3, #20]
 356 018e 274B     		ldr	r3, .L43+16
 357 0190 9968     		ldr	r1, [r3, #8]
 358 0192 2748     		ldr	r0, .L43+20
 359 0194 FFF7FEFF 		bl	osal_printf
 360              	.LVL25:
 361 0198 F5E7     		b	.L13
 362              	.L30:
 363              	.LBE6:
  29:../switch_sdk/core/fal/tiger/fal_tiger_qos.c ****     CMM_PARAM_CHK(CAL_MAX_VALUE_INT_PRI(unit) < pri_tbl.spri, CMM_ERR_INPUT);
 364              		.loc 1 29 5 discriminator 1 view .LVU85
  29:../switch_sdk/core/fal/tiger/fal_tiger_qos.c ****     CMM_PARAM_CHK(CAL_MAX_VALUE_INT_PRI(unit) < pri_tbl.spri, CMM_ERR_INPUT);
 365              		.loc 1 29 5 discriminator 1 view .LVU86
 366 019a 224B     		ldr	r3, .L43+8
 367 019c 1B78     		ldrb	r3, [r3]	@ zero_extendqisi2
 368 019e 012B     		cmp	r3, #1
 369 01a0 01D8     		bhi	.L39
 370              	.L15:
  29:../switch_sdk/core/fal/tiger/fal_tiger_qos.c ****     CMM_PARAM_CHK(CAL_MAX_VALUE_INT_PRI(unit) < pri_tbl.spri, CMM_ERR_INPUT);
 371              		.loc 1 29 5 discriminator 5 view .LVU87
  29:../switch_sdk/core/fal/tiger/fal_tiger_qos.c ****     CMM_PARAM_CHK(CAL_MAX_VALUE_INT_PRI(unit) < pri_tbl.spri, CMM_ERR_INPUT);
 372              		.loc 1 29 5 discriminator 5 view .LVU88
  29:../switch_sdk/core/fal/tiger/fal_tiger_qos.c ****     CMM_PARAM_CHK(CAL_MAX_VALUE_INT_PRI(unit) < pri_tbl.spri, CMM_ERR_INPUT);
 373              		.loc 1 29 5 discriminator 5 view .LVU89
 374 01a2 0520     		movs	r0, #5
 375 01a4 B6E7     		b	.L1
 376              	.L39:
  29:../switch_sdk/core/fal/tiger/fal_tiger_qos.c ****     CMM_PARAM_CHK(CAL_MAX_VALUE_INT_PRI(unit) < pri_tbl.spri, CMM_ERR_INPUT);
 377              		.loc 1 29 5 discriminator 3 view .LVU90
 378              	.LBB7:
  29:../switch_sdk/core/fal/tiger/fal_tiger_qos.c ****     CMM_PARAM_CHK(CAL_MAX_VALUE_INT_PRI(unit) < pri_tbl.spri, CMM_ERR_INPUT);
 379              		.loc 1 29 5 discriminator 3 view .LVU91
 380 01a6 204B     		ldr	r3, .L43+12
 381 01a8 5A69     		ldr	r2, [r3, #20]
 382 01aa 204B     		ldr	r3, .L43+16
 383 01ac 9968     		ldr	r1, [r3, #8]
 384 01ae 2048     		ldr	r0, .L43+20
 385 01b0 FFF7FEFF 		bl	osal_printf
 386              	.LVL26:
 387 01b4 F5E7     		b	.L15
 388              	.L31:
 389              	.LBE7:
  30:../switch_sdk/core/fal/tiger/fal_tiger_qos.c ****     CMM_PARAM_CHK(CAL_MAX_VALUE_INT_PRI(unit) < pri_tbl.port_pri, CMM_ERR_INPUT);
 390              		.loc 1 30 5 discriminator 1 view .LVU92
  30:../switch_sdk/core/fal/tiger/fal_tiger_qos.c ****     CMM_PARAM_CHK(CAL_MAX_VALUE_INT_PRI(unit) < pri_tbl.port_pri, CMM_ERR_INPUT);
 391              		.loc 1 30 5 discriminator 1 view .LVU93
 392 01b6 1B4B     		ldr	r3, .L43+8
 393 01b8 1B78     		ldrb	r3, [r3]	@ zero_extendqisi2
 394 01ba 012B     		cmp	r3, #1
 395 01bc 01D8     		bhi	.L40
 396              	.L17:
  30:../switch_sdk/core/fal/tiger/fal_tiger_qos.c ****     CMM_PARAM_CHK(CAL_MAX_VALUE_INT_PRI(unit) < pri_tbl.port_pri, CMM_ERR_INPUT);
 397              		.loc 1 30 5 discriminator 5 view .LVU94
  30:../switch_sdk/core/fal/tiger/fal_tiger_qos.c ****     CMM_PARAM_CHK(CAL_MAX_VALUE_INT_PRI(unit) < pri_tbl.port_pri, CMM_ERR_INPUT);
 398              		.loc 1 30 5 discriminator 5 view .LVU95
  30:../switch_sdk/core/fal/tiger/fal_tiger_qos.c ****     CMM_PARAM_CHK(CAL_MAX_VALUE_INT_PRI(unit) < pri_tbl.port_pri, CMM_ERR_INPUT);
 399              		.loc 1 30 5 discriminator 5 view .LVU96
 400 01be 0520     		movs	r0, #5
 401 01c0 A8E7     		b	.L1
 402              	.L40:
  30:../switch_sdk/core/fal/tiger/fal_tiger_qos.c ****     CMM_PARAM_CHK(CAL_MAX_VALUE_INT_PRI(unit) < pri_tbl.port_pri, CMM_ERR_INPUT);
 403              		.loc 1 30 5 discriminator 3 view .LVU97
 404              	.LBB8:
  30:../switch_sdk/core/fal/tiger/fal_tiger_qos.c ****     CMM_PARAM_CHK(CAL_MAX_VALUE_INT_PRI(unit) < pri_tbl.port_pri, CMM_ERR_INPUT);
 405              		.loc 1 30 5 discriminator 3 view .LVU98
 406 01c2 194B     		ldr	r3, .L43+12
 407 01c4 5A69     		ldr	r2, [r3, #20]
 408 01c6 194B     		ldr	r3, .L43+16
 409 01c8 9968     		ldr	r1, [r3, #8]
 410 01ca 1948     		ldr	r0, .L43+20
 411 01cc FFF7FEFF 		bl	osal_printf
 412              	.LVL27:
 413 01d0 F5E7     		b	.L17
 414              	.L32:
 415              	.LBE8:
  31:../switch_sdk/core/fal/tiger/fal_tiger_qos.c ****     
 416              		.loc 1 31 5 discriminator 1 view .LVU99
  31:../switch_sdk/core/fal/tiger/fal_tiger_qos.c ****     
 417              		.loc 1 31 5 discriminator 1 view .LVU100
 418 01d2 144B     		ldr	r3, .L43+8
 419 01d4 1B78     		ldrb	r3, [r3]	@ zero_extendqisi2
 420 01d6 012B     		cmp	r3, #1
 421 01d8 01D8     		bhi	.L41
 422              	.L19:
  31:../switch_sdk/core/fal/tiger/fal_tiger_qos.c ****     
 423              		.loc 1 31 5 discriminator 5 view .LVU101
  31:../switch_sdk/core/fal/tiger/fal_tiger_qos.c ****     
 424              		.loc 1 31 5 discriminator 5 view .LVU102
  31:../switch_sdk/core/fal/tiger/fal_tiger_qos.c ****     
 425              		.loc 1 31 5 discriminator 5 view .LVU103
 426 01da 0520     		movs	r0, #5
 427 01dc 9AE7     		b	.L1
 428              	.L41:
  31:../switch_sdk/core/fal/tiger/fal_tiger_qos.c ****     
 429              		.loc 1 31 5 discriminator 3 view .LVU104
 430              	.LBB9:
  31:../switch_sdk/core/fal/tiger/fal_tiger_qos.c ****     
 431              		.loc 1 31 5 discriminator 3 view .LVU105
 432 01de 124B     		ldr	r3, .L43+12
 433 01e0 5A69     		ldr	r2, [r3, #20]
 434 01e2 124B     		ldr	r3, .L43+16
 435 01e4 9968     		ldr	r1, [r3, #8]
 436 01e6 1248     		ldr	r0, .L43+20
 437 01e8 FFF7FEFF 		bl	osal_printf
 438              	.LVL28:
 439 01ec F5E7     		b	.L19
 440              	.LVL29:
 441              	.L33:
  31:../switch_sdk/core/fal/tiger/fal_tiger_qos.c ****     
 442              		.loc 1 31 5 is_stmt 0 discriminator 3 view .LVU106
 443              	.LBE9:
  41:../switch_sdk/core/fal/tiger/fal_tiger_qos.c ****     return CMM_ERR_OK;
 444              		.loc 1 41 5 is_stmt 1 discriminator 1 view .LVU107
  41:../switch_sdk/core/fal/tiger/fal_tiger_qos.c ****     return CMM_ERR_OK;
 445              		.loc 1 41 5 discriminator 1 view .LVU108
 446 01ee 0D4A     		ldr	r2, .L43+8
 447 01f0 1278     		ldrb	r2, [r2]	@ zero_extendqisi2
 448 01f2 012A     		cmp	r2, #1
 449 01f4 01D8     		bhi	.L42
 450              	.LVL30:
 451              	.L20:
  41:../switch_sdk/core/fal/tiger/fal_tiger_qos.c ****     return CMM_ERR_OK;
 452              		.loc 1 41 5 discriminator 5 view .LVU109
  41:../switch_sdk/core/fal/tiger/fal_tiger_qos.c ****     return CMM_ERR_OK;
 453              		.loc 1 41 5 discriminator 5 view .LVU110
  41:../switch_sdk/core/fal/tiger/fal_tiger_qos.c ****     return CMM_ERR_OK;
 454              		.loc 1 41 5 discriminator 5 view .LVU111
 455 01f6 E0B2     		uxtb	r0, r4
 456 01f8 8CE7     		b	.L1
 457              	.LVL31:
 458              	.L42:
  41:../switch_sdk/core/fal/tiger/fal_tiger_qos.c ****     return CMM_ERR_OK;
 459              		.loc 1 41 5 discriminator 3 view .LVU112
 460              	.LBB10:
  41:../switch_sdk/core/fal/tiger/fal_tiger_qos.c ****     return CMM_ERR_OK;
 461              		.loc 1 41 5 discriminator 3 view .LVU113
 462 01fa 142B     		cmp	r3, #20
 463 01fc 28BF     		it	cs
 464 01fe 1423     		movcs	r3, #20
 465 0200 1A46     		mov	r2, r3
 466 0202 0C4B     		ldr	r3, .L43+24
 467 0204 0093     		str	r3, [sp]
 468 0206 0C4B     		ldr	r3, .L43+28
 469 0208 0749     		ldr	r1, .L43+12
 470 020a 51F82220 		ldr	r2, [r1, r2, lsl #2]
 471 020e 0749     		ldr	r1, .L43+16
 472 0210 8968     		ldr	r1, [r1, #8]
 473 0212 0A48     		ldr	r0, .L43+32
 474              	.LVL32:
  41:../switch_sdk/core/fal/tiger/fal_tiger_qos.c ****     return CMM_ERR_OK;
 475              		.loc 1 41 5 is_stmt 0 discriminator 3 view .LVU114
 476 0214 FFF7FEFF 		bl	osal_printf
 477              	.LVL33:
 478 0218 EDE7     		b	.L20
 479              	.L44:
 480 021a 00BF     		.align	2
 481              	.L43:
 482 021c 00000000 		.word	gcal_inited
 483 0220 00000000 		.word	gpSwitchUnit
 484 0224 00000000 		.word	yt_debug_level
 485 0228 00000000 		.word	_yt_errmsg
 486 022c 00000000 		.word	_yt_prompt_msg
 487 0230 00000000 		.word	.LC0
 488 0234 00000000 		.word	__FUNCTION__.45
 489 0238 08000000 		.word	.LC1
 490 023c 58000000 		.word	.LC2
 491              	.LBE10:
 492              		.cfi_endproc
 493              	.LFE3:
 495              		.section	.rodata.fal_tiger_qos_intPri_map_weight_get.str1.4,"aMS",%progbits,1
 496              		.align	2
 497              	.LC3:
 498 0000 68616C5F 		.ascii	"hal_table_reg_read(unit,113,macid,sizeof(qos_merge_"
 498      7461626C 
 498      655F7265 
 498      675F7265 
 498      61642875 
 499 0033 70726563 		.ascii	"precedence_ctrln_t),&entry)\000"
 499      6564656E 
 499      63655F63 
 499      74726C6E 
 499      5F74292C 
 500              		.section	.text.fal_tiger_qos_intPri_map_weight_get,"ax",%progbits
 501              		.align	1
 502              		.global	fal_tiger_qos_intPri_map_weight_get
 503              		.syntax unified
 504              		.thumb
 505              		.thumb_func
 507              	fal_tiger_qos_intPri_map_weight_get:
 508              	.LVL34:
 509              	.LFB4:
  44:../switch_sdk/core/fal/tiger/fal_tiger_qos.c **** 
  45:../switch_sdk/core/fal/tiger/fal_tiger_qos.c **** /*
  46:../switch_sdk/core/fal/tiger/fal_tiger_qos.c ****  [Function Name]
  47:../switch_sdk/core/fal/tiger/fal_tiger_qos.c **** 
  48:../switch_sdk/core/fal/tiger/fal_tiger_qos.c ****  [Input/Output]
  49:../switch_sdk/core/fal/tiger/fal_tiger_qos.c **** 
  50:../switch_sdk/core/fal/tiger/fal_tiger_qos.c ****  [Description]
  51:../switch_sdk/core/fal/tiger/fal_tiger_qos.c **** 
  52:../switch_sdk/core/fal/tiger/fal_tiger_qos.c ****  [Return]
  53:../switch_sdk/core/fal/tiger/fal_tiger_qos.c **** 
  54:../switch_sdk/core/fal/tiger/fal_tiger_qos.c ****  [Note] l2_resolution: acl_l2_src_pn.src_port;
  55:../switch_sdk/core/fal/tiger/fal_tiger_qos.c **** 
  56:../switch_sdk/core/fal/tiger/fal_tiger_qos.c ****  */
  57:../switch_sdk/core/fal/tiger/fal_tiger_qos.c **** yt_ret_t fal_tiger_qos_intPri_map_weight_get(yt_unit_t unit, yt_port_t port, yt_qos_intPri_map_weig
  58:../switch_sdk/core/fal/tiger/fal_tiger_qos.c **** {
 510              		.loc 1 58 1 is_stmt 1 view -0
 511              		.cfi_startproc
 512              		@ args = 0, pretend = 0, frame = 8
 513              		@ frame_needed = 0, uses_anonymous_args = 0
 514              		.loc 1 58 1 is_stmt 0 view .LVU116
 515 0000 2DE9F04F 		push	{r4, r5, r6, r7, r8, r9, r10, fp, lr}
 516              		.cfi_def_cfa_offset 36
 517              		.cfi_offset 4, -36
 518              		.cfi_offset 5, -32
 519              		.cfi_offset 6, -28
 520              		.cfi_offset 7, -24
 521              		.cfi_offset 8, -20
 522              		.cfi_offset 9, -16
 523              		.cfi_offset 10, -12
 524              		.cfi_offset 11, -8
 525              		.cfi_offset 14, -4
 526 0004 85B0     		sub	sp, sp, #20
 527              		.cfi_def_cfa_offset 56
 528 0006 1546     		mov	r5, r2
  59:../switch_sdk/core/fal/tiger/fal_tiger_qos.c ****     qos_merge_precedence_ctrln_t entry;
 529              		.loc 1 59 5 is_stmt 1 view .LVU117
  60:../switch_sdk/core/fal/tiger/fal_tiger_qos.c ****     cmm_err_t ret = CMM_ERR_OK;
 530              		.loc 1 60 5 view .LVU118
 531              	.LVL35:
  61:../switch_sdk/core/fal/tiger/fal_tiger_qos.c ****     yt_macid_t macid = CAL_YTP_TO_MAC(unit,port);
 532              		.loc 1 61 5 view .LVU119
 533              		.loc 1 61 24 is_stmt 0 view .LVU120
 534 0008 3E4B     		ldr	r3, .L54
 535 000a 1B78     		ldrb	r3, [r3]	@ zero_extendqisi2
 536 000c 53B1     		cbz	r3, .L50
 537              		.loc 1 61 24 discriminator 1 view .LVU121
 538 000e 3E4B     		ldr	r3, .L54+4
 539 0010 53F82030 		ldr	r3, [r3, r0, lsl #2]
 540 0014 1A7D     		ldrb	r2, [r3, #20]	@ zero_extendqisi2
 541              	.LVL36:
 542              		.loc 1 61 24 discriminator 1 view .LVU122
 543 0016 8A42     		cmp	r2, r1
 544 0018 17D9     		bls	.L51
 545              		.loc 1 61 24 discriminator 3 view .LVU123
 546 001a 0631     		adds	r1, r1, #6
 547              	.LVL37:
 548              		.loc 1 61 24 discriminator 3 view .LVU124
 549 001c 53F82130 		ldr	r3, [r3, r1, lsl #2]
 550 0020 1A78     		ldrb	r2, [r3]	@ zero_extendqisi2
 551 0022 00E0     		b	.L46
 552              	.LVL38:
 553              	.L50:
 554              		.loc 1 61 24 view .LVU125
 555 0024 FF22     		movs	r2, #255
 556              	.LVL39:
 557              	.L46:
  62:../switch_sdk/core/fal/tiger/fal_tiger_qos.c ****     uint32_t mac_sa_pri;
 558              		.loc 1 62 5 is_stmt 1 discriminator 6 view .LVU126
  63:../switch_sdk/core/fal/tiger/fal_tiger_qos.c ****     uint32_t mac_da_pri;
 559              		.loc 1 63 5 discriminator 6 view .LVU127
  64:../switch_sdk/core/fal/tiger/fal_tiger_qos.c ****     uint32_t vlan_pri;
 560              		.loc 1 64 5 discriminator 6 view .LVU128
  65:../switch_sdk/core/fal/tiger/fal_tiger_qos.c ****     uint32_t acl_pri;
 561              		.loc 1 65 5 discriminator 6 view .LVU129
  66:../switch_sdk/core/fal/tiger/fal_tiger_qos.c ****     uint32_t dscp_pri;
 562              		.loc 1 66 5 discriminator 6 view .LVU130
  67:../switch_sdk/core/fal/tiger/fal_tiger_qos.c ****     uint32_t cpri;
 563              		.loc 1 67 5 discriminator 6 view .LVU131
  68:../switch_sdk/core/fal/tiger/fal_tiger_qos.c ****     uint32_t spri;
 564              		.loc 1 68 5 discriminator 6 view .LVU132
  69:../switch_sdk/core/fal/tiger/fal_tiger_qos.c ****     uint32_t port_pri;
 565              		.loc 1 69 5 discriminator 6 view .LVU133
  70:../switch_sdk/core/fal/tiger/fal_tiger_qos.c ****     CMM_ERR_CHK(HAL_TBL_REG_READ(unit, QOS_MERGE_PRECEDENCE_CTRLNm, macid, sizeof(qos_merge_precede
 566              		.loc 1 70 5 discriminator 6 view .LVU134
 567              		.loc 1 70 5 discriminator 6 view .LVU135
 568 0026 03AB     		add	r3, sp, #12
 569 0028 0093     		str	r3, [sp]
 570 002a 0423     		movs	r3, #4
 571 002c 7121     		movs	r1, #113
 572 002e FFF7FEFF 		bl	hal_table_reg_read
 573              	.LVL40:
 574              		.loc 1 70 5 is_stmt 0 discriminator 6 view .LVU136
 575 0032 0446     		mov	r4, r0
 576              	.LVL41:
 577              		.loc 1 70 5 discriminator 6 view .LVU137
 578 0034 10F0FF03 		ands	r3, r0, #255
 579 0038 19D0     		beq	.L47
 580              		.loc 1 70 5 is_stmt 1 discriminator 1 view .LVU138
 581              		.loc 1 70 5 discriminator 1 view .LVU139
 582 003a 344A     		ldr	r2, .L54+8
 583 003c 1278     		ldrb	r2, [r2]	@ zero_extendqisi2
 584 003e 012A     		cmp	r2, #1
 585 0040 05D8     		bhi	.L53
 586              	.LVL42:
 587              	.L48:
 588              		.loc 1 70 5 discriminator 5 view .LVU140
 589              		.loc 1 70 5 discriminator 5 view .LVU141
 590              		.loc 1 70 5 discriminator 5 view .LVU142
 591 0042 E0B2     		uxtb	r0, r4
 592              	.L45:
  71:../switch_sdk/core/fal/tiger/fal_tiger_qos.c ****     HAL_FIELD_GET(QOS_MERGE_PRECEDENCE_CTRLNm, QOS_MERGE_PRECEDENCE_CTRLN_MAC_SA_INT_PRI_PRECEDENCE
  72:../switch_sdk/core/fal/tiger/fal_tiger_qos.c ****     HAL_FIELD_GET(QOS_MERGE_PRECEDENCE_CTRLNm, QOS_MERGE_PRECEDENCE_CTRLN_MAC_DA_INT_PRI_PRECEDENCE
  73:../switch_sdk/core/fal/tiger/fal_tiger_qos.c ****     HAL_FIELD_GET(QOS_MERGE_PRECEDENCE_CTRLNm, QOS_MERGE_PRECEDENCE_CTRLN_VLAN_INT_PRI_PRECEDENCEf,
  74:../switch_sdk/core/fal/tiger/fal_tiger_qos.c ****     HAL_FIELD_GET(QOS_MERGE_PRECEDENCE_CTRLNm, QOS_MERGE_PRECEDENCE_CTRLN_ACL_INT_PRI_PRECEDENCEf, 
  75:../switch_sdk/core/fal/tiger/fal_tiger_qos.c ****     HAL_FIELD_GET(QOS_MERGE_PRECEDENCE_CTRLNm, QOS_MERGE_PRECEDENCE_CTRLN_DSCP2INT_PRI_PRECEDENCEf,
  76:../switch_sdk/core/fal/tiger/fal_tiger_qos.c ****     HAL_FIELD_GET(QOS_MERGE_PRECEDENCE_CTRLNm, QOS_MERGE_PRECEDENCE_CTRLN_CPRI2INT_PRI_PRECEDENCEf,
  77:../switch_sdk/core/fal/tiger/fal_tiger_qos.c ****     HAL_FIELD_GET(QOS_MERGE_PRECEDENCE_CTRLNm, QOS_MERGE_PRECEDENCE_CTRLN_SPRI2INT_PRI_PRECEDENCEf,
  78:../switch_sdk/core/fal/tiger/fal_tiger_qos.c ****     HAL_FIELD_GET(QOS_MERGE_PRECEDENCE_CTRLNm, QOS_MERGE_PRECEDENCE_CTRLN_PORT_PRI_PRECEDENCEf, &en
  79:../switch_sdk/core/fal/tiger/fal_tiger_qos.c **** 
  80:../switch_sdk/core/fal/tiger/fal_tiger_qos.c ****     pri_tbl->mac_sa_pri = mac_sa_pri;
  81:../switch_sdk/core/fal/tiger/fal_tiger_qos.c ****     pri_tbl->mac_da_pri = mac_da_pri;
  82:../switch_sdk/core/fal/tiger/fal_tiger_qos.c ****     pri_tbl->vlan_pri = vlan_pri;
  83:../switch_sdk/core/fal/tiger/fal_tiger_qos.c ****     pri_tbl->acl_pri = acl_pri;
  84:../switch_sdk/core/fal/tiger/fal_tiger_qos.c ****     pri_tbl->dscp_pri = dscp_pri;
  85:../switch_sdk/core/fal/tiger/fal_tiger_qos.c ****     pri_tbl->cpri = cpri;
  86:../switch_sdk/core/fal/tiger/fal_tiger_qos.c ****     pri_tbl->spri = spri;
  87:../switch_sdk/core/fal/tiger/fal_tiger_qos.c ****     pri_tbl->port_pri = port_pri;
  88:../switch_sdk/core/fal/tiger/fal_tiger_qos.c **** 
  89:../switch_sdk/core/fal/tiger/fal_tiger_qos.c ****     return CMM_ERR_OK;
  90:../switch_sdk/core/fal/tiger/fal_tiger_qos.c **** }
 593              		.loc 1 90 1 is_stmt 0 view .LVU143
 594 0044 05B0     		add	sp, sp, #20
 595              		.cfi_remember_state
 596              		.cfi_def_cfa_offset 36
 597              		@ sp needed
 598 0046 BDE8F08F 		pop	{r4, r5, r6, r7, r8, r9, r10, fp, pc}
 599              	.LVL43:
 600              	.L51:
 601              		.cfi_restore_state
  61:../switch_sdk/core/fal/tiger/fal_tiger_qos.c ****     uint32_t mac_sa_pri;
 602              		.loc 1 61 24 view .LVU144
 603 004a FF22     		movs	r2, #255
 604 004c EBE7     		b	.L46
 605              	.LVL44:
 606              	.L53:
  70:../switch_sdk/core/fal/tiger/fal_tiger_qos.c ****     CMM_ERR_CHK(HAL_TBL_REG_READ(unit, QOS_MERGE_PRECEDENCE_CTRLNm, macid, sizeof(qos_merge_precede
 607              		.loc 1 70 5 is_stmt 1 discriminator 3 view .LVU145
 608              	.LBB11:
  70:../switch_sdk/core/fal/tiger/fal_tiger_qos.c ****     CMM_ERR_CHK(HAL_TBL_REG_READ(unit, QOS_MERGE_PRECEDENCE_CTRLNm, macid, sizeof(qos_merge_precede
 609              		.loc 1 70 5 discriminator 3 view .LVU146
 610 004e 142B     		cmp	r3, #20
 611 0050 28BF     		it	cs
 612 0052 1423     		movcs	r3, #20
 613 0054 1A46     		mov	r2, r3
 614 0056 2E4B     		ldr	r3, .L54+12
 615 0058 0093     		str	r3, [sp]
 616 005a 2E4B     		ldr	r3, .L54+16
 617 005c 2E49     		ldr	r1, .L54+20
 618 005e 51F82220 		ldr	r2, [r1, r2, lsl #2]
 619 0062 2E49     		ldr	r1, .L54+24
 620 0064 8968     		ldr	r1, [r1, #8]
 621 0066 2E48     		ldr	r0, .L54+28
 622              	.LVL45:
  70:../switch_sdk/core/fal/tiger/fal_tiger_qos.c ****     CMM_ERR_CHK(HAL_TBL_REG_READ(unit, QOS_MERGE_PRECEDENCE_CTRLNm, macid, sizeof(qos_merge_precede
 623              		.loc 1 70 5 is_stmt 0 discriminator 3 view .LVU147
 624 0068 FFF7FEFF 		bl	osal_printf
 625              	.LVL46:
 626 006c E9E7     		b	.L48
 627              	.LVL47:
 628              	.L47:
  70:../switch_sdk/core/fal/tiger/fal_tiger_qos.c ****     CMM_ERR_CHK(HAL_TBL_REG_READ(unit, QOS_MERGE_PRECEDENCE_CTRLNm, macid, sizeof(qos_merge_precede
 629              		.loc 1 70 5 discriminator 3 view .LVU148
 630              	.LBE11:
  70:../switch_sdk/core/fal/tiger/fal_tiger_qos.c ****     CMM_ERR_CHK(HAL_TBL_REG_READ(unit, QOS_MERGE_PRECEDENCE_CTRLNm, macid, sizeof(qos_merge_precede
 631              		.loc 1 70 5 is_stmt 1 discriminator 2 view .LVU149
  71:../switch_sdk/core/fal/tiger/fal_tiger_qos.c ****     HAL_FIELD_GET(QOS_MERGE_PRECEDENCE_CTRLNm, QOS_MERGE_PRECEDENCE_CTRLN_MAC_SA_INT_PRI_PRECEDENCE
 632              		.loc 1 71 5 discriminator 2 view .LVU150
 633              	.LBB12:
  71:../switch_sdk/core/fal/tiger/fal_tiger_qos.c ****     HAL_FIELD_GET(QOS_MERGE_PRECEDENCE_CTRLNm, QOS_MERGE_PRECEDENCE_CTRLN_MAC_SA_INT_PRI_PRECEDENCE
 634              		.loc 1 71 5 discriminator 2 view .LVU151
  71:../switch_sdk/core/fal/tiger/fal_tiger_qos.c ****     HAL_FIELD_GET(QOS_MERGE_PRECEDENCE_CTRLNm, QOS_MERGE_PRECEDENCE_CTRLN_MAC_SA_INT_PRI_PRECEDENCE
 635              		.loc 1 71 5 discriminator 2 view .LVU152
 636 006e 02AB     		add	r3, sp, #8
 637 0070 03AA     		add	r2, sp, #12
 638 0072 0721     		movs	r1, #7
 639 0074 7120     		movs	r0, #113
 640              	.LVL48:
  71:../switch_sdk/core/fal/tiger/fal_tiger_qos.c ****     HAL_FIELD_GET(QOS_MERGE_PRECEDENCE_CTRLNm, QOS_MERGE_PRECEDENCE_CTRLN_MAC_SA_INT_PRI_PRECEDENCE
 641              		.loc 1 71 5 is_stmt 0 discriminator 2 view .LVU153
 642 0076 FFF7FEFF 		bl	hal_tbl_reg_field_get
 643              	.LVL49:
  71:../switch_sdk/core/fal/tiger/fal_tiger_qos.c ****     HAL_FIELD_GET(QOS_MERGE_PRECEDENCE_CTRLNm, QOS_MERGE_PRECEDENCE_CTRLN_MAC_SA_INT_PRI_PRECEDENCE
 644              		.loc 1 71 5 is_stmt 1 discriminator 2 view .LVU154
 645 007a DDF808B0 		ldr	fp, [sp, #8]
 646              	.LVL50:
  71:../switch_sdk/core/fal/tiger/fal_tiger_qos.c ****     HAL_FIELD_GET(QOS_MERGE_PRECEDENCE_CTRLNm, QOS_MERGE_PRECEDENCE_CTRLN_MAC_SA_INT_PRI_PRECEDENCE
 647              		.loc 1 71 5 is_stmt 0 discriminator 2 view .LVU155
 648              	.LBE12:
  71:../switch_sdk/core/fal/tiger/fal_tiger_qos.c ****     HAL_FIELD_GET(QOS_MERGE_PRECEDENCE_CTRLNm, QOS_MERGE_PRECEDENCE_CTRLN_MAC_SA_INT_PRI_PRECEDENCE
 649              		.loc 1 71 5 is_stmt 1 discriminator 2 view .LVU156
  72:../switch_sdk/core/fal/tiger/fal_tiger_qos.c ****     HAL_FIELD_GET(QOS_MERGE_PRECEDENCE_CTRLNm, QOS_MERGE_PRECEDENCE_CTRLN_VLAN_INT_PRI_PRECEDENCEf,
 650              		.loc 1 72 5 discriminator 2 view .LVU157
 651              	.LBB13:
  72:../switch_sdk/core/fal/tiger/fal_tiger_qos.c ****     HAL_FIELD_GET(QOS_MERGE_PRECEDENCE_CTRLNm, QOS_MERGE_PRECEDENCE_CTRLN_VLAN_INT_PRI_PRECEDENCEf,
 652              		.loc 1 72 5 discriminator 2 view .LVU158
  72:../switch_sdk/core/fal/tiger/fal_tiger_qos.c ****     HAL_FIELD_GET(QOS_MERGE_PRECEDENCE_CTRLNm, QOS_MERGE_PRECEDENCE_CTRLN_VLAN_INT_PRI_PRECEDENCEf,
 653              		.loc 1 72 5 discriminator 2 view .LVU159
 654 007e 02AB     		add	r3, sp, #8
 655 0080 03AA     		add	r2, sp, #12
 656 0082 0621     		movs	r1, #6
 657 0084 7120     		movs	r0, #113
 658 0086 FFF7FEFF 		bl	hal_tbl_reg_field_get
 659              	.LVL51:
  72:../switch_sdk/core/fal/tiger/fal_tiger_qos.c ****     HAL_FIELD_GET(QOS_MERGE_PRECEDENCE_CTRLNm, QOS_MERGE_PRECEDENCE_CTRLN_VLAN_INT_PRI_PRECEDENCEf,
 660              		.loc 1 72 5 discriminator 2 view .LVU160
 661 008a DDF808A0 		ldr	r10, [sp, #8]
 662              	.LVL52:
  72:../switch_sdk/core/fal/tiger/fal_tiger_qos.c ****     HAL_FIELD_GET(QOS_MERGE_PRECEDENCE_CTRLNm, QOS_MERGE_PRECEDENCE_CTRLN_VLAN_INT_PRI_PRECEDENCEf,
 663              		.loc 1 72 5 is_stmt 0 discriminator 2 view .LVU161
 664              	.LBE13:
  72:../switch_sdk/core/fal/tiger/fal_tiger_qos.c ****     HAL_FIELD_GET(QOS_MERGE_PRECEDENCE_CTRLNm, QOS_MERGE_PRECEDENCE_CTRLN_VLAN_INT_PRI_PRECEDENCEf,
 665              		.loc 1 72 5 is_stmt 1 discriminator 2 view .LVU162
  73:../switch_sdk/core/fal/tiger/fal_tiger_qos.c ****     HAL_FIELD_GET(QOS_MERGE_PRECEDENCE_CTRLNm, QOS_MERGE_PRECEDENCE_CTRLN_ACL_INT_PRI_PRECEDENCEf, 
 666              		.loc 1 73 5 discriminator 2 view .LVU163
 667              	.LBB14:
  73:../switch_sdk/core/fal/tiger/fal_tiger_qos.c ****     HAL_FIELD_GET(QOS_MERGE_PRECEDENCE_CTRLNm, QOS_MERGE_PRECEDENCE_CTRLN_ACL_INT_PRI_PRECEDENCEf, 
 668              		.loc 1 73 5 discriminator 2 view .LVU164
  73:../switch_sdk/core/fal/tiger/fal_tiger_qos.c ****     HAL_FIELD_GET(QOS_MERGE_PRECEDENCE_CTRLNm, QOS_MERGE_PRECEDENCE_CTRLN_ACL_INT_PRI_PRECEDENCEf, 
 669              		.loc 1 73 5 discriminator 2 view .LVU165
 670 008e 02AB     		add	r3, sp, #8
 671 0090 03AA     		add	r2, sp, #12
 672 0092 0521     		movs	r1, #5
 673 0094 7120     		movs	r0, #113
 674 0096 FFF7FEFF 		bl	hal_tbl_reg_field_get
 675              	.LVL53:
  73:../switch_sdk/core/fal/tiger/fal_tiger_qos.c ****     HAL_FIELD_GET(QOS_MERGE_PRECEDENCE_CTRLNm, QOS_MERGE_PRECEDENCE_CTRLN_ACL_INT_PRI_PRECEDENCEf, 
 676              		.loc 1 73 5 discriminator 2 view .LVU166
 677 009a DDF80890 		ldr	r9, [sp, #8]
 678              	.LVL54:
  73:../switch_sdk/core/fal/tiger/fal_tiger_qos.c ****     HAL_FIELD_GET(QOS_MERGE_PRECEDENCE_CTRLNm, QOS_MERGE_PRECEDENCE_CTRLN_ACL_INT_PRI_PRECEDENCEf, 
 679              		.loc 1 73 5 is_stmt 0 discriminator 2 view .LVU167
 680              	.LBE14:
  73:../switch_sdk/core/fal/tiger/fal_tiger_qos.c ****     HAL_FIELD_GET(QOS_MERGE_PRECEDENCE_CTRLNm, QOS_MERGE_PRECEDENCE_CTRLN_ACL_INT_PRI_PRECEDENCEf, 
 681              		.loc 1 73 5 is_stmt 1 discriminator 2 view .LVU168
  74:../switch_sdk/core/fal/tiger/fal_tiger_qos.c ****     HAL_FIELD_GET(QOS_MERGE_PRECEDENCE_CTRLNm, QOS_MERGE_PRECEDENCE_CTRLN_DSCP2INT_PRI_PRECEDENCEf,
 682              		.loc 1 74 5 discriminator 2 view .LVU169
 683              	.LBB15:
  74:../switch_sdk/core/fal/tiger/fal_tiger_qos.c ****     HAL_FIELD_GET(QOS_MERGE_PRECEDENCE_CTRLNm, QOS_MERGE_PRECEDENCE_CTRLN_DSCP2INT_PRI_PRECEDENCEf,
 684              		.loc 1 74 5 discriminator 2 view .LVU170
  74:../switch_sdk/core/fal/tiger/fal_tiger_qos.c ****     HAL_FIELD_GET(QOS_MERGE_PRECEDENCE_CTRLNm, QOS_MERGE_PRECEDENCE_CTRLN_DSCP2INT_PRI_PRECEDENCEf,
 685              		.loc 1 74 5 discriminator 2 view .LVU171
 686 009e 02AB     		add	r3, sp, #8
 687 00a0 03AA     		add	r2, sp, #12
 688 00a2 0421     		movs	r1, #4
 689 00a4 7120     		movs	r0, #113
 690 00a6 FFF7FEFF 		bl	hal_tbl_reg_field_get
 691              	.LVL55:
  74:../switch_sdk/core/fal/tiger/fal_tiger_qos.c ****     HAL_FIELD_GET(QOS_MERGE_PRECEDENCE_CTRLNm, QOS_MERGE_PRECEDENCE_CTRLN_DSCP2INT_PRI_PRECEDENCEf,
 692              		.loc 1 74 5 discriminator 2 view .LVU172
 693 00aa DDF80880 		ldr	r8, [sp, #8]
 694              	.LVL56:
  74:../switch_sdk/core/fal/tiger/fal_tiger_qos.c ****     HAL_FIELD_GET(QOS_MERGE_PRECEDENCE_CTRLNm, QOS_MERGE_PRECEDENCE_CTRLN_DSCP2INT_PRI_PRECEDENCEf,
 695              		.loc 1 74 5 is_stmt 0 discriminator 2 view .LVU173
 696              	.LBE15:
  74:../switch_sdk/core/fal/tiger/fal_tiger_qos.c ****     HAL_FIELD_GET(QOS_MERGE_PRECEDENCE_CTRLNm, QOS_MERGE_PRECEDENCE_CTRLN_DSCP2INT_PRI_PRECEDENCEf,
 697              		.loc 1 74 5 is_stmt 1 discriminator 2 view .LVU174
  75:../switch_sdk/core/fal/tiger/fal_tiger_qos.c ****     HAL_FIELD_GET(QOS_MERGE_PRECEDENCE_CTRLNm, QOS_MERGE_PRECEDENCE_CTRLN_CPRI2INT_PRI_PRECEDENCEf,
 698              		.loc 1 75 5 discriminator 2 view .LVU175
 699              	.LBB16:
  75:../switch_sdk/core/fal/tiger/fal_tiger_qos.c ****     HAL_FIELD_GET(QOS_MERGE_PRECEDENCE_CTRLNm, QOS_MERGE_PRECEDENCE_CTRLN_CPRI2INT_PRI_PRECEDENCEf,
 700              		.loc 1 75 5 discriminator 2 view .LVU176
  75:../switch_sdk/core/fal/tiger/fal_tiger_qos.c ****     HAL_FIELD_GET(QOS_MERGE_PRECEDENCE_CTRLNm, QOS_MERGE_PRECEDENCE_CTRLN_CPRI2INT_PRI_PRECEDENCEf,
 701              		.loc 1 75 5 discriminator 2 view .LVU177
 702 00ae 02AB     		add	r3, sp, #8
 703 00b0 03AA     		add	r2, sp, #12
 704 00b2 0321     		movs	r1, #3
 705 00b4 7120     		movs	r0, #113
 706 00b6 FFF7FEFF 		bl	hal_tbl_reg_field_get
 707              	.LVL57:
  75:../switch_sdk/core/fal/tiger/fal_tiger_qos.c ****     HAL_FIELD_GET(QOS_MERGE_PRECEDENCE_CTRLNm, QOS_MERGE_PRECEDENCE_CTRLN_CPRI2INT_PRI_PRECEDENCEf,
 708              		.loc 1 75 5 discriminator 2 view .LVU178
 709 00ba 029F     		ldr	r7, [sp, #8]
 710              	.LVL58:
  75:../switch_sdk/core/fal/tiger/fal_tiger_qos.c ****     HAL_FIELD_GET(QOS_MERGE_PRECEDENCE_CTRLNm, QOS_MERGE_PRECEDENCE_CTRLN_CPRI2INT_PRI_PRECEDENCEf,
 711              		.loc 1 75 5 is_stmt 0 discriminator 2 view .LVU179
 712              	.LBE16:
  75:../switch_sdk/core/fal/tiger/fal_tiger_qos.c ****     HAL_FIELD_GET(QOS_MERGE_PRECEDENCE_CTRLNm, QOS_MERGE_PRECEDENCE_CTRLN_CPRI2INT_PRI_PRECEDENCEf,
 713              		.loc 1 75 5 is_stmt 1 discriminator 2 view .LVU180
  76:../switch_sdk/core/fal/tiger/fal_tiger_qos.c ****     HAL_FIELD_GET(QOS_MERGE_PRECEDENCE_CTRLNm, QOS_MERGE_PRECEDENCE_CTRLN_SPRI2INT_PRI_PRECEDENCEf,
 714              		.loc 1 76 5 discriminator 2 view .LVU181
 715              	.LBB17:
  76:../switch_sdk/core/fal/tiger/fal_tiger_qos.c ****     HAL_FIELD_GET(QOS_MERGE_PRECEDENCE_CTRLNm, QOS_MERGE_PRECEDENCE_CTRLN_SPRI2INT_PRI_PRECEDENCEf,
 716              		.loc 1 76 5 discriminator 2 view .LVU182
  76:../switch_sdk/core/fal/tiger/fal_tiger_qos.c ****     HAL_FIELD_GET(QOS_MERGE_PRECEDENCE_CTRLNm, QOS_MERGE_PRECEDENCE_CTRLN_SPRI2INT_PRI_PRECEDENCEf,
 717              		.loc 1 76 5 discriminator 2 view .LVU183
 718 00bc 02AB     		add	r3, sp, #8
 719 00be 03AA     		add	r2, sp, #12
 720 00c0 0221     		movs	r1, #2
 721 00c2 7120     		movs	r0, #113
 722 00c4 FFF7FEFF 		bl	hal_tbl_reg_field_get
 723              	.LVL59:
  76:../switch_sdk/core/fal/tiger/fal_tiger_qos.c ****     HAL_FIELD_GET(QOS_MERGE_PRECEDENCE_CTRLNm, QOS_MERGE_PRECEDENCE_CTRLN_SPRI2INT_PRI_PRECEDENCEf,
 724              		.loc 1 76 5 discriminator 2 view .LVU184
 725 00c8 029E     		ldr	r6, [sp, #8]
 726              	.LVL60:
  76:../switch_sdk/core/fal/tiger/fal_tiger_qos.c ****     HAL_FIELD_GET(QOS_MERGE_PRECEDENCE_CTRLNm, QOS_MERGE_PRECEDENCE_CTRLN_SPRI2INT_PRI_PRECEDENCEf,
 727              		.loc 1 76 5 is_stmt 0 discriminator 2 view .LVU185
 728              	.LBE17:
  76:../switch_sdk/core/fal/tiger/fal_tiger_qos.c ****     HAL_FIELD_GET(QOS_MERGE_PRECEDENCE_CTRLNm, QOS_MERGE_PRECEDENCE_CTRLN_SPRI2INT_PRI_PRECEDENCEf,
 729              		.loc 1 76 5 is_stmt 1 discriminator 2 view .LVU186
  77:../switch_sdk/core/fal/tiger/fal_tiger_qos.c ****     HAL_FIELD_GET(QOS_MERGE_PRECEDENCE_CTRLNm, QOS_MERGE_PRECEDENCE_CTRLN_PORT_PRI_PRECEDENCEf, &en
 730              		.loc 1 77 5 discriminator 2 view .LVU187
 731              	.LBB18:
  77:../switch_sdk/core/fal/tiger/fal_tiger_qos.c ****     HAL_FIELD_GET(QOS_MERGE_PRECEDENCE_CTRLNm, QOS_MERGE_PRECEDENCE_CTRLN_PORT_PRI_PRECEDENCEf, &en
 732              		.loc 1 77 5 discriminator 2 view .LVU188
  77:../switch_sdk/core/fal/tiger/fal_tiger_qos.c ****     HAL_FIELD_GET(QOS_MERGE_PRECEDENCE_CTRLNm, QOS_MERGE_PRECEDENCE_CTRLN_PORT_PRI_PRECEDENCEf, &en
 733              		.loc 1 77 5 discriminator 2 view .LVU189
 734 00ca 02AB     		add	r3, sp, #8
 735 00cc 03AA     		add	r2, sp, #12
 736 00ce 0121     		movs	r1, #1
 737 00d0 7120     		movs	r0, #113
 738 00d2 FFF7FEFF 		bl	hal_tbl_reg_field_get
 739              	.LVL61:
  77:../switch_sdk/core/fal/tiger/fal_tiger_qos.c ****     HAL_FIELD_GET(QOS_MERGE_PRECEDENCE_CTRLNm, QOS_MERGE_PRECEDENCE_CTRLN_PORT_PRI_PRECEDENCEf, &en
 740              		.loc 1 77 5 discriminator 2 view .LVU190
 741 00d6 029C     		ldr	r4, [sp, #8]
 742              	.LVL62:
  77:../switch_sdk/core/fal/tiger/fal_tiger_qos.c ****     HAL_FIELD_GET(QOS_MERGE_PRECEDENCE_CTRLNm, QOS_MERGE_PRECEDENCE_CTRLN_PORT_PRI_PRECEDENCEf, &en
 743              		.loc 1 77 5 is_stmt 0 discriminator 2 view .LVU191
 744              	.LBE18:
  77:../switch_sdk/core/fal/tiger/fal_tiger_qos.c ****     HAL_FIELD_GET(QOS_MERGE_PRECEDENCE_CTRLNm, QOS_MERGE_PRECEDENCE_CTRLN_PORT_PRI_PRECEDENCEf, &en
 745              		.loc 1 77 5 is_stmt 1 discriminator 2 view .LVU192
  78:../switch_sdk/core/fal/tiger/fal_tiger_qos.c **** 
 746              		.loc 1 78 5 discriminator 2 view .LVU193
 747              	.LBB19:
  78:../switch_sdk/core/fal/tiger/fal_tiger_qos.c **** 
 748              		.loc 1 78 5 discriminator 2 view .LVU194
  78:../switch_sdk/core/fal/tiger/fal_tiger_qos.c **** 
 749              		.loc 1 78 5 discriminator 2 view .LVU195
 750 00d8 02AB     		add	r3, sp, #8
 751 00da 03AA     		add	r2, sp, #12
 752 00dc 0021     		movs	r1, #0
 753 00de 7120     		movs	r0, #113
 754 00e0 FFF7FEFF 		bl	hal_tbl_reg_field_get
 755              	.LVL63:
  78:../switch_sdk/core/fal/tiger/fal_tiger_qos.c **** 
 756              		.loc 1 78 5 discriminator 2 view .LVU196
  78:../switch_sdk/core/fal/tiger/fal_tiger_qos.c **** 
 757              		.loc 1 78 5 is_stmt 0 discriminator 2 view .LVU197
 758              	.LBE19:
  78:../switch_sdk/core/fal/tiger/fal_tiger_qos.c **** 
 759              		.loc 1 78 5 is_stmt 1 discriminator 2 view .LVU198
  80:../switch_sdk/core/fal/tiger/fal_tiger_qos.c ****     pri_tbl->mac_da_pri = mac_da_pri;
 760              		.loc 1 80 5 discriminator 2 view .LVU199
  80:../switch_sdk/core/fal/tiger/fal_tiger_qos.c ****     pri_tbl->mac_da_pri = mac_da_pri;
 761              		.loc 1 80 25 is_stmt 0 discriminator 2 view .LVU200
 762 00e4 85F800B0 		strb	fp, [r5]
 763              	.LVL64:
  81:../switch_sdk/core/fal/tiger/fal_tiger_qos.c ****     pri_tbl->vlan_pri = vlan_pri;
 764              		.loc 1 81 5 is_stmt 1 discriminator 2 view .LVU201
  81:../switch_sdk/core/fal/tiger/fal_tiger_qos.c ****     pri_tbl->vlan_pri = vlan_pri;
 765              		.loc 1 81 25 is_stmt 0 discriminator 2 view .LVU202
 766 00e8 85F801A0 		strb	r10, [r5, #1]
  82:../switch_sdk/core/fal/tiger/fal_tiger_qos.c ****     pri_tbl->acl_pri = acl_pri;
 767              		.loc 1 82 5 is_stmt 1 discriminator 2 view .LVU203
  82:../switch_sdk/core/fal/tiger/fal_tiger_qos.c ****     pri_tbl->acl_pri = acl_pri;
 768              		.loc 1 82 23 is_stmt 0 discriminator 2 view .LVU204
 769 00ec 85F80290 		strb	r9, [r5, #2]
  83:../switch_sdk/core/fal/tiger/fal_tiger_qos.c ****     pri_tbl->dscp_pri = dscp_pri;
 770              		.loc 1 83 5 is_stmt 1 discriminator 2 view .LVU205
  83:../switch_sdk/core/fal/tiger/fal_tiger_qos.c ****     pri_tbl->dscp_pri = dscp_pri;
 771              		.loc 1 83 22 is_stmt 0 discriminator 2 view .LVU206
 772 00f0 85F80380 		strb	r8, [r5, #3]
  84:../switch_sdk/core/fal/tiger/fal_tiger_qos.c ****     pri_tbl->cpri = cpri;
 773              		.loc 1 84 5 is_stmt 1 discriminator 2 view .LVU207
  84:../switch_sdk/core/fal/tiger/fal_tiger_qos.c ****     pri_tbl->cpri = cpri;
 774              		.loc 1 84 23 is_stmt 0 discriminator 2 view .LVU208
 775 00f4 2F71     		strb	r7, [r5, #4]
  85:../switch_sdk/core/fal/tiger/fal_tiger_qos.c ****     pri_tbl->spri = spri;
 776              		.loc 1 85 5 is_stmt 1 discriminator 2 view .LVU209
  85:../switch_sdk/core/fal/tiger/fal_tiger_qos.c ****     pri_tbl->spri = spri;
 777              		.loc 1 85 19 is_stmt 0 discriminator 2 view .LVU210
 778 00f6 6E71     		strb	r6, [r5, #5]
  86:../switch_sdk/core/fal/tiger/fal_tiger_qos.c ****     pri_tbl->port_pri = port_pri;
 779              		.loc 1 86 5 is_stmt 1 discriminator 2 view .LVU211
  86:../switch_sdk/core/fal/tiger/fal_tiger_qos.c ****     pri_tbl->port_pri = port_pri;
 780              		.loc 1 86 19 is_stmt 0 discriminator 2 view .LVU212
 781 00f8 AC71     		strb	r4, [r5, #6]
  87:../switch_sdk/core/fal/tiger/fal_tiger_qos.c **** 
 782              		.loc 1 87 5 is_stmt 1 discriminator 2 view .LVU213
  87:../switch_sdk/core/fal/tiger/fal_tiger_qos.c **** 
 783              		.loc 1 87 23 is_stmt 0 discriminator 2 view .LVU214
 784 00fa 029B     		ldr	r3, [sp, #8]
 785              	.LVL65:
  87:../switch_sdk/core/fal/tiger/fal_tiger_qos.c **** 
 786              		.loc 1 87 23 discriminator 2 view .LVU215
 787 00fc EB71     		strb	r3, [r5, #7]
  89:../switch_sdk/core/fal/tiger/fal_tiger_qos.c **** }
 788              		.loc 1 89 5 is_stmt 1 discriminator 2 view .LVU216
  89:../switch_sdk/core/fal/tiger/fal_tiger_qos.c **** }
 789              		.loc 1 89 12 is_stmt 0 discriminator 2 view .LVU217
 790 00fe 0020     		movs	r0, #0
 791 0100 A0E7     		b	.L45
 792              	.L55:
 793 0102 00BF     		.align	2
 794              	.L54:
 795 0104 00000000 		.word	gcal_inited
 796 0108 00000000 		.word	gpSwitchUnit
 797 010c 00000000 		.word	yt_debug_level
 798 0110 00000000 		.word	__FUNCTION__.44
 799 0114 00000000 		.word	.LC3
 800 0118 00000000 		.word	_yt_errmsg
 801 011c 00000000 		.word	_yt_prompt_msg
 802 0120 58000000 		.word	.LC2
 803              		.cfi_endproc
 804              	.LFE4:
 806              		.section	.rodata.fal_tiger_qos_intPri_portDefPri_set.str1.4,"aMS",%progbits,1
 807              		.align	2
 808              	.LC4:
 809 0000 68616C5F 		.ascii	"hal_table_reg_read(unit,112,macid,sizeof(qos_port_c"
 809      7461626C 
 809      655F7265 
 809      675F7265 
 809      61642875 
 810 0033 74726C6E 		.ascii	"trln_t),&entry)\000"
 810      5F74292C 
 810      26656E74 
 810      72792900 
 811 0043 00       		.align	2
 812              	.LC5:
 813 0044 68616C5F 		.ascii	"hal_table_reg_write(unit,112,macid,sizeof(qos_port_"
 813      7461626C 
 813      655F7265 
 813      675F7772 
 813      69746528 
 814 0077 6374726C 		.ascii	"ctrln_t),&entry)\000"
 814      6E5F7429 
 814      2C26656E 
 814      74727929 
 814      00
 815              		.section	.text.fal_tiger_qos_intPri_portDefPri_set,"ax",%progbits
 816              		.align	1
 817              		.global	fal_tiger_qos_intPri_portDefPri_set
 818              		.syntax unified
 819              		.thumb
 820              		.thumb_func
 822              	fal_tiger_qos_intPri_portDefPri_set:
 823              	.LVL66:
 824              	.LFB5:
  91:../switch_sdk/core/fal/tiger/fal_tiger_qos.c **** 
  92:../switch_sdk/core/fal/tiger/fal_tiger_qos.c **** /*
  93:../switch_sdk/core/fal/tiger/fal_tiger_qos.c ****  [Function Name]
  94:../switch_sdk/core/fal/tiger/fal_tiger_qos.c **** 
  95:../switch_sdk/core/fal/tiger/fal_tiger_qos.c ****  [Input/Output]
  96:../switch_sdk/core/fal/tiger/fal_tiger_qos.c **** 
  97:../switch_sdk/core/fal/tiger/fal_tiger_qos.c ****  [Description]
  98:../switch_sdk/core/fal/tiger/fal_tiger_qos.c **** 
  99:../switch_sdk/core/fal/tiger/fal_tiger_qos.c ****  [Return]
 100:../switch_sdk/core/fal/tiger/fal_tiger_qos.c **** 
 101:../switch_sdk/core/fal/tiger/fal_tiger_qos.c ****  [Note] l2_resolution: acl_l2_src_pn.src_port;
 102:../switch_sdk/core/fal/tiger/fal_tiger_qos.c **** 
 103:../switch_sdk/core/fal/tiger/fal_tiger_qos.c ****  */
 104:../switch_sdk/core/fal/tiger/fal_tiger_qos.c **** yt_ret_t fal_tiger_qos_intPri_portDefPri_set (yt_unit_t unit, yt_port_t port, yt_enable_t enable, y
 105:../switch_sdk/core/fal/tiger/fal_tiger_qos.c **** {
 825              		.loc 1 105 1 is_stmt 1 view -0
 826              		.cfi_startproc
 827              		@ args = 0, pretend = 0, frame = 8
 828              		@ frame_needed = 0, uses_anonymous_args = 0
 829              		.loc 1 105 1 is_stmt 0 view .LVU219
 830 0000 2DE9F041 		push	{r4, r5, r6, r7, r8, lr}
 831              		.cfi_def_cfa_offset 24
 832              		.cfi_offset 4, -24
 833              		.cfi_offset 5, -20
 834              		.cfi_offset 6, -16
 835              		.cfi_offset 7, -12
 836              		.cfi_offset 8, -8
 837              		.cfi_offset 14, -4
 838 0004 84B0     		sub	sp, sp, #16
 839              		.cfi_def_cfa_offset 40
 840 0006 0546     		mov	r5, r0
 841 0008 1746     		mov	r7, r2
 842 000a 1E46     		mov	r6, r3
 106:../switch_sdk/core/fal/tiger/fal_tiger_qos.c ****     qos_port_ctrln_t entry;
 843              		.loc 1 106 5 is_stmt 1 view .LVU220
 107:../switch_sdk/core/fal/tiger/fal_tiger_qos.c ****     cmm_err_t ret = CMM_ERR_OK;
 844              		.loc 1 107 5 view .LVU221
 845              	.LVL67:
 108:../switch_sdk/core/fal/tiger/fal_tiger_qos.c ****     yt_macid_t macid = CAL_YTP_TO_MAC(unit,port);
 846              		.loc 1 108 5 view .LVU222
 847              		.loc 1 108 24 is_stmt 0 view .LVU223
 848 000c 3E4B     		ldr	r3, .L73
 849              	.LVL68:
 850              		.loc 1 108 24 view .LVU224
 851 000e 1B78     		ldrb	r3, [r3]	@ zero_extendqisi2
 852 0010 5BB1     		cbz	r3, .L64
 853              		.loc 1 108 24 discriminator 1 view .LVU225
 854 0012 3E4B     		ldr	r3, .L73+4
 855 0014 53F82030 		ldr	r3, [r3, r0, lsl #2]
 856 0018 1A7D     		ldrb	r2, [r3, #20]	@ zero_extendqisi2
 857              	.LVL69:
 858              		.loc 1 108 24 discriminator 1 view .LVU226
 859 001a 8A42     		cmp	r2, r1
 860 001c 21D9     		bls	.L65
 861              		.loc 1 108 24 discriminator 3 view .LVU227
 862 001e 0631     		adds	r1, r1, #6
 863              	.LVL70:
 864              		.loc 1 108 24 discriminator 3 view .LVU228
 865 0020 53F82130 		ldr	r3, [r3, r1, lsl #2]
 866 0024 93F80080 		ldrb	r8, [r3]	@ zero_extendqisi2
 867 0028 01E0     		b	.L57
 868              	.LVL71:
 869              	.L64:
 870              		.loc 1 108 24 view .LVU229
 871 002a 4FF0FF08 		mov	r8, #255
 872              	.LVL72:
 873              	.L57:
 109:../switch_sdk/core/fal/tiger/fal_tiger_qos.c **** 
 110:../switch_sdk/core/fal/tiger/fal_tiger_qos.c ****     CMM_PARAM_CHK(CAL_MAX_VALUE_INT_PRI(unit) < pri, CMM_ERR_INPUT);
 874              		.loc 1 110 5 is_stmt 1 discriminator 6 view .LVU230
 875              		.loc 1 110 5 discriminator 6 view .LVU231
 876 002e 374B     		ldr	r3, .L73+4
 877 0030 53F82530 		ldr	r3, [r3, r5, lsl #2]
 878 0034 D3F8AC30 		ldr	r3, [r3, #172]
 879 0038 DB78     		ldrb	r3, [r3, #3]	@ zero_extendqisi2
 880 003a B342     		cmp	r3, r6
 881 003c 14D3     		bcc	.L68
 882              		.loc 1 110 5 discriminator 2 view .LVU232
 111:../switch_sdk/core/fal/tiger/fal_tiger_qos.c ****     CMM_ERR_CHK(HAL_TBL_REG_READ(unit, QOS_PORT_CTRLNm, macid,sizeof(qos_port_ctrln_t), &entry), re
 883              		.loc 1 111 5 discriminator 2 view .LVU233
 884              		.loc 1 111 5 discriminator 2 view .LVU234
 885 003e 03AB     		add	r3, sp, #12
 886 0040 0093     		str	r3, [sp]
 887 0042 0423     		movs	r3, #4
 888 0044 4246     		mov	r2, r8
 889 0046 7021     		movs	r1, #112
 890 0048 2846     		mov	r0, r5
 891              	.LVL73:
 892              		.loc 1 111 5 is_stmt 0 discriminator 2 view .LVU235
 893 004a FFF7FEFF 		bl	hal_table_reg_read
 894              	.LVL74:
 895 004e 0446     		mov	r4, r0
 896              	.LVL75:
 897              		.loc 1 111 5 discriminator 2 view .LVU236
 898 0050 10F0FF03 		ands	r3, r0, #255
 899 0054 28D0     		beq	.L61
 900              		.loc 1 111 5 is_stmt 1 discriminator 1 view .LVU237
 901              		.loc 1 111 5 discriminator 1 view .LVU238
 902 0056 2E4A     		ldr	r2, .L73+8
 903 0058 1278     		ldrb	r2, [r2]	@ zero_extendqisi2
 904 005a 012A     		cmp	r2, #1
 905 005c 14D8     		bhi	.L69
 906              	.LVL76:
 907              	.L62:
 908              		.loc 1 111 5 discriminator 5 view .LVU239
 909              		.loc 1 111 5 discriminator 5 view .LVU240
 910              		.loc 1 111 5 discriminator 5 view .LVU241
 911 005e E0B2     		uxtb	r0, r4
 912 0060 07E0     		b	.L56
 913              	.LVL77:
 914              	.L65:
 108:../switch_sdk/core/fal/tiger/fal_tiger_qos.c ****     yt_macid_t macid = CAL_YTP_TO_MAC(unit,port);
 915              		.loc 1 108 24 is_stmt 0 view .LVU242
 916 0062 4FF0FF08 		mov	r8, #255
 917 0066 E2E7     		b	.L57
 918              	.LVL78:
 919              	.L68:
 110:../switch_sdk/core/fal/tiger/fal_tiger_qos.c ****     CMM_ERR_CHK(HAL_TBL_REG_READ(unit, QOS_PORT_CTRLNm, macid,sizeof(qos_port_ctrln_t), &entry), re
 920              		.loc 1 110 5 is_stmt 1 discriminator 1 view .LVU243
 110:../switch_sdk/core/fal/tiger/fal_tiger_qos.c ****     CMM_ERR_CHK(HAL_TBL_REG_READ(unit, QOS_PORT_CTRLNm, macid,sizeof(qos_port_ctrln_t), &entry), re
 921              		.loc 1 110 5 discriminator 1 view .LVU244
 922 0068 294B     		ldr	r3, .L73+8
 923 006a 1B78     		ldrb	r3, [r3]	@ zero_extendqisi2
 924 006c 012B     		cmp	r3, #1
 925 006e 03D8     		bhi	.L70
 926              	.LVL79:
 927              	.L59:
 110:../switch_sdk/core/fal/tiger/fal_tiger_qos.c ****     CMM_ERR_CHK(HAL_TBL_REG_READ(unit, QOS_PORT_CTRLNm, macid,sizeof(qos_port_ctrln_t), &entry), re
 928              		.loc 1 110 5 discriminator 5 view .LVU245
 110:../switch_sdk/core/fal/tiger/fal_tiger_qos.c ****     CMM_ERR_CHK(HAL_TBL_REG_READ(unit, QOS_PORT_CTRLNm, macid,sizeof(qos_port_ctrln_t), &entry), re
 929              		.loc 1 110 5 discriminator 5 view .LVU246
 110:../switch_sdk/core/fal/tiger/fal_tiger_qos.c ****     CMM_ERR_CHK(HAL_TBL_REG_READ(unit, QOS_PORT_CTRLNm, macid,sizeof(qos_port_ctrln_t), &entry), re
 930              		.loc 1 110 5 discriminator 5 view .LVU247
 931 0070 0520     		movs	r0, #5
 932              	.LVL80:
 933              	.L56:
 112:../switch_sdk/core/fal/tiger/fal_tiger_qos.c ****     HAL_FIELD_SET(QOS_PORT_CTRLNm, QOS_PORT_CTRLN_PORT_INTPRIf, &entry, pri);
 113:../switch_sdk/core/fal/tiger/fal_tiger_qos.c ****     HAL_FIELD_SET(QOS_PORT_CTRLNm, QOS_PORT_CTRLN_PORT_INTPRI_ENf, &entry, enable);
 114:../switch_sdk/core/fal/tiger/fal_tiger_qos.c ****     CMM_ERR_CHK(HAL_TBL_REG_WRITE(unit, QOS_PORT_CTRLNm, macid,sizeof(qos_port_ctrln_t), &entry), r
 115:../switch_sdk/core/fal/tiger/fal_tiger_qos.c **** 
 116:../switch_sdk/core/fal/tiger/fal_tiger_qos.c ****     return CMM_ERR_OK;
 117:../switch_sdk/core/fal/tiger/fal_tiger_qos.c **** }
 934              		.loc 1 117 1 is_stmt 0 view .LVU248
 935 0072 04B0     		add	sp, sp, #16
 936              		.cfi_remember_state
 937              		.cfi_def_cfa_offset 24
 938              		@ sp needed
 939 0074 BDE8F081 		pop	{r4, r5, r6, r7, r8, pc}
 940              	.LVL81:
 941              	.L70:
 942              		.cfi_restore_state
 110:../switch_sdk/core/fal/tiger/fal_tiger_qos.c ****     CMM_ERR_CHK(HAL_TBL_REG_READ(unit, QOS_PORT_CTRLNm, macid,sizeof(qos_port_ctrln_t), &entry), re
 943              		.loc 1 110 5 is_stmt 1 discriminator 3 view .LVU249
 944              	.LBB20:
 110:../switch_sdk/core/fal/tiger/fal_tiger_qos.c ****     CMM_ERR_CHK(HAL_TBL_REG_READ(unit, QOS_PORT_CTRLNm, macid,sizeof(qos_port_ctrln_t), &entry), re
 945              		.loc 1 110 5 discriminator 3 view .LVU250
 946 0078 264B     		ldr	r3, .L73+12
 947 007a 5A69     		ldr	r2, [r3, #20]
 948 007c 264B     		ldr	r3, .L73+16
 949 007e 9968     		ldr	r1, [r3, #8]
 950 0080 2648     		ldr	r0, .L73+20
 951              	.LVL82:
 110:../switch_sdk/core/fal/tiger/fal_tiger_qos.c ****     CMM_ERR_CHK(HAL_TBL_REG_READ(unit, QOS_PORT_CTRLNm, macid,sizeof(qos_port_ctrln_t), &entry), re
 952              		.loc 1 110 5 is_stmt 0 discriminator 3 view .LVU251
 953 0082 FFF7FEFF 		bl	osal_printf
 954              	.LVL83:
 955 0086 F3E7     		b	.L59
 956              	.LVL84:
 957              	.L69:
 110:../switch_sdk/core/fal/tiger/fal_tiger_qos.c ****     CMM_ERR_CHK(HAL_TBL_REG_READ(unit, QOS_PORT_CTRLNm, macid,sizeof(qos_port_ctrln_t), &entry), re
 958              		.loc 1 110 5 discriminator 3 view .LVU252
 959              	.LBE20:
 111:../switch_sdk/core/fal/tiger/fal_tiger_qos.c ****     HAL_FIELD_SET(QOS_PORT_CTRLNm, QOS_PORT_CTRLN_PORT_INTPRIf, &entry, pri);
 960              		.loc 1 111 5 is_stmt 1 discriminator 3 view .LVU253
 961              	.LBB21:
 111:../switch_sdk/core/fal/tiger/fal_tiger_qos.c ****     HAL_FIELD_SET(QOS_PORT_CTRLNm, QOS_PORT_CTRLN_PORT_INTPRIf, &entry, pri);
 962              		.loc 1 111 5 discriminator 3 view .LVU254
 963 0088 142B     		cmp	r3, #20
 964 008a 28BF     		it	cs
 965 008c 1423     		movcs	r3, #20
 966 008e 1A46     		mov	r2, r3
 967 0090 234B     		ldr	r3, .L73+24
 968 0092 0093     		str	r3, [sp]
 969 0094 234B     		ldr	r3, .L73+28
 970 0096 1F49     		ldr	r1, .L73+12
 971 0098 51F82220 		ldr	r2, [r1, r2, lsl #2]
 972 009c 1E49     		ldr	r1, .L73+16
 973 009e 8968     		ldr	r1, [r1, #8]
 974 00a0 2148     		ldr	r0, .L73+32
 975              	.LVL85:
 111:../switch_sdk/core/fal/tiger/fal_tiger_qos.c ****     HAL_FIELD_SET(QOS_PORT_CTRLNm, QOS_PORT_CTRLN_PORT_INTPRIf, &entry, pri);
 976              		.loc 1 111 5 is_stmt 0 discriminator 3 view .LVU255
 977 00a2 FFF7FEFF 		bl	osal_printf
 978              	.LVL86:
 979 00a6 DAE7     		b	.L62
 980              	.LVL87:
 981              	.L61:
 111:../switch_sdk/core/fal/tiger/fal_tiger_qos.c ****     HAL_FIELD_SET(QOS_PORT_CTRLNm, QOS_PORT_CTRLN_PORT_INTPRIf, &entry, pri);
 982              		.loc 1 111 5 discriminator 3 view .LVU256
 983              	.LBE21:
 111:../switch_sdk/core/fal/tiger/fal_tiger_qos.c ****     HAL_FIELD_SET(QOS_PORT_CTRLNm, QOS_PORT_CTRLN_PORT_INTPRIf, &entry, pri);
 984              		.loc 1 111 5 is_stmt 1 discriminator 2 view .LVU257
 112:../switch_sdk/core/fal/tiger/fal_tiger_qos.c ****     HAL_FIELD_SET(QOS_PORT_CTRLNm, QOS_PORT_CTRLN_PORT_INTPRIf, &entry, pri);
 985              		.loc 1 112 5 discriminator 2 view .LVU258
 986 00a8 03AC     		add	r4, sp, #12
 987 00aa 3346     		mov	r3, r6
 988 00ac 2246     		mov	r2, r4
 989 00ae 0221     		movs	r1, #2
 990 00b0 7020     		movs	r0, #112
 991              	.LVL88:
 112:../switch_sdk/core/fal/tiger/fal_tiger_qos.c ****     HAL_FIELD_SET(QOS_PORT_CTRLNm, QOS_PORT_CTRLN_PORT_INTPRIf, &entry, pri);
 992              		.loc 1 112 5 is_stmt 0 discriminator 2 view .LVU259
 993 00b2 FFF7FEFF 		bl	hal_tbl_reg_field_set
 994              	.LVL89:
 113:../switch_sdk/core/fal/tiger/fal_tiger_qos.c ****     CMM_ERR_CHK(HAL_TBL_REG_WRITE(unit, QOS_PORT_CTRLNm, macid,sizeof(qos_port_ctrln_t), &entry), r
 995              		.loc 1 113 5 is_stmt 1 discriminator 2 view .LVU260
 996 00b6 3B46     		mov	r3, r7
 997 00b8 2246     		mov	r2, r4
 998 00ba 0321     		movs	r1, #3
 999 00bc 7020     		movs	r0, #112
 1000 00be FFF7FEFF 		bl	hal_tbl_reg_field_set
 1001              	.LVL90:
 114:../switch_sdk/core/fal/tiger/fal_tiger_qos.c **** 
 1002              		.loc 1 114 5 discriminator 2 view .LVU261
 114:../switch_sdk/core/fal/tiger/fal_tiger_qos.c **** 
 1003              		.loc 1 114 5 discriminator 2 view .LVU262
 1004 00c2 0094     		str	r4, [sp]
 1005 00c4 0423     		movs	r3, #4
 1006 00c6 4246     		mov	r2, r8
 1007 00c8 7021     		movs	r1, #112
 1008 00ca 2846     		mov	r0, r5
 1009 00cc FFF7FEFF 		bl	hal_table_reg_write
 1010              	.LVL91:
 1011 00d0 0446     		mov	r4, r0
 1012              	.LVL92:
 114:../switch_sdk/core/fal/tiger/fal_tiger_qos.c **** 
 1013              		.loc 1 114 5 is_stmt 0 discriminator 2 view .LVU263
 1014 00d2 10F0FF03 		ands	r3, r0, #255
 1015 00d6 01D1     		bne	.L71
 116:../switch_sdk/core/fal/tiger/fal_tiger_qos.c **** }
 1016              		.loc 1 116 12 view .LVU264
 1017 00d8 0020     		movs	r0, #0
 1018              	.LVL93:
 116:../switch_sdk/core/fal/tiger/fal_tiger_qos.c **** }
 1019              		.loc 1 116 12 view .LVU265
 1020 00da CAE7     		b	.L56
 1021              	.LVL94:
 1022              	.L71:
 114:../switch_sdk/core/fal/tiger/fal_tiger_qos.c **** 
 1023              		.loc 1 114 5 is_stmt 1 discriminator 1 view .LVU266
 114:../switch_sdk/core/fal/tiger/fal_tiger_qos.c **** 
 1024              		.loc 1 114 5 discriminator 1 view .LVU267
 1025 00dc 0C4A     		ldr	r2, .L73+8
 1026 00de 1278     		ldrb	r2, [r2]	@ zero_extendqisi2
 1027 00e0 012A     		cmp	r2, #1
 1028 00e2 01D8     		bhi	.L72
 1029              	.LVL95:
 1030              	.L63:
 114:../switch_sdk/core/fal/tiger/fal_tiger_qos.c **** 
 1031              		.loc 1 114 5 discriminator 5 view .LVU268
 114:../switch_sdk/core/fal/tiger/fal_tiger_qos.c **** 
 1032              		.loc 1 114 5 discriminator 5 view .LVU269
 114:../switch_sdk/core/fal/tiger/fal_tiger_qos.c **** 
 1033              		.loc 1 114 5 discriminator 5 view .LVU270
 1034 00e4 E0B2     		uxtb	r0, r4
 1035 00e6 C4E7     		b	.L56
 1036              	.LVL96:
 1037              	.L72:
 114:../switch_sdk/core/fal/tiger/fal_tiger_qos.c **** 
 1038              		.loc 1 114 5 discriminator 3 view .LVU271
 1039              	.LBB22:
 114:../switch_sdk/core/fal/tiger/fal_tiger_qos.c **** 
 1040              		.loc 1 114 5 discriminator 3 view .LVU272
 1041 00e8 142B     		cmp	r3, #20
 1042 00ea 28BF     		it	cs
 1043 00ec 1423     		movcs	r3, #20
 1044 00ee 1A46     		mov	r2, r3
 1045 00f0 0B4B     		ldr	r3, .L73+24
 1046 00f2 0093     		str	r3, [sp]
 1047 00f4 0D4B     		ldr	r3, .L73+36
 1048 00f6 0749     		ldr	r1, .L73+12
 1049 00f8 51F82220 		ldr	r2, [r1, r2, lsl #2]
 1050 00fc 0649     		ldr	r1, .L73+16
 1051 00fe 8968     		ldr	r1, [r1, #8]
 1052 0100 0948     		ldr	r0, .L73+32
 1053              	.LVL97:
 114:../switch_sdk/core/fal/tiger/fal_tiger_qos.c **** 
 1054              		.loc 1 114 5 is_stmt 0 discriminator 3 view .LVU273
 1055 0102 FFF7FEFF 		bl	osal_printf
 1056              	.LVL98:
 1057 0106 EDE7     		b	.L63
 1058              	.L74:
 1059              		.align	2
 1060              	.L73:
 1061 0108 00000000 		.word	gcal_inited
 1062 010c 00000000 		.word	gpSwitchUnit
 1063 0110 00000000 		.word	yt_debug_level
 1064 0114 00000000 		.word	_yt_errmsg
 1065 0118 00000000 		.word	_yt_prompt_msg
 1066 011c 00000000 		.word	.LC0
 1067 0120 00000000 		.word	__FUNCTION__.43
 1068 0124 00000000 		.word	.LC4
 1069 0128 58000000 		.word	.LC2
 1070 012c 44000000 		.word	.LC5
 1071              	.LBE22:
 1072              		.cfi_endproc
 1073              	.LFE5:
 1075              		.section	.text.fal_tiger_qos_intPri_portDefPri_get,"ax",%progbits
 1076              		.align	1
 1077              		.global	fal_tiger_qos_intPri_portDefPri_get
 1078              		.syntax unified
 1079              		.thumb
 1080              		.thumb_func
 1082              	fal_tiger_qos_intPri_portDefPri_get:
 1083              	.LVL99:
 1084              	.LFB6:
 118:../switch_sdk/core/fal/tiger/fal_tiger_qos.c **** 
 119:../switch_sdk/core/fal/tiger/fal_tiger_qos.c **** /*
 120:../switch_sdk/core/fal/tiger/fal_tiger_qos.c ****  [Function Name]
 121:../switch_sdk/core/fal/tiger/fal_tiger_qos.c **** 
 122:../switch_sdk/core/fal/tiger/fal_tiger_qos.c ****  [Input/Output]
 123:../switch_sdk/core/fal/tiger/fal_tiger_qos.c **** 
 124:../switch_sdk/core/fal/tiger/fal_tiger_qos.c ****  [Description]
 125:../switch_sdk/core/fal/tiger/fal_tiger_qos.c **** 
 126:../switch_sdk/core/fal/tiger/fal_tiger_qos.c ****  [Return]
 127:../switch_sdk/core/fal/tiger/fal_tiger_qos.c **** 
 128:../switch_sdk/core/fal/tiger/fal_tiger_qos.c ****  [Note];
 129:../switch_sdk/core/fal/tiger/fal_tiger_qos.c **** 
 130:../switch_sdk/core/fal/tiger/fal_tiger_qos.c ****  */
 131:../switch_sdk/core/fal/tiger/fal_tiger_qos.c **** yt_ret_t  fal_tiger_qos_intPri_portDefPri_get (yt_unit_t unit, yt_port_t port, yt_enable_t *pEnable
 132:../switch_sdk/core/fal/tiger/fal_tiger_qos.c **** {
 1085              		.loc 1 132 1 is_stmt 1 view -0
 1086              		.cfi_startproc
 1087              		@ args = 0, pretend = 0, frame = 8
 1088              		@ frame_needed = 0, uses_anonymous_args = 0
 1089              		.loc 1 132 1 is_stmt 0 view .LVU275
 1090 0000 70B5     		push	{r4, r5, r6, lr}
 1091              		.cfi_def_cfa_offset 16
 1092              		.cfi_offset 4, -16
 1093              		.cfi_offset 5, -12
 1094              		.cfi_offset 6, -8
 1095              		.cfi_offset 14, -4
 1096 0002 84B0     		sub	sp, sp, #16
 1097              		.cfi_def_cfa_offset 32
 1098 0004 1646     		mov	r6, r2
 1099 0006 1D46     		mov	r5, r3
 133:../switch_sdk/core/fal/tiger/fal_tiger_qos.c ****     qos_port_ctrln_t entry;
 1100              		.loc 1 133 5 is_stmt 1 view .LVU276
 134:../switch_sdk/core/fal/tiger/fal_tiger_qos.c ****     cmm_err_t ret = CMM_ERR_OK;
 1101              		.loc 1 134 5 view .LVU277
 1102              	.LVL100:
 135:../switch_sdk/core/fal/tiger/fal_tiger_qos.c ****     yt_macid_t macid = CAL_YTP_TO_MAC(unit,port);
 1103              		.loc 1 135 5 view .LVU278
 1104              		.loc 1 135 24 is_stmt 0 view .LVU279
 1105 0008 234B     		ldr	r3, .L84
 1106              	.LVL101:
 1107              		.loc 1 135 24 view .LVU280
 1108 000a 1B78     		ldrb	r3, [r3]	@ zero_extendqisi2
 1109 000c 53B1     		cbz	r3, .L80
 1110              		.loc 1 135 24 discriminator 1 view .LVU281
 1111 000e 234B     		ldr	r3, .L84+4
 1112 0010 53F82030 		ldr	r3, [r3, r0, lsl #2]
 1113 0014 1A7D     		ldrb	r2, [r3, #20]	@ zero_extendqisi2
 1114              	.LVL102:
 1115              		.loc 1 135 24 discriminator 1 view .LVU282
 1116 0016 8A42     		cmp	r2, r1
 1117 0018 16D9     		bls	.L81
 1118              		.loc 1 135 24 discriminator 3 view .LVU283
 1119 001a 0631     		adds	r1, r1, #6
 1120              	.LVL103:
 1121              		.loc 1 135 24 discriminator 3 view .LVU284
 1122 001c 53F82130 		ldr	r3, [r3, r1, lsl #2]
 1123 0020 1A78     		ldrb	r2, [r3]	@ zero_extendqisi2
 1124 0022 00E0     		b	.L76
 1125              	.LVL104:
 1126              	.L80:
 1127              		.loc 1 135 24 view .LVU285
 1128 0024 FF22     		movs	r2, #255
 1129              	.LVL105:
 1130              	.L76:
 136:../switch_sdk/core/fal/tiger/fal_tiger_qos.c ****     uint32_t enable;
 1131              		.loc 1 136 5 is_stmt 1 discriminator 6 view .LVU286
 137:../switch_sdk/core/fal/tiger/fal_tiger_qos.c ****     uint32_t pri;
 1132              		.loc 1 137 5 discriminator 6 view .LVU287
 138:../switch_sdk/core/fal/tiger/fal_tiger_qos.c **** 
 139:../switch_sdk/core/fal/tiger/fal_tiger_qos.c ****     CMM_ERR_CHK(HAL_TBL_REG_READ(unit, QOS_PORT_CTRLNm, macid,sizeof(qos_port_ctrln_t), &entry), re
 1133              		.loc 1 139 5 discriminator 6 view .LVU288
 1134              		.loc 1 139 5 discriminator 6 view .LVU289
 1135 0026 03AB     		add	r3, sp, #12
 1136 0028 0093     		str	r3, [sp]
 1137 002a 0423     		movs	r3, #4
 1138 002c 7021     		movs	r1, #112
 1139 002e FFF7FEFF 		bl	hal_table_reg_read
 1140              	.LVL106:
 1141              		.loc 1 139 5 is_stmt 0 discriminator 6 view .LVU290
 1142 0032 0446     		mov	r4, r0
 1143              	.LVL107:
 1144              		.loc 1 139 5 discriminator 6 view .LVU291
 1145 0034 10F0FF03 		ands	r3, r0, #255
 1146 0038 18D0     		beq	.L77
 1147              		.loc 1 139 5 is_stmt 1 discriminator 1 view .LVU292
 1148              		.loc 1 139 5 discriminator 1 view .LVU293
 1149 003a 194A     		ldr	r2, .L84+8
 1150 003c 1278     		ldrb	r2, [r2]	@ zero_extendqisi2
 1151 003e 012A     		cmp	r2, #1
 1152 0040 04D8     		bhi	.L83
 1153              	.LVL108:
 1154              	.L78:
 1155              		.loc 1 139 5 discriminator 5 view .LVU294
 1156              		.loc 1 139 5 discriminator 5 view .LVU295
 1157              		.loc 1 139 5 discriminator 5 view .LVU296
 1158 0042 E0B2     		uxtb	r0, r4
 1159              	.L75:
 140:../switch_sdk/core/fal/tiger/fal_tiger_qos.c ****     HAL_FIELD_GET(QOS_PORT_CTRLNm, QOS_PORT_CTRLN_PORT_INTPRIf, &entry, &pri);
 141:../switch_sdk/core/fal/tiger/fal_tiger_qos.c ****     HAL_FIELD_GET(QOS_PORT_CTRLNm, QOS_PORT_CTRLN_PORT_INTPRI_ENf, &entry, &enable);
 142:../switch_sdk/core/fal/tiger/fal_tiger_qos.c ****     *pEnable = enable?YT_ENABLE:YT_DISABLE;
 143:../switch_sdk/core/fal/tiger/fal_tiger_qos.c ****     *pPri = pri;
 144:../switch_sdk/core/fal/tiger/fal_tiger_qos.c **** 
 145:../switch_sdk/core/fal/tiger/fal_tiger_qos.c ****     return CMM_ERR_OK;
 146:../switch_sdk/core/fal/tiger/fal_tiger_qos.c **** }
 1160              		.loc 1 146 1 is_stmt 0 view .LVU297
 1161 0044 04B0     		add	sp, sp, #16
 1162              		.cfi_remember_state
 1163              		.cfi_def_cfa_offset 16
 1164              		@ sp needed
 1165 0046 70BD     		pop	{r4, r5, r6, pc}
 1166              	.LVL109:
 1167              	.L81:
 1168              		.cfi_restore_state
 135:../switch_sdk/core/fal/tiger/fal_tiger_qos.c ****     uint32_t enable;
 1169              		.loc 1 135 24 view .LVU298
 1170 0048 FF22     		movs	r2, #255
 1171 004a ECE7     		b	.L76
 1172              	.LVL110:
 1173              	.L83:
 139:../switch_sdk/core/fal/tiger/fal_tiger_qos.c ****     HAL_FIELD_GET(QOS_PORT_CTRLNm, QOS_PORT_CTRLN_PORT_INTPRIf, &entry, &pri);
 1174              		.loc 1 139 5 is_stmt 1 discriminator 3 view .LVU299
 1175              	.LBB23:
 139:../switch_sdk/core/fal/tiger/fal_tiger_qos.c ****     HAL_FIELD_GET(QOS_PORT_CTRLNm, QOS_PORT_CTRLN_PORT_INTPRIf, &entry, &pri);
 1176              		.loc 1 139 5 discriminator 3 view .LVU300
 1177 004c 142B     		cmp	r3, #20
 1178 004e 28BF     		it	cs
 1179 0050 1423     		movcs	r3, #20
 1180 0052 1A46     		mov	r2, r3
 1181 0054 134B     		ldr	r3, .L84+12
 1182 0056 0093     		str	r3, [sp]
 1183 0058 134B     		ldr	r3, .L84+16
 1184 005a 1449     		ldr	r1, .L84+20
 1185 005c 51F82220 		ldr	r2, [r1, r2, lsl #2]
 1186 0060 1349     		ldr	r1, .L84+24
 1187 0062 8968     		ldr	r1, [r1, #8]
 1188 0064 1348     		ldr	r0, .L84+28
 1189              	.LVL111:
 139:../switch_sdk/core/fal/tiger/fal_tiger_qos.c ****     HAL_FIELD_GET(QOS_PORT_CTRLNm, QOS_PORT_CTRLN_PORT_INTPRIf, &entry, &pri);
 1190              		.loc 1 139 5 is_stmt 0 discriminator 3 view .LVU301
 1191 0066 FFF7FEFF 		bl	osal_printf
 1192              	.LVL112:
 1193 006a EAE7     		b	.L78
 1194              	.LVL113:
 1195              	.L77:
 139:../switch_sdk/core/fal/tiger/fal_tiger_qos.c ****     HAL_FIELD_GET(QOS_PORT_CTRLNm, QOS_PORT_CTRLN_PORT_INTPRIf, &entry, &pri);
 1196              		.loc 1 139 5 discriminator 3 view .LVU302
 1197              	.LBE23:
 139:../switch_sdk/core/fal/tiger/fal_tiger_qos.c ****     HAL_FIELD_GET(QOS_PORT_CTRLNm, QOS_PORT_CTRLN_PORT_INTPRIf, &entry, &pri);
 1198              		.loc 1 139 5 is_stmt 1 discriminator 2 view .LVU303
 140:../switch_sdk/core/fal/tiger/fal_tiger_qos.c ****     HAL_FIELD_GET(QOS_PORT_CTRLNm, QOS_PORT_CTRLN_PORT_INTPRIf, &entry, &pri);
 1199              		.loc 1 140 5 discriminator 2 view .LVU304
 1200              	.LBB24:
 140:../switch_sdk/core/fal/tiger/fal_tiger_qos.c ****     HAL_FIELD_GET(QOS_PORT_CTRLNm, QOS_PORT_CTRLN_PORT_INTPRIf, &entry, &pri);
 1201              		.loc 1 140 5 discriminator 2 view .LVU305
 140:../switch_sdk/core/fal/tiger/fal_tiger_qos.c ****     HAL_FIELD_GET(QOS_PORT_CTRLNm, QOS_PORT_CTRLN_PORT_INTPRIf, &entry, &pri);
 1202              		.loc 1 140 5 discriminator 2 view .LVU306
 1203 006c 02AB     		add	r3, sp, #8
 1204 006e 03AA     		add	r2, sp, #12
 1205 0070 0221     		movs	r1, #2
 1206 0072 7020     		movs	r0, #112
 1207              	.LVL114:
 140:../switch_sdk/core/fal/tiger/fal_tiger_qos.c ****     HAL_FIELD_GET(QOS_PORT_CTRLNm, QOS_PORT_CTRLN_PORT_INTPRIf, &entry, &pri);
 1208              		.loc 1 140 5 is_stmt 0 discriminator 2 view .LVU307
 1209 0074 FFF7FEFF 		bl	hal_tbl_reg_field_get
 1210              	.LVL115:
 140:../switch_sdk/core/fal/tiger/fal_tiger_qos.c ****     HAL_FIELD_GET(QOS_PORT_CTRLNm, QOS_PORT_CTRLN_PORT_INTPRIf, &entry, &pri);
 1211              		.loc 1 140 5 is_stmt 1 discriminator 2 view .LVU308
 1212 0078 029C     		ldr	r4, [sp, #8]
 1213              	.LVL116:
 140:../switch_sdk/core/fal/tiger/fal_tiger_qos.c ****     HAL_FIELD_GET(QOS_PORT_CTRLNm, QOS_PORT_CTRLN_PORT_INTPRIf, &entry, &pri);
 1214              		.loc 1 140 5 is_stmt 0 discriminator 2 view .LVU309
 1215              	.LBE24:
 140:../switch_sdk/core/fal/tiger/fal_tiger_qos.c ****     HAL_FIELD_GET(QOS_PORT_CTRLNm, QOS_PORT_CTRLN_PORT_INTPRIf, &entry, &pri);
 1216              		.loc 1 140 5 is_stmt 1 discriminator 2 view .LVU310
 141:../switch_sdk/core/fal/tiger/fal_tiger_qos.c ****     *pEnable = enable?YT_ENABLE:YT_DISABLE;
 1217              		.loc 1 141 5 discriminator 2 view .LVU311
 1218              	.LBB25:
 141:../switch_sdk/core/fal/tiger/fal_tiger_qos.c ****     *pEnable = enable?YT_ENABLE:YT_DISABLE;
 1219              		.loc 1 141 5 discriminator 2 view .LVU312
 141:../switch_sdk/core/fal/tiger/fal_tiger_qos.c ****     *pEnable = enable?YT_ENABLE:YT_DISABLE;
 1220              		.loc 1 141 5 discriminator 2 view .LVU313
 1221 007a 02AB     		add	r3, sp, #8
 1222 007c 03AA     		add	r2, sp, #12
 1223 007e 0321     		movs	r1, #3
 1224 0080 7020     		movs	r0, #112
 1225 0082 FFF7FEFF 		bl	hal_tbl_reg_field_get
 1226              	.LVL117:
 141:../switch_sdk/core/fal/tiger/fal_tiger_qos.c ****     *pEnable = enable?YT_ENABLE:YT_DISABLE;
 1227              		.loc 1 141 5 discriminator 2 view .LVU314
 141:../switch_sdk/core/fal/tiger/fal_tiger_qos.c ****     *pEnable = enable?YT_ENABLE:YT_DISABLE;
 1228              		.loc 1 141 5 is_stmt 0 discriminator 2 view .LVU315
 1229              	.LBE25:
 141:../switch_sdk/core/fal/tiger/fal_tiger_qos.c ****     *pEnable = enable?YT_ENABLE:YT_DISABLE;
 1230              		.loc 1 141 5 is_stmt 1 discriminator 2 view .LVU316
 142:../switch_sdk/core/fal/tiger/fal_tiger_qos.c ****     *pPri = pri;
 1231              		.loc 1 142 5 discriminator 2 view .LVU317
 142:../switch_sdk/core/fal/tiger/fal_tiger_qos.c ****     *pPri = pri;
 1232              		.loc 1 142 32 is_stmt 0 discriminator 2 view .LVU318
 1233 0086 029B     		ldr	r3, [sp, #8]
 1234 0088 003B     		subs	r3, r3, #0
 1235 008a 18BF     		it	ne
 1236 008c 0123     		movne	r3, #1
 142:../switch_sdk/core/fal/tiger/fal_tiger_qos.c ****     *pPri = pri;
 1237              		.loc 1 142 14 discriminator 2 view .LVU319
 1238 008e 3370     		strb	r3, [r6]
 1239              	.LVL118:
 143:../switch_sdk/core/fal/tiger/fal_tiger_qos.c **** 
 1240              		.loc 1 143 5 is_stmt 1 discriminator 2 view .LVU320
 143:../switch_sdk/core/fal/tiger/fal_tiger_qos.c **** 
 1241              		.loc 1 143 11 is_stmt 0 discriminator 2 view .LVU321
 1242 0090 2C70     		strb	r4, [r5]
 145:../switch_sdk/core/fal/tiger/fal_tiger_qos.c **** }
 1243              		.loc 1 145 5 is_stmt 1 discriminator 2 view .LVU322
 145:../switch_sdk/core/fal/tiger/fal_tiger_qos.c **** }
 1244              		.loc 1 145 12 is_stmt 0 discriminator 2 view .LVU323
 1245 0092 0020     		movs	r0, #0
 1246 0094 D6E7     		b	.L75
 1247              	.L85:
 1248 0096 00BF     		.align	2
 1249              	.L84:
 1250 0098 00000000 		.word	gcal_inited
 1251 009c 00000000 		.word	gpSwitchUnit
 1252 00a0 00000000 		.word	yt_debug_level
 1253 00a4 00000000 		.word	__FUNCTION__.42
 1254 00a8 00000000 		.word	.LC4
 1255 00ac 00000000 		.word	_yt_errmsg
 1256 00b0 00000000 		.word	_yt_prompt_msg
 1257 00b4 58000000 		.word	.LC2
 1258              		.cfi_endproc
 1259              	.LFE6:
 1261              		.section	.rodata.fal_tiger_qos_intPri_cpri_map_set.str1.4,"aMS",%progbits,1
 1262              		.align	2
 1263              	.LC6:
 1264 0000 68616C5F 		.ascii	"hal_table_reg_read(unit,112,macid,sizeof(qos_port_c"
 1264      7461626C 
 1264      655F7265 
 1264      675F7265 
 1264      61642875 
 1265 0033 74726C6E 		.ascii	"trln_t),&port_entry)\000"
 1265      5F74292C 
 1265      26706F72 
 1265      745F656E 
 1265      74727929 
 1266              		.align	2
 1267              	.LC7:
 1268 0048 68616C5F 		.ascii	"hal_table_reg_write(unit,112,macid,sizeof(qos_port_"
 1268      7461626C 
 1268      655F7265 
 1268      675F7772 
 1268      69746528 
 1269 007b 6374726C 		.ascii	"ctrln_t),&port_entry)\000"
 1269      6E5F7429 
 1269      2C26706F 
 1269      72745F65 
 1269      6E747279 
 1270 0091 000000   		.align	2
 1271              	.LC8:
 1272 0094 68616C5F 		.ascii	"hal_table_reg_read(unit,111,index,sizeof(pri_to_int"
 1272      7461626C 
 1272      655F7265 
 1272      675F7265 
 1272      61642875 
 1273 00c7 5F707269 		.ascii	"_prio_map_t),&pri_entry)\000"
 1273      6F5F6D61 
 1273      705F7429 
 1273      2C267072 
 1273      695F656E 
 1274              		.align	2
 1275              	.LC9:
 1276 00e0 68616C5F 		.ascii	"hal_table_reg_write(unit,111,index,sizeof(pri_to_in"
 1276      7461626C 
 1276      655F7265 
 1276      675F7772 
 1276      69746528 
 1277 0113 745F7072 		.ascii	"t_prio_map_t),&pri_entry)\000"
 1277      696F5F6D 
 1277      61705F74 
 1277      292C2670 
 1277      72695F65 
 1278              		.section	.text.fal_tiger_qos_intPri_cpri_map_set,"ax",%progbits
 1279              		.align	1
 1280              		.global	fal_tiger_qos_intPri_cpri_map_set
 1281              		.syntax unified
 1282              		.thumb
 1283              		.thumb_func
 1285              	fal_tiger_qos_intPri_cpri_map_set:
 1286              	.LVL119:
 1287              	.LFB7:
 147:../switch_sdk/core/fal/tiger/fal_tiger_qos.c **** 
 148:../switch_sdk/core/fal/tiger/fal_tiger_qos.c **** yt_ret_t fal_tiger_qos_intPri_cpri_map_set(yt_unit_t unit, yt_port_t port, yt_qos_pmap_tci_t cpri, 
 149:../switch_sdk/core/fal/tiger/fal_tiger_qos.c **** {
 1288              		.loc 1 149 1 is_stmt 1 view -0
 1289              		.cfi_startproc
 1290              		@ args = 0, pretend = 0, frame = 16
 1291              		@ frame_needed = 0, uses_anonymous_args = 0
 1292              		.loc 1 149 1 is_stmt 0 view .LVU325
 1293 0000 2DE9F043 		push	{r4, r5, r6, r7, r8, r9, lr}
 1294              		.cfi_def_cfa_offset 28
 1295              		.cfi_offset 4, -28
 1296              		.cfi_offset 5, -24
 1297              		.cfi_offset 6, -20
 1298              		.cfi_offset 7, -16
 1299              		.cfi_offset 8, -12
 1300              		.cfi_offset 9, -8
 1301              		.cfi_offset 14, -4
 1302 0004 87B0     		sub	sp, sp, #28
 1303              		.cfi_def_cfa_offset 56
 1304 0006 0546     		mov	r5, r0
 1305 0008 ADF80C20 		strh	r2, [sp, #12]	@ movhi
 1306 000c 1E46     		mov	r6, r3
 150:../switch_sdk/core/fal/tiger/fal_tiger_qos.c ****     qos_port_ctrln_t port_entry;
 1307              		.loc 1 150 5 is_stmt 1 view .LVU326
 151:../switch_sdk/core/fal/tiger/fal_tiger_qos.c ****     pri_to_int_prio_map_t pri_entry;
 1308              		.loc 1 151 5 view .LVU327
 152:../switch_sdk/core/fal/tiger/fal_tiger_qos.c ****     cmm_err_t ret = CMM_ERR_OK;
 1309              		.loc 1 152 5 view .LVU328
 1310              	.LVL120:
 153:../switch_sdk/core/fal/tiger/fal_tiger_qos.c ****     uint32_t index;
 1311              		.loc 1 153 5 view .LVU329
 154:../switch_sdk/core/fal/tiger/fal_tiger_qos.c ****     yt_macid_t macid = CAL_YTP_TO_MAC(unit,port);
 1312              		.loc 1 154 5 view .LVU330
 1313              		.loc 1 154 24 is_stmt 0 view .LVU331
 1314 000e 734B     		ldr	r3, .L117
 1315              	.LVL121:
 1316              		.loc 1 154 24 view .LVU332
 1317 0010 1B78     		ldrb	r3, [r3]	@ zero_extendqisi2
 1318 0012 53B1     		cbz	r3, .L102
 1319              		.loc 1 154 24 discriminator 1 view .LVU333
 1320 0014 724B     		ldr	r3, .L117+4
 1321 0016 53F82030 		ldr	r3, [r3, r0, lsl #2]
 1322 001a 1A7D     		ldrb	r2, [r3, #20]	@ zero_extendqisi2
 1323 001c 8A42     		cmp	r2, r1
 1324 001e 28D9     		bls	.L103
 1325              		.loc 1 154 24 discriminator 3 view .LVU334
 1326 0020 0631     		adds	r1, r1, #6
 1327              	.LVL122:
 1328              		.loc 1 154 24 discriminator 3 view .LVU335
 1329 0022 53F82130 		ldr	r3, [r3, r1, lsl #2]
 1330 0026 1F78     		ldrb	r7, [r3]	@ zero_extendqisi2
 1331 0028 00E0     		b	.L87
 1332              	.LVL123:
 1333              	.L102:
 1334              		.loc 1 154 24 view .LVU336
 1335 002a FF27     		movs	r7, #255
 1336              	.LVL124:
 1337              	.L87:
 155:../switch_sdk/core/fal/tiger/fal_tiger_qos.c **** 
 156:../switch_sdk/core/fal/tiger/fal_tiger_qos.c ****     CMM_PARAM_CHK(CAL_MAX_VALUE_INT_PRI(unit) < pri, CMM_ERR_INPUT);
 1338              		.loc 1 156 5 is_stmt 1 discriminator 6 view .LVU337
 1339              		.loc 1 156 5 discriminator 6 view .LVU338
 1340 002c 6C4B     		ldr	r3, .L117+4
 1341 002e 53F82530 		ldr	r3, [r3, r5, lsl #2]
 1342 0032 D3F8AC30 		ldr	r3, [r3, #172]
 1343 0036 DB78     		ldrb	r3, [r3, #3]	@ zero_extendqisi2
 1344 0038 B342     		cmp	r3, r6
 1345 003a 1CD3     		bcc	.L106
 1346              		.loc 1 156 5 discriminator 2 view .LVU339
 157:../switch_sdk/core/fal/tiger/fal_tiger_qos.c ****     CMM_PARAM_CHK(TRUE < cpri.dei, CMM_ERR_INPUT);
 1347              		.loc 1 157 5 discriminator 2 view .LVU340
 1348              		.loc 1 157 5 discriminator 2 view .LVU341
 1349 003c 9DF80C80 		ldrb	r8, [sp, #12]	@ zero_extendqisi2
 1350 0040 B8F1010F 		cmp	r8, #1
 1351 0044 25D8     		bhi	.L107
 1352              		.loc 1 157 5 discriminator 2 view .LVU342
 158:../switch_sdk/core/fal/tiger/fal_tiger_qos.c ****     CMM_PARAM_CHK(CAL_MAX_VALUE_INT_PRI(unit) < cpri.prio, CMM_ERR_INPUT);
 1353              		.loc 1 158 5 discriminator 2 view .LVU343
 1354              		.loc 1 158 5 discriminator 2 view .LVU344
 1355 0046 9DF80D90 		ldrb	r9, [sp, #13]	@ zero_extendqisi2
 1356 004a 4B45     		cmp	r3, r9
 1357 004c 31D3     		bcc	.L108
 1358              		.loc 1 158 5 discriminator 2 view .LVU345
 159:../switch_sdk/core/fal/tiger/fal_tiger_qos.c ****     CMM_ERR_CHK(HAL_TBL_REG_READ(unit, QOS_PORT_CTRLNm, macid, sizeof(qos_port_ctrln_t), &port_entr
 1359              		.loc 1 159 5 discriminator 2 view .LVU346
 1360              		.loc 1 159 5 discriminator 2 view .LVU347
 1361 004e 05AB     		add	r3, sp, #20
 1362 0050 0093     		str	r3, [sp]
 1363 0052 0423     		movs	r3, #4
 1364 0054 3A46     		mov	r2, r7
 1365 0056 7021     		movs	r1, #112
 1366 0058 2846     		mov	r0, r5
 1367              	.LVL125:
 1368              		.loc 1 159 5 is_stmt 0 discriminator 2 view .LVU348
 1369 005a FFF7FEFF 		bl	hal_table_reg_read
 1370              	.LVL126:
 1371 005e 0446     		mov	r4, r0
 1372              	.LVL127:
 1373              		.loc 1 159 5 discriminator 2 view .LVU349
 1374 0060 10F0FF03 		ands	r3, r0, #255
 1375 0064 43D0     		beq	.L95
 1376              		.loc 1 159 5 is_stmt 1 discriminator 1 view .LVU350
 1377              		.loc 1 159 5 discriminator 1 view .LVU351
 1378 0066 5F4A     		ldr	r2, .L117+8
 1379 0068 1278     		ldrb	r2, [r2]	@ zero_extendqisi2
 1380 006a 012A     		cmp	r2, #1
 1381 006c 2FD8     		bhi	.L109
 1382              	.LVL128:
 1383              	.L96:
 1384              		.loc 1 159 5 discriminator 5 view .LVU352
 1385              		.loc 1 159 5 discriminator 5 view .LVU353
 1386              		.loc 1 159 5 discriminator 5 view .LVU354
 1387 006e E0B2     		uxtb	r0, r4
 1388 0070 14E0     		b	.L86
 1389              	.LVL129:
 1390              	.L103:
 154:../switch_sdk/core/fal/tiger/fal_tiger_qos.c **** 
 1391              		.loc 1 154 24 is_stmt 0 view .LVU355
 1392 0072 FF27     		movs	r7, #255
 1393 0074 DAE7     		b	.L87
 1394              	.LVL130:
 1395              	.L106:
 156:../switch_sdk/core/fal/tiger/fal_tiger_qos.c ****     CMM_PARAM_CHK(TRUE < cpri.dei, CMM_ERR_INPUT);
 1396              		.loc 1 156 5 is_stmt 1 discriminator 1 view .LVU356
 156:../switch_sdk/core/fal/tiger/fal_tiger_qos.c ****     CMM_PARAM_CHK(TRUE < cpri.dei, CMM_ERR_INPUT);
 1397              		.loc 1 156 5 discriminator 1 view .LVU357
 1398 0076 5B4B     		ldr	r3, .L117+8
 1399 0078 1B78     		ldrb	r3, [r3]	@ zero_extendqisi2
 1400 007a 012B     		cmp	r3, #1
 1401 007c 01D8     		bhi	.L110
 1402              	.LVL131:
 1403              	.L89:
 156:../switch_sdk/core/fal/tiger/fal_tiger_qos.c ****     CMM_PARAM_CHK(TRUE < cpri.dei, CMM_ERR_INPUT);
 1404              		.loc 1 156 5 discriminator 5 view .LVU358
 156:../switch_sdk/core/fal/tiger/fal_tiger_qos.c ****     CMM_PARAM_CHK(TRUE < cpri.dei, CMM_ERR_INPUT);
 1405              		.loc 1 156 5 discriminator 5 view .LVU359
 156:../switch_sdk/core/fal/tiger/fal_tiger_qos.c ****     CMM_PARAM_CHK(TRUE < cpri.dei, CMM_ERR_INPUT);
 1406              		.loc 1 156 5 discriminator 5 view .LVU360
 1407 007e 0520     		movs	r0, #5
 1408 0080 0CE0     		b	.L86
 1409              	.LVL132:
 1410              	.L110:
 156:../switch_sdk/core/fal/tiger/fal_tiger_qos.c ****     CMM_PARAM_CHK(TRUE < cpri.dei, CMM_ERR_INPUT);
 1411              		.loc 1 156 5 discriminator 3 view .LVU361
 1412              	.LBB26:
 156:../switch_sdk/core/fal/tiger/fal_tiger_qos.c ****     CMM_PARAM_CHK(TRUE < cpri.dei, CMM_ERR_INPUT);
 1413              		.loc 1 156 5 discriminator 3 view .LVU362
 1414 0082 594B     		ldr	r3, .L117+12
 1415 0084 5A69     		ldr	r2, [r3, #20]
 1416 0086 594B     		ldr	r3, .L117+16
 1417 0088 9968     		ldr	r1, [r3, #8]
 1418 008a 5948     		ldr	r0, .L117+20
 1419              	.LVL133:
 156:../switch_sdk/core/fal/tiger/fal_tiger_qos.c ****     CMM_PARAM_CHK(TRUE < cpri.dei, CMM_ERR_INPUT);
 1420              		.loc 1 156 5 is_stmt 0 discriminator 3 view .LVU363
 1421 008c FFF7FEFF 		bl	osal_printf
 1422              	.LVL134:
 1423 0090 F5E7     		b	.L89
 1424              	.LVL135:
 1425              	.L107:
 156:../switch_sdk/core/fal/tiger/fal_tiger_qos.c ****     CMM_PARAM_CHK(TRUE < cpri.dei, CMM_ERR_INPUT);
 1426              		.loc 1 156 5 discriminator 3 view .LVU364
 1427              	.LBE26:
 157:../switch_sdk/core/fal/tiger/fal_tiger_qos.c ****     CMM_PARAM_CHK(CAL_MAX_VALUE_INT_PRI(unit) < cpri.prio, CMM_ERR_INPUT);
 1428              		.loc 1 157 5 is_stmt 1 discriminator 1 view .LVU365
 157:../switch_sdk/core/fal/tiger/fal_tiger_qos.c ****     CMM_PARAM_CHK(CAL_MAX_VALUE_INT_PRI(unit) < cpri.prio, CMM_ERR_INPUT);
 1429              		.loc 1 157 5 discriminator 1 view .LVU366
 1430 0092 544B     		ldr	r3, .L117+8
 1431 0094 1B78     		ldrb	r3, [r3]	@ zero_extendqisi2
 1432 0096 012B     		cmp	r3, #1
 1433 0098 03D8     		bhi	.L111
 1434              	.LVL136:
 1435              	.L92:
 157:../switch_sdk/core/fal/tiger/fal_tiger_qos.c ****     CMM_PARAM_CHK(CAL_MAX_VALUE_INT_PRI(unit) < cpri.prio, CMM_ERR_INPUT);
 1436              		.loc 1 157 5 discriminator 5 view .LVU367
 157:../switch_sdk/core/fal/tiger/fal_tiger_qos.c ****     CMM_PARAM_CHK(CAL_MAX_VALUE_INT_PRI(unit) < cpri.prio, CMM_ERR_INPUT);
 1437              		.loc 1 157 5 discriminator 5 view .LVU368
 157:../switch_sdk/core/fal/tiger/fal_tiger_qos.c ****     CMM_PARAM_CHK(CAL_MAX_VALUE_INT_PRI(unit) < cpri.prio, CMM_ERR_INPUT);
 1438              		.loc 1 157 5 discriminator 5 view .LVU369
 1439 009a 0520     		movs	r0, #5
 1440              	.LVL137:
 1441              	.L86:
 160:../switch_sdk/core/fal/tiger/fal_tiger_qos.c ****     HAL_FIELD_SET(QOS_PORT_CTRLNm, QOS_PORT_CTRLN_CPRI_MAP_SELf, &port_entry, CPRI_MAP_INDEX);
 161:../switch_sdk/core/fal/tiger/fal_tiger_qos.c ****     CMM_ERR_CHK(HAL_TBL_REG_WRITE(unit, QOS_PORT_CTRLNm, macid, sizeof(qos_port_ctrln_t), &port_ent
 162:../switch_sdk/core/fal/tiger/fal_tiger_qos.c **** 
 163:../switch_sdk/core/fal/tiger/fal_tiger_qos.c ****     index = (CPRI_MAP_INDEX << 4) + (cpri.dei<<3) + cpri.prio;
 164:../switch_sdk/core/fal/tiger/fal_tiger_qos.c ****     CMM_ERR_CHK(HAL_TBL_REG_READ(unit, PRI_TO_INT_PRIO_MAPm, index,sizeof(pri_to_int_prio_map_t), &
 165:../switch_sdk/core/fal/tiger/fal_tiger_qos.c ****     HAL_FIELD_SET(PRI_TO_INT_PRIO_MAPm, PRI_TO_INT_PRIO_MAP_INT_PRIOf, &pri_entry, pri);
 166:../switch_sdk/core/fal/tiger/fal_tiger_qos.c ****     CMM_ERR_CHK(HAL_TBL_REG_WRITE(unit, PRI_TO_INT_PRIO_MAPm, index,sizeof(pri_to_int_prio_map_t), 
 167:../switch_sdk/core/fal/tiger/fal_tiger_qos.c **** 
 168:../switch_sdk/core/fal/tiger/fal_tiger_qos.c ****     return CMM_ERR_OK;
 169:../switch_sdk/core/fal/tiger/fal_tiger_qos.c **** }
 1442              		.loc 1 169 1 is_stmt 0 view .LVU370
 1443 009c 07B0     		add	sp, sp, #28
 1444              		.cfi_remember_state
 1445              		.cfi_def_cfa_offset 28
 1446              		@ sp needed
 1447 009e BDE8F083 		pop	{r4, r5, r6, r7, r8, r9, pc}
 1448              	.LVL138:
 1449              	.L111:
 1450              		.cfi_restore_state
 157:../switch_sdk/core/fal/tiger/fal_tiger_qos.c ****     CMM_PARAM_CHK(CAL_MAX_VALUE_INT_PRI(unit) < cpri.prio, CMM_ERR_INPUT);
 1451              		.loc 1 157 5 is_stmt 1 discriminator 3 view .LVU371
 1452              	.LBB27:
 157:../switch_sdk/core/fal/tiger/fal_tiger_qos.c ****     CMM_PARAM_CHK(CAL_MAX_VALUE_INT_PRI(unit) < cpri.prio, CMM_ERR_INPUT);
 1453              		.loc 1 157 5 discriminator 3 view .LVU372
 1454 00a2 514B     		ldr	r3, .L117+12
 1455 00a4 5A69     		ldr	r2, [r3, #20]
 1456 00a6 514B     		ldr	r3, .L117+16
 1457 00a8 9968     		ldr	r1, [r3, #8]
 1458 00aa 5148     		ldr	r0, .L117+20
 1459              	.LVL139:
 157:../switch_sdk/core/fal/tiger/fal_tiger_qos.c ****     CMM_PARAM_CHK(CAL_MAX_VALUE_INT_PRI(unit) < cpri.prio, CMM_ERR_INPUT);
 1460              		.loc 1 157 5 is_stmt 0 discriminator 3 view .LVU373
 1461 00ac FFF7FEFF 		bl	osal_printf
 1462              	.LVL140:
 1463 00b0 F3E7     		b	.L92
 1464              	.LVL141:
 1465              	.L108:
 157:../switch_sdk/core/fal/tiger/fal_tiger_qos.c ****     CMM_PARAM_CHK(CAL_MAX_VALUE_INT_PRI(unit) < cpri.prio, CMM_ERR_INPUT);
 1466              		.loc 1 157 5 discriminator 3 view .LVU374
 1467              	.LBE27:
 158:../switch_sdk/core/fal/tiger/fal_tiger_qos.c ****     CMM_ERR_CHK(HAL_TBL_REG_READ(unit, QOS_PORT_CTRLNm, macid, sizeof(qos_port_ctrln_t), &port_entr
 1468              		.loc 1 158 5 is_stmt 1 discriminator 1 view .LVU375
 158:../switch_sdk/core/fal/tiger/fal_tiger_qos.c ****     CMM_ERR_CHK(HAL_TBL_REG_READ(unit, QOS_PORT_CTRLNm, macid, sizeof(qos_port_ctrln_t), &port_entr
 1469              		.loc 1 158 5 discriminator 1 view .LVU376
 1470 00b2 4C4B     		ldr	r3, .L117+8
 1471 00b4 1B78     		ldrb	r3, [r3]	@ zero_extendqisi2
 1472 00b6 012B     		cmp	r3, #1
 1473 00b8 01D8     		bhi	.L112
 1474              	.LVL142:
 1475              	.L94:
 158:../switch_sdk/core/fal/tiger/fal_tiger_qos.c ****     CMM_ERR_CHK(HAL_TBL_REG_READ(unit, QOS_PORT_CTRLNm, macid, sizeof(qos_port_ctrln_t), &port_entr
 1476              		.loc 1 158 5 discriminator 5 view .LVU377
 158:../switch_sdk/core/fal/tiger/fal_tiger_qos.c ****     CMM_ERR_CHK(HAL_TBL_REG_READ(unit, QOS_PORT_CTRLNm, macid, sizeof(qos_port_ctrln_t), &port_entr
 1477              		.loc 1 158 5 discriminator 5 view .LVU378
 158:../switch_sdk/core/fal/tiger/fal_tiger_qos.c ****     CMM_ERR_CHK(HAL_TBL_REG_READ(unit, QOS_PORT_CTRLNm, macid, sizeof(qos_port_ctrln_t), &port_entr
 1478              		.loc 1 158 5 discriminator 5 view .LVU379
 1479 00ba 0520     		movs	r0, #5
 1480 00bc EEE7     		b	.L86
 1481              	.LVL143:
 1482              	.L112:
 158:../switch_sdk/core/fal/tiger/fal_tiger_qos.c ****     CMM_ERR_CHK(HAL_TBL_REG_READ(unit, QOS_PORT_CTRLNm, macid, sizeof(qos_port_ctrln_t), &port_entr
 1483              		.loc 1 158 5 discriminator 3 view .LVU380
 1484              	.LBB28:
 158:../switch_sdk/core/fal/tiger/fal_tiger_qos.c ****     CMM_ERR_CHK(HAL_TBL_REG_READ(unit, QOS_PORT_CTRLNm, macid, sizeof(qos_port_ctrln_t), &port_entr
 1485              		.loc 1 158 5 discriminator 3 view .LVU381
 1486 00be 4A4B     		ldr	r3, .L117+12
 1487 00c0 5A69     		ldr	r2, [r3, #20]
 1488 00c2 4A4B     		ldr	r3, .L117+16
 1489 00c4 9968     		ldr	r1, [r3, #8]
 1490 00c6 4A48     		ldr	r0, .L117+20
 1491              	.LVL144:
 158:../switch_sdk/core/fal/tiger/fal_tiger_qos.c ****     CMM_ERR_CHK(HAL_TBL_REG_READ(unit, QOS_PORT_CTRLNm, macid, sizeof(qos_port_ctrln_t), &port_entr
 1492              		.loc 1 158 5 is_stmt 0 discriminator 3 view .LVU382
 1493 00c8 FFF7FEFF 		bl	osal_printf
 1494              	.LVL145:
 1495 00cc F5E7     		b	.L94
 1496              	.LVL146:
 1497              	.L109:
 158:../switch_sdk/core/fal/tiger/fal_tiger_qos.c ****     CMM_ERR_CHK(HAL_TBL_REG_READ(unit, QOS_PORT_CTRLNm, macid, sizeof(qos_port_ctrln_t), &port_entr
 1498              		.loc 1 158 5 discriminator 3 view .LVU383
 1499              	.LBE28:
 159:../switch_sdk/core/fal/tiger/fal_tiger_qos.c ****     HAL_FIELD_SET(QOS_PORT_CTRLNm, QOS_PORT_CTRLN_CPRI_MAP_SELf, &port_entry, CPRI_MAP_INDEX);
 1500              		.loc 1 159 5 is_stmt 1 discriminator 3 view .LVU384
 1501              	.LBB29:
 159:../switch_sdk/core/fal/tiger/fal_tiger_qos.c ****     HAL_FIELD_SET(QOS_PORT_CTRLNm, QOS_PORT_CTRLN_CPRI_MAP_SELf, &port_entry, CPRI_MAP_INDEX);
 1502              		.loc 1 159 5 discriminator 3 view .LVU385
 1503 00ce 142B     		cmp	r3, #20
 1504 00d0 28BF     		it	cs
 1505 00d2 1423     		movcs	r3, #20
 1506 00d4 1A46     		mov	r2, r3
 1507 00d6 474B     		ldr	r3, .L117+24
 1508 00d8 0093     		str	r3, [sp]
 1509 00da 474B     		ldr	r3, .L117+28
 1510 00dc 4249     		ldr	r1, .L117+12
 1511 00de 51F82220 		ldr	r2, [r1, r2, lsl #2]
 1512 00e2 4249     		ldr	r1, .L117+16
 1513 00e4 8968     		ldr	r1, [r1, #8]
 1514 00e6 4548     		ldr	r0, .L117+32
 1515              	.LVL147:
 159:../switch_sdk/core/fal/tiger/fal_tiger_qos.c ****     HAL_FIELD_SET(QOS_PORT_CTRLNm, QOS_PORT_CTRLN_CPRI_MAP_SELf, &port_entry, CPRI_MAP_INDEX);
 1516              		.loc 1 159 5 is_stmt 0 discriminator 3 view .LVU386
 1517 00e8 FFF7FEFF 		bl	osal_printf
 1518              	.LVL148:
 1519 00ec BFE7     		b	.L96
 1520              	.LVL149:
 1521              	.L95:
 159:../switch_sdk/core/fal/tiger/fal_tiger_qos.c ****     HAL_FIELD_SET(QOS_PORT_CTRLNm, QOS_PORT_CTRLN_CPRI_MAP_SELf, &port_entry, CPRI_MAP_INDEX);
 1522              		.loc 1 159 5 discriminator 3 view .LVU387
 1523              	.LBE29:
 159:../switch_sdk/core/fal/tiger/fal_tiger_qos.c ****     HAL_FIELD_SET(QOS_PORT_CTRLNm, QOS_PORT_CTRLN_CPRI_MAP_SELf, &port_entry, CPRI_MAP_INDEX);
 1524              		.loc 1 159 5 is_stmt 1 discriminator 2 view .LVU388
 160:../switch_sdk/core/fal/tiger/fal_tiger_qos.c ****     HAL_FIELD_SET(QOS_PORT_CTRLNm, QOS_PORT_CTRLN_CPRI_MAP_SELf, &port_entry, CPRI_MAP_INDEX);
 1525              		.loc 1 160 5 discriminator 2 view .LVU389
 1526 00ee 05AC     		add	r4, sp, #20
 1527 00f0 0023     		movs	r3, #0
 1528 00f2 2246     		mov	r2, r4
 1529 00f4 1946     		mov	r1, r3
 1530 00f6 7020     		movs	r0, #112
 1531              	.LVL150:
 160:../switch_sdk/core/fal/tiger/fal_tiger_qos.c ****     HAL_FIELD_SET(QOS_PORT_CTRLNm, QOS_PORT_CTRLN_CPRI_MAP_SELf, &port_entry, CPRI_MAP_INDEX);
 1532              		.loc 1 160 5 is_stmt 0 discriminator 2 view .LVU390
 1533 00f8 FFF7FEFF 		bl	hal_tbl_reg_field_set
 1534              	.LVL151:
 161:../switch_sdk/core/fal/tiger/fal_tiger_qos.c **** 
 1535              		.loc 1 161 5 is_stmt 1 discriminator 2 view .LVU391
 161:../switch_sdk/core/fal/tiger/fal_tiger_qos.c **** 
 1536              		.loc 1 161 5 discriminator 2 view .LVU392
 1537 00fc 0094     		str	r4, [sp]
 1538 00fe 0423     		movs	r3, #4
 1539 0100 3A46     		mov	r2, r7
 1540 0102 7021     		movs	r1, #112
 1541 0104 2846     		mov	r0, r5
 1542 0106 FFF7FEFF 		bl	hal_table_reg_write
 1543              	.LVL152:
 1544 010a 0446     		mov	r4, r0
 1545              	.LVL153:
 161:../switch_sdk/core/fal/tiger/fal_tiger_qos.c **** 
 1546              		.loc 1 161 5 is_stmt 0 discriminator 2 view .LVU393
 1547 010c 10F0FF03 		ands	r3, r0, #255
 1548 0110 15D0     		beq	.L97
 161:../switch_sdk/core/fal/tiger/fal_tiger_qos.c **** 
 1549              		.loc 1 161 5 is_stmt 1 discriminator 1 view .LVU394
 161:../switch_sdk/core/fal/tiger/fal_tiger_qos.c **** 
 1550              		.loc 1 161 5 discriminator 1 view .LVU395
 1551 0112 344A     		ldr	r2, .L117+8
 1552 0114 1278     		ldrb	r2, [r2]	@ zero_extendqisi2
 1553 0116 012A     		cmp	r2, #1
 1554 0118 01D8     		bhi	.L113
 1555              	.LVL154:
 1556              	.L98:
 161:../switch_sdk/core/fal/tiger/fal_tiger_qos.c **** 
 1557              		.loc 1 161 5 discriminator 5 view .LVU396
 161:../switch_sdk/core/fal/tiger/fal_tiger_qos.c **** 
 1558              		.loc 1 161 5 discriminator 5 view .LVU397
 161:../switch_sdk/core/fal/tiger/fal_tiger_qos.c **** 
 1559              		.loc 1 161 5 discriminator 5 view .LVU398
 1560 011a E0B2     		uxtb	r0, r4
 1561 011c BEE7     		b	.L86
 1562              	.LVL155:
 1563              	.L113:
 161:../switch_sdk/core/fal/tiger/fal_tiger_qos.c **** 
 1564              		.loc 1 161 5 discriminator 3 view .LVU399
 1565              	.LBB30:
 161:../switch_sdk/core/fal/tiger/fal_tiger_qos.c **** 
 1566              		.loc 1 161 5 discriminator 3 view .LVU400
 1567 011e 142B     		cmp	r3, #20
 1568 0120 28BF     		it	cs
 1569 0122 1423     		movcs	r3, #20
 1570 0124 1A46     		mov	r2, r3
 1571 0126 334B     		ldr	r3, .L117+24
 1572 0128 0093     		str	r3, [sp]
 1573 012a 354B     		ldr	r3, .L117+36
 1574 012c 2E49     		ldr	r1, .L117+12
 1575 012e 51F82220 		ldr	r2, [r1, r2, lsl #2]
 1576 0132 2E49     		ldr	r1, .L117+16
 1577 0134 8968     		ldr	r1, [r1, #8]
 1578 0136 3148     		ldr	r0, .L117+32
 1579              	.LVL156:
 161:../switch_sdk/core/fal/tiger/fal_tiger_qos.c **** 
 1580              		.loc 1 161 5 is_stmt 0 discriminator 3 view .LVU401
 1581 0138 FFF7FEFF 		bl	osal_printf
 1582              	.LVL157:
 1583 013c EDE7     		b	.L98
 1584              	.LVL158:
 1585              	.L97:
 161:../switch_sdk/core/fal/tiger/fal_tiger_qos.c **** 
 1586              		.loc 1 161 5 discriminator 3 view .LVU402
 1587              	.LBE30:
 161:../switch_sdk/core/fal/tiger/fal_tiger_qos.c **** 
 1588              		.loc 1 161 5 is_stmt 1 discriminator 2 view .LVU403
 163:../switch_sdk/core/fal/tiger/fal_tiger_qos.c ****     CMM_ERR_CHK(HAL_TBL_REG_READ(unit, PRI_TO_INT_PRIO_MAPm, index,sizeof(pri_to_int_prio_map_t), &
 1589              		.loc 1 163 5 discriminator 2 view .LVU404
 163:../switch_sdk/core/fal/tiger/fal_tiger_qos.c ****     CMM_ERR_CHK(HAL_TBL_REG_READ(unit, PRI_TO_INT_PRIO_MAPm, index,sizeof(pri_to_int_prio_map_t), &
 1590              		.loc 1 163 51 is_stmt 0 discriminator 2 view .LVU405
 1591 013e 09EBC809 		add	r9, r9, r8, lsl #3
 1592              	.LVL159:
 164:../switch_sdk/core/fal/tiger/fal_tiger_qos.c ****     HAL_FIELD_SET(PRI_TO_INT_PRIO_MAPm, PRI_TO_INT_PRIO_MAP_INT_PRIOf, &pri_entry, pri);
 1593              		.loc 1 164 5 is_stmt 1 discriminator 2 view .LVU406
 164:../switch_sdk/core/fal/tiger/fal_tiger_qos.c ****     HAL_FIELD_SET(PRI_TO_INT_PRIO_MAPm, PRI_TO_INT_PRIO_MAP_INT_PRIOf, &pri_entry, pri);
 1594              		.loc 1 164 5 discriminator 2 view .LVU407
 1595 0142 04AB     		add	r3, sp, #16
 1596 0144 0093     		str	r3, [sp]
 1597 0146 0423     		movs	r3, #4
 1598 0148 4A46     		mov	r2, r9
 1599 014a 6F21     		movs	r1, #111
 1600 014c 2846     		mov	r0, r5
 1601              	.LVL160:
 164:../switch_sdk/core/fal/tiger/fal_tiger_qos.c ****     HAL_FIELD_SET(PRI_TO_INT_PRIO_MAPm, PRI_TO_INT_PRIO_MAP_INT_PRIOf, &pri_entry, pri);
 1602              		.loc 1 164 5 is_stmt 0 discriminator 2 view .LVU408
 1603 014e FFF7FEFF 		bl	hal_table_reg_read
 1604              	.LVL161:
 1605 0152 0446     		mov	r4, r0
 1606              	.LVL162:
 164:../switch_sdk/core/fal/tiger/fal_tiger_qos.c ****     HAL_FIELD_SET(PRI_TO_INT_PRIO_MAPm, PRI_TO_INT_PRIO_MAP_INT_PRIOf, &pri_entry, pri);
 1607              		.loc 1 164 5 discriminator 2 view .LVU409
 1608 0154 10F0FF03 		ands	r3, r0, #255
 1609 0158 15D0     		beq	.L99
 164:../switch_sdk/core/fal/tiger/fal_tiger_qos.c ****     HAL_FIELD_SET(PRI_TO_INT_PRIO_MAPm, PRI_TO_INT_PRIO_MAP_INT_PRIOf, &pri_entry, pri);
 1610              		.loc 1 164 5 is_stmt 1 discriminator 1 view .LVU410
 164:../switch_sdk/core/fal/tiger/fal_tiger_qos.c ****     HAL_FIELD_SET(PRI_TO_INT_PRIO_MAPm, PRI_TO_INT_PRIO_MAP_INT_PRIOf, &pri_entry, pri);
 1611              		.loc 1 164 5 discriminator 1 view .LVU411
 1612 015a 224A     		ldr	r2, .L117+8
 1613 015c 1278     		ldrb	r2, [r2]	@ zero_extendqisi2
 1614 015e 012A     		cmp	r2, #1
 1615 0160 01D8     		bhi	.L114
 1616              	.LVL163:
 1617              	.L100:
 164:../switch_sdk/core/fal/tiger/fal_tiger_qos.c ****     HAL_FIELD_SET(PRI_TO_INT_PRIO_MAPm, PRI_TO_INT_PRIO_MAP_INT_PRIOf, &pri_entry, pri);
 1618              		.loc 1 164 5 discriminator 5 view .LVU412
 164:../switch_sdk/core/fal/tiger/fal_tiger_qos.c ****     HAL_FIELD_SET(PRI_TO_INT_PRIO_MAPm, PRI_TO_INT_PRIO_MAP_INT_PRIOf, &pri_entry, pri);
 1619              		.loc 1 164 5 discriminator 5 view .LVU413
 164:../switch_sdk/core/fal/tiger/fal_tiger_qos.c ****     HAL_FIELD_SET(PRI_TO_INT_PRIO_MAPm, PRI_TO_INT_PRIO_MAP_INT_PRIOf, &pri_entry, pri);
 1620              		.loc 1 164 5 discriminator 5 view .LVU414
 1621 0162 E0B2     		uxtb	r0, r4
 1622 0164 9AE7     		b	.L86
 1623              	.LVL164:
 1624              	.L114:
 164:../switch_sdk/core/fal/tiger/fal_tiger_qos.c ****     HAL_FIELD_SET(PRI_TO_INT_PRIO_MAPm, PRI_TO_INT_PRIO_MAP_INT_PRIOf, &pri_entry, pri);
 1625              		.loc 1 164 5 discriminator 3 view .LVU415
 1626              	.LBB31:
 164:../switch_sdk/core/fal/tiger/fal_tiger_qos.c ****     HAL_FIELD_SET(PRI_TO_INT_PRIO_MAPm, PRI_TO_INT_PRIO_MAP_INT_PRIOf, &pri_entry, pri);
 1627              		.loc 1 164 5 discriminator 3 view .LVU416
 1628 0166 142B     		cmp	r3, #20
 1629 0168 28BF     		it	cs
 1630 016a 1423     		movcs	r3, #20
 1631 016c 1A46     		mov	r2, r3
 1632 016e 214B     		ldr	r3, .L117+24
 1633 0170 0093     		str	r3, [sp]
 1634 0172 244B     		ldr	r3, .L117+40
 1635 0174 1C49     		ldr	r1, .L117+12
 1636 0176 51F82220 		ldr	r2, [r1, r2, lsl #2]
 1637 017a 1C49     		ldr	r1, .L117+16
 1638 017c 8968     		ldr	r1, [r1, #8]
 1639 017e 1F48     		ldr	r0, .L117+32
 1640              	.LVL165:
 164:../switch_sdk/core/fal/tiger/fal_tiger_qos.c ****     HAL_FIELD_SET(PRI_TO_INT_PRIO_MAPm, PRI_TO_INT_PRIO_MAP_INT_PRIOf, &pri_entry, pri);
 1641              		.loc 1 164 5 is_stmt 0 discriminator 3 view .LVU417
 1642 0180 FFF7FEFF 		bl	osal_printf
 1643              	.LVL166:
 1644 0184 EDE7     		b	.L100
 1645              	.LVL167:
 1646              	.L99:
 164:../switch_sdk/core/fal/tiger/fal_tiger_qos.c ****     HAL_FIELD_SET(PRI_TO_INT_PRIO_MAPm, PRI_TO_INT_PRIO_MAP_INT_PRIOf, &pri_entry, pri);
 1647              		.loc 1 164 5 discriminator 3 view .LVU418
 1648              	.LBE31:
 164:../switch_sdk/core/fal/tiger/fal_tiger_qos.c ****     HAL_FIELD_SET(PRI_TO_INT_PRIO_MAPm, PRI_TO_INT_PRIO_MAP_INT_PRIOf, &pri_entry, pri);
 1649              		.loc 1 164 5 is_stmt 1 discriminator 2 view .LVU419
 165:../switch_sdk/core/fal/tiger/fal_tiger_qos.c ****     CMM_ERR_CHK(HAL_TBL_REG_WRITE(unit, PRI_TO_INT_PRIO_MAPm, index,sizeof(pri_to_int_prio_map_t), 
 1650              		.loc 1 165 5 discriminator 2 view .LVU420
 1651 0186 04AC     		add	r4, sp, #16
 1652 0188 3346     		mov	r3, r6
 1653 018a 2246     		mov	r2, r4
 1654 018c 0021     		movs	r1, #0
 1655 018e 6F20     		movs	r0, #111
 1656              	.LVL168:
 165:../switch_sdk/core/fal/tiger/fal_tiger_qos.c ****     CMM_ERR_CHK(HAL_TBL_REG_WRITE(unit, PRI_TO_INT_PRIO_MAPm, index,sizeof(pri_to_int_prio_map_t), 
 1657              		.loc 1 165 5 is_stmt 0 discriminator 2 view .LVU421
 1658 0190 FFF7FEFF 		bl	hal_tbl_reg_field_set
 1659              	.LVL169:
 166:../switch_sdk/core/fal/tiger/fal_tiger_qos.c **** 
 1660              		.loc 1 166 5 is_stmt 1 discriminator 2 view .LVU422
 166:../switch_sdk/core/fal/tiger/fal_tiger_qos.c **** 
 1661              		.loc 1 166 5 discriminator 2 view .LVU423
 1662 0194 0094     		str	r4, [sp]
 1663 0196 0423     		movs	r3, #4
 1664 0198 4A46     		mov	r2, r9
 1665 019a 6F21     		movs	r1, #111
 1666 019c 2846     		mov	r0, r5
 1667 019e FFF7FEFF 		bl	hal_table_reg_write
 1668              	.LVL170:
 1669 01a2 0446     		mov	r4, r0
 1670              	.LVL171:
 166:../switch_sdk/core/fal/tiger/fal_tiger_qos.c **** 
 1671              		.loc 1 166 5 is_stmt 0 discriminator 2 view .LVU424
 1672 01a4 10F0FF03 		ands	r3, r0, #255
 1673 01a8 01D1     		bne	.L115
 168:../switch_sdk/core/fal/tiger/fal_tiger_qos.c **** }
 1674              		.loc 1 168 12 view .LVU425
 1675 01aa 0020     		movs	r0, #0
 1676              	.LVL172:
 168:../switch_sdk/core/fal/tiger/fal_tiger_qos.c **** }
 1677              		.loc 1 168 12 view .LVU426
 1678 01ac 76E7     		b	.L86
 1679              	.LVL173:
 1680              	.L115:
 166:../switch_sdk/core/fal/tiger/fal_tiger_qos.c **** 
 1681              		.loc 1 166 5 is_stmt 1 discriminator 1 view .LVU427
 166:../switch_sdk/core/fal/tiger/fal_tiger_qos.c **** 
 1682              		.loc 1 166 5 discriminator 1 view .LVU428
 1683 01ae 0D4A     		ldr	r2, .L117+8
 1684 01b0 1278     		ldrb	r2, [r2]	@ zero_extendqisi2
 1685 01b2 012A     		cmp	r2, #1
 1686 01b4 01D8     		bhi	.L116
 1687              	.LVL174:
 1688              	.L101:
 166:../switch_sdk/core/fal/tiger/fal_tiger_qos.c **** 
 1689              		.loc 1 166 5 discriminator 5 view .LVU429
 166:../switch_sdk/core/fal/tiger/fal_tiger_qos.c **** 
 1690              		.loc 1 166 5 discriminator 5 view .LVU430
 166:../switch_sdk/core/fal/tiger/fal_tiger_qos.c **** 
 1691              		.loc 1 166 5 discriminator 5 view .LVU431
 1692 01b6 E0B2     		uxtb	r0, r4
 1693 01b8 70E7     		b	.L86
 1694              	.LVL175:
 1695              	.L116:
 166:../switch_sdk/core/fal/tiger/fal_tiger_qos.c **** 
 1696              		.loc 1 166 5 discriminator 3 view .LVU432
 1697              	.LBB32:
 166:../switch_sdk/core/fal/tiger/fal_tiger_qos.c **** 
 1698              		.loc 1 166 5 discriminator 3 view .LVU433
 1699 01ba 142B     		cmp	r3, #20
 1700 01bc 28BF     		it	cs
 1701 01be 1423     		movcs	r3, #20
 1702 01c0 1A46     		mov	r2, r3
 1703 01c2 0C4B     		ldr	r3, .L117+24
 1704 01c4 0093     		str	r3, [sp]
 1705 01c6 104B     		ldr	r3, .L117+44
 1706 01c8 0749     		ldr	r1, .L117+12
 1707 01ca 51F82220 		ldr	r2, [r1, r2, lsl #2]
 1708 01ce 0749     		ldr	r1, .L117+16
 1709 01d0 8968     		ldr	r1, [r1, #8]
 1710 01d2 0A48     		ldr	r0, .L117+32
 1711              	.LVL176:
 166:../switch_sdk/core/fal/tiger/fal_tiger_qos.c **** 
 1712              		.loc 1 166 5 is_stmt 0 discriminator 3 view .LVU434
 1713 01d4 FFF7FEFF 		bl	osal_printf
 1714              	.LVL177:
 1715 01d8 EDE7     		b	.L101
 1716              	.L118:
 1717 01da 00BF     		.align	2
 1718              	.L117:
 1719 01dc 00000000 		.word	gcal_inited
 1720 01e0 00000000 		.word	gpSwitchUnit
 1721 01e4 00000000 		.word	yt_debug_level
 1722 01e8 00000000 		.word	_yt_errmsg
 1723 01ec 00000000 		.word	_yt_prompt_msg
 1724 01f0 00000000 		.word	.LC0
 1725 01f4 00000000 		.word	__FUNCTION__.41
 1726 01f8 00000000 		.word	.LC6
 1727 01fc 58000000 		.word	.LC2
 1728 0200 48000000 		.word	.LC7
 1729 0204 94000000 		.word	.LC8
 1730 0208 E0000000 		.word	.LC9
 1731              	.LBE32:
 1732              		.cfi_endproc
 1733              	.LFE7:
 1735              		.section	.text.fal_tiger_qos_intPri_cpri_map_get,"ax",%progbits
 1736              		.align	1
 1737              		.global	fal_tiger_qos_intPri_cpri_map_get
 1738              		.syntax unified
 1739              		.thumb
 1740              		.thumb_func
 1742              	fal_tiger_qos_intPri_cpri_map_get:
 1743              	.LVL178:
 1744              	.LFB8:
 170:../switch_sdk/core/fal/tiger/fal_tiger_qos.c **** 
 171:../switch_sdk/core/fal/tiger/fal_tiger_qos.c **** yt_ret_t fal_tiger_qos_intPri_cpri_map_get(yt_unit_t unit, yt_port_t port, yt_qos_pmap_tci_t cpri, 
 172:../switch_sdk/core/fal/tiger/fal_tiger_qos.c **** {
 1745              		.loc 1 172 1 is_stmt 1 view -0
 1746              		.cfi_startproc
 1747              		@ args = 0, pretend = 0, frame = 24
 1748              		@ frame_needed = 0, uses_anonymous_args = 0
 1749              		.loc 1 172 1 is_stmt 0 view .LVU436
 1750 0000 2DE9F041 		push	{r4, r5, r6, r7, r8, lr}
 1751              		.cfi_def_cfa_offset 24
 1752              		.cfi_offset 4, -24
 1753              		.cfi_offset 5, -20
 1754              		.cfi_offset 6, -16
 1755              		.cfi_offset 7, -12
 1756              		.cfi_offset 8, -8
 1757              		.cfi_offset 14, -4
 1758 0004 88B0     		sub	sp, sp, #32
 1759              		.cfi_def_cfa_offset 56
 1760 0006 0546     		mov	r5, r0
 1761 0008 ADF80C20 		strh	r2, [sp, #12]	@ movhi
 1762 000c 1E46     		mov	r6, r3
 173:../switch_sdk/core/fal/tiger/fal_tiger_qos.c ****     qos_port_ctrln_t port_entry;
 1763              		.loc 1 173 5 is_stmt 1 view .LVU437
 174:../switch_sdk/core/fal/tiger/fal_tiger_qos.c ****     pri_to_int_prio_map_t pri_entry;
 1764              		.loc 1 174 5 view .LVU438
 175:../switch_sdk/core/fal/tiger/fal_tiger_qos.c ****     cmm_err_t ret = CMM_ERR_OK;
 1765              		.loc 1 175 5 view .LVU439
 1766              	.LVL179:
 176:../switch_sdk/core/fal/tiger/fal_tiger_qos.c ****     yt_pri_index_t pri_map_sel;
 1767              		.loc 1 176 5 view .LVU440
 177:../switch_sdk/core/fal/tiger/fal_tiger_qos.c ****     uint32_t index;
 1768              		.loc 1 177 5 view .LVU441
 178:../switch_sdk/core/fal/tiger/fal_tiger_qos.c ****     yt_macid_t macid = CAL_YTP_TO_MAC(unit,port);
 1769              		.loc 1 178 5 view .LVU442
 1770              		.loc 1 178 24 is_stmt 0 view .LVU443
 1771 000e 4B4B     		ldr	r3, .L139
 1772              	.LVL180:
 1773              		.loc 1 178 24 view .LVU444
 1774 0010 1B78     		ldrb	r3, [r3]	@ zero_extendqisi2
 1775 0012 53B1     		cbz	r3, .L130
 1776              		.loc 1 178 24 discriminator 1 view .LVU445
 1777 0014 4A4B     		ldr	r3, .L139+4
 1778 0016 53F82030 		ldr	r3, [r3, r0, lsl #2]
 1779 001a 1A7D     		ldrb	r2, [r3, #20]	@ zero_extendqisi2
 1780 001c 8A42     		cmp	r2, r1
 1781 001e 24D9     		bls	.L131
 1782              		.loc 1 178 24 discriminator 3 view .LVU446
 1783 0020 0631     		adds	r1, r1, #6
 1784              	.LVL181:
 1785              		.loc 1 178 24 discriminator 3 view .LVU447
 1786 0022 53F82130 		ldr	r3, [r3, r1, lsl #2]
 1787 0026 1A78     		ldrb	r2, [r3]	@ zero_extendqisi2
 1788 0028 00E0     		b	.L120
 1789              	.LVL182:
 1790              	.L130:
 1791              		.loc 1 178 24 view .LVU448
 1792 002a FF22     		movs	r2, #255
 1793              	.LVL183:
 1794              	.L120:
 179:../switch_sdk/core/fal/tiger/fal_tiger_qos.c ****     uint32_t pri;
 1795              		.loc 1 179 5 is_stmt 1 discriminator 6 view .LVU449
 180:../switch_sdk/core/fal/tiger/fal_tiger_qos.c **** 
 181:../switch_sdk/core/fal/tiger/fal_tiger_qos.c ****     CMM_PARAM_CHK(TRUE < cpri.dei, CMM_ERR_INPUT);
 1796              		.loc 1 181 5 discriminator 6 view .LVU450
 1797              		.loc 1 181 5 discriminator 6 view .LVU451
 1798 002c 9DF80C70 		ldrb	r7, [sp, #12]	@ zero_extendqisi2
 1799 0030 012F     		cmp	r7, #1
 1800 0032 1CD8     		bhi	.L133
 1801              		.loc 1 181 5 discriminator 2 view .LVU452
 182:../switch_sdk/core/fal/tiger/fal_tiger_qos.c ****     CMM_PARAM_CHK(CAL_MAX_VALUE_INT_PRI(unit) < cpri.prio, CMM_ERR_INPUT);
 1802              		.loc 1 182 5 discriminator 2 view .LVU453
 1803              		.loc 1 182 5 discriminator 2 view .LVU454
 1804 0034 424B     		ldr	r3, .L139+4
 1805 0036 53F82530 		ldr	r3, [r3, r5, lsl #2]
 1806 003a D3F8AC30 		ldr	r3, [r3, #172]
 1807 003e DB78     		ldrb	r3, [r3, #3]	@ zero_extendqisi2
 1808 0040 9DF80D80 		ldrb	r8, [sp, #13]	@ zero_extendqisi2
 1809 0044 4345     		cmp	r3, r8
 1810 0046 22D3     		bcc	.L134
 1811              		.loc 1 182 5 discriminator 2 view .LVU455
 183:../switch_sdk/core/fal/tiger/fal_tiger_qos.c ****     CMM_ERR_CHK(HAL_TBL_REG_READ(unit, QOS_PORT_CTRLNm, macid,sizeof(qos_port_ctrln_t), &port_entry
 1812              		.loc 1 183 5 discriminator 2 view .LVU456
 1813              		.loc 1 183 5 discriminator 2 view .LVU457
 1814 0048 07AB     		add	r3, sp, #28
 1815 004a 0093     		str	r3, [sp]
 1816 004c 0423     		movs	r3, #4
 1817 004e 7021     		movs	r1, #112
 1818 0050 2846     		mov	r0, r5
 1819              	.LVL184:
 1820              		.loc 1 183 5 is_stmt 0 discriminator 2 view .LVU458
 1821 0052 FFF7FEFF 		bl	hal_table_reg_read
 1822              	.LVL185:
 1823              		.loc 1 183 5 discriminator 2 view .LVU459
 1824 0056 0446     		mov	r4, r0
 1825              	.LVL186:
 1826              		.loc 1 183 5 discriminator 2 view .LVU460
 1827 0058 10F0FF03 		ands	r3, r0, #255
 1828 005c 35D0     		beq	.L126
 1829              		.loc 1 183 5 is_stmt 1 discriminator 1 view .LVU461
 1830              		.loc 1 183 5 discriminator 1 view .LVU462
 1831 005e 394A     		ldr	r2, .L139+8
 1832 0060 1278     		ldrb	r2, [r2]	@ zero_extendqisi2
 1833 0062 012A     		cmp	r2, #1
 1834 0064 21D8     		bhi	.L135
 1835              	.LVL187:
 1836              	.L127:
 1837              		.loc 1 183 5 discriminator 5 view .LVU463
 1838              		.loc 1 183 5 discriminator 5 view .LVU464
 1839              		.loc 1 183 5 discriminator 5 view .LVU465
 1840 0066 E0B2     		uxtb	r0, r4
 1841 0068 06E0     		b	.L119
 1842              	.LVL188:
 1843              	.L131:
 178:../switch_sdk/core/fal/tiger/fal_tiger_qos.c ****     uint32_t pri;
 1844              		.loc 1 178 24 is_stmt 0 view .LVU466
 1845 006a FF22     		movs	r2, #255
 1846 006c DEE7     		b	.L120
 1847              	.LVL189:
 1848              	.L133:
 181:../switch_sdk/core/fal/tiger/fal_tiger_qos.c ****     CMM_PARAM_CHK(CAL_MAX_VALUE_INT_PRI(unit) < cpri.prio, CMM_ERR_INPUT);
 1849              		.loc 1 181 5 is_stmt 1 discriminator 1 view .LVU467
 181:../switch_sdk/core/fal/tiger/fal_tiger_qos.c ****     CMM_PARAM_CHK(CAL_MAX_VALUE_INT_PRI(unit) < cpri.prio, CMM_ERR_INPUT);
 1850              		.loc 1 181 5 discriminator 1 view .LVU468
 1851 006e 354B     		ldr	r3, .L139+8
 1852 0070 1B78     		ldrb	r3, [r3]	@ zero_extendqisi2
 1853 0072 012B     		cmp	r3, #1
 1854 0074 03D8     		bhi	.L136
 1855              	.LVL190:
 1856              	.L122:
 181:../switch_sdk/core/fal/tiger/fal_tiger_qos.c ****     CMM_PARAM_CHK(CAL_MAX_VALUE_INT_PRI(unit) < cpri.prio, CMM_ERR_INPUT);
 1857              		.loc 1 181 5 discriminator 5 view .LVU469
 181:../switch_sdk/core/fal/tiger/fal_tiger_qos.c ****     CMM_PARAM_CHK(CAL_MAX_VALUE_INT_PRI(unit) < cpri.prio, CMM_ERR_INPUT);
 1858              		.loc 1 181 5 discriminator 5 view .LVU470
 181:../switch_sdk/core/fal/tiger/fal_tiger_qos.c ****     CMM_PARAM_CHK(CAL_MAX_VALUE_INT_PRI(unit) < cpri.prio, CMM_ERR_INPUT);
 1859              		.loc 1 181 5 discriminator 5 view .LVU471
 1860 0076 0520     		movs	r0, #5
 1861              	.LVL191:
 1862              	.L119:
 184:../switch_sdk/core/fal/tiger/fal_tiger_qos.c ****     HAL_FIELD_GET(QOS_PORT_CTRLNm, QOS_PORT_CTRLN_CPRI_MAP_SELf, &port_entry, &index);
 185:../switch_sdk/core/fal/tiger/fal_tiger_qos.c **** 
 186:../switch_sdk/core/fal/tiger/fal_tiger_qos.c ****     pri_map_sel = index;
 187:../switch_sdk/core/fal/tiger/fal_tiger_qos.c ****     index = (pri_map_sel << 4) + (cpri.dei<<3) + cpri.prio;
 188:../switch_sdk/core/fal/tiger/fal_tiger_qos.c ****     CMM_ERR_CHK(HAL_TBL_REG_READ(unit, PRI_TO_INT_PRIO_MAPm, index,sizeof(pri_to_int_prio_map_t), &
 189:../switch_sdk/core/fal/tiger/fal_tiger_qos.c ****     HAL_FIELD_GET(PRI_TO_INT_PRIO_MAPm, PRI_TO_INT_PRIO_MAP_INT_PRIOf, &pri_entry, &pri);
 190:../switch_sdk/core/fal/tiger/fal_tiger_qos.c ****     *pPri = pri;
 191:../switch_sdk/core/fal/tiger/fal_tiger_qos.c **** 
 192:../switch_sdk/core/fal/tiger/fal_tiger_qos.c ****     return CMM_ERR_OK;
 193:../switch_sdk/core/fal/tiger/fal_tiger_qos.c **** }
 1863              		.loc 1 193 1 is_stmt 0 view .LVU472
 1864 0078 08B0     		add	sp, sp, #32
 1865              		.cfi_remember_state
 1866              		.cfi_def_cfa_offset 24
 1867              		@ sp needed
 1868 007a BDE8F081 		pop	{r4, r5, r6, r7, r8, pc}
 1869              	.LVL192:
 1870              	.L136:
 1871              		.cfi_restore_state
 181:../switch_sdk/core/fal/tiger/fal_tiger_qos.c ****     CMM_PARAM_CHK(CAL_MAX_VALUE_INT_PRI(unit) < cpri.prio, CMM_ERR_INPUT);
 1872              		.loc 1 181 5 is_stmt 1 discriminator 3 view .LVU473
 1873              	.LBB33:
 181:../switch_sdk/core/fal/tiger/fal_tiger_qos.c ****     CMM_PARAM_CHK(CAL_MAX_VALUE_INT_PRI(unit) < cpri.prio, CMM_ERR_INPUT);
 1874              		.loc 1 181 5 discriminator 3 view .LVU474
 1875 007e 324B     		ldr	r3, .L139+12
 1876 0080 5A69     		ldr	r2, [r3, #20]
 1877              	.LVL193:
 181:../switch_sdk/core/fal/tiger/fal_tiger_qos.c ****     CMM_PARAM_CHK(CAL_MAX_VALUE_INT_PRI(unit) < cpri.prio, CMM_ERR_INPUT);
 1878              		.loc 1 181 5 is_stmt 0 discriminator 3 view .LVU475
 1879 0082 324B     		ldr	r3, .L139+16
 1880 0084 9968     		ldr	r1, [r3, #8]
 1881 0086 3248     		ldr	r0, .L139+20
 1882              	.LVL194:
 181:../switch_sdk/core/fal/tiger/fal_tiger_qos.c ****     CMM_PARAM_CHK(CAL_MAX_VALUE_INT_PRI(unit) < cpri.prio, CMM_ERR_INPUT);
 1883              		.loc 1 181 5 discriminator 3 view .LVU476
 1884 0088 FFF7FEFF 		bl	osal_printf
 1885              	.LVL195:
 1886 008c F3E7     		b	.L122
 1887              	.LVL196:
 1888              	.L134:
 181:../switch_sdk/core/fal/tiger/fal_tiger_qos.c ****     CMM_PARAM_CHK(CAL_MAX_VALUE_INT_PRI(unit) < cpri.prio, CMM_ERR_INPUT);
 1889              		.loc 1 181 5 discriminator 3 view .LVU477
 1890              	.LBE33:
 182:../switch_sdk/core/fal/tiger/fal_tiger_qos.c ****     CMM_ERR_CHK(HAL_TBL_REG_READ(unit, QOS_PORT_CTRLNm, macid,sizeof(qos_port_ctrln_t), &port_entry
 1891              		.loc 1 182 5 is_stmt 1 discriminator 1 view .LVU478
 182:../switch_sdk/core/fal/tiger/fal_tiger_qos.c ****     CMM_ERR_CHK(HAL_TBL_REG_READ(unit, QOS_PORT_CTRLNm, macid,sizeof(qos_port_ctrln_t), &port_entry
 1892              		.loc 1 182 5 discriminator 1 view .LVU479
 1893 008e 2D4B     		ldr	r3, .L139+8
 1894 0090 1B78     		ldrb	r3, [r3]	@ zero_extendqisi2
 1895 0092 012B     		cmp	r3, #1
 1896 0094 01D8     		bhi	.L137
 1897              	.LVL197:
 1898              	.L125:
 182:../switch_sdk/core/fal/tiger/fal_tiger_qos.c ****     CMM_ERR_CHK(HAL_TBL_REG_READ(unit, QOS_PORT_CTRLNm, macid,sizeof(qos_port_ctrln_t), &port_entry
 1899              		.loc 1 182 5 discriminator 5 view .LVU480
 182:../switch_sdk/core/fal/tiger/fal_tiger_qos.c ****     CMM_ERR_CHK(HAL_TBL_REG_READ(unit, QOS_PORT_CTRLNm, macid,sizeof(qos_port_ctrln_t), &port_entry
 1900              		.loc 1 182 5 discriminator 5 view .LVU481
 182:../switch_sdk/core/fal/tiger/fal_tiger_qos.c ****     CMM_ERR_CHK(HAL_TBL_REG_READ(unit, QOS_PORT_CTRLNm, macid,sizeof(qos_port_ctrln_t), &port_entry
 1901              		.loc 1 182 5 discriminator 5 view .LVU482
 1902 0096 0520     		movs	r0, #5
 1903 0098 EEE7     		b	.L119
 1904              	.LVL198:
 1905              	.L137:
 182:../switch_sdk/core/fal/tiger/fal_tiger_qos.c ****     CMM_ERR_CHK(HAL_TBL_REG_READ(unit, QOS_PORT_CTRLNm, macid,sizeof(qos_port_ctrln_t), &port_entry
 1906              		.loc 1 182 5 discriminator 3 view .LVU483
 1907              	.LBB34:
 182:../switch_sdk/core/fal/tiger/fal_tiger_qos.c ****     CMM_ERR_CHK(HAL_TBL_REG_READ(unit, QOS_PORT_CTRLNm, macid,sizeof(qos_port_ctrln_t), &port_entry
 1908              		.loc 1 182 5 discriminator 3 view .LVU484
 1909 009a 2B4B     		ldr	r3, .L139+12
 1910 009c 5A69     		ldr	r2, [r3, #20]
 1911              	.LVL199:
 182:../switch_sdk/core/fal/tiger/fal_tiger_qos.c ****     CMM_ERR_CHK(HAL_TBL_REG_READ(unit, QOS_PORT_CTRLNm, macid,sizeof(qos_port_ctrln_t), &port_entry
 1912              		.loc 1 182 5 is_stmt 0 discriminator 3 view .LVU485
 1913 009e 2B4B     		ldr	r3, .L139+16
 1914 00a0 9968     		ldr	r1, [r3, #8]
 1915 00a2 2B48     		ldr	r0, .L139+20
 1916              	.LVL200:
 182:../switch_sdk/core/fal/tiger/fal_tiger_qos.c ****     CMM_ERR_CHK(HAL_TBL_REG_READ(unit, QOS_PORT_CTRLNm, macid,sizeof(qos_port_ctrln_t), &port_entry
 1917              		.loc 1 182 5 discriminator 3 view .LVU486
 1918 00a4 FFF7FEFF 		bl	osal_printf
 1919              	.LVL201:
 1920 00a8 F5E7     		b	.L125
 1921              	.LVL202:
 1922              	.L135:
 182:../switch_sdk/core/fal/tiger/fal_tiger_qos.c ****     CMM_ERR_CHK(HAL_TBL_REG_READ(unit, QOS_PORT_CTRLNm, macid,sizeof(qos_port_ctrln_t), &port_entry
 1923              		.loc 1 182 5 discriminator 3 view .LVU487
 1924              	.LBE34:
 183:../switch_sdk/core/fal/tiger/fal_tiger_qos.c ****     HAL_FIELD_GET(QOS_PORT_CTRLNm, QOS_PORT_CTRLN_CPRI_MAP_SELf, &port_entry, &index);
 1925              		.loc 1 183 5 is_stmt 1 discriminator 3 view .LVU488
 1926              	.LBB35:
 183:../switch_sdk/core/fal/tiger/fal_tiger_qos.c ****     HAL_FIELD_GET(QOS_PORT_CTRLNm, QOS_PORT_CTRLN_CPRI_MAP_SELf, &port_entry, &index);
 1927              		.loc 1 183 5 discriminator 3 view .LVU489
 1928 00aa 142B     		cmp	r3, #20
 1929 00ac 28BF     		it	cs
 1930 00ae 1423     		movcs	r3, #20
 1931 00b0 1A46     		mov	r2, r3
 1932 00b2 284B     		ldr	r3, .L139+24
 1933 00b4 0093     		str	r3, [sp]
 1934 00b6 284B     		ldr	r3, .L139+28
 1935 00b8 2349     		ldr	r1, .L139+12
 1936 00ba 51F82220 		ldr	r2, [r1, r2, lsl #2]
 1937 00be 2349     		ldr	r1, .L139+16
 1938 00c0 8968     		ldr	r1, [r1, #8]
 1939 00c2 2648     		ldr	r0, .L139+32
 1940              	.LVL203:
 183:../switch_sdk/core/fal/tiger/fal_tiger_qos.c ****     HAL_FIELD_GET(QOS_PORT_CTRLNm, QOS_PORT_CTRLN_CPRI_MAP_SELf, &port_entry, &index);
 1941              		.loc 1 183 5 is_stmt 0 discriminator 3 view .LVU490
 1942 00c4 FFF7FEFF 		bl	osal_printf
 1943              	.LVL204:
 1944 00c8 CDE7     		b	.L127
 1945              	.LVL205:
 1946              	.L126:
 183:../switch_sdk/core/fal/tiger/fal_tiger_qos.c ****     HAL_FIELD_GET(QOS_PORT_CTRLNm, QOS_PORT_CTRLN_CPRI_MAP_SELf, &port_entry, &index);
 1947              		.loc 1 183 5 discriminator 3 view .LVU491
 1948              	.LBE35:
 183:../switch_sdk/core/fal/tiger/fal_tiger_qos.c ****     HAL_FIELD_GET(QOS_PORT_CTRLNm, QOS_PORT_CTRLN_CPRI_MAP_SELf, &port_entry, &index);
 1949              		.loc 1 183 5 is_stmt 1 discriminator 2 view .LVU492
 184:../switch_sdk/core/fal/tiger/fal_tiger_qos.c ****     HAL_FIELD_GET(QOS_PORT_CTRLNm, QOS_PORT_CTRLN_CPRI_MAP_SELf, &port_entry, &index);
 1950              		.loc 1 184 5 discriminator 2 view .LVU493
 1951              	.LBB36:
 184:../switch_sdk/core/fal/tiger/fal_tiger_qos.c ****     HAL_FIELD_GET(QOS_PORT_CTRLNm, QOS_PORT_CTRLN_CPRI_MAP_SELf, &port_entry, &index);
 1952              		.loc 1 184 5 discriminator 2 view .LVU494
 184:../switch_sdk/core/fal/tiger/fal_tiger_qos.c ****     HAL_FIELD_GET(QOS_PORT_CTRLNm, QOS_PORT_CTRLN_CPRI_MAP_SELf, &port_entry, &index);
 1953              		.loc 1 184 5 discriminator 2 view .LVU495
 1954 00ca 05AB     		add	r3, sp, #20
 1955 00cc 07AA     		add	r2, sp, #28
 1956 00ce 0021     		movs	r1, #0
 1957 00d0 7020     		movs	r0, #112
 1958              	.LVL206:
 184:../switch_sdk/core/fal/tiger/fal_tiger_qos.c ****     HAL_FIELD_GET(QOS_PORT_CTRLNm, QOS_PORT_CTRLN_CPRI_MAP_SELf, &port_entry, &index);
 1959              		.loc 1 184 5 is_stmt 0 discriminator 2 view .LVU496
 1960 00d2 FFF7FEFF 		bl	hal_tbl_reg_field_get
 1961              	.LVL207:
 184:../switch_sdk/core/fal/tiger/fal_tiger_qos.c ****     HAL_FIELD_GET(QOS_PORT_CTRLNm, QOS_PORT_CTRLN_CPRI_MAP_SELf, &port_entry, &index);
 1962              		.loc 1 184 5 is_stmt 1 discriminator 2 view .LVU497
 1963 00d6 059B     		ldr	r3, [sp, #20]
 1964              	.LVL208:
 184:../switch_sdk/core/fal/tiger/fal_tiger_qos.c ****     HAL_FIELD_GET(QOS_PORT_CTRLNm, QOS_PORT_CTRLN_CPRI_MAP_SELf, &port_entry, &index);
 1965              		.loc 1 184 5 is_stmt 0 discriminator 2 view .LVU498
 1966              	.LBE36:
 184:../switch_sdk/core/fal/tiger/fal_tiger_qos.c ****     HAL_FIELD_GET(QOS_PORT_CTRLNm, QOS_PORT_CTRLN_CPRI_MAP_SELf, &port_entry, &index);
 1967              		.loc 1 184 5 is_stmt 1 discriminator 2 view .LVU499
 186:../switch_sdk/core/fal/tiger/fal_tiger_qos.c ****     index = (pri_map_sel << 4) + (cpri.dei<<3) + cpri.prio;
 1968              		.loc 1 186 5 discriminator 2 view .LVU500
 187:../switch_sdk/core/fal/tiger/fal_tiger_qos.c ****     CMM_ERR_CHK(HAL_TBL_REG_READ(unit, PRI_TO_INT_PRIO_MAPm, index,sizeof(pri_to_int_prio_map_t), &
 1969              		.loc 1 187 5 discriminator 2 view .LVU501
 187:../switch_sdk/core/fal/tiger/fal_tiger_qos.c ****     CMM_ERR_CHK(HAL_TBL_REG_READ(unit, PRI_TO_INT_PRIO_MAPm, index,sizeof(pri_to_int_prio_map_t), &
 1970              		.loc 1 187 26 is_stmt 0 discriminator 2 view .LVU502
 1971 00d8 1A01     		lsls	r2, r3, #4
 1972 00da 02F47F62 		and	r2, r2, #4080
 187:../switch_sdk/core/fal/tiger/fal_tiger_qos.c ****     CMM_ERR_CHK(HAL_TBL_REG_READ(unit, PRI_TO_INT_PRIO_MAPm, index,sizeof(pri_to_int_prio_map_t), &
 1973              		.loc 1 187 32 discriminator 2 view .LVU503
 1974 00de 02EBC702 		add	r2, r2, r7, lsl #3
 1975              	.LVL209:
 188:../switch_sdk/core/fal/tiger/fal_tiger_qos.c ****     HAL_FIELD_GET(PRI_TO_INT_PRIO_MAPm, PRI_TO_INT_PRIO_MAP_INT_PRIOf, &pri_entry, &pri);
 1976              		.loc 1 188 5 is_stmt 1 discriminator 2 view .LVU504
 188:../switch_sdk/core/fal/tiger/fal_tiger_qos.c ****     HAL_FIELD_GET(PRI_TO_INT_PRIO_MAPm, PRI_TO_INT_PRIO_MAP_INT_PRIOf, &pri_entry, &pri);
 1977              		.loc 1 188 5 discriminator 2 view .LVU505
 1978 00e2 06AB     		add	r3, sp, #24
 1979 00e4 0093     		str	r3, [sp]
 1980 00e6 0423     		movs	r3, #4
 1981 00e8 4244     		add	r2, r2, r8
 1982              	.LVL210:
 188:../switch_sdk/core/fal/tiger/fal_tiger_qos.c ****     HAL_FIELD_GET(PRI_TO_INT_PRIO_MAPm, PRI_TO_INT_PRIO_MAP_INT_PRIOf, &pri_entry, &pri);
 1983              		.loc 1 188 5 is_stmt 0 discriminator 2 view .LVU506
 1984 00ea 6F21     		movs	r1, #111
 1985 00ec 2846     		mov	r0, r5
 1986 00ee FFF7FEFF 		bl	hal_table_reg_read
 1987              	.LVL211:
 188:../switch_sdk/core/fal/tiger/fal_tiger_qos.c ****     HAL_FIELD_GET(PRI_TO_INT_PRIO_MAPm, PRI_TO_INT_PRIO_MAP_INT_PRIOf, &pri_entry, &pri);
 1988              		.loc 1 188 5 discriminator 2 view .LVU507
 1989 00f2 0446     		mov	r4, r0
 1990              	.LVL212:
 188:../switch_sdk/core/fal/tiger/fal_tiger_qos.c ****     HAL_FIELD_GET(PRI_TO_INT_PRIO_MAPm, PRI_TO_INT_PRIO_MAP_INT_PRIOf, &pri_entry, &pri);
 1991              		.loc 1 188 5 discriminator 2 view .LVU508
 1992 00f4 10F0FF03 		ands	r3, r0, #255
 1993 00f8 15D0     		beq	.L128
 188:../switch_sdk/core/fal/tiger/fal_tiger_qos.c ****     HAL_FIELD_GET(PRI_TO_INT_PRIO_MAPm, PRI_TO_INT_PRIO_MAP_INT_PRIOf, &pri_entry, &pri);
 1994              		.loc 1 188 5 is_stmt 1 discriminator 1 view .LVU509
 188:../switch_sdk/core/fal/tiger/fal_tiger_qos.c ****     HAL_FIELD_GET(PRI_TO_INT_PRIO_MAPm, PRI_TO_INT_PRIO_MAP_INT_PRIOf, &pri_entry, &pri);
 1995              		.loc 1 188 5 discriminator 1 view .LVU510
 1996 00fa 124A     		ldr	r2, .L139+8
 1997 00fc 1278     		ldrb	r2, [r2]	@ zero_extendqisi2
 1998 00fe 012A     		cmp	r2, #1
 1999 0100 01D8     		bhi	.L138
 2000              	.LVL213:
 2001              	.L129:
 188:../switch_sdk/core/fal/tiger/fal_tiger_qos.c ****     HAL_FIELD_GET(PRI_TO_INT_PRIO_MAPm, PRI_TO_INT_PRIO_MAP_INT_PRIOf, &pri_entry, &pri);
 2002              		.loc 1 188 5 discriminator 5 view .LVU511
 188:../switch_sdk/core/fal/tiger/fal_tiger_qos.c ****     HAL_FIELD_GET(PRI_TO_INT_PRIO_MAPm, PRI_TO_INT_PRIO_MAP_INT_PRIOf, &pri_entry, &pri);
 2003              		.loc 1 188 5 discriminator 5 view .LVU512
 188:../switch_sdk/core/fal/tiger/fal_tiger_qos.c ****     HAL_FIELD_GET(PRI_TO_INT_PRIO_MAPm, PRI_TO_INT_PRIO_MAP_INT_PRIOf, &pri_entry, &pri);
 2004              		.loc 1 188 5 discriminator 5 view .LVU513
 2005 0102 E0B2     		uxtb	r0, r4
 2006 0104 B8E7     		b	.L119
 2007              	.LVL214:
 2008              	.L138:
 188:../switch_sdk/core/fal/tiger/fal_tiger_qos.c ****     HAL_FIELD_GET(PRI_TO_INT_PRIO_MAPm, PRI_TO_INT_PRIO_MAP_INT_PRIOf, &pri_entry, &pri);
 2009              		.loc 1 188 5 discriminator 3 view .LVU514
 2010              	.LBB37:
 188:../switch_sdk/core/fal/tiger/fal_tiger_qos.c ****     HAL_FIELD_GET(PRI_TO_INT_PRIO_MAPm, PRI_TO_INT_PRIO_MAP_INT_PRIOf, &pri_entry, &pri);
 2011              		.loc 1 188 5 discriminator 3 view .LVU515
 2012 0106 142B     		cmp	r3, #20
 2013 0108 28BF     		it	cs
 2014 010a 1423     		movcs	r3, #20
 2015 010c 1A46     		mov	r2, r3
 2016 010e 114B     		ldr	r3, .L139+24
 2017 0110 0093     		str	r3, [sp]
 2018 0112 134B     		ldr	r3, .L139+36
 2019 0114 0C49     		ldr	r1, .L139+12
 2020 0116 51F82220 		ldr	r2, [r1, r2, lsl #2]
 2021 011a 0C49     		ldr	r1, .L139+16
 2022 011c 8968     		ldr	r1, [r1, #8]
 2023 011e 0F48     		ldr	r0, .L139+32
 2024              	.LVL215:
 188:../switch_sdk/core/fal/tiger/fal_tiger_qos.c ****     HAL_FIELD_GET(PRI_TO_INT_PRIO_MAPm, PRI_TO_INT_PRIO_MAP_INT_PRIOf, &pri_entry, &pri);
 2025              		.loc 1 188 5 is_stmt 0 discriminator 3 view .LVU516
 2026 0120 FFF7FEFF 		bl	osal_printf
 2027              	.LVL216:
 2028 0124 EDE7     		b	.L129
 2029              	.LVL217:
 2030              	.L128:
 188:../switch_sdk/core/fal/tiger/fal_tiger_qos.c ****     HAL_FIELD_GET(PRI_TO_INT_PRIO_MAPm, PRI_TO_INT_PRIO_MAP_INT_PRIOf, &pri_entry, &pri);
 2031              		.loc 1 188 5 discriminator 3 view .LVU517
 2032              	.LBE37:
 188:../switch_sdk/core/fal/tiger/fal_tiger_qos.c ****     HAL_FIELD_GET(PRI_TO_INT_PRIO_MAPm, PRI_TO_INT_PRIO_MAP_INT_PRIOf, &pri_entry, &pri);
 2033              		.loc 1 188 5 is_stmt 1 discriminator 2 view .LVU518
 189:../switch_sdk/core/fal/tiger/fal_tiger_qos.c ****     *pPri = pri;
 2034              		.loc 1 189 5 discriminator 2 view .LVU519
 2035              	.LBB38:
 189:../switch_sdk/core/fal/tiger/fal_tiger_qos.c ****     *pPri = pri;
 2036              		.loc 1 189 5 discriminator 2 view .LVU520
 189:../switch_sdk/core/fal/tiger/fal_tiger_qos.c ****     *pPri = pri;
 2037              		.loc 1 189 5 discriminator 2 view .LVU521
 2038 0126 05AB     		add	r3, sp, #20
 2039 0128 06AA     		add	r2, sp, #24
 2040 012a 0021     		movs	r1, #0
 2041 012c 6F20     		movs	r0, #111
 2042              	.LVL218:
 189:../switch_sdk/core/fal/tiger/fal_tiger_qos.c ****     *pPri = pri;
 2043              		.loc 1 189 5 is_stmt 0 discriminator 2 view .LVU522
 2044 012e FFF7FEFF 		bl	hal_tbl_reg_field_get
 2045              	.LVL219:
 189:../switch_sdk/core/fal/tiger/fal_tiger_qos.c ****     *pPri = pri;
 2046              		.loc 1 189 5 is_stmt 1 discriminator 2 view .LVU523
 2047 0132 059B     		ldr	r3, [sp, #20]
 2048              	.LVL220:
 189:../switch_sdk/core/fal/tiger/fal_tiger_qos.c ****     *pPri = pri;
 2049              		.loc 1 189 5 is_stmt 0 discriminator 2 view .LVU524
 2050              	.LBE38:
 189:../switch_sdk/core/fal/tiger/fal_tiger_qos.c ****     *pPri = pri;
 2051              		.loc 1 189 5 is_stmt 1 discriminator 2 view .LVU525
 190:../switch_sdk/core/fal/tiger/fal_tiger_qos.c **** 
 2052              		.loc 1 190 5 discriminator 2 view .LVU526
 190:../switch_sdk/core/fal/tiger/fal_tiger_qos.c **** 
 2053              		.loc 1 190 11 is_stmt 0 discriminator 2 view .LVU527
 2054 0134 3370     		strb	r3, [r6]
 192:../switch_sdk/core/fal/tiger/fal_tiger_qos.c **** }
 2055              		.loc 1 192 5 is_stmt 1 discriminator 2 view .LVU528
 192:../switch_sdk/core/fal/tiger/fal_tiger_qos.c **** }
 2056              		.loc 1 192 12 is_stmt 0 discriminator 2 view .LVU529
 2057 0136 0020     		movs	r0, #0
 2058 0138 9EE7     		b	.L119
 2059              	.L140:
 2060 013a 00BF     		.align	2
 2061              	.L139:
 2062 013c 00000000 		.word	gcal_inited
 2063 0140 00000000 		.word	gpSwitchUnit
 2064 0144 00000000 		.word	yt_debug_level
 2065 0148 00000000 		.word	_yt_errmsg
 2066 014c 00000000 		.word	_yt_prompt_msg
 2067 0150 00000000 		.word	.LC0
 2068 0154 00000000 		.word	__FUNCTION__.40
 2069 0158 00000000 		.word	.LC6
 2070 015c 58000000 		.word	.LC2
 2071 0160 94000000 		.word	.LC8
 2072              		.cfi_endproc
 2073              	.LFE8:
 2075              		.section	.text.fal_tiger_qos_intPri_spri_map_set,"ax",%progbits
 2076              		.align	1
 2077              		.global	fal_tiger_qos_intPri_spri_map_set
 2078              		.syntax unified
 2079              		.thumb
 2080              		.thumb_func
 2082              	fal_tiger_qos_intPri_spri_map_set:
 2083              	.LVL221:
 2084              	.LFB9:
 194:../switch_sdk/core/fal/tiger/fal_tiger_qos.c **** 
 195:../switch_sdk/core/fal/tiger/fal_tiger_qos.c **** yt_ret_t fal_tiger_qos_intPri_spri_map_set(yt_unit_t unit, yt_port_t port, yt_qos_pmap_tci_t spri, 
 196:../switch_sdk/core/fal/tiger/fal_tiger_qos.c **** {
 2085              		.loc 1 196 1 is_stmt 1 view -0
 2086              		.cfi_startproc
 2087              		@ args = 0, pretend = 0, frame = 16
 2088              		@ frame_needed = 0, uses_anonymous_args = 0
 2089              		.loc 1 196 1 is_stmt 0 view .LVU531
 2090 0000 2DE9F043 		push	{r4, r5, r6, r7, r8, r9, lr}
 2091              		.cfi_def_cfa_offset 28
 2092              		.cfi_offset 4, -28
 2093              		.cfi_offset 5, -24
 2094              		.cfi_offset 6, -20
 2095              		.cfi_offset 7, -16
 2096              		.cfi_offset 8, -12
 2097              		.cfi_offset 9, -8
 2098              		.cfi_offset 14, -4
 2099 0004 87B0     		sub	sp, sp, #28
 2100              		.cfi_def_cfa_offset 56
 2101 0006 0546     		mov	r5, r0
 2102 0008 ADF80C20 		strh	r2, [sp, #12]	@ movhi
 2103 000c 1E46     		mov	r6, r3
 197:../switch_sdk/core/fal/tiger/fal_tiger_qos.c ****     qos_port_ctrln_t port_entry;
 2104              		.loc 1 197 5 is_stmt 1 view .LVU532
 198:../switch_sdk/core/fal/tiger/fal_tiger_qos.c ****     pri_to_int_prio_map_t pri_entry;
 2105              		.loc 1 198 5 view .LVU533
 199:../switch_sdk/core/fal/tiger/fal_tiger_qos.c ****     cmm_err_t ret = CMM_ERR_OK;
 2106              		.loc 1 199 5 view .LVU534
 2107              	.LVL222:
 200:../switch_sdk/core/fal/tiger/fal_tiger_qos.c ****     uint32_t index;
 2108              		.loc 1 200 5 view .LVU535
 201:../switch_sdk/core/fal/tiger/fal_tiger_qos.c ****     yt_macid_t macid = CAL_YTP_TO_MAC(unit, port);
 2109              		.loc 1 201 5 view .LVU536
 2110              		.loc 1 201 24 is_stmt 0 view .LVU537
 2111 000e 744B     		ldr	r3, .L172
 2112              	.LVL223:
 2113              		.loc 1 201 24 view .LVU538
 2114 0010 1B78     		ldrb	r3, [r3]	@ zero_extendqisi2
 2115 0012 5BB1     		cbz	r3, .L157
 2116              		.loc 1 201 24 discriminator 1 view .LVU539
 2117 0014 734B     		ldr	r3, .L172+4
 2118 0016 53F82030 		ldr	r3, [r3, r0, lsl #2]
 2119 001a 1A7D     		ldrb	r2, [r3, #20]	@ zero_extendqisi2
 2120 001c 8A42     		cmp	r2, r1
 2121 001e 29D9     		bls	.L158
 2122              		.loc 1 201 24 discriminator 3 view .LVU540
 2123 0020 0631     		adds	r1, r1, #6
 2124              	.LVL224:
 2125              		.loc 1 201 24 discriminator 3 view .LVU541
 2126 0022 53F82130 		ldr	r3, [r3, r1, lsl #2]
 2127 0026 93F80090 		ldrb	r9, [r3]	@ zero_extendqisi2
 2128 002a 01E0     		b	.L142
 2129              	.LVL225:
 2130              	.L157:
 2131              		.loc 1 201 24 view .LVU542
 2132 002c 4FF0FF09 		mov	r9, #255
 2133              	.LVL226:
 2134              	.L142:
 202:../switch_sdk/core/fal/tiger/fal_tiger_qos.c **** 
 203:../switch_sdk/core/fal/tiger/fal_tiger_qos.c ****     CMM_PARAM_CHK(CAL_MAX_VALUE_INT_PRI(unit) < pri, CMM_ERR_INPUT);
 2135              		.loc 1 203 5 is_stmt 1 discriminator 6 view .LVU543
 2136              		.loc 1 203 5 discriminator 6 view .LVU544
 2137 0030 6C4B     		ldr	r3, .L172+4
 2138 0032 53F82530 		ldr	r3, [r3, r5, lsl #2]
 2139 0036 D3F8AC30 		ldr	r3, [r3, #172]
 2140 003a DB78     		ldrb	r3, [r3, #3]	@ zero_extendqisi2
 2141 003c B342     		cmp	r3, r6
 2142 003e 1CD3     		bcc	.L161
 2143              		.loc 1 203 5 discriminator 2 view .LVU545
 204:../switch_sdk/core/fal/tiger/fal_tiger_qos.c ****     CMM_PARAM_CHK(TRUE < spri.dei, CMM_ERR_INPUT);
 2144              		.loc 1 204 5 discriminator 2 view .LVU546
 2145              		.loc 1 204 5 discriminator 2 view .LVU547
 2146 0040 9DF80C70 		ldrb	r7, [sp, #12]	@ zero_extendqisi2
 2147 0044 012F     		cmp	r7, #1
 2148 0046 26D8     		bhi	.L162
 2149              		.loc 1 204 5 discriminator 2 view .LVU548
 205:../switch_sdk/core/fal/tiger/fal_tiger_qos.c ****     CMM_PARAM_CHK(CAL_MAX_VALUE_INT_PRI(unit) < spri.prio, CMM_ERR_INPUT);
 2150              		.loc 1 205 5 discriminator 2 view .LVU549
 2151              		.loc 1 205 5 discriminator 2 view .LVU550
 2152 0048 9DF80D80 		ldrb	r8, [sp, #13]	@ zero_extendqisi2
 2153 004c 4345     		cmp	r3, r8
 2154 004e 32D3     		bcc	.L163
 2155              		.loc 1 205 5 discriminator 2 view .LVU551
 206:../switch_sdk/core/fal/tiger/fal_tiger_qos.c **** 
 207:../switch_sdk/core/fal/tiger/fal_tiger_qos.c ****     CMM_ERR_CHK(HAL_TBL_REG_READ(unit, QOS_PORT_CTRLNm, macid, sizeof(qos_port_ctrln_t), &port_entr
 2156              		.loc 1 207 5 discriminator 2 view .LVU552
 2157              		.loc 1 207 5 discriminator 2 view .LVU553
 2158 0050 05AB     		add	r3, sp, #20
 2159 0052 0093     		str	r3, [sp]
 2160 0054 0423     		movs	r3, #4
 2161 0056 4A46     		mov	r2, r9
 2162 0058 7021     		movs	r1, #112
 2163 005a 2846     		mov	r0, r5
 2164              	.LVL227:
 2165              		.loc 1 207 5 is_stmt 0 discriminator 2 view .LVU554
 2166 005c FFF7FEFF 		bl	hal_table_reg_read
 2167              	.LVL228:
 2168 0060 0446     		mov	r4, r0
 2169              	.LVL229:
 2170              		.loc 1 207 5 discriminator 2 view .LVU555
 2171 0062 10F0FF03 		ands	r3, r0, #255
 2172 0066 44D0     		beq	.L150
 2173              		.loc 1 207 5 is_stmt 1 discriminator 1 view .LVU556
 2174              		.loc 1 207 5 discriminator 1 view .LVU557
 2175 0068 5F4A     		ldr	r2, .L172+8
 2176 006a 1278     		ldrb	r2, [r2]	@ zero_extendqisi2
 2177 006c 012A     		cmp	r2, #1
 2178 006e 30D8     		bhi	.L164
 2179              	.LVL230:
 2180              	.L151:
 2181              		.loc 1 207 5 discriminator 5 view .LVU558
 2182              		.loc 1 207 5 discriminator 5 view .LVU559
 2183              		.loc 1 207 5 discriminator 5 view .LVU560
 2184 0070 E0B2     		uxtb	r0, r4
 2185 0072 15E0     		b	.L141
 2186              	.LVL231:
 2187              	.L158:
 201:../switch_sdk/core/fal/tiger/fal_tiger_qos.c **** 
 2188              		.loc 1 201 24 is_stmt 0 view .LVU561
 2189 0074 4FF0FF09 		mov	r9, #255
 2190 0078 DAE7     		b	.L142
 2191              	.LVL232:
 2192              	.L161:
 203:../switch_sdk/core/fal/tiger/fal_tiger_qos.c ****     CMM_PARAM_CHK(TRUE < spri.dei, CMM_ERR_INPUT);
 2193              		.loc 1 203 5 is_stmt 1 discriminator 1 view .LVU562
 203:../switch_sdk/core/fal/tiger/fal_tiger_qos.c ****     CMM_PARAM_CHK(TRUE < spri.dei, CMM_ERR_INPUT);
 2194              		.loc 1 203 5 discriminator 1 view .LVU563
 2195 007a 5B4B     		ldr	r3, .L172+8
 2196 007c 1B78     		ldrb	r3, [r3]	@ zero_extendqisi2
 2197 007e 012B     		cmp	r3, #1
 2198 0080 01D8     		bhi	.L165
 2199              	.LVL233:
 2200              	.L144:
 203:../switch_sdk/core/fal/tiger/fal_tiger_qos.c ****     CMM_PARAM_CHK(TRUE < spri.dei, CMM_ERR_INPUT);
 2201              		.loc 1 203 5 discriminator 5 view .LVU564
 203:../switch_sdk/core/fal/tiger/fal_tiger_qos.c ****     CMM_PARAM_CHK(TRUE < spri.dei, CMM_ERR_INPUT);
 2202              		.loc 1 203 5 discriminator 5 view .LVU565
 203:../switch_sdk/core/fal/tiger/fal_tiger_qos.c ****     CMM_PARAM_CHK(TRUE < spri.dei, CMM_ERR_INPUT);
 2203              		.loc 1 203 5 discriminator 5 view .LVU566
 2204 0082 0520     		movs	r0, #5
 2205 0084 0CE0     		b	.L141
 2206              	.LVL234:
 2207              	.L165:
 203:../switch_sdk/core/fal/tiger/fal_tiger_qos.c ****     CMM_PARAM_CHK(TRUE < spri.dei, CMM_ERR_INPUT);
 2208              		.loc 1 203 5 discriminator 3 view .LVU567
 2209              	.LBB39:
 203:../switch_sdk/core/fal/tiger/fal_tiger_qos.c ****     CMM_PARAM_CHK(TRUE < spri.dei, CMM_ERR_INPUT);
 2210              		.loc 1 203 5 discriminator 3 view .LVU568
 2211 0086 594B     		ldr	r3, .L172+12
 2212 0088 5A69     		ldr	r2, [r3, #20]
 2213 008a 594B     		ldr	r3, .L172+16
 2214 008c 9968     		ldr	r1, [r3, #8]
 2215 008e 5948     		ldr	r0, .L172+20
 2216              	.LVL235:
 203:../switch_sdk/core/fal/tiger/fal_tiger_qos.c ****     CMM_PARAM_CHK(TRUE < spri.dei, CMM_ERR_INPUT);
 2217              		.loc 1 203 5 is_stmt 0 discriminator 3 view .LVU569
 2218 0090 FFF7FEFF 		bl	osal_printf
 2219              	.LVL236:
 2220 0094 F5E7     		b	.L144
 2221              	.LVL237:
 2222              	.L162:
 203:../switch_sdk/core/fal/tiger/fal_tiger_qos.c ****     CMM_PARAM_CHK(TRUE < spri.dei, CMM_ERR_INPUT);
 2223              		.loc 1 203 5 discriminator 3 view .LVU570
 2224              	.LBE39:
 204:../switch_sdk/core/fal/tiger/fal_tiger_qos.c ****     CMM_PARAM_CHK(CAL_MAX_VALUE_INT_PRI(unit) < spri.prio, CMM_ERR_INPUT);
 2225              		.loc 1 204 5 is_stmt 1 discriminator 1 view .LVU571
 204:../switch_sdk/core/fal/tiger/fal_tiger_qos.c ****     CMM_PARAM_CHK(CAL_MAX_VALUE_INT_PRI(unit) < spri.prio, CMM_ERR_INPUT);
 2226              		.loc 1 204 5 discriminator 1 view .LVU572
 2227 0096 544B     		ldr	r3, .L172+8
 2228 0098 1B78     		ldrb	r3, [r3]	@ zero_extendqisi2
 2229 009a 012B     		cmp	r3, #1
 2230 009c 03D8     		bhi	.L166
 2231              	.LVL238:
 2232              	.L147:
 204:../switch_sdk/core/fal/tiger/fal_tiger_qos.c ****     CMM_PARAM_CHK(CAL_MAX_VALUE_INT_PRI(unit) < spri.prio, CMM_ERR_INPUT);
 2233              		.loc 1 204 5 discriminator 5 view .LVU573
 204:../switch_sdk/core/fal/tiger/fal_tiger_qos.c ****     CMM_PARAM_CHK(CAL_MAX_VALUE_INT_PRI(unit) < spri.prio, CMM_ERR_INPUT);
 2234              		.loc 1 204 5 discriminator 5 view .LVU574
 204:../switch_sdk/core/fal/tiger/fal_tiger_qos.c ****     CMM_PARAM_CHK(CAL_MAX_VALUE_INT_PRI(unit) < spri.prio, CMM_ERR_INPUT);
 2235              		.loc 1 204 5 discriminator 5 view .LVU575
 2236 009e 0520     		movs	r0, #5
 2237              	.LVL239:
 2238              	.L141:
 208:../switch_sdk/core/fal/tiger/fal_tiger_qos.c ****     HAL_FIELD_SET(QOS_PORT_CTRLNm, QOS_PORT_CTRLN_SPRI_MAP_SELf, &port_entry, SPRI_MAP_INDEX);
 209:../switch_sdk/core/fal/tiger/fal_tiger_qos.c ****     CMM_ERR_CHK(HAL_TBL_REG_WRITE(unit, QOS_PORT_CTRLNm, macid, sizeof(qos_port_ctrln_t), &port_ent
 210:../switch_sdk/core/fal/tiger/fal_tiger_qos.c **** 
 211:../switch_sdk/core/fal/tiger/fal_tiger_qos.c ****     index = (SPRI_MAP_INDEX << 4) + (spri.dei<<3) + spri.prio;
 212:../switch_sdk/core/fal/tiger/fal_tiger_qos.c ****     CMM_ERR_CHK(HAL_TBL_REG_READ(unit, PRI_TO_INT_PRIO_MAPm, index,sizeof(pri_to_int_prio_map_t), &
 213:../switch_sdk/core/fal/tiger/fal_tiger_qos.c ****     HAL_FIELD_SET(PRI_TO_INT_PRIO_MAPm, PRI_TO_INT_PRIO_MAP_INT_PRIOf, &pri_entry, pri);
 214:../switch_sdk/core/fal/tiger/fal_tiger_qos.c ****     CMM_ERR_CHK(HAL_TBL_REG_WRITE(unit, PRI_TO_INT_PRIO_MAPm, index,sizeof(pri_to_int_prio_map_t), 
 215:../switch_sdk/core/fal/tiger/fal_tiger_qos.c **** 
 216:../switch_sdk/core/fal/tiger/fal_tiger_qos.c ****     return CMM_ERR_OK;
 217:../switch_sdk/core/fal/tiger/fal_tiger_qos.c **** }
 2239              		.loc 1 217 1 is_stmt 0 view .LVU576
 2240 00a0 07B0     		add	sp, sp, #28
 2241              		.cfi_remember_state
 2242              		.cfi_def_cfa_offset 28
 2243              		@ sp needed
 2244 00a2 BDE8F083 		pop	{r4, r5, r6, r7, r8, r9, pc}
 2245              	.LVL240:
 2246              	.L166:
 2247              		.cfi_restore_state
 204:../switch_sdk/core/fal/tiger/fal_tiger_qos.c ****     CMM_PARAM_CHK(CAL_MAX_VALUE_INT_PRI(unit) < spri.prio, CMM_ERR_INPUT);
 2248              		.loc 1 204 5 is_stmt 1 discriminator 3 view .LVU577
 2249              	.LBB40:
 204:../switch_sdk/core/fal/tiger/fal_tiger_qos.c ****     CMM_PARAM_CHK(CAL_MAX_VALUE_INT_PRI(unit) < spri.prio, CMM_ERR_INPUT);
 2250              		.loc 1 204 5 discriminator 3 view .LVU578
 2251 00a6 514B     		ldr	r3, .L172+12
 2252 00a8 5A69     		ldr	r2, [r3, #20]
 2253 00aa 514B     		ldr	r3, .L172+16
 2254 00ac 9968     		ldr	r1, [r3, #8]
 2255 00ae 5148     		ldr	r0, .L172+20
 2256              	.LVL241:
 204:../switch_sdk/core/fal/tiger/fal_tiger_qos.c ****     CMM_PARAM_CHK(CAL_MAX_VALUE_INT_PRI(unit) < spri.prio, CMM_ERR_INPUT);
 2257              		.loc 1 204 5 is_stmt 0 discriminator 3 view .LVU579
 2258 00b0 FFF7FEFF 		bl	osal_printf
 2259              	.LVL242:
 2260 00b4 F3E7     		b	.L147
 2261              	.LVL243:
 2262              	.L163:
 204:../switch_sdk/core/fal/tiger/fal_tiger_qos.c ****     CMM_PARAM_CHK(CAL_MAX_VALUE_INT_PRI(unit) < spri.prio, CMM_ERR_INPUT);
 2263              		.loc 1 204 5 discriminator 3 view .LVU580
 2264              	.LBE40:
 205:../switch_sdk/core/fal/tiger/fal_tiger_qos.c **** 
 2265              		.loc 1 205 5 is_stmt 1 discriminator 1 view .LVU581
 205:../switch_sdk/core/fal/tiger/fal_tiger_qos.c **** 
 2266              		.loc 1 205 5 discriminator 1 view .LVU582
 2267 00b6 4C4B     		ldr	r3, .L172+8
 2268 00b8 1B78     		ldrb	r3, [r3]	@ zero_extendqisi2
 2269 00ba 012B     		cmp	r3, #1
 2270 00bc 01D8     		bhi	.L167
 2271              	.LVL244:
 2272              	.L149:
 205:../switch_sdk/core/fal/tiger/fal_tiger_qos.c **** 
 2273              		.loc 1 205 5 discriminator 5 view .LVU583
 205:../switch_sdk/core/fal/tiger/fal_tiger_qos.c **** 
 2274              		.loc 1 205 5 discriminator 5 view .LVU584
 205:../switch_sdk/core/fal/tiger/fal_tiger_qos.c **** 
 2275              		.loc 1 205 5 discriminator 5 view .LVU585
 2276 00be 0520     		movs	r0, #5
 2277 00c0 EEE7     		b	.L141
 2278              	.LVL245:
 2279              	.L167:
 205:../switch_sdk/core/fal/tiger/fal_tiger_qos.c **** 
 2280              		.loc 1 205 5 discriminator 3 view .LVU586
 2281              	.LBB41:
 205:../switch_sdk/core/fal/tiger/fal_tiger_qos.c **** 
 2282              		.loc 1 205 5 discriminator 3 view .LVU587
 2283 00c2 4A4B     		ldr	r3, .L172+12
 2284 00c4 5A69     		ldr	r2, [r3, #20]
 2285 00c6 4A4B     		ldr	r3, .L172+16
 2286 00c8 9968     		ldr	r1, [r3, #8]
 2287 00ca 4A48     		ldr	r0, .L172+20
 2288              	.LVL246:
 205:../switch_sdk/core/fal/tiger/fal_tiger_qos.c **** 
 2289              		.loc 1 205 5 is_stmt 0 discriminator 3 view .LVU588
 2290 00cc FFF7FEFF 		bl	osal_printf
 2291              	.LVL247:
 2292 00d0 F5E7     		b	.L149
 2293              	.LVL248:
 2294              	.L164:
 205:../switch_sdk/core/fal/tiger/fal_tiger_qos.c **** 
 2295              		.loc 1 205 5 discriminator 3 view .LVU589
 2296              	.LBE41:
 207:../switch_sdk/core/fal/tiger/fal_tiger_qos.c ****     HAL_FIELD_SET(QOS_PORT_CTRLNm, QOS_PORT_CTRLN_SPRI_MAP_SELf, &port_entry, SPRI_MAP_INDEX);
 2297              		.loc 1 207 5 is_stmt 1 discriminator 3 view .LVU590
 2298              	.LBB42:
 207:../switch_sdk/core/fal/tiger/fal_tiger_qos.c ****     HAL_FIELD_SET(QOS_PORT_CTRLNm, QOS_PORT_CTRLN_SPRI_MAP_SELf, &port_entry, SPRI_MAP_INDEX);
 2299              		.loc 1 207 5 discriminator 3 view .LVU591
 2300 00d2 142B     		cmp	r3, #20
 2301 00d4 28BF     		it	cs
 2302 00d6 1423     		movcs	r3, #20
 2303 00d8 1A46     		mov	r2, r3
 2304 00da 474B     		ldr	r3, .L172+24
 2305 00dc 0093     		str	r3, [sp]
 2306 00de 474B     		ldr	r3, .L172+28
 2307 00e0 4249     		ldr	r1, .L172+12
 2308 00e2 51F82220 		ldr	r2, [r1, r2, lsl #2]
 2309 00e6 4249     		ldr	r1, .L172+16
 2310 00e8 8968     		ldr	r1, [r1, #8]
 2311 00ea 4548     		ldr	r0, .L172+32
 2312              	.LVL249:
 207:../switch_sdk/core/fal/tiger/fal_tiger_qos.c ****     HAL_FIELD_SET(QOS_PORT_CTRLNm, QOS_PORT_CTRLN_SPRI_MAP_SELf, &port_entry, SPRI_MAP_INDEX);
 2313              		.loc 1 207 5 is_stmt 0 discriminator 3 view .LVU592
 2314 00ec FFF7FEFF 		bl	osal_printf
 2315              	.LVL250:
 2316 00f0 BEE7     		b	.L151
 2317              	.LVL251:
 2318              	.L150:
 207:../switch_sdk/core/fal/tiger/fal_tiger_qos.c ****     HAL_FIELD_SET(QOS_PORT_CTRLNm, QOS_PORT_CTRLN_SPRI_MAP_SELf, &port_entry, SPRI_MAP_INDEX);
 2319              		.loc 1 207 5 discriminator 3 view .LVU593
 2320              	.LBE42:
 207:../switch_sdk/core/fal/tiger/fal_tiger_qos.c ****     HAL_FIELD_SET(QOS_PORT_CTRLNm, QOS_PORT_CTRLN_SPRI_MAP_SELf, &port_entry, SPRI_MAP_INDEX);
 2321              		.loc 1 207 5 is_stmt 1 discriminator 2 view .LVU594
 208:../switch_sdk/core/fal/tiger/fal_tiger_qos.c ****     HAL_FIELD_SET(QOS_PORT_CTRLNm, QOS_PORT_CTRLN_SPRI_MAP_SELf, &port_entry, SPRI_MAP_INDEX);
 2322              		.loc 1 208 5 discriminator 2 view .LVU595
 2323 00f2 05AC     		add	r4, sp, #20
 2324 00f4 0123     		movs	r3, #1
 2325 00f6 2246     		mov	r2, r4
 2326 00f8 1946     		mov	r1, r3
 2327 00fa 7020     		movs	r0, #112
 2328              	.LVL252:
 208:../switch_sdk/core/fal/tiger/fal_tiger_qos.c ****     HAL_FIELD_SET(QOS_PORT_CTRLNm, QOS_PORT_CTRLN_SPRI_MAP_SELf, &port_entry, SPRI_MAP_INDEX);
 2329              		.loc 1 208 5 is_stmt 0 discriminator 2 view .LVU596
 2330 00fc FFF7FEFF 		bl	hal_tbl_reg_field_set
 2331              	.LVL253:
 209:../switch_sdk/core/fal/tiger/fal_tiger_qos.c **** 
 2332              		.loc 1 209 5 is_stmt 1 discriminator 2 view .LVU597
 209:../switch_sdk/core/fal/tiger/fal_tiger_qos.c **** 
 2333              		.loc 1 209 5 discriminator 2 view .LVU598
 2334 0100 0094     		str	r4, [sp]
 2335 0102 0423     		movs	r3, #4
 2336 0104 4A46     		mov	r2, r9
 2337 0106 7021     		movs	r1, #112
 2338 0108 2846     		mov	r0, r5
 2339 010a FFF7FEFF 		bl	hal_table_reg_write
 2340              	.LVL254:
 2341 010e 0446     		mov	r4, r0
 2342              	.LVL255:
 209:../switch_sdk/core/fal/tiger/fal_tiger_qos.c **** 
 2343              		.loc 1 209 5 is_stmt 0 discriminator 2 view .LVU599
 2344 0110 10F0FF03 		ands	r3, r0, #255
 2345 0114 15D0     		beq	.L152
 209:../switch_sdk/core/fal/tiger/fal_tiger_qos.c **** 
 2346              		.loc 1 209 5 is_stmt 1 discriminator 1 view .LVU600
 209:../switch_sdk/core/fal/tiger/fal_tiger_qos.c **** 
 2347              		.loc 1 209 5 discriminator 1 view .LVU601
 2348 0116 344A     		ldr	r2, .L172+8
 2349 0118 1278     		ldrb	r2, [r2]	@ zero_extendqisi2
 2350 011a 012A     		cmp	r2, #1
 2351 011c 01D8     		bhi	.L168
 2352              	.LVL256:
 2353              	.L153:
 209:../switch_sdk/core/fal/tiger/fal_tiger_qos.c **** 
 2354              		.loc 1 209 5 discriminator 5 view .LVU602
 209:../switch_sdk/core/fal/tiger/fal_tiger_qos.c **** 
 2355              		.loc 1 209 5 discriminator 5 view .LVU603
 209:../switch_sdk/core/fal/tiger/fal_tiger_qos.c **** 
 2356              		.loc 1 209 5 discriminator 5 view .LVU604
 2357 011e E0B2     		uxtb	r0, r4
 2358 0120 BEE7     		b	.L141
 2359              	.LVL257:
 2360              	.L168:
 209:../switch_sdk/core/fal/tiger/fal_tiger_qos.c **** 
 2361              		.loc 1 209 5 discriminator 3 view .LVU605
 2362              	.LBB43:
 209:../switch_sdk/core/fal/tiger/fal_tiger_qos.c **** 
 2363              		.loc 1 209 5 discriminator 3 view .LVU606
 2364 0122 142B     		cmp	r3, #20
 2365 0124 28BF     		it	cs
 2366 0126 1423     		movcs	r3, #20
 2367 0128 1A46     		mov	r2, r3
 2368 012a 334B     		ldr	r3, .L172+24
 2369 012c 0093     		str	r3, [sp]
 2370 012e 354B     		ldr	r3, .L172+36
 2371 0130 2E49     		ldr	r1, .L172+12
 2372 0132 51F82220 		ldr	r2, [r1, r2, lsl #2]
 2373 0136 2E49     		ldr	r1, .L172+16
 2374 0138 8968     		ldr	r1, [r1, #8]
 2375 013a 3148     		ldr	r0, .L172+32
 2376              	.LVL258:
 209:../switch_sdk/core/fal/tiger/fal_tiger_qos.c **** 
 2377              		.loc 1 209 5 is_stmt 0 discriminator 3 view .LVU607
 2378 013c FFF7FEFF 		bl	osal_printf
 2379              	.LVL259:
 2380 0140 EDE7     		b	.L153
 2381              	.LVL260:
 2382              	.L152:
 209:../switch_sdk/core/fal/tiger/fal_tiger_qos.c **** 
 2383              		.loc 1 209 5 discriminator 3 view .LVU608
 2384              	.LBE43:
 209:../switch_sdk/core/fal/tiger/fal_tiger_qos.c **** 
 2385              		.loc 1 209 5 is_stmt 1 discriminator 2 view .LVU609
 211:../switch_sdk/core/fal/tiger/fal_tiger_qos.c ****     CMM_ERR_CHK(HAL_TBL_REG_READ(unit, PRI_TO_INT_PRIO_MAPm, index,sizeof(pri_to_int_prio_map_t), &
 2386              		.loc 1 211 5 discriminator 2 view .LVU610
 211:../switch_sdk/core/fal/tiger/fal_tiger_qos.c ****     CMM_ERR_CHK(HAL_TBL_REG_READ(unit, PRI_TO_INT_PRIO_MAPm, index,sizeof(pri_to_int_prio_map_t), &
 2387              		.loc 1 211 46 is_stmt 0 discriminator 2 view .LVU611
 2388 0142 FF00     		lsls	r7, r7, #3
 211:../switch_sdk/core/fal/tiger/fal_tiger_qos.c ****     CMM_ERR_CHK(HAL_TBL_REG_READ(unit, PRI_TO_INT_PRIO_MAPm, index,sizeof(pri_to_int_prio_map_t), &
 2389              		.loc 1 211 35 discriminator 2 view .LVU612
 2390 0144 1037     		adds	r7, r7, #16
 211:../switch_sdk/core/fal/tiger/fal_tiger_qos.c ****     CMM_ERR_CHK(HAL_TBL_REG_READ(unit, PRI_TO_INT_PRIO_MAPm, index,sizeof(pri_to_int_prio_map_t), &
 2391              		.loc 1 211 51 discriminator 2 view .LVU613
 2392 0146 4744     		add	r7, r7, r8
 2393              	.LVL261:
 212:../switch_sdk/core/fal/tiger/fal_tiger_qos.c ****     HAL_FIELD_SET(PRI_TO_INT_PRIO_MAPm, PRI_TO_INT_PRIO_MAP_INT_PRIOf, &pri_entry, pri);
 2394              		.loc 1 212 5 is_stmt 1 discriminator 2 view .LVU614
 212:../switch_sdk/core/fal/tiger/fal_tiger_qos.c ****     HAL_FIELD_SET(PRI_TO_INT_PRIO_MAPm, PRI_TO_INT_PRIO_MAP_INT_PRIOf, &pri_entry, pri);
 2395              		.loc 1 212 5 discriminator 2 view .LVU615
 2396 0148 04AB     		add	r3, sp, #16
 2397 014a 0093     		str	r3, [sp]
 2398 014c 0423     		movs	r3, #4
 2399 014e 3A46     		mov	r2, r7
 2400 0150 6F21     		movs	r1, #111
 2401 0152 2846     		mov	r0, r5
 2402              	.LVL262:
 212:../switch_sdk/core/fal/tiger/fal_tiger_qos.c ****     HAL_FIELD_SET(PRI_TO_INT_PRIO_MAPm, PRI_TO_INT_PRIO_MAP_INT_PRIOf, &pri_entry, pri);
 2403              		.loc 1 212 5 is_stmt 0 discriminator 2 view .LVU616
 2404 0154 FFF7FEFF 		bl	hal_table_reg_read
 2405              	.LVL263:
 2406 0158 0446     		mov	r4, r0
 2407              	.LVL264:
 212:../switch_sdk/core/fal/tiger/fal_tiger_qos.c ****     HAL_FIELD_SET(PRI_TO_INT_PRIO_MAPm, PRI_TO_INT_PRIO_MAP_INT_PRIOf, &pri_entry, pri);
 2408              		.loc 1 212 5 discriminator 2 view .LVU617
 2409 015a 10F0FF03 		ands	r3, r0, #255
 2410 015e 15D0     		beq	.L154
 212:../switch_sdk/core/fal/tiger/fal_tiger_qos.c ****     HAL_FIELD_SET(PRI_TO_INT_PRIO_MAPm, PRI_TO_INT_PRIO_MAP_INT_PRIOf, &pri_entry, pri);
 2411              		.loc 1 212 5 is_stmt 1 discriminator 1 view .LVU618
 212:../switch_sdk/core/fal/tiger/fal_tiger_qos.c ****     HAL_FIELD_SET(PRI_TO_INT_PRIO_MAPm, PRI_TO_INT_PRIO_MAP_INT_PRIOf, &pri_entry, pri);
 2412              		.loc 1 212 5 discriminator 1 view .LVU619
 2413 0160 214A     		ldr	r2, .L172+8
 2414 0162 1278     		ldrb	r2, [r2]	@ zero_extendqisi2
 2415 0164 012A     		cmp	r2, #1
 2416 0166 01D8     		bhi	.L169
 2417              	.LVL265:
 2418              	.L155:
 212:../switch_sdk/core/fal/tiger/fal_tiger_qos.c ****     HAL_FIELD_SET(PRI_TO_INT_PRIO_MAPm, PRI_TO_INT_PRIO_MAP_INT_PRIOf, &pri_entry, pri);
 2419              		.loc 1 212 5 discriminator 5 view .LVU620
 212:../switch_sdk/core/fal/tiger/fal_tiger_qos.c ****     HAL_FIELD_SET(PRI_TO_INT_PRIO_MAPm, PRI_TO_INT_PRIO_MAP_INT_PRIOf, &pri_entry, pri);
 2420              		.loc 1 212 5 discriminator 5 view .LVU621
 212:../switch_sdk/core/fal/tiger/fal_tiger_qos.c ****     HAL_FIELD_SET(PRI_TO_INT_PRIO_MAPm, PRI_TO_INT_PRIO_MAP_INT_PRIOf, &pri_entry, pri);
 2421              		.loc 1 212 5 discriminator 5 view .LVU622
 2422 0168 E0B2     		uxtb	r0, r4
 2423 016a 99E7     		b	.L141
 2424              	.LVL266:
 2425              	.L169:
 212:../switch_sdk/core/fal/tiger/fal_tiger_qos.c ****     HAL_FIELD_SET(PRI_TO_INT_PRIO_MAPm, PRI_TO_INT_PRIO_MAP_INT_PRIOf, &pri_entry, pri);
 2426              		.loc 1 212 5 discriminator 3 view .LVU623
 2427              	.LBB44:
 212:../switch_sdk/core/fal/tiger/fal_tiger_qos.c ****     HAL_FIELD_SET(PRI_TO_INT_PRIO_MAPm, PRI_TO_INT_PRIO_MAP_INT_PRIOf, &pri_entry, pri);
 2428              		.loc 1 212 5 discriminator 3 view .LVU624
 2429 016c 142B     		cmp	r3, #20
 2430 016e 28BF     		it	cs
 2431 0170 1423     		movcs	r3, #20
 2432 0172 1A46     		mov	r2, r3
 2433 0174 204B     		ldr	r3, .L172+24
 2434 0176 0093     		str	r3, [sp]
 2435 0178 234B     		ldr	r3, .L172+40
 2436 017a 1C49     		ldr	r1, .L172+12
 2437 017c 51F82220 		ldr	r2, [r1, r2, lsl #2]
 2438 0180 1B49     		ldr	r1, .L172+16
 2439 0182 8968     		ldr	r1, [r1, #8]
 2440 0184 1E48     		ldr	r0, .L172+32
 2441              	.LVL267:
 212:../switch_sdk/core/fal/tiger/fal_tiger_qos.c ****     HAL_FIELD_SET(PRI_TO_INT_PRIO_MAPm, PRI_TO_INT_PRIO_MAP_INT_PRIOf, &pri_entry, pri);
 2442              		.loc 1 212 5 is_stmt 0 discriminator 3 view .LVU625
 2443 0186 FFF7FEFF 		bl	osal_printf
 2444              	.LVL268:
 2445 018a EDE7     		b	.L155
 2446              	.LVL269:
 2447              	.L154:
 212:../switch_sdk/core/fal/tiger/fal_tiger_qos.c ****     HAL_FIELD_SET(PRI_TO_INT_PRIO_MAPm, PRI_TO_INT_PRIO_MAP_INT_PRIOf, &pri_entry, pri);
 2448              		.loc 1 212 5 discriminator 3 view .LVU626
 2449              	.LBE44:
 212:../switch_sdk/core/fal/tiger/fal_tiger_qos.c ****     HAL_FIELD_SET(PRI_TO_INT_PRIO_MAPm, PRI_TO_INT_PRIO_MAP_INT_PRIOf, &pri_entry, pri);
 2450              		.loc 1 212 5 is_stmt 1 discriminator 2 view .LVU627
 213:../switch_sdk/core/fal/tiger/fal_tiger_qos.c ****     CMM_ERR_CHK(HAL_TBL_REG_WRITE(unit, PRI_TO_INT_PRIO_MAPm, index,sizeof(pri_to_int_prio_map_t), 
 2451              		.loc 1 213 5 discriminator 2 view .LVU628
 2452 018c 04AC     		add	r4, sp, #16
 2453 018e 3346     		mov	r3, r6
 2454 0190 2246     		mov	r2, r4
 2455 0192 0021     		movs	r1, #0
 2456 0194 6F20     		movs	r0, #111
 2457              	.LVL270:
 213:../switch_sdk/core/fal/tiger/fal_tiger_qos.c ****     CMM_ERR_CHK(HAL_TBL_REG_WRITE(unit, PRI_TO_INT_PRIO_MAPm, index,sizeof(pri_to_int_prio_map_t), 
 2458              		.loc 1 213 5 is_stmt 0 discriminator 2 view .LVU629
 2459 0196 FFF7FEFF 		bl	hal_tbl_reg_field_set
 2460              	.LVL271:
 214:../switch_sdk/core/fal/tiger/fal_tiger_qos.c **** 
 2461              		.loc 1 214 5 is_stmt 1 discriminator 2 view .LVU630
 214:../switch_sdk/core/fal/tiger/fal_tiger_qos.c **** 
 2462              		.loc 1 214 5 discriminator 2 view .LVU631
 2463 019a 0094     		str	r4, [sp]
 2464 019c 0423     		movs	r3, #4
 2465 019e 3A46     		mov	r2, r7
 2466 01a0 6F21     		movs	r1, #111
 2467 01a2 2846     		mov	r0, r5
 2468 01a4 FFF7FEFF 		bl	hal_table_reg_write
 2469              	.LVL272:
 2470 01a8 0446     		mov	r4, r0
 2471              	.LVL273:
 214:../switch_sdk/core/fal/tiger/fal_tiger_qos.c **** 
 2472              		.loc 1 214 5 is_stmt 0 discriminator 2 view .LVU632
 2473 01aa 10F0FF03 		ands	r3, r0, #255
 2474 01ae 01D1     		bne	.L170
 216:../switch_sdk/core/fal/tiger/fal_tiger_qos.c **** }
 2475              		.loc 1 216 12 view .LVU633
 2476 01b0 0020     		movs	r0, #0
 2477              	.LVL274:
 216:../switch_sdk/core/fal/tiger/fal_tiger_qos.c **** }
 2478              		.loc 1 216 12 view .LVU634
 2479 01b2 75E7     		b	.L141
 2480              	.LVL275:
 2481              	.L170:
 214:../switch_sdk/core/fal/tiger/fal_tiger_qos.c **** 
 2482              		.loc 1 214 5 is_stmt 1 discriminator 1 view .LVU635
 214:../switch_sdk/core/fal/tiger/fal_tiger_qos.c **** 
 2483              		.loc 1 214 5 discriminator 1 view .LVU636
 2484 01b4 0C4A     		ldr	r2, .L172+8
 2485 01b6 1278     		ldrb	r2, [r2]	@ zero_extendqisi2
 2486 01b8 012A     		cmp	r2, #1
 2487 01ba 01D8     		bhi	.L171
 2488              	.LVL276:
 2489              	.L156:
 214:../switch_sdk/core/fal/tiger/fal_tiger_qos.c **** 
 2490              		.loc 1 214 5 discriminator 5 view .LVU637
 214:../switch_sdk/core/fal/tiger/fal_tiger_qos.c **** 
 2491              		.loc 1 214 5 discriminator 5 view .LVU638
 214:../switch_sdk/core/fal/tiger/fal_tiger_qos.c **** 
 2492              		.loc 1 214 5 discriminator 5 view .LVU639
 2493 01bc E0B2     		uxtb	r0, r4
 2494 01be 6FE7     		b	.L141
 2495              	.LVL277:
 2496              	.L171:
 214:../switch_sdk/core/fal/tiger/fal_tiger_qos.c **** 
 2497              		.loc 1 214 5 discriminator 3 view .LVU640
 2498              	.LBB45:
 214:../switch_sdk/core/fal/tiger/fal_tiger_qos.c **** 
 2499              		.loc 1 214 5 discriminator 3 view .LVU641
 2500 01c0 142B     		cmp	r3, #20
 2501 01c2 28BF     		it	cs
 2502 01c4 1423     		movcs	r3, #20
 2503 01c6 1A46     		mov	r2, r3
 2504 01c8 0B4B     		ldr	r3, .L172+24
 2505 01ca 0093     		str	r3, [sp]
 2506 01cc 0F4B     		ldr	r3, .L172+44
 2507 01ce 0749     		ldr	r1, .L172+12
 2508 01d0 51F82220 		ldr	r2, [r1, r2, lsl #2]
 2509 01d4 0649     		ldr	r1, .L172+16
 2510 01d6 8968     		ldr	r1, [r1, #8]
 2511 01d8 0948     		ldr	r0, .L172+32
 2512              	.LVL278:
 214:../switch_sdk/core/fal/tiger/fal_tiger_qos.c **** 
 2513              		.loc 1 214 5 is_stmt 0 discriminator 3 view .LVU642
 2514 01da FFF7FEFF 		bl	osal_printf
 2515              	.LVL279:
 2516 01de EDE7     		b	.L156
 2517              	.L173:
 2518              		.align	2
 2519              	.L172:
 2520 01e0 00000000 		.word	gcal_inited
 2521 01e4 00000000 		.word	gpSwitchUnit
 2522 01e8 00000000 		.word	yt_debug_level
 2523 01ec 00000000 		.word	_yt_errmsg
 2524 01f0 00000000 		.word	_yt_prompt_msg
 2525 01f4 00000000 		.word	.LC0
 2526 01f8 00000000 		.word	__FUNCTION__.39
 2527 01fc 00000000 		.word	.LC6
 2528 0200 58000000 		.word	.LC2
 2529 0204 48000000 		.word	.LC7
 2530 0208 94000000 		.word	.LC8
 2531 020c E0000000 		.word	.LC9
 2532              	.LBE45:
 2533              		.cfi_endproc
 2534              	.LFE9:
 2536              		.section	.text.fal_tiger_qos_intPri_spri_map_get,"ax",%progbits
 2537              		.align	1
 2538              		.global	fal_tiger_qos_intPri_spri_map_get
 2539              		.syntax unified
 2540              		.thumb
 2541              		.thumb_func
 2543              	fal_tiger_qos_intPri_spri_map_get:
 2544              	.LVL280:
 2545              	.LFB10:
 218:../switch_sdk/core/fal/tiger/fal_tiger_qos.c **** 
 219:../switch_sdk/core/fal/tiger/fal_tiger_qos.c **** yt_ret_t fal_tiger_qos_intPri_spri_map_get(yt_unit_t unit, yt_port_t port, yt_qos_pmap_tci_t spri, 
 220:../switch_sdk/core/fal/tiger/fal_tiger_qos.c **** {
 2546              		.loc 1 220 1 is_stmt 1 view -0
 2547              		.cfi_startproc
 2548              		@ args = 0, pretend = 0, frame = 24
 2549              		@ frame_needed = 0, uses_anonymous_args = 0
 2550              		.loc 1 220 1 is_stmt 0 view .LVU644
 2551 0000 2DE9F041 		push	{r4, r5, r6, r7, r8, lr}
 2552              		.cfi_def_cfa_offset 24
 2553              		.cfi_offset 4, -24
 2554              		.cfi_offset 5, -20
 2555              		.cfi_offset 6, -16
 2556              		.cfi_offset 7, -12
 2557              		.cfi_offset 8, -8
 2558              		.cfi_offset 14, -4
 2559 0004 88B0     		sub	sp, sp, #32
 2560              		.cfi_def_cfa_offset 56
 2561 0006 0546     		mov	r5, r0
 2562 0008 ADF80C20 		strh	r2, [sp, #12]	@ movhi
 2563 000c 1E46     		mov	r6, r3
 221:../switch_sdk/core/fal/tiger/fal_tiger_qos.c ****     qos_port_ctrln_t port_entry;
 2564              		.loc 1 221 5 is_stmt 1 view .LVU645
 222:../switch_sdk/core/fal/tiger/fal_tiger_qos.c ****     pri_to_int_prio_map_t pri_entry;
 2565              		.loc 1 222 5 view .LVU646
 223:../switch_sdk/core/fal/tiger/fal_tiger_qos.c ****     cmm_err_t ret = CMM_ERR_OK;
 2566              		.loc 1 223 5 view .LVU647
 2567              	.LVL281:
 224:../switch_sdk/core/fal/tiger/fal_tiger_qos.c ****     yt_pri_index_t pri_map_sel;
 2568              		.loc 1 224 5 view .LVU648
 225:../switch_sdk/core/fal/tiger/fal_tiger_qos.c ****     uint32_t index;
 2569              		.loc 1 225 5 view .LVU649
 226:../switch_sdk/core/fal/tiger/fal_tiger_qos.c ****     yt_macid_t macid = CAL_YTP_TO_MAC(unit, port);
 2570              		.loc 1 226 5 view .LVU650
 2571              		.loc 1 226 24 is_stmt 0 view .LVU651
 2572 000e 4B4B     		ldr	r3, .L194
 2573              	.LVL282:
 2574              		.loc 1 226 24 view .LVU652
 2575 0010 1B78     		ldrb	r3, [r3]	@ zero_extendqisi2
 2576 0012 53B1     		cbz	r3, .L185
 2577              		.loc 1 226 24 discriminator 1 view .LVU653
 2578 0014 4A4B     		ldr	r3, .L194+4
 2579 0016 53F82030 		ldr	r3, [r3, r0, lsl #2]
 2580 001a 1A7D     		ldrb	r2, [r3, #20]	@ zero_extendqisi2
 2581 001c 8A42     		cmp	r2, r1
 2582 001e 24D9     		bls	.L186
 2583              		.loc 1 226 24 discriminator 3 view .LVU654
 2584 0020 0631     		adds	r1, r1, #6
 2585              	.LVL283:
 2586              		.loc 1 226 24 discriminator 3 view .LVU655
 2587 0022 53F82130 		ldr	r3, [r3, r1, lsl #2]
 2588 0026 1A78     		ldrb	r2, [r3]	@ zero_extendqisi2
 2589 0028 00E0     		b	.L175
 2590              	.LVL284:
 2591              	.L185:
 2592              		.loc 1 226 24 view .LVU656
 2593 002a FF22     		movs	r2, #255
 2594              	.LVL285:
 2595              	.L175:
 227:../switch_sdk/core/fal/tiger/fal_tiger_qos.c ****     uint32_t pri;
 2596              		.loc 1 227 5 is_stmt 1 discriminator 6 view .LVU657
 228:../switch_sdk/core/fal/tiger/fal_tiger_qos.c **** 
 229:../switch_sdk/core/fal/tiger/fal_tiger_qos.c ****     CMM_PARAM_CHK(TRUE < spri.dei, CMM_ERR_INPUT);
 2597              		.loc 1 229 5 discriminator 6 view .LVU658
 2598              		.loc 1 229 5 discriminator 6 view .LVU659
 2599 002c 9DF80C70 		ldrb	r7, [sp, #12]	@ zero_extendqisi2
 2600 0030 012F     		cmp	r7, #1
 2601 0032 1CD8     		bhi	.L188
 2602              		.loc 1 229 5 discriminator 2 view .LVU660
 230:../switch_sdk/core/fal/tiger/fal_tiger_qos.c ****     CMM_PARAM_CHK(CAL_MAX_VALUE_INT_PRI(unit) < spri.prio, CMM_ERR_INPUT);
 2603              		.loc 1 230 5 discriminator 2 view .LVU661
 2604              		.loc 1 230 5 discriminator 2 view .LVU662
 2605 0034 424B     		ldr	r3, .L194+4
 2606 0036 53F82530 		ldr	r3, [r3, r5, lsl #2]
 2607 003a D3F8AC30 		ldr	r3, [r3, #172]
 2608 003e DB78     		ldrb	r3, [r3, #3]	@ zero_extendqisi2
 2609 0040 9DF80D80 		ldrb	r8, [sp, #13]	@ zero_extendqisi2
 2610 0044 4345     		cmp	r3, r8
 2611 0046 22D3     		bcc	.L189
 2612              		.loc 1 230 5 discriminator 2 view .LVU663
 231:../switch_sdk/core/fal/tiger/fal_tiger_qos.c **** 
 232:../switch_sdk/core/fal/tiger/fal_tiger_qos.c ****     CMM_ERR_CHK(HAL_TBL_REG_READ(unit, QOS_PORT_CTRLNm, macid,sizeof(qos_port_ctrln_t), &port_entry
 2613              		.loc 1 232 5 discriminator 2 view .LVU664
 2614              		.loc 1 232 5 discriminator 2 view .LVU665
 2615 0048 07AB     		add	r3, sp, #28
 2616 004a 0093     		str	r3, [sp]
 2617 004c 0423     		movs	r3, #4
 2618 004e 7021     		movs	r1, #112
 2619 0050 2846     		mov	r0, r5
 2620              	.LVL286:
 2621              		.loc 1 232 5 is_stmt 0 discriminator 2 view .LVU666
 2622 0052 FFF7FEFF 		bl	hal_table_reg_read
 2623              	.LVL287:
 2624              		.loc 1 232 5 discriminator 2 view .LVU667
 2625 0056 0446     		mov	r4, r0
 2626              	.LVL288:
 2627              		.loc 1 232 5 discriminator 2 view .LVU668
 2628 0058 10F0FF03 		ands	r3, r0, #255
 2629 005c 35D0     		beq	.L181
 2630              		.loc 1 232 5 is_stmt 1 discriminator 1 view .LVU669
 2631              		.loc 1 232 5 discriminator 1 view .LVU670
 2632 005e 394A     		ldr	r2, .L194+8
 2633 0060 1278     		ldrb	r2, [r2]	@ zero_extendqisi2
 2634 0062 012A     		cmp	r2, #1
 2635 0064 21D8     		bhi	.L190
 2636              	.LVL289:
 2637              	.L182:
 2638              		.loc 1 232 5 discriminator 5 view .LVU671
 2639              		.loc 1 232 5 discriminator 5 view .LVU672
 2640              		.loc 1 232 5 discriminator 5 view .LVU673
 2641 0066 E0B2     		uxtb	r0, r4
 2642 0068 06E0     		b	.L174
 2643              	.LVL290:
 2644              	.L186:
 226:../switch_sdk/core/fal/tiger/fal_tiger_qos.c ****     uint32_t pri;
 2645              		.loc 1 226 24 is_stmt 0 view .LVU674
 2646 006a FF22     		movs	r2, #255
 2647 006c DEE7     		b	.L175
 2648              	.LVL291:
 2649              	.L188:
 229:../switch_sdk/core/fal/tiger/fal_tiger_qos.c ****     CMM_PARAM_CHK(CAL_MAX_VALUE_INT_PRI(unit) < spri.prio, CMM_ERR_INPUT);
 2650              		.loc 1 229 5 is_stmt 1 discriminator 1 view .LVU675
 229:../switch_sdk/core/fal/tiger/fal_tiger_qos.c ****     CMM_PARAM_CHK(CAL_MAX_VALUE_INT_PRI(unit) < spri.prio, CMM_ERR_INPUT);
 2651              		.loc 1 229 5 discriminator 1 view .LVU676
 2652 006e 354B     		ldr	r3, .L194+8
 2653 0070 1B78     		ldrb	r3, [r3]	@ zero_extendqisi2
 2654 0072 012B     		cmp	r3, #1
 2655 0074 03D8     		bhi	.L191
 2656              	.LVL292:
 2657              	.L177:
 229:../switch_sdk/core/fal/tiger/fal_tiger_qos.c ****     CMM_PARAM_CHK(CAL_MAX_VALUE_INT_PRI(unit) < spri.prio, CMM_ERR_INPUT);
 2658              		.loc 1 229 5 discriminator 5 view .LVU677
 229:../switch_sdk/core/fal/tiger/fal_tiger_qos.c ****     CMM_PARAM_CHK(CAL_MAX_VALUE_INT_PRI(unit) < spri.prio, CMM_ERR_INPUT);
 2659              		.loc 1 229 5 discriminator 5 view .LVU678
 229:../switch_sdk/core/fal/tiger/fal_tiger_qos.c ****     CMM_PARAM_CHK(CAL_MAX_VALUE_INT_PRI(unit) < spri.prio, CMM_ERR_INPUT);
 2660              		.loc 1 229 5 discriminator 5 view .LVU679
 2661 0076 0520     		movs	r0, #5
 2662              	.LVL293:
 2663              	.L174:
 233:../switch_sdk/core/fal/tiger/fal_tiger_qos.c ****     HAL_FIELD_GET(QOS_PORT_CTRLNm, QOS_PORT_CTRLN_SPRI_MAP_SELf, &port_entry, &index);
 234:../switch_sdk/core/fal/tiger/fal_tiger_qos.c ****     pri_map_sel = index;
 235:../switch_sdk/core/fal/tiger/fal_tiger_qos.c ****     
 236:../switch_sdk/core/fal/tiger/fal_tiger_qos.c ****     index = (pri_map_sel << 4) + (spri.dei<<3) + spri.prio;
 237:../switch_sdk/core/fal/tiger/fal_tiger_qos.c ****     CMM_ERR_CHK(HAL_TBL_REG_READ(unit, PRI_TO_INT_PRIO_MAPm, index,sizeof(pri_to_int_prio_map_t), &
 238:../switch_sdk/core/fal/tiger/fal_tiger_qos.c ****     HAL_FIELD_GET(PRI_TO_INT_PRIO_MAPm, PRI_TO_INT_PRIO_MAP_INT_PRIOf, &pri_entry, &pri);
 239:../switch_sdk/core/fal/tiger/fal_tiger_qos.c ****     *pPri = pri;
 240:../switch_sdk/core/fal/tiger/fal_tiger_qos.c **** 
 241:../switch_sdk/core/fal/tiger/fal_tiger_qos.c ****     return CMM_ERR_OK;
 242:../switch_sdk/core/fal/tiger/fal_tiger_qos.c **** }
 2664              		.loc 1 242 1 is_stmt 0 view .LVU680
 2665 0078 08B0     		add	sp, sp, #32
 2666              		.cfi_remember_state
 2667              		.cfi_def_cfa_offset 24
 2668              		@ sp needed
 2669 007a BDE8F081 		pop	{r4, r5, r6, r7, r8, pc}
 2670              	.LVL294:
 2671              	.L191:
 2672              		.cfi_restore_state
 229:../switch_sdk/core/fal/tiger/fal_tiger_qos.c ****     CMM_PARAM_CHK(CAL_MAX_VALUE_INT_PRI(unit) < spri.prio, CMM_ERR_INPUT);
 2673              		.loc 1 229 5 is_stmt 1 discriminator 3 view .LVU681
 2674              	.LBB46:
 229:../switch_sdk/core/fal/tiger/fal_tiger_qos.c ****     CMM_PARAM_CHK(CAL_MAX_VALUE_INT_PRI(unit) < spri.prio, CMM_ERR_INPUT);
 2675              		.loc 1 229 5 discriminator 3 view .LVU682
 2676 007e 324B     		ldr	r3, .L194+12
 2677 0080 5A69     		ldr	r2, [r3, #20]
 2678              	.LVL295:
 229:../switch_sdk/core/fal/tiger/fal_tiger_qos.c ****     CMM_PARAM_CHK(CAL_MAX_VALUE_INT_PRI(unit) < spri.prio, CMM_ERR_INPUT);
 2679              		.loc 1 229 5 is_stmt 0 discriminator 3 view .LVU683
 2680 0082 324B     		ldr	r3, .L194+16
 2681 0084 9968     		ldr	r1, [r3, #8]
 2682 0086 3248     		ldr	r0, .L194+20
 2683              	.LVL296:
 229:../switch_sdk/core/fal/tiger/fal_tiger_qos.c ****     CMM_PARAM_CHK(CAL_MAX_VALUE_INT_PRI(unit) < spri.prio, CMM_ERR_INPUT);
 2684              		.loc 1 229 5 discriminator 3 view .LVU684
 2685 0088 FFF7FEFF 		bl	osal_printf
 2686              	.LVL297:
 2687 008c F3E7     		b	.L177
 2688              	.LVL298:
 2689              	.L189:
 229:../switch_sdk/core/fal/tiger/fal_tiger_qos.c ****     CMM_PARAM_CHK(CAL_MAX_VALUE_INT_PRI(unit) < spri.prio, CMM_ERR_INPUT);
 2690              		.loc 1 229 5 discriminator 3 view .LVU685
 2691              	.LBE46:
 230:../switch_sdk/core/fal/tiger/fal_tiger_qos.c **** 
 2692              		.loc 1 230 5 is_stmt 1 discriminator 1 view .LVU686
 230:../switch_sdk/core/fal/tiger/fal_tiger_qos.c **** 
 2693              		.loc 1 230 5 discriminator 1 view .LVU687
 2694 008e 2D4B     		ldr	r3, .L194+8
 2695 0090 1B78     		ldrb	r3, [r3]	@ zero_extendqisi2
 2696 0092 012B     		cmp	r3, #1
 2697 0094 01D8     		bhi	.L192
 2698              	.LVL299:
 2699              	.L180:
 230:../switch_sdk/core/fal/tiger/fal_tiger_qos.c **** 
 2700              		.loc 1 230 5 discriminator 5 view .LVU688
 230:../switch_sdk/core/fal/tiger/fal_tiger_qos.c **** 
 2701              		.loc 1 230 5 discriminator 5 view .LVU689
 230:../switch_sdk/core/fal/tiger/fal_tiger_qos.c **** 
 2702              		.loc 1 230 5 discriminator 5 view .LVU690
 2703 0096 0520     		movs	r0, #5
 2704 0098 EEE7     		b	.L174
 2705              	.LVL300:
 2706              	.L192:
 230:../switch_sdk/core/fal/tiger/fal_tiger_qos.c **** 
 2707              		.loc 1 230 5 discriminator 3 view .LVU691
 2708              	.LBB47:
 230:../switch_sdk/core/fal/tiger/fal_tiger_qos.c **** 
 2709              		.loc 1 230 5 discriminator 3 view .LVU692
 2710 009a 2B4B     		ldr	r3, .L194+12
 2711 009c 5A69     		ldr	r2, [r3, #20]
 2712              	.LVL301:
 230:../switch_sdk/core/fal/tiger/fal_tiger_qos.c **** 
 2713              		.loc 1 230 5 is_stmt 0 discriminator 3 view .LVU693
 2714 009e 2B4B     		ldr	r3, .L194+16
 2715 00a0 9968     		ldr	r1, [r3, #8]
 2716 00a2 2B48     		ldr	r0, .L194+20
 2717              	.LVL302:
 230:../switch_sdk/core/fal/tiger/fal_tiger_qos.c **** 
 2718              		.loc 1 230 5 discriminator 3 view .LVU694
 2719 00a4 FFF7FEFF 		bl	osal_printf
 2720              	.LVL303:
 2721 00a8 F5E7     		b	.L180
 2722              	.LVL304:
 2723              	.L190:
 230:../switch_sdk/core/fal/tiger/fal_tiger_qos.c **** 
 2724              		.loc 1 230 5 discriminator 3 view .LVU695
 2725              	.LBE47:
 232:../switch_sdk/core/fal/tiger/fal_tiger_qos.c ****     HAL_FIELD_GET(QOS_PORT_CTRLNm, QOS_PORT_CTRLN_SPRI_MAP_SELf, &port_entry, &index);
 2726              		.loc 1 232 5 is_stmt 1 discriminator 3 view .LVU696
 2727              	.LBB48:
 232:../switch_sdk/core/fal/tiger/fal_tiger_qos.c ****     HAL_FIELD_GET(QOS_PORT_CTRLNm, QOS_PORT_CTRLN_SPRI_MAP_SELf, &port_entry, &index);
 2728              		.loc 1 232 5 discriminator 3 view .LVU697
 2729 00aa 142B     		cmp	r3, #20
 2730 00ac 28BF     		it	cs
 2731 00ae 1423     		movcs	r3, #20
 2732 00b0 1A46     		mov	r2, r3
 2733 00b2 284B     		ldr	r3, .L194+24
 2734 00b4 0093     		str	r3, [sp]
 2735 00b6 284B     		ldr	r3, .L194+28
 2736 00b8 2349     		ldr	r1, .L194+12
 2737 00ba 51F82220 		ldr	r2, [r1, r2, lsl #2]
 2738 00be 2349     		ldr	r1, .L194+16
 2739 00c0 8968     		ldr	r1, [r1, #8]
 2740 00c2 2648     		ldr	r0, .L194+32
 2741              	.LVL305:
 232:../switch_sdk/core/fal/tiger/fal_tiger_qos.c ****     HAL_FIELD_GET(QOS_PORT_CTRLNm, QOS_PORT_CTRLN_SPRI_MAP_SELf, &port_entry, &index);
 2742              		.loc 1 232 5 is_stmt 0 discriminator 3 view .LVU698
 2743 00c4 FFF7FEFF 		bl	osal_printf
 2744              	.LVL306:
 2745 00c8 CDE7     		b	.L182
 2746              	.LVL307:
 2747              	.L181:
 232:../switch_sdk/core/fal/tiger/fal_tiger_qos.c ****     HAL_FIELD_GET(QOS_PORT_CTRLNm, QOS_PORT_CTRLN_SPRI_MAP_SELf, &port_entry, &index);
 2748              		.loc 1 232 5 discriminator 3 view .LVU699
 2749              	.LBE48:
 232:../switch_sdk/core/fal/tiger/fal_tiger_qos.c ****     HAL_FIELD_GET(QOS_PORT_CTRLNm, QOS_PORT_CTRLN_SPRI_MAP_SELf, &port_entry, &index);
 2750              		.loc 1 232 5 is_stmt 1 discriminator 2 view .LVU700
 233:../switch_sdk/core/fal/tiger/fal_tiger_qos.c ****     HAL_FIELD_GET(QOS_PORT_CTRLNm, QOS_PORT_CTRLN_SPRI_MAP_SELf, &port_entry, &index);
 2751              		.loc 1 233 5 discriminator 2 view .LVU701
 2752              	.LBB49:
 233:../switch_sdk/core/fal/tiger/fal_tiger_qos.c ****     HAL_FIELD_GET(QOS_PORT_CTRLNm, QOS_PORT_CTRLN_SPRI_MAP_SELf, &port_entry, &index);
 2753              		.loc 1 233 5 discriminator 2 view .LVU702
 233:../switch_sdk/core/fal/tiger/fal_tiger_qos.c ****     HAL_FIELD_GET(QOS_PORT_CTRLNm, QOS_PORT_CTRLN_SPRI_MAP_SELf, &port_entry, &index);
 2754              		.loc 1 233 5 discriminator 2 view .LVU703
 2755 00ca 05AB     		add	r3, sp, #20
 2756 00cc 07AA     		add	r2, sp, #28
 2757 00ce 0121     		movs	r1, #1
 2758 00d0 7020     		movs	r0, #112
 2759              	.LVL308:
 233:../switch_sdk/core/fal/tiger/fal_tiger_qos.c ****     HAL_FIELD_GET(QOS_PORT_CTRLNm, QOS_PORT_CTRLN_SPRI_MAP_SELf, &port_entry, &index);
 2760              		.loc 1 233 5 is_stmt 0 discriminator 2 view .LVU704
 2761 00d2 FFF7FEFF 		bl	hal_tbl_reg_field_get
 2762              	.LVL309:
 233:../switch_sdk/core/fal/tiger/fal_tiger_qos.c ****     HAL_FIELD_GET(QOS_PORT_CTRLNm, QOS_PORT_CTRLN_SPRI_MAP_SELf, &port_entry, &index);
 2763              		.loc 1 233 5 is_stmt 1 discriminator 2 view .LVU705
 2764 00d6 059B     		ldr	r3, [sp, #20]
 2765              	.LVL310:
 233:../switch_sdk/core/fal/tiger/fal_tiger_qos.c ****     HAL_FIELD_GET(QOS_PORT_CTRLNm, QOS_PORT_CTRLN_SPRI_MAP_SELf, &port_entry, &index);
 2766              		.loc 1 233 5 is_stmt 0 discriminator 2 view .LVU706
 2767              	.LBE49:
 233:../switch_sdk/core/fal/tiger/fal_tiger_qos.c ****     HAL_FIELD_GET(QOS_PORT_CTRLNm, QOS_PORT_CTRLN_SPRI_MAP_SELf, &port_entry, &index);
 2768              		.loc 1 233 5 is_stmt 1 discriminator 2 view .LVU707
 234:../switch_sdk/core/fal/tiger/fal_tiger_qos.c ****     
 2769              		.loc 1 234 5 discriminator 2 view .LVU708
 236:../switch_sdk/core/fal/tiger/fal_tiger_qos.c ****     CMM_ERR_CHK(HAL_TBL_REG_READ(unit, PRI_TO_INT_PRIO_MAPm, index,sizeof(pri_to_int_prio_map_t), &
 2770              		.loc 1 236 5 discriminator 2 view .LVU709
 236:../switch_sdk/core/fal/tiger/fal_tiger_qos.c ****     CMM_ERR_CHK(HAL_TBL_REG_READ(unit, PRI_TO_INT_PRIO_MAPm, index,sizeof(pri_to_int_prio_map_t), &
 2771              		.loc 1 236 26 is_stmt 0 discriminator 2 view .LVU710
 2772 00d8 1A01     		lsls	r2, r3, #4
 2773 00da 02F47F62 		and	r2, r2, #4080
 236:../switch_sdk/core/fal/tiger/fal_tiger_qos.c ****     CMM_ERR_CHK(HAL_TBL_REG_READ(unit, PRI_TO_INT_PRIO_MAPm, index,sizeof(pri_to_int_prio_map_t), &
 2774              		.loc 1 236 32 discriminator 2 view .LVU711
 2775 00de 02EBC702 		add	r2, r2, r7, lsl #3
 2776              	.LVL311:
 237:../switch_sdk/core/fal/tiger/fal_tiger_qos.c ****     HAL_FIELD_GET(PRI_TO_INT_PRIO_MAPm, PRI_TO_INT_PRIO_MAP_INT_PRIOf, &pri_entry, &pri);
 2777              		.loc 1 237 5 is_stmt 1 discriminator 2 view .LVU712
 237:../switch_sdk/core/fal/tiger/fal_tiger_qos.c ****     HAL_FIELD_GET(PRI_TO_INT_PRIO_MAPm, PRI_TO_INT_PRIO_MAP_INT_PRIOf, &pri_entry, &pri);
 2778              		.loc 1 237 5 discriminator 2 view .LVU713
 2779 00e2 06AB     		add	r3, sp, #24
 2780 00e4 0093     		str	r3, [sp]
 2781 00e6 0423     		movs	r3, #4
 2782 00e8 4244     		add	r2, r2, r8
 2783              	.LVL312:
 237:../switch_sdk/core/fal/tiger/fal_tiger_qos.c ****     HAL_FIELD_GET(PRI_TO_INT_PRIO_MAPm, PRI_TO_INT_PRIO_MAP_INT_PRIOf, &pri_entry, &pri);
 2784              		.loc 1 237 5 is_stmt 0 discriminator 2 view .LVU714
 2785 00ea 6F21     		movs	r1, #111
 2786 00ec 2846     		mov	r0, r5
 2787 00ee FFF7FEFF 		bl	hal_table_reg_read
 2788              	.LVL313:
 237:../switch_sdk/core/fal/tiger/fal_tiger_qos.c ****     HAL_FIELD_GET(PRI_TO_INT_PRIO_MAPm, PRI_TO_INT_PRIO_MAP_INT_PRIOf, &pri_entry, &pri);
 2789              		.loc 1 237 5 discriminator 2 view .LVU715
 2790 00f2 0446     		mov	r4, r0
 2791              	.LVL314:
 237:../switch_sdk/core/fal/tiger/fal_tiger_qos.c ****     HAL_FIELD_GET(PRI_TO_INT_PRIO_MAPm, PRI_TO_INT_PRIO_MAP_INT_PRIOf, &pri_entry, &pri);
 2792              		.loc 1 237 5 discriminator 2 view .LVU716
 2793 00f4 10F0FF03 		ands	r3, r0, #255
 2794 00f8 15D0     		beq	.L183
 237:../switch_sdk/core/fal/tiger/fal_tiger_qos.c ****     HAL_FIELD_GET(PRI_TO_INT_PRIO_MAPm, PRI_TO_INT_PRIO_MAP_INT_PRIOf, &pri_entry, &pri);
 2795              		.loc 1 237 5 is_stmt 1 discriminator 1 view .LVU717
 237:../switch_sdk/core/fal/tiger/fal_tiger_qos.c ****     HAL_FIELD_GET(PRI_TO_INT_PRIO_MAPm, PRI_TO_INT_PRIO_MAP_INT_PRIOf, &pri_entry, &pri);
 2796              		.loc 1 237 5 discriminator 1 view .LVU718
 2797 00fa 124A     		ldr	r2, .L194+8
 2798 00fc 1278     		ldrb	r2, [r2]	@ zero_extendqisi2
 2799 00fe 012A     		cmp	r2, #1
 2800 0100 01D8     		bhi	.L193
 2801              	.LVL315:
 2802              	.L184:
 237:../switch_sdk/core/fal/tiger/fal_tiger_qos.c ****     HAL_FIELD_GET(PRI_TO_INT_PRIO_MAPm, PRI_TO_INT_PRIO_MAP_INT_PRIOf, &pri_entry, &pri);
 2803              		.loc 1 237 5 discriminator 5 view .LVU719
 237:../switch_sdk/core/fal/tiger/fal_tiger_qos.c ****     HAL_FIELD_GET(PRI_TO_INT_PRIO_MAPm, PRI_TO_INT_PRIO_MAP_INT_PRIOf, &pri_entry, &pri);
 2804              		.loc 1 237 5 discriminator 5 view .LVU720
 237:../switch_sdk/core/fal/tiger/fal_tiger_qos.c ****     HAL_FIELD_GET(PRI_TO_INT_PRIO_MAPm, PRI_TO_INT_PRIO_MAP_INT_PRIOf, &pri_entry, &pri);
 2805              		.loc 1 237 5 discriminator 5 view .LVU721
 2806 0102 E0B2     		uxtb	r0, r4
 2807 0104 B8E7     		b	.L174
 2808              	.LVL316:
 2809              	.L193:
 237:../switch_sdk/core/fal/tiger/fal_tiger_qos.c ****     HAL_FIELD_GET(PRI_TO_INT_PRIO_MAPm, PRI_TO_INT_PRIO_MAP_INT_PRIOf, &pri_entry, &pri);
 2810              		.loc 1 237 5 discriminator 3 view .LVU722
 2811              	.LBB50:
 237:../switch_sdk/core/fal/tiger/fal_tiger_qos.c ****     HAL_FIELD_GET(PRI_TO_INT_PRIO_MAPm, PRI_TO_INT_PRIO_MAP_INT_PRIOf, &pri_entry, &pri);
 2812              		.loc 1 237 5 discriminator 3 view .LVU723
 2813 0106 142B     		cmp	r3, #20
 2814 0108 28BF     		it	cs
 2815 010a 1423     		movcs	r3, #20
 2816 010c 1A46     		mov	r2, r3
 2817 010e 114B     		ldr	r3, .L194+24
 2818 0110 0093     		str	r3, [sp]
 2819 0112 134B     		ldr	r3, .L194+36
 2820 0114 0C49     		ldr	r1, .L194+12
 2821 0116 51F82220 		ldr	r2, [r1, r2, lsl #2]
 2822 011a 0C49     		ldr	r1, .L194+16
 2823 011c 8968     		ldr	r1, [r1, #8]
 2824 011e 0F48     		ldr	r0, .L194+32
 2825              	.LVL317:
 237:../switch_sdk/core/fal/tiger/fal_tiger_qos.c ****     HAL_FIELD_GET(PRI_TO_INT_PRIO_MAPm, PRI_TO_INT_PRIO_MAP_INT_PRIOf, &pri_entry, &pri);
 2826              		.loc 1 237 5 is_stmt 0 discriminator 3 view .LVU724
 2827 0120 FFF7FEFF 		bl	osal_printf
 2828              	.LVL318:
 2829 0124 EDE7     		b	.L184
 2830              	.LVL319:
 2831              	.L183:
 237:../switch_sdk/core/fal/tiger/fal_tiger_qos.c ****     HAL_FIELD_GET(PRI_TO_INT_PRIO_MAPm, PRI_TO_INT_PRIO_MAP_INT_PRIOf, &pri_entry, &pri);
 2832              		.loc 1 237 5 discriminator 3 view .LVU725
 2833              	.LBE50:
 237:../switch_sdk/core/fal/tiger/fal_tiger_qos.c ****     HAL_FIELD_GET(PRI_TO_INT_PRIO_MAPm, PRI_TO_INT_PRIO_MAP_INT_PRIOf, &pri_entry, &pri);
 2834              		.loc 1 237 5 is_stmt 1 discriminator 2 view .LVU726
 238:../switch_sdk/core/fal/tiger/fal_tiger_qos.c ****     *pPri = pri;
 2835              		.loc 1 238 5 discriminator 2 view .LVU727
 2836              	.LBB51:
 238:../switch_sdk/core/fal/tiger/fal_tiger_qos.c ****     *pPri = pri;
 2837              		.loc 1 238 5 discriminator 2 view .LVU728
 238:../switch_sdk/core/fal/tiger/fal_tiger_qos.c ****     *pPri = pri;
 2838              		.loc 1 238 5 discriminator 2 view .LVU729
 2839 0126 05AB     		add	r3, sp, #20
 2840 0128 06AA     		add	r2, sp, #24
 2841 012a 0021     		movs	r1, #0
 2842 012c 6F20     		movs	r0, #111
 2843              	.LVL320:
 238:../switch_sdk/core/fal/tiger/fal_tiger_qos.c ****     *pPri = pri;
 2844              		.loc 1 238 5 is_stmt 0 discriminator 2 view .LVU730
 2845 012e FFF7FEFF 		bl	hal_tbl_reg_field_get
 2846              	.LVL321:
 238:../switch_sdk/core/fal/tiger/fal_tiger_qos.c ****     *pPri = pri;
 2847              		.loc 1 238 5 is_stmt 1 discriminator 2 view .LVU731
 2848 0132 059B     		ldr	r3, [sp, #20]
 2849              	.LVL322:
 238:../switch_sdk/core/fal/tiger/fal_tiger_qos.c ****     *pPri = pri;
 2850              		.loc 1 238 5 is_stmt 0 discriminator 2 view .LVU732
 2851              	.LBE51:
 238:../switch_sdk/core/fal/tiger/fal_tiger_qos.c ****     *pPri = pri;
 2852              		.loc 1 238 5 is_stmt 1 discriminator 2 view .LVU733
 239:../switch_sdk/core/fal/tiger/fal_tiger_qos.c **** 
 2853              		.loc 1 239 5 discriminator 2 view .LVU734
 239:../switch_sdk/core/fal/tiger/fal_tiger_qos.c **** 
 2854              		.loc 1 239 11 is_stmt 0 discriminator 2 view .LVU735
 2855 0134 3370     		strb	r3, [r6]
 241:../switch_sdk/core/fal/tiger/fal_tiger_qos.c **** }
 2856              		.loc 1 241 5 is_stmt 1 discriminator 2 view .LVU736
 241:../switch_sdk/core/fal/tiger/fal_tiger_qos.c **** }
 2857              		.loc 1 241 12 is_stmt 0 discriminator 2 view .LVU737
 2858 0136 0020     		movs	r0, #0
 2859 0138 9EE7     		b	.L174
 2860              	.L195:
 2861 013a 00BF     		.align	2
 2862              	.L194:
 2863 013c 00000000 		.word	gcal_inited
 2864 0140 00000000 		.word	gpSwitchUnit
 2865 0144 00000000 		.word	yt_debug_level
 2866 0148 00000000 		.word	_yt_errmsg
 2867 014c 00000000 		.word	_yt_prompt_msg
 2868 0150 00000000 		.word	.LC0
 2869 0154 00000000 		.word	__FUNCTION__.38
 2870 0158 00000000 		.word	.LC6
 2871 015c 58000000 		.word	.LC2
 2872 0160 94000000 		.word	.LC8
 2873              		.cfi_endproc
 2874              	.LFE10:
 2876              		.section	.rodata.fal_tiger_qos_intPri_dscp_map_set.str1.4,"aMS",%progbits,1
 2877              		.align	2
 2878              	.LC10:
 2879 0000 68616C5F 		.ascii	"hal_table_reg_read(unit,110,dscp,sizeof(dscp_to_int"
 2879      7461626C 
 2879      655F7265 
 2879      675F7265 
 2879      61642875 
 2880 0033 5F707269 		.ascii	"_prio_map_t),&entry)\000"
 2880      6F5F6D61 
 2880      705F7429 
 2880      2C26656E 
 2880      74727929 
 2881              		.align	2
 2882              	.LC11:
 2883 0048 68616C5F 		.ascii	"hal_table_reg_write(unit,110,dscp,sizeof(dscp_to_in"
 2883      7461626C 
 2883      655F7265 
 2883      675F7772 
 2883      69746528 
 2884 007b 745F7072 		.ascii	"t_prio_map_t),&entry)\000"
 2884      696F5F6D 
 2884      61705F74 
 2884      292C2665 
 2884      6E747279 
 2885              		.section	.text.fal_tiger_qos_intPri_dscp_map_set,"ax",%progbits
 2886              		.align	1
 2887              		.global	fal_tiger_qos_intPri_dscp_map_set
 2888              		.syntax unified
 2889              		.thumb
 2890              		.thumb_func
 2892              	fal_tiger_qos_intPri_dscp_map_set:
 2893              	.LVL323:
 2894              	.LFB11:
 243:../switch_sdk/core/fal/tiger/fal_tiger_qos.c **** 
 244:../switch_sdk/core/fal/tiger/fal_tiger_qos.c **** yt_ret_t fal_tiger_qos_intPri_dscp_map_set(yt_unit_t unit, yt_dscp_t dscp, yt_pri_t pri)
 245:../switch_sdk/core/fal/tiger/fal_tiger_qos.c **** {
 2895              		.loc 1 245 1 is_stmt 1 view -0
 2896              		.cfi_startproc
 2897              		@ args = 0, pretend = 0, frame = 8
 2898              		@ frame_needed = 0, uses_anonymous_args = 0
 2899              		.loc 1 245 1 is_stmt 0 view .LVU739
 2900 0000 F0B5     		push	{r4, r5, r6, r7, lr}
 2901              		.cfi_def_cfa_offset 20
 2902              		.cfi_offset 4, -20
 2903              		.cfi_offset 5, -16
 2904              		.cfi_offset 6, -12
 2905              		.cfi_offset 7, -8
 2906              		.cfi_offset 14, -4
 2907 0002 85B0     		sub	sp, sp, #20
 2908              		.cfi_def_cfa_offset 40
 2909 0004 1746     		mov	r7, r2
 246:../switch_sdk/core/fal/tiger/fal_tiger_qos.c ****     dscp_to_int_prio_map_t entry;
 2910              		.loc 1 246 5 is_stmt 1 view .LVU740
 247:../switch_sdk/core/fal/tiger/fal_tiger_qos.c ****     cmm_err_t ret = CMM_ERR_OK;
 2911              		.loc 1 247 5 view .LVU741
 2912              	.LVL324:
 248:../switch_sdk/core/fal/tiger/fal_tiger_qos.c **** 
 249:../switch_sdk/core/fal/tiger/fal_tiger_qos.c ****     CMM_PARAM_CHK(CAL_MAX_VALUE_DSCP(unit) < dscp, CMM_ERR_INPUT);
 2913              		.loc 1 249 5 view .LVU742
 2914              		.loc 1 249 5 view .LVU743
 2915 0006 3A4B     		ldr	r3, .L214
 2916 0008 53F82030 		ldr	r3, [r3, r0, lsl #2]
 2917 000c D3F8AC30 		ldr	r3, [r3, #172]
 2918 0010 5A79     		ldrb	r2, [r3, #5]	@ zero_extendqisi2
 2919              	.LVL325:
 2920              		.loc 1 249 5 is_stmt 0 view .LVU744
 2921 0012 8A42     		cmp	r2, r1
 2922 0014 15D3     		bcc	.L207
 2923 0016 0546     		mov	r5, r0
 2924 0018 0E46     		mov	r6, r1
 2925              		.loc 1 249 5 is_stmt 1 discriminator 2 view .LVU745
 250:../switch_sdk/core/fal/tiger/fal_tiger_qos.c ****     CMM_PARAM_CHK(CAL_MAX_VALUE_INT_PRI(unit) < pri, CMM_ERR_INPUT);
 2926              		.loc 1 250 5 discriminator 2 view .LVU746
 2927              		.loc 1 250 5 discriminator 2 view .LVU747
 2928 001a DB78     		ldrb	r3, [r3, #3]	@ zero_extendqisi2
 2929 001c BB42     		cmp	r3, r7
 2930 001e 1ED3     		bcc	.L208
 2931              		.loc 1 250 5 discriminator 2 view .LVU748
 251:../switch_sdk/core/fal/tiger/fal_tiger_qos.c ****     CMM_ERR_CHK(HAL_TBL_REG_READ(unit, DSCP_TO_INT_PRIO_MAPm, dscp,sizeof(dscp_to_int_prio_map_t), 
 2932              		.loc 1 251 5 discriminator 2 view .LVU749
 2933              		.loc 1 251 5 discriminator 2 view .LVU750
 2934 0020 03AB     		add	r3, sp, #12
 2935 0022 0093     		str	r3, [sp]
 2936 0024 0423     		movs	r3, #4
 2937 0026 0A46     		mov	r2, r1
 2938 0028 6E21     		movs	r1, #110
 2939              	.LVL326:
 2940              		.loc 1 251 5 is_stmt 0 discriminator 2 view .LVU751
 2941 002a FFF7FEFF 		bl	hal_table_reg_read
 2942              	.LVL327:
 2943              		.loc 1 251 5 discriminator 2 view .LVU752
 2944 002e 0446     		mov	r4, r0
 2945              	.LVL328:
 2946              		.loc 1 251 5 discriminator 2 view .LVU753
 2947 0030 10F0FF03 		ands	r3, r0, #255
 2948 0034 32D0     		beq	.L202
 2949              		.loc 1 251 5 is_stmt 1 discriminator 1 view .LVU754
 2950              		.loc 1 251 5 discriminator 1 view .LVU755
 2951 0036 2F4A     		ldr	r2, .L214+4
 2952 0038 1278     		ldrb	r2, [r2]	@ zero_extendqisi2
 2953 003a 012A     		cmp	r2, #1
 2954 003c 1ED8     		bhi	.L209
 2955              	.LVL329:
 2956              	.L203:
 2957              		.loc 1 251 5 discriminator 5 view .LVU756
 2958              		.loc 1 251 5 discriminator 5 view .LVU757
 2959              		.loc 1 251 5 discriminator 5 view .LVU758
 2960 003e E0B2     		uxtb	r0, r4
 2961 0040 12E0     		b	.L196
 2962              	.LVL330:
 2963              	.L207:
 249:../switch_sdk/core/fal/tiger/fal_tiger_qos.c ****     CMM_PARAM_CHK(CAL_MAX_VALUE_INT_PRI(unit) < pri, CMM_ERR_INPUT);
 2964              		.loc 1 249 5 discriminator 1 view .LVU759
 249:../switch_sdk/core/fal/tiger/fal_tiger_qos.c ****     CMM_PARAM_CHK(CAL_MAX_VALUE_INT_PRI(unit) < pri, CMM_ERR_INPUT);
 2965              		.loc 1 249 5 discriminator 1 view .LVU760
 2966 0042 2C4B     		ldr	r3, .L214+4
 2967 0044 1B78     		ldrb	r3, [r3]	@ zero_extendqisi2
 2968 0046 012B     		cmp	r3, #1
 2969 0048 01D8     		bhi	.L210
 2970              	.LVL331:
 2971              	.L198:
 249:../switch_sdk/core/fal/tiger/fal_tiger_qos.c ****     CMM_PARAM_CHK(CAL_MAX_VALUE_INT_PRI(unit) < pri, CMM_ERR_INPUT);
 2972              		.loc 1 249 5 discriminator 5 view .LVU761
 249:../switch_sdk/core/fal/tiger/fal_tiger_qos.c ****     CMM_PARAM_CHK(CAL_MAX_VALUE_INT_PRI(unit) < pri, CMM_ERR_INPUT);
 2973              		.loc 1 249 5 discriminator 5 view .LVU762
 249:../switch_sdk/core/fal/tiger/fal_tiger_qos.c ****     CMM_PARAM_CHK(CAL_MAX_VALUE_INT_PRI(unit) < pri, CMM_ERR_INPUT);
 2974              		.loc 1 249 5 discriminator 5 view .LVU763
 2975 004a 0520     		movs	r0, #5
 2976 004c 0CE0     		b	.L196
 2977              	.LVL332:
 2978              	.L210:
 249:../switch_sdk/core/fal/tiger/fal_tiger_qos.c ****     CMM_PARAM_CHK(CAL_MAX_VALUE_INT_PRI(unit) < pri, CMM_ERR_INPUT);
 2979              		.loc 1 249 5 discriminator 3 view .LVU764
 2980              	.LBB52:
 249:../switch_sdk/core/fal/tiger/fal_tiger_qos.c ****     CMM_PARAM_CHK(CAL_MAX_VALUE_INT_PRI(unit) < pri, CMM_ERR_INPUT);
 2981              		.loc 1 249 5 discriminator 3 view .LVU765
 2982 004e 2A4B     		ldr	r3, .L214+8
 2983 0050 5A69     		ldr	r2, [r3, #20]
 2984 0052 2A4B     		ldr	r3, .L214+12
 2985 0054 9968     		ldr	r1, [r3, #8]
 2986              	.LVL333:
 249:../switch_sdk/core/fal/tiger/fal_tiger_qos.c ****     CMM_PARAM_CHK(CAL_MAX_VALUE_INT_PRI(unit) < pri, CMM_ERR_INPUT);
 2987              		.loc 1 249 5 is_stmt 0 discriminator 3 view .LVU766
 2988 0056 2A48     		ldr	r0, .L214+16
 2989              	.LVL334:
 249:../switch_sdk/core/fal/tiger/fal_tiger_qos.c ****     CMM_PARAM_CHK(CAL_MAX_VALUE_INT_PRI(unit) < pri, CMM_ERR_INPUT);
 2990              		.loc 1 249 5 discriminator 3 view .LVU767
 2991 0058 FFF7FEFF 		bl	osal_printf
 2992              	.LVL335:
 2993 005c F5E7     		b	.L198
 2994              	.LVL336:
 2995              	.L208:
 249:../switch_sdk/core/fal/tiger/fal_tiger_qos.c ****     CMM_PARAM_CHK(CAL_MAX_VALUE_INT_PRI(unit) < pri, CMM_ERR_INPUT);
 2996              		.loc 1 249 5 discriminator 3 view .LVU768
 2997              	.LBE52:
 250:../switch_sdk/core/fal/tiger/fal_tiger_qos.c ****     CMM_PARAM_CHK(CAL_MAX_VALUE_INT_PRI(unit) < pri, CMM_ERR_INPUT);
 2998              		.loc 1 250 5 is_stmt 1 discriminator 1 view .LVU769
 250:../switch_sdk/core/fal/tiger/fal_tiger_qos.c ****     CMM_PARAM_CHK(CAL_MAX_VALUE_INT_PRI(unit) < pri, CMM_ERR_INPUT);
 2999              		.loc 1 250 5 discriminator 1 view .LVU770
 3000 005e 254B     		ldr	r3, .L214+4
 3001 0060 1B78     		ldrb	r3, [r3]	@ zero_extendqisi2
 3002 0062 012B     		cmp	r3, #1
 3003 0064 02D8     		bhi	.L211
 3004              	.LVL337:
 3005              	.L201:
 250:../switch_sdk/core/fal/tiger/fal_tiger_qos.c ****     CMM_PARAM_CHK(CAL_MAX_VALUE_INT_PRI(unit) < pri, CMM_ERR_INPUT);
 3006              		.loc 1 250 5 discriminator 5 view .LVU771
 250:../switch_sdk/core/fal/tiger/fal_tiger_qos.c ****     CMM_PARAM_CHK(CAL_MAX_VALUE_INT_PRI(unit) < pri, CMM_ERR_INPUT);
 3007              		.loc 1 250 5 discriminator 5 view .LVU772
 250:../switch_sdk/core/fal/tiger/fal_tiger_qos.c ****     CMM_PARAM_CHK(CAL_MAX_VALUE_INT_PRI(unit) < pri, CMM_ERR_INPUT);
 3008              		.loc 1 250 5 discriminator 5 view .LVU773
 3009 0066 0520     		movs	r0, #5
 3010              	.LVL338:
 3011              	.L196:
 252:../switch_sdk/core/fal/tiger/fal_tiger_qos.c ****     HAL_FIELD_SET(DSCP_TO_INT_PRIO_MAPm, DSCP_TO_INT_PRIO_MAP_INT_PRIOf, &entry, pri);
 253:../switch_sdk/core/fal/tiger/fal_tiger_qos.c ****     CMM_ERR_CHK(HAL_TBL_REG_WRITE(unit, DSCP_TO_INT_PRIO_MAPm, dscp,sizeof(dscp_to_int_prio_map_t),
 254:../switch_sdk/core/fal/tiger/fal_tiger_qos.c **** 
 255:../switch_sdk/core/fal/tiger/fal_tiger_qos.c ****     return CMM_ERR_OK;
 256:../switch_sdk/core/fal/tiger/fal_tiger_qos.c **** }
 3012              		.loc 1 256 1 is_stmt 0 view .LVU774
 3013 0068 05B0     		add	sp, sp, #20
 3014              		.cfi_remember_state
 3015              		.cfi_def_cfa_offset 20
 3016              		@ sp needed
 3017 006a F0BD     		pop	{r4, r5, r6, r7, pc}
 3018              	.LVL339:
 3019              	.L211:
 3020              		.cfi_restore_state
 250:../switch_sdk/core/fal/tiger/fal_tiger_qos.c ****     CMM_ERR_CHK(HAL_TBL_REG_READ(unit, DSCP_TO_INT_PRIO_MAPm, dscp,sizeof(dscp_to_int_prio_map_t), 
 3021              		.loc 1 250 5 is_stmt 1 discriminator 3 view .LVU775
 3022              	.LBB53:
 250:../switch_sdk/core/fal/tiger/fal_tiger_qos.c ****     CMM_ERR_CHK(HAL_TBL_REG_READ(unit, DSCP_TO_INT_PRIO_MAPm, dscp,sizeof(dscp_to_int_prio_map_t), 
 3023              		.loc 1 250 5 discriminator 3 view .LVU776
 3024 006c 224B     		ldr	r3, .L214+8
 3025 006e 5A69     		ldr	r2, [r3, #20]
 3026 0070 224B     		ldr	r3, .L214+12
 3027 0072 9968     		ldr	r1, [r3, #8]
 3028              	.LVL340:
 250:../switch_sdk/core/fal/tiger/fal_tiger_qos.c ****     CMM_ERR_CHK(HAL_TBL_REG_READ(unit, DSCP_TO_INT_PRIO_MAPm, dscp,sizeof(dscp_to_int_prio_map_t), 
 3029              		.loc 1 250 5 is_stmt 0 discriminator 3 view .LVU777
 3030 0074 2248     		ldr	r0, .L214+16
 3031              	.LVL341:
 250:../switch_sdk/core/fal/tiger/fal_tiger_qos.c ****     CMM_ERR_CHK(HAL_TBL_REG_READ(unit, DSCP_TO_INT_PRIO_MAPm, dscp,sizeof(dscp_to_int_prio_map_t), 
 3032              		.loc 1 250 5 discriminator 3 view .LVU778
 3033 0076 FFF7FEFF 		bl	osal_printf
 3034              	.LVL342:
 3035 007a F4E7     		b	.L201
 3036              	.LVL343:
 3037              	.L209:
 250:../switch_sdk/core/fal/tiger/fal_tiger_qos.c ****     CMM_ERR_CHK(HAL_TBL_REG_READ(unit, DSCP_TO_INT_PRIO_MAPm, dscp,sizeof(dscp_to_int_prio_map_t), 
 3038              		.loc 1 250 5 discriminator 3 view .LVU779
 3039              	.LBE53:
 251:../switch_sdk/core/fal/tiger/fal_tiger_qos.c ****     HAL_FIELD_SET(DSCP_TO_INT_PRIO_MAPm, DSCP_TO_INT_PRIO_MAP_INT_PRIOf, &entry, pri);
 3040              		.loc 1 251 5 is_stmt 1 discriminator 3 view .LVU780
 3041              	.LBB54:
 251:../switch_sdk/core/fal/tiger/fal_tiger_qos.c ****     HAL_FIELD_SET(DSCP_TO_INT_PRIO_MAPm, DSCP_TO_INT_PRIO_MAP_INT_PRIOf, &entry, pri);
 3042              		.loc 1 251 5 discriminator 3 view .LVU781
 3043 007c 142B     		cmp	r3, #20
 3044 007e 28BF     		it	cs
 3045 0080 1423     		movcs	r3, #20
 3046 0082 1A46     		mov	r2, r3
 3047 0084 1F4B     		ldr	r3, .L214+20
 3048 0086 0093     		str	r3, [sp]
 3049 0088 1F4B     		ldr	r3, .L214+24
 3050 008a 1B49     		ldr	r1, .L214+8
 3051 008c 51F82220 		ldr	r2, [r1, r2, lsl #2]
 3052 0090 1A49     		ldr	r1, .L214+12
 3053 0092 8968     		ldr	r1, [r1, #8]
 3054 0094 1D48     		ldr	r0, .L214+28
 3055              	.LVL344:
 251:../switch_sdk/core/fal/tiger/fal_tiger_qos.c ****     HAL_FIELD_SET(DSCP_TO_INT_PRIO_MAPm, DSCP_TO_INT_PRIO_MAP_INT_PRIOf, &entry, pri);
 3056              		.loc 1 251 5 is_stmt 0 discriminator 3 view .LVU782
 3057 0096 FFF7FEFF 		bl	osal_printf
 3058              	.LVL345:
 3059 009a D0E7     		b	.L203
 3060              	.LVL346:
 3061              	.L202:
 251:../switch_sdk/core/fal/tiger/fal_tiger_qos.c ****     HAL_FIELD_SET(DSCP_TO_INT_PRIO_MAPm, DSCP_TO_INT_PRIO_MAP_INT_PRIOf, &entry, pri);
 3062              		.loc 1 251 5 discriminator 3 view .LVU783
 3063              	.LBE54:
 251:../switch_sdk/core/fal/tiger/fal_tiger_qos.c ****     HAL_FIELD_SET(DSCP_TO_INT_PRIO_MAPm, DSCP_TO_INT_PRIO_MAP_INT_PRIOf, &entry, pri);
 3064              		.loc 1 251 5 is_stmt 1 discriminator 2 view .LVU784
 252:../switch_sdk/core/fal/tiger/fal_tiger_qos.c ****     HAL_FIELD_SET(DSCP_TO_INT_PRIO_MAPm, DSCP_TO_INT_PRIO_MAP_INT_PRIOf, &entry, pri);
 3065              		.loc 1 252 5 discriminator 2 view .LVU785
 3066 009c 03AC     		add	r4, sp, #12
 3067 009e 3B46     		mov	r3, r7
 3068 00a0 2246     		mov	r2, r4
 3069 00a2 0021     		movs	r1, #0
 3070 00a4 6E20     		movs	r0, #110
 3071              	.LVL347:
 252:../switch_sdk/core/fal/tiger/fal_tiger_qos.c ****     HAL_FIELD_SET(DSCP_TO_INT_PRIO_MAPm, DSCP_TO_INT_PRIO_MAP_INT_PRIOf, &entry, pri);
 3072              		.loc 1 252 5 is_stmt 0 discriminator 2 view .LVU786
 3073 00a6 FFF7FEFF 		bl	hal_tbl_reg_field_set
 3074              	.LVL348:
 253:../switch_sdk/core/fal/tiger/fal_tiger_qos.c **** 
 3075              		.loc 1 253 5 is_stmt 1 discriminator 2 view .LVU787
 253:../switch_sdk/core/fal/tiger/fal_tiger_qos.c **** 
 3076              		.loc 1 253 5 discriminator 2 view .LVU788
 3077 00aa 0094     		str	r4, [sp]
 3078 00ac 0423     		movs	r3, #4
 3079 00ae 3246     		mov	r2, r6
 3080 00b0 6E21     		movs	r1, #110
 3081 00b2 2846     		mov	r0, r5
 3082 00b4 FFF7FEFF 		bl	hal_table_reg_write
 3083              	.LVL349:
 3084 00b8 0446     		mov	r4, r0
 3085              	.LVL350:
 253:../switch_sdk/core/fal/tiger/fal_tiger_qos.c **** 
 3086              		.loc 1 253 5 is_stmt 0 discriminator 2 view .LVU789
 3087 00ba 10F0FF03 		ands	r3, r0, #255
 3088 00be 01D1     		bne	.L212
 255:../switch_sdk/core/fal/tiger/fal_tiger_qos.c **** }
 3089              		.loc 1 255 12 view .LVU790
 3090 00c0 0020     		movs	r0, #0
 3091              	.LVL351:
 255:../switch_sdk/core/fal/tiger/fal_tiger_qos.c **** }
 3092              		.loc 1 255 12 view .LVU791
 3093 00c2 D1E7     		b	.L196
 3094              	.LVL352:
 3095              	.L212:
 253:../switch_sdk/core/fal/tiger/fal_tiger_qos.c **** 
 3096              		.loc 1 253 5 is_stmt 1 discriminator 1 view .LVU792
 253:../switch_sdk/core/fal/tiger/fal_tiger_qos.c **** 
 3097              		.loc 1 253 5 discriminator 1 view .LVU793
 3098 00c4 0B4A     		ldr	r2, .L214+4
 3099 00c6 1278     		ldrb	r2, [r2]	@ zero_extendqisi2
 3100 00c8 012A     		cmp	r2, #1
 3101 00ca 01D8     		bhi	.L213
 3102              	.LVL353:
 3103              	.L204:
 253:../switch_sdk/core/fal/tiger/fal_tiger_qos.c **** 
 3104              		.loc 1 253 5 discriminator 5 view .LVU794
 253:../switch_sdk/core/fal/tiger/fal_tiger_qos.c **** 
 3105              		.loc 1 253 5 discriminator 5 view .LVU795
 253:../switch_sdk/core/fal/tiger/fal_tiger_qos.c **** 
 3106              		.loc 1 253 5 discriminator 5 view .LVU796
 3107 00cc E0B2     		uxtb	r0, r4
 3108 00ce CBE7     		b	.L196
 3109              	.LVL354:
 3110              	.L213:
 253:../switch_sdk/core/fal/tiger/fal_tiger_qos.c **** 
 3111              		.loc 1 253 5 discriminator 3 view .LVU797
 3112              	.LBB55:
 253:../switch_sdk/core/fal/tiger/fal_tiger_qos.c **** 
 3113              		.loc 1 253 5 discriminator 3 view .LVU798
 3114 00d0 142B     		cmp	r3, #20
 3115 00d2 28BF     		it	cs
 3116 00d4 1423     		movcs	r3, #20
 3117 00d6 1A46     		mov	r2, r3
 3118 00d8 0A4B     		ldr	r3, .L214+20
 3119 00da 0093     		str	r3, [sp]
 3120 00dc 0C4B     		ldr	r3, .L214+32
 3121 00de 0649     		ldr	r1, .L214+8
 3122 00e0 51F82220 		ldr	r2, [r1, r2, lsl #2]
 3123 00e4 0549     		ldr	r1, .L214+12
 3124 00e6 8968     		ldr	r1, [r1, #8]
 3125 00e8 0848     		ldr	r0, .L214+28
 3126              	.LVL355:
 253:../switch_sdk/core/fal/tiger/fal_tiger_qos.c **** 
 3127              		.loc 1 253 5 is_stmt 0 discriminator 3 view .LVU799
 3128 00ea FFF7FEFF 		bl	osal_printf
 3129              	.LVL356:
 3130 00ee EDE7     		b	.L204
 3131              	.L215:
 3132              		.align	2
 3133              	.L214:
 3134 00f0 00000000 		.word	gpSwitchUnit
 3135 00f4 00000000 		.word	yt_debug_level
 3136 00f8 00000000 		.word	_yt_errmsg
 3137 00fc 00000000 		.word	_yt_prompt_msg
 3138 0100 00000000 		.word	.LC0
 3139 0104 00000000 		.word	__FUNCTION__.37
 3140 0108 00000000 		.word	.LC10
 3141 010c 58000000 		.word	.LC2
 3142 0110 48000000 		.word	.LC11
 3143              	.LBE55:
 3144              		.cfi_endproc
 3145              	.LFE11:
 3147              		.section	.text.fal_tiger_qos_intPri_dscp_map_get,"ax",%progbits
 3148              		.align	1
 3149              		.global	fal_tiger_qos_intPri_dscp_map_get
 3150              		.syntax unified
 3151              		.thumb
 3152              		.thumb_func
 3154              	fal_tiger_qos_intPri_dscp_map_get:
 3155              	.LVL357:
 3156              	.LFB12:
 257:../switch_sdk/core/fal/tiger/fal_tiger_qos.c **** 
 258:../switch_sdk/core/fal/tiger/fal_tiger_qos.c **** yt_ret_t fal_tiger_qos_intPri_dscp_map_get(yt_unit_t unit, yt_dscp_t dscp, yt_pri_t *pPri)
 259:../switch_sdk/core/fal/tiger/fal_tiger_qos.c **** {
 3157              		.loc 1 259 1 is_stmt 1 view -0
 3158              		.cfi_startproc
 3159              		@ args = 0, pretend = 0, frame = 8
 3160              		@ frame_needed = 0, uses_anonymous_args = 0
 3161              		.loc 1 259 1 is_stmt 0 view .LVU801
 3162 0000 30B5     		push	{r4, r5, lr}
 3163              		.cfi_def_cfa_offset 12
 3164              		.cfi_offset 4, -12
 3165              		.cfi_offset 5, -8
 3166              		.cfi_offset 14, -4
 3167 0002 85B0     		sub	sp, sp, #20
 3168              		.cfi_def_cfa_offset 32
 260:../switch_sdk/core/fal/tiger/fal_tiger_qos.c ****     dscp_to_int_prio_map_t entry;
 3169              		.loc 1 260 5 is_stmt 1 view .LVU802
 261:../switch_sdk/core/fal/tiger/fal_tiger_qos.c ****     cmm_err_t ret = CMM_ERR_OK;
 3170              		.loc 1 261 5 view .LVU803
 3171              	.LVL358:
 262:../switch_sdk/core/fal/tiger/fal_tiger_qos.c ****     uint32_t pri;
 3172              		.loc 1 262 5 view .LVU804
 263:../switch_sdk/core/fal/tiger/fal_tiger_qos.c **** 
 264:../switch_sdk/core/fal/tiger/fal_tiger_qos.c ****     CMM_PARAM_CHK(CAL_MAX_VALUE_DSCP(unit) < dscp, CMM_ERR_INPUT);
 3173              		.loc 1 264 5 view .LVU805
 3174              		.loc 1 264 5 view .LVU806
 3175 0004 214B     		ldr	r3, .L226
 3176 0006 53F82030 		ldr	r3, [r3, r0, lsl #2]
 3177 000a D3F8AC30 		ldr	r3, [r3, #172]
 3178 000e 5B79     		ldrb	r3, [r3, #5]	@ zero_extendqisi2
 3179 0010 8B42     		cmp	r3, r1
 3180 0012 11D3     		bcc	.L223
 3181 0014 1546     		mov	r5, r2
 3182              		.loc 1 264 5 discriminator 2 view .LVU807
 265:../switch_sdk/core/fal/tiger/fal_tiger_qos.c ****     CMM_ERR_CHK(HAL_TBL_REG_READ(unit, DSCP_TO_INT_PRIO_MAPm, dscp,sizeof(dscp_to_int_prio_map_t), 
 3183              		.loc 1 265 5 discriminator 2 view .LVU808
 3184              		.loc 1 265 5 discriminator 2 view .LVU809
 3185 0016 03AB     		add	r3, sp, #12
 3186 0018 0093     		str	r3, [sp]
 3187 001a 0423     		movs	r3, #4
 3188 001c 0A46     		mov	r2, r1
 3189              	.LVL359:
 3190              		.loc 1 265 5 is_stmt 0 discriminator 2 view .LVU810
 3191 001e 6E21     		movs	r1, #110
 3192              	.LVL360:
 3193              		.loc 1 265 5 discriminator 2 view .LVU811
 3194 0020 FFF7FEFF 		bl	hal_table_reg_read
 3195              	.LVL361:
 3196              		.loc 1 265 5 discriminator 2 view .LVU812
 3197 0024 0446     		mov	r4, r0
 3198              	.LVL362:
 3199              		.loc 1 265 5 discriminator 2 view .LVU813
 3200 0026 10F0FF03 		ands	r3, r0, #255
 3201 002a 24D0     		beq	.L220
 3202              		.loc 1 265 5 is_stmt 1 discriminator 1 view .LVU814
 3203              		.loc 1 265 5 discriminator 1 view .LVU815
 3204 002c 184A     		ldr	r2, .L226+4
 3205 002e 1278     		ldrb	r2, [r2]	@ zero_extendqisi2
 3206 0030 012A     		cmp	r2, #1
 3207 0032 10D8     		bhi	.L224
 3208              	.LVL363:
 3209              	.L221:
 3210              		.loc 1 265 5 discriminator 5 view .LVU816
 3211              		.loc 1 265 5 discriminator 5 view .LVU817
 3212              		.loc 1 265 5 discriminator 5 view .LVU818
 3213 0034 E0B2     		uxtb	r0, r4
 3214 0036 04E0     		b	.L216
 3215              	.LVL364:
 3216              	.L223:
 264:../switch_sdk/core/fal/tiger/fal_tiger_qos.c ****     CMM_ERR_CHK(HAL_TBL_REG_READ(unit, DSCP_TO_INT_PRIO_MAPm, dscp,sizeof(dscp_to_int_prio_map_t), 
 3217              		.loc 1 264 5 discriminator 1 view .LVU819
 264:../switch_sdk/core/fal/tiger/fal_tiger_qos.c ****     CMM_ERR_CHK(HAL_TBL_REG_READ(unit, DSCP_TO_INT_PRIO_MAPm, dscp,sizeof(dscp_to_int_prio_map_t), 
 3218              		.loc 1 264 5 discriminator 1 view .LVU820
 3219 0038 154B     		ldr	r3, .L226+4
 3220 003a 1B78     		ldrb	r3, [r3]	@ zero_extendqisi2
 3221 003c 012B     		cmp	r3, #1
 3222 003e 02D8     		bhi	.L225
 3223              	.LVL365:
 3224              	.L218:
 264:../switch_sdk/core/fal/tiger/fal_tiger_qos.c ****     CMM_ERR_CHK(HAL_TBL_REG_READ(unit, DSCP_TO_INT_PRIO_MAPm, dscp,sizeof(dscp_to_int_prio_map_t), 
 3225              		.loc 1 264 5 discriminator 5 view .LVU821
 264:../switch_sdk/core/fal/tiger/fal_tiger_qos.c ****     CMM_ERR_CHK(HAL_TBL_REG_READ(unit, DSCP_TO_INT_PRIO_MAPm, dscp,sizeof(dscp_to_int_prio_map_t), 
 3226              		.loc 1 264 5 discriminator 5 view .LVU822
 264:../switch_sdk/core/fal/tiger/fal_tiger_qos.c ****     CMM_ERR_CHK(HAL_TBL_REG_READ(unit, DSCP_TO_INT_PRIO_MAPm, dscp,sizeof(dscp_to_int_prio_map_t), 
 3227              		.loc 1 264 5 discriminator 5 view .LVU823
 3228 0040 0520     		movs	r0, #5
 3229              	.LVL366:
 3230              	.L216:
 266:../switch_sdk/core/fal/tiger/fal_tiger_qos.c ****     HAL_FIELD_GET(DSCP_TO_INT_PRIO_MAPm, DSCP_TO_INT_PRIO_MAP_INT_PRIOf, &entry, &pri);
 267:../switch_sdk/core/fal/tiger/fal_tiger_qos.c ****     *pPri = pri;
 268:../switch_sdk/core/fal/tiger/fal_tiger_qos.c **** 
 269:../switch_sdk/core/fal/tiger/fal_tiger_qos.c ****     return CMM_ERR_OK;
 270:../switch_sdk/core/fal/tiger/fal_tiger_qos.c **** }
 3231              		.loc 1 270 1 is_stmt 0 view .LVU824
 3232 0042 05B0     		add	sp, sp, #20
 3233              		.cfi_remember_state
 3234              		.cfi_def_cfa_offset 12
 3235              		@ sp needed
 3236 0044 30BD     		pop	{r4, r5, pc}
 3237              	.LVL367:
 3238              	.L225:
 3239              		.cfi_restore_state
 264:../switch_sdk/core/fal/tiger/fal_tiger_qos.c ****     CMM_ERR_CHK(HAL_TBL_REG_READ(unit, DSCP_TO_INT_PRIO_MAPm, dscp,sizeof(dscp_to_int_prio_map_t), 
 3240              		.loc 1 264 5 is_stmt 1 discriminator 3 view .LVU825
 3241              	.LBB56:
 264:../switch_sdk/core/fal/tiger/fal_tiger_qos.c ****     CMM_ERR_CHK(HAL_TBL_REG_READ(unit, DSCP_TO_INT_PRIO_MAPm, dscp,sizeof(dscp_to_int_prio_map_t), 
 3242              		.loc 1 264 5 discriminator 3 view .LVU826
 3243 0046 134B     		ldr	r3, .L226+8
 3244 0048 5A69     		ldr	r2, [r3, #20]
 3245              	.LVL368:
 264:../switch_sdk/core/fal/tiger/fal_tiger_qos.c ****     CMM_ERR_CHK(HAL_TBL_REG_READ(unit, DSCP_TO_INT_PRIO_MAPm, dscp,sizeof(dscp_to_int_prio_map_t), 
 3246              		.loc 1 264 5 is_stmt 0 discriminator 3 view .LVU827
 3247 004a 134B     		ldr	r3, .L226+12
 3248 004c 9968     		ldr	r1, [r3, #8]
 3249              	.LVL369:
 264:../switch_sdk/core/fal/tiger/fal_tiger_qos.c ****     CMM_ERR_CHK(HAL_TBL_REG_READ(unit, DSCP_TO_INT_PRIO_MAPm, dscp,sizeof(dscp_to_int_prio_map_t), 
 3250              		.loc 1 264 5 discriminator 3 view .LVU828
 3251 004e 1348     		ldr	r0, .L226+16
 3252              	.LVL370:
 264:../switch_sdk/core/fal/tiger/fal_tiger_qos.c ****     CMM_ERR_CHK(HAL_TBL_REG_READ(unit, DSCP_TO_INT_PRIO_MAPm, dscp,sizeof(dscp_to_int_prio_map_t), 
 3253              		.loc 1 264 5 discriminator 3 view .LVU829
 3254 0050 FFF7FEFF 		bl	osal_printf
 3255              	.LVL371:
 3256 0054 F4E7     		b	.L218
 3257              	.LVL372:
 3258              	.L224:
 264:../switch_sdk/core/fal/tiger/fal_tiger_qos.c ****     CMM_ERR_CHK(HAL_TBL_REG_READ(unit, DSCP_TO_INT_PRIO_MAPm, dscp,sizeof(dscp_to_int_prio_map_t), 
 3259              		.loc 1 264 5 discriminator 3 view .LVU830
 3260              	.LBE56:
 265:../switch_sdk/core/fal/tiger/fal_tiger_qos.c ****     HAL_FIELD_GET(DSCP_TO_INT_PRIO_MAPm, DSCP_TO_INT_PRIO_MAP_INT_PRIOf, &entry, &pri);
 3261              		.loc 1 265 5 is_stmt 1 discriminator 3 view .LVU831
 3262              	.LBB57:
 265:../switch_sdk/core/fal/tiger/fal_tiger_qos.c ****     HAL_FIELD_GET(DSCP_TO_INT_PRIO_MAPm, DSCP_TO_INT_PRIO_MAP_INT_PRIOf, &entry, &pri);
 3263              		.loc 1 265 5 discriminator 3 view .LVU832
 3264 0056 142B     		cmp	r3, #20
 3265 0058 28BF     		it	cs
 3266 005a 1423     		movcs	r3, #20
 3267 005c 1A46     		mov	r2, r3
 3268 005e 104B     		ldr	r3, .L226+20
 3269 0060 0093     		str	r3, [sp]
 3270 0062 104B     		ldr	r3, .L226+24
 3271 0064 0B49     		ldr	r1, .L226+8
 3272 0066 51F82220 		ldr	r2, [r1, r2, lsl #2]
 3273 006a 0B49     		ldr	r1, .L226+12
 3274 006c 8968     		ldr	r1, [r1, #8]
 3275 006e 0E48     		ldr	r0, .L226+28
 3276              	.LVL373:
 265:../switch_sdk/core/fal/tiger/fal_tiger_qos.c ****     HAL_FIELD_GET(DSCP_TO_INT_PRIO_MAPm, DSCP_TO_INT_PRIO_MAP_INT_PRIOf, &entry, &pri);
 3277              		.loc 1 265 5 is_stmt 0 discriminator 3 view .LVU833
 3278 0070 FFF7FEFF 		bl	osal_printf
 3279              	.LVL374:
 3280 0074 DEE7     		b	.L221
 3281              	.LVL375:
 3282              	.L220:
 265:../switch_sdk/core/fal/tiger/fal_tiger_qos.c ****     HAL_FIELD_GET(DSCP_TO_INT_PRIO_MAPm, DSCP_TO_INT_PRIO_MAP_INT_PRIOf, &entry, &pri);
 3283              		.loc 1 265 5 discriminator 3 view .LVU834
 3284              	.LBE57:
 265:../switch_sdk/core/fal/tiger/fal_tiger_qos.c ****     HAL_FIELD_GET(DSCP_TO_INT_PRIO_MAPm, DSCP_TO_INT_PRIO_MAP_INT_PRIOf, &entry, &pri);
 3285              		.loc 1 265 5 is_stmt 1 discriminator 2 view .LVU835
 266:../switch_sdk/core/fal/tiger/fal_tiger_qos.c ****     HAL_FIELD_GET(DSCP_TO_INT_PRIO_MAPm, DSCP_TO_INT_PRIO_MAP_INT_PRIOf, &entry, &pri);
 3286              		.loc 1 266 5 discriminator 2 view .LVU836
 3287              	.LBB58:
 266:../switch_sdk/core/fal/tiger/fal_tiger_qos.c ****     HAL_FIELD_GET(DSCP_TO_INT_PRIO_MAPm, DSCP_TO_INT_PRIO_MAP_INT_PRIOf, &entry, &pri);
 3288              		.loc 1 266 5 discriminator 2 view .LVU837
 266:../switch_sdk/core/fal/tiger/fal_tiger_qos.c ****     HAL_FIELD_GET(DSCP_TO_INT_PRIO_MAPm, DSCP_TO_INT_PRIO_MAP_INT_PRIOf, &entry, &pri);
 3289              		.loc 1 266 5 discriminator 2 view .LVU838
 3290 0076 02AB     		add	r3, sp, #8
 3291 0078 03AA     		add	r2, sp, #12
 3292 007a 0021     		movs	r1, #0
 3293 007c 6E20     		movs	r0, #110
 3294              	.LVL376:
 266:../switch_sdk/core/fal/tiger/fal_tiger_qos.c ****     HAL_FIELD_GET(DSCP_TO_INT_PRIO_MAPm, DSCP_TO_INT_PRIO_MAP_INT_PRIOf, &entry, &pri);
 3295              		.loc 1 266 5 is_stmt 0 discriminator 2 view .LVU839
 3296 007e FFF7FEFF 		bl	hal_tbl_reg_field_get
 3297              	.LVL377:
 266:../switch_sdk/core/fal/tiger/fal_tiger_qos.c ****     HAL_FIELD_GET(DSCP_TO_INT_PRIO_MAPm, DSCP_TO_INT_PRIO_MAP_INT_PRIOf, &entry, &pri);
 3298              		.loc 1 266 5 is_stmt 1 discriminator 2 view .LVU840
 3299 0082 029B     		ldr	r3, [sp, #8]
 3300              	.LVL378:
 266:../switch_sdk/core/fal/tiger/fal_tiger_qos.c ****     HAL_FIELD_GET(DSCP_TO_INT_PRIO_MAPm, DSCP_TO_INT_PRIO_MAP_INT_PRIOf, &entry, &pri);
 3301              		.loc 1 266 5 is_stmt 0 discriminator 2 view .LVU841
 3302              	.LBE58:
 266:../switch_sdk/core/fal/tiger/fal_tiger_qos.c ****     HAL_FIELD_GET(DSCP_TO_INT_PRIO_MAPm, DSCP_TO_INT_PRIO_MAP_INT_PRIOf, &entry, &pri);
 3303              		.loc 1 266 5 is_stmt 1 discriminator 2 view .LVU842
 267:../switch_sdk/core/fal/tiger/fal_tiger_qos.c **** 
 3304              		.loc 1 267 5 discriminator 2 view .LVU843
 267:../switch_sdk/core/fal/tiger/fal_tiger_qos.c **** 
 3305              		.loc 1 267 11 is_stmt 0 discriminator 2 view .LVU844
 3306 0084 2B70     		strb	r3, [r5]
 269:../switch_sdk/core/fal/tiger/fal_tiger_qos.c **** }
 3307              		.loc 1 269 5 is_stmt 1 discriminator 2 view .LVU845
 269:../switch_sdk/core/fal/tiger/fal_tiger_qos.c **** }
 3308              		.loc 1 269 12 is_stmt 0 discriminator 2 view .LVU846
 3309 0086 0020     		movs	r0, #0
 3310 0088 DBE7     		b	.L216
 3311              	.L227:
 3312 008a 00BF     		.align	2
 3313              	.L226:
 3314 008c 00000000 		.word	gpSwitchUnit
 3315 0090 00000000 		.word	yt_debug_level
 3316 0094 00000000 		.word	_yt_errmsg
 3317 0098 00000000 		.word	_yt_prompt_msg
 3318 009c 00000000 		.word	.LC0
 3319 00a0 00000000 		.word	__FUNCTION__.36
 3320 00a4 00000000 		.word	.LC10
 3321 00a8 58000000 		.word	.LC2
 3322              		.cfi_endproc
 3323              	.LFE12:
 3325              		.section	.rodata.fal_tiger_qos_intPri_vlan_map_set.str1.4,"aMS",%progbits,1
 3326              		.align	2
 3327              	.LC12:
 3328 0000 68616C5F 		.ascii	"hal_table_reg_read(unit,187,vid,sizeof(l2_vlan_tbl_"
 3328      7461626C 
 3328      655F7265 
 3328      675F7265 
 3328      61642875 
 3329 0033 74292C26 		.ascii	"t),&entry)\000"
 3329      656E7472 
 3329      792900
 3330 003e 0000     		.align	2
 3331              	.LC13:
 3332 0040 68616C5F 		.ascii	"hal_table_reg_write(unit,187,vid,sizeof(l2_vlan_tbl"
 3332      7461626C 
 3332      655F7265 
 3332      675F7772 
 3332      69746528 
 3333 0073 5F74292C 		.ascii	"_t),&entry)\000"
 3333      26656E74 
 3333      72792900 
 3334              		.section	.text.fal_tiger_qos_intPri_vlan_map_set,"ax",%progbits
 3335              		.align	1
 3336              		.global	fal_tiger_qos_intPri_vlan_map_set
 3337              		.syntax unified
 3338              		.thumb
 3339              		.thumb_func
 3341              	fal_tiger_qos_intPri_vlan_map_set:
 3342              	.LVL379:
 3343              	.LFB13:
 271:../switch_sdk/core/fal/tiger/fal_tiger_qos.c **** 
 272:../switch_sdk/core/fal/tiger/fal_tiger_qos.c **** yt_ret_t  fal_tiger_qos_intPri_vlan_map_set(yt_unit_t unit, yt_vlan_t vid, yt_enable_t enable, yt_p
 273:../switch_sdk/core/fal/tiger/fal_tiger_qos.c **** {
 3344              		.loc 1 273 1 is_stmt 1 view -0
 3345              		.cfi_startproc
 3346              		@ args = 0, pretend = 0, frame = 8
 3347              		@ frame_needed = 0, uses_anonymous_args = 0
 3348              		.loc 1 273 1 is_stmt 0 view .LVU848
 3349 0000 2DE9F041 		push	{r4, r5, r6, r7, r8, lr}
 3350              		.cfi_def_cfa_offset 24
 3351              		.cfi_offset 4, -24
 3352              		.cfi_offset 5, -20
 3353              		.cfi_offset 6, -16
 3354              		.cfi_offset 7, -12
 3355              		.cfi_offset 8, -8
 3356              		.cfi_offset 14, -4
 3357 0004 84B0     		sub	sp, sp, #16
 3358              		.cfi_def_cfa_offset 40
 3359 0006 1E46     		mov	r6, r3
 274:../switch_sdk/core/fal/tiger/fal_tiger_qos.c ****     l2_vlan_tbl_t entry;
 3360              		.loc 1 274 5 is_stmt 1 view .LVU849
 275:../switch_sdk/core/fal/tiger/fal_tiger_qos.c ****     cmm_err_t ret = CMM_ERR_OK;
 3361              		.loc 1 275 5 view .LVU850
 3362              	.LVL380:
 276:../switch_sdk/core/fal/tiger/fal_tiger_qos.c **** 
 277:../switch_sdk/core/fal/tiger/fal_tiger_qos.c ****     CMM_PARAM_CHK(CAL_MAX_VALUE_INT_PRI(unit) < pri, CMM_ERR_INPUT);
 3363              		.loc 1 277 5 view .LVU851
 3364              		.loc 1 277 5 view .LVU852
 3365 0008 354B     		ldr	r3, .L242
 3366              	.LVL381:
 3367              		.loc 1 277 5 is_stmt 0 view .LVU853
 3368 000a 53F82030 		ldr	r3, [r3, r0, lsl #2]
 3369 000e D3F8AC30 		ldr	r3, [r3, #172]
 3370 0012 DB78     		ldrb	r3, [r3, #3]	@ zero_extendqisi2
 3371 0014 B342     		cmp	r3, r6
 3372 0016 13D3     		bcc	.L237
 3373 0018 0546     		mov	r5, r0
 3374 001a 0F46     		mov	r7, r1
 3375 001c 9046     		mov	r8, r2
 3376              		.loc 1 277 5 is_stmt 1 discriminator 2 view .LVU854
 278:../switch_sdk/core/fal/tiger/fal_tiger_qos.c ****     CMM_ERR_CHK(HAL_TBL_REG_READ(unit, L2_VLAN_TBLm, vid,sizeof(l2_vlan_tbl_t), &entry), ret);
 3377              		.loc 1 278 5 discriminator 2 view .LVU855
 3378              		.loc 1 278 5 discriminator 2 view .LVU856
 3379 001e 02AB     		add	r3, sp, #8
 3380 0020 0093     		str	r3, [sp]
 3381 0022 0823     		movs	r3, #8
 3382 0024 0A46     		mov	r2, r1
 3383              	.LVL382:
 3384              		.loc 1 278 5 is_stmt 0 discriminator 2 view .LVU857
 3385 0026 BB21     		movs	r1, #187
 3386              	.LVL383:
 3387              		.loc 1 278 5 discriminator 2 view .LVU858
 3388 0028 FFF7FEFF 		bl	hal_table_reg_read
 3389              	.LVL384:
 3390              		.loc 1 278 5 discriminator 2 view .LVU859
 3391 002c 0446     		mov	r4, r0
 3392              	.LVL385:
 3393              		.loc 1 278 5 discriminator 2 view .LVU860
 3394 002e 10F0FF03 		ands	r3, r0, #255
 3395 0032 25D0     		beq	.L232
 3396              		.loc 1 278 5 is_stmt 1 discriminator 1 view .LVU861
 3397              		.loc 1 278 5 discriminator 1 view .LVU862
 3398 0034 2B4A     		ldr	r2, .L242+4
 3399 0036 1278     		ldrb	r2, [r2]	@ zero_extendqisi2
 3400 0038 012A     		cmp	r2, #1
 3401 003a 11D8     		bhi	.L238
 3402              	.LVL386:
 3403              	.L233:
 3404              		.loc 1 278 5 discriminator 5 view .LVU863
 3405              		.loc 1 278 5 discriminator 5 view .LVU864
 3406              		.loc 1 278 5 discriminator 5 view .LVU865
 3407 003c E0B2     		uxtb	r0, r4
 3408 003e 04E0     		b	.L228
 3409              	.LVL387:
 3410              	.L237:
 277:../switch_sdk/core/fal/tiger/fal_tiger_qos.c ****     CMM_ERR_CHK(HAL_TBL_REG_READ(unit, L2_VLAN_TBLm, vid,sizeof(l2_vlan_tbl_t), &entry), ret);
 3411              		.loc 1 277 5 discriminator 1 view .LVU866
 277:../switch_sdk/core/fal/tiger/fal_tiger_qos.c ****     CMM_ERR_CHK(HAL_TBL_REG_READ(unit, L2_VLAN_TBLm, vid,sizeof(l2_vlan_tbl_t), &entry), ret);
 3412              		.loc 1 277 5 discriminator 1 view .LVU867
 3413 0040 284B     		ldr	r3, .L242+4
 3414 0042 1B78     		ldrb	r3, [r3]	@ zero_extendqisi2
 3415 0044 012B     		cmp	r3, #1
 3416 0046 03D8     		bhi	.L239
 3417              	.LVL388:
 3418              	.L230:
 277:../switch_sdk/core/fal/tiger/fal_tiger_qos.c ****     CMM_ERR_CHK(HAL_TBL_REG_READ(unit, L2_VLAN_TBLm, vid,sizeof(l2_vlan_tbl_t), &entry), ret);
 3419              		.loc 1 277 5 discriminator 5 view .LVU868
 277:../switch_sdk/core/fal/tiger/fal_tiger_qos.c ****     CMM_ERR_CHK(HAL_TBL_REG_READ(unit, L2_VLAN_TBLm, vid,sizeof(l2_vlan_tbl_t), &entry), ret);
 3420              		.loc 1 277 5 discriminator 5 view .LVU869
 277:../switch_sdk/core/fal/tiger/fal_tiger_qos.c ****     CMM_ERR_CHK(HAL_TBL_REG_READ(unit, L2_VLAN_TBLm, vid,sizeof(l2_vlan_tbl_t), &entry), ret);
 3421              		.loc 1 277 5 discriminator 5 view .LVU870
 3422 0048 0520     		movs	r0, #5
 3423              	.LVL389:
 3424              	.L228:
 279:../switch_sdk/core/fal/tiger/fal_tiger_qos.c ****     HAL_FIELD_SET(L2_VLAN_TBLm, L2_VLAN_TBL_INT_PRI_VALIDf, &entry, enable);
 280:../switch_sdk/core/fal/tiger/fal_tiger_qos.c ****     HAL_FIELD_SET(L2_VLAN_TBLm, L2_VLAN_TBL_INT_PRIf, &entry, pri);
 281:../switch_sdk/core/fal/tiger/fal_tiger_qos.c ****     CMM_ERR_CHK(HAL_TBL_REG_WRITE(unit, L2_VLAN_TBLm, vid, sizeof(l2_vlan_tbl_t), &entry), ret);
 282:../switch_sdk/core/fal/tiger/fal_tiger_qos.c ****     return CMM_ERR_OK;
 283:../switch_sdk/core/fal/tiger/fal_tiger_qos.c **** }
 3425              		.loc 1 283 1 is_stmt 0 view .LVU871
 3426 004a 04B0     		add	sp, sp, #16
 3427              		.cfi_remember_state
 3428              		.cfi_def_cfa_offset 24
 3429              		@ sp needed
 3430 004c BDE8F081 		pop	{r4, r5, r6, r7, r8, pc}
 3431              	.LVL390:
 3432              	.L239:
 3433              		.cfi_restore_state
 277:../switch_sdk/core/fal/tiger/fal_tiger_qos.c ****     CMM_ERR_CHK(HAL_TBL_REG_READ(unit, L2_VLAN_TBLm, vid,sizeof(l2_vlan_tbl_t), &entry), ret);
 3434              		.loc 1 277 5 is_stmt 1 discriminator 3 view .LVU872
 3435              	.LBB59:
 277:../switch_sdk/core/fal/tiger/fal_tiger_qos.c ****     CMM_ERR_CHK(HAL_TBL_REG_READ(unit, L2_VLAN_TBLm, vid,sizeof(l2_vlan_tbl_t), &entry), ret);
 3436              		.loc 1 277 5 discriminator 3 view .LVU873
 3437 0050 254B     		ldr	r3, .L242+8
 3438 0052 5A69     		ldr	r2, [r3, #20]
 3439              	.LVL391:
 277:../switch_sdk/core/fal/tiger/fal_tiger_qos.c ****     CMM_ERR_CHK(HAL_TBL_REG_READ(unit, L2_VLAN_TBLm, vid,sizeof(l2_vlan_tbl_t), &entry), ret);
 3440              		.loc 1 277 5 is_stmt 0 discriminator 3 view .LVU874
 3441 0054 254B     		ldr	r3, .L242+12
 3442 0056 9968     		ldr	r1, [r3, #8]
 3443              	.LVL392:
 277:../switch_sdk/core/fal/tiger/fal_tiger_qos.c ****     CMM_ERR_CHK(HAL_TBL_REG_READ(unit, L2_VLAN_TBLm, vid,sizeof(l2_vlan_tbl_t), &entry), ret);
 3444              		.loc 1 277 5 discriminator 3 view .LVU875
 3445 0058 2548     		ldr	r0, .L242+16
 3446              	.LVL393:
 277:../switch_sdk/core/fal/tiger/fal_tiger_qos.c ****     CMM_ERR_CHK(HAL_TBL_REG_READ(unit, L2_VLAN_TBLm, vid,sizeof(l2_vlan_tbl_t), &entry), ret);
 3447              		.loc 1 277 5 discriminator 3 view .LVU876
 3448 005a FFF7FEFF 		bl	osal_printf
 3449              	.LVL394:
 3450 005e F3E7     		b	.L230
 3451              	.LVL395:
 3452              	.L238:
 277:../switch_sdk/core/fal/tiger/fal_tiger_qos.c ****     CMM_ERR_CHK(HAL_TBL_REG_READ(unit, L2_VLAN_TBLm, vid,sizeof(l2_vlan_tbl_t), &entry), ret);
 3453              		.loc 1 277 5 discriminator 3 view .LVU877
 3454              	.LBE59:
 278:../switch_sdk/core/fal/tiger/fal_tiger_qos.c ****     HAL_FIELD_SET(L2_VLAN_TBLm, L2_VLAN_TBL_INT_PRI_VALIDf, &entry, enable);
 3455              		.loc 1 278 5 is_stmt 1 discriminator 3 view .LVU878
 3456              	.LBB60:
 278:../switch_sdk/core/fal/tiger/fal_tiger_qos.c ****     HAL_FIELD_SET(L2_VLAN_TBLm, L2_VLAN_TBL_INT_PRI_VALIDf, &entry, enable);
 3457              		.loc 1 278 5 discriminator 3 view .LVU879
 3458 0060 142B     		cmp	r3, #20
 3459 0062 28BF     		it	cs
 3460 0064 1423     		movcs	r3, #20
 3461 0066 1A46     		mov	r2, r3
 3462 0068 224B     		ldr	r3, .L242+20
 3463 006a 0093     		str	r3, [sp]
 3464 006c 224B     		ldr	r3, .L242+24
 3465 006e 1E49     		ldr	r1, .L242+8
 3466 0070 51F82220 		ldr	r2, [r1, r2, lsl #2]
 3467 0074 1D49     		ldr	r1, .L242+12
 3468 0076 8968     		ldr	r1, [r1, #8]
 3469 0078 2048     		ldr	r0, .L242+28
 3470              	.LVL396:
 278:../switch_sdk/core/fal/tiger/fal_tiger_qos.c ****     HAL_FIELD_SET(L2_VLAN_TBLm, L2_VLAN_TBL_INT_PRI_VALIDf, &entry, enable);
 3471              		.loc 1 278 5 is_stmt 0 discriminator 3 view .LVU880
 3472 007a FFF7FEFF 		bl	osal_printf
 3473              	.LVL397:
 3474 007e DDE7     		b	.L233
 3475              	.LVL398:
 3476              	.L232:
 278:../switch_sdk/core/fal/tiger/fal_tiger_qos.c ****     HAL_FIELD_SET(L2_VLAN_TBLm, L2_VLAN_TBL_INT_PRI_VALIDf, &entry, enable);
 3477              		.loc 1 278 5 discriminator 3 view .LVU881
 3478              	.LBE60:
 278:../switch_sdk/core/fal/tiger/fal_tiger_qos.c ****     HAL_FIELD_SET(L2_VLAN_TBLm, L2_VLAN_TBL_INT_PRI_VALIDf, &entry, enable);
 3479              		.loc 1 278 5 is_stmt 1 discriminator 2 view .LVU882
 279:../switch_sdk/core/fal/tiger/fal_tiger_qos.c ****     HAL_FIELD_SET(L2_VLAN_TBLm, L2_VLAN_TBL_INT_PRI_VALIDf, &entry, enable);
 3480              		.loc 1 279 5 discriminator 2 view .LVU883
 3481 0080 02AC     		add	r4, sp, #8
 3482 0082 4346     		mov	r3, r8
 3483 0084 2246     		mov	r2, r4
 3484 0086 0621     		movs	r1, #6
 3485 0088 BB20     		movs	r0, #187
 3486              	.LVL399:
 279:../switch_sdk/core/fal/tiger/fal_tiger_qos.c ****     HAL_FIELD_SET(L2_VLAN_TBLm, L2_VLAN_TBL_INT_PRI_VALIDf, &entry, enable);
 3487              		.loc 1 279 5 is_stmt 0 discriminator 2 view .LVU884
 3488 008a FFF7FEFF 		bl	hal_tbl_reg_field_set
 3489              	.LVL400:
 280:../switch_sdk/core/fal/tiger/fal_tiger_qos.c ****     CMM_ERR_CHK(HAL_TBL_REG_WRITE(unit, L2_VLAN_TBLm, vid, sizeof(l2_vlan_tbl_t), &entry), ret);
 3490              		.loc 1 280 5 is_stmt 1 discriminator 2 view .LVU885
 3491 008e 3346     		mov	r3, r6
 3492 0090 2246     		mov	r2, r4
 3493 0092 0721     		movs	r1, #7
 3494 0094 BB20     		movs	r0, #187
 3495 0096 FFF7FEFF 		bl	hal_tbl_reg_field_set
 3496              	.LVL401:
 281:../switch_sdk/core/fal/tiger/fal_tiger_qos.c ****     return CMM_ERR_OK;
 3497              		.loc 1 281 5 discriminator 2 view .LVU886
 281:../switch_sdk/core/fal/tiger/fal_tiger_qos.c ****     return CMM_ERR_OK;
 3498              		.loc 1 281 5 discriminator 2 view .LVU887
 3499 009a 0094     		str	r4, [sp]
 3500 009c 0823     		movs	r3, #8
 3501 009e 3A46     		mov	r2, r7
 3502 00a0 BB21     		movs	r1, #187
 3503 00a2 2846     		mov	r0, r5
 3504 00a4 FFF7FEFF 		bl	hal_table_reg_write
 3505              	.LVL402:
 3506 00a8 0446     		mov	r4, r0
 3507              	.LVL403:
 281:../switch_sdk/core/fal/tiger/fal_tiger_qos.c ****     return CMM_ERR_OK;
 3508              		.loc 1 281 5 is_stmt 0 discriminator 2 view .LVU888
 3509 00aa 10F0FF03 		ands	r3, r0, #255
 3510 00ae 01D1     		bne	.L240
 282:../switch_sdk/core/fal/tiger/fal_tiger_qos.c **** }
 3511              		.loc 1 282 12 view .LVU889
 3512 00b0 0020     		movs	r0, #0
 3513              	.LVL404:
 282:../switch_sdk/core/fal/tiger/fal_tiger_qos.c **** }
 3514              		.loc 1 282 12 view .LVU890
 3515 00b2 CAE7     		b	.L228
 3516              	.LVL405:
 3517              	.L240:
 281:../switch_sdk/core/fal/tiger/fal_tiger_qos.c ****     return CMM_ERR_OK;
 3518              		.loc 1 281 5 is_stmt 1 discriminator 1 view .LVU891
 281:../switch_sdk/core/fal/tiger/fal_tiger_qos.c ****     return CMM_ERR_OK;
 3519              		.loc 1 281 5 discriminator 1 view .LVU892
 3520 00b4 0B4A     		ldr	r2, .L242+4
 3521 00b6 1278     		ldrb	r2, [r2]	@ zero_extendqisi2
 3522 00b8 012A     		cmp	r2, #1
 3523 00ba 01D8     		bhi	.L241
 3524              	.LVL406:
 3525              	.L234:
 281:../switch_sdk/core/fal/tiger/fal_tiger_qos.c ****     return CMM_ERR_OK;
 3526              		.loc 1 281 5 discriminator 5 view .LVU893
 281:../switch_sdk/core/fal/tiger/fal_tiger_qos.c ****     return CMM_ERR_OK;
 3527              		.loc 1 281 5 discriminator 5 view .LVU894
 281:../switch_sdk/core/fal/tiger/fal_tiger_qos.c ****     return CMM_ERR_OK;
 3528              		.loc 1 281 5 discriminator 5 view .LVU895
 3529 00bc E0B2     		uxtb	r0, r4
 3530 00be C4E7     		b	.L228
 3531              	.LVL407:
 3532              	.L241:
 281:../switch_sdk/core/fal/tiger/fal_tiger_qos.c ****     return CMM_ERR_OK;
 3533              		.loc 1 281 5 discriminator 3 view .LVU896
 3534              	.LBB61:
 281:../switch_sdk/core/fal/tiger/fal_tiger_qos.c ****     return CMM_ERR_OK;
 3535              		.loc 1 281 5 discriminator 3 view .LVU897
 3536 00c0 142B     		cmp	r3, #20
 3537 00c2 28BF     		it	cs
 3538 00c4 1423     		movcs	r3, #20
 3539 00c6 1A46     		mov	r2, r3
 3540 00c8 0A4B     		ldr	r3, .L242+20
 3541 00ca 0093     		str	r3, [sp]
 3542 00cc 0C4B     		ldr	r3, .L242+32
 3543 00ce 0649     		ldr	r1, .L242+8
 3544 00d0 51F82220 		ldr	r2, [r1, r2, lsl #2]
 3545 00d4 0549     		ldr	r1, .L242+12
 3546 00d6 8968     		ldr	r1, [r1, #8]
 3547 00d8 0848     		ldr	r0, .L242+28
 3548              	.LVL408:
 281:../switch_sdk/core/fal/tiger/fal_tiger_qos.c ****     return CMM_ERR_OK;
 3549              		.loc 1 281 5 is_stmt 0 discriminator 3 view .LVU898
 3550 00da FFF7FEFF 		bl	osal_printf
 3551              	.LVL409:
 3552 00de EDE7     		b	.L234
 3553              	.L243:
 3554              		.align	2
 3555              	.L242:
 3556 00e0 00000000 		.word	gpSwitchUnit
 3557 00e4 00000000 		.word	yt_debug_level
 3558 00e8 00000000 		.word	_yt_errmsg
 3559 00ec 00000000 		.word	_yt_prompt_msg
 3560 00f0 00000000 		.word	.LC0
 3561 00f4 00000000 		.word	__FUNCTION__.35
 3562 00f8 00000000 		.word	.LC12
 3563 00fc 58000000 		.word	.LC2
 3564 0100 40000000 		.word	.LC13
 3565              	.LBE61:
 3566              		.cfi_endproc
 3567              	.LFE13:
 3569              		.section	.text.fal_tiger_qos_intPri_vlan_map_get,"ax",%progbits
 3570              		.align	1
 3571              		.global	fal_tiger_qos_intPri_vlan_map_get
 3572              		.syntax unified
 3573              		.thumb
 3574              		.thumb_func
 3576              	fal_tiger_qos_intPri_vlan_map_get:
 3577              	.LVL410:
 3578              	.LFB14:
 284:../switch_sdk/core/fal/tiger/fal_tiger_qos.c **** 
 285:../switch_sdk/core/fal/tiger/fal_tiger_qos.c **** yt_ret_t  fal_tiger_qos_intPri_vlan_map_get(yt_unit_t unit, yt_vlan_t vid, yt_enable_t *pEnable, yt
 286:../switch_sdk/core/fal/tiger/fal_tiger_qos.c **** {
 3579              		.loc 1 286 1 is_stmt 1 view -0
 3580              		.cfi_startproc
 3581              		@ args = 0, pretend = 0, frame = 16
 3582              		@ frame_needed = 0, uses_anonymous_args = 0
 3583              		.loc 1 286 1 is_stmt 0 view .LVU900
 3584 0000 70B5     		push	{r4, r5, r6, lr}
 3585              		.cfi_def_cfa_offset 16
 3586              		.cfi_offset 4, -16
 3587              		.cfi_offset 5, -12
 3588              		.cfi_offset 6, -8
 3589              		.cfi_offset 14, -4
 3590 0002 86B0     		sub	sp, sp, #24
 3591              		.cfi_def_cfa_offset 40
 3592 0004 1646     		mov	r6, r2
 3593 0006 1D46     		mov	r5, r3
 287:../switch_sdk/core/fal/tiger/fal_tiger_qos.c ****     l2_vlan_tbl_t entry;
 3594              		.loc 1 287 5 is_stmt 1 view .LVU901
 288:../switch_sdk/core/fal/tiger/fal_tiger_qos.c ****     cmm_err_t ret = CMM_ERR_OK;
 3595              		.loc 1 288 5 view .LVU902
 3596              	.LVL411:
 289:../switch_sdk/core/fal/tiger/fal_tiger_qos.c **** 
 290:../switch_sdk/core/fal/tiger/fal_tiger_qos.c ****     CMM_ERR_CHK(HAL_TBL_REG_READ(unit, L2_VLAN_TBLm, vid,sizeof(l2_vlan_tbl_t), &entry), ret);
 3597              		.loc 1 290 5 view .LVU903
 3598              		.loc 1 290 5 view .LVU904
 3599 0008 04AC     		add	r4, sp, #16
 3600 000a 0094     		str	r4, [sp]
 3601 000c 0823     		movs	r3, #8
 3602              	.LVL412:
 3603              		.loc 1 290 5 is_stmt 0 view .LVU905
 3604 000e 0A46     		mov	r2, r1
 3605              	.LVL413:
 3606              		.loc 1 290 5 view .LVU906
 3607 0010 BB21     		movs	r1, #187
 3608              	.LVL414:
 3609              		.loc 1 290 5 view .LVU907
 3610 0012 FFF7FEFF 		bl	hal_table_reg_read
 3611              	.LVL415:
 3612              		.loc 1 290 5 view .LVU908
 3613 0016 10F0FF03 		ands	r3, r0, #255
 3614 001a 17D0     		beq	.L245
 3615 001c 0446     		mov	r4, r0
 3616              		.loc 1 290 5 is_stmt 1 discriminator 1 view .LVU909
 3617              		.loc 1 290 5 discriminator 1 view .LVU910
 3618 001e 144A     		ldr	r2, .L250
 3619 0020 1278     		ldrb	r2, [r2]	@ zero_extendqisi2
