   1              		.cpu cortex-m3
   2              		.arch armv7-m
   3              		.fpu softvfp
   4              		.eabi_attribute 20, 1
   5              		.eabi_attribute 21, 1
   6              		.eabi_attribute 23, 3
   7              		.eabi_attribute 24, 1
   8              		.eabi_attribute 25, 1
   9              		.eabi_attribute 26, 1
  10              		.eabi_attribute 30, 1
  11              		.eabi_attribute 34, 1
  12              		.eabi_attribute 18, 4
  13              		.file	"fal_tiger_dos.c"
  14              		.text
  15              	.Ltext0:
  16              		.cfi_sections	.debug_frame
  17              		.file 1 "../switch_sdk/core/fal/tiger/fal_tiger_dos.c"
  18              		.section	.rodata.fal_tiger_dos_tcp_flagsn_set.str1.4,"aMS",%progbits,1
  19              		.align	2
  20              	.LC0:
  21 0000 68616C5F 		.ascii	"hal_table_reg_write(unit,memid,0,sizeof(dos_tcp_fla"
  21      7461626C 
  21      655F7265 
  21      675F7772 
  21      69746528 
  22 0033 6773305F 		.ascii	"gs0_t),&dos_tcp_flagsn)\000"
  22      74292C26 
  22      646F735F 
  22      7463705F 
  22      666C6167 
  23 004b 00       		.align	2
  24              	.LC1:
  25 004c 25732573 		.ascii	"%s%s of \"%s\" in %s\015\012\000"
  25      206F6620 
  25      22257322 
  25      20696E20 
  25      25730D0A 
  26              		.section	.text.fal_tiger_dos_tcp_flagsn_set,"ax",%progbits
  27              		.align	1
  28              		.syntax unified
  29              		.thumb
  30              		.thumb_func
  32              	fal_tiger_dos_tcp_flagsn_set:
  33              	.LVL0:
  34              	.LFB3:
   1:../switch_sdk/core/fal/tiger/fal_tiger_dos.c **** /******************************************************************************
   2:../switch_sdk/core/fal/tiger/fal_tiger_dos.c **** *                                                                              *
   3:../switch_sdk/core/fal/tiger/fal_tiger_dos.c **** *  Copyright (c), 2022, Motorcomm Electronic Technology Co.,Ltd.               *
   4:../switch_sdk/core/fal/tiger/fal_tiger_dos.c **** *  Motorcomm Confidential and Proprietary.                                     *
   5:../switch_sdk/core/fal/tiger/fal_tiger_dos.c **** *                                                                              *
   6:../switch_sdk/core/fal/tiger/fal_tiger_dos.c **** *******************************************************************************
   7:../switch_sdk/core/fal/tiger/fal_tiger_dos.c **** *  File Name     : fal_tiger_dos.c
   8:../switch_sdk/core/fal/tiger/fal_tiger_dos.c **** *  Version       : Initial Draft
   9:../switch_sdk/core/fal/tiger/fal_tiger_dos.c **** *  Author        :
  10:../switch_sdk/core/fal/tiger/fal_tiger_dos.c **** *  Created       : 2021/8/11
  11:../switch_sdk/core/fal/tiger/fal_tiger_dos.c **** *  Last Modified :
  12:../switch_sdk/core/fal/tiger/fal_tiger_dos.c **** *  Description   : Denial of Service
  13:../switch_sdk/core/fal/tiger/fal_tiger_dos.c **** *  History:
  14:../switch_sdk/core/fal/tiger/fal_tiger_dos.c **** * 
  15:../switch_sdk/core/fal/tiger/fal_tiger_dos.c **** *       1.  Date            : 2021/8/11
  16:../switch_sdk/core/fal/tiger/fal_tiger_dos.c **** *           Author          :
  17:../switch_sdk/core/fal/tiger/fal_tiger_dos.c **** *           Modification : Created file
  18:../switch_sdk/core/fal/tiger/fal_tiger_dos.c **** *
  19:../switch_sdk/core/fal/tiger/fal_tiger_dos.c **** ******************************************************************************/
  20:../switch_sdk/core/fal/tiger/fal_tiger_dos.c **** 
  21:../switch_sdk/core/fal/tiger/fal_tiger_dos.c **** /**************************************************
  22:../switch_sdk/core/fal/tiger/fal_tiger_dos.c ****  *      Include header files                                               *
  23:../switch_sdk/core/fal/tiger/fal_tiger_dos.c ****  **************************************************/
  24:../switch_sdk/core/fal/tiger/fal_tiger_dos.c **** #include "yt_error.h"
  25:../switch_sdk/core/fal/tiger/fal_tiger_dos.c **** //#include "osal_mem.h"
  26:../switch_sdk/core/fal/tiger/fal_tiger_dos.c **** //#include "osal_print.h"
  27:../switch_sdk/core/fal/tiger/fal_tiger_dos.c **** #include "fal_tiger_dos.h"
  28:../switch_sdk/core/fal/tiger/fal_tiger_dos.c **** #include "hal_mem.h"
  29:../switch_sdk/core/fal/tiger/fal_tiger_dos.c **** #include "fal_tiger_struct.h"
  30:../switch_sdk/core/fal/tiger/fal_tiger_dos.c **** #include "fal_tiger_entry.h"
  31:../switch_sdk/core/fal/tiger/fal_tiger_dos.c **** #include "fal_tiger_mem.h"
  32:../switch_sdk/core/fal/tiger/fal_tiger_dos.c **** /**************************************************
  33:../switch_sdk/core/fal/tiger/fal_tiger_dos.c ****  *      Constants or macros Declaration                          *
  34:../switch_sdk/core/fal/tiger/fal_tiger_dos.c ****  **************************************************/
  35:../switch_sdk/core/fal/tiger/fal_tiger_dos.c **** 
  36:../switch_sdk/core/fal/tiger/fal_tiger_dos.c **** /**************************************************
  37:../switch_sdk/core/fal/tiger/fal_tiger_dos.c ****  *      Global variables                                                   *
  38:../switch_sdk/core/fal/tiger/fal_tiger_dos.c ****  **************************************************/
  39:../switch_sdk/core/fal/tiger/fal_tiger_dos.c **** 
  40:../switch_sdk/core/fal/tiger/fal_tiger_dos.c **** /**************************************************
  41:../switch_sdk/core/fal/tiger/fal_tiger_dos.c ****  *      Functions Declaration                                           *
  42:../switch_sdk/core/fal/tiger/fal_tiger_dos.c ****  **************************************************/
  43:../switch_sdk/core/fal/tiger/fal_tiger_dos.c **** 
  44:../switch_sdk/core/fal/tiger/fal_tiger_dos.c **** 
  45:../switch_sdk/core/fal/tiger/fal_tiger_dos.c **** 
  46:../switch_sdk/core/fal/tiger/fal_tiger_dos.c **** /**************************************************
  47:../switch_sdk/core/fal/tiger/fal_tiger_dos.c ****  *      Functions implementations                                   *
  48:../switch_sdk/core/fal/tiger/fal_tiger_dos.c ****  **************************************************/
  49:../switch_sdk/core/fal/tiger/fal_tiger_dos.c **** 
  50:../switch_sdk/core/fal/tiger/fal_tiger_dos.c **** static uint32_t  fal_tiger_dos_tcp_flagsn_set(yt_unit_t unit, yt_dos_type_t type, yt_enable_t enabl
  51:../switch_sdk/core/fal/tiger/fal_tiger_dos.c **** {
  35              		.loc 1 51 1 view -0
  36              		.cfi_startproc
  37              		@ args = 0, pretend = 0, frame = 8
  38              		@ frame_needed = 0, uses_anonymous_args = 0
  39              		.loc 1 51 1 is_stmt 0 view .LVU1
  40 0000 F0B5     		push	{r4, r5, r6, r7, lr}
  41              		.cfi_def_cfa_offset 20
  42              		.cfi_offset 4, -20
  43              		.cfi_offset 5, -16
  44              		.cfi_offset 6, -12
  45              		.cfi_offset 7, -8
  46              		.cfi_offset 14, -4
  47 0002 85B0     		sub	sp, sp, #20
  48              		.cfi_def_cfa_offset 40
  49 0004 0546     		mov	r5, r0
  50 0006 1446     		mov	r4, r2
  52:../switch_sdk/core/fal/tiger/fal_tiger_dos.c ****     dos_tcp_flags0_t dos_tcp_flagsn;
  51              		.loc 1 52 5 is_stmt 1 view .LVU2
  53:../switch_sdk/core/fal/tiger/fal_tiger_dos.c ****     cmm_err_t ret = CMM_ERR_OK;
  52              		.loc 1 53 5 view .LVU3
  53              	.LVL1:
  54:../switch_sdk/core/fal/tiger/fal_tiger_dos.c ****     uint16_t memid = 0;
  54              		.loc 1 54 5 view .LVU4
  55:../switch_sdk/core/fal/tiger/fal_tiger_dos.c **** 
  56:../switch_sdk/core/fal/tiger/fal_tiger_dos.c ****     switch(type)
  55              		.loc 1 56 5 view .LVU5
  56 0008 A1F10C03 		sub	r3, r1, #12
  57 000c 052B     		cmp	r3, #5
  58 000e 00F27681 		bhi	.L20
  59 0012 DFE803F0 		tbb	[pc, r3]
  60              	.LVL2:
  61              	.L4:
  62 0016 03       		.byte	(.L9-.L4)/2
  63 0017 52       		.byte	(.L21-.L4)/2
  64 0018 4A       		.byte	(.L7-.L4)/2
  65 0019 4C       		.byte	(.L6-.L4)/2
  66 001a 4E       		.byte	(.L5-.L4)/2
  67 001b 50       		.byte	(.L3-.L4)/2
  68              		.p2align 1
  69              	.L9:
  70              		.loc 1 56 5 is_stmt 0 view .LVU6
  71 001c 0426     		movs	r6, #4
  72              	.LVL3:
  73              	.L8:
  57:../switch_sdk/core/fal/tiger/fal_tiger_dos.c ****     {
  58:../switch_sdk/core/fal/tiger/fal_tiger_dos.c ****         case DOS_TYPE_TCP_SYNRST_SCAN:
  59:../switch_sdk/core/fal/tiger/fal_tiger_dos.c ****            memid = 4;
  60:../switch_sdk/core/fal/tiger/fal_tiger_dos.c ****            break;
  61:../switch_sdk/core/fal/tiger/fal_tiger_dos.c ****         case DOS_TYPE_TCP_SYNFIN_SCAN:
  62:../switch_sdk/core/fal/tiger/fal_tiger_dos.c ****            memid = 3;
  63:../switch_sdk/core/fal/tiger/fal_tiger_dos.c ****            break;
  64:../switch_sdk/core/fal/tiger/fal_tiger_dos.c ****         case DOS_TYPE_TCP_XMAS_SCAN:
  65:../switch_sdk/core/fal/tiger/fal_tiger_dos.c ****            memid = 0;
  66:../switch_sdk/core/fal/tiger/fal_tiger_dos.c ****            break;
  67:../switch_sdk/core/fal/tiger/fal_tiger_dos.c ****         case DOS_TYPE_TCP_NULL_SCAN:
  68:../switch_sdk/core/fal/tiger/fal_tiger_dos.c ****            memid = 1;
  69:../switch_sdk/core/fal/tiger/fal_tiger_dos.c ****            break;
  70:../switch_sdk/core/fal/tiger/fal_tiger_dos.c ****         case DOS_TYPE_TCP_SYN_PORTLESS1024:
  71:../switch_sdk/core/fal/tiger/fal_tiger_dos.c ****            memid = 2;
  72:../switch_sdk/core/fal/tiger/fal_tiger_dos.c ****            break;
  73:../switch_sdk/core/fal/tiger/fal_tiger_dos.c ****         case DOS_TYPE_TCP_ALLFLAGS_SCAN:
  74:../switch_sdk/core/fal/tiger/fal_tiger_dos.c ****            memid = 5;
  75:../switch_sdk/core/fal/tiger/fal_tiger_dos.c ****            break;
  76:../switch_sdk/core/fal/tiger/fal_tiger_dos.c ****         default:
  77:../switch_sdk/core/fal/tiger/fal_tiger_dos.c ****            return CMM_ERR_NOT_SUPPORT;
  78:../switch_sdk/core/fal/tiger/fal_tiger_dos.c ****     }
  79:../switch_sdk/core/fal/tiger/fal_tiger_dos.c **** 
  80:../switch_sdk/core/fal/tiger/fal_tiger_dos.c ****     if(enable == YT_ENABLE)
  74              		.loc 1 80 5 is_stmt 1 view .LVU7
  75              		.loc 1 80 7 is_stmt 0 view .LVU8
  76 001e 012C     		cmp	r4, #1
  77 0020 4DD0     		beq	.L26
  81:../switch_sdk/core/fal/tiger/fal_tiger_dos.c ****     {
  82:../switch_sdk/core/fal/tiger/fal_tiger_dos.c ****         switch(type)
  83:../switch_sdk/core/fal/tiger/fal_tiger_dos.c ****         {
  84:../switch_sdk/core/fal/tiger/fal_tiger_dos.c ****             case DOS_TYPE_TCP_SYNRST_SCAN:
  85:../switch_sdk/core/fal/tiger/fal_tiger_dos.c ****                 HAL_FIELD_SET(DOS_TCP_FLAGS0m, DOS_TCP_FLAGS0_PUBLIC_TCP_SPORTf, &dos_tcp_flagsn, 0
  86:../switch_sdk/core/fal/tiger/fal_tiger_dos.c ****                 HAL_FIELD_SET(DOS_TCP_FLAGS0m, DOS_TCP_FLAGS0_SEQ_NUM0f, &dos_tcp_flagsn, 0);
  87:../switch_sdk/core/fal/tiger/fal_tiger_dos.c ****                 HAL_FIELD_SET(DOS_TCP_FLAGS0m, DOS_TCP_FLAGS0_TCP_FLAGSf, &dos_tcp_flagsn, 0x6);
  88:../switch_sdk/core/fal/tiger/fal_tiger_dos.c ****                 HAL_FIELD_SET(DOS_TCP_FLAGS0m, DOS_TCP_FLAGS0_PUBLIC_TCP_SPORT_MASKf, &dos_tcp_flag
  89:../switch_sdk/core/fal/tiger/fal_tiger_dos.c ****                 HAL_FIELD_SET(DOS_TCP_FLAGS0m, DOS_TCP_FLAGS0_SEQ_NUM0_MASKf, &dos_tcp_flagsn, 0);
  90:../switch_sdk/core/fal/tiger/fal_tiger_dos.c ****                 HAL_FIELD_SET(DOS_TCP_FLAGS0m, DOS_TCP_FLAGS0_TCP_FLAGS_MASKf, &dos_tcp_flagsn, 0x6
  91:../switch_sdk/core/fal/tiger/fal_tiger_dos.c ****                 HAL_FIELD_SET(DOS_TCP_FLAGS0m, DOS_TCP_FLAGS0_COPY_TO_CPUf, &dos_tcp_flagsn, 0);
  92:../switch_sdk/core/fal/tiger/fal_tiger_dos.c ****                 break;
  93:../switch_sdk/core/fal/tiger/fal_tiger_dos.c ****             case DOS_TYPE_TCP_SYNFIN_SCAN:
  94:../switch_sdk/core/fal/tiger/fal_tiger_dos.c ****                 HAL_FIELD_SET(DOS_TCP_FLAGS0m, DOS_TCP_FLAGS0_PUBLIC_TCP_SPORTf, &dos_tcp_flagsn, 0
  95:../switch_sdk/core/fal/tiger/fal_tiger_dos.c ****                 HAL_FIELD_SET(DOS_TCP_FLAGS0m, DOS_TCP_FLAGS0_SEQ_NUM0f, &dos_tcp_flagsn, 0);
  96:../switch_sdk/core/fal/tiger/fal_tiger_dos.c ****                 HAL_FIELD_SET(DOS_TCP_FLAGS0m, DOS_TCP_FLAGS0_TCP_FLAGSf, &dos_tcp_flagsn, 0x3);
  97:../switch_sdk/core/fal/tiger/fal_tiger_dos.c ****                 HAL_FIELD_SET(DOS_TCP_FLAGS0m, DOS_TCP_FLAGS0_PUBLIC_TCP_SPORT_MASKf, &dos_tcp_flag
  98:../switch_sdk/core/fal/tiger/fal_tiger_dos.c ****                 HAL_FIELD_SET(DOS_TCP_FLAGS0m, DOS_TCP_FLAGS0_SEQ_NUM0_MASKf, &dos_tcp_flagsn, 0);
  99:../switch_sdk/core/fal/tiger/fal_tiger_dos.c ****                 HAL_FIELD_SET(DOS_TCP_FLAGS0m, DOS_TCP_FLAGS0_TCP_FLAGS_MASKf, &dos_tcp_flagsn, 0x3
 100:../switch_sdk/core/fal/tiger/fal_tiger_dos.c ****                 HAL_FIELD_SET(DOS_TCP_FLAGS0m, DOS_TCP_FLAGS0_COPY_TO_CPUf, &dos_tcp_flagsn, 0);
 101:../switch_sdk/core/fal/tiger/fal_tiger_dos.c ****                 break;
 102:../switch_sdk/core/fal/tiger/fal_tiger_dos.c ****             case DOS_TYPE_TCP_XMAS_SCAN:
 103:../switch_sdk/core/fal/tiger/fal_tiger_dos.c ****                 HAL_FIELD_SET(DOS_TCP_FLAGS0m, DOS_TCP_FLAGS0_PUBLIC_TCP_SPORTf, &dos_tcp_flagsn, 0
 104:../switch_sdk/core/fal/tiger/fal_tiger_dos.c ****                 HAL_FIELD_SET(DOS_TCP_FLAGS0m, DOS_TCP_FLAGS0_SEQ_NUM0f, &dos_tcp_flagsn, 1);
 105:../switch_sdk/core/fal/tiger/fal_tiger_dos.c ****                 HAL_FIELD_SET(DOS_TCP_FLAGS0m, DOS_TCP_FLAGS0_TCP_FLAGSf, &dos_tcp_flagsn, 0x29);
 106:../switch_sdk/core/fal/tiger/fal_tiger_dos.c ****                 HAL_FIELD_SET(DOS_TCP_FLAGS0m, DOS_TCP_FLAGS0_PUBLIC_TCP_SPORT_MASKf, &dos_tcp_flag
 107:../switch_sdk/core/fal/tiger/fal_tiger_dos.c ****                 HAL_FIELD_SET(DOS_TCP_FLAGS0m, DOS_TCP_FLAGS0_SEQ_NUM0_MASKf, &dos_tcp_flagsn, 1);
 108:../switch_sdk/core/fal/tiger/fal_tiger_dos.c ****                 HAL_FIELD_SET(DOS_TCP_FLAGS0m, DOS_TCP_FLAGS0_TCP_FLAGS_MASKf, &dos_tcp_flagsn, 0x2
 109:../switch_sdk/core/fal/tiger/fal_tiger_dos.c ****                 HAL_FIELD_SET(DOS_TCP_FLAGS0m, DOS_TCP_FLAGS0_COPY_TO_CPUf, &dos_tcp_flagsn, 0);
 110:../switch_sdk/core/fal/tiger/fal_tiger_dos.c ****                 break;
 111:../switch_sdk/core/fal/tiger/fal_tiger_dos.c ****             case DOS_TYPE_TCP_NULL_SCAN:
 112:../switch_sdk/core/fal/tiger/fal_tiger_dos.c ****                 HAL_FIELD_SET(DOS_TCP_FLAGS0m, DOS_TCP_FLAGS0_PUBLIC_TCP_SPORTf, &dos_tcp_flagsn, 0
 113:../switch_sdk/core/fal/tiger/fal_tiger_dos.c ****                 HAL_FIELD_SET(DOS_TCP_FLAGS0m, DOS_TCP_FLAGS0_SEQ_NUM0f, &dos_tcp_flagsn, 1);
 114:../switch_sdk/core/fal/tiger/fal_tiger_dos.c ****                 HAL_FIELD_SET(DOS_TCP_FLAGS0m, DOS_TCP_FLAGS0_TCP_FLAGSf, &dos_tcp_flagsn, 0);
 115:../switch_sdk/core/fal/tiger/fal_tiger_dos.c ****                 HAL_FIELD_SET(DOS_TCP_FLAGS0m, DOS_TCP_FLAGS0_PUBLIC_TCP_SPORT_MASKf, &dos_tcp_flag
 116:../switch_sdk/core/fal/tiger/fal_tiger_dos.c ****                 HAL_FIELD_SET(DOS_TCP_FLAGS0m, DOS_TCP_FLAGS0_SEQ_NUM0_MASKf, &dos_tcp_flagsn, 1);
 117:../switch_sdk/core/fal/tiger/fal_tiger_dos.c ****                 HAL_FIELD_SET(DOS_TCP_FLAGS0m, DOS_TCP_FLAGS0_TCP_FLAGS_MASKf, &dos_tcp_flagsn, 0x3
 118:../switch_sdk/core/fal/tiger/fal_tiger_dos.c ****                 HAL_FIELD_SET(DOS_TCP_FLAGS0m, DOS_TCP_FLAGS0_COPY_TO_CPUf, &dos_tcp_flagsn, 0);
 119:../switch_sdk/core/fal/tiger/fal_tiger_dos.c ****                 break;
 120:../switch_sdk/core/fal/tiger/fal_tiger_dos.c ****             case DOS_TYPE_TCP_SYN_PORTLESS1024:
 121:../switch_sdk/core/fal/tiger/fal_tiger_dos.c ****                 HAL_FIELD_SET(DOS_TCP_FLAGS0m, DOS_TCP_FLAGS0_PUBLIC_TCP_SPORTf, &dos_tcp_flagsn, 1
 122:../switch_sdk/core/fal/tiger/fal_tiger_dos.c ****                 HAL_FIELD_SET(DOS_TCP_FLAGS0m, DOS_TCP_FLAGS0_SEQ_NUM0f, &dos_tcp_flagsn, 0);
 123:../switch_sdk/core/fal/tiger/fal_tiger_dos.c ****                 HAL_FIELD_SET(DOS_TCP_FLAGS0m, DOS_TCP_FLAGS0_TCP_FLAGSf, &dos_tcp_flagsn, 0x2);
 124:../switch_sdk/core/fal/tiger/fal_tiger_dos.c ****                 HAL_FIELD_SET(DOS_TCP_FLAGS0m, DOS_TCP_FLAGS0_PUBLIC_TCP_SPORT_MASKf, &dos_tcp_flag
 125:../switch_sdk/core/fal/tiger/fal_tiger_dos.c ****                 HAL_FIELD_SET(DOS_TCP_FLAGS0m, DOS_TCP_FLAGS0_SEQ_NUM0_MASKf, &dos_tcp_flagsn, 0);
 126:../switch_sdk/core/fal/tiger/fal_tiger_dos.c ****                 HAL_FIELD_SET(DOS_TCP_FLAGS0m, DOS_TCP_FLAGS0_TCP_FLAGS_MASKf, &dos_tcp_flagsn, 0x1
 127:../switch_sdk/core/fal/tiger/fal_tiger_dos.c ****                 HAL_FIELD_SET(DOS_TCP_FLAGS0m, DOS_TCP_FLAGS0_COPY_TO_CPUf, &dos_tcp_flagsn, 0);
 128:../switch_sdk/core/fal/tiger/fal_tiger_dos.c ****                 break;
 129:../switch_sdk/core/fal/tiger/fal_tiger_dos.c ****             case DOS_TYPE_TCP_ALLFLAGS_SCAN:
 130:../switch_sdk/core/fal/tiger/fal_tiger_dos.c ****                 HAL_FIELD_SET(DOS_TCP_FLAGS0m, DOS_TCP_FLAGS0_PUBLIC_TCP_SPORTf, &dos_tcp_flagsn, 0
 131:../switch_sdk/core/fal/tiger/fal_tiger_dos.c ****                 HAL_FIELD_SET(DOS_TCP_FLAGS0m, DOS_TCP_FLAGS0_SEQ_NUM0f, &dos_tcp_flagsn, 0);
 132:../switch_sdk/core/fal/tiger/fal_tiger_dos.c ****                 HAL_FIELD_SET(DOS_TCP_FLAGS0m, DOS_TCP_FLAGS0_TCP_FLAGSf, &dos_tcp_flagsn, 0x3F);
 133:../switch_sdk/core/fal/tiger/fal_tiger_dos.c ****                 HAL_FIELD_SET(DOS_TCP_FLAGS0m, DOS_TCP_FLAGS0_PUBLIC_TCP_SPORT_MASKf, &dos_tcp_flag
 134:../switch_sdk/core/fal/tiger/fal_tiger_dos.c ****                 HAL_FIELD_SET(DOS_TCP_FLAGS0m, DOS_TCP_FLAGS0_SEQ_NUM0_MASKf, &dos_tcp_flagsn, 0);
 135:../switch_sdk/core/fal/tiger/fal_tiger_dos.c ****                 HAL_FIELD_SET(DOS_TCP_FLAGS0m, DOS_TCP_FLAGS0_TCP_FLAGS_MASKf, &dos_tcp_flagsn, 0x3
 136:../switch_sdk/core/fal/tiger/fal_tiger_dos.c ****                 HAL_FIELD_SET(DOS_TCP_FLAGS0m, DOS_TCP_FLAGS0_COPY_TO_CPUf, &dos_tcp_flagsn, 0);
 137:../switch_sdk/core/fal/tiger/fal_tiger_dos.c ****                 break;
 138:../switch_sdk/core/fal/tiger/fal_tiger_dos.c ****             default:
 139:../switch_sdk/core/fal/tiger/fal_tiger_dos.c ****                 break;
 140:../switch_sdk/core/fal/tiger/fal_tiger_dos.c ****         }
 141:../switch_sdk/core/fal/tiger/fal_tiger_dos.c ****     }
 142:../switch_sdk/core/fal/tiger/fal_tiger_dos.c ****     else if(enable == YT_DISABLE)
  78              		.loc 1 142 10 is_stmt 1 view .LVU9
  79              		.loc 1 142 12 is_stmt 0 view .LVU10
  80 0022 002C     		cmp	r4, #0
  81 0024 40F06D81 		bne	.L22
 143:../switch_sdk/core/fal/tiger/fal_tiger_dos.c ****     {
 144:../switch_sdk/core/fal/tiger/fal_tiger_dos.c ****         /* clear setting when disabled */
 145:../switch_sdk/core/fal/tiger/fal_tiger_dos.c ****         HAL_FIELD_SET(DOS_TCP_FLAGS0m, DOS_TCP_FLAGS0_PUBLIC_TCP_SPORTf, &dos_tcp_flagsn, 0);
  82              		.loc 1 145 9 is_stmt 1 view .LVU11
  83 0028 0023     		movs	r3, #0
  84 002a 03AA     		add	r2, sp, #12
  85 002c 0721     		movs	r1, #7
  86              	.LVL4:
  87              		.loc 1 145 9 is_stmt 0 view .LVU12
  88 002e 2120     		movs	r0, #33
  89              	.LVL5:
  90              		.loc 1 145 9 view .LVU13
  91 0030 FFF7FEFF 		bl	hal_tbl_reg_field_set
  92              	.LVL6:
 146:../switch_sdk/core/fal/tiger/fal_tiger_dos.c ****         HAL_FIELD_SET(DOS_TCP_FLAGS0m, DOS_TCP_FLAGS0_SEQ_NUM0f, &dos_tcp_flagsn, 0);
  93              		.loc 1 146 9 is_stmt 1 view .LVU14
  94 0034 0023     		movs	r3, #0
  95 0036 03AA     		add	r2, sp, #12
  96 0038 0621     		movs	r1, #6
  97 003a 2120     		movs	r0, #33
  98 003c FFF7FEFF 		bl	hal_tbl_reg_field_set
  99              	.LVL7:
 147:../switch_sdk/core/fal/tiger/fal_tiger_dos.c ****         HAL_FIELD_SET(DOS_TCP_FLAGS0m, DOS_TCP_FLAGS0_TCP_FLAGSf, &dos_tcp_flagsn, 0);
 100              		.loc 1 147 9 view .LVU15
 101 0040 0023     		movs	r3, #0
 102 0042 03AA     		add	r2, sp, #12
 103 0044 0521     		movs	r1, #5
 104 0046 2120     		movs	r0, #33
 105 0048 FFF7FEFF 		bl	hal_tbl_reg_field_set
 106              	.LVL8:
 148:../switch_sdk/core/fal/tiger/fal_tiger_dos.c ****         HAL_FIELD_SET(DOS_TCP_FLAGS0m, DOS_TCP_FLAGS0_PUBLIC_TCP_SPORT_MASKf, &dos_tcp_flagsn, 1);
 107              		.loc 1 148 9 view .LVU16
 108 004c 0123     		movs	r3, #1
 109 004e 03AA     		add	r2, sp, #12
 110 0050 0421     		movs	r1, #4
 111 0052 2120     		movs	r0, #33
 112 0054 FFF7FEFF 		bl	hal_tbl_reg_field_set
 113              	.LVL9:
 149:../switch_sdk/core/fal/tiger/fal_tiger_dos.c ****         HAL_FIELD_SET(DOS_TCP_FLAGS0m, DOS_TCP_FLAGS0_SEQ_NUM0_MASKf, &dos_tcp_flagsn, 1);
 114              		.loc 1 149 9 view .LVU17
 115 0058 0123     		movs	r3, #1
 116 005a 03AA     		add	r2, sp, #12
 117 005c 0321     		movs	r1, #3
 118 005e 2120     		movs	r0, #33
 119 0060 FFF7FEFF 		bl	hal_tbl_reg_field_set
 120              	.LVL10:
 150:../switch_sdk/core/fal/tiger/fal_tiger_dos.c ****         HAL_FIELD_SET(DOS_TCP_FLAGS0m, DOS_TCP_FLAGS0_TCP_FLAGS_MASKf, &dos_tcp_flagsn, 0x3f);
 121              		.loc 1 150 9 view .LVU18
 122 0064 3F23     		movs	r3, #63
 123 0066 03AA     		add	r2, sp, #12
 124 0068 0221     		movs	r1, #2
 125 006a 2120     		movs	r0, #33
 126 006c FFF7FEFF 		bl	hal_tbl_reg_field_set
 127              	.LVL11:
 151:../switch_sdk/core/fal/tiger/fal_tiger_dos.c ****         HAL_FIELD_SET(DOS_TCP_FLAGS0m, DOS_TCP_FLAGS0_COPY_TO_CPUf, &dos_tcp_flagsn, 0);
 128              		.loc 1 151 9 view .LVU19
 129 0070 0023     		movs	r3, #0
 130 0072 03AA     		add	r2, sp, #12
 131 0074 0121     		movs	r1, #1
 132 0076 2120     		movs	r0, #33
 133 0078 FFF7FEFF 		bl	hal_tbl_reg_field_set
 134              	.LVL12:
 135              	.L11:
 152:../switch_sdk/core/fal/tiger/fal_tiger_dos.c ****     }
 153:../switch_sdk/core/fal/tiger/fal_tiger_dos.c ****     else
 154:../switch_sdk/core/fal/tiger/fal_tiger_dos.c ****     {
 155:../switch_sdk/core/fal/tiger/fal_tiger_dos.c ****         return CMM_ERR_NOT_SUPPORT;
 156:../switch_sdk/core/fal/tiger/fal_tiger_dos.c ****     }
 157:../switch_sdk/core/fal/tiger/fal_tiger_dos.c ****     memid = DOS_TCP_FLAGS0m + memid;
 136              		.loc 1 157 5 view .LVU20
 137              		.loc 1 157 11 is_stmt 0 view .LVU21
 138 007c 2136     		adds	r6, r6, #33
 139              	.LVL13:
 158:../switch_sdk/core/fal/tiger/fal_tiger_dos.c ****     HAL_FIELD_SET(DOS_TCP_FLAGS0m, DOS_TCP_FLAGS0_DROP_EN, &dos_tcp_flagsn, enable);
 140              		.loc 1 158 5 is_stmt 1 view .LVU22
 141 007e 03AF     		add	r7, sp, #12
 142 0080 2346     		mov	r3, r4
 143 0082 3A46     		mov	r2, r7
 144 0084 0021     		movs	r1, #0
 145 0086 2120     		movs	r0, #33
 146 0088 FFF7FEFF 		bl	hal_tbl_reg_field_set
 147              	.LVL14:
 159:../switch_sdk/core/fal/tiger/fal_tiger_dos.c **** 
 160:../switch_sdk/core/fal/tiger/fal_tiger_dos.c ****     CMM_ERR_CHK(HAL_TBL_REG_WRITE(unit, memid, 0, sizeof(dos_tcp_flags0_t), &dos_tcp_flagsn), ret);
 148              		.loc 1 160 5 view .LVU23
 149              		.loc 1 160 5 view .LVU24
 150 008c 0097     		str	r7, [sp]
 151 008e 0423     		movs	r3, #4
 152 0090 0022     		movs	r2, #0
 153 0092 3146     		mov	r1, r6
 154 0094 2846     		mov	r0, r5
 155 0096 FFF7FEFF 		bl	hal_table_reg_write
 156              	.LVL15:
 157 009a 0446     		mov	r4, r0
 158              	.LVL16:
 159              		.loc 1 160 5 is_stmt 0 view .LVU25
 160 009c 10F0FF03 		ands	r3, r0, #255
 161 00a0 40F01781 		bne	.L27
 161:../switch_sdk/core/fal/tiger/fal_tiger_dos.c **** 
 162:../switch_sdk/core/fal/tiger/fal_tiger_dos.c ****     return CMM_ERR_OK;
 162              		.loc 1 162 12 view .LVU26
 163 00a4 0020     		movs	r0, #0
 164              	.LVL17:
 165              	.L1:
 163:../switch_sdk/core/fal/tiger/fal_tiger_dos.c **** }
 166              		.loc 1 163 1 view .LVU27
 167 00a6 05B0     		add	sp, sp, #20
 168              		.cfi_remember_state
 169              		.cfi_def_cfa_offset 20
 170              		@ sp needed
 171 00a8 F0BD     		pop	{r4, r5, r6, r7, pc}
 172              	.LVL18:
 173              	.L7:
 174              		.cfi_restore_state
  65:../switch_sdk/core/fal/tiger/fal_tiger_dos.c ****            break;
 175              		.loc 1 65 12 is_stmt 1 view .LVU28
  66:../switch_sdk/core/fal/tiger/fal_tiger_dos.c ****         case DOS_TYPE_TCP_NULL_SCAN:
 176              		.loc 1 66 12 view .LVU29
  65:../switch_sdk/core/fal/tiger/fal_tiger_dos.c ****            break;
 177              		.loc 1 65 18 is_stmt 0 view .LVU30
 178 00aa 0026     		movs	r6, #0
  66:../switch_sdk/core/fal/tiger/fal_tiger_dos.c ****         case DOS_TYPE_TCP_NULL_SCAN:
 179              		.loc 1 66 12 view .LVU31
 180 00ac B7E7     		b	.L8
 181              	.L6:
  68:../switch_sdk/core/fal/tiger/fal_tiger_dos.c ****            break;
 182              		.loc 1 68 12 is_stmt 1 view .LVU32
 183              	.LVL19:
  69:../switch_sdk/core/fal/tiger/fal_tiger_dos.c ****         case DOS_TYPE_TCP_SYN_PORTLESS1024:
 184              		.loc 1 69 12 view .LVU33
  68:../switch_sdk/core/fal/tiger/fal_tiger_dos.c ****            break;
 185              		.loc 1 68 18 is_stmt 0 view .LVU34
 186 00ae 0126     		movs	r6, #1
  69:../switch_sdk/core/fal/tiger/fal_tiger_dos.c ****         case DOS_TYPE_TCP_SYN_PORTLESS1024:
 187              		.loc 1 69 12 view .LVU35
 188 00b0 B5E7     		b	.L8
 189              	.LVL20:
 190              	.L5:
  71:../switch_sdk/core/fal/tiger/fal_tiger_dos.c ****            break;
 191              		.loc 1 71 12 is_stmt 1 view .LVU36
  72:../switch_sdk/core/fal/tiger/fal_tiger_dos.c ****         case DOS_TYPE_TCP_ALLFLAGS_SCAN:
 192              		.loc 1 72 12 view .LVU37
  71:../switch_sdk/core/fal/tiger/fal_tiger_dos.c ****            break;
 193              		.loc 1 71 18 is_stmt 0 view .LVU38
 194 00b2 0226     		movs	r6, #2
  72:../switch_sdk/core/fal/tiger/fal_tiger_dos.c ****         case DOS_TYPE_TCP_ALLFLAGS_SCAN:
 195              		.loc 1 72 12 view .LVU39
 196 00b4 B3E7     		b	.L8
 197              	.LVL21:
 198              	.L3:
  74:../switch_sdk/core/fal/tiger/fal_tiger_dos.c ****            break;
 199              		.loc 1 74 12 is_stmt 1 view .LVU40
  75:../switch_sdk/core/fal/tiger/fal_tiger_dos.c ****         default:
 200              		.loc 1 75 12 view .LVU41
  74:../switch_sdk/core/fal/tiger/fal_tiger_dos.c ****            break;
 201              		.loc 1 74 18 is_stmt 0 view .LVU42
 202 00b6 0526     		movs	r6, #5
  75:../switch_sdk/core/fal/tiger/fal_tiger_dos.c ****         default:
 203              		.loc 1 75 12 view .LVU43
 204 00b8 B1E7     		b	.L8
 205              	.LVL22:
 206              	.L21:
  62:../switch_sdk/core/fal/tiger/fal_tiger_dos.c ****            break;
 207              		.loc 1 62 18 view .LVU44
 208 00ba 0326     		movs	r6, #3
 209 00bc AFE7     		b	.L8
 210              	.LVL23:
 211              	.L26:
  82:../switch_sdk/core/fal/tiger/fal_tiger_dos.c ****         {
 212              		.loc 1 82 9 is_stmt 1 view .LVU45
 213 00be 0C39     		subs	r1, r1, #12
 214              	.LVL24:
  82:../switch_sdk/core/fal/tiger/fal_tiger_dos.c ****         {
 215              		.loc 1 82 9 is_stmt 0 view .LVU46
 216 00c0 0529     		cmp	r1, #5
 217 00c2 DBD8     		bhi	.L11
 218 00c4 DFE801F0 		tbb	[pc, r1]
 219              	.L13:
 220 00c8 03       		.byte	(.L18-.L13)/2
 221 00c9 2E       		.byte	(.L17-.L13)/2
 222 00ca 59       		.byte	(.L16-.L13)/2
 223 00cb 84       		.byte	(.L15-.L13)/2
 224 00cc AF       		.byte	(.L14-.L13)/2
 225 00cd DA       		.byte	(.L12-.L13)/2
 226              		.p2align 1
 227              	.L18:
  85:../switch_sdk/core/fal/tiger/fal_tiger_dos.c ****                 HAL_FIELD_SET(DOS_TCP_FLAGS0m, DOS_TCP_FLAGS0_SEQ_NUM0f, &dos_tcp_flagsn, 0);
 228              		.loc 1 85 17 is_stmt 1 view .LVU47
 229 00ce 0023     		movs	r3, #0
 230 00d0 03AA     		add	r2, sp, #12
 231 00d2 0721     		movs	r1, #7
 232 00d4 2120     		movs	r0, #33
 233              	.LVL25:
  85:../switch_sdk/core/fal/tiger/fal_tiger_dos.c ****                 HAL_FIELD_SET(DOS_TCP_FLAGS0m, DOS_TCP_FLAGS0_SEQ_NUM0f, &dos_tcp_flagsn, 0);
 234              		.loc 1 85 17 is_stmt 0 view .LVU48
 235 00d6 FFF7FEFF 		bl	hal_tbl_reg_field_set
 236              	.LVL26:
  86:../switch_sdk/core/fal/tiger/fal_tiger_dos.c ****                 HAL_FIELD_SET(DOS_TCP_FLAGS0m, DOS_TCP_FLAGS0_TCP_FLAGSf, &dos_tcp_flagsn, 0x6);
 237              		.loc 1 86 17 is_stmt 1 view .LVU49
 238 00da 0023     		movs	r3, #0
 239 00dc 03AA     		add	r2, sp, #12
 240 00de 0621     		movs	r1, #6
 241 00e0 2120     		movs	r0, #33
 242 00e2 FFF7FEFF 		bl	hal_tbl_reg_field_set
 243              	.LVL27:
  87:../switch_sdk/core/fal/tiger/fal_tiger_dos.c ****                 HAL_FIELD_SET(DOS_TCP_FLAGS0m, DOS_TCP_FLAGS0_PUBLIC_TCP_SPORT_MASKf, &dos_tcp_flag
 244              		.loc 1 87 17 view .LVU50
 245 00e6 0623     		movs	r3, #6
 246 00e8 03AA     		add	r2, sp, #12
 247 00ea 0521     		movs	r1, #5
 248 00ec 2120     		movs	r0, #33
 249 00ee FFF7FEFF 		bl	hal_tbl_reg_field_set
 250              	.LVL28:
  88:../switch_sdk/core/fal/tiger/fal_tiger_dos.c ****                 HAL_FIELD_SET(DOS_TCP_FLAGS0m, DOS_TCP_FLAGS0_SEQ_NUM0_MASKf, &dos_tcp_flagsn, 0);
 251              		.loc 1 88 17 view .LVU51
 252 00f2 0023     		movs	r3, #0
 253 00f4 03AA     		add	r2, sp, #12
 254 00f6 0421     		movs	r1, #4
 255 00f8 2120     		movs	r0, #33
 256 00fa FFF7FEFF 		bl	hal_tbl_reg_field_set
 257              	.LVL29:
  89:../switch_sdk/core/fal/tiger/fal_tiger_dos.c ****                 HAL_FIELD_SET(DOS_TCP_FLAGS0m, DOS_TCP_FLAGS0_TCP_FLAGS_MASKf, &dos_tcp_flagsn, 0x6
 258              		.loc 1 89 17 view .LVU52
 259 00fe 0023     		movs	r3, #0
 260 0100 03AA     		add	r2, sp, #12
 261 0102 0321     		movs	r1, #3
 262 0104 2120     		movs	r0, #33
 263 0106 FFF7FEFF 		bl	hal_tbl_reg_field_set
 264              	.LVL30:
  90:../switch_sdk/core/fal/tiger/fal_tiger_dos.c ****                 HAL_FIELD_SET(DOS_TCP_FLAGS0m, DOS_TCP_FLAGS0_COPY_TO_CPUf, &dos_tcp_flagsn, 0);
 265              		.loc 1 90 17 view .LVU53
 266 010a 0623     		movs	r3, #6
 267 010c 03AA     		add	r2, sp, #12
 268 010e 0221     		movs	r1, #2
 269 0110 2120     		movs	r0, #33
 270 0112 FFF7FEFF 		bl	hal_tbl_reg_field_set
 271              	.LVL31:
  91:../switch_sdk/core/fal/tiger/fal_tiger_dos.c ****                 break;
 272              		.loc 1 91 17 view .LVU54
 273 0116 0023     		movs	r3, #0
 274 0118 03AA     		add	r2, sp, #12
 275 011a 0121     		movs	r1, #1
 276 011c 2120     		movs	r0, #33
 277 011e FFF7FEFF 		bl	hal_tbl_reg_field_set
 278              	.LVL32:
  92:../switch_sdk/core/fal/tiger/fal_tiger_dos.c ****             case DOS_TYPE_TCP_SYNFIN_SCAN:
 279              		.loc 1 92 17 view .LVU55
 280 0122 ABE7     		b	.L11
 281              	.LVL33:
 282              	.L17:
  94:../switch_sdk/core/fal/tiger/fal_tiger_dos.c ****                 HAL_FIELD_SET(DOS_TCP_FLAGS0m, DOS_TCP_FLAGS0_SEQ_NUM0f, &dos_tcp_flagsn, 0);
 283              		.loc 1 94 17 view .LVU56
 284 0124 0023     		movs	r3, #0
 285 0126 03AA     		add	r2, sp, #12
 286 0128 0721     		movs	r1, #7
 287 012a 2120     		movs	r0, #33
 288              	.LVL34:
  94:../switch_sdk/core/fal/tiger/fal_tiger_dos.c ****                 HAL_FIELD_SET(DOS_TCP_FLAGS0m, DOS_TCP_FLAGS0_SEQ_NUM0f, &dos_tcp_flagsn, 0);
 289              		.loc 1 94 17 is_stmt 0 view .LVU57
 290 012c FFF7FEFF 		bl	hal_tbl_reg_field_set
 291              	.LVL35:
  95:../switch_sdk/core/fal/tiger/fal_tiger_dos.c ****                 HAL_FIELD_SET(DOS_TCP_FLAGS0m, DOS_TCP_FLAGS0_TCP_FLAGSf, &dos_tcp_flagsn, 0x3);
 292              		.loc 1 95 17 is_stmt 1 view .LVU58
 293 0130 0023     		movs	r3, #0
 294 0132 03AA     		add	r2, sp, #12
 295 0134 0621     		movs	r1, #6
 296 0136 2120     		movs	r0, #33
 297 0138 FFF7FEFF 		bl	hal_tbl_reg_field_set
 298              	.LVL36:
  96:../switch_sdk/core/fal/tiger/fal_tiger_dos.c ****                 HAL_FIELD_SET(DOS_TCP_FLAGS0m, DOS_TCP_FLAGS0_PUBLIC_TCP_SPORT_MASKf, &dos_tcp_flag
 299              		.loc 1 96 17 view .LVU59
 300 013c 0323     		movs	r3, #3
 301 013e 03AA     		add	r2, sp, #12
 302 0140 0521     		movs	r1, #5
 303 0142 2120     		movs	r0, #33
 304 0144 FFF7FEFF 		bl	hal_tbl_reg_field_set
 305              	.LVL37:
  97:../switch_sdk/core/fal/tiger/fal_tiger_dos.c ****                 HAL_FIELD_SET(DOS_TCP_FLAGS0m, DOS_TCP_FLAGS0_SEQ_NUM0_MASKf, &dos_tcp_flagsn, 0);
 306              		.loc 1 97 17 view .LVU60
 307 0148 0023     		movs	r3, #0
 308 014a 03AA     		add	r2, sp, #12
 309 014c 0421     		movs	r1, #4
 310 014e 2120     		movs	r0, #33
 311 0150 FFF7FEFF 		bl	hal_tbl_reg_field_set
 312              	.LVL38:
  98:../switch_sdk/core/fal/tiger/fal_tiger_dos.c ****                 HAL_FIELD_SET(DOS_TCP_FLAGS0m, DOS_TCP_FLAGS0_TCP_FLAGS_MASKf, &dos_tcp_flagsn, 0x3
 313              		.loc 1 98 17 view .LVU61
 314 0154 0023     		movs	r3, #0
 315 0156 03AA     		add	r2, sp, #12
 316 0158 0321     		movs	r1, #3
 317 015a 2120     		movs	r0, #33
 318 015c FFF7FEFF 		bl	hal_tbl_reg_field_set
 319              	.LVL39:
  99:../switch_sdk/core/fal/tiger/fal_tiger_dos.c ****                 HAL_FIELD_SET(DOS_TCP_FLAGS0m, DOS_TCP_FLAGS0_COPY_TO_CPUf, &dos_tcp_flagsn, 0);
 320              		.loc 1 99 17 view .LVU62
 321 0160 0323     		movs	r3, #3
 322 0162 03AA     		add	r2, sp, #12
 323 0164 0221     		movs	r1, #2
 324 0166 2120     		movs	r0, #33
 325 0168 FFF7FEFF 		bl	hal_tbl_reg_field_set
 326              	.LVL40:
 100:../switch_sdk/core/fal/tiger/fal_tiger_dos.c ****                 break;
 327              		.loc 1 100 17 view .LVU63
 328 016c 0023     		movs	r3, #0
 329 016e 03AA     		add	r2, sp, #12
 330 0170 0121     		movs	r1, #1
 331 0172 2120     		movs	r0, #33
 332 0174 FFF7FEFF 		bl	hal_tbl_reg_field_set
 333              	.LVL41:
 101:../switch_sdk/core/fal/tiger/fal_tiger_dos.c ****             case DOS_TYPE_TCP_XMAS_SCAN:
 334              		.loc 1 101 17 view .LVU64
 335 0178 80E7     		b	.L11
 336              	.LVL42:
 337              	.L16:
 103:../switch_sdk/core/fal/tiger/fal_tiger_dos.c ****                 HAL_FIELD_SET(DOS_TCP_FLAGS0m, DOS_TCP_FLAGS0_SEQ_NUM0f, &dos_tcp_flagsn, 1);
 338              		.loc 1 103 17 view .LVU65
 339 017a 0023     		movs	r3, #0
 340 017c 03AA     		add	r2, sp, #12
 341 017e 0721     		movs	r1, #7
 342 0180 2120     		movs	r0, #33
 343              	.LVL43:
 103:../switch_sdk/core/fal/tiger/fal_tiger_dos.c ****                 HAL_FIELD_SET(DOS_TCP_FLAGS0m, DOS_TCP_FLAGS0_SEQ_NUM0f, &dos_tcp_flagsn, 1);
 344              		.loc 1 103 17 is_stmt 0 view .LVU66
 345 0182 FFF7FEFF 		bl	hal_tbl_reg_field_set
 346              	.LVL44:
 104:../switch_sdk/core/fal/tiger/fal_tiger_dos.c ****                 HAL_FIELD_SET(DOS_TCP_FLAGS0m, DOS_TCP_FLAGS0_TCP_FLAGSf, &dos_tcp_flagsn, 0x29);
 347              		.loc 1 104 17 is_stmt 1 view .LVU67
 348 0186 0123     		movs	r3, #1
 349 0188 03AA     		add	r2, sp, #12
 350 018a 0621     		movs	r1, #6
 351 018c 2120     		movs	r0, #33
 352 018e FFF7FEFF 		bl	hal_tbl_reg_field_set
 353              	.LVL45:
 105:../switch_sdk/core/fal/tiger/fal_tiger_dos.c ****                 HAL_FIELD_SET(DOS_TCP_FLAGS0m, DOS_TCP_FLAGS0_PUBLIC_TCP_SPORT_MASKf, &dos_tcp_flag
 354              		.loc 1 105 17 view .LVU68
 355 0192 2923     		movs	r3, #41
 356 0194 03AA     		add	r2, sp, #12
 357 0196 0521     		movs	r1, #5
 358 0198 2120     		movs	r0, #33
 359 019a FFF7FEFF 		bl	hal_tbl_reg_field_set
 360              	.LVL46:
 106:../switch_sdk/core/fal/tiger/fal_tiger_dos.c ****                 HAL_FIELD_SET(DOS_TCP_FLAGS0m, DOS_TCP_FLAGS0_SEQ_NUM0_MASKf, &dos_tcp_flagsn, 1);
 361              		.loc 1 106 17 view .LVU69
 362 019e 0023     		movs	r3, #0
 363 01a0 03AA     		add	r2, sp, #12
 364 01a2 0421     		movs	r1, #4
 365 01a4 2120     		movs	r0, #33
 366 01a6 FFF7FEFF 		bl	hal_tbl_reg_field_set
 367              	.LVL47:
 107:../switch_sdk/core/fal/tiger/fal_tiger_dos.c ****                 HAL_FIELD_SET(DOS_TCP_FLAGS0m, DOS_TCP_FLAGS0_TCP_FLAGS_MASKf, &dos_tcp_flagsn, 0x2
 368              		.loc 1 107 17 view .LVU70
 369 01aa 0123     		movs	r3, #1
 370 01ac 03AA     		add	r2, sp, #12
 371 01ae 0321     		movs	r1, #3
 372 01b0 2120     		movs	r0, #33
 373 01b2 FFF7FEFF 		bl	hal_tbl_reg_field_set
 374              	.LVL48:
 108:../switch_sdk/core/fal/tiger/fal_tiger_dos.c ****                 HAL_FIELD_SET(DOS_TCP_FLAGS0m, DOS_TCP_FLAGS0_COPY_TO_CPUf, &dos_tcp_flagsn, 0);
 375              		.loc 1 108 17 view .LVU71
 376 01b6 2923     		movs	r3, #41
 377 01b8 03AA     		add	r2, sp, #12
 378 01ba 0221     		movs	r1, #2
 379 01bc 2120     		movs	r0, #33
 380 01be FFF7FEFF 		bl	hal_tbl_reg_field_set
 381              	.LVL49:
 109:../switch_sdk/core/fal/tiger/fal_tiger_dos.c ****                 break;
 382              		.loc 1 109 17 view .LVU72
 383 01c2 0023     		movs	r3, #0
 384 01c4 03AA     		add	r2, sp, #12
 385 01c6 0121     		movs	r1, #1
 386 01c8 2120     		movs	r0, #33
 387 01ca FFF7FEFF 		bl	hal_tbl_reg_field_set
 388              	.LVL50:
 110:../switch_sdk/core/fal/tiger/fal_tiger_dos.c ****             case DOS_TYPE_TCP_NULL_SCAN:
 389              		.loc 1 110 17 view .LVU73
 390 01ce 55E7     		b	.L11
 391              	.LVL51:
 392              	.L15:
 112:../switch_sdk/core/fal/tiger/fal_tiger_dos.c ****                 HAL_FIELD_SET(DOS_TCP_FLAGS0m, DOS_TCP_FLAGS0_SEQ_NUM0f, &dos_tcp_flagsn, 1);
 393              		.loc 1 112 17 view .LVU74
 394 01d0 0023     		movs	r3, #0
 395 01d2 03AA     		add	r2, sp, #12
 396 01d4 0721     		movs	r1, #7
 397 01d6 2120     		movs	r0, #33
 398              	.LVL52:
 112:../switch_sdk/core/fal/tiger/fal_tiger_dos.c ****                 HAL_FIELD_SET(DOS_TCP_FLAGS0m, DOS_TCP_FLAGS0_SEQ_NUM0f, &dos_tcp_flagsn, 1);
 399              		.loc 1 112 17 is_stmt 0 view .LVU75
 400 01d8 FFF7FEFF 		bl	hal_tbl_reg_field_set
 401              	.LVL53:
 113:../switch_sdk/core/fal/tiger/fal_tiger_dos.c ****                 HAL_FIELD_SET(DOS_TCP_FLAGS0m, DOS_TCP_FLAGS0_TCP_FLAGSf, &dos_tcp_flagsn, 0);
 402              		.loc 1 113 17 is_stmt 1 view .LVU76
 403 01dc 0123     		movs	r3, #1
 404 01de 03AA     		add	r2, sp, #12
 405 01e0 0621     		movs	r1, #6
 406 01e2 2120     		movs	r0, #33
 407 01e4 FFF7FEFF 		bl	hal_tbl_reg_field_set
 408              	.LVL54:
 114:../switch_sdk/core/fal/tiger/fal_tiger_dos.c ****                 HAL_FIELD_SET(DOS_TCP_FLAGS0m, DOS_TCP_FLAGS0_PUBLIC_TCP_SPORT_MASKf, &dos_tcp_flag
 409              		.loc 1 114 17 view .LVU77
 410 01e8 0023     		movs	r3, #0
 411 01ea 03AA     		add	r2, sp, #12
 412 01ec 0521     		movs	r1, #5
 413 01ee 2120     		movs	r0, #33
 414 01f0 FFF7FEFF 		bl	hal_tbl_reg_field_set
 415              	.LVL55:
 115:../switch_sdk/core/fal/tiger/fal_tiger_dos.c ****                 HAL_FIELD_SET(DOS_TCP_FLAGS0m, DOS_TCP_FLAGS0_SEQ_NUM0_MASKf, &dos_tcp_flagsn, 1);
 416              		.loc 1 115 17 view .LVU78
 417 01f4 0023     		movs	r3, #0
 418 01f6 03AA     		add	r2, sp, #12
 419 01f8 0421     		movs	r1, #4
 420 01fa 2120     		movs	r0, #33
 421 01fc FFF7FEFF 		bl	hal_tbl_reg_field_set
 422              	.LVL56:
 116:../switch_sdk/core/fal/tiger/fal_tiger_dos.c ****                 HAL_FIELD_SET(DOS_TCP_FLAGS0m, DOS_TCP_FLAGS0_TCP_FLAGS_MASKf, &dos_tcp_flagsn, 0x3
 423              		.loc 1 116 17 view .LVU79
 424 0200 0123     		movs	r3, #1
 425 0202 03AA     		add	r2, sp, #12
 426 0204 0321     		movs	r1, #3
 427 0206 2120     		movs	r0, #33
 428 0208 FFF7FEFF 		bl	hal_tbl_reg_field_set
 429              	.LVL57:
 117:../switch_sdk/core/fal/tiger/fal_tiger_dos.c ****                 HAL_FIELD_SET(DOS_TCP_FLAGS0m, DOS_TCP_FLAGS0_COPY_TO_CPUf, &dos_tcp_flagsn, 0);
 430              		.loc 1 117 17 view .LVU80
 431 020c 3F23     		movs	r3, #63
 432 020e 03AA     		add	r2, sp, #12
 433 0210 0221     		movs	r1, #2
 434 0212 2120     		movs	r0, #33
 435 0214 FFF7FEFF 		bl	hal_tbl_reg_field_set
 436              	.LVL58:
 118:../switch_sdk/core/fal/tiger/fal_tiger_dos.c ****                 break;
 437              		.loc 1 118 17 view .LVU81
 438 0218 0023     		movs	r3, #0
 439 021a 03AA     		add	r2, sp, #12
 440 021c 0121     		movs	r1, #1
 441 021e 2120     		movs	r0, #33
 442 0220 FFF7FEFF 		bl	hal_tbl_reg_field_set
 443              	.LVL59:
 119:../switch_sdk/core/fal/tiger/fal_tiger_dos.c ****             case DOS_TYPE_TCP_SYN_PORTLESS1024:
 444              		.loc 1 119 17 view .LVU82
 445 0224 2AE7     		b	.L11
 446              	.LVL60:
 447              	.L14:
 121:../switch_sdk/core/fal/tiger/fal_tiger_dos.c ****                 HAL_FIELD_SET(DOS_TCP_FLAGS0m, DOS_TCP_FLAGS0_SEQ_NUM0f, &dos_tcp_flagsn, 0);
 448              		.loc 1 121 17 view .LVU83
 449 0226 0123     		movs	r3, #1
 450 0228 03AA     		add	r2, sp, #12
 451 022a 0721     		movs	r1, #7
 452 022c 2120     		movs	r0, #33
 453              	.LVL61:
 121:../switch_sdk/core/fal/tiger/fal_tiger_dos.c ****                 HAL_FIELD_SET(DOS_TCP_FLAGS0m, DOS_TCP_FLAGS0_SEQ_NUM0f, &dos_tcp_flagsn, 0);
 454              		.loc 1 121 17 is_stmt 0 view .LVU84
 455 022e FFF7FEFF 		bl	hal_tbl_reg_field_set
 456              	.LVL62:
 122:../switch_sdk/core/fal/tiger/fal_tiger_dos.c ****                 HAL_FIELD_SET(DOS_TCP_FLAGS0m, DOS_TCP_FLAGS0_TCP_FLAGSf, &dos_tcp_flagsn, 0x2);
 457              		.loc 1 122 17 is_stmt 1 view .LVU85
 458 0232 0023     		movs	r3, #0
 459 0234 03AA     		add	r2, sp, #12
 460 0236 0621     		movs	r1, #6
 461 0238 2120     		movs	r0, #33
 462 023a FFF7FEFF 		bl	hal_tbl_reg_field_set
 463              	.LVL63:
 123:../switch_sdk/core/fal/tiger/fal_tiger_dos.c ****                 HAL_FIELD_SET(DOS_TCP_FLAGS0m, DOS_TCP_FLAGS0_PUBLIC_TCP_SPORT_MASKf, &dos_tcp_flag
 464              		.loc 1 123 17 view .LVU86
 465 023e 0223     		movs	r3, #2
 466 0240 03AA     		add	r2, sp, #12
 467 0242 0521     		movs	r1, #5
 468 0244 2120     		movs	r0, #33
 469 0246 FFF7FEFF 		bl	hal_tbl_reg_field_set
 470              	.LVL64:
 124:../switch_sdk/core/fal/tiger/fal_tiger_dos.c ****                 HAL_FIELD_SET(DOS_TCP_FLAGS0m, DOS_TCP_FLAGS0_SEQ_NUM0_MASKf, &dos_tcp_flagsn, 0);
 471              		.loc 1 124 17 view .LVU87
 472 024a 0123     		movs	r3, #1
 473 024c 03AA     		add	r2, sp, #12
 474 024e 0421     		movs	r1, #4
 475 0250 2120     		movs	r0, #33
 476 0252 FFF7FEFF 		bl	hal_tbl_reg_field_set
 477              	.LVL65:
 125:../switch_sdk/core/fal/tiger/fal_tiger_dos.c ****                 HAL_FIELD_SET(DOS_TCP_FLAGS0m, DOS_TCP_FLAGS0_TCP_FLAGS_MASKf, &dos_tcp_flagsn, 0x1
 478              		.loc 1 125 17 view .LVU88
 479 0256 0023     		movs	r3, #0
 480 0258 03AA     		add	r2, sp, #12
 481 025a 0321     		movs	r1, #3
 482 025c 2120     		movs	r0, #33
 483 025e FFF7FEFF 		bl	hal_tbl_reg_field_set
 484              	.LVL66:
 126:../switch_sdk/core/fal/tiger/fal_tiger_dos.c ****                 HAL_FIELD_SET(DOS_TCP_FLAGS0m, DOS_TCP_FLAGS0_COPY_TO_CPUf, &dos_tcp_flagsn, 0);
 485              		.loc 1 126 17 view .LVU89
 486 0262 1223     		movs	r3, #18
 487 0264 03AA     		add	r2, sp, #12
 488 0266 0221     		movs	r1, #2
 489 0268 2120     		movs	r0, #33
 490 026a FFF7FEFF 		bl	hal_tbl_reg_field_set
 491              	.LVL67:
 127:../switch_sdk/core/fal/tiger/fal_tiger_dos.c ****                 break;
 492              		.loc 1 127 17 view .LVU90
 493 026e 0023     		movs	r3, #0
 494 0270 03AA     		add	r2, sp, #12
 495 0272 0121     		movs	r1, #1
 496 0274 2120     		movs	r0, #33
 497 0276 FFF7FEFF 		bl	hal_tbl_reg_field_set
 498              	.LVL68:
 128:../switch_sdk/core/fal/tiger/fal_tiger_dos.c ****             case DOS_TYPE_TCP_ALLFLAGS_SCAN:
 499              		.loc 1 128 17 view .LVU91
 500 027a FFE6     		b	.L11
 501              	.LVL69:
 502              	.L12:
 130:../switch_sdk/core/fal/tiger/fal_tiger_dos.c ****                 HAL_FIELD_SET(DOS_TCP_FLAGS0m, DOS_TCP_FLAGS0_SEQ_NUM0f, &dos_tcp_flagsn, 0);
 503              		.loc 1 130 17 view .LVU92
 504 027c 0023     		movs	r3, #0
 505 027e 03AA     		add	r2, sp, #12
 506 0280 0721     		movs	r1, #7
 507 0282 2120     		movs	r0, #33
 508              	.LVL70:
 130:../switch_sdk/core/fal/tiger/fal_tiger_dos.c ****                 HAL_FIELD_SET(DOS_TCP_FLAGS0m, DOS_TCP_FLAGS0_SEQ_NUM0f, &dos_tcp_flagsn, 0);
 509              		.loc 1 130 17 is_stmt 0 view .LVU93
 510 0284 FFF7FEFF 		bl	hal_tbl_reg_field_set
 511              	.LVL71:
 131:../switch_sdk/core/fal/tiger/fal_tiger_dos.c ****                 HAL_FIELD_SET(DOS_TCP_FLAGS0m, DOS_TCP_FLAGS0_TCP_FLAGSf, &dos_tcp_flagsn, 0x3F);
 512              		.loc 1 131 17 is_stmt 1 view .LVU94
 513 0288 0023     		movs	r3, #0
 514 028a 03AA     		add	r2, sp, #12
 515 028c 0621     		movs	r1, #6
 516 028e 2120     		movs	r0, #33
 517 0290 FFF7FEFF 		bl	hal_tbl_reg_field_set
 518              	.LVL72:
 132:../switch_sdk/core/fal/tiger/fal_tiger_dos.c ****                 HAL_FIELD_SET(DOS_TCP_FLAGS0m, DOS_TCP_FLAGS0_PUBLIC_TCP_SPORT_MASKf, &dos_tcp_flag
 519              		.loc 1 132 17 view .LVU95
 520 0294 3F23     		movs	r3, #63
 521 0296 03AA     		add	r2, sp, #12
 522 0298 0521     		movs	r1, #5
 523 029a 2120     		movs	r0, #33
 524 029c FFF7FEFF 		bl	hal_tbl_reg_field_set
 525              	.LVL73:
 133:../switch_sdk/core/fal/tiger/fal_tiger_dos.c ****                 HAL_FIELD_SET(DOS_TCP_FLAGS0m, DOS_TCP_FLAGS0_SEQ_NUM0_MASKf, &dos_tcp_flagsn, 0);
 526              		.loc 1 133 17 view .LVU96
 527 02a0 0023     		movs	r3, #0
 528 02a2 03AA     		add	r2, sp, #12
 529 02a4 0421     		movs	r1, #4
 530 02a6 2120     		movs	r0, #33
 531 02a8 FFF7FEFF 		bl	hal_tbl_reg_field_set
 532              	.LVL74:
 134:../switch_sdk/core/fal/tiger/fal_tiger_dos.c ****                 HAL_FIELD_SET(DOS_TCP_FLAGS0m, DOS_TCP_FLAGS0_TCP_FLAGS_MASKf, &dos_tcp_flagsn, 0x3
 533              		.loc 1 134 17 view .LVU97
 534 02ac 0023     		movs	r3, #0
 535 02ae 03AA     		add	r2, sp, #12
 536 02b0 0321     		movs	r1, #3
 537 02b2 2120     		movs	r0, #33
 538 02b4 FFF7FEFF 		bl	hal_tbl_reg_field_set
 539              	.LVL75:
 135:../switch_sdk/core/fal/tiger/fal_tiger_dos.c ****                 HAL_FIELD_SET(DOS_TCP_FLAGS0m, DOS_TCP_FLAGS0_COPY_TO_CPUf, &dos_tcp_flagsn, 0);
 540              		.loc 1 135 17 view .LVU98
 541 02b8 3F23     		movs	r3, #63
 542 02ba 03AA     		add	r2, sp, #12
 543 02bc 0221     		movs	r1, #2
 544 02be 2120     		movs	r0, #33
 545 02c0 FFF7FEFF 		bl	hal_tbl_reg_field_set
 546              	.LVL76:
 136:../switch_sdk/core/fal/tiger/fal_tiger_dos.c ****                 break;
 547              		.loc 1 136 17 view .LVU99
 548 02c4 0023     		movs	r3, #0
 549 02c6 03AA     		add	r2, sp, #12
 550 02c8 0121     		movs	r1, #1
 551 02ca 2120     		movs	r0, #33
 552 02cc FFF7FEFF 		bl	hal_tbl_reg_field_set
 553              	.LVL77:
 137:../switch_sdk/core/fal/tiger/fal_tiger_dos.c ****             default:
 554              		.loc 1 137 17 view .LVU100
 555 02d0 D4E6     		b	.L11
 556              	.LVL78:
 557              	.L27:
 160:../switch_sdk/core/fal/tiger/fal_tiger_dos.c **** 
 558              		.loc 1 160 5 discriminator 1 view .LVU101
 160:../switch_sdk/core/fal/tiger/fal_tiger_dos.c **** 
 559              		.loc 1 160 5 discriminator 1 view .LVU102
 560 02d2 0D4A     		ldr	r2, .L29
 561 02d4 1278     		ldrb	r2, [r2]	@ zero_extendqisi2
 562 02d6 012A     		cmp	r2, #1
 563 02d8 01D8     		bhi	.L28
 564              	.LVL79:
 565              	.L19:
 160:../switch_sdk/core/fal/tiger/fal_tiger_dos.c **** 
 566              		.loc 1 160 5 discriminator 5 view .LVU103
 160:../switch_sdk/core/fal/tiger/fal_tiger_dos.c **** 
 567              		.loc 1 160 5 discriminator 5 view .LVU104
 160:../switch_sdk/core/fal/tiger/fal_tiger_dos.c **** 
 568              		.loc 1 160 5 discriminator 5 view .LVU105
 569 02da E0B2     		uxtb	r0, r4
 570 02dc E3E6     		b	.L1
 571              	.LVL80:
 572              	.L28:
 160:../switch_sdk/core/fal/tiger/fal_tiger_dos.c **** 
 573              		.loc 1 160 5 discriminator 3 view .LVU106
 574              	.LBB2:
 160:../switch_sdk/core/fal/tiger/fal_tiger_dos.c **** 
 575              		.loc 1 160 5 discriminator 3 view .LVU107
 576 02de 142B     		cmp	r3, #20
 577 02e0 28BF     		it	cs
 578 02e2 1423     		movcs	r3, #20
 579 02e4 1A46     		mov	r2, r3
 580 02e6 094B     		ldr	r3, .L29+4
 581 02e8 0093     		str	r3, [sp]
 582 02ea 094B     		ldr	r3, .L29+8
 583 02ec 0949     		ldr	r1, .L29+12
 584 02ee 51F82220 		ldr	r2, [r1, r2, lsl #2]
 585 02f2 0949     		ldr	r1, .L29+16
 586 02f4 8968     		ldr	r1, [r1, #8]
 587 02f6 0948     		ldr	r0, .L29+20
 588              	.LVL81:
 160:../switch_sdk/core/fal/tiger/fal_tiger_dos.c **** 
 589              		.loc 1 160 5 is_stmt 0 discriminator 3 view .LVU108
 590 02f8 FFF7FEFF 		bl	osal_printf
 591              	.LVL82:
 592 02fc EDE7     		b	.L19
 593              	.LVL83:
 594              	.L20:
 160:../switch_sdk/core/fal/tiger/fal_tiger_dos.c **** 
 595              		.loc 1 160 5 discriminator 3 view .LVU109
 596              	.LBE2:
  56:../switch_sdk/core/fal/tiger/fal_tiger_dos.c ****     {
 597              		.loc 1 56 5 view .LVU110
 598 02fe 0320     		movs	r0, #3
 599              	.LVL84:
  56:../switch_sdk/core/fal/tiger/fal_tiger_dos.c ****     {
 600              		.loc 1 56 5 view .LVU111
 601 0300 D1E6     		b	.L1
 602              	.LVL85:
 603              	.L22:
 155:../switch_sdk/core/fal/tiger/fal_tiger_dos.c ****     }
 604              		.loc 1 155 16 view .LVU112
 605 0302 0320     		movs	r0, #3
 606              	.LVL86:
 155:../switch_sdk/core/fal/tiger/fal_tiger_dos.c ****     }
 607              		.loc 1 155 16 view .LVU113
 608 0304 CFE6     		b	.L1
 609              	.L30:
 610 0306 00BF     		.align	2
 611              	.L29:
 612 0308 00000000 		.word	yt_debug_level
 613 030c 00000000 		.word	__FUNCTION__.4
 614 0310 00000000 		.word	.LC0
 615 0314 00000000 		.word	_yt_errmsg
 616 0318 00000000 		.word	_yt_prompt_msg
 617 031c 4C000000 		.word	.LC1
 618              		.cfi_endproc
 619              	.LFE3:
 621              		.section	.rodata.fal_tiger_dos_tcp_flagsn_get.str1.4,"aMS",%progbits,1
 622              		.align	2
 623              	.LC2:
 624 0000 68616C5F 		.ascii	"hal_table_reg_read(unit,memid,0,sizeof(dos_tcp_flag"
 624      7461626C 
 624      655F7265 
 624      675F7265 
 624      61642875 
 625 0033 73305F74 		.ascii	"s0_t),&dos_tcp_flagsn)\000"
 625      292C2664 
 625      6F735F74 
 625      63705F66 
 625      6C616773 
 626              		.section	.text.fal_tiger_dos_tcp_flagsn_get,"ax",%progbits
 627              		.align	1
 628              		.syntax unified
 629              		.thumb
 630              		.thumb_func
 632              	fal_tiger_dos_tcp_flagsn_get:
 633              	.LVL87:
 634              	.LFB4:
 164:../switch_sdk/core/fal/tiger/fal_tiger_dos.c **** 
 165:../switch_sdk/core/fal/tiger/fal_tiger_dos.c **** static uint32_t  fal_tiger_dos_tcp_flagsn_get(yt_unit_t unit, yt_dos_type_t type, yt_enable_t *pEna
 166:../switch_sdk/core/fal/tiger/fal_tiger_dos.c **** {
 635              		.loc 1 166 1 is_stmt 1 view -0
 636              		.cfi_startproc
 637              		@ args = 0, pretend = 0, frame = 8
 638              		@ frame_needed = 0, uses_anonymous_args = 0
 639              		.loc 1 166 1 is_stmt 0 view .LVU115
 640 0000 2DE9F047 		push	{r4, r5, r6, r7, r8, r9, r10, lr}
 641              		.cfi_def_cfa_offset 32
 642              		.cfi_offset 4, -32
 643              		.cfi_offset 5, -28
 644              		.cfi_offset 6, -24
 645              		.cfi_offset 7, -20
 646              		.cfi_offset 8, -16
 647              		.cfi_offset 9, -12
 648              		.cfi_offset 10, -8
 649              		.cfi_offset 14, -4
 650 0004 84B0     		sub	sp, sp, #16
 651              		.cfi_def_cfa_offset 48
 652 0006 1546     		mov	r5, r2
 167:../switch_sdk/core/fal/tiger/fal_tiger_dos.c ****     dos_tcp_flags0_t dos_tcp_flagsn;
 653              		.loc 1 167 5 is_stmt 1 view .LVU116
 168:../switch_sdk/core/fal/tiger/fal_tiger_dos.c ****     cmm_err_t ret = CMM_ERR_OK;
 654              		.loc 1 168 5 view .LVU117
 655              	.LVL88:
 169:../switch_sdk/core/fal/tiger/fal_tiger_dos.c ****     uint16_t memid = 0;
 656              		.loc 1 169 5 view .LVU118
 170:../switch_sdk/core/fal/tiger/fal_tiger_dos.c ****     uint32_t public_tcp_sport;
 657              		.loc 1 170 5 view .LVU119
 171:../switch_sdk/core/fal/tiger/fal_tiger_dos.c ****     uint32_t seq_num;
 658              		.loc 1 171 5 view .LVU120
 172:../switch_sdk/core/fal/tiger/fal_tiger_dos.c ****     uint32_t tcp_flag;
 659              		.loc 1 172 5 view .LVU121
 173:../switch_sdk/core/fal/tiger/fal_tiger_dos.c ****     uint32_t public_tcp_sport_mask;
 660              		.loc 1 173 5 view .LVU122
 174:../switch_sdk/core/fal/tiger/fal_tiger_dos.c ****     uint32_t seq_num_mask;
 661              		.loc 1 174 5 view .LVU123
 175:../switch_sdk/core/fal/tiger/fal_tiger_dos.c ****     uint32_t tcp_flag_mask;
 662              		.loc 1 175 5 view .LVU124
 176:../switch_sdk/core/fal/tiger/fal_tiger_dos.c ****     uint32_t copy_to_cpu;
 663              		.loc 1 176 5 view .LVU125
 177:../switch_sdk/core/fal/tiger/fal_tiger_dos.c ****     uint32_t enable = YT_DISABLE;
 664              		.loc 1 177 5 view .LVU126
 178:../switch_sdk/core/fal/tiger/fal_tiger_dos.c **** 
 179:../switch_sdk/core/fal/tiger/fal_tiger_dos.c ****     switch(type)
 665              		.loc 1 179 5 view .LVU127
 666 0008 0C39     		subs	r1, r1, #12
 667              	.LVL89:
 668              		.loc 1 179 5 is_stmt 0 view .LVU128
 669 000a 0529     		cmp	r1, #5
 670 000c 00F28280 		bhi	.L43
 671 0010 DFE801F0 		tbb	[pc, r1]
 672              	.L34:
 673 0014 03       		.byte	(.L39-.L34)/2
 674 0015 1F       		.byte	(.L44-.L34)/2
 675 0016 17       		.byte	(.L37-.L34)/2
 676 0017 19       		.byte	(.L36-.L34)/2
 677 0018 1B       		.byte	(.L35-.L34)/2
 678 0019 1D       		.byte	(.L33-.L34)/2
 679              		.p2align 1
 680              	.L39:
 681 001a 0421     		movs	r1, #4
 682              	.LVL90:
 683              	.L38:
 180:../switch_sdk/core/fal/tiger/fal_tiger_dos.c ****     {
 181:../switch_sdk/core/fal/tiger/fal_tiger_dos.c ****         case DOS_TYPE_TCP_SYNRST_SCAN:
 182:../switch_sdk/core/fal/tiger/fal_tiger_dos.c ****            memid = 4;
 183:../switch_sdk/core/fal/tiger/fal_tiger_dos.c ****            break;
 184:../switch_sdk/core/fal/tiger/fal_tiger_dos.c ****         case DOS_TYPE_TCP_SYNFIN_SCAN:
 185:../switch_sdk/core/fal/tiger/fal_tiger_dos.c ****            memid = 3;
 186:../switch_sdk/core/fal/tiger/fal_tiger_dos.c ****            break;
 187:../switch_sdk/core/fal/tiger/fal_tiger_dos.c ****         case DOS_TYPE_TCP_XMAS_SCAN:
 188:../switch_sdk/core/fal/tiger/fal_tiger_dos.c ****            memid = 0;
 189:../switch_sdk/core/fal/tiger/fal_tiger_dos.c ****            break;
 190:../switch_sdk/core/fal/tiger/fal_tiger_dos.c ****         case DOS_TYPE_TCP_NULL_SCAN:
 191:../switch_sdk/core/fal/tiger/fal_tiger_dos.c ****            memid = 1;
 192:../switch_sdk/core/fal/tiger/fal_tiger_dos.c ****            break;
 193:../switch_sdk/core/fal/tiger/fal_tiger_dos.c ****         case DOS_TYPE_TCP_SYN_PORTLESS1024:
 194:../switch_sdk/core/fal/tiger/fal_tiger_dos.c ****            memid = 2;
 195:../switch_sdk/core/fal/tiger/fal_tiger_dos.c ****            break;
 196:../switch_sdk/core/fal/tiger/fal_tiger_dos.c ****         case DOS_TYPE_TCP_ALLFLAGS_SCAN:
 197:../switch_sdk/core/fal/tiger/fal_tiger_dos.c ****            memid = 5;
 198:../switch_sdk/core/fal/tiger/fal_tiger_dos.c ****            break;
 199:../switch_sdk/core/fal/tiger/fal_tiger_dos.c ****         default:
 200:../switch_sdk/core/fal/tiger/fal_tiger_dos.c ****            return CMM_ERR_NOT_SUPPORT;
 201:../switch_sdk/core/fal/tiger/fal_tiger_dos.c ****     }
 202:../switch_sdk/core/fal/tiger/fal_tiger_dos.c **** 
 203:../switch_sdk/core/fal/tiger/fal_tiger_dos.c ****     memid = DOS_TCP_FLAGS0m + memid;
 684              		.loc 1 203 5 is_stmt 1 view .LVU129
 204:../switch_sdk/core/fal/tiger/fal_tiger_dos.c **** 
 205:../switch_sdk/core/fal/tiger/fal_tiger_dos.c ****     CMM_ERR_CHK(HAL_TBL_REG_READ(unit, memid, 0, sizeof(dos_tcp_flags0_t), &dos_tcp_flagsn), ret);
 685              		.loc 1 205 5 view .LVU130
 686              		.loc 1 205 5 view .LVU131
 687 001c 03AB     		add	r3, sp, #12
 688 001e 0093     		str	r3, [sp]
 689 0020 0423     		movs	r3, #4
 690 0022 0022     		movs	r2, #0
 691              	.LVL91:
 692              		.loc 1 205 5 is_stmt 0 view .LVU132
 693 0024 2131     		adds	r1, r1, #33
 694              	.LVL92:
 695              		.loc 1 205 5 view .LVU133
 696 0026 FFF7FEFF 		bl	hal_table_reg_read
 697              	.LVL93:
 698              		.loc 1 205 5 view .LVU134
 699 002a 0446     		mov	r4, r0
 700              	.LVL94:
 701              		.loc 1 205 5 view .LVU135
 702 002c 10F0FF03 		ands	r3, r0, #255
 703 0030 21D0     		beq	.L40
 704              		.loc 1 205 5 is_stmt 1 discriminator 1 view .LVU136
 705              		.loc 1 205 5 discriminator 1 view .LVU137
 706 0032 394A     		ldr	r2, .L48
 707 0034 1278     		ldrb	r2, [r2]	@ zero_extendqisi2
 708 0036 012A     		cmp	r2, #1
 709 0038 0DD8     		bhi	.L46
 710              	.LVL95:
 711              	.L41:
 712              		.loc 1 205 5 discriminator 5 view .LVU138
 713              		.loc 1 205 5 discriminator 5 view .LVU139
 714              		.loc 1 205 5 discriminator 5 view .LVU140
 715 003a E0B2     		uxtb	r0, r4
 716              	.LVL96:
 717              	.L31:
 206:../switch_sdk/core/fal/tiger/fal_tiger_dos.c **** 
 207:../switch_sdk/core/fal/tiger/fal_tiger_dos.c ****     HAL_FIELD_GET(DOS_TCP_FLAGS0m, DOS_TCP_FLAGS0_PUBLIC_TCP_SPORTf, &dos_tcp_flagsn, &public_tcp_s
 208:../switch_sdk/core/fal/tiger/fal_tiger_dos.c ****     HAL_FIELD_GET(DOS_TCP_FLAGS0m, DOS_TCP_FLAGS0_SEQ_NUM0f, &dos_tcp_flagsn, &seq_num);
 209:../switch_sdk/core/fal/tiger/fal_tiger_dos.c ****     HAL_FIELD_GET(DOS_TCP_FLAGS0m, DOS_TCP_FLAGS0_TCP_FLAGSf, &dos_tcp_flagsn, &tcp_flag);
 210:../switch_sdk/core/fal/tiger/fal_tiger_dos.c ****     HAL_FIELD_GET(DOS_TCP_FLAGS0m, DOS_TCP_FLAGS0_PUBLIC_TCP_SPORT_MASKf, &dos_tcp_flagsn, &public_
 211:../switch_sdk/core/fal/tiger/fal_tiger_dos.c ****     HAL_FIELD_GET(DOS_TCP_FLAGS0m, DOS_TCP_FLAGS0_SEQ_NUM0_MASKf, &dos_tcp_flagsn, &seq_num_mask);
 212:../switch_sdk/core/fal/tiger/fal_tiger_dos.c ****     HAL_FIELD_GET(DOS_TCP_FLAGS0m, DOS_TCP_FLAGS0_TCP_FLAGS_MASKf, &dos_tcp_flagsn, &tcp_flag_mask)
 213:../switch_sdk/core/fal/tiger/fal_tiger_dos.c ****     HAL_FIELD_GET(DOS_TCP_FLAGS0m, DOS_TCP_FLAGS0_COPY_TO_CPUf, &dos_tcp_flagsn, &copy_to_cpu);
 214:../switch_sdk/core/fal/tiger/fal_tiger_dos.c ****     HAL_FIELD_GET(DOS_TCP_FLAGS0m, DOS_TCP_FLAGS0_DROP_EN, &dos_tcp_flagsn, &enable);
 215:../switch_sdk/core/fal/tiger/fal_tiger_dos.c ****     if(public_tcp_sport == 0 &&
 216:../switch_sdk/core/fal/tiger/fal_tiger_dos.c ****         seq_num == 0 &&
 217:../switch_sdk/core/fal/tiger/fal_tiger_dos.c ****         tcp_flag == 0 &&
 218:../switch_sdk/core/fal/tiger/fal_tiger_dos.c ****         public_tcp_sport_mask == 1 &&
 219:../switch_sdk/core/fal/tiger/fal_tiger_dos.c ****         seq_num_mask == 1 &&
 220:../switch_sdk/core/fal/tiger/fal_tiger_dos.c ****         tcp_flag_mask == 0x3F &&
 221:../switch_sdk/core/fal/tiger/fal_tiger_dos.c ****         enable == YT_DISABLE)
 222:../switch_sdk/core/fal/tiger/fal_tiger_dos.c ****     {
 223:../switch_sdk/core/fal/tiger/fal_tiger_dos.c ****         *pEnable = YT_DISABLE;
 224:../switch_sdk/core/fal/tiger/fal_tiger_dos.c ****     }
 225:../switch_sdk/core/fal/tiger/fal_tiger_dos.c ****     else
 226:../switch_sdk/core/fal/tiger/fal_tiger_dos.c ****     {
 227:../switch_sdk/core/fal/tiger/fal_tiger_dos.c ****         *pEnable = YT_ENABLE;
 228:../switch_sdk/core/fal/tiger/fal_tiger_dos.c ****     }
 229:../switch_sdk/core/fal/tiger/fal_tiger_dos.c **** 
 230:../switch_sdk/core/fal/tiger/fal_tiger_dos.c ****     return CMM_ERR_OK;
 231:../switch_sdk/core/fal/tiger/fal_tiger_dos.c **** }
 718              		.loc 1 231 1 is_stmt 0 view .LVU141
 719 003c 04B0     		add	sp, sp, #16
 720              		.cfi_remember_state
 721              		.cfi_def_cfa_offset 32
 722              		@ sp needed
 723 003e BDE8F087 		pop	{r4, r5, r6, r7, r8, r9, r10, pc}
 724              	.LVL97:
 725              	.L37:
 726              		.cfi_restore_state
 188:../switch_sdk/core/fal/tiger/fal_tiger_dos.c ****            break;
 727              		.loc 1 188 12 is_stmt 1 view .LVU142
 189:../switch_sdk/core/fal/tiger/fal_tiger_dos.c ****         case DOS_TYPE_TCP_NULL_SCAN:
 728              		.loc 1 189 12 view .LVU143
 188:../switch_sdk/core/fal/tiger/fal_tiger_dos.c ****            break;
 729              		.loc 1 188 18 is_stmt 0 view .LVU144
 730 0042 0021     		movs	r1, #0
 189:../switch_sdk/core/fal/tiger/fal_tiger_dos.c ****         case DOS_TYPE_TCP_NULL_SCAN:
 731              		.loc 1 189 12 view .LVU145
 732 0044 EAE7     		b	.L38
 733              	.L36:
 191:../switch_sdk/core/fal/tiger/fal_tiger_dos.c ****            break;
 734              		.loc 1 191 12 is_stmt 1 view .LVU146
 735              	.LVL98:
 192:../switch_sdk/core/fal/tiger/fal_tiger_dos.c ****         case DOS_TYPE_TCP_SYN_PORTLESS1024:
 736              		.loc 1 192 12 view .LVU147
 191:../switch_sdk/core/fal/tiger/fal_tiger_dos.c ****            break;
 737              		.loc 1 191 18 is_stmt 0 view .LVU148
 738 0046 0121     		movs	r1, #1
 192:../switch_sdk/core/fal/tiger/fal_tiger_dos.c ****         case DOS_TYPE_TCP_SYN_PORTLESS1024:
 739              		.loc 1 192 12 view .LVU149
 740 0048 E8E7     		b	.L38
 741              	.LVL99:
 742              	.L35:
 194:../switch_sdk/core/fal/tiger/fal_tiger_dos.c ****            break;
 743              		.loc 1 194 12 is_stmt 1 view .LVU150
 195:../switch_sdk/core/fal/tiger/fal_tiger_dos.c ****         case DOS_TYPE_TCP_ALLFLAGS_SCAN:
 744              		.loc 1 195 12 view .LVU151
 194:../switch_sdk/core/fal/tiger/fal_tiger_dos.c ****            break;
 745              		.loc 1 194 18 is_stmt 0 view .LVU152
 746 004a 0221     		movs	r1, #2
 195:../switch_sdk/core/fal/tiger/fal_tiger_dos.c ****         case DOS_TYPE_TCP_ALLFLAGS_SCAN:
 747              		.loc 1 195 12 view .LVU153
 748 004c E6E7     		b	.L38
 749              	.LVL100:
 750              	.L33:
 197:../switch_sdk/core/fal/tiger/fal_tiger_dos.c ****            break;
 751              		.loc 1 197 12 is_stmt 1 view .LVU154
 198:../switch_sdk/core/fal/tiger/fal_tiger_dos.c ****         default:
 752              		.loc 1 198 12 view .LVU155
 197:../switch_sdk/core/fal/tiger/fal_tiger_dos.c ****            break;
 753              		.loc 1 197 18 is_stmt 0 view .LVU156
 754 004e 0521     		movs	r1, #5
 198:../switch_sdk/core/fal/tiger/fal_tiger_dos.c ****         default:
 755              		.loc 1 198 12 view .LVU157
 756 0050 E4E7     		b	.L38
 757              	.LVL101:
 758              	.L44:
 185:../switch_sdk/core/fal/tiger/fal_tiger_dos.c ****            break;
 759              		.loc 1 185 18 view .LVU158
 760 0052 0321     		movs	r1, #3
 761 0054 E2E7     		b	.L38
 762              	.LVL102:
 763              	.L46:
 205:../switch_sdk/core/fal/tiger/fal_tiger_dos.c **** 
 764              		.loc 1 205 5 is_stmt 1 discriminator 3 view .LVU159
 765              	.LBB3:
 205:../switch_sdk/core/fal/tiger/fal_tiger_dos.c **** 
 766              		.loc 1 205 5 discriminator 3 view .LVU160
 767 0056 142B     		cmp	r3, #20
 768 0058 28BF     		it	cs
 769 005a 1423     		movcs	r3, #20
 770 005c 1A46     		mov	r2, r3
 771 005e 2F4B     		ldr	r3, .L48+4
 772 0060 0093     		str	r3, [sp]
 773 0062 2F4B     		ldr	r3, .L48+8
 774 0064 2F49     		ldr	r1, .L48+12
 775 0066 51F82220 		ldr	r2, [r1, r2, lsl #2]
 776 006a 2F49     		ldr	r1, .L48+16
 777 006c 8968     		ldr	r1, [r1, #8]
 778 006e 2F48     		ldr	r0, .L48+20
 779              	.LVL103:
 205:../switch_sdk/core/fal/tiger/fal_tiger_dos.c **** 
 780              		.loc 1 205 5 is_stmt 0 discriminator 3 view .LVU161
 781 0070 FFF7FEFF 		bl	osal_printf
 782              	.LVL104:
 783 0074 E1E7     		b	.L41
 784              	.LVL105:
 785              	.L40:
 205:../switch_sdk/core/fal/tiger/fal_tiger_dos.c **** 
 786              		.loc 1 205 5 discriminator 3 view .LVU162
 787              	.LBE3:
 205:../switch_sdk/core/fal/tiger/fal_tiger_dos.c **** 
 788              		.loc 1 205 5 is_stmt 1 discriminator 2 view .LVU163
 207:../switch_sdk/core/fal/tiger/fal_tiger_dos.c ****     HAL_FIELD_GET(DOS_TCP_FLAGS0m, DOS_TCP_FLAGS0_SEQ_NUM0f, &dos_tcp_flagsn, &seq_num);
 789              		.loc 1 207 5 discriminator 2 view .LVU164
 790              	.LBB4:
 207:../switch_sdk/core/fal/tiger/fal_tiger_dos.c ****     HAL_FIELD_GET(DOS_TCP_FLAGS0m, DOS_TCP_FLAGS0_SEQ_NUM0f, &dos_tcp_flagsn, &seq_num);
 791              		.loc 1 207 5 discriminator 2 view .LVU165
 207:../switch_sdk/core/fal/tiger/fal_tiger_dos.c ****     HAL_FIELD_GET(DOS_TCP_FLAGS0m, DOS_TCP_FLAGS0_SEQ_NUM0f, &dos_tcp_flagsn, &seq_num);
 792              		.loc 1 207 5 discriminator 2 view .LVU166
 793 0076 02AB     		add	r3, sp, #8
 794 0078 03AA     		add	r2, sp, #12
 795 007a 0721     		movs	r1, #7
 796 007c 2120     		movs	r0, #33
 797              	.LVL106:
 207:../switch_sdk/core/fal/tiger/fal_tiger_dos.c ****     HAL_FIELD_GET(DOS_TCP_FLAGS0m, DOS_TCP_FLAGS0_SEQ_NUM0f, &dos_tcp_flagsn, &seq_num);
 798              		.loc 1 207 5 is_stmt 0 discriminator 2 view .LVU167
 799 007e FFF7FEFF 		bl	hal_tbl_reg_field_get
 800              	.LVL107:
 207:../switch_sdk/core/fal/tiger/fal_tiger_dos.c ****     HAL_FIELD_GET(DOS_TCP_FLAGS0m, DOS_TCP_FLAGS0_SEQ_NUM0f, &dos_tcp_flagsn, &seq_num);
 801              		.loc 1 207 5 is_stmt 1 discriminator 2 view .LVU168
 802 0082 029C     		ldr	r4, [sp, #8]
 803              	.LVL108:
 207:../switch_sdk/core/fal/tiger/fal_tiger_dos.c ****     HAL_FIELD_GET(DOS_TCP_FLAGS0m, DOS_TCP_FLAGS0_SEQ_NUM0f, &dos_tcp_flagsn, &seq_num);
 804              		.loc 1 207 5 is_stmt 0 discriminator 2 view .LVU169
 805              	.LBE4:
 207:../switch_sdk/core/fal/tiger/fal_tiger_dos.c ****     HAL_FIELD_GET(DOS_TCP_FLAGS0m, DOS_TCP_FLAGS0_SEQ_NUM0f, &dos_tcp_flagsn, &seq_num);
 806              		.loc 1 207 5 is_stmt 1 discriminator 2 view .LVU170
 208:../switch_sdk/core/fal/tiger/fal_tiger_dos.c ****     HAL_FIELD_GET(DOS_TCP_FLAGS0m, DOS_TCP_FLAGS0_TCP_FLAGSf, &dos_tcp_flagsn, &tcp_flag);
 807              		.loc 1 208 5 discriminator 2 view .LVU171
 808              	.LBB5:
 208:../switch_sdk/core/fal/tiger/fal_tiger_dos.c ****     HAL_FIELD_GET(DOS_TCP_FLAGS0m, DOS_TCP_FLAGS0_TCP_FLAGSf, &dos_tcp_flagsn, &tcp_flag);
 809              		.loc 1 208 5 discriminator 2 view .LVU172
 208:../switch_sdk/core/fal/tiger/fal_tiger_dos.c ****     HAL_FIELD_GET(DOS_TCP_FLAGS0m, DOS_TCP_FLAGS0_TCP_FLAGSf, &dos_tcp_flagsn, &tcp_flag);
 810              		.loc 1 208 5 discriminator 2 view .LVU173
 811 0084 02AB     		add	r3, sp, #8
 812 0086 03AA     		add	r2, sp, #12
 813 0088 0621     		movs	r1, #6
 814 008a 2120     		movs	r0, #33
 815 008c FFF7FEFF 		bl	hal_tbl_reg_field_get
 816              	.LVL109:
 208:../switch_sdk/core/fal/tiger/fal_tiger_dos.c ****     HAL_FIELD_GET(DOS_TCP_FLAGS0m, DOS_TCP_FLAGS0_TCP_FLAGSf, &dos_tcp_flagsn, &tcp_flag);
 817              		.loc 1 208 5 discriminator 2 view .LVU174
 818 0090 029E     		ldr	r6, [sp, #8]
 819              	.LVL110:
 208:../switch_sdk/core/fal/tiger/fal_tiger_dos.c ****     HAL_FIELD_GET(DOS_TCP_FLAGS0m, DOS_TCP_FLAGS0_TCP_FLAGSf, &dos_tcp_flagsn, &tcp_flag);
 820              		.loc 1 208 5 is_stmt 0 discriminator 2 view .LVU175
 821              	.LBE5:
 208:../switch_sdk/core/fal/tiger/fal_tiger_dos.c ****     HAL_FIELD_GET(DOS_TCP_FLAGS0m, DOS_TCP_FLAGS0_TCP_FLAGSf, &dos_tcp_flagsn, &tcp_flag);
 822              		.loc 1 208 5 is_stmt 1 discriminator 2 view .LVU176
 209:../switch_sdk/core/fal/tiger/fal_tiger_dos.c ****     HAL_FIELD_GET(DOS_TCP_FLAGS0m, DOS_TCP_FLAGS0_PUBLIC_TCP_SPORT_MASKf, &dos_tcp_flagsn, &public_
 823              		.loc 1 209 5 discriminator 2 view .LVU177
 824              	.LBB6:
 209:../switch_sdk/core/fal/tiger/fal_tiger_dos.c ****     HAL_FIELD_GET(DOS_TCP_FLAGS0m, DOS_TCP_FLAGS0_PUBLIC_TCP_SPORT_MASKf, &dos_tcp_flagsn, &public_
 825              		.loc 1 209 5 discriminator 2 view .LVU178
 209:../switch_sdk/core/fal/tiger/fal_tiger_dos.c ****     HAL_FIELD_GET(DOS_TCP_FLAGS0m, DOS_TCP_FLAGS0_PUBLIC_TCP_SPORT_MASKf, &dos_tcp_flagsn, &public_
 826              		.loc 1 209 5 discriminator 2 view .LVU179
 827 0092 02AB     		add	r3, sp, #8
 828 0094 03AA     		add	r2, sp, #12
 829 0096 0521     		movs	r1, #5
 830 0098 2120     		movs	r0, #33
 831 009a FFF7FEFF 		bl	hal_tbl_reg_field_get
 832              	.LVL111:
 209:../switch_sdk/core/fal/tiger/fal_tiger_dos.c ****     HAL_FIELD_GET(DOS_TCP_FLAGS0m, DOS_TCP_FLAGS0_PUBLIC_TCP_SPORT_MASKf, &dos_tcp_flagsn, &public_
 833              		.loc 1 209 5 discriminator 2 view .LVU180
 834 009e 029F     		ldr	r7, [sp, #8]
 835              	.LVL112:
 209:../switch_sdk/core/fal/tiger/fal_tiger_dos.c ****     HAL_FIELD_GET(DOS_TCP_FLAGS0m, DOS_TCP_FLAGS0_PUBLIC_TCP_SPORT_MASKf, &dos_tcp_flagsn, &public_
 836              		.loc 1 209 5 is_stmt 0 discriminator 2 view .LVU181
 837              	.LBE6:
 209:../switch_sdk/core/fal/tiger/fal_tiger_dos.c ****     HAL_FIELD_GET(DOS_TCP_FLAGS0m, DOS_TCP_FLAGS0_PUBLIC_TCP_SPORT_MASKf, &dos_tcp_flagsn, &public_
 838              		.loc 1 209 5 is_stmt 1 discriminator 2 view .LVU182
 210:../switch_sdk/core/fal/tiger/fal_tiger_dos.c ****     HAL_FIELD_GET(DOS_TCP_FLAGS0m, DOS_TCP_FLAGS0_SEQ_NUM0_MASKf, &dos_tcp_flagsn, &seq_num_mask);
 839              		.loc 1 210 5 discriminator 2 view .LVU183
 840              	.LBB7:
 210:../switch_sdk/core/fal/tiger/fal_tiger_dos.c ****     HAL_FIELD_GET(DOS_TCP_FLAGS0m, DOS_TCP_FLAGS0_SEQ_NUM0_MASKf, &dos_tcp_flagsn, &seq_num_mask);
 841              		.loc 1 210 5 discriminator 2 view .LVU184
 210:../switch_sdk/core/fal/tiger/fal_tiger_dos.c ****     HAL_FIELD_GET(DOS_TCP_FLAGS0m, DOS_TCP_FLAGS0_SEQ_NUM0_MASKf, &dos_tcp_flagsn, &seq_num_mask);
 842              		.loc 1 210 5 discriminator 2 view .LVU185
 843 00a0 02AB     		add	r3, sp, #8
 844 00a2 03AA     		add	r2, sp, #12
 845 00a4 0421     		movs	r1, #4
 846 00a6 2120     		movs	r0, #33
 847 00a8 FFF7FEFF 		bl	hal_tbl_reg_field_get
 848              	.LVL113:
 210:../switch_sdk/core/fal/tiger/fal_tiger_dos.c ****     HAL_FIELD_GET(DOS_TCP_FLAGS0m, DOS_TCP_FLAGS0_SEQ_NUM0_MASKf, &dos_tcp_flagsn, &seq_num_mask);
 849              		.loc 1 210 5 discriminator 2 view .LVU186
 850 00ac DDF80880 		ldr	r8, [sp, #8]
 851              	.LVL114:
 210:../switch_sdk/core/fal/tiger/fal_tiger_dos.c ****     HAL_FIELD_GET(DOS_TCP_FLAGS0m, DOS_TCP_FLAGS0_SEQ_NUM0_MASKf, &dos_tcp_flagsn, &seq_num_mask);
 852              		.loc 1 210 5 is_stmt 0 discriminator 2 view .LVU187
 853              	.LBE7:
 210:../switch_sdk/core/fal/tiger/fal_tiger_dos.c ****     HAL_FIELD_GET(DOS_TCP_FLAGS0m, DOS_TCP_FLAGS0_SEQ_NUM0_MASKf, &dos_tcp_flagsn, &seq_num_mask);
 854              		.loc 1 210 5 is_stmt 1 discriminator 2 view .LVU188
 211:../switch_sdk/core/fal/tiger/fal_tiger_dos.c ****     HAL_FIELD_GET(DOS_TCP_FLAGS0m, DOS_TCP_FLAGS0_TCP_FLAGS_MASKf, &dos_tcp_flagsn, &tcp_flag_mask)
 855              		.loc 1 211 5 discriminator 2 view .LVU189
 856              	.LBB8:
 211:../switch_sdk/core/fal/tiger/fal_tiger_dos.c ****     HAL_FIELD_GET(DOS_TCP_FLAGS0m, DOS_TCP_FLAGS0_TCP_FLAGS_MASKf, &dos_tcp_flagsn, &tcp_flag_mask)
 857              		.loc 1 211 5 discriminator 2 view .LVU190
 211:../switch_sdk/core/fal/tiger/fal_tiger_dos.c ****     HAL_FIELD_GET(DOS_TCP_FLAGS0m, DOS_TCP_FLAGS0_TCP_FLAGS_MASKf, &dos_tcp_flagsn, &tcp_flag_mask)
 858              		.loc 1 211 5 discriminator 2 view .LVU191
 859 00b0 02AB     		add	r3, sp, #8
 860 00b2 03AA     		add	r2, sp, #12
 861 00b4 0321     		movs	r1, #3
 862 00b6 2120     		movs	r0, #33
 863 00b8 FFF7FEFF 		bl	hal_tbl_reg_field_get
 864              	.LVL115:
 211:../switch_sdk/core/fal/tiger/fal_tiger_dos.c ****     HAL_FIELD_GET(DOS_TCP_FLAGS0m, DOS_TCP_FLAGS0_TCP_FLAGS_MASKf, &dos_tcp_flagsn, &tcp_flag_mask)
 865              		.loc 1 211 5 discriminator 2 view .LVU192
 866 00bc DDF80890 		ldr	r9, [sp, #8]
 867              	.LVL116:
 211:../switch_sdk/core/fal/tiger/fal_tiger_dos.c ****     HAL_FIELD_GET(DOS_TCP_FLAGS0m, DOS_TCP_FLAGS0_TCP_FLAGS_MASKf, &dos_tcp_flagsn, &tcp_flag_mask)
 868              		.loc 1 211 5 is_stmt 0 discriminator 2 view .LVU193
 869              	.LBE8:
 211:../switch_sdk/core/fal/tiger/fal_tiger_dos.c ****     HAL_FIELD_GET(DOS_TCP_FLAGS0m, DOS_TCP_FLAGS0_TCP_FLAGS_MASKf, &dos_tcp_flagsn, &tcp_flag_mask)
 870              		.loc 1 211 5 is_stmt 1 discriminator 2 view .LVU194
 212:../switch_sdk/core/fal/tiger/fal_tiger_dos.c ****     HAL_FIELD_GET(DOS_TCP_FLAGS0m, DOS_TCP_FLAGS0_COPY_TO_CPUf, &dos_tcp_flagsn, &copy_to_cpu);
 871              		.loc 1 212 5 discriminator 2 view .LVU195
 872              	.LBB9:
 212:../switch_sdk/core/fal/tiger/fal_tiger_dos.c ****     HAL_FIELD_GET(DOS_TCP_FLAGS0m, DOS_TCP_FLAGS0_COPY_TO_CPUf, &dos_tcp_flagsn, &copy_to_cpu);
 873              		.loc 1 212 5 discriminator 2 view .LVU196
 212:../switch_sdk/core/fal/tiger/fal_tiger_dos.c ****     HAL_FIELD_GET(DOS_TCP_FLAGS0m, DOS_TCP_FLAGS0_COPY_TO_CPUf, &dos_tcp_flagsn, &copy_to_cpu);
 874              		.loc 1 212 5 discriminator 2 view .LVU197
 875 00c0 02AB     		add	r3, sp, #8
 876 00c2 03AA     		add	r2, sp, #12
 877 00c4 0221     		movs	r1, #2
 878 00c6 2120     		movs	r0, #33
 879 00c8 FFF7FEFF 		bl	hal_tbl_reg_field_get
 880              	.LVL117:
 212:../switch_sdk/core/fal/tiger/fal_tiger_dos.c ****     HAL_FIELD_GET(DOS_TCP_FLAGS0m, DOS_TCP_FLAGS0_COPY_TO_CPUf, &dos_tcp_flagsn, &copy_to_cpu);
 881              		.loc 1 212 5 discriminator 2 view .LVU198
 882 00cc DDF808A0 		ldr	r10, [sp, #8]
 883              	.LVL118:
 212:../switch_sdk/core/fal/tiger/fal_tiger_dos.c ****     HAL_FIELD_GET(DOS_TCP_FLAGS0m, DOS_TCP_FLAGS0_COPY_TO_CPUf, &dos_tcp_flagsn, &copy_to_cpu);
 884              		.loc 1 212 5 is_stmt 0 discriminator 2 view .LVU199
 885              	.LBE9:
 212:../switch_sdk/core/fal/tiger/fal_tiger_dos.c ****     HAL_FIELD_GET(DOS_TCP_FLAGS0m, DOS_TCP_FLAGS0_COPY_TO_CPUf, &dos_tcp_flagsn, &copy_to_cpu);
 886              		.loc 1 212 5 is_stmt 1 discriminator 2 view .LVU200
 213:../switch_sdk/core/fal/tiger/fal_tiger_dos.c ****     HAL_FIELD_GET(DOS_TCP_FLAGS0m, DOS_TCP_FLAGS0_DROP_EN, &dos_tcp_flagsn, &enable);
 887              		.loc 1 213 5 discriminator 2 view .LVU201
 888              	.LBB10:
 213:../switch_sdk/core/fal/tiger/fal_tiger_dos.c ****     HAL_FIELD_GET(DOS_TCP_FLAGS0m, DOS_TCP_FLAGS0_DROP_EN, &dos_tcp_flagsn, &enable);
 889              		.loc 1 213 5 discriminator 2 view .LVU202
 213:../switch_sdk/core/fal/tiger/fal_tiger_dos.c ****     HAL_FIELD_GET(DOS_TCP_FLAGS0m, DOS_TCP_FLAGS0_DROP_EN, &dos_tcp_flagsn, &enable);
 890              		.loc 1 213 5 discriminator 2 view .LVU203
 891 00d0 02AB     		add	r3, sp, #8
 892 00d2 03AA     		add	r2, sp, #12
 893 00d4 0121     		movs	r1, #1
 894 00d6 2120     		movs	r0, #33
 895 00d8 FFF7FEFF 		bl	hal_tbl_reg_field_get
 896              	.LVL119:
 213:../switch_sdk/core/fal/tiger/fal_tiger_dos.c ****     HAL_FIELD_GET(DOS_TCP_FLAGS0m, DOS_TCP_FLAGS0_DROP_EN, &dos_tcp_flagsn, &enable);
 897              		.loc 1 213 5 discriminator 2 view .LVU204
 213:../switch_sdk/core/fal/tiger/fal_tiger_dos.c ****     HAL_FIELD_GET(DOS_TCP_FLAGS0m, DOS_TCP_FLAGS0_DROP_EN, &dos_tcp_flagsn, &enable);
 898              		.loc 1 213 5 is_stmt 0 discriminator 2 view .LVU205
 899              	.LBE10:
 213:../switch_sdk/core/fal/tiger/fal_tiger_dos.c ****     HAL_FIELD_GET(DOS_TCP_FLAGS0m, DOS_TCP_FLAGS0_DROP_EN, &dos_tcp_flagsn, &enable);
 900              		.loc 1 213 5 is_stmt 1 discriminator 2 view .LVU206
 214:../switch_sdk/core/fal/tiger/fal_tiger_dos.c ****     if(public_tcp_sport == 0 &&
 901              		.loc 1 214 5 discriminator 2 view .LVU207
 902              	.LBB11:
 214:../switch_sdk/core/fal/tiger/fal_tiger_dos.c ****     if(public_tcp_sport == 0 &&
 903              		.loc 1 214 5 discriminator 2 view .LVU208
 214:../switch_sdk/core/fal/tiger/fal_tiger_dos.c ****     if(public_tcp_sport == 0 &&
 904              		.loc 1 214 5 discriminator 2 view .LVU209
 905 00dc 02AB     		add	r3, sp, #8
 906              	.LVL120:
 214:../switch_sdk/core/fal/tiger/fal_tiger_dos.c ****     if(public_tcp_sport == 0 &&
 907              		.loc 1 214 5 is_stmt 0 discriminator 2 view .LVU210
 908 00de 03AA     		add	r2, sp, #12
 909 00e0 0021     		movs	r1, #0
 910 00e2 2120     		movs	r0, #33
 911 00e4 FFF7FEFF 		bl	hal_tbl_reg_field_get
 912              	.LVL121:
 214:../switch_sdk/core/fal/tiger/fal_tiger_dos.c ****     if(public_tcp_sport == 0 &&
 913              		.loc 1 214 5 is_stmt 1 discriminator 2 view .LVU211
 914 00e8 0298     		ldr	r0, [sp, #8]
 915              	.LVL122:
 214:../switch_sdk/core/fal/tiger/fal_tiger_dos.c ****     if(public_tcp_sport == 0 &&
 916              		.loc 1 214 5 is_stmt 0 discriminator 2 view .LVU212
 917              	.LBE11:
 214:../switch_sdk/core/fal/tiger/fal_tiger_dos.c ****     if(public_tcp_sport == 0 &&
 918              		.loc 1 214 5 is_stmt 1 discriminator 2 view .LVU213
 215:../switch_sdk/core/fal/tiger/fal_tiger_dos.c ****         seq_num == 0 &&
 919              		.loc 1 215 5 discriminator 2 view .LVU214
 215:../switch_sdk/core/fal/tiger/fal_tiger_dos.c ****         seq_num == 0 &&
 920              		.loc 1 215 7 is_stmt 0 discriminator 2 view .LVU215
 921 00ea 24B9     		cbnz	r4, .L42
 215:../switch_sdk/core/fal/tiger/fal_tiger_dos.c ****         seq_num == 0 &&
 922              		.loc 1 215 30 discriminator 1 view .LVU216
 923 00ec 1EB9     		cbnz	r6, .L42
 216:../switch_sdk/core/fal/tiger/fal_tiger_dos.c ****         tcp_flag == 0 &&
 924              		.loc 1 216 22 view .LVU217
 925 00ee 17B9     		cbnz	r7, .L42
 217:../switch_sdk/core/fal/tiger/fal_tiger_dos.c ****         public_tcp_sport_mask == 1 &&
 926              		.loc 1 217 23 view .LVU218
 927 00f0 B8F1010F 		cmp	r8, #1
 928 00f4 03D0     		beq	.L47
 929              	.L42:
 227:../switch_sdk/core/fal/tiger/fal_tiger_dos.c ****     }
 930              		.loc 1 227 9 is_stmt 1 view .LVU219
 227:../switch_sdk/core/fal/tiger/fal_tiger_dos.c ****     }
 931              		.loc 1 227 18 is_stmt 0 view .LVU220
 932 00f6 0123     		movs	r3, #1
 933 00f8 2B70     		strb	r3, [r5]
 230:../switch_sdk/core/fal/tiger/fal_tiger_dos.c **** }
 934              		.loc 1 230 12 view .LVU221
 935 00fa 0020     		movs	r0, #0
 936              	.LVL123:
 230:../switch_sdk/core/fal/tiger/fal_tiger_dos.c **** }
 937              		.loc 1 230 12 view .LVU222
 938 00fc 9EE7     		b	.L31
 939              	.LVL124:
 940              	.L47:
 218:../switch_sdk/core/fal/tiger/fal_tiger_dos.c ****         seq_num_mask == 1 &&
 941              		.loc 1 218 36 view .LVU223
 942 00fe B9F1010F 		cmp	r9, #1
 943 0102 F8D1     		bne	.L42
 219:../switch_sdk/core/fal/tiger/fal_tiger_dos.c ****         tcp_flag_mask == 0x3F &&
 944              		.loc 1 219 27 view .LVU224
 945 0104 BAF13F0F 		cmp	r10, #63
 946 0108 F5D1     		bne	.L42
 220:../switch_sdk/core/fal/tiger/fal_tiger_dos.c ****         enable == YT_DISABLE)
 947              		.loc 1 220 31 view .LVU225
 948 010a 0028     		cmp	r0, #0
 949 010c F3D1     		bne	.L42
 223:../switch_sdk/core/fal/tiger/fal_tiger_dos.c ****     }
 950              		.loc 1 223 9 is_stmt 1 view .LVU226
 223:../switch_sdk/core/fal/tiger/fal_tiger_dos.c ****     }
 951              		.loc 1 223 18 is_stmt 0 view .LVU227
 952 010e 0023     		movs	r3, #0
 953 0110 2B70     		strb	r3, [r5]
 954 0112 93E7     		b	.L31
 955              	.LVL125:
 956              	.L43:
 179:../switch_sdk/core/fal/tiger/fal_tiger_dos.c ****     {
 957              		.loc 1 179 5 view .LVU228
 958 0114 0320     		movs	r0, #3
 959              	.LVL126:
 179:../switch_sdk/core/fal/tiger/fal_tiger_dos.c ****     {
 960              		.loc 1 179 5 view .LVU229
 961 0116 91E7     		b	.L31
 962              	.L49:
 963              		.align	2
 964              	.L48:
 965 0118 00000000 		.word	yt_debug_level
 966 011c 00000000 		.word	__FUNCTION__.2
 967 0120 00000000 		.word	.LC2
 968 0124 00000000 		.word	_yt_errmsg
 969 0128 00000000 		.word	_yt_prompt_msg
 970 012c 4C000000 		.word	.LC1
 971              		.cfi_endproc
 972              	.LFE4:
 974              		.section	.rodata.fal_tiger_dos_init.str1.4,"aMS",%progbits,1
 975              		.align	2
 976              	.LC3:
 977 0000 68616C5F 		.ascii	"hal_table_reg_read(unit,39,0,sizeof(dos_ctrl_t),&do"
 977      7461626C 
 977      655F7265 
 977      675F7265 
 977      61642875 
 978 0033 735F6374 		.ascii	"s_ctrl)\000"
 978      726C2900 
 979 003b 00       		.align	2
 980              	.LC4:
 981 003c 68616C5F 		.ascii	"hal_table_reg_write(unit,39,0,sizeof(dos_ctrl_t),&d"
 981      7461626C 
 981      655F7265 
 981      675F7772 
 981      69746528 
 982 006f 6F735F63 		.ascii	"os_ctrl)\000"
 982      74726C29 
 982      00
 983              		.section	.text.fal_tiger_dos_init,"ax",%progbits
 984              		.align	1
 985              		.global	fal_tiger_dos_init
 986              		.syntax unified
 987              		.thumb
 988              		.thumb_func
 990              	fal_tiger_dos_init:
 991              	.LVL127:
 992              	.LFB5:
 232:../switch_sdk/core/fal/tiger/fal_tiger_dos.c **** 
 233:../switch_sdk/core/fal/tiger/fal_tiger_dos.c **** yt_ret_t fal_tiger_dos_init(yt_unit_t unit)
 234:../switch_sdk/core/fal/tiger/fal_tiger_dos.c **** {
 993              		.loc 1 234 1 is_stmt 1 view -0
 994              		.cfi_startproc
 995              		@ args = 0, pretend = 0, frame = 8
 996              		@ frame_needed = 0, uses_anonymous_args = 0
 997              		.loc 1 234 1 is_stmt 0 view .LVU231
 998 0000 30B5     		push	{r4, r5, lr}
 999              		.cfi_def_cfa_offset 12
 1000              		.cfi_offset 4, -12
 1001              		.cfi_offset 5, -8
 1002              		.cfi_offset 14, -4
 1003 0002 85B0     		sub	sp, sp, #20
 1004              		.cfi_def_cfa_offset 32
 1005 0004 0546     		mov	r5, r0
 235:../switch_sdk/core/fal/tiger/fal_tiger_dos.c ****     dos_ctrl_t dos_ctrl;
 1006              		.loc 1 235 5 is_stmt 1 view .LVU232
 236:../switch_sdk/core/fal/tiger/fal_tiger_dos.c ****     cmm_err_t ret = CMM_ERR_OK;
 1007              		.loc 1 236 5 view .LVU233
 1008              	.LVL128:
 237:../switch_sdk/core/fal/tiger/fal_tiger_dos.c **** 
 238:../switch_sdk/core/fal/tiger/fal_tiger_dos.c ****     /*disable part of dos drop by default*/
 239:../switch_sdk/core/fal/tiger/fal_tiger_dos.c ****     CMM_ERR_CHK(HAL_TBL_REG_READ(unit, DOS_CTRLm, 0, sizeof(dos_ctrl_t), &dos_ctrl), ret);
 1009              		.loc 1 239 5 view .LVU234
 1010              		.loc 1 239 5 view .LVU235
 1011 0006 03AB     		add	r3, sp, #12
 1012 0008 0093     		str	r3, [sp]
 1013 000a 0423     		movs	r3, #4
 1014 000c 0022     		movs	r2, #0
 1015 000e 2721     		movs	r1, #39
 1016 0010 FFF7FEFF 		bl	hal_table_reg_read
 1017              	.LVL129:
 1018              		.loc 1 239 5 is_stmt 0 view .LVU236
 1019 0014 10F0FF03 		ands	r3, r0, #255
 1020 0018 17D0     		beq	.L51
 1021 001a 0446     		mov	r4, r0
 1022              		.loc 1 239 5 is_stmt 1 discriminator 1 view .LVU237
 1023              		.loc 1 239 5 discriminator 1 view .LVU238
 1024 001c 234A     		ldr	r2, .L60
 1025 001e 1278     		ldrb	r2, [r2]	@ zero_extendqisi2
 1026 0020 012A     		cmp	r2, #1
 1027 0022 02D8     		bhi	.L57
 1028              	.LVL130:
 1029              	.L52:
 1030              		.loc 1 239 5 discriminator 5 view .LVU239
 1031              		.loc 1 239 5 discriminator 5 view .LVU240
 1032              		.loc 1 239 5 discriminator 5 view .LVU241
 1033 0024 E0B2     		uxtb	r0, r4
 1034              	.LVL131:
 1035              	.L50:
 240:../switch_sdk/core/fal/tiger/fal_tiger_dos.c ****     HAL_FIELD_SET(DOS_CTRLm, DOS_CTRL_TCP_SPORT_EQ_DPORT_DROPf, &dos_ctrl, YT_DISABLE);
 241:../switch_sdk/core/fal/tiger/fal_tiger_dos.c ****     HAL_FIELD_SET(DOS_CTRLm, DOS_CTRL_UDP_SPORT_EQ_DPORT_DROPf, &dos_ctrl, YT_DISABLE);
 242:../switch_sdk/core/fal/tiger/fal_tiger_dos.c ****     CMM_ERR_CHK(HAL_TBL_REG_WRITE(unit, DOS_CTRLm, 0, sizeof(dos_ctrl_t), &dos_ctrl), ret);
 243:../switch_sdk/core/fal/tiger/fal_tiger_dos.c **** 
 244:../switch_sdk/core/fal/tiger/fal_tiger_dos.c ****     return CMM_ERR_OK;
 245:../switch_sdk/core/fal/tiger/fal_tiger_dos.c **** }
 1036              		.loc 1 245 1 is_stmt 0 view .LVU242
 1037 0026 05B0     		add	sp, sp, #20
 1038              		.cfi_remember_state
 1039              		.cfi_def_cfa_offset 12
 1040              		@ sp needed
 1041 0028 30BD     		pop	{r4, r5, pc}
 1042              	.LVL132:
 1043              	.L57:
 1044              		.cfi_restore_state
 239:../switch_sdk/core/fal/tiger/fal_tiger_dos.c ****     HAL_FIELD_SET(DOS_CTRLm, DOS_CTRL_TCP_SPORT_EQ_DPORT_DROPf, &dos_ctrl, YT_DISABLE);
 1045              		.loc 1 239 5 is_stmt 1 discriminator 3 view .LVU243
 1046              	.LBB12:
 239:../switch_sdk/core/fal/tiger/fal_tiger_dos.c ****     HAL_FIELD_SET(DOS_CTRLm, DOS_CTRL_TCP_SPORT_EQ_DPORT_DROPf, &dos_ctrl, YT_DISABLE);
 1047              		.loc 1 239 5 discriminator 3 view .LVU244
 1048 002a 142B     		cmp	r3, #20
 1049 002c 28BF     		it	cs
 1050 002e 1423     		movcs	r3, #20
 1051 0030 1A46     		mov	r2, r3
 1052 0032 1F4B     		ldr	r3, .L60+4
 1053 0034 0093     		str	r3, [sp]
 1054 0036 1F4B     		ldr	r3, .L60+8
 1055 0038 1F49     		ldr	r1, .L60+12
 1056 003a 51F82220 		ldr	r2, [r1, r2, lsl #2]
 1057 003e 1F49     		ldr	r1, .L60+16
 1058 0040 8968     		ldr	r1, [r1, #8]
 1059 0042 1F48     		ldr	r0, .L60+20
 1060              	.LVL133:
 239:../switch_sdk/core/fal/tiger/fal_tiger_dos.c ****     HAL_FIELD_SET(DOS_CTRLm, DOS_CTRL_TCP_SPORT_EQ_DPORT_DROPf, &dos_ctrl, YT_DISABLE);
 1061              		.loc 1 239 5 is_stmt 0 discriminator 3 view .LVU245
 1062 0044 FFF7FEFF 		bl	osal_printf
 1063              	.LVL134:
 1064 0048 ECE7     		b	.L52
 1065              	.LVL135:
 1066              	.L51:
 239:../switch_sdk/core/fal/tiger/fal_tiger_dos.c ****     HAL_FIELD_SET(DOS_CTRLm, DOS_CTRL_TCP_SPORT_EQ_DPORT_DROPf, &dos_ctrl, YT_DISABLE);
 1067              		.loc 1 239 5 discriminator 3 view .LVU246
 1068              	.LBE12:
 239:../switch_sdk/core/fal/tiger/fal_tiger_dos.c ****     HAL_FIELD_SET(DOS_CTRLm, DOS_CTRL_TCP_SPORT_EQ_DPORT_DROPf, &dos_ctrl, YT_DISABLE);
 1069              		.loc 1 239 5 is_stmt 1 discriminator 2 view .LVU247
 240:../switch_sdk/core/fal/tiger/fal_tiger_dos.c ****     HAL_FIELD_SET(DOS_CTRLm, DOS_CTRL_TCP_SPORT_EQ_DPORT_DROPf, &dos_ctrl, YT_DISABLE);
 1070              		.loc 1 240 5 discriminator 2 view .LVU248
 1071 004a 03AC     		add	r4, sp, #12
 1072 004c 0023     		movs	r3, #0
 1073 004e 2246     		mov	r2, r4
 1074 0050 0F21     		movs	r1, #15
 1075 0052 2720     		movs	r0, #39
 1076              	.LVL136:
 240:../switch_sdk/core/fal/tiger/fal_tiger_dos.c ****     HAL_FIELD_SET(DOS_CTRLm, DOS_CTRL_TCP_SPORT_EQ_DPORT_DROPf, &dos_ctrl, YT_DISABLE);
 1077              		.loc 1 240 5 is_stmt 0 discriminator 2 view .LVU249
 1078 0054 FFF7FEFF 		bl	hal_tbl_reg_field_set
 1079              	.LVL137:
 241:../switch_sdk/core/fal/tiger/fal_tiger_dos.c ****     CMM_ERR_CHK(HAL_TBL_REG_WRITE(unit, DOS_CTRLm, 0, sizeof(dos_ctrl_t), &dos_ctrl), ret);
 1080              		.loc 1 241 5 is_stmt 1 discriminator 2 view .LVU250
 1081 0058 0023     		movs	r3, #0
 1082 005a 2246     		mov	r2, r4
 1083 005c 1021     		movs	r1, #16
 1084 005e 2720     		movs	r0, #39
 1085 0060 FFF7FEFF 		bl	hal_tbl_reg_field_set
 1086              	.LVL138:
 242:../switch_sdk/core/fal/tiger/fal_tiger_dos.c **** 
 1087              		.loc 1 242 5 discriminator 2 view .LVU251
 242:../switch_sdk/core/fal/tiger/fal_tiger_dos.c **** 
 1088              		.loc 1 242 5 discriminator 2 view .LVU252
 1089 0064 0094     		str	r4, [sp]
 1090 0066 0423     		movs	r3, #4
 1091 0068 0022     		movs	r2, #0
 1092 006a 2721     		movs	r1, #39
 1093 006c 2846     		mov	r0, r5
 1094 006e FFF7FEFF 		bl	hal_table_reg_write
 1095              	.LVL139:
 1096 0072 0446     		mov	r4, r0
 1097              	.LVL140:
 242:../switch_sdk/core/fal/tiger/fal_tiger_dos.c **** 
 1098              		.loc 1 242 5 is_stmt 0 discriminator 2 view .LVU253
 1099 0074 10F0FF03 		ands	r3, r0, #255
 1100 0078 01D1     		bne	.L58
 244:../switch_sdk/core/fal/tiger/fal_tiger_dos.c **** }
 1101              		.loc 1 244 12 view .LVU254
 1102 007a 0020     		movs	r0, #0
 1103              	.LVL141:
 244:../switch_sdk/core/fal/tiger/fal_tiger_dos.c **** }
 1104              		.loc 1 244 12 view .LVU255
 1105 007c D3E7     		b	.L50
 1106              	.LVL142:
 1107              	.L58:
 242:../switch_sdk/core/fal/tiger/fal_tiger_dos.c **** 
 1108              		.loc 1 242 5 is_stmt 1 discriminator 1 view .LVU256
 242:../switch_sdk/core/fal/tiger/fal_tiger_dos.c **** 
 1109              		.loc 1 242 5 discriminator 1 view .LVU257
 1110 007e 0B4A     		ldr	r2, .L60
 1111 0080 1278     		ldrb	r2, [r2]	@ zero_extendqisi2
 1112 0082 012A     		cmp	r2, #1
 1113 0084 01D8     		bhi	.L59
 1114              	.LVL143:
 1115              	.L54:
 242:../switch_sdk/core/fal/tiger/fal_tiger_dos.c **** 
 1116              		.loc 1 242 5 discriminator 5 view .LVU258
 242:../switch_sdk/core/fal/tiger/fal_tiger_dos.c **** 
 1117              		.loc 1 242 5 discriminator 5 view .LVU259
 242:../switch_sdk/core/fal/tiger/fal_tiger_dos.c **** 
 1118              		.loc 1 242 5 discriminator 5 view .LVU260
 1119 0086 E0B2     		uxtb	r0, r4
 1120 0088 CDE7     		b	.L50
 1121              	.LVL144:
 1122              	.L59:
 242:../switch_sdk/core/fal/tiger/fal_tiger_dos.c **** 
 1123              		.loc 1 242 5 discriminator 3 view .LVU261
 1124              	.LBB13:
 242:../switch_sdk/core/fal/tiger/fal_tiger_dos.c **** 
 1125              		.loc 1 242 5 discriminator 3 view .LVU262
 1126 008a 142B     		cmp	r3, #20
 1127 008c 28BF     		it	cs
 1128 008e 1423     		movcs	r3, #20
 1129 0090 1A46     		mov	r2, r3
 1130 0092 074B     		ldr	r3, .L60+4
 1131 0094 0093     		str	r3, [sp]
 1132 0096 0B4B     		ldr	r3, .L60+24
 1133 0098 0749     		ldr	r1, .L60+12
 1134 009a 51F82220 		ldr	r2, [r1, r2, lsl #2]
 1135 009e 0749     		ldr	r1, .L60+16
 1136 00a0 8968     		ldr	r1, [r1, #8]
 1137 00a2 0748     		ldr	r0, .L60+20
 1138              	.LVL145:
 242:../switch_sdk/core/fal/tiger/fal_tiger_dos.c **** 
 1139              		.loc 1 242 5 is_stmt 0 discriminator 3 view .LVU263
 1140 00a4 FFF7FEFF 		bl	osal_printf
 1141              	.LVL146:
 1142 00a8 EDE7     		b	.L54
 1143              	.L61:
 1144 00aa 00BF     		.align	2
 1145              	.L60:
 1146 00ac 00000000 		.word	yt_debug_level
 1147 00b0 00000000 		.word	__FUNCTION__.8
 1148 00b4 00000000 		.word	.LC3
 1149 00b8 00000000 		.word	_yt_errmsg
 1150 00bc 00000000 		.word	_yt_prompt_msg
 1151 00c0 4C000000 		.word	.LC1
 1152 00c4 3C000000 		.word	.LC4
 1153              	.LBE13:
 1154              		.cfi_endproc
 1155              	.LFE5:
 1157              		.section	.text.fal_tiger_dos_port_en_set,"ax",%progbits
 1158              		.align	1
 1159              		.global	fal_tiger_dos_port_en_set
 1160              		.syntax unified
 1161              		.thumb
 1162              		.thumb_func
 1164              	fal_tiger_dos_port_en_set:
 1165              	.LVL147:
 1166              	.LFB6:
 246:../switch_sdk/core/fal/tiger/fal_tiger_dos.c **** 
 247:../switch_sdk/core/fal/tiger/fal_tiger_dos.c **** yt_ret_t fal_tiger_dos_port_en_set(yt_unit_t unit, yt_port_t port, yt_enable_t enable)
 248:../switch_sdk/core/fal/tiger/fal_tiger_dos.c **** {
 1167              		.loc 1 248 1 is_stmt 1 view -0
 1168              		.cfi_startproc
 1169              		@ args = 0, pretend = 0, frame = 8
 1170              		@ frame_needed = 0, uses_anonymous_args = 0
 1171              		.loc 1 248 1 is_stmt 0 view .LVU265
 1172 0000 F0B5     		push	{r4, r5, r6, r7, lr}
 1173              		.cfi_def_cfa_offset 20
 1174              		.cfi_offset 4, -20
 1175              		.cfi_offset 5, -16
 1176              		.cfi_offset 6, -12
 1177              		.cfi_offset 7, -8
 1178              		.cfi_offset 14, -4
 1179 0002 85B0     		sub	sp, sp, #20
 1180              		.cfi_def_cfa_offset 40
 1181 0004 0546     		mov	r5, r0
 1182 0006 1646     		mov	r6, r2
 249:../switch_sdk/core/fal/tiger/fal_tiger_dos.c ****     dos_ctrl_t dos_ctrl;
 1183              		.loc 1 249 5 is_stmt 1 view .LVU266
 250:../switch_sdk/core/fal/tiger/fal_tiger_dos.c ****     yt_macid_t macid;
 1184              		.loc 1 250 5 view .LVU267
 251:../switch_sdk/core/fal/tiger/fal_tiger_dos.c ****     uint32_t port_en_mask;
 1185              		.loc 1 251 5 view .LVU268
 252:../switch_sdk/core/fal/tiger/fal_tiger_dos.c ****     cmm_err_t ret = CMM_ERR_OK;
 1186              		.loc 1 252 5 view .LVU269
 1187              	.LVL148:
 253:../switch_sdk/core/fal/tiger/fal_tiger_dos.c **** 
 254:../switch_sdk/core/fal/tiger/fal_tiger_dos.c ****     macid = CAL_YTP_TO_MAC(unit,port);
 1188              		.loc 1 254 5 view .LVU270
 1189              		.loc 1 254 13 is_stmt 0 view .LVU271
 1190 0008 364B     		ldr	r3, .L77
 1191 000a 1B78     		ldrb	r3, [r3]	@ zero_extendqisi2
 1192 000c 53B1     		cbz	r3, .L70
 1193              		.loc 1 254 13 discriminator 1 view .LVU272
 1194 000e 364B     		ldr	r3, .L77+4
 1195 0010 53F82030 		ldr	r3, [r3, r0, lsl #2]
 1196 0014 1A7D     		ldrb	r2, [r3, #20]	@ zero_extendqisi2
 1197              	.LVL149:
 1198              		.loc 1 254 13 discriminator 1 view .LVU273
 1199 0016 8A42     		cmp	r2, r1
 1200 0018 18D9     		bls	.L71
 1201              		.loc 1 254 13 discriminator 3 view .LVU274
 1202 001a 0631     		adds	r1, r1, #6
 1203              	.LVL150:
 1204              		.loc 1 254 13 discriminator 3 view .LVU275
 1205 001c 53F82130 		ldr	r3, [r3, r1, lsl #2]
 1206 0020 1F78     		ldrb	r7, [r3]	@ zero_extendqisi2
 1207 0022 00E0     		b	.L63
 1208              	.LVL151:
 1209              	.L70:
 1210              		.loc 1 254 13 view .LVU276
 1211 0024 FF27     		movs	r7, #255
 1212              	.LVL152:
 1213              	.L63:
 255:../switch_sdk/core/fal/tiger/fal_tiger_dos.c **** 
 256:../switch_sdk/core/fal/tiger/fal_tiger_dos.c ****     CMM_ERR_CHK(HAL_TBL_REG_READ(unit, DOS_CTRLm, 0, sizeof(dos_ctrl_t), &dos_ctrl), ret);
 1214              		.loc 1 256 5 is_stmt 1 discriminator 6 view .LVU277
 1215              		.loc 1 256 5 discriminator 6 view .LVU278
 1216 0026 03AA     		add	r2, sp, #12
 1217 0028 0092     		str	r2, [sp]
 1218 002a 0423     		movs	r3, #4
 1219 002c 0022     		movs	r2, #0
 1220 002e 2721     		movs	r1, #39
 1221 0030 2846     		mov	r0, r5
 1222              	.LVL153:
 1223              		.loc 1 256 5 is_stmt 0 discriminator 6 view .LVU279
 1224 0032 FFF7FEFF 		bl	hal_table_reg_read
 1225              	.LVL154:
 1226 0036 0446     		mov	r4, r0
 1227              	.LVL155:
 1228              		.loc 1 256 5 discriminator 6 view .LVU280
 1229 0038 10F0FF03 		ands	r3, r0, #255
 1230 003c 18D0     		beq	.L64
 1231              		.loc 1 256 5 is_stmt 1 discriminator 1 view .LVU281
 1232              		.loc 1 256 5 discriminator 1 view .LVU282
 1233 003e 2B4A     		ldr	r2, .L77+8
 1234 0040 1278     		ldrb	r2, [r2]	@ zero_extendqisi2
 1235 0042 012A     		cmp	r2, #1
 1236 0044 04D8     		bhi	.L74
 1237              	.LVL156:
 1238              	.L65:
 1239              		.loc 1 256 5 discriminator 5 view .LVU283
 1240              		.loc 1 256 5 discriminator 5 view .LVU284
 1241              		.loc 1 256 5 discriminator 5 view .LVU285
 1242 0046 E0B2     		uxtb	r0, r4
 1243              	.LVL157:
 1244              	.L62:
 257:../switch_sdk/core/fal/tiger/fal_tiger_dos.c ****     
 258:../switch_sdk/core/fal/tiger/fal_tiger_dos.c ****     HAL_FIELD_GET(DOS_CTRLm, DOS_CTRL_PORT_EN_MASKf, &dos_ctrl, &port_en_mask);
 259:../switch_sdk/core/fal/tiger/fal_tiger_dos.c ****     if(enable)
 260:../switch_sdk/core/fal/tiger/fal_tiger_dos.c ****     {
 261:../switch_sdk/core/fal/tiger/fal_tiger_dos.c ****         port_en_mask |= 1<<macid;
 262:../switch_sdk/core/fal/tiger/fal_tiger_dos.c ****     }
 263:../switch_sdk/core/fal/tiger/fal_tiger_dos.c ****     else
 264:../switch_sdk/core/fal/tiger/fal_tiger_dos.c ****     {
 265:../switch_sdk/core/fal/tiger/fal_tiger_dos.c ****         port_en_mask &= ~(1<<macid);
 266:../switch_sdk/core/fal/tiger/fal_tiger_dos.c ****     }
 267:../switch_sdk/core/fal/tiger/fal_tiger_dos.c ****     HAL_FIELD_SET(DOS_CTRLm, DOS_CTRL_PORT_EN_MASKf, &dos_ctrl, port_en_mask);
 268:../switch_sdk/core/fal/tiger/fal_tiger_dos.c ****     
 269:../switch_sdk/core/fal/tiger/fal_tiger_dos.c ****     CMM_ERR_CHK(HAL_TBL_REG_WRITE(unit, DOS_CTRLm, 0, sizeof(dos_ctrl_t), &dos_ctrl), ret);
 270:../switch_sdk/core/fal/tiger/fal_tiger_dos.c ****     
 271:../switch_sdk/core/fal/tiger/fal_tiger_dos.c ****     return CMM_ERR_OK;
 272:../switch_sdk/core/fal/tiger/fal_tiger_dos.c **** }
 1245              		.loc 1 272 1 is_stmt 0 view .LVU286
 1246 0048 05B0     		add	sp, sp, #20
 1247              		.cfi_remember_state
 1248              		.cfi_def_cfa_offset 20
 1249              		@ sp needed
 1250 004a F0BD     		pop	{r4, r5, r6, r7, pc}
 1251              	.LVL158:
 1252              	.L71:
 1253              		.cfi_restore_state
 254:../switch_sdk/core/fal/tiger/fal_tiger_dos.c **** 
 1254              		.loc 1 254 13 view .LVU287
 1255 004c FF27     		movs	r7, #255
 1256 004e EAE7     		b	.L63
 1257              	.LVL159:
 1258              	.L74:
 256:../switch_sdk/core/fal/tiger/fal_tiger_dos.c ****     
 1259              		.loc 1 256 5 is_stmt 1 discriminator 3 view .LVU288
 1260              	.LBB14:
 256:../switch_sdk/core/fal/tiger/fal_tiger_dos.c ****     
 1261              		.loc 1 256 5 discriminator 3 view .LVU289
 1262 0050 142B     		cmp	r3, #20
 1263 0052 28BF     		it	cs
 1264 0054 1423     		movcs	r3, #20
 1265 0056 1A46     		mov	r2, r3
 1266 0058 254B     		ldr	r3, .L77+12
 1267 005a 0093     		str	r3, [sp]
 1268 005c 254B     		ldr	r3, .L77+16
 1269 005e 2649     		ldr	r1, .L77+20
 1270 0060 51F82220 		ldr	r2, [r1, r2, lsl #2]
 1271 0064 2549     		ldr	r1, .L77+24
 1272 0066 8968     		ldr	r1, [r1, #8]
 1273 0068 2548     		ldr	r0, .L77+28
 1274              	.LVL160:
 256:../switch_sdk/core/fal/tiger/fal_tiger_dos.c ****     
 1275              		.loc 1 256 5 is_stmt 0 discriminator 3 view .LVU290
 1276 006a FFF7FEFF 		bl	osal_printf
 1277              	.LVL161:
 1278 006e EAE7     		b	.L65
 1279              	.LVL162:
 1280              	.L64:
 256:../switch_sdk/core/fal/tiger/fal_tiger_dos.c ****     
 1281              		.loc 1 256 5 discriminator 3 view .LVU291
 1282              	.LBE14:
 256:../switch_sdk/core/fal/tiger/fal_tiger_dos.c ****     
 1283              		.loc 1 256 5 is_stmt 1 discriminator 2 view .LVU292
 258:../switch_sdk/core/fal/tiger/fal_tiger_dos.c ****     if(enable)
 1284              		.loc 1 258 5 discriminator 2 view .LVU293
 1285              	.LBB15:
 258:../switch_sdk/core/fal/tiger/fal_tiger_dos.c ****     if(enable)
 1286              		.loc 1 258 5 discriminator 2 view .LVU294
 258:../switch_sdk/core/fal/tiger/fal_tiger_dos.c ****     if(enable)
 1287              		.loc 1 258 5 discriminator 2 view .LVU295
 1288 0070 02AB     		add	r3, sp, #8
 1289 0072 03AA     		add	r2, sp, #12
 1290 0074 0121     		movs	r1, #1
 1291 0076 2720     		movs	r0, #39
 1292              	.LVL163:
 258:../switch_sdk/core/fal/tiger/fal_tiger_dos.c ****     if(enable)
 1293              		.loc 1 258 5 is_stmt 0 discriminator 2 view .LVU296
 1294 0078 FFF7FEFF 		bl	hal_tbl_reg_field_get
 1295              	.LVL164:
 258:../switch_sdk/core/fal/tiger/fal_tiger_dos.c ****     if(enable)
 1296              		.loc 1 258 5 is_stmt 1 discriminator 2 view .LVU297
 1297 007c 029B     		ldr	r3, [sp, #8]
 1298              	.LVL165:
 258:../switch_sdk/core/fal/tiger/fal_tiger_dos.c ****     if(enable)
 1299              		.loc 1 258 5 is_stmt 0 discriminator 2 view .LVU298
 1300              	.LBE15:
 258:../switch_sdk/core/fal/tiger/fal_tiger_dos.c ****     if(enable)
 1301              		.loc 1 258 5 is_stmt 1 discriminator 2 view .LVU299
 259:../switch_sdk/core/fal/tiger/fal_tiger_dos.c ****     {
 1302              		.loc 1 259 5 discriminator 2 view .LVU300
 259:../switch_sdk/core/fal/tiger/fal_tiger_dos.c ****     {
 1303              		.loc 1 259 7 is_stmt 0 discriminator 2 view .LVU301
 1304 007e AEB1     		cbz	r6, .L67
 261:../switch_sdk/core/fal/tiger/fal_tiger_dos.c ****     }
 1305              		.loc 1 261 9 is_stmt 1 view .LVU302
 261:../switch_sdk/core/fal/tiger/fal_tiger_dos.c ****     }
 1306              		.loc 1 261 26 is_stmt 0 view .LVU303
 1307 0080 0122     		movs	r2, #1
 1308 0082 BA40     		lsls	r2, r2, r7
 261:../switch_sdk/core/fal/tiger/fal_tiger_dos.c ****     }
 1309              		.loc 1 261 22 view .LVU304
 1310 0084 1343     		orrs	r3, r3, r2
 1311              	.LVL166:
 1312              	.L68:
 267:../switch_sdk/core/fal/tiger/fal_tiger_dos.c ****     
 1313              		.loc 1 267 5 is_stmt 1 view .LVU305
 1314 0086 03AC     		add	r4, sp, #12
 1315 0088 2246     		mov	r2, r4
 1316 008a 0121     		movs	r1, #1
 1317 008c 2720     		movs	r0, #39
 1318 008e FFF7FEFF 		bl	hal_tbl_reg_field_set
 1319              	.LVL167:
 269:../switch_sdk/core/fal/tiger/fal_tiger_dos.c ****     
 1320              		.loc 1 269 5 view .LVU306
 269:../switch_sdk/core/fal/tiger/fal_tiger_dos.c ****     
 1321              		.loc 1 269 5 view .LVU307
 1322 0092 0094     		str	r4, [sp]
 1323 0094 0423     		movs	r3, #4
 1324 0096 0022     		movs	r2, #0
 1325 0098 2721     		movs	r1, #39
 1326 009a 2846     		mov	r0, r5
 1327 009c FFF7FEFF 		bl	hal_table_reg_write
 1328              	.LVL168:
 1329 00a0 0446     		mov	r4, r0
 1330              	.LVL169:
 269:../switch_sdk/core/fal/tiger/fal_tiger_dos.c ****     
 1331              		.loc 1 269 5 is_stmt 0 view .LVU308
 1332 00a2 10F0FF03 		ands	r3, r0, #255
 1333 00a6 06D1     		bne	.L75
 271:../switch_sdk/core/fal/tiger/fal_tiger_dos.c **** }
 1334              		.loc 1 271 12 view .LVU309
 1335 00a8 0020     		movs	r0, #0
 1336              	.LVL170:
 271:../switch_sdk/core/fal/tiger/fal_tiger_dos.c **** }
 1337              		.loc 1 271 12 view .LVU310
 1338 00aa CDE7     		b	.L62
 1339              	.LVL171:
 1340              	.L67:
 265:../switch_sdk/core/fal/tiger/fal_tiger_dos.c ****     }
 1341              		.loc 1 265 9 is_stmt 1 view .LVU311
 265:../switch_sdk/core/fal/tiger/fal_tiger_dos.c ****     }
 1342              		.loc 1 265 28 is_stmt 0 view .LVU312
 1343 00ac 0122     		movs	r2, #1
 1344 00ae BA40     		lsls	r2, r2, r7
 265:../switch_sdk/core/fal/tiger/fal_tiger_dos.c ****     }
 1345              		.loc 1 265 22 view .LVU313
 1346 00b0 23EA0203 		bic	r3, r3, r2
 1347              	.LVL172:
 265:../switch_sdk/core/fal/tiger/fal_tiger_dos.c ****     }
 1348              		.loc 1 265 22 view .LVU314
 1349 00b4 E7E7     		b	.L68
 1350              	.LVL173:
 1351              	.L75:
 269:../switch_sdk/core/fal/tiger/fal_tiger_dos.c ****     
 1352              		.loc 1 269 5 is_stmt 1 discriminator 1 view .LVU315
 269:../switch_sdk/core/fal/tiger/fal_tiger_dos.c ****     
 1353              		.loc 1 269 5 discriminator 1 view .LVU316
 1354 00b6 0D4A     		ldr	r2, .L77+8
 1355 00b8 1278     		ldrb	r2, [r2]	@ zero_extendqisi2
 1356 00ba 012A     		cmp	r2, #1
 1357 00bc 01D8     		bhi	.L76
 1358              	.LVL174:
 1359              	.L69:
 269:../switch_sdk/core/fal/tiger/fal_tiger_dos.c ****     
 1360              		.loc 1 269 5 discriminator 5 view .LVU317
 269:../switch_sdk/core/fal/tiger/fal_tiger_dos.c ****     
 1361              		.loc 1 269 5 discriminator 5 view .LVU318
 269:../switch_sdk/core/fal/tiger/fal_tiger_dos.c ****     
 1362              		.loc 1 269 5 discriminator 5 view .LVU319
 1363 00be E0B2     		uxtb	r0, r4
 1364 00c0 C2E7     		b	.L62
 1365              	.LVL175:
 1366              	.L76:
 269:../switch_sdk/core/fal/tiger/fal_tiger_dos.c ****     
 1367              		.loc 1 269 5 discriminator 3 view .LVU320
 1368              	.LBB16:
 269:../switch_sdk/core/fal/tiger/fal_tiger_dos.c ****     
 1369              		.loc 1 269 5 discriminator 3 view .LVU321
 1370 00c2 142B     		cmp	r3, #20
 1371 00c4 28BF     		it	cs
 1372 00c6 1423     		movcs	r3, #20
 1373 00c8 1A46     		mov	r2, r3
 1374 00ca 094B     		ldr	r3, .L77+12
 1375 00cc 0093     		str	r3, [sp]
 1376 00ce 0D4B     		ldr	r3, .L77+32
 1377 00d0 0949     		ldr	r1, .L77+20
 1378 00d2 51F82220 		ldr	r2, [r1, r2, lsl #2]
 1379 00d6 0949     		ldr	r1, .L77+24
 1380 00d8 8968     		ldr	r1, [r1, #8]
 1381 00da 0948     		ldr	r0, .L77+28
 1382              	.LVL176:
 269:../switch_sdk/core/fal/tiger/fal_tiger_dos.c ****     
 1383              		.loc 1 269 5 is_stmt 0 discriminator 3 view .LVU322
 1384 00dc FFF7FEFF 		bl	osal_printf
 1385              	.LVL177:
 1386 00e0 EDE7     		b	.L69
 1387              	.L78:
 1388 00e2 00BF     		.align	2
 1389              	.L77:
 1390 00e4 00000000 		.word	gcal_inited
 1391 00e8 00000000 		.word	gpSwitchUnit
 1392 00ec 00000000 		.word	yt_debug_level
 1393 00f0 00000000 		.word	__FUNCTION__.7
 1394 00f4 00000000 		.word	.LC3
 1395 00f8 00000000 		.word	_yt_errmsg
 1396 00fc 00000000 		.word	_yt_prompt_msg
 1397 0100 4C000000 		.word	.LC1
 1398 0104 3C000000 		.word	.LC4
 1399              	.LBE16:
 1400              		.cfi_endproc
 1401              	.LFE6:
 1403              		.section	.text.fal_tiger_dos_port_en_get,"ax",%progbits
 1404              		.align	1
 1405              		.global	fal_tiger_dos_port_en_get
 1406              		.syntax unified
 1407              		.thumb
 1408              		.thumb_func
 1410              	fal_tiger_dos_port_en_get:
 1411              	.LVL178:
 1412              	.LFB7:
 273:../switch_sdk/core/fal/tiger/fal_tiger_dos.c **** 
 274:../switch_sdk/core/fal/tiger/fal_tiger_dos.c **** yt_ret_t fal_tiger_dos_port_en_get(yt_unit_t unit, yt_port_t port, yt_enable_t *pEnable)
 275:../switch_sdk/core/fal/tiger/fal_tiger_dos.c **** {
 1413              		.loc 1 275 1 is_stmt 1 view -0
 1414              		.cfi_startproc
 1415              		@ args = 0, pretend = 0, frame = 8
 1416              		@ frame_needed = 0, uses_anonymous_args = 0
 1417              		.loc 1 275 1 is_stmt 0 view .LVU324
 1418 0000 70B5     		push	{r4, r5, r6, lr}
 1419              		.cfi_def_cfa_offset 16
 1420              		.cfi_offset 4, -16
 1421              		.cfi_offset 5, -12
 1422              		.cfi_offset 6, -8
 1423              		.cfi_offset 14, -4
 1424 0002 84B0     		sub	sp, sp, #16
 1425              		.cfi_def_cfa_offset 32
 1426 0004 1546     		mov	r5, r2
 276:../switch_sdk/core/fal/tiger/fal_tiger_dos.c ****     dos_ctrl_t dos_ctrl;
 1427              		.loc 1 276 5 is_stmt 1 view .LVU325
 277:../switch_sdk/core/fal/tiger/fal_tiger_dos.c ****     yt_macid_t macid;
 1428              		.loc 1 277 5 view .LVU326
 278:../switch_sdk/core/fal/tiger/fal_tiger_dos.c ****     uint32_t port_en_mask;
 1429              		.loc 1 278 5 view .LVU327
 279:../switch_sdk/core/fal/tiger/fal_tiger_dos.c ****     cmm_err_t ret = CMM_ERR_OK;
 1430              		.loc 1 279 5 view .LVU328
 1431              	.LVL179:
 280:../switch_sdk/core/fal/tiger/fal_tiger_dos.c **** 
 281:../switch_sdk/core/fal/tiger/fal_tiger_dos.c ****     macid = CAL_YTP_TO_MAC(unit,port);
 1432              		.loc 1 281 5 view .LVU329
 1433              		.loc 1 281 13 is_stmt 0 view .LVU330
 1434 0006 214B     		ldr	r3, .L88
 1435 0008 1B78     		ldrb	r3, [r3]	@ zero_extendqisi2
 1436 000a 53B1     		cbz	r3, .L84
 1437              		.loc 1 281 13 discriminator 1 view .LVU331
 1438 000c 204B     		ldr	r3, .L88+4
 1439 000e 53F82030 		ldr	r3, [r3, r0, lsl #2]
 1440 0012 1A7D     		ldrb	r2, [r3, #20]	@ zero_extendqisi2
 1441              	.LVL180:
 1442              		.loc 1 281 13 discriminator 1 view .LVU332
 1443 0014 8A42     		cmp	r2, r1
 1444 0016 17D9     		bls	.L85
 1445              		.loc 1 281 13 discriminator 3 view .LVU333
 1446 0018 0631     		adds	r1, r1, #6
 1447              	.LVL181:
 1448              		.loc 1 281 13 discriminator 3 view .LVU334
 1449 001a 53F82130 		ldr	r3, [r3, r1, lsl #2]
 1450 001e 1E78     		ldrb	r6, [r3]	@ zero_extendqisi2
 1451 0020 00E0     		b	.L80
 1452              	.LVL182:
 1453              	.L84:
 1454              		.loc 1 281 13 view .LVU335
 1455 0022 FF26     		movs	r6, #255
 1456              	.LVL183:
 1457              	.L80:
 282:../switch_sdk/core/fal/tiger/fal_tiger_dos.c **** 
 283:../switch_sdk/core/fal/tiger/fal_tiger_dos.c ****     CMM_ERR_CHK(HAL_TBL_REG_READ(unit, DOS_CTRLm, 0, sizeof(dos_ctrl_t), &dos_ctrl), ret);
 1458              		.loc 1 283 5 is_stmt 1 discriminator 6 view .LVU336
 1459              		.loc 1 283 5 discriminator 6 view .LVU337
 1460 0024 03AB     		add	r3, sp, #12
 1461 0026 0093     		str	r3, [sp]
 1462 0028 0423     		movs	r3, #4
 1463 002a 0022     		movs	r2, #0
 1464 002c 2721     		movs	r1, #39
 1465 002e FFF7FEFF 		bl	hal_table_reg_read
 1466              	.LVL184:
 1467              		.loc 1 283 5 is_stmt 0 discriminator 6 view .LVU338
 1468 0032 0446     		mov	r4, r0
 1469              	.LVL185:
 1470              		.loc 1 283 5 discriminator 6 view .LVU339
 1471 0034 10F0FF03 		ands	r3, r0, #255
 1472 0038 18D0     		beq	.L81
 1473              		.loc 1 283 5 is_stmt 1 discriminator 1 view .LVU340
 1474              		.loc 1 283 5 discriminator 1 view .LVU341
 1475 003a 164A     		ldr	r2, .L88+8
 1476 003c 1278     		ldrb	r2, [r2]	@ zero_extendqisi2
 1477 003e 012A     		cmp	r2, #1
 1478 0040 04D8     		bhi	.L87
 1479              	.LVL186:
 1480              	.L82:
 1481              		.loc 1 283 5 discriminator 5 view .LVU342
 1482              		.loc 1 283 5 discriminator 5 view .LVU343
 1483              		.loc 1 283 5 discriminator 5 view .LVU344
 1484 0042 E0B2     		uxtb	r0, r4
 1485              	.L79:
 284:../switch_sdk/core/fal/tiger/fal_tiger_dos.c ****     
 285:../switch_sdk/core/fal/tiger/fal_tiger_dos.c ****     HAL_FIELD_GET(DOS_CTRLm, DOS_CTRL_PORT_EN_MASKf, &dos_ctrl, &port_en_mask);
 286:../switch_sdk/core/fal/tiger/fal_tiger_dos.c ****     *pEnable = (port_en_mask & (1<<macid)) ? YT_ENABLE : YT_DISABLE;
 287:../switch_sdk/core/fal/tiger/fal_tiger_dos.c ****     
 288:../switch_sdk/core/fal/tiger/fal_tiger_dos.c ****     return CMM_ERR_OK;
 289:../switch_sdk/core/fal/tiger/fal_tiger_dos.c **** }
 1486              		.loc 1 289 1 is_stmt 0 view .LVU345
 1487 0044 04B0     		add	sp, sp, #16
 1488              		.cfi_remember_state
 1489              		.cfi_def_cfa_offset 16
 1490              		@ sp needed
 1491 0046 70BD     		pop	{r4, r5, r6, pc}
 1492              	.LVL187:
 1493              	.L85:
 1494              		.cfi_restore_state
 281:../switch_sdk/core/fal/tiger/fal_tiger_dos.c **** 
 1495              		.loc 1 281 13 view .LVU346
 1496 0048 FF26     		movs	r6, #255
 1497 004a EBE7     		b	.L80
 1498              	.LVL188:
 1499              	.L87:
 283:../switch_sdk/core/fal/tiger/fal_tiger_dos.c ****     
 1500              		.loc 1 283 5 is_stmt 1 discriminator 3 view .LVU347
 1501              	.LBB17:
 283:../switch_sdk/core/fal/tiger/fal_tiger_dos.c ****     
 1502              		.loc 1 283 5 discriminator 3 view .LVU348
 1503 004c 142B     		cmp	r3, #20
 1504 004e 28BF     		it	cs
 1505 0050 1423     		movcs	r3, #20
 1506 0052 1A46     		mov	r2, r3
 1507 0054 104B     		ldr	r3, .L88+12
 1508 0056 0093     		str	r3, [sp]
 1509 0058 104B     		ldr	r3, .L88+16
 1510 005a 1149     		ldr	r1, .L88+20
 1511 005c 51F82220 		ldr	r2, [r1, r2, lsl #2]
 1512 0060 1049     		ldr	r1, .L88+24
 1513 0062 8968     		ldr	r1, [r1, #8]
 1514 0064 1048     		ldr	r0, .L88+28
 1515              	.LVL189:
 283:../switch_sdk/core/fal/tiger/fal_tiger_dos.c ****     
 1516              		.loc 1 283 5 is_stmt 0 discriminator 3 view .LVU349
 1517 0066 FFF7FEFF 		bl	osal_printf
 1518              	.LVL190:
 1519 006a EAE7     		b	.L82
 1520              	.LVL191:
 1521              	.L81:
 283:../switch_sdk/core/fal/tiger/fal_tiger_dos.c ****     
 1522              		.loc 1 283 5 discriminator 3 view .LVU350
 1523              	.LBE17:
 283:../switch_sdk/core/fal/tiger/fal_tiger_dos.c ****     
 1524              		.loc 1 283 5 is_stmt 1 discriminator 2 view .LVU351
 285:../switch_sdk/core/fal/tiger/fal_tiger_dos.c ****     *pEnable = (port_en_mask & (1<<macid)) ? YT_ENABLE : YT_DISABLE;
 1525              		.loc 1 285 5 discriminator 2 view .LVU352
 1526              	.LBB18:
 285:../switch_sdk/core/fal/tiger/fal_tiger_dos.c ****     *pEnable = (port_en_mask & (1<<macid)) ? YT_ENABLE : YT_DISABLE;
 1527              		.loc 1 285 5 discriminator 2 view .LVU353
 285:../switch_sdk/core/fal/tiger/fal_tiger_dos.c ****     *pEnable = (port_en_mask & (1<<macid)) ? YT_ENABLE : YT_DISABLE;
 1528              		.loc 1 285 5 discriminator 2 view .LVU354
 1529 006c 02AB     		add	r3, sp, #8
 1530 006e 03AA     		add	r2, sp, #12
 1531 0070 0121     		movs	r1, #1
 1532 0072 2720     		movs	r0, #39
 1533              	.LVL192:
 285:../switch_sdk/core/fal/tiger/fal_tiger_dos.c ****     *pEnable = (port_en_mask & (1<<macid)) ? YT_ENABLE : YT_DISABLE;
 1534              		.loc 1 285 5 is_stmt 0 discriminator 2 view .LVU355
 1535 0074 FFF7FEFF 		bl	hal_tbl_reg_field_get
 1536              	.LVL193:
 285:../switch_sdk/core/fal/tiger/fal_tiger_dos.c ****     *pEnable = (port_en_mask & (1<<macid)) ? YT_ENABLE : YT_DISABLE;
 1537              		.loc 1 285 5 is_stmt 1 discriminator 2 view .LVU356
 285:../switch_sdk/core/fal/tiger/fal_tiger_dos.c ****     *pEnable = (port_en_mask & (1<<macid)) ? YT_ENABLE : YT_DISABLE;
 1538              		.loc 1 285 5 is_stmt 0 discriminator 2 view .LVU357
 1539              	.LBE18:
 285:../switch_sdk/core/fal/tiger/fal_tiger_dos.c ****     *pEnable = (port_en_mask & (1<<macid)) ? YT_ENABLE : YT_DISABLE;
 1540              		.loc 1 285 5 is_stmt 1 discriminator 2 view .LVU358
 286:../switch_sdk/core/fal/tiger/fal_tiger_dos.c ****     
 1541              		.loc 1 286 5 discriminator 2 view .LVU359
 286:../switch_sdk/core/fal/tiger/fal_tiger_dos.c ****     
 1542              		.loc 1 286 34 is_stmt 0 discriminator 2 view .LVU360
 1543 0078 0123     		movs	r3, #1
 1544 007a B340     		lsls	r3, r3, r6
 286:../switch_sdk/core/fal/tiger/fal_tiger_dos.c ****     
 1545              		.loc 1 286 56 discriminator 2 view .LVU361
 1546 007c 029A     		ldr	r2, [sp, #8]
 1547 007e 1A42     		tst	r2, r3
 1548 0080 14BF     		ite	ne
 1549 0082 0123     		movne	r3, #1
 1550 0084 0023     		moveq	r3, #0
 286:../switch_sdk/core/fal/tiger/fal_tiger_dos.c ****     
 1551              		.loc 1 286 14 discriminator 2 view .LVU362
 1552 0086 2B70     		strb	r3, [r5]
 1553              	.LVL194:
 288:../switch_sdk/core/fal/tiger/fal_tiger_dos.c **** }
 1554              		.loc 1 288 5 is_stmt 1 discriminator 2 view .LVU363
 288:../switch_sdk/core/fal/tiger/fal_tiger_dos.c **** }
 1555              		.loc 1 288 12 is_stmt 0 discriminator 2 view .LVU364
 1556 0088 0020     		movs	r0, #0
 1557 008a DBE7     		b	.L79
 1558              	.L89:
 1559              		.align	2
 1560              	.L88:
 1561 008c 00000000 		.word	gcal_inited
 1562 0090 00000000 		.word	gpSwitchUnit
 1563 0094 00000000 		.word	yt_debug_level
 1564 0098 00000000 		.word	__FUNCTION__.6
 1565 009c 00000000 		.word	.LC3
 1566 00a0 00000000 		.word	_yt_errmsg
 1567 00a4 00000000 		.word	_yt_prompt_msg
 1568 00a8 4C000000 		.word	.LC1
 1569              		.cfi_endproc
 1570              	.LFE7:
 1572              		.section	.rodata.fal_tiger_dos_drop_en_set.str1.4,"aMS",%progbits,1
 1573              		.align	2
 1574              	.LC5:
 1575 0000 68616C5F 		.ascii	"hal_table_reg_read(unit,43,0,sizeof(dos_ctrl1_t),&d"
 1575      7461626C 
 1575      655F7265 
 1575      675F7265 
 1575      61642875 
 1576 0033 6F735F63 		.ascii	"os_ctrl1)\000"
 1576      74726C31 
 1576      2900
 1577 003d 000000   		.align	2
 1578              	.LC6:
 1579 0040 68616C5F 		.ascii	"hal_table_reg_write(unit,43,0,sizeof(dos_ctrl1_t),&"
 1579      7461626C 
 1579      655F7265 
 1579      675F7772 
 1579      69746528 
 1580 0073 646F735F 		.ascii	"dos_ctrl1)\000"
 1580      6374726C 
 1580      312900
 1581              		.section	.text.fal_tiger_dos_drop_en_set,"ax",%progbits
 1582              		.align	1
 1583              		.global	fal_tiger_dos_drop_en_set
 1584              		.syntax unified
 1585              		.thumb
 1586              		.thumb_func
 1588              	fal_tiger_dos_drop_en_set:
 1589              	.LVL195:
 1590              	.LFB8:
 290:../switch_sdk/core/fal/tiger/fal_tiger_dos.c **** 
 291:../switch_sdk/core/fal/tiger/fal_tiger_dos.c **** 
 292:../switch_sdk/core/fal/tiger/fal_tiger_dos.c **** yt_ret_t fal_tiger_dos_drop_en_set(yt_unit_t unit, yt_dos_type_t type, yt_enable_t enable)
 293:../switch_sdk/core/fal/tiger/fal_tiger_dos.c **** {
 1591              		.loc 1 293 1 is_stmt 1 view -0
 1592              		.cfi_startproc
 1593              		@ args = 0, pretend = 0, frame = 8
 1594              		@ frame_needed = 0, uses_anonymous_args = 0
 1595              		.loc 1 293 1 is_stmt 0 view .LVU366
 1596 0000 2DE9F041 		push	{r4, r5, r6, r7, r8, lr}
 1597              		.cfi_def_cfa_offset 24
 1598              		.cfi_offset 4, -24
 1599              		.cfi_offset 5, -20
 1600              		.cfi_offset 6, -16
 1601              		.cfi_offset 7, -12
 1602              		.cfi_offset 8, -8
 1603              		.cfi_offset 14, -4
 1604 0004 84B0     		sub	sp, sp, #16
 1605              		.cfi_def_cfa_offset 40
 1606 0006 0646     		mov	r6, r0
 1607 0008 0F46     		mov	r7, r1
 1608 000a 9046     		mov	r8, r2
 294:../switch_sdk/core/fal/tiger/fal_tiger_dos.c ****     dos_ctrl_t dos_ctrl;
 1609              		.loc 1 294 5 is_stmt 1 view .LVU367
 295:../switch_sdk/core/fal/tiger/fal_tiger_dos.c ****     dos_ctrl1_t dos_ctrl1;
 1610              		.loc 1 295 5 view .LVU368
 296:../switch_sdk/core/fal/tiger/fal_tiger_dos.c ****     uint16_t regid = 0;
 1611              		.loc 1 296 5 view .LVU369
 1612              	.LVL196:
 297:../switch_sdk/core/fal/tiger/fal_tiger_dos.c ****     cmm_err_t ret = CMM_ERR_OK;
 1613              		.loc 1 297 5 view .LVU370
 298:../switch_sdk/core/fal/tiger/fal_tiger_dos.c **** 
 299:../switch_sdk/core/fal/tiger/fal_tiger_dos.c ****     CMM_ERR_CHK(HAL_TBL_REG_READ(unit, DOS_CTRLm, 0, sizeof(dos_ctrl_t), &dos_ctrl), ret);
 1614              		.loc 1 299 5 view .LVU371
 1615              		.loc 1 299 5 view .LVU372
 1616 000c 03A9     		add	r1, sp, #12
 1617              	.LVL197:
 1618              		.loc 1 299 5 is_stmt 0 view .LVU373
 1619 000e 0091     		str	r1, [sp]
 1620 0010 0423     		movs	r3, #4
 1621 0012 0022     		movs	r2, #0
 1622              	.LVL198:
 1623              		.loc 1 299 5 view .LVU374
 1624 0014 2721     		movs	r1, #39
 1625 0016 FFF7FEFF 		bl	hal_table_reg_read
 1626              	.LVL199:
 1627              		.loc 1 299 5 view .LVU375
 1628 001a 10F0FF03 		ands	r3, r0, #255
 1629 001e 18D0     		beq	.L91
 1630 0020 0446     		mov	r4, r0
 1631              		.loc 1 299 5 is_stmt 1 discriminator 1 view .LVU376
 1632              		.loc 1 299 5 discriminator 1 view .LVU377
 1633 0022 8A4A     		ldr	r2, .L131
 1634 0024 1278     		ldrb	r2, [r2]	@ zero_extendqisi2
 1635 0026 012A     		cmp	r2, #1
 1636 0028 03D8     		bhi	.L123
 1637              	.LVL200:
 1638              	.L92:
 1639              		.loc 1 299 5 discriminator 5 view .LVU378
 1640              		.loc 1 299 5 discriminator 5 view .LVU379
 1641              		.loc 1 299 5 discriminator 5 view .LVU380
 1642 002a E0B2     		uxtb	r0, r4
 1643              	.LVL201:
 1644              	.L90:
 300:../switch_sdk/core/fal/tiger/fal_tiger_dos.c ****     CMM_ERR_CHK(HAL_TBL_REG_READ(unit, DOS_CTRL1m, 0, sizeof(dos_ctrl1_t), &dos_ctrl1), ret);
 301:../switch_sdk/core/fal/tiger/fal_tiger_dos.c **** 
 302:../switch_sdk/core/fal/tiger/fal_tiger_dos.c ****     regid = DOS_CTRLm;
 303:../switch_sdk/core/fal/tiger/fal_tiger_dos.c ****     switch (type)
 304:../switch_sdk/core/fal/tiger/fal_tiger_dos.c ****     {
 305:../switch_sdk/core/fal/tiger/fal_tiger_dos.c ****         case DOS_TYPE_DAEQSA:
 306:../switch_sdk/core/fal/tiger/fal_tiger_dos.c ****             HAL_FIELD_SET(DOS_CTRLm, DOS_CTRL_MACSA_EQ_MACDA_DROPf, &dos_ctrl, enable);
 307:../switch_sdk/core/fal/tiger/fal_tiger_dos.c ****             break;
 308:../switch_sdk/core/fal/tiger/fal_tiger_dos.c ****         case DOS_TYPE_LAND:
 309:../switch_sdk/core/fal/tiger/fal_tiger_dos.c ****             HAL_FIELD_SET(DOS_CTRLm, DOS_CTRL_SIP_EQ_DIP_DROPf, &dos_ctrl, enable);
 310:../switch_sdk/core/fal/tiger/fal_tiger_dos.c ****             break;
 311:../switch_sdk/core/fal/tiger/fal_tiger_dos.c ****         case DOS_TYPE_ICMP_PRAG:
 312:../switch_sdk/core/fal/tiger/fal_tiger_dos.c ****             HAL_FIELD_SET(DOS_CTRLm, DOS_CTRL_ICMP_PRAG_DROPf, &dos_ctrl, enable);
 313:../switch_sdk/core/fal/tiger/fal_tiger_dos.c ****             break;
 314:../switch_sdk/core/fal/tiger/fal_tiger_dos.c ****         case DOS_TYPE_TCP_FRAG_OFFSET:
 315:../switch_sdk/core/fal/tiger/fal_tiger_dos.c ****             HAL_FIELD_SET(DOS_CTRLm, DOS_CTRL_TCP_FRAG_OFFSET1_DROPf, &dos_ctrl, enable);
 316:../switch_sdk/core/fal/tiger/fal_tiger_dos.c ****             break;
 317:../switch_sdk/core/fal/tiger/fal_tiger_dos.c ****         case DOS_TYPE_LARGE_ICMPV4:
 318:../switch_sdk/core/fal/tiger/fal_tiger_dos.c ****             HAL_FIELD_SET(DOS_CTRLm, DOS_CTRL_LARGE_IPV4_ICMP_DROPf, &dos_ctrl, enable);
 319:../switch_sdk/core/fal/tiger/fal_tiger_dos.c ****             break;
 320:../switch_sdk/core/fal/tiger/fal_tiger_dos.c ****         case DOS_TYPE_LARGE_ICMPV6:
 321:../switch_sdk/core/fal/tiger/fal_tiger_dos.c ****             HAL_FIELD_SET(DOS_CTRLm, DOS_CTRL_LARGE_IPV6_ICMP_DROPf, &dos_ctrl, enable);
 322:../switch_sdk/core/fal/tiger/fal_tiger_dos.c ****             break;
 323:../switch_sdk/core/fal/tiger/fal_tiger_dos.c ****         case DOS_TYPE_TCP_HEADER_PARTIAL:
 324:../switch_sdk/core/fal/tiger/fal_tiger_dos.c ****             HAL_FIELD_SET(DOS_CTRLm, DOS_CTRL_TCP_HEADER_PARTIAL_DROPf, &dos_ctrl, enable);
 325:../switch_sdk/core/fal/tiger/fal_tiger_dos.c ****             break;
 326:../switch_sdk/core/fal/tiger/fal_tiger_dos.c ****         case DOS_TYPE_CFI_MISMATCH_DROP:
 327:../switch_sdk/core/fal/tiger/fal_tiger_dos.c ****             HAL_FIELD_SET(DOS_CTRLm, DOS_CTRL_VLAN_CFI1DROP_ENf, &dos_ctrl, enable);
 328:../switch_sdk/core/fal/tiger/fal_tiger_dos.c ****             break;
 329:../switch_sdk/core/fal/tiger/fal_tiger_dos.c ****         case DOS_TYPE_UDP_SPORT_EQ_DPORT:
 330:../switch_sdk/core/fal/tiger/fal_tiger_dos.c ****             if (CAL_SWCHIP_MODEL(unit) == YT_SW_MODEL_9218)
 331:../switch_sdk/core/fal/tiger/fal_tiger_dos.c ****             {
 332:../switch_sdk/core/fal/tiger/fal_tiger_dos.c ****                 HAL_FIELD_SET(DOS_CTRLm, DOS_CTRL_UDP_SPORT_EQ_DPORT_DROPf, &dos_ctrl, enable);
 333:../switch_sdk/core/fal/tiger/fal_tiger_dos.c ****                 regid = DOS_CTRLm;
 334:../switch_sdk/core/fal/tiger/fal_tiger_dos.c ****             }
 335:../switch_sdk/core/fal/tiger/fal_tiger_dos.c ****             else if (CAL_SWCHIP_MODEL(unit) == YT_SW_MODEL_9215)
 336:../switch_sdk/core/fal/tiger/fal_tiger_dos.c ****             {
 337:../switch_sdk/core/fal/tiger/fal_tiger_dos.c ****                 regid = 0;
 338:../switch_sdk/core/fal/tiger/fal_tiger_dos.c ****                 ret = CMM_ERR_NOT_SUPPORT;
 339:../switch_sdk/core/fal/tiger/fal_tiger_dos.c ****             }
 340:../switch_sdk/core/fal/tiger/fal_tiger_dos.c ****             break;
 341:../switch_sdk/core/fal/tiger/fal_tiger_dos.c ****         case DOS_TYPE_TCP_SPORT_EQ_DPORT:
 342:../switch_sdk/core/fal/tiger/fal_tiger_dos.c ****             if (CAL_SWCHIP_MODEL(unit) == YT_SW_MODEL_9218)
 343:../switch_sdk/core/fal/tiger/fal_tiger_dos.c ****             {
 344:../switch_sdk/core/fal/tiger/fal_tiger_dos.c ****                 HAL_FIELD_SET(DOS_CTRLm, DOS_CTRL_TCP_SPORT_EQ_DPORT_DROPf, &dos_ctrl, enable);
 345:../switch_sdk/core/fal/tiger/fal_tiger_dos.c ****                 regid = DOS_CTRLm;
 346:../switch_sdk/core/fal/tiger/fal_tiger_dos.c ****             }
 347:../switch_sdk/core/fal/tiger/fal_tiger_dos.c ****             else if (CAL_SWCHIP_MODEL(unit) == YT_SW_MODEL_9215)
 348:../switch_sdk/core/fal/tiger/fal_tiger_dos.c ****             {
 349:../switch_sdk/core/fal/tiger/fal_tiger_dos.c ****                 regid = 0;
 350:../switch_sdk/core/fal/tiger/fal_tiger_dos.c ****                 ret = CMM_ERR_NOT_SUPPORT;
 351:../switch_sdk/core/fal/tiger/fal_tiger_dos.c ****             }
 352:../switch_sdk/core/fal/tiger/fal_tiger_dos.c ****             break;
 353:../switch_sdk/core/fal/tiger/fal_tiger_dos.c ****         case DOS_TYPE_SA_MC_DROP:
 354:../switch_sdk/core/fal/tiger/fal_tiger_dos.c ****             HAL_FIELD_SET(DOS_CTRL1m, DOS_CTRL1_SA_MC_DROP_ENf, &dos_ctrl1, enable);
 355:../switch_sdk/core/fal/tiger/fal_tiger_dos.c ****             regid = DOS_CTRL1m;
 356:../switch_sdk/core/fal/tiger/fal_tiger_dos.c ****             break;
 357:../switch_sdk/core/fal/tiger/fal_tiger_dos.c ****         case DOS_TYPE_SA_BC_DROP:
 358:../switch_sdk/core/fal/tiger/fal_tiger_dos.c ****             HAL_FIELD_SET(DOS_CTRL1m, DOS_CTRL1_SA_BC_DROP_ENf, &dos_ctrl1, enable);
 359:../switch_sdk/core/fal/tiger/fal_tiger_dos.c ****             regid = DOS_CTRL1m;
 360:../switch_sdk/core/fal/tiger/fal_tiger_dos.c ****             break;
 361:../switch_sdk/core/fal/tiger/fal_tiger_dos.c ****         case DOS_TYPE_SA_ZERO_DROP:
 362:../switch_sdk/core/fal/tiger/fal_tiger_dos.c ****             HAL_FIELD_SET(DOS_CTRL1m, DOS_CTRL1_SA_ZERO_DROP_ENf, &dos_ctrl1, enable);
 363:../switch_sdk/core/fal/tiger/fal_tiger_dos.c ****             regid = DOS_CTRL1m;
 364:../switch_sdk/core/fal/tiger/fal_tiger_dos.c ****             break;
 365:../switch_sdk/core/fal/tiger/fal_tiger_dos.c ****         case DOS_TYPE_DA_ZERO_DROP:
 366:../switch_sdk/core/fal/tiger/fal_tiger_dos.c ****             HAL_FIELD_SET(DOS_CTRL1m, DOS_CTRL1_DA_ZERO_DROP_ENf, &dos_ctrl1, enable);
 367:../switch_sdk/core/fal/tiger/fal_tiger_dos.c ****             regid = DOS_CTRL1m;
 368:../switch_sdk/core/fal/tiger/fal_tiger_dos.c ****             break;
 369:../switch_sdk/core/fal/tiger/fal_tiger_dos.c ****         case DOS_TYPE_TCP_SYNRST_SCAN:
 370:../switch_sdk/core/fal/tiger/fal_tiger_dos.c ****         case DOS_TYPE_TCP_SYNFIN_SCAN:
 371:../switch_sdk/core/fal/tiger/fal_tiger_dos.c ****         case DOS_TYPE_TCP_XMAS_SCAN:
 372:../switch_sdk/core/fal/tiger/fal_tiger_dos.c ****         case DOS_TYPE_TCP_NULL_SCAN:
 373:../switch_sdk/core/fal/tiger/fal_tiger_dos.c ****         case DOS_TYPE_TCP_SYN_PORTLESS1024:
 374:../switch_sdk/core/fal/tiger/fal_tiger_dos.c ****         case DOS_TYPE_TCP_ALLFLAGS_SCAN:
 375:../switch_sdk/core/fal/tiger/fal_tiger_dos.c ****             return fal_tiger_dos_tcp_flagsn_set(unit, type, enable);
 376:../switch_sdk/core/fal/tiger/fal_tiger_dos.c **** 
 377:../switch_sdk/core/fal/tiger/fal_tiger_dos.c ****         default:
 378:../switch_sdk/core/fal/tiger/fal_tiger_dos.c ****             regid = 0;
 379:../switch_sdk/core/fal/tiger/fal_tiger_dos.c ****             ret = CMM_ERR_NOT_SUPPORT;
 380:../switch_sdk/core/fal/tiger/fal_tiger_dos.c ****                 break;
 381:../switch_sdk/core/fal/tiger/fal_tiger_dos.c ****     }
 382:../switch_sdk/core/fal/tiger/fal_tiger_dos.c **** 
 383:../switch_sdk/core/fal/tiger/fal_tiger_dos.c ****     if(regid == DOS_CTRLm)
 384:../switch_sdk/core/fal/tiger/fal_tiger_dos.c ****     {
 385:../switch_sdk/core/fal/tiger/fal_tiger_dos.c ****         CMM_ERR_CHK(HAL_TBL_REG_WRITE(unit, DOS_CTRLm, 0, sizeof(dos_ctrl_t), &dos_ctrl), ret);
 386:../switch_sdk/core/fal/tiger/fal_tiger_dos.c ****     }
 387:../switch_sdk/core/fal/tiger/fal_tiger_dos.c ****     else if(regid == DOS_CTRL1m)
 388:../switch_sdk/core/fal/tiger/fal_tiger_dos.c ****     {
 389:../switch_sdk/core/fal/tiger/fal_tiger_dos.c ****         CMM_ERR_CHK(HAL_TBL_REG_WRITE(unit, DOS_CTRL1m, 0, sizeof(dos_ctrl1_t), &dos_ctrl1), ret);
 390:../switch_sdk/core/fal/tiger/fal_tiger_dos.c ****     }
 391:../switch_sdk/core/fal/tiger/fal_tiger_dos.c **** 
 392:../switch_sdk/core/fal/tiger/fal_tiger_dos.c ****     return ret;
 393:../switch_sdk/core/fal/tiger/fal_tiger_dos.c **** }
 1645              		.loc 1 393 1 is_stmt 0 view .LVU381
 1646 002c 04B0     		add	sp, sp, #16
 1647              		.cfi_remember_state
 1648              		.cfi_def_cfa_offset 24
 1649              		@ sp needed
 1650 002e BDE8F081 		pop	{r4, r5, r6, r7, r8, pc}
 1651              	.LVL202:
 1652              	.L123:
 1653              		.cfi_restore_state
 299:../switch_sdk/core/fal/tiger/fal_tiger_dos.c ****     CMM_ERR_CHK(HAL_TBL_REG_READ(unit, DOS_CTRL1m, 0, sizeof(dos_ctrl1_t), &dos_ctrl1), ret);
 1654              		.loc 1 299 5 is_stmt 1 discriminator 3 view .LVU382
 1655              	.LBB19:
 299:../switch_sdk/core/fal/tiger/fal_tiger_dos.c ****     CMM_ERR_CHK(HAL_TBL_REG_READ(unit, DOS_CTRL1m, 0, sizeof(dos_ctrl1_t), &dos_ctrl1), ret);
 1656              		.loc 1 299 5 discriminator 3 view .LVU383
 1657 0032 142B     		cmp	r3, #20
 1658 0034 28BF     		it	cs
 1659 0036 1423     		movcs	r3, #20
 1660 0038 1A46     		mov	r2, r3
 1661 003a 854B     		ldr	r3, .L131+4
 1662 003c 0093     		str	r3, [sp]
 1663 003e 854B     		ldr	r3, .L131+8
 1664 0040 8549     		ldr	r1, .L131+12
 1665 0042 51F82220 		ldr	r2, [r1, r2, lsl #2]
 1666 0046 8549     		ldr	r1, .L131+16
 1667 0048 8968     		ldr	r1, [r1, #8]
 1668 004a 8548     		ldr	r0, .L131+20
 1669              	.LVL203:
 299:../switch_sdk/core/fal/tiger/fal_tiger_dos.c ****     CMM_ERR_CHK(HAL_TBL_REG_READ(unit, DOS_CTRL1m, 0, sizeof(dos_ctrl1_t), &dos_ctrl1), ret);
 1670              		.loc 1 299 5 is_stmt 0 discriminator 3 view .LVU384
 1671 004c FFF7FEFF 		bl	osal_printf
 1672              	.LVL204:
 1673 0050 EBE7     		b	.L92
 1674              	.LVL205:
 1675              	.L91:
 299:../switch_sdk/core/fal/tiger/fal_tiger_dos.c ****     CMM_ERR_CHK(HAL_TBL_REG_READ(unit, DOS_CTRL1m, 0, sizeof(dos_ctrl1_t), &dos_ctrl1), ret);
 1676              		.loc 1 299 5 discriminator 3 view .LVU385
 1677              	.LBE19:
 299:../switch_sdk/core/fal/tiger/fal_tiger_dos.c ****     CMM_ERR_CHK(HAL_TBL_REG_READ(unit, DOS_CTRL1m, 0, sizeof(dos_ctrl1_t), &dos_ctrl1), ret);
 1678              		.loc 1 299 5 is_stmt 1 discriminator 2 view .LVU386
 300:../switch_sdk/core/fal/tiger/fal_tiger_dos.c ****     CMM_ERR_CHK(HAL_TBL_REG_READ(unit, DOS_CTRL1m, 0, sizeof(dos_ctrl1_t), &dos_ctrl1), ret);
 1679              		.loc 1 300 5 discriminator 2 view .LVU387
 300:../switch_sdk/core/fal/tiger/fal_tiger_dos.c ****     CMM_ERR_CHK(HAL_TBL_REG_READ(unit, DOS_CTRL1m, 0, sizeof(dos_ctrl1_t), &dos_ctrl1), ret);
 1680              		.loc 1 300 5 discriminator 2 view .LVU388
 1681 0052 02AB     		add	r3, sp, #8
 1682 0054 0093     		str	r3, [sp]
 1683 0056 0423     		movs	r3, #4
 1684 0058 0022     		movs	r2, #0
 1685 005a 2B21     		movs	r1, #43
 1686 005c 3046     		mov	r0, r6
 1687              	.LVL206:
 300:../switch_sdk/core/fal/tiger/fal_tiger_dos.c ****     CMM_ERR_CHK(HAL_TBL_REG_READ(unit, DOS_CTRL1m, 0, sizeof(dos_ctrl1_t), &dos_ctrl1), ret);
 1688              		.loc 1 300 5 is_stmt 0 discriminator 2 view .LVU389
 1689 005e FFF7FEFF 		bl	hal_table_reg_read
 1690              	.LVL207:
 1691 0062 0546     		mov	r5, r0
 1692              	.LVL208:
 300:../switch_sdk/core/fal/tiger/fal_tiger_dos.c ****     CMM_ERR_CHK(HAL_TBL_REG_READ(unit, DOS_CTRL1m, 0, sizeof(dos_ctrl1_t), &dos_ctrl1), ret);
 1693              		.loc 1 300 5 discriminator 2 view .LVU390
 1694 0064 10F0FF04 		ands	r4, r0, #255
 1695 0068 0ED1     		bne	.L124
 300:../switch_sdk/core/fal/tiger/fal_tiger_dos.c ****     CMM_ERR_CHK(HAL_TBL_REG_READ(unit, DOS_CTRL1m, 0, sizeof(dos_ctrl1_t), &dos_ctrl1), ret);
 1696              		.loc 1 300 5 is_stmt 1 view .LVU391
 302:../switch_sdk/core/fal/tiger/fal_tiger_dos.c ****     switch (type)
 1697              		.loc 1 302 5 view .LVU392
 1698              	.LVL209:
 303:../switch_sdk/core/fal/tiger/fal_tiger_dos.c ****     {
 1699              		.loc 1 303 5 view .LVU393
 1700 006a 132F     		cmp	r7, #19
 1701 006c 00F2DB80 		bhi	.L119
 1702 0070 DFE807F0 		tbb	[pc, r7]
 1703              	.L98:
 1704 0074 20       		.byte	(.L112-.L98)/2
 1705 0075 35       		.byte	(.L111-.L98)/2
 1706 0076 3C       		.byte	(.L110-.L98)/2
 1707 0077 43       		.byte	(.L109-.L98)/2
 1708 0078 4A       		.byte	(.L108-.L98)/2
 1709 0079 51       		.byte	(.L107-.L98)/2
 1710 007a 58       		.byte	(.L106-.L98)/2
 1711 007b 5F       		.byte	(.L105-.L98)/2
 1712 007c 8A       		.byte	(.L104-.L98)/2
 1713 007d A5       		.byte	(.L103-.L98)/2
 1714 007e AD       		.byte	(.L102-.L98)/2
 1715 007f B5       		.byte	(.L101-.L98)/2
 1716 0080 BD       		.byte	(.L100-.L98)/2
 1717 0081 BD       		.byte	(.L100-.L98)/2
 1718 0082 BD       		.byte	(.L100-.L98)/2
 1719 0083 BD       		.byte	(.L100-.L98)/2
 1720 0084 BD       		.byte	(.L100-.L98)/2
 1721 0085 BD       		.byte	(.L100-.L98)/2
 1722 0086 66       		.byte	(.L99-.L98)/2
 1723 0087 78       		.byte	(.L97-.L98)/2
 1724              	.LVL210:
 1725              		.p2align 1
 1726              	.L124:
 300:../switch_sdk/core/fal/tiger/fal_tiger_dos.c **** 
 1727              		.loc 1 300 5 discriminator 1 view .LVU394
 300:../switch_sdk/core/fal/tiger/fal_tiger_dos.c **** 
 1728              		.loc 1 300 5 discriminator 1 view .LVU395
 1729 0088 704B     		ldr	r3, .L131
 1730 008a 1B78     		ldrb	r3, [r3]	@ zero_extendqisi2
 1731 008c 012B     		cmp	r3, #1
 1732 008e 01D8     		bhi	.L125
 1733              	.LVL211:
 1734              	.L95:
 300:../switch_sdk/core/fal/tiger/fal_tiger_dos.c **** 
 1735              		.loc 1 300 5 discriminator 5 view .LVU396
 300:../switch_sdk/core/fal/tiger/fal_tiger_dos.c **** 
 1736              		.loc 1 300 5 discriminator 5 view .LVU397
 300:../switch_sdk/core/fal/tiger/fal_tiger_dos.c **** 
 1737              		.loc 1 300 5 discriminator 5 view .LVU398
 1738 0090 E8B2     		uxtb	r0, r5
 1739 0092 CBE7     		b	.L90
 1740              	.LVL212:
 1741              	.L125:
 300:../switch_sdk/core/fal/tiger/fal_tiger_dos.c **** 
 1742              		.loc 1 300 5 discriminator 3 view .LVU399
 1743              	.LBB20:
 300:../switch_sdk/core/fal/tiger/fal_tiger_dos.c **** 
 1744              		.loc 1 300 5 discriminator 3 view .LVU400
 1745 0094 2046     		mov	r0, r4
 1746              	.LVL213:
 300:../switch_sdk/core/fal/tiger/fal_tiger_dos.c **** 
 1747              		.loc 1 300 5 is_stmt 0 discriminator 3 view .LVU401
 1748 0096 142C     		cmp	r4, #20
 1749 0098 28BF     		it	cs
 1750 009a 1420     		movcs	r0, #20
 1751 009c 6C4B     		ldr	r3, .L131+4
 1752 009e 0093     		str	r3, [sp]
 1753 00a0 704B     		ldr	r3, .L131+24
 1754 00a2 6D4A     		ldr	r2, .L131+12
 1755 00a4 52F82020 		ldr	r2, [r2, r0, lsl #2]
 1756 00a8 6C49     		ldr	r1, .L131+16
 1757 00aa 8968     		ldr	r1, [r1, #8]
 1758 00ac 6C48     		ldr	r0, .L131+20
 1759 00ae FFF7FEFF 		bl	osal_printf
 1760              	.LVL214:
 1761 00b2 EDE7     		b	.L95
 1762              	.LVL215:
 1763              	.L112:
 300:../switch_sdk/core/fal/tiger/fal_tiger_dos.c **** 
 1764              		.loc 1 300 5 discriminator 3 view .LVU402
 1765              	.LBE20:
 306:../switch_sdk/core/fal/tiger/fal_tiger_dos.c ****             break;
 1766              		.loc 1 306 13 is_stmt 1 view .LVU403
 1767 00b4 4346     		mov	r3, r8
 1768 00b6 03AA     		add	r2, sp, #12
 1769 00b8 1321     		movs	r1, #19
 1770 00ba 2720     		movs	r0, #39
 1771              	.LVL216:
 306:../switch_sdk/core/fal/tiger/fal_tiger_dos.c ****             break;
 1772              		.loc 1 306 13 is_stmt 0 view .LVU404
 1773 00bc FFF7FEFF 		bl	hal_tbl_reg_field_set
 1774              	.LVL217:
 307:../switch_sdk/core/fal/tiger/fal_tiger_dos.c ****         case DOS_TYPE_LAND:
 1775              		.loc 1 307 13 is_stmt 1 view .LVU405
 383:../switch_sdk/core/fal/tiger/fal_tiger_dos.c ****     {
 1776              		.loc 1 383 5 view .LVU406
 1777              	.L113:
 385:../switch_sdk/core/fal/tiger/fal_tiger_dos.c ****     }
 1778              		.loc 1 385 9 view .LVU407
 385:../switch_sdk/core/fal/tiger/fal_tiger_dos.c ****     }
 1779              		.loc 1 385 9 view .LVU408
 1780 00c0 03AB     		add	r3, sp, #12
 1781 00c2 0093     		str	r3, [sp]
 1782 00c4 0423     		movs	r3, #4
 1783 00c6 0022     		movs	r2, #0
 1784 00c8 2721     		movs	r1, #39
 1785 00ca 3046     		mov	r0, r6
 1786 00cc FFF7FEFF 		bl	hal_table_reg_write
 1787              	.LVL218:
 1788 00d0 0546     		mov	r5, r0
 1789              	.LVL219:
 385:../switch_sdk/core/fal/tiger/fal_tiger_dos.c ****     }
 1790              		.loc 1 385 9 is_stmt 0 view .LVU409
 1791 00d2 10F0FF04 		ands	r4, r0, #255
 1792 00d6 40F09080 		bne	.L126
 1793              	.LVL220:
 1794              	.L116:
 389:../switch_sdk/core/fal/tiger/fal_tiger_dos.c ****     }
 1795              		.loc 1 389 9 is_stmt 1 discriminator 2 view .LVU410
 392:../switch_sdk/core/fal/tiger/fal_tiger_dos.c **** }
 1796              		.loc 1 392 5 discriminator 2 view .LVU411
 392:../switch_sdk/core/fal/tiger/fal_tiger_dos.c **** }
 1797              		.loc 1 392 12 is_stmt 0 discriminator 2 view .LVU412
 1798 00da 2046     		mov	r0, r4
 1799 00dc A6E7     		b	.L90
 1800              	.LVL221:
 1801              	.L111:
 309:../switch_sdk/core/fal/tiger/fal_tiger_dos.c ****             break;
 1802              		.loc 1 309 13 is_stmt 1 view .LVU413
 1803 00de 4346     		mov	r3, r8
 1804 00e0 03AA     		add	r2, sp, #12
 1805 00e2 1221     		movs	r1, #18
 1806 00e4 2720     		movs	r0, #39
 1807              	.LVL222:
 309:../switch_sdk/core/fal/tiger/fal_tiger_dos.c ****             break;
 1808              		.loc 1 309 13 is_stmt 0 view .LVU414
 1809 00e6 FFF7FEFF 		bl	hal_tbl_reg_field_set
 1810              	.LVL223:
 310:../switch_sdk/core/fal/tiger/fal_tiger_dos.c ****         case DOS_TYPE_ICMP_PRAG:
 1811              		.loc 1 310 13 is_stmt 1 view .LVU415
 383:../switch_sdk/core/fal/tiger/fal_tiger_dos.c ****     {
 1812              		.loc 1 383 5 view .LVU416
 1813 00ea E9E7     		b	.L113
 1814              	.LVL224:
 1815              	.L110:
 312:../switch_sdk/core/fal/tiger/fal_tiger_dos.c ****             break;
 1816              		.loc 1 312 13 view .LVU417
 1817 00ec 4346     		mov	r3, r8
 1818 00ee 03AA     		add	r2, sp, #12
 1819 00f0 1121     		movs	r1, #17
 1820 00f2 2720     		movs	r0, #39
 1821              	.LVL225:
 312:../switch_sdk/core/fal/tiger/fal_tiger_dos.c ****             break;
 1822              		.loc 1 312 13 is_stmt 0 view .LVU418
 1823 00f4 FFF7FEFF 		bl	hal_tbl_reg_field_set
 1824              	.LVL226:
 313:../switch_sdk/core/fal/tiger/fal_tiger_dos.c ****         case DOS_TYPE_TCP_FRAG_OFFSET:
 1825              		.loc 1 313 13 is_stmt 1 view .LVU419
 383:../switch_sdk/core/fal/tiger/fal_tiger_dos.c ****     {
 1826              		.loc 1 383 5 view .LVU420
 1827 00f8 E2E7     		b	.L113
 1828              	.LVL227:
 1829              	.L109:
 315:../switch_sdk/core/fal/tiger/fal_tiger_dos.c ****             break;
 1830              		.loc 1 315 13 view .LVU421
 1831 00fa 4346     		mov	r3, r8
 1832 00fc 03AA     		add	r2, sp, #12
 1833 00fe 0E21     		movs	r1, #14
 1834 0100 2720     		movs	r0, #39
 1835              	.LVL228:
 315:../switch_sdk/core/fal/tiger/fal_tiger_dos.c ****             break;
 1836              		.loc 1 315 13 is_stmt 0 view .LVU422
 1837 0102 FFF7FEFF 		bl	hal_tbl_reg_field_set
 1838              	.LVL229:
 316:../switch_sdk/core/fal/tiger/fal_tiger_dos.c ****         case DOS_TYPE_LARGE_ICMPV4:
 1839              		.loc 1 316 13 is_stmt 1 view .LVU423
 383:../switch_sdk/core/fal/tiger/fal_tiger_dos.c ****     {
 1840              		.loc 1 383 5 view .LVU424
 1841 0106 DBE7     		b	.L113
 1842              	.LVL230:
 1843              	.L108:
 318:../switch_sdk/core/fal/tiger/fal_tiger_dos.c ****             break;
 1844              		.loc 1 318 13 view .LVU425
 1845 0108 4346     		mov	r3, r8
 1846 010a 03AA     		add	r2, sp, #12
 1847 010c 0D21     		movs	r1, #13
 1848 010e 2720     		movs	r0, #39
 1849              	.LVL231:
 318:../switch_sdk/core/fal/tiger/fal_tiger_dos.c ****             break;
 1850              		.loc 1 318 13 is_stmt 0 view .LVU426
 1851 0110 FFF7FEFF 		bl	hal_tbl_reg_field_set
 1852              	.LVL232:
 319:../switch_sdk/core/fal/tiger/fal_tiger_dos.c ****         case DOS_TYPE_LARGE_ICMPV6:
 1853              		.loc 1 319 13 is_stmt 1 view .LVU427
 383:../switch_sdk/core/fal/tiger/fal_tiger_dos.c ****     {
 1854              		.loc 1 383 5 view .LVU428
 1855 0114 D4E7     		b	.L113
 1856              	.LVL233:
 1857              	.L107:
 321:../switch_sdk/core/fal/tiger/fal_tiger_dos.c ****             break;
 1858              		.loc 1 321 13 view .LVU429
 1859 0116 4346     		mov	r3, r8
 1860 0118 03AA     		add	r2, sp, #12
 1861 011a 0C21     		movs	r1, #12
 1862 011c 2720     		movs	r0, #39
 1863              	.LVL234:
 321:../switch_sdk/core/fal/tiger/fal_tiger_dos.c ****             break;
 1864              		.loc 1 321 13 is_stmt 0 view .LVU430
 1865 011e FFF7FEFF 		bl	hal_tbl_reg_field_set
 1866              	.LVL235:
 322:../switch_sdk/core/fal/tiger/fal_tiger_dos.c ****         case DOS_TYPE_TCP_HEADER_PARTIAL:
 1867              		.loc 1 322 13 is_stmt 1 view .LVU431
 383:../switch_sdk/core/fal/tiger/fal_tiger_dos.c ****     {
 1868              		.loc 1 383 5 view .LVU432
 1869 0122 CDE7     		b	.L113
 1870              	.LVL236:
 1871              	.L106:
 324:../switch_sdk/core/fal/tiger/fal_tiger_dos.c ****             break;
 1872              		.loc 1 324 13 view .LVU433
 1873 0124 4346     		mov	r3, r8
 1874 0126 03AA     		add	r2, sp, #12
 1875 0128 0B21     		movs	r1, #11
 1876 012a 2720     		movs	r0, #39
 1877              	.LVL237:
 324:../switch_sdk/core/fal/tiger/fal_tiger_dos.c ****             break;
 1878              		.loc 1 324 13 is_stmt 0 view .LVU434
 1879 012c FFF7FEFF 		bl	hal_tbl_reg_field_set
 1880              	.LVL238:
 325:../switch_sdk/core/fal/tiger/fal_tiger_dos.c ****         case DOS_TYPE_CFI_MISMATCH_DROP:
 1881              		.loc 1 325 13 is_stmt 1 view .LVU435
 383:../switch_sdk/core/fal/tiger/fal_tiger_dos.c ****     {
 1882              		.loc 1 383 5 view .LVU436
 1883 0130 C6E7     		b	.L113
 1884              	.LVL239:
 1885              	.L105:
 327:../switch_sdk/core/fal/tiger/fal_tiger_dos.c ****             break;
 1886              		.loc 1 327 13 view .LVU437
 1887 0132 4346     		mov	r3, r8
 1888 0134 03AA     		add	r2, sp, #12
 1889 0136 0021     		movs	r1, #0
 1890 0138 2720     		movs	r0, #39
 1891              	.LVL240:
 327:../switch_sdk/core/fal/tiger/fal_tiger_dos.c ****             break;
 1892              		.loc 1 327 13 is_stmt 0 view .LVU438
 1893 013a FFF7FEFF 		bl	hal_tbl_reg_field_set
 1894              	.LVL241:
 328:../switch_sdk/core/fal/tiger/fal_tiger_dos.c ****         case DOS_TYPE_UDP_SPORT_EQ_DPORT:
 1895              		.loc 1 328 13 is_stmt 1 view .LVU439
 383:../switch_sdk/core/fal/tiger/fal_tiger_dos.c ****     {
 1896              		.loc 1 383 5 view .LVU440
 1897 013e BFE7     		b	.L113
 1898              	.LVL242:
 1899              	.L99:
 330:../switch_sdk/core/fal/tiger/fal_tiger_dos.c ****             {
 1900              		.loc 1 330 13 view .LVU441
 330:../switch_sdk/core/fal/tiger/fal_tiger_dos.c ****             {
 1901              		.loc 1 330 17 is_stmt 0 view .LVU442
 1902 0140 494B     		ldr	r3, .L131+28
 1903 0142 53F82630 		ldr	r3, [r3, r6, lsl #2]
 1904 0146 9B78     		ldrb	r3, [r3, #2]	@ zero_extendqisi2
 330:../switch_sdk/core/fal/tiger/fal_tiger_dos.c ****             {
 1905              		.loc 1 330 16 view .LVU443
 1906 0148 012B     		cmp	r3, #1
 1907 014a 04D0     		beq	.L127
 335:../switch_sdk/core/fal/tiger/fal_tiger_dos.c ****             {
 1908              		.loc 1 335 18 is_stmt 1 view .LVU444
 335:../switch_sdk/core/fal/tiger/fal_tiger_dos.c ****             {
 1909              		.loc 1 335 21 is_stmt 0 view .LVU445
 1910 014c 002B     		cmp	r3, #0
 1911 014e B7D1     		bne	.L113
 1912              	.LVL243:
 338:../switch_sdk/core/fal/tiger/fal_tiger_dos.c ****             }
 1913              		.loc 1 338 21 view .LVU446
 1914 0150 0324     		movs	r4, #3
 337:../switch_sdk/core/fal/tiger/fal_tiger_dos.c ****                 ret = CMM_ERR_NOT_SUPPORT;
 1915              		.loc 1 337 23 view .LVU447
 1916 0152 0023     		movs	r3, #0
 1917 0154 1FE0     		b	.L96
 1918              	.LVL244:
 1919              	.L127:
 332:../switch_sdk/core/fal/tiger/fal_tiger_dos.c ****                 regid = DOS_CTRLm;
 1920              		.loc 1 332 17 is_stmt 1 view .LVU448
 1921 0156 4346     		mov	r3, r8
 1922 0158 03AA     		add	r2, sp, #12
 1923 015a 1021     		movs	r1, #16
 1924 015c 2720     		movs	r0, #39
 1925              	.LVL245:
 332:../switch_sdk/core/fal/tiger/fal_tiger_dos.c ****                 regid = DOS_CTRLm;
 1926              		.loc 1 332 17 is_stmt 0 view .LVU449
 1927 015e FFF7FEFF 		bl	hal_tbl_reg_field_set
 1928              	.LVL246:
 333:../switch_sdk/core/fal/tiger/fal_tiger_dos.c ****             }
 1929              		.loc 1 333 17 is_stmt 1 view .LVU450
 383:../switch_sdk/core/fal/tiger/fal_tiger_dos.c ****     {
 1930              		.loc 1 383 5 view .LVU451
 1931 0162 ADE7     		b	.L113
 1932              	.LVL247:
 1933              	.L97:
 342:../switch_sdk/core/fal/tiger/fal_tiger_dos.c ****             {
 1934              		.loc 1 342 13 view .LVU452
 342:../switch_sdk/core/fal/tiger/fal_tiger_dos.c ****             {
 1935              		.loc 1 342 17 is_stmt 0 view .LVU453
 1936 0164 404B     		ldr	r3, .L131+28
 1937 0166 53F82630 		ldr	r3, [r3, r6, lsl #2]
 1938 016a 9B78     		ldrb	r3, [r3, #2]	@ zero_extendqisi2
 342:../switch_sdk/core/fal/tiger/fal_tiger_dos.c ****             {
 1939              		.loc 1 342 16 view .LVU454
 1940 016c 012B     		cmp	r3, #1
 1941 016e 04D0     		beq	.L128
 347:../switch_sdk/core/fal/tiger/fal_tiger_dos.c ****             {
 1942              		.loc 1 347 18 is_stmt 1 view .LVU455
 347:../switch_sdk/core/fal/tiger/fal_tiger_dos.c ****             {
 1943              		.loc 1 347 21 is_stmt 0 view .LVU456
 1944 0170 002B     		cmp	r3, #0
 1945 0172 A5D1     		bne	.L113
 1946              	.LVL248:
 350:../switch_sdk/core/fal/tiger/fal_tiger_dos.c ****             }
 1947              		.loc 1 350 21 view .LVU457
 1948 0174 0324     		movs	r4, #3
 349:../switch_sdk/core/fal/tiger/fal_tiger_dos.c ****                 ret = CMM_ERR_NOT_SUPPORT;
 1949              		.loc 1 349 23 view .LVU458
 1950 0176 0023     		movs	r3, #0
 1951 0178 0DE0     		b	.L96
 1952              	.LVL249:
 1953              	.L128:
 344:../switch_sdk/core/fal/tiger/fal_tiger_dos.c ****                 regid = DOS_CTRLm;
 1954              		.loc 1 344 17 is_stmt 1 view .LVU459
 1955 017a 4346     		mov	r3, r8
 1956 017c 03AA     		add	r2, sp, #12
 1957 017e 0F21     		movs	r1, #15
 1958 0180 2720     		movs	r0, #39
 1959              	.LVL250:
 344:../switch_sdk/core/fal/tiger/fal_tiger_dos.c ****                 regid = DOS_CTRLm;
 1960              		.loc 1 344 17 is_stmt 0 view .LVU460
 1961 0182 FFF7FEFF 		bl	hal_tbl_reg_field_set
 1962              	.LVL251:
 345:../switch_sdk/core/fal/tiger/fal_tiger_dos.c ****             }
 1963              		.loc 1 345 17 is_stmt 1 view .LVU461
 383:../switch_sdk/core/fal/tiger/fal_tiger_dos.c ****     {
 1964              		.loc 1 383 5 view .LVU462
 1965 0186 9BE7     		b	.L113
 1966              	.LVL252:
 1967              	.L104:
 354:../switch_sdk/core/fal/tiger/fal_tiger_dos.c ****             regid = DOS_CTRL1m;
 1968              		.loc 1 354 13 view .LVU463
 1969 0188 4346     		mov	r3, r8
 1970 018a 02AA     		add	r2, sp, #8
 1971 018c 0321     		movs	r1, #3
 1972 018e 2B20     		movs	r0, #43
 1973              	.LVL253:
 354:../switch_sdk/core/fal/tiger/fal_tiger_dos.c ****             regid = DOS_CTRL1m;
 1974              		.loc 1 354 13 is_stmt 0 view .LVU464
 1975 0190 FFF7FEFF 		bl	hal_tbl_reg_field_set
 1976              	.LVL254:
 355:../switch_sdk/core/fal/tiger/fal_tiger_dos.c ****             break;
 1977              		.loc 1 355 13 is_stmt 1 view .LVU465
 356:../switch_sdk/core/fal/tiger/fal_tiger_dos.c ****         case DOS_TYPE_SA_BC_DROP:
 1978              		.loc 1 356 13 view .LVU466
 383:../switch_sdk/core/fal/tiger/fal_tiger_dos.c ****     {
 1979              		.loc 1 383 5 view .LVU467
 355:../switch_sdk/core/fal/tiger/fal_tiger_dos.c ****             break;
 1980              		.loc 1 355 19 is_stmt 0 view .LVU468
 1981 0194 2B23     		movs	r3, #43
 1982              	.LVL255:
 1983              	.L96:
 387:../switch_sdk/core/fal/tiger/fal_tiger_dos.c ****     {
 1984              		.loc 1 387 10 is_stmt 1 view .LVU469
 387:../switch_sdk/core/fal/tiger/fal_tiger_dos.c ****     {
 1985              		.loc 1 387 12 is_stmt 0 view .LVU470
 1986 0196 2B2B     		cmp	r3, #43
 1987 0198 9FD1     		bne	.L116
 389:../switch_sdk/core/fal/tiger/fal_tiger_dos.c ****     }
 1988              		.loc 1 389 9 is_stmt 1 view .LVU471
 389:../switch_sdk/core/fal/tiger/fal_tiger_dos.c ****     }
 1989              		.loc 1 389 9 view .LVU472
 1990 019a 02AB     		add	r3, sp, #8
 1991 019c 0093     		str	r3, [sp]
 1992 019e 0423     		movs	r3, #4
 1993 01a0 0022     		movs	r2, #0
 1994 01a2 2B21     		movs	r1, #43
 1995 01a4 3046     		mov	r0, r6
 1996 01a6 FFF7FEFF 		bl	hal_table_reg_write
 1997              	.LVL256:
 1998 01aa 0546     		mov	r5, r0
 1999              	.LVL257:
 389:../switch_sdk/core/fal/tiger/fal_tiger_dos.c ****     }
 2000              		.loc 1 389 9 is_stmt 0 view .LVU473
 2001 01ac 10F0FF04 		ands	r4, r0, #255
 2002 01b0 93D0     		beq	.L116
 389:../switch_sdk/core/fal/tiger/fal_tiger_dos.c ****     }
 2003              		.loc 1 389 9 is_stmt 1 discriminator 1 view .LVU474
 389:../switch_sdk/core/fal/tiger/fal_tiger_dos.c ****     }
 2004              		.loc 1 389 9 discriminator 1 view .LVU475
 2005 01b2 264B     		ldr	r3, .L131
 2006 01b4 1B78     		ldrb	r3, [r3]	@ zero_extendqisi2
 2007 01b6 012B     		cmp	r3, #1
 2008 01b8 38D8     		bhi	.L129
 2009              	.LVL258:
 2010              	.L118:
 389:../switch_sdk/core/fal/tiger/fal_tiger_dos.c ****     }
 2011              		.loc 1 389 9 discriminator 5 view .LVU476
 389:../switch_sdk/core/fal/tiger/fal_tiger_dos.c ****     }
 2012              		.loc 1 389 9 discriminator 5 view .LVU477
 389:../switch_sdk/core/fal/tiger/fal_tiger_dos.c ****     }
 2013              		.loc 1 389 9 discriminator 5 view .LVU478
 2014 01ba E8B2     		uxtb	r0, r5
 2015 01bc 36E7     		b	.L90
 2016              	.LVL259:
 2017              	.L103:
 358:../switch_sdk/core/fal/tiger/fal_tiger_dos.c ****             regid = DOS_CTRL1m;
 2018              		.loc 1 358 13 view .LVU479
 2019 01be 4346     		mov	r3, r8
 2020 01c0 02AA     		add	r2, sp, #8
 2021 01c2 0221     		movs	r1, #2
 2022 01c4 2B20     		movs	r0, #43
 2023              	.LVL260:
 358:../switch_sdk/core/fal/tiger/fal_tiger_dos.c ****             regid = DOS_CTRL1m;
 2024              		.loc 1 358 13 is_stmt 0 view .LVU480
 2025 01c6 FFF7FEFF 		bl	hal_tbl_reg_field_set
 2026              	.LVL261:
 359:../switch_sdk/core/fal/tiger/fal_tiger_dos.c ****             break;
 2027              		.loc 1 359 13 is_stmt 1 view .LVU481
 360:../switch_sdk/core/fal/tiger/fal_tiger_dos.c ****         case DOS_TYPE_SA_ZERO_DROP:
 2028              		.loc 1 360 13 view .LVU482
 383:../switch_sdk/core/fal/tiger/fal_tiger_dos.c ****     {
 2029              		.loc 1 383 5 view .LVU483
 359:../switch_sdk/core/fal/tiger/fal_tiger_dos.c ****             break;
 2030              		.loc 1 359 19 is_stmt 0 view .LVU484
 2031 01ca 2B23     		movs	r3, #43
 2032 01cc E3E7     		b	.L96
 2033              	.LVL262:
 2034              	.L102:
 362:../switch_sdk/core/fal/tiger/fal_tiger_dos.c ****             regid = DOS_CTRL1m;
 2035              		.loc 1 362 13 is_stmt 1 view .LVU485
 2036 01ce 4346     		mov	r3, r8
 2037 01d0 02AA     		add	r2, sp, #8
 2038 01d2 0121     		movs	r1, #1
 2039 01d4 2B20     		movs	r0, #43
 2040              	.LVL263:
 362:../switch_sdk/core/fal/tiger/fal_tiger_dos.c ****             regid = DOS_CTRL1m;
 2041              		.loc 1 362 13 is_stmt 0 view .LVU486
 2042 01d6 FFF7FEFF 		bl	hal_tbl_reg_field_set
 2043              	.LVL264:
 363:../switch_sdk/core/fal/tiger/fal_tiger_dos.c ****             break;
 2044              		.loc 1 363 13 is_stmt 1 view .LVU487
 364:../switch_sdk/core/fal/tiger/fal_tiger_dos.c ****         case DOS_TYPE_DA_ZERO_DROP:
 2045              		.loc 1 364 13 view .LVU488
 383:../switch_sdk/core/fal/tiger/fal_tiger_dos.c ****     {
 2046              		.loc 1 383 5 view .LVU489
 363:../switch_sdk/core/fal/tiger/fal_tiger_dos.c ****             break;
 2047              		.loc 1 363 19 is_stmt 0 view .LVU490
 2048 01da 2B23     		movs	r3, #43
 2049 01dc DBE7     		b	.L96
 2050              	.LVL265:
 2051              	.L101:
 366:../switch_sdk/core/fal/tiger/fal_tiger_dos.c ****             regid = DOS_CTRL1m;
 2052              		.loc 1 366 13 is_stmt 1 view .LVU491
 2053 01de 4346     		mov	r3, r8
 2054 01e0 02AA     		add	r2, sp, #8
 2055 01e2 0021     		movs	r1, #0
 2056 01e4 2B20     		movs	r0, #43
 2057              	.LVL266:
 366:../switch_sdk/core/fal/tiger/fal_tiger_dos.c ****             regid = DOS_CTRL1m;
 2058              		.loc 1 366 13 is_stmt 0 view .LVU492
 2059 01e6 FFF7FEFF 		bl	hal_tbl_reg_field_set
 2060              	.LVL267:
 367:../switch_sdk/core/fal/tiger/fal_tiger_dos.c ****             break;
 2061              		.loc 1 367 13 is_stmt 1 view .LVU493
 368:../switch_sdk/core/fal/tiger/fal_tiger_dos.c ****         case DOS_TYPE_TCP_SYNRST_SCAN:
 2062              		.loc 1 368 13 view .LVU494
 383:../switch_sdk/core/fal/tiger/fal_tiger_dos.c ****     {
 2063              		.loc 1 383 5 view .LVU495
 367:../switch_sdk/core/fal/tiger/fal_tiger_dos.c ****             break;
 2064              		.loc 1 367 19 is_stmt 0 view .LVU496
 2065 01ea 2B23     		movs	r3, #43
 2066 01ec D3E7     		b	.L96
 2067              	.LVL268:
 2068              	.L100:
 375:../switch_sdk/core/fal/tiger/fal_tiger_dos.c **** 
 2069              		.loc 1 375 13 is_stmt 1 view .LVU497
 375:../switch_sdk/core/fal/tiger/fal_tiger_dos.c **** 
 2070              		.loc 1 375 20 is_stmt 0 view .LVU498
 2071 01ee 4246     		mov	r2, r8
 2072 01f0 3946     		mov	r1, r7
 2073 01f2 3046     		mov	r0, r6
 2074              	.LVL269:
 375:../switch_sdk/core/fal/tiger/fal_tiger_dos.c **** 
 2075              		.loc 1 375 20 view .LVU499
 2076 01f4 FFF7FEFF 		bl	fal_tiger_dos_tcp_flagsn_set
 2077              	.LVL270:
 2078 01f8 18E7     		b	.L90
 2079              	.LVL271:
 2080              	.L126:
 385:../switch_sdk/core/fal/tiger/fal_tiger_dos.c ****     }
 2081              		.loc 1 385 9 is_stmt 1 discriminator 1 view .LVU500
 385:../switch_sdk/core/fal/tiger/fal_tiger_dos.c ****     }
 2082              		.loc 1 385 9 discriminator 1 view .LVU501
 2083 01fa 144B     		ldr	r3, .L131
 2084 01fc 1B78     		ldrb	r3, [r3]	@ zero_extendqisi2
 2085 01fe 012B     		cmp	r3, #1
 2086 0200 01D8     		bhi	.L130
 2087              	.LVL272:
 2088              	.L117:
 385:../switch_sdk/core/fal/tiger/fal_tiger_dos.c ****     }
 2089              		.loc 1 385 9 discriminator 5 view .LVU502
 385:../switch_sdk/core/fal/tiger/fal_tiger_dos.c ****     }
 2090              		.loc 1 385 9 discriminator 5 view .LVU503
 385:../switch_sdk/core/fal/tiger/fal_tiger_dos.c ****     }
 2091              		.loc 1 385 9 discriminator 5 view .LVU504
 2092 0202 E8B2     		uxtb	r0, r5
 2093 0204 12E7     		b	.L90
 2094              	.LVL273:
 2095              	.L130:
 385:../switch_sdk/core/fal/tiger/fal_tiger_dos.c ****     }
 2096              		.loc 1 385 9 discriminator 3 view .LVU505
 2097              	.LBB21:
 385:../switch_sdk/core/fal/tiger/fal_tiger_dos.c ****     }
 2098              		.loc 1 385 9 discriminator 3 view .LVU506
 2099 0206 2046     		mov	r0, r4
 2100              	.LVL274:
 385:../switch_sdk/core/fal/tiger/fal_tiger_dos.c ****     }
 2101              		.loc 1 385 9 is_stmt 0 discriminator 3 view .LVU507
 2102 0208 142C     		cmp	r4, #20
 2103 020a 28BF     		it	cs
 2104 020c 1420     		movcs	r0, #20
 2105 020e 104B     		ldr	r3, .L131+4
 2106 0210 0093     		str	r3, [sp]
 2107 0212 164B     		ldr	r3, .L131+32
 2108 0214 104A     		ldr	r2, .L131+12
 2109 0216 52F82020 		ldr	r2, [r2, r0, lsl #2]
 2110 021a 1049     		ldr	r1, .L131+16
 2111 021c 8968     		ldr	r1, [r1, #8]
 2112 021e 1048     		ldr	r0, .L131+20
 2113 0220 FFF7FEFF 		bl	osal_printf
 2114              	.LVL275:
 2115 0224 EDE7     		b	.L117
 2116              	.LVL276:
 2117              	.L119:
 385:../switch_sdk/core/fal/tiger/fal_tiger_dos.c ****     }
 2118              		.loc 1 385 9 discriminator 3 view .LVU508
 2119              	.LBE21:
 303:../switch_sdk/core/fal/tiger/fal_tiger_dos.c ****     {
 2120              		.loc 1 303 5 view .LVU509
 2121 0226 0324     		movs	r4, #3
 2122 0228 0023     		movs	r3, #0
 2123 022a B4E7     		b	.L96
 2124              	.LVL277:
 2125              	.L129:
 389:../switch_sdk/core/fal/tiger/fal_tiger_dos.c ****     }
 2126              		.loc 1 389 9 is_stmt 1 discriminator 3 view .LVU510
 2127              	.LBB22:
 389:../switch_sdk/core/fal/tiger/fal_tiger_dos.c ****     }
 2128              		.loc 1 389 9 discriminator 3 view .LVU511
 2129 022c 2046     		mov	r0, r4
 2130              	.LVL278:
 389:../switch_sdk/core/fal/tiger/fal_tiger_dos.c ****     }
 2131              		.loc 1 389 9 is_stmt 0 discriminator 3 view .LVU512
 2132 022e 142C     		cmp	r4, #20
 2133 0230 28BF     		it	cs
 2134 0232 1420     		movcs	r0, #20
 2135 0234 064B     		ldr	r3, .L131+4
 2136 0236 0093     		str	r3, [sp]
 2137 0238 0D4B     		ldr	r3, .L131+36
 2138 023a 074A     		ldr	r2, .L131+12
 2139 023c 52F82020 		ldr	r2, [r2, r0, lsl #2]
 2140 0240 0649     		ldr	r1, .L131+16
 2141 0242 8968     		ldr	r1, [r1, #8]
 2142 0244 0648     		ldr	r0, .L131+20
 2143 0246 FFF7FEFF 		bl	osal_printf
 2144              	.LVL279:
 2145 024a B6E7     		b	.L118
 2146              	.L132:
 2147              		.align	2
 2148              	.L131:
 2149 024c 00000000 		.word	yt_debug_level
 2150 0250 00000000 		.word	__FUNCTION__.5
 2151 0254 00000000 		.word	.LC3
 2152 0258 00000000 		.word	_yt_errmsg
 2153 025c 00000000 		.word	_yt_prompt_msg
 2154 0260 4C000000 		.word	.LC1
 2155 0264 00000000 		.word	.LC5
 2156 0268 00000000 		.word	gpSwitchUnit
 2157 026c 3C000000 		.word	.LC4
 2158 0270 40000000 		.word	.LC6
 2159              	.LBE22:
 2160              		.cfi_endproc
 2161              	.LFE8:
 2163              		.section	.text.fal_tiger_dos_drop_en_get,"ax",%progbits
 2164              		.align	1
 2165              		.global	fal_tiger_dos_drop_en_get
 2166              		.syntax unified
 2167              		.thumb
 2168              		.thumb_func
 2170              	fal_tiger_dos_drop_en_get:
 2171              	.LVL280:
 2172              	.LFB9:
 394:../switch_sdk/core/fal/tiger/fal_tiger_dos.c **** 
 395:../switch_sdk/core/fal/tiger/fal_tiger_dos.c **** yt_ret_t fal_tiger_dos_drop_en_get(yt_unit_t unit, yt_dos_type_t type, yt_enable_t *pEnable)
 396:../switch_sdk/core/fal/tiger/fal_tiger_dos.c **** {
 2173              		.loc 1 396 1 is_stmt 1 view -0
 2174              		.cfi_startproc
 2175              		@ args = 0, pretend = 0, frame = 16
 2176              		@ frame_needed = 0, uses_anonymous_args = 0
 2177              		.loc 1 396 1 is_stmt 0 view .LVU514
 2178 0000 2DE9F041 		push	{r4, r5, r6, r7, r8, lr}
 2179              		.cfi_def_cfa_offset 24
 2180              		.cfi_offset 4, -24
 2181              		.cfi_offset 5, -20
 2182              		.cfi_offset 6, -16
 2183              		.cfi_offset 7, -12
 2184              		.cfi_offset 8, -8
 2185              		.cfi_offset 14, -4
 2186 0004 86B0     		sub	sp, sp, #24
 2187              		.cfi_def_cfa_offset 48
 2188 0006 0746     		mov	r7, r0
 2189 0008 0E46     		mov	r6, r1
 2190 000a 9046     		mov	r8, r2
 397:../switch_sdk/core/fal/tiger/fal_tiger_dos.c ****     dos_ctrl_t dos_ctrl;
 2191              		.loc 1 397 5 is_stmt 1 view .LVU515
 398:../switch_sdk/core/fal/tiger/fal_tiger_dos.c ****     dos_ctrl1_t dos_ctrl1;
 2192              		.loc 1 398 5 view .LVU516
 399:../switch_sdk/core/fal/tiger/fal_tiger_dos.c ****     uint32_t enable = YT_DISABLE;
 2193              		.loc 1 399 5 view .LVU517
 2194              	.LVL281:
 400:../switch_sdk/core/fal/tiger/fal_tiger_dos.c ****     cmm_err_t ret = CMM_ERR_OK;
 2195              		.loc 1 400 5 view .LVU518
 401:../switch_sdk/core/fal/tiger/fal_tiger_dos.c **** 
 402:../switch_sdk/core/fal/tiger/fal_tiger_dos.c ****     CMM_ERR_CHK(HAL_TBL_REG_READ(unit, DOS_CTRLm, 0, sizeof(dos_ctrl_t), &dos_ctrl), ret);
 2196              		.loc 1 402 5 view .LVU519
 2197              		.loc 1 402 5 view .LVU520
 2198 000c 05AB     		add	r3, sp, #20
 2199 000e 0093     		str	r3, [sp]
 2200 0010 0423     		movs	r3, #4
 2201 0012 0022     		movs	r2, #0
 2202              	.LVL282:
 2203              		.loc 1 402 5 is_stmt 0 view .LVU521
 2204 0014 2721     		movs	r1, #39
 2205              	.LVL283:
 2206              		.loc 1 402 5 view .LVU522
 2207 0016 FFF7FEFF 		bl	hal_table_reg_read
 2208              	.LVL284:
 2209              		.loc 1 402 5 view .LVU523
 2210 001a 10F0FF03 		ands	r3, r0, #255
 2211 001e 18D0     		beq	.L134
 2212 0020 0446     		mov	r4, r0
 2213              		.loc 1 402 5 is_stmt 1 discriminator 1 view .LVU524
 2214              		.loc 1 402 5 discriminator 1 view .LVU525
 2215 0022 714A     		ldr	r2, .L167
 2216 0024 1278     		ldrb	r2, [r2]	@ zero_extendqisi2
 2217 0026 012A     		cmp	r2, #1
 2218 0028 03D8     		bhi	.L162
 2219              	.LVL285:
 2220              	.L135:
 2221              		.loc 1 402 5 discriminator 5 view .LVU526
 2222              		.loc 1 402 5 discriminator 5 view .LVU527
 2223              		.loc 1 402 5 discriminator 5 view .LVU528
 2224 002a E0B2     		uxtb	r0, r4
 2225              	.LVL286:
 2226              	.L133:
 403:../switch_sdk/core/fal/tiger/fal_tiger_dos.c ****     CMM_ERR_CHK(HAL_TBL_REG_READ(unit, DOS_CTRL1m, 0, sizeof(dos_ctrl1_t), &dos_ctrl1), ret);
 404:../switch_sdk/core/fal/tiger/fal_tiger_dos.c **** 
 405:../switch_sdk/core/fal/tiger/fal_tiger_dos.c ****     switch (type)
 406:../switch_sdk/core/fal/tiger/fal_tiger_dos.c ****     {
 407:../switch_sdk/core/fal/tiger/fal_tiger_dos.c ****         case DOS_TYPE_DAEQSA:
 408:../switch_sdk/core/fal/tiger/fal_tiger_dos.c ****             HAL_FIELD_GET(DOS_CTRLm, DOS_CTRL_MACSA_EQ_MACDA_DROPf, &dos_ctrl, &enable);
 409:../switch_sdk/core/fal/tiger/fal_tiger_dos.c ****             break;
 410:../switch_sdk/core/fal/tiger/fal_tiger_dos.c ****         case DOS_TYPE_LAND:
 411:../switch_sdk/core/fal/tiger/fal_tiger_dos.c ****             HAL_FIELD_GET(DOS_CTRLm, DOS_CTRL_SIP_EQ_DIP_DROPf, &dos_ctrl, &enable);
 412:../switch_sdk/core/fal/tiger/fal_tiger_dos.c ****             break;
 413:../switch_sdk/core/fal/tiger/fal_tiger_dos.c ****         case DOS_TYPE_ICMP_PRAG:
 414:../switch_sdk/core/fal/tiger/fal_tiger_dos.c ****             HAL_FIELD_GET(DOS_CTRLm, DOS_CTRL_ICMP_PRAG_DROPf, &dos_ctrl, &enable);
 415:../switch_sdk/core/fal/tiger/fal_tiger_dos.c ****             break;
 416:../switch_sdk/core/fal/tiger/fal_tiger_dos.c ****         case DOS_TYPE_TCP_FRAG_OFFSET:
 417:../switch_sdk/core/fal/tiger/fal_tiger_dos.c ****             HAL_FIELD_GET(DOS_CTRLm, DOS_CTRL_TCP_FRAG_OFFSET1_DROPf, &dos_ctrl, &enable);
 418:../switch_sdk/core/fal/tiger/fal_tiger_dos.c ****             break;
 419:../switch_sdk/core/fal/tiger/fal_tiger_dos.c ****         case DOS_TYPE_LARGE_ICMPV4:
 420:../switch_sdk/core/fal/tiger/fal_tiger_dos.c ****             HAL_FIELD_GET(DOS_CTRLm, DOS_CTRL_LARGE_IPV4_ICMP_DROPf, &dos_ctrl, &enable);
 421:../switch_sdk/core/fal/tiger/fal_tiger_dos.c ****             break;
 422:../switch_sdk/core/fal/tiger/fal_tiger_dos.c ****         case DOS_TYPE_LARGE_ICMPV6:
 423:../switch_sdk/core/fal/tiger/fal_tiger_dos.c ****             HAL_FIELD_GET(DOS_CTRLm, DOS_CTRL_LARGE_IPV6_ICMP_DROPf, &dos_ctrl, &enable);
 424:../switch_sdk/core/fal/tiger/fal_tiger_dos.c ****             break;
 425:../switch_sdk/core/fal/tiger/fal_tiger_dos.c ****         case DOS_TYPE_TCP_HEADER_PARTIAL:
 426:../switch_sdk/core/fal/tiger/fal_tiger_dos.c ****             HAL_FIELD_GET(DOS_CTRLm, DOS_CTRL_TCP_HEADER_PARTIAL_DROPf, &dos_ctrl, &enable);
 427:../switch_sdk/core/fal/tiger/fal_tiger_dos.c ****             break;
 428:../switch_sdk/core/fal/tiger/fal_tiger_dos.c ****         case DOS_TYPE_CFI_MISMATCH_DROP:
 429:../switch_sdk/core/fal/tiger/fal_tiger_dos.c ****             HAL_FIELD_GET(DOS_CTRLm, DOS_CTRL_VLAN_CFI1DROP_ENf, &dos_ctrl, &enable);
 430:../switch_sdk/core/fal/tiger/fal_tiger_dos.c ****             break;
 431:../switch_sdk/core/fal/tiger/fal_tiger_dos.c ****         case DOS_TYPE_UDP_SPORT_EQ_DPORT:
 432:../switch_sdk/core/fal/tiger/fal_tiger_dos.c ****             if (CAL_SWCHIP_MODEL(unit) == YT_SW_MODEL_9218)
 433:../switch_sdk/core/fal/tiger/fal_tiger_dos.c ****             {
 434:../switch_sdk/core/fal/tiger/fal_tiger_dos.c ****                 HAL_FIELD_GET(DOS_CTRLm, DOS_CTRL_UDP_SPORT_EQ_DPORT_DROPf, &dos_ctrl, &enable);
 435:../switch_sdk/core/fal/tiger/fal_tiger_dos.c ****             }
 436:../switch_sdk/core/fal/tiger/fal_tiger_dos.c ****             else if (CAL_SWCHIP_MODEL(unit) == YT_SW_MODEL_9215)
 437:../switch_sdk/core/fal/tiger/fal_tiger_dos.c ****             {
 438:../switch_sdk/core/fal/tiger/fal_tiger_dos.c ****                 ret = CMM_ERR_NOT_SUPPORT;
 439:../switch_sdk/core/fal/tiger/fal_tiger_dos.c ****             }
 440:../switch_sdk/core/fal/tiger/fal_tiger_dos.c ****             break;
 441:../switch_sdk/core/fal/tiger/fal_tiger_dos.c ****         case DOS_TYPE_TCP_SPORT_EQ_DPORT:
 442:../switch_sdk/core/fal/tiger/fal_tiger_dos.c ****             if (CAL_SWCHIP_MODEL(unit) == YT_SW_MODEL_9218)
 443:../switch_sdk/core/fal/tiger/fal_tiger_dos.c ****             {
 444:../switch_sdk/core/fal/tiger/fal_tiger_dos.c ****                 HAL_FIELD_GET(DOS_CTRLm, DOS_CTRL_TCP_SPORT_EQ_DPORT_DROPf, &dos_ctrl, &enable);
 445:../switch_sdk/core/fal/tiger/fal_tiger_dos.c ****             }
 446:../switch_sdk/core/fal/tiger/fal_tiger_dos.c ****             else if (CAL_SWCHIP_MODEL(unit) == YT_SW_MODEL_9215)
 447:../switch_sdk/core/fal/tiger/fal_tiger_dos.c ****             {
 448:../switch_sdk/core/fal/tiger/fal_tiger_dos.c ****                 ret = CMM_ERR_NOT_SUPPORT;
 449:../switch_sdk/core/fal/tiger/fal_tiger_dos.c ****             }
 450:../switch_sdk/core/fal/tiger/fal_tiger_dos.c ****             break;
 451:../switch_sdk/core/fal/tiger/fal_tiger_dos.c ****         case DOS_TYPE_SA_MC_DROP:
 452:../switch_sdk/core/fal/tiger/fal_tiger_dos.c ****             HAL_FIELD_GET(DOS_CTRL1m, DOS_CTRL1_SA_MC_DROP_ENf, &dos_ctrl1, &enable);
 453:../switch_sdk/core/fal/tiger/fal_tiger_dos.c ****             break;
 454:../switch_sdk/core/fal/tiger/fal_tiger_dos.c ****         case DOS_TYPE_SA_BC_DROP:
 455:../switch_sdk/core/fal/tiger/fal_tiger_dos.c ****             HAL_FIELD_GET(DOS_CTRL1m, DOS_CTRL1_SA_BC_DROP_ENf, &dos_ctrl1, &enable);
 456:../switch_sdk/core/fal/tiger/fal_tiger_dos.c ****             break;
 457:../switch_sdk/core/fal/tiger/fal_tiger_dos.c ****         case DOS_TYPE_SA_ZERO_DROP:
 458:../switch_sdk/core/fal/tiger/fal_tiger_dos.c ****             HAL_FIELD_GET(DOS_CTRL1m, DOS_CTRL1_SA_ZERO_DROP_ENf, &dos_ctrl1, &enable);
 459:../switch_sdk/core/fal/tiger/fal_tiger_dos.c ****             break;
 460:../switch_sdk/core/fal/tiger/fal_tiger_dos.c ****         case DOS_TYPE_DA_ZERO_DROP:
 461:../switch_sdk/core/fal/tiger/fal_tiger_dos.c ****             HAL_FIELD_GET(DOS_CTRL1m, DOS_CTRL1_DA_ZERO_DROP_ENf, &dos_ctrl1, &enable);
 462:../switch_sdk/core/fal/tiger/fal_tiger_dos.c ****             break;
 463:../switch_sdk/core/fal/tiger/fal_tiger_dos.c ****         case DOS_TYPE_TCP_SYNRST_SCAN:
 464:../switch_sdk/core/fal/tiger/fal_tiger_dos.c ****         case DOS_TYPE_TCP_SYNFIN_SCAN:
 465:../switch_sdk/core/fal/tiger/fal_tiger_dos.c ****         case DOS_TYPE_TCP_XMAS_SCAN:
 466:../switch_sdk/core/fal/tiger/fal_tiger_dos.c ****         case DOS_TYPE_TCP_NULL_SCAN:
 467:../switch_sdk/core/fal/tiger/fal_tiger_dos.c ****         case DOS_TYPE_TCP_SYN_PORTLESS1024:
 468:../switch_sdk/core/fal/tiger/fal_tiger_dos.c ****         case DOS_TYPE_TCP_ALLFLAGS_SCAN:
 469:../switch_sdk/core/fal/tiger/fal_tiger_dos.c ****             return fal_tiger_dos_tcp_flagsn_get(unit, type, pEnable);
 470:../switch_sdk/core/fal/tiger/fal_tiger_dos.c ****         default:
 471:../switch_sdk/core/fal/tiger/fal_tiger_dos.c ****             ret = CMM_ERR_NOT_SUPPORT;
 472:../switch_sdk/core/fal/tiger/fal_tiger_dos.c ****             break;
 473:../switch_sdk/core/fal/tiger/fal_tiger_dos.c ****     }
 474:../switch_sdk/core/fal/tiger/fal_tiger_dos.c **** 
 475:../switch_sdk/core/fal/tiger/fal_tiger_dos.c ****     *pEnable = enable ? YT_ENABLE : YT_DISABLE;
 476:../switch_sdk/core/fal/tiger/fal_tiger_dos.c **** 
 477:../switch_sdk/core/fal/tiger/fal_tiger_dos.c ****     return ret;
 478:../switch_sdk/core/fal/tiger/fal_tiger_dos.c **** }
 2227              		.loc 1 478 1 is_stmt 0 view .LVU529
 2228 002c 06B0     		add	sp, sp, #24
 2229              		.cfi_remember_state
 2230              		.cfi_def_cfa_offset 24
 2231              		@ sp needed
 2232 002e BDE8F081 		pop	{r4, r5, r6, r7, r8, pc}
 2233              	.LVL287:
 2234              	.L162:
 2235              		.cfi_restore_state
 402:../switch_sdk/core/fal/tiger/fal_tiger_dos.c ****     CMM_ERR_CHK(HAL_TBL_REG_READ(unit, DOS_CTRL1m, 0, sizeof(dos_ctrl1_t), &dos_ctrl1), ret);
 2236              		.loc 1 402 5 is_stmt 1 discriminator 3 view .LVU530
 2237              	.LBB23:
 402:../switch_sdk/core/fal/tiger/fal_tiger_dos.c ****     CMM_ERR_CHK(HAL_TBL_REG_READ(unit, DOS_CTRL1m, 0, sizeof(dos_ctrl1_t), &dos_ctrl1), ret);
 2238              		.loc 1 402 5 discriminator 3 view .LVU531
 2239 0032 142B     		cmp	r3, #20
 2240 0034 28BF     		it	cs
 2241 0036 1423     		movcs	r3, #20
 2242 0038 1A46     		mov	r2, r3
 2243 003a 6C4B     		ldr	r3, .L167+4
 2244 003c 0093     		str	r3, [sp]
 2245 003e 6C4B     		ldr	r3, .L167+8
 2246 0040 6C49     		ldr	r1, .L167+12
 2247 0042 51F82220 		ldr	r2, [r1, r2, lsl #2]
 2248 0046 6C49     		ldr	r1, .L167+16
 2249 0048 8968     		ldr	r1, [r1, #8]
 2250 004a 6C48     		ldr	r0, .L167+20
 2251              	.LVL288:
 402:../switch_sdk/core/fal/tiger/fal_tiger_dos.c ****     CMM_ERR_CHK(HAL_TBL_REG_READ(unit, DOS_CTRL1m, 0, sizeof(dos_ctrl1_t), &dos_ctrl1), ret);
 2252              		.loc 1 402 5 is_stmt 0 discriminator 3 view .LVU532
 2253 004c FFF7FEFF 		bl	osal_printf
 2254              	.LVL289:
 2255 0050 EBE7     		b	.L135
 2256              	.LVL290:
 2257              	.L134:
 402:../switch_sdk/core/fal/tiger/fal_tiger_dos.c ****     CMM_ERR_CHK(HAL_TBL_REG_READ(unit, DOS_CTRL1m, 0, sizeof(dos_ctrl1_t), &dos_ctrl1), ret);
 2258              		.loc 1 402 5 discriminator 3 view .LVU533
 2259              	.LBE23:
 402:../switch_sdk/core/fal/tiger/fal_tiger_dos.c ****     CMM_ERR_CHK(HAL_TBL_REG_READ(unit, DOS_CTRL1m, 0, sizeof(dos_ctrl1_t), &dos_ctrl1), ret);
 2260              		.loc 1 402 5 is_stmt 1 discriminator 2 view .LVU534
 403:../switch_sdk/core/fal/tiger/fal_tiger_dos.c ****     CMM_ERR_CHK(HAL_TBL_REG_READ(unit, DOS_CTRL1m, 0, sizeof(dos_ctrl1_t), &dos_ctrl1), ret);
 2261              		.loc 1 403 5 discriminator 2 view .LVU535
 403:../switch_sdk/core/fal/tiger/fal_tiger_dos.c ****     CMM_ERR_CHK(HAL_TBL_REG_READ(unit, DOS_CTRL1m, 0, sizeof(dos_ctrl1_t), &dos_ctrl1), ret);
 2262              		.loc 1 403 5 discriminator 2 view .LVU536
 2263 0052 04AB     		add	r3, sp, #16
 2264 0054 0093     		str	r3, [sp]
 2265 0056 0423     		movs	r3, #4
 2266 0058 0022     		movs	r2, #0
 2267 005a 2B21     		movs	r1, #43
 2268 005c 3846     		mov	r0, r7
 2269              	.LVL291:
 403:../switch_sdk/core/fal/tiger/fal_tiger_dos.c ****     CMM_ERR_CHK(HAL_TBL_REG_READ(unit, DOS_CTRL1m, 0, sizeof(dos_ctrl1_t), &dos_ctrl1), ret);
 2270              		.loc 1 403 5 is_stmt 0 discriminator 2 view .LVU537
 2271 005e FFF7FEFF 		bl	hal_table_reg_read
 2272              	.LVL292:
 2273 0062 0546     		mov	r5, r0
 2274              	.LVL293:
 403:../switch_sdk/core/fal/tiger/fal_tiger_dos.c ****     CMM_ERR_CHK(HAL_TBL_REG_READ(unit, DOS_CTRL1m, 0, sizeof(dos_ctrl1_t), &dos_ctrl1), ret);
 2275              		.loc 1 403 5 discriminator 2 view .LVU538
 2276 0064 10F0FF04 		ands	r4, r0, #255
 2277 0068 0ED1     		bne	.L163
 403:../switch_sdk/core/fal/tiger/fal_tiger_dos.c ****     CMM_ERR_CHK(HAL_TBL_REG_READ(unit, DOS_CTRL1m, 0, sizeof(dos_ctrl1_t), &dos_ctrl1), ret);
 2278              		.loc 1 403 5 is_stmt 1 view .LVU539
 405:../switch_sdk/core/fal/tiger/fal_tiger_dos.c ****     {
 2279              		.loc 1 405 5 view .LVU540
 2280 006a 132E     		cmp	r6, #19
 2281 006c 00F2B280 		bhi	.L158
 2282 0070 DFE806F0 		tbb	[pc, r6]
 2283              	.L141:
 2284 0074 20       		.byte	(.L155-.L141)/2
 2285 0075 2E       		.byte	(.L154-.L141)/2
 2286 0076 36       		.byte	(.L153-.L141)/2
 2287 0077 3E       		.byte	(.L152-.L141)/2
 2288 0078 46       		.byte	(.L151-.L141)/2
 2289 0079 4E       		.byte	(.L150-.L141)/2
 2290 007a 56       		.byte	(.L149-.L141)/2
 2291 007b 5E       		.byte	(.L148-.L141)/2
 2292 007c 8A       		.byte	(.L147-.L141)/2
 2293 007d 92       		.byte	(.L146-.L141)/2
 2294 007e 9A       		.byte	(.L145-.L141)/2
 2295 007f A2       		.byte	(.L144-.L141)/2
 2296 0080 AA       		.byte	(.L143-.L141)/2
 2297 0081 AA       		.byte	(.L143-.L141)/2
 2298 0082 AA       		.byte	(.L143-.L141)/2
 2299 0083 AA       		.byte	(.L143-.L141)/2
 2300 0084 AA       		.byte	(.L143-.L141)/2
 2301 0085 AA       		.byte	(.L143-.L141)/2
 2302 0086 66       		.byte	(.L142-.L141)/2
 2303 0087 78       		.byte	(.L140-.L141)/2
 2304              		.p2align 1
 2305              	.L163:
 403:../switch_sdk/core/fal/tiger/fal_tiger_dos.c ****     CMM_ERR_CHK(HAL_TBL_REG_READ(unit, DOS_CTRL1m, 0, sizeof(dos_ctrl1_t), &dos_ctrl1), ret);
 2306              		.loc 1 403 5 discriminator 1 view .LVU541
 403:../switch_sdk/core/fal/tiger/fal_tiger_dos.c ****     CMM_ERR_CHK(HAL_TBL_REG_READ(unit, DOS_CTRL1m, 0, sizeof(dos_ctrl1_t), &dos_ctrl1), ret);
 2307              		.loc 1 403 5 discriminator 1 view .LVU542
 2308 0088 574B     		ldr	r3, .L167
 2309 008a 1B78     		ldrb	r3, [r3]	@ zero_extendqisi2
 2310 008c 012B     		cmp	r3, #1
 2311 008e 01D8     		bhi	.L164
 2312              	.LVL294:
 2313              	.L138:
 403:../switch_sdk/core/fal/tiger/fal_tiger_dos.c ****     CMM_ERR_CHK(HAL_TBL_REG_READ(unit, DOS_CTRL1m, 0, sizeof(dos_ctrl1_t), &dos_ctrl1), ret);
 2314              		.loc 1 403 5 discriminator 5 view .LVU543
 403:../switch_sdk/core/fal/tiger/fal_tiger_dos.c ****     CMM_ERR_CHK(HAL_TBL_REG_READ(unit, DOS_CTRL1m, 0, sizeof(dos_ctrl1_t), &dos_ctrl1), ret);
 2315              		.loc 1 403 5 discriminator 5 view .LVU544
 403:../switch_sdk/core/fal/tiger/fal_tiger_dos.c ****     CMM_ERR_CHK(HAL_TBL_REG_READ(unit, DOS_CTRL1m, 0, sizeof(dos_ctrl1_t), &dos_ctrl1), ret);
 2316              		.loc 1 403 5 discriminator 5 view .LVU545
 2317 0090 E8B2     		uxtb	r0, r5
 2318 0092 CBE7     		b	.L133
 2319              	.LVL295:
 2320              	.L164:
 403:../switch_sdk/core/fal/tiger/fal_tiger_dos.c ****     CMM_ERR_CHK(HAL_TBL_REG_READ(unit, DOS_CTRL1m, 0, sizeof(dos_ctrl1_t), &dos_ctrl1), ret);
 2321              		.loc 1 403 5 discriminator 3 view .LVU546
 2322              	.LBB24:
 403:../switch_sdk/core/fal/tiger/fal_tiger_dos.c ****     CMM_ERR_CHK(HAL_TBL_REG_READ(unit, DOS_CTRL1m, 0, sizeof(dos_ctrl1_t), &dos_ctrl1), ret);
 2323              		.loc 1 403 5 discriminator 3 view .LVU547
 2324 0094 2046     		mov	r0, r4
 2325              	.LVL296:
 403:../switch_sdk/core/fal/tiger/fal_tiger_dos.c ****     CMM_ERR_CHK(HAL_TBL_REG_READ(unit, DOS_CTRL1m, 0, sizeof(dos_ctrl1_t), &dos_ctrl1), ret);
 2326              		.loc 1 403 5 is_stmt 0 discriminator 3 view .LVU548
 2327 0096 142C     		cmp	r4, #20
 2328 0098 28BF     		it	cs
 2329 009a 1420     		movcs	r0, #20
 2330 009c 534B     		ldr	r3, .L167+4
 2331 009e 0093     		str	r3, [sp]
 2332 00a0 574B     		ldr	r3, .L167+24
 2333 00a2 544A     		ldr	r2, .L167+12
 2334 00a4 52F82020 		ldr	r2, [r2, r0, lsl #2]
 2335 00a8 5349     		ldr	r1, .L167+16
 2336 00aa 8968     		ldr	r1, [r1, #8]
 2337 00ac 5348     		ldr	r0, .L167+20
 2338 00ae FFF7FEFF 		bl	osal_printf
 2339              	.LVL297:
 2340 00b2 EDE7     		b	.L138
 2341              	.LVL298:
 2342              	.L155:
 403:../switch_sdk/core/fal/tiger/fal_tiger_dos.c ****     CMM_ERR_CHK(HAL_TBL_REG_READ(unit, DOS_CTRL1m, 0, sizeof(dos_ctrl1_t), &dos_ctrl1), ret);
 2343              		.loc 1 403 5 discriminator 3 view .LVU549
 2344              	.LBE24:
 408:../switch_sdk/core/fal/tiger/fal_tiger_dos.c ****             break;
 2345              		.loc 1 408 13 is_stmt 1 view .LVU550
 2346              	.LBB25:
 408:../switch_sdk/core/fal/tiger/fal_tiger_dos.c ****             break;
 2347              		.loc 1 408 13 view .LVU551
 408:../switch_sdk/core/fal/tiger/fal_tiger_dos.c ****             break;
 2348              		.loc 1 408 13 view .LVU552
 2349 00b4 03AB     		add	r3, sp, #12
 2350 00b6 05AA     		add	r2, sp, #20
 2351 00b8 1321     		movs	r1, #19
 2352 00ba 2720     		movs	r0, #39
 2353              	.LVL299:
 408:../switch_sdk/core/fal/tiger/fal_tiger_dos.c ****             break;
 2354              		.loc 1 408 13 is_stmt 0 view .LVU553
 2355 00bc FFF7FEFF 		bl	hal_tbl_reg_field_get
 2356              	.LVL300:
 408:../switch_sdk/core/fal/tiger/fal_tiger_dos.c ****             break;
 2357              		.loc 1 408 13 is_stmt 1 view .LVU554
 2358 00c0 039B     		ldr	r3, [sp, #12]
 2359              	.LVL301:
 408:../switch_sdk/core/fal/tiger/fal_tiger_dos.c ****             break;
 2360              		.loc 1 408 13 is_stmt 0 view .LVU555
 2361              	.LBE25:
 408:../switch_sdk/core/fal/tiger/fal_tiger_dos.c ****             break;
 2362              		.loc 1 408 13 is_stmt 1 view .LVU556
 409:../switch_sdk/core/fal/tiger/fal_tiger_dos.c ****         case DOS_TYPE_LAND:
 2363              		.loc 1 409 13 view .LVU557
 2364              	.L139:
 475:../switch_sdk/core/fal/tiger/fal_tiger_dos.c **** 
 2365              		.loc 1 475 5 view .LVU558
 475:../switch_sdk/core/fal/tiger/fal_tiger_dos.c **** 
 2366              		.loc 1 475 35 is_stmt 0 view .LVU559
 2367 00c2 003B     		subs	r3, r3, #0
 475:../switch_sdk/core/fal/tiger/fal_tiger_dos.c **** 
 2368              		.loc 1 475 35 view .LVU560
 2369 00c4 18BF     		it	ne
 2370 00c6 0123     		movne	r3, #1
 2371              	.LVL302:
 475:../switch_sdk/core/fal/tiger/fal_tiger_dos.c **** 
 2372              		.loc 1 475 14 view .LVU561
 2373 00c8 88F80030 		strb	r3, [r8]
 477:../switch_sdk/core/fal/tiger/fal_tiger_dos.c **** }
 2374              		.loc 1 477 5 is_stmt 1 view .LVU562
 477:../switch_sdk/core/fal/tiger/fal_tiger_dos.c **** }
 2375              		.loc 1 477 12 is_stmt 0 view .LVU563
 2376 00cc 2046     		mov	r0, r4
 2377 00ce ADE7     		b	.L133
 2378              	.LVL303:
 2379              	.L154:
 411:../switch_sdk/core/fal/tiger/fal_tiger_dos.c ****             break;
 2380              		.loc 1 411 13 is_stmt 1 view .LVU564
 2381              	.LBB26:
 411:../switch_sdk/core/fal/tiger/fal_tiger_dos.c ****             break;
 2382              		.loc 1 411 13 view .LVU565
 411:../switch_sdk/core/fal/tiger/fal_tiger_dos.c ****             break;
 2383              		.loc 1 411 13 view .LVU566
 2384 00d0 03AB     		add	r3, sp, #12
 2385 00d2 05AA     		add	r2, sp, #20
 2386 00d4 1221     		movs	r1, #18
 2387 00d6 2720     		movs	r0, #39
 2388              	.LVL304:
 411:../switch_sdk/core/fal/tiger/fal_tiger_dos.c ****             break;
 2389              		.loc 1 411 13 is_stmt 0 view .LVU567
 2390 00d8 FFF7FEFF 		bl	hal_tbl_reg_field_get
 2391              	.LVL305:
 411:../switch_sdk/core/fal/tiger/fal_tiger_dos.c ****             break;
 2392              		.loc 1 411 13 is_stmt 1 view .LVU568
 2393 00dc 039B     		ldr	r3, [sp, #12]
 2394              	.LVL306:
 411:../switch_sdk/core/fal/tiger/fal_tiger_dos.c ****             break;
 2395              		.loc 1 411 13 is_stmt 0 view .LVU569
 2396              	.LBE26:
 411:../switch_sdk/core/fal/tiger/fal_tiger_dos.c ****             break;
 2397              		.loc 1 411 13 is_stmt 1 view .LVU570
 412:../switch_sdk/core/fal/tiger/fal_tiger_dos.c ****         case DOS_TYPE_ICMP_PRAG:
 2398              		.loc 1 412 13 view .LVU571
 2399 00de F0E7     		b	.L139
 2400              	.LVL307:
 2401              	.L153:
 414:../switch_sdk/core/fal/tiger/fal_tiger_dos.c ****             break;
 2402              		.loc 1 414 13 view .LVU572
 2403              	.LBB27:
 414:../switch_sdk/core/fal/tiger/fal_tiger_dos.c ****             break;
 2404              		.loc 1 414 13 view .LVU573
 414:../switch_sdk/core/fal/tiger/fal_tiger_dos.c ****             break;
 2405              		.loc 1 414 13 view .LVU574
 2406 00e0 03AB     		add	r3, sp, #12
 2407 00e2 05AA     		add	r2, sp, #20
 2408 00e4 1121     		movs	r1, #17
 2409 00e6 2720     		movs	r0, #39
 2410              	.LVL308:
 414:../switch_sdk/core/fal/tiger/fal_tiger_dos.c ****             break;
 2411              		.loc 1 414 13 is_stmt 0 view .LVU575
 2412 00e8 FFF7FEFF 		bl	hal_tbl_reg_field_get
 2413              	.LVL309:
 414:../switch_sdk/core/fal/tiger/fal_tiger_dos.c ****             break;
 2414              		.loc 1 414 13 is_stmt 1 view .LVU576
 2415 00ec 039B     		ldr	r3, [sp, #12]
 2416              	.LVL310:
 414:../switch_sdk/core/fal/tiger/fal_tiger_dos.c ****             break;
 2417              		.loc 1 414 13 is_stmt 0 view .LVU577
 2418              	.LBE27:
 414:../switch_sdk/core/fal/tiger/fal_tiger_dos.c ****             break;
 2419              		.loc 1 414 13 is_stmt 1 view .LVU578
 415:../switch_sdk/core/fal/tiger/fal_tiger_dos.c ****         case DOS_TYPE_TCP_FRAG_OFFSET:
 2420              		.loc 1 415 13 view .LVU579
 2421 00ee E8E7     		b	.L139
 2422              	.LVL311:
 2423              	.L152:
 417:../switch_sdk/core/fal/tiger/fal_tiger_dos.c ****             break;
 2424              		.loc 1 417 13 view .LVU580
 2425              	.LBB28:
 417:../switch_sdk/core/fal/tiger/fal_tiger_dos.c ****             break;
 2426              		.loc 1 417 13 view .LVU581
 417:../switch_sdk/core/fal/tiger/fal_tiger_dos.c ****             break;
 2427              		.loc 1 417 13 view .LVU582
 2428 00f0 03AB     		add	r3, sp, #12
 2429 00f2 05AA     		add	r2, sp, #20
 2430 00f4 0E21     		movs	r1, #14
 2431 00f6 2720     		movs	r0, #39
 2432              	.LVL312:
 417:../switch_sdk/core/fal/tiger/fal_tiger_dos.c ****             break;
 2433              		.loc 1 417 13 is_stmt 0 view .LVU583
 2434 00f8 FFF7FEFF 		bl	hal_tbl_reg_field_get
 2435              	.LVL313:
 417:../switch_sdk/core/fal/tiger/fal_tiger_dos.c ****             break;
 2436              		.loc 1 417 13 is_stmt 1 view .LVU584
 2437 00fc 039B     		ldr	r3, [sp, #12]
 2438              	.LVL314:
 417:../switch_sdk/core/fal/tiger/fal_tiger_dos.c ****             break;
 2439              		.loc 1 417 13 is_stmt 0 view .LVU585
 2440              	.LBE28:
 417:../switch_sdk/core/fal/tiger/fal_tiger_dos.c ****             break;
 2441              		.loc 1 417 13 is_stmt 1 view .LVU586
 418:../switch_sdk/core/fal/tiger/fal_tiger_dos.c ****         case DOS_TYPE_LARGE_ICMPV4:
 2442              		.loc 1 418 13 view .LVU587
 2443 00fe E0E7     		b	.L139
 2444              	.LVL315:
 2445              	.L151:
 420:../switch_sdk/core/fal/tiger/fal_tiger_dos.c ****             break;
 2446              		.loc 1 420 13 view .LVU588
 2447              	.LBB29:
 420:../switch_sdk/core/fal/tiger/fal_tiger_dos.c ****             break;
 2448              		.loc 1 420 13 view .LVU589
 420:../switch_sdk/core/fal/tiger/fal_tiger_dos.c ****             break;
 2449              		.loc 1 420 13 view .LVU590
 2450 0100 03AB     		add	r3, sp, #12
 2451 0102 05AA     		add	r2, sp, #20
 2452 0104 0D21     		movs	r1, #13
 2453 0106 2720     		movs	r0, #39
 2454              	.LVL316:
 420:../switch_sdk/core/fal/tiger/fal_tiger_dos.c ****             break;
 2455              		.loc 1 420 13 is_stmt 0 view .LVU591
 2456 0108 FFF7FEFF 		bl	hal_tbl_reg_field_get
 2457              	.LVL317:
 420:../switch_sdk/core/fal/tiger/fal_tiger_dos.c ****             break;
 2458              		.loc 1 420 13 is_stmt 1 view .LVU592
 2459 010c 039B     		ldr	r3, [sp, #12]
 2460              	.LVL318:
 420:../switch_sdk/core/fal/tiger/fal_tiger_dos.c ****             break;
 2461              		.loc 1 420 13 is_stmt 0 view .LVU593
 2462              	.LBE29:
 420:../switch_sdk/core/fal/tiger/fal_tiger_dos.c ****             break;
 2463              		.loc 1 420 13 is_stmt 1 view .LVU594
 421:../switch_sdk/core/fal/tiger/fal_tiger_dos.c ****         case DOS_TYPE_LARGE_ICMPV6:
 2464              		.loc 1 421 13 view .LVU595
 2465 010e D8E7     		b	.L139
 2466              	.LVL319:
 2467              	.L150:
 423:../switch_sdk/core/fal/tiger/fal_tiger_dos.c ****             break;
 2468              		.loc 1 423 13 view .LVU596
 2469              	.LBB30:
 423:../switch_sdk/core/fal/tiger/fal_tiger_dos.c ****             break;
 2470              		.loc 1 423 13 view .LVU597
 423:../switch_sdk/core/fal/tiger/fal_tiger_dos.c ****             break;
 2471              		.loc 1 423 13 view .LVU598
 2472 0110 03AB     		add	r3, sp, #12
 2473 0112 05AA     		add	r2, sp, #20
 2474 0114 0C21     		movs	r1, #12
 2475 0116 2720     		movs	r0, #39
 2476              	.LVL320:
 423:../switch_sdk/core/fal/tiger/fal_tiger_dos.c ****             break;
 2477              		.loc 1 423 13 is_stmt 0 view .LVU599
 2478 0118 FFF7FEFF 		bl	hal_tbl_reg_field_get
 2479              	.LVL321:
 423:../switch_sdk/core/fal/tiger/fal_tiger_dos.c ****             break;
 2480              		.loc 1 423 13 is_stmt 1 view .LVU600
 2481 011c 039B     		ldr	r3, [sp, #12]
 2482              	.LVL322:
 423:../switch_sdk/core/fal/tiger/fal_tiger_dos.c ****             break;
 2483              		.loc 1 423 13 is_stmt 0 view .LVU601
 2484              	.LBE30:
 423:../switch_sdk/core/fal/tiger/fal_tiger_dos.c ****             break;
 2485              		.loc 1 423 13 is_stmt 1 view .LVU602
 424:../switch_sdk/core/fal/tiger/fal_tiger_dos.c ****         case DOS_TYPE_TCP_HEADER_PARTIAL:
 2486              		.loc 1 424 13 view .LVU603
 2487 011e D0E7     		b	.L139
 2488              	.LVL323:
 2489              	.L149:
 426:../switch_sdk/core/fal/tiger/fal_tiger_dos.c ****             break;
 2490              		.loc 1 426 13 view .LVU604
 2491              	.LBB31:
 426:../switch_sdk/core/fal/tiger/fal_tiger_dos.c ****             break;
 2492              		.loc 1 426 13 view .LVU605
 426:../switch_sdk/core/fal/tiger/fal_tiger_dos.c ****             break;
 2493              		.loc 1 426 13 view .LVU606
 2494 0120 03AB     		add	r3, sp, #12
 2495 0122 05AA     		add	r2, sp, #20
 2496 0124 0B21     		movs	r1, #11
 2497 0126 2720     		movs	r0, #39
 2498              	.LVL324:
 426:../switch_sdk/core/fal/tiger/fal_tiger_dos.c ****             break;
 2499              		.loc 1 426 13 is_stmt 0 view .LVU607
 2500 0128 FFF7FEFF 		bl	hal_tbl_reg_field_get
 2501              	.LVL325:
 426:../switch_sdk/core/fal/tiger/fal_tiger_dos.c ****             break;
 2502              		.loc 1 426 13 is_stmt 1 view .LVU608
 2503 012c 039B     		ldr	r3, [sp, #12]
 2504              	.LVL326:
 426:../switch_sdk/core/fal/tiger/fal_tiger_dos.c ****             break;
 2505              		.loc 1 426 13 is_stmt 0 view .LVU609
 2506              	.LBE31:
 426:../switch_sdk/core/fal/tiger/fal_tiger_dos.c ****             break;
 2507              		.loc 1 426 13 is_stmt 1 view .LVU610
 427:../switch_sdk/core/fal/tiger/fal_tiger_dos.c ****         case DOS_TYPE_CFI_MISMATCH_DROP:
 2508              		.loc 1 427 13 view .LVU611
 2509 012e C8E7     		b	.L139
 2510              	.LVL327:
 2511              	.L148:
 429:../switch_sdk/core/fal/tiger/fal_tiger_dos.c ****             break;
 2512              		.loc 1 429 13 view .LVU612
 2513              	.LBB32:
 429:../switch_sdk/core/fal/tiger/fal_tiger_dos.c ****             break;
 2514              		.loc 1 429 13 view .LVU613
 429:../switch_sdk/core/fal/tiger/fal_tiger_dos.c ****             break;
 2515              		.loc 1 429 13 view .LVU614
 2516 0130 03AB     		add	r3, sp, #12
 2517 0132 05AA     		add	r2, sp, #20
 2518 0134 0021     		movs	r1, #0
 2519 0136 2720     		movs	r0, #39
 2520              	.LVL328:
 429:../switch_sdk/core/fal/tiger/fal_tiger_dos.c ****             break;
 2521              		.loc 1 429 13 is_stmt 0 view .LVU615
 2522 0138 FFF7FEFF 		bl	hal_tbl_reg_field_get
 2523              	.LVL329:
 429:../switch_sdk/core/fal/tiger/fal_tiger_dos.c ****             break;
 2524              		.loc 1 429 13 is_stmt 1 view .LVU616
 2525 013c 039B     		ldr	r3, [sp, #12]
 2526              	.LVL330:
 429:../switch_sdk/core/fal/tiger/fal_tiger_dos.c ****             break;
 2527              		.loc 1 429 13 is_stmt 0 view .LVU617
 2528              	.LBE32:
 429:../switch_sdk/core/fal/tiger/fal_tiger_dos.c ****             break;
 2529              		.loc 1 429 13 is_stmt 1 view .LVU618
 430:../switch_sdk/core/fal/tiger/fal_tiger_dos.c ****         case DOS_TYPE_UDP_SPORT_EQ_DPORT:
 2530              		.loc 1 430 13 view .LVU619
 2531 013e C0E7     		b	.L139
 2532              	.LVL331:
 2533              	.L142:
 432:../switch_sdk/core/fal/tiger/fal_tiger_dos.c ****             {
 2534              		.loc 1 432 13 view .LVU620
 432:../switch_sdk/core/fal/tiger/fal_tiger_dos.c ****             {
 2535              		.loc 1 432 17 is_stmt 0 view .LVU621
 2536 0140 304B     		ldr	r3, .L167+28
 2537 0142 53F82730 		ldr	r3, [r3, r7, lsl #2]
 2538 0146 9B78     		ldrb	r3, [r3, #2]	@ zero_extendqisi2
 432:../switch_sdk/core/fal/tiger/fal_tiger_dos.c ****             {
 2539              		.loc 1 432 16 view .LVU622
 2540 0148 012B     		cmp	r3, #1
 2541 014a 03D0     		beq	.L165
 436:../switch_sdk/core/fal/tiger/fal_tiger_dos.c ****             {
 2542              		.loc 1 436 18 is_stmt 1 view .LVU623
 436:../switch_sdk/core/fal/tiger/fal_tiger_dos.c ****             {
 2543              		.loc 1 436 21 is_stmt 0 view .LVU624
 2544 014c 002B     		cmp	r3, #0
 2545 014e 44D0     		beq	.L159
 399:../switch_sdk/core/fal/tiger/fal_tiger_dos.c ****     cmm_err_t ret = CMM_ERR_OK;
 2546              		.loc 1 399 14 view .LVU625
 2547 0150 0023     		movs	r3, #0
 2548 0152 B6E7     		b	.L139
 2549              	.L165:
 434:../switch_sdk/core/fal/tiger/fal_tiger_dos.c ****             }
 2550              		.loc 1 434 17 is_stmt 1 view .LVU626
 2551              	.LBB33:
 434:../switch_sdk/core/fal/tiger/fal_tiger_dos.c ****             }
 2552              		.loc 1 434 17 view .LVU627
 434:../switch_sdk/core/fal/tiger/fal_tiger_dos.c ****             }
 2553              		.loc 1 434 17 view .LVU628
 2554 0154 03AB     		add	r3, sp, #12
 2555 0156 05AA     		add	r2, sp, #20
 2556 0158 1021     		movs	r1, #16
 2557 015a 2720     		movs	r0, #39
 2558              	.LVL332:
 434:../switch_sdk/core/fal/tiger/fal_tiger_dos.c ****             }
 2559              		.loc 1 434 17 is_stmt 0 view .LVU629
 2560 015c FFF7FEFF 		bl	hal_tbl_reg_field_get
 2561              	.LVL333:
 434:../switch_sdk/core/fal/tiger/fal_tiger_dos.c ****             }
 2562              		.loc 1 434 17 is_stmt 1 view .LVU630
 2563 0160 039B     		ldr	r3, [sp, #12]
 2564              	.LVL334:
 434:../switch_sdk/core/fal/tiger/fal_tiger_dos.c ****             }
 2565              		.loc 1 434 17 is_stmt 0 view .LVU631
 2566              	.LBE33:
 434:../switch_sdk/core/fal/tiger/fal_tiger_dos.c ****             }
 2567              		.loc 1 434 17 is_stmt 1 view .LVU632
 2568 0162 AEE7     		b	.L139
 2569              	.LVL335:
 2570              	.L140:
 442:../switch_sdk/core/fal/tiger/fal_tiger_dos.c ****             {
 2571              		.loc 1 442 13 view .LVU633
 442:../switch_sdk/core/fal/tiger/fal_tiger_dos.c ****             {
 2572              		.loc 1 442 17 is_stmt 0 view .LVU634
 2573 0164 274B     		ldr	r3, .L167+28
 2574 0166 53F82730 		ldr	r3, [r3, r7, lsl #2]
 2575 016a 9B78     		ldrb	r3, [r3, #2]	@ zero_extendqisi2
 442:../switch_sdk/core/fal/tiger/fal_tiger_dos.c ****             {
 2576              		.loc 1 442 16 view .LVU635
 2577 016c 012B     		cmp	r3, #1
 2578 016e 03D0     		beq	.L166
 446:../switch_sdk/core/fal/tiger/fal_tiger_dos.c ****             {
 2579              		.loc 1 446 18 is_stmt 1 view .LVU636
 446:../switch_sdk/core/fal/tiger/fal_tiger_dos.c ****             {
 2580              		.loc 1 446 21 is_stmt 0 view .LVU637
 2581 0170 002B     		cmp	r3, #0
 2582 0172 35D0     		beq	.L160
 399:../switch_sdk/core/fal/tiger/fal_tiger_dos.c ****     cmm_err_t ret = CMM_ERR_OK;
 2583              		.loc 1 399 14 view .LVU638
 2584 0174 0023     		movs	r3, #0
 2585 0176 A4E7     		b	.L139
 2586              	.L166:
 444:../switch_sdk/core/fal/tiger/fal_tiger_dos.c ****             }
 2587              		.loc 1 444 17 is_stmt 1 view .LVU639
 2588              	.LBB34:
 444:../switch_sdk/core/fal/tiger/fal_tiger_dos.c ****             }
 2589              		.loc 1 444 17 view .LVU640
 444:../switch_sdk/core/fal/tiger/fal_tiger_dos.c ****             }
 2590              		.loc 1 444 17 view .LVU641
 2591 0178 03AB     		add	r3, sp, #12
 2592 017a 05AA     		add	r2, sp, #20
 2593 017c 0F21     		movs	r1, #15
 2594 017e 2720     		movs	r0, #39
 2595              	.LVL336:
 444:../switch_sdk/core/fal/tiger/fal_tiger_dos.c ****             }
 2596              		.loc 1 444 17 is_stmt 0 view .LVU642
 2597 0180 FFF7FEFF 		bl	hal_tbl_reg_field_get
 2598              	.LVL337:
 444:../switch_sdk/core/fal/tiger/fal_tiger_dos.c ****             }
 2599              		.loc 1 444 17 is_stmt 1 view .LVU643
 2600 0184 039B     		ldr	r3, [sp, #12]
 2601              	.LVL338:
 444:../switch_sdk/core/fal/tiger/fal_tiger_dos.c ****             }
 2602              		.loc 1 444 17 is_stmt 0 view .LVU644
 2603              	.LBE34:
 444:../switch_sdk/core/fal/tiger/fal_tiger_dos.c ****             }
 2604              		.loc 1 444 17 is_stmt 1 view .LVU645
 2605 0186 9CE7     		b	.L139
 2606              	.LVL339:
 2607              	.L147:
 452:../switch_sdk/core/fal/tiger/fal_tiger_dos.c ****             break;
 2608              		.loc 1 452 13 view .LVU646
 2609              	.LBB35:
 452:../switch_sdk/core/fal/tiger/fal_tiger_dos.c ****             break;
 2610              		.loc 1 452 13 view .LVU647
 452:../switch_sdk/core/fal/tiger/fal_tiger_dos.c ****             break;
 2611              		.loc 1 452 13 view .LVU648
 2612 0188 03AB     		add	r3, sp, #12
 2613 018a 04AA     		add	r2, sp, #16
 2614 018c 0321     		movs	r1, #3
 2615 018e 2B20     		movs	r0, #43
 2616              	.LVL340:
 452:../switch_sdk/core/fal/tiger/fal_tiger_dos.c ****             break;
 2617              		.loc 1 452 13 is_stmt 0 view .LVU649
 2618 0190 FFF7FEFF 		bl	hal_tbl_reg_field_get
 2619              	.LVL341:
 452:../switch_sdk/core/fal/tiger/fal_tiger_dos.c ****             break;
 2620              		.loc 1 452 13 is_stmt 1 view .LVU650
 2621 0194 039B     		ldr	r3, [sp, #12]
 2622              	.LVL342:
 452:../switch_sdk/core/fal/tiger/fal_tiger_dos.c ****             break;
 2623              		.loc 1 452 13 is_stmt 0 view .LVU651
 2624              	.LBE35:
 452:../switch_sdk/core/fal/tiger/fal_tiger_dos.c ****             break;
 2625              		.loc 1 452 13 is_stmt 1 view .LVU652
 453:../switch_sdk/core/fal/tiger/fal_tiger_dos.c ****         case DOS_TYPE_SA_BC_DROP:
 2626              		.loc 1 453 13 view .LVU653
 2627 0196 94E7     		b	.L139
 2628              	.LVL343:
 2629              	.L146:
 455:../switch_sdk/core/fal/tiger/fal_tiger_dos.c ****             break;
 2630              		.loc 1 455 13 view .LVU654
 2631              	.LBB36:
 455:../switch_sdk/core/fal/tiger/fal_tiger_dos.c ****             break;
 2632              		.loc 1 455 13 view .LVU655
 455:../switch_sdk/core/fal/tiger/fal_tiger_dos.c ****             break;
 2633              		.loc 1 455 13 view .LVU656
 2634 0198 03AB     		add	r3, sp, #12
 2635 019a 04AA     		add	r2, sp, #16
 2636 019c 0221     		movs	r1, #2
 2637 019e 2B20     		movs	r0, #43
 2638              	.LVL344:
 455:../switch_sdk/core/fal/tiger/fal_tiger_dos.c ****             break;
 2639              		.loc 1 455 13 is_stmt 0 view .LVU657
 2640 01a0 FFF7FEFF 		bl	hal_tbl_reg_field_get
 2641              	.LVL345:
 455:../switch_sdk/core/fal/tiger/fal_tiger_dos.c ****             break;
 2642              		.loc 1 455 13 is_stmt 1 view .LVU658
 2643 01a4 039B     		ldr	r3, [sp, #12]
 2644              	.LVL346:
 455:../switch_sdk/core/fal/tiger/fal_tiger_dos.c ****             break;
 2645              		.loc 1 455 13 is_stmt 0 view .LVU659
 2646              	.LBE36:
 455:../switch_sdk/core/fal/tiger/fal_tiger_dos.c ****             break;
 2647              		.loc 1 455 13 is_stmt 1 view .LVU660
 456:../switch_sdk/core/fal/tiger/fal_tiger_dos.c ****         case DOS_TYPE_SA_ZERO_DROP:
 2648              		.loc 1 456 13 view .LVU661
 2649 01a6 8CE7     		b	.L139
 2650              	.LVL347:
 2651              	.L145:
 458:../switch_sdk/core/fal/tiger/fal_tiger_dos.c ****             break;
 2652              		.loc 1 458 13 view .LVU662
 2653              	.LBB37:
 458:../switch_sdk/core/fal/tiger/fal_tiger_dos.c ****             break;
 2654              		.loc 1 458 13 view .LVU663
 458:../switch_sdk/core/fal/tiger/fal_tiger_dos.c ****             break;
 2655              		.loc 1 458 13 view .LVU664
 2656 01a8 03AB     		add	r3, sp, #12
 2657 01aa 04AA     		add	r2, sp, #16
 2658 01ac 0121     		movs	r1, #1
 2659 01ae 2B20     		movs	r0, #43
 2660              	.LVL348:
 458:../switch_sdk/core/fal/tiger/fal_tiger_dos.c ****             break;
 2661              		.loc 1 458 13 is_stmt 0 view .LVU665
 2662 01b0 FFF7FEFF 		bl	hal_tbl_reg_field_get
 2663              	.LVL349:
 458:../switch_sdk/core/fal/tiger/fal_tiger_dos.c ****             break;
 2664              		.loc 1 458 13 is_stmt 1 view .LVU666
 2665 01b4 039B     		ldr	r3, [sp, #12]
 2666              	.LVL350:
 458:../switch_sdk/core/fal/tiger/fal_tiger_dos.c ****             break;
 2667              		.loc 1 458 13 is_stmt 0 view .LVU667
 2668              	.LBE37:
 458:../switch_sdk/core/fal/tiger/fal_tiger_dos.c ****             break;
 2669              		.loc 1 458 13 is_stmt 1 view .LVU668
 459:../switch_sdk/core/fal/tiger/fal_tiger_dos.c ****         case DOS_TYPE_DA_ZERO_DROP:
 2670              		.loc 1 459 13 view .LVU669
 2671 01b6 84E7     		b	.L139
 2672              	.LVL351:
 2673              	.L144:
 461:../switch_sdk/core/fal/tiger/fal_tiger_dos.c ****             break;
 2674              		.loc 1 461 13 view .LVU670
 2675              	.LBB38:
 461:../switch_sdk/core/fal/tiger/fal_tiger_dos.c ****             break;
 2676              		.loc 1 461 13 view .LVU671
 461:../switch_sdk/core/fal/tiger/fal_tiger_dos.c ****             break;
 2677              		.loc 1 461 13 view .LVU672
 2678 01b8 03AB     		add	r3, sp, #12
 2679 01ba 04AA     		add	r2, sp, #16
 2680 01bc 0021     		movs	r1, #0
 2681 01be 2B20     		movs	r0, #43
 2682              	.LVL352:
 461:../switch_sdk/core/fal/tiger/fal_tiger_dos.c ****             break;
 2683              		.loc 1 461 13 is_stmt 0 view .LVU673
 2684 01c0 FFF7FEFF 		bl	hal_tbl_reg_field_get
 2685              	.LVL353:
 461:../switch_sdk/core/fal/tiger/fal_tiger_dos.c ****             break;
 2686              		.loc 1 461 13 is_stmt 1 view .LVU674
 2687 01c4 039B     		ldr	r3, [sp, #12]
 2688              	.LVL354:
 461:../switch_sdk/core/fal/tiger/fal_tiger_dos.c ****             break;
 2689              		.loc 1 461 13 is_stmt 0 view .LVU675
 2690              	.LBE38:
 461:../switch_sdk/core/fal/tiger/fal_tiger_dos.c ****             break;
 2691              		.loc 1 461 13 is_stmt 1 view .LVU676
 462:../switch_sdk/core/fal/tiger/fal_tiger_dos.c ****         case DOS_TYPE_TCP_SYNRST_SCAN:
 2692              		.loc 1 462 13 view .LVU677
 2693 01c6 7CE7     		b	.L139
 2694              	.LVL355:
 2695              	.L143:
 469:../switch_sdk/core/fal/tiger/fal_tiger_dos.c ****         default:
 2696              		.loc 1 469 13 view .LVU678
 469:../switch_sdk/core/fal/tiger/fal_tiger_dos.c ****         default:
 2697              		.loc 1 469 20 is_stmt 0 view .LVU679
 2698 01c8 4246     		mov	r2, r8
 2699 01ca 3146     		mov	r1, r6
 2700 01cc 3846     		mov	r0, r7
 2701              	.LVL356:
 469:../switch_sdk/core/fal/tiger/fal_tiger_dos.c ****         default:
 2702              		.loc 1 469 20 view .LVU680
 2703 01ce FFF7FEFF 		bl	fal_tiger_dos_tcp_flagsn_get
 2704              	.LVL357:
 2705 01d2 2BE7     		b	.L133
 2706              	.LVL358:
 2707              	.L158:
 405:../switch_sdk/core/fal/tiger/fal_tiger_dos.c ****     {
 2708              		.loc 1 405 5 view .LVU681
 2709 01d4 0324     		movs	r4, #3
 2710 01d6 0023     		movs	r3, #0
 2711 01d8 73E7     		b	.L139
 2712              	.L159:
 438:../switch_sdk/core/fal/tiger/fal_tiger_dos.c ****             }
 2713              		.loc 1 438 21 view .LVU682
 2714 01da 0324     		movs	r4, #3
 399:../switch_sdk/core/fal/tiger/fal_tiger_dos.c ****     cmm_err_t ret = CMM_ERR_OK;
 2715              		.loc 1 399 14 view .LVU683
 2716 01dc 0023     		movs	r3, #0
 2717 01de 70E7     		b	.L139
 2718              	.L160:
 448:../switch_sdk/core/fal/tiger/fal_tiger_dos.c ****             }
 2719              		.loc 1 448 21 view .LVU684
 2720 01e0 0324     		movs	r4, #3
 399:../switch_sdk/core/fal/tiger/fal_tiger_dos.c ****     cmm_err_t ret = CMM_ERR_OK;
 2721              		.loc 1 399 14 view .LVU685
 2722 01e2 0023     		movs	r3, #0
 2723 01e4 6DE7     		b	.L139
 2724              	.L168:
 2725 01e6 00BF     		.align	2
 2726              	.L167:
 2727 01e8 00000000 		.word	yt_debug_level
 2728 01ec 00000000 		.word	__FUNCTION__.3
 2729 01f0 00000000 		.word	.LC3
 2730 01f4 00000000 		.word	_yt_errmsg
 2731 01f8 00000000 		.word	_yt_prompt_msg
 2732 01fc 4C000000 		.word	.LC1
 2733 0200 00000000 		.word	.LC5
 2734 0204 00000000 		.word	gpSwitchUnit
 2735              		.cfi_endproc
 2736              	.LFE9:
 2738              		.section	.rodata.fal_tiger_dos_large_icmp_size_set.str1.4,"aMS",%progbits,1
 2739              		.align	2
 2740              	.LC7:
 2741 0000 68616C5F 		.ascii	"hal_table_reg_read(unit,40,0,sizeof(dos_large_icmp_"
 2741      7461626C 
 2741      655F7265 
 2741      675F7265 
 2741      61642875 
 2742 0033 6374726C 		.ascii	"ctrl_t),&dos_large_icmp_ctrl)\000"
 2742      5F74292C 
 2742      26646F73 
 2742      5F6C6172 
 2742      67655F69 
 2743 0051 000000   		.align	2
 2744              	.LC8:
 2745 0054 68616C5F 		.ascii	"hal_table_reg_write(unit,40,0,sizeof(dos_large_icmp"
 2745      7461626C 
 2745      655F7265 
 2745      675F7772 
 2745      69746528 
 2746 0087 5F637472 		.ascii	"_ctrl_t),&dos_large_icmp_ctrl)\000"
 2746      6C5F7429 
 2746      2C26646F 
 2746      735F6C61 
 2746      7267655F 
 2747              		.section	.text.fal_tiger_dos_large_icmp_size_set,"ax",%progbits
 2748              		.align	1
 2749              		.global	fal_tiger_dos_large_icmp_size_set
 2750              		.syntax unified
 2751              		.thumb
 2752              		.thumb_func
 2754              	fal_tiger_dos_large_icmp_size_set:
 2755              	.LVL359:
 2756              	.LFB10:
 479:../switch_sdk/core/fal/tiger/fal_tiger_dos.c **** 
 480:../switch_sdk/core/fal/tiger/fal_tiger_dos.c **** yt_ret_t  fal_tiger_dos_large_icmp_size_set(yt_unit_t unit, yt_dos_icmp_version_t ver, uint16_t siz
 481:../switch_sdk/core/fal/tiger/fal_tiger_dos.c **** {
 2757              		.loc 1 481 1 is_stmt 1 view -0
 2758              		.cfi_startproc
 2759              		@ args = 0, pretend = 0, frame = 8
 2760              		@ frame_needed = 0, uses_anonymous_args = 0
 482:../switch_sdk/core/fal/tiger/fal_tiger_dos.c ****     dos_large_icmp_ctrl_t dos_large_icmp_ctrl;
 2761              		.loc 1 482 5 view .LVU687
 483:../switch_sdk/core/fal/tiger/fal_tiger_dos.c ****     cmm_err_t ret = CMM_ERR_OK;
 2762              		.loc 1 483 5 view .LVU688
 484:../switch_sdk/core/fal/tiger/fal_tiger_dos.c **** 
 485:../switch_sdk/core/fal/tiger/fal_tiger_dos.c ****     if(size > 0x1FFF)
 2763              		.loc 1 485 5 view .LVU689
 2764              		.loc 1 485 7 is_stmt 0 view .LVU690
 2765 0000 B2F5005F 		cmp	r2, #8192
 2766 0004 5ED2     		bcs	.L176
 481:../switch_sdk/core/fal/tiger/fal_tiger_dos.c ****     dos_large_icmp_ctrl_t dos_large_icmp_ctrl;
 2767              		.loc 1 481 1 view .LVU691
 2768 0006 F0B5     		push	{r4, r5, r6, r7, lr}
 2769              		.cfi_def_cfa_offset 20
 2770              		.cfi_offset 4, -20
 2771              		.cfi_offset 5, -16
 2772              		.cfi_offset 6, -12
 2773              		.cfi_offset 7, -8
 2774              		.cfi_offset 14, -4
 2775 0008 85B0     		sub	sp, sp, #20
 2776              		.cfi_def_cfa_offset 40
 2777 000a 0746     		mov	r7, r0
 2778 000c 0E46     		mov	r6, r1
 2779 000e 1546     		mov	r5, r2
 486:../switch_sdk/core/fal/tiger/fal_tiger_dos.c ****         return CMM_ERR_INPUT;
 487:../switch_sdk/core/fal/tiger/fal_tiger_dos.c **** 
 488:../switch_sdk/core/fal/tiger/fal_tiger_dos.c ****     CMM_ERR_CHK(HAL_TBL_REG_READ(unit, DOS_LARGE_ICMP_CTRLm, 0, sizeof(dos_large_icmp_ctrl_t), &dos
 2780              		.loc 1 488 5 is_stmt 1 view .LVU692
 2781              		.loc 1 488 5 view .LVU693
 2782 0010 03AB     		add	r3, sp, #12
 2783 0012 0093     		str	r3, [sp]
 2784 0014 0423     		movs	r3, #4
 2785 0016 0022     		movs	r2, #0
 2786              	.LVL360:
 2787              		.loc 1 488 5 is_stmt 0 view .LVU694
 2788 0018 2821     		movs	r1, #40
 2789              	.LVL361:
 2790              		.loc 1 488 5 view .LVU695
 2791 001a FFF7FEFF 		bl	hal_table_reg_read
 2792              	.LVL362:
 2793              		.loc 1 488 5 view .LVU696
 2794 001e 0446     		mov	r4, r0
 2795              	.LVL363:
 2796              		.loc 1 488 5 view .LVU697
 2797 0020 10F0FF03 		ands	r3, r0, #255
 2798 0024 04D1     		bne	.L183
 2799              		.loc 1 488 5 is_stmt 1 discriminator 2 view .LVU698
 489:../switch_sdk/core/fal/tiger/fal_tiger_dos.c ****     
 490:../switch_sdk/core/fal/tiger/fal_tiger_dos.c ****     if(ver == DOS_ICMP_VERSION_4)
 2800              		.loc 1 490 5 discriminator 2 view .LVU699
 2801              		.loc 1 490 7 is_stmt 0 discriminator 2 view .LVU700
 2802 0026 D6B1     		cbz	r6, .L184
 491:../switch_sdk/core/fal/tiger/fal_tiger_dos.c ****     {
 492:../switch_sdk/core/fal/tiger/fal_tiger_dos.c ****         HAL_FIELD_SET(DOS_LARGE_ICMP_CTRLm, DOS_LARGE_ICMP_CTRL_IPV4_ICMP_MAX_SIZEf, &dos_large_icm
 493:../switch_sdk/core/fal/tiger/fal_tiger_dos.c ****     }
 494:../switch_sdk/core/fal/tiger/fal_tiger_dos.c ****     else if(ver == DOS_ICMP_VERSION_6)
 2803              		.loc 1 494 10 is_stmt 1 view .LVU701
 2804              		.loc 1 494 12 is_stmt 0 view .LVU702
 2805 0028 012E     		cmp	r6, #1
 2806 002a 2DD0     		beq	.L185
 495:../switch_sdk/core/fal/tiger/fal_tiger_dos.c ****     {
 496:../switch_sdk/core/fal/tiger/fal_tiger_dos.c ****         HAL_FIELD_SET(DOS_LARGE_ICMP_CTRLm, DOS_LARGE_ICMP_CTRL_IPV6_ICMP_MAX_SIZEf, &dos_large_icm
 497:../switch_sdk/core/fal/tiger/fal_tiger_dos.c ****     }
 498:../switch_sdk/core/fal/tiger/fal_tiger_dos.c ****     else
 499:../switch_sdk/core/fal/tiger/fal_tiger_dos.c ****     {
 500:../switch_sdk/core/fal/tiger/fal_tiger_dos.c ****         return CMM_ERR_INPUT;
 2807              		.loc 1 500 16 view .LVU703
 2808 002c 0520     		movs	r0, #5
 2809              	.LVL364:
 2810              		.loc 1 500 16 view .LVU704
 2811 002e 04E0     		b	.L169
 2812              	.LVL365:
 2813              	.L183:
 488:../switch_sdk/core/fal/tiger/fal_tiger_dos.c ****     
 2814              		.loc 1 488 5 is_stmt 1 discriminator 1 view .LVU705
 488:../switch_sdk/core/fal/tiger/fal_tiger_dos.c ****     
 2815              		.loc 1 488 5 discriminator 1 view .LVU706
 2816 0030 254A     		ldr	r2, .L189
 2817 0032 1278     		ldrb	r2, [r2]	@ zero_extendqisi2
 2818 0034 012A     		cmp	r2, #1
 2819 0036 02D8     		bhi	.L186
 2820              	.LVL366:
 2821              	.L172:
 488:../switch_sdk/core/fal/tiger/fal_tiger_dos.c ****     
 2822              		.loc 1 488 5 discriminator 5 view .LVU707
 488:../switch_sdk/core/fal/tiger/fal_tiger_dos.c ****     
 2823              		.loc 1 488 5 discriminator 5 view .LVU708
 488:../switch_sdk/core/fal/tiger/fal_tiger_dos.c ****     
 2824              		.loc 1 488 5 discriminator 5 view .LVU709
 2825 0038 E0B2     		uxtb	r0, r4
 2826              	.LVL367:
 2827              	.L169:
 501:../switch_sdk/core/fal/tiger/fal_tiger_dos.c ****     }
 502:../switch_sdk/core/fal/tiger/fal_tiger_dos.c ****     
 503:../switch_sdk/core/fal/tiger/fal_tiger_dos.c ****     CMM_ERR_CHK(HAL_TBL_REG_WRITE(unit, DOS_LARGE_ICMP_CTRLm, 0, sizeof(dos_large_icmp_ctrl_t), &do
 504:../switch_sdk/core/fal/tiger/fal_tiger_dos.c ****    
 505:../switch_sdk/core/fal/tiger/fal_tiger_dos.c ****     return CMM_ERR_OK;
 506:../switch_sdk/core/fal/tiger/fal_tiger_dos.c **** }
 2828              		.loc 1 506 1 is_stmt 0 view .LVU710
 2829 003a 05B0     		add	sp, sp, #20
 2830              		.cfi_remember_state
 2831              		.cfi_def_cfa_offset 20
 2832              		@ sp needed
 2833 003c F0BD     		pop	{r4, r5, r6, r7, pc}
 2834              	.LVL368:
 2835              	.L186:
 2836              		.cfi_restore_state
 488:../switch_sdk/core/fal/tiger/fal_tiger_dos.c ****     
 2837              		.loc 1 488 5 is_stmt 1 discriminator 3 view .LVU711
 2838              	.LBB39:
 488:../switch_sdk/core/fal/tiger/fal_tiger_dos.c ****     
 2839              		.loc 1 488 5 discriminator 3 view .LVU712
 2840 003e 142B     		cmp	r3, #20
 2841 0040 28BF     		it	cs
 2842 0042 1423     		movcs	r3, #20
 2843 0044 1A46     		mov	r2, r3
 2844 0046 214B     		ldr	r3, .L189+4
 2845 0048 0093     		str	r3, [sp]
 2846 004a 214B     		ldr	r3, .L189+8
 2847 004c 2149     		ldr	r1, .L189+12
 2848 004e 51F82220 		ldr	r2, [r1, r2, lsl #2]
 2849 0052 2149     		ldr	r1, .L189+16
 2850 0054 8968     		ldr	r1, [r1, #8]
 2851 0056 2148     		ldr	r0, .L189+20
 2852              	.LVL369:
 488:../switch_sdk/core/fal/tiger/fal_tiger_dos.c ****     
 2853              		.loc 1 488 5 is_stmt 0 discriminator 3 view .LVU713
 2854 0058 FFF7FEFF 		bl	osal_printf
 2855              	.LVL370:
 2856 005c ECE7     		b	.L172
 2857              	.LVL371:
 2858              	.L184:
 488:../switch_sdk/core/fal/tiger/fal_tiger_dos.c ****     
 2859              		.loc 1 488 5 discriminator 3 view .LVU714
 2860              	.LBE39:
 492:../switch_sdk/core/fal/tiger/fal_tiger_dos.c ****     }
 2861              		.loc 1 492 9 is_stmt 1 view .LVU715
 2862 005e C5F30C03 		ubfx	r3, r5, #0, #13
 2863 0062 03AA     		add	r2, sp, #12
 2864 0064 0121     		movs	r1, #1
 2865 0066 2820     		movs	r0, #40
 2866              	.LVL372:
 492:../switch_sdk/core/fal/tiger/fal_tiger_dos.c ****     }
 2867              		.loc 1 492 9 is_stmt 0 view .LVU716
 2868 0068 FFF7FEFF 		bl	hal_tbl_reg_field_set
 2869              	.LVL373:
 2870              	.L174:
 503:../switch_sdk/core/fal/tiger/fal_tiger_dos.c ****    
 2871              		.loc 1 503 5 is_stmt 1 view .LVU717
 503:../switch_sdk/core/fal/tiger/fal_tiger_dos.c ****    
 2872              		.loc 1 503 5 view .LVU718
 2873 006c 03AB     		add	r3, sp, #12
 2874 006e 0093     		str	r3, [sp]
 2875 0070 0423     		movs	r3, #4
 2876 0072 0022     		movs	r2, #0
 2877 0074 2821     		movs	r1, #40
 2878 0076 3846     		mov	r0, r7
 2879 0078 FFF7FEFF 		bl	hal_table_reg_write
 2880              	.LVL374:
 2881 007c 0446     		mov	r4, r0
 2882              	.LVL375:
 503:../switch_sdk/core/fal/tiger/fal_tiger_dos.c ****    
 2883              		.loc 1 503 5 is_stmt 0 view .LVU719
 2884 007e 10F0FF03 		ands	r3, r0, #255
 2885 0082 09D1     		bne	.L187
 505:../switch_sdk/core/fal/tiger/fal_tiger_dos.c **** }
 2886              		.loc 1 505 12 view .LVU720
 2887 0084 0020     		movs	r0, #0
 2888              	.LVL376:
 505:../switch_sdk/core/fal/tiger/fal_tiger_dos.c **** }
 2889              		.loc 1 505 12 view .LVU721
 2890 0086 D8E7     		b	.L169
 2891              	.LVL377:
 2892              	.L185:
 496:../switch_sdk/core/fal/tiger/fal_tiger_dos.c ****     }
 2893              		.loc 1 496 9 is_stmt 1 view .LVU722
 2894 0088 C5F30C03 		ubfx	r3, r5, #0, #13
 2895 008c 03AA     		add	r2, sp, #12
 2896 008e 0021     		movs	r1, #0
 2897 0090 2820     		movs	r0, #40
 2898              	.LVL378:
 496:../switch_sdk/core/fal/tiger/fal_tiger_dos.c ****     }
 2899              		.loc 1 496 9 is_stmt 0 view .LVU723
 2900 0092 FFF7FEFF 		bl	hal_tbl_reg_field_set
 2901              	.LVL379:
 2902 0096 E9E7     		b	.L174
 2903              	.LVL380:
 2904              	.L187:
 503:../switch_sdk/core/fal/tiger/fal_tiger_dos.c ****    
 2905              		.loc 1 503 5 is_stmt 1 discriminator 1 view .LVU724
 503:../switch_sdk/core/fal/tiger/fal_tiger_dos.c ****    
 2906              		.loc 1 503 5 discriminator 1 view .LVU725
 2907 0098 0B4A     		ldr	r2, .L189
 2908 009a 1278     		ldrb	r2, [r2]	@ zero_extendqisi2
 2909 009c 012A     		cmp	r2, #1
 2910 009e 01D8     		bhi	.L188
 2911              	.LVL381:
 2912              	.L175:
 503:../switch_sdk/core/fal/tiger/fal_tiger_dos.c ****    
 2913              		.loc 1 503 5 discriminator 5 view .LVU726
 503:../switch_sdk/core/fal/tiger/fal_tiger_dos.c ****    
 2914              		.loc 1 503 5 discriminator 5 view .LVU727
 503:../switch_sdk/core/fal/tiger/fal_tiger_dos.c ****    
 2915              		.loc 1 503 5 discriminator 5 view .LVU728
 2916 00a0 E0B2     		uxtb	r0, r4
 2917 00a2 CAE7     		b	.L169
 2918              	.LVL382:
 2919              	.L188:
 503:../switch_sdk/core/fal/tiger/fal_tiger_dos.c ****    
 2920              		.loc 1 503 5 discriminator 3 view .LVU729
 2921              	.LBB40:
 503:../switch_sdk/core/fal/tiger/fal_tiger_dos.c ****    
 2922              		.loc 1 503 5 discriminator 3 view .LVU730
 2923 00a4 142B     		cmp	r3, #20
 2924 00a6 28BF     		it	cs
 2925 00a8 1423     		movcs	r3, #20
 2926 00aa 1A46     		mov	r2, r3
 2927 00ac 074B     		ldr	r3, .L189+4
 2928 00ae 0093     		str	r3, [sp]
 2929 00b0 0B4B     		ldr	r3, .L189+24
 2930 00b2 0849     		ldr	r1, .L189+12
 2931 00b4 51F82220 		ldr	r2, [r1, r2, lsl #2]
 2932 00b8 0749     		ldr	r1, .L189+16
 2933 00ba 8968     		ldr	r1, [r1, #8]
 2934 00bc 0748     		ldr	r0, .L189+20
 2935              	.LVL383:
 503:../switch_sdk/core/fal/tiger/fal_tiger_dos.c ****    
 2936              		.loc 1 503 5 is_stmt 0 discriminator 3 view .LVU731
 2937 00be FFF7FEFF 		bl	osal_printf
 2938              	.LVL384:
 2939 00c2 EDE7     		b	.L175
 2940              	.LVL385:
 2941              	.L176:
 2942              		.cfi_def_cfa_offset 0
 2943              		.cfi_restore 4
 2944              		.cfi_restore 5
 2945              		.cfi_restore 6
 2946              		.cfi_restore 7
 2947              		.cfi_restore 14
 503:../switch_sdk/core/fal/tiger/fal_tiger_dos.c ****    
 2948              		.loc 1 503 5 discriminator 3 view .LVU732
 2949              	.LBE40:
 486:../switch_sdk/core/fal/tiger/fal_tiger_dos.c **** 
 2950              		.loc 1 486 16 view .LVU733
 2951 00c4 0520     		movs	r0, #5
 2952              	.LVL386:
 2953              		.loc 1 506 1 view .LVU734
 2954 00c6 7047     		bx	lr
 2955              	.L190:
 2956              		.align	2
 2957              	.L189:
 2958 00c8 00000000 		.word	yt_debug_level
 2959 00cc 00000000 		.word	__FUNCTION__.1
 2960 00d0 00000000 		.word	.LC7
 2961 00d4 00000000 		.word	_yt_errmsg
 2962 00d8 00000000 		.word	_yt_prompt_msg
 2963 00dc 4C000000 		.word	.LC1
 2964 00e0 54000000 		.word	.LC8
 2965              		.cfi_endproc
 2966              	.LFE10:
 2968              		.section	.text.fal_tiger_dos_large_icmp_size_get,"ax",%progbits
 2969              		.align	1
 2970              		.global	fal_tiger_dos_large_icmp_size_get
 2971              		.syntax unified
 2972              		.thumb
 2973              		.thumb_func
 2975              	fal_tiger_dos_large_icmp_size_get:
 2976              	.LVL387:
 2977              	.LFB11:
 507:../switch_sdk/core/fal/tiger/fal_tiger_dos.c **** 
 508:../switch_sdk/core/fal/tiger/fal_tiger_dos.c **** yt_ret_t  fal_tiger_dos_large_icmp_size_get(yt_unit_t unit, yt_dos_icmp_version_t ver, uint16_t *ps
 509:../switch_sdk/core/fal/tiger/fal_tiger_dos.c **** {
 2978              		.loc 1 509 1 is_stmt 1 view -0
 2979              		.cfi_startproc
 2980              		@ args = 0, pretend = 0, frame = 8
 2981              		@ frame_needed = 0, uses_anonymous_args = 0
 2982              		.loc 1 509 1 is_stmt 0 view .LVU736
 2983 0000 70B5     		push	{r4, r5, r6, lr}
 2984              		.cfi_def_cfa_offset 16
 2985              		.cfi_offset 4, -16
 2986              		.cfi_offset 5, -12
 2987              		.cfi_offset 6, -8
 2988              		.cfi_offset 14, -4
 2989 0002 84B0     		sub	sp, sp, #16
 2990              		.cfi_def_cfa_offset 32
 2991 0004 0D46     		mov	r5, r1
 2992 0006 1646     		mov	r6, r2
 510:../switch_sdk/core/fal/tiger/fal_tiger_dos.c ****     dos_large_icmp_ctrl_t dos_large_icmp_ctrl;
 2993              		.loc 1 510 5 is_stmt 1 view .LVU737
 511:../switch_sdk/core/fal/tiger/fal_tiger_dos.c ****     uint32_t size;
 2994              		.loc 1 511 5 view .LVU738
 512:../switch_sdk/core/fal/tiger/fal_tiger_dos.c ****     cmm_err_t ret = CMM_ERR_OK;
 2995              		.loc 1 512 5 view .LVU739
 2996              	.LVL388:
 513:../switch_sdk/core/fal/tiger/fal_tiger_dos.c **** 
 514:../switch_sdk/core/fal/tiger/fal_tiger_dos.c ****     CMM_ERR_CHK(HAL_TBL_REG_READ(unit, DOS_LARGE_ICMP_CTRLm, 0, sizeof(dos_large_icmp_ctrl_t), &dos
 2997              		.loc 1 514 5 view .LVU740
 2998              		.loc 1 514 5 view .LVU741
 2999 0008 03AB     		add	r3, sp, #12
 3000 000a 0093     		str	r3, [sp]
 3001 000c 0423     		movs	r3, #4
 3002 000e 0022     		movs	r2, #0
 3003              	.LVL389:
 3004              		.loc 1 514 5 is_stmt 0 view .LVU742
 3005 0010 2821     		movs	r1, #40
 3006              	.LVL390:
 3007              		.loc 1 514 5 view .LVU743
 3008 0012 FFF7FEFF 		bl	hal_table_reg_read
 3009              	.LVL391:
 3010              		.loc 1 514 5 view .LVU744
 3011 0016 10F0FF03 		ands	r3, r0, #255
 3012 001a 04D1     		bne	.L199
 3013              		.loc 1 514 5 is_stmt 1 discriminator 2 view .LVU745
 515:../switch_sdk/core/fal/tiger/fal_tiger_dos.c ****     
 516:../switch_sdk/core/fal/tiger/fal_tiger_dos.c ****     if(ver == DOS_ICMP_VERSION_4)
 3014              		.loc 1 516 5 discriminator 2 view .LVU746
 3015              		.loc 1 516 7 is_stmt 0 discriminator 2 view .LVU747
 3016 001c D5B1     		cbz	r5, .L200
 517:../switch_sdk/core/fal/tiger/fal_tiger_dos.c ****     {
 518:../switch_sdk/core/fal/tiger/fal_tiger_dos.c ****         HAL_FIELD_GET(DOS_LARGE_ICMP_CTRLm, DOS_LARGE_ICMP_CTRL_IPV4_ICMP_MAX_SIZEf, &dos_large_icm
 519:../switch_sdk/core/fal/tiger/fal_tiger_dos.c ****     }
 520:../switch_sdk/core/fal/tiger/fal_tiger_dos.c ****     else if(ver == DOS_ICMP_VERSION_6)
 3017              		.loc 1 520 10 is_stmt 1 view .LVU748
 3018              		.loc 1 520 12 is_stmt 0 view .LVU749
 3019 001e 012D     		cmp	r5, #1
 3020 0020 23D0     		beq	.L201
 521:../switch_sdk/core/fal/tiger/fal_tiger_dos.c ****     {
 522:../switch_sdk/core/fal/tiger/fal_tiger_dos.c ****         HAL_FIELD_GET(DOS_LARGE_ICMP_CTRLm, DOS_LARGE_ICMP_CTRL_IPV6_ICMP_MAX_SIZEf, &dos_large_icm
 523:../switch_sdk/core/fal/tiger/fal_tiger_dos.c ****     }
 524:../switch_sdk/core/fal/tiger/fal_tiger_dos.c ****     else
 525:../switch_sdk/core/fal/tiger/fal_tiger_dos.c ****     {
 526:../switch_sdk/core/fal/tiger/fal_tiger_dos.c ****         return CMM_ERR_INPUT;
 3021              		.loc 1 526 16 view .LVU750
 3022 0022 0520     		movs	r0, #5
 3023              	.LVL392:
 3024              		.loc 1 526 16 view .LVU751
 3025 0024 1FE0     		b	.L191
 3026              	.LVL393:
 3027              	.L199:
 3028              		.loc 1 526 16 view .LVU752
 3029 0026 0446     		mov	r4, r0
 514:../switch_sdk/core/fal/tiger/fal_tiger_dos.c ****     
 3030              		.loc 1 514 5 is_stmt 1 discriminator 1 view .LVU753
 514:../switch_sdk/core/fal/tiger/fal_tiger_dos.c ****     
 3031              		.loc 1 514 5 discriminator 1 view .LVU754
 3032 0028 144A     		ldr	r2, .L203
 3033 002a 1278     		ldrb	r2, [r2]	@ zero_extendqisi2
 3034 002c 012A     		cmp	r2, #1
 3035 002e 01D8     		bhi	.L202
 3036              	.LVL394:
 3037              	.L193:
 514:../switch_sdk/core/fal/tiger/fal_tiger_dos.c ****     
 3038              		.loc 1 514 5 discriminator 5 view .LVU755
 514:../switch_sdk/core/fal/tiger/fal_tiger_dos.c ****     
 3039              		.loc 1 514 5 discriminator 5 view .LVU756
 514:../switch_sdk/core/fal/tiger/fal_tiger_dos.c ****     
 3040              		.loc 1 514 5 discriminator 5 view .LVU757
 3041 0030 E0B2     		uxtb	r0, r4
 3042 0032 18E0     		b	.L191
 3043              	.LVL395:
 3044              	.L202:
 514:../switch_sdk/core/fal/tiger/fal_tiger_dos.c ****     
 3045              		.loc 1 514 5 discriminator 3 view .LVU758
 3046              	.LBB41:
 514:../switch_sdk/core/fal/tiger/fal_tiger_dos.c ****     
 3047              		.loc 1 514 5 discriminator 3 view .LVU759
 3048 0034 142B     		cmp	r3, #20
 3049 0036 28BF     		it	cs
 3050 0038 1423     		movcs	r3, #20
 3051 003a 1A46     		mov	r2, r3
 3052 003c 104B     		ldr	r3, .L203+4
 3053 003e 0093     		str	r3, [sp]
 3054 0040 104B     		ldr	r3, .L203+8
 3055 0042 1149     		ldr	r1, .L203+12
 3056 0044 51F82220 		ldr	r2, [r1, r2, lsl #2]
 3057 0048 1049     		ldr	r1, .L203+16
 3058 004a 8968     		ldr	r1, [r1, #8]
 3059 004c 1048     		ldr	r0, .L203+20
 3060              	.LVL396:
 514:../switch_sdk/core/fal/tiger/fal_tiger_dos.c ****     
 3061              		.loc 1 514 5 is_stmt 0 discriminator 3 view .LVU760
 3062 004e FFF7FEFF 		bl	osal_printf
 3063              	.LVL397:
 3064 0052 EDE7     		b	.L193
 3065              	.LVL398:
 3066              	.L200:
 514:../switch_sdk/core/fal/tiger/fal_tiger_dos.c ****     
 3067              		.loc 1 514 5 discriminator 3 view .LVU761
 3068              	.LBE41:
 518:../switch_sdk/core/fal/tiger/fal_tiger_dos.c ****     }
 3069              		.loc 1 518 9 is_stmt 1 view .LVU762
 3070              	.LBB42:
 518:../switch_sdk/core/fal/tiger/fal_tiger_dos.c ****     }
 3071              		.loc 1 518 9 view .LVU763
 518:../switch_sdk/core/fal/tiger/fal_tiger_dos.c ****     }
 3072              		.loc 1 518 9 view .LVU764
 3073 0054 02AB     		add	r3, sp, #8
 3074 0056 03AA     		add	r2, sp, #12
 3075 0058 0121     		movs	r1, #1
 3076 005a 2820     		movs	r0, #40
 3077              	.LVL399:
 518:../switch_sdk/core/fal/tiger/fal_tiger_dos.c ****     }
 3078              		.loc 1 518 9 is_stmt 0 view .LVU765
 3079 005c FFF7FEFF 		bl	hal_tbl_reg_field_get
 3080              	.LVL400:
 518:../switch_sdk/core/fal/tiger/fal_tiger_dos.c ****     }
 3081              		.loc 1 518 9 is_stmt 1 view .LVU766
 3082 0060 029B     		ldr	r3, [sp, #8]
 3083              	.LVL401:
 518:../switch_sdk/core/fal/tiger/fal_tiger_dos.c ****     }
 3084              		.loc 1 518 9 is_stmt 0 view .LVU767
 3085              	.LBE42:
 518:../switch_sdk/core/fal/tiger/fal_tiger_dos.c ****     }
 3086              		.loc 1 518 9 is_stmt 1 view .LVU768
 3087              	.L196:
 527:../switch_sdk/core/fal/tiger/fal_tiger_dos.c ****     }
 528:../switch_sdk/core/fal/tiger/fal_tiger_dos.c **** 
 529:../switch_sdk/core/fal/tiger/fal_tiger_dos.c ****     *psize = size;
 3088              		.loc 1 529 5 view .LVU769
 3089              		.loc 1 529 12 is_stmt 0 view .LVU770
 3090 0062 3380     		strh	r3, [r6]	@ movhi
 530:../switch_sdk/core/fal/tiger/fal_tiger_dos.c ****     return CMM_ERR_OK;
 3091              		.loc 1 530 5 is_stmt 1 view .LVU771
 3092              		.loc 1 530 12 is_stmt 0 view .LVU772
 3093 0064 0020     		movs	r0, #0
 3094              	.LVL402:
 3095              	.L191:
 531:../switch_sdk/core/fal/tiger/fal_tiger_dos.c **** }
 3096              		.loc 1 531 1 view .LVU773
 3097 0066 04B0     		add	sp, sp, #16
 3098              		.cfi_remember_state
 3099              		.cfi_def_cfa_offset 16
 3100              		@ sp needed
 3101 0068 70BD     		pop	{r4, r5, r6, pc}
 3102              	.LVL403:
 3103              	.L201:
 3104              		.cfi_restore_state
 522:../switch_sdk/core/fal/tiger/fal_tiger_dos.c ****     }
 3105              		.loc 1 522 9 is_stmt 1 view .LVU774
 3106              	.LBB43:
 522:../switch_sdk/core/fal/tiger/fal_tiger_dos.c ****     }
 3107              		.loc 1 522 9 view .LVU775
 522:../switch_sdk/core/fal/tiger/fal_tiger_dos.c ****     }
 3108              		.loc 1 522 9 view .LVU776
 3109 006a 02AB     		add	r3, sp, #8
 3110 006c 03AA     		add	r2, sp, #12
 3111 006e 0021     		movs	r1, #0
 3112 0070 2820     		movs	r0, #40
 3113              	.LVL404:
 522:../switch_sdk/core/fal/tiger/fal_tiger_dos.c ****     }
 3114              		.loc 1 522 9 is_stmt 0 view .LVU777
 3115 0072 FFF7FEFF 		bl	hal_tbl_reg_field_get
 3116              	.LVL405:
 522:../switch_sdk/core/fal/tiger/fal_tiger_dos.c ****     }
 3117              		.loc 1 522 9 is_stmt 1 view .LVU778
 3118 0076 029B     		ldr	r3, [sp, #8]
 3119              	.LVL406:
 522:../switch_sdk/core/fal/tiger/fal_tiger_dos.c ****     }
 3120              		.loc 1 522 9 is_stmt 0 view .LVU779
 3121              	.LBE43:
 522:../switch_sdk/core/fal/tiger/fal_tiger_dos.c ****     }
 3122              		.loc 1 522 9 is_stmt 1 view .LVU780
 3123 0078 F3E7     		b	.L196
 3124              	.L204:
 3125 007a 00BF     		.align	2
 3126              	.L203:
 3127 007c 00000000 		.word	yt_debug_level
 3128 0080 00000000 		.word	__FUNCTION__.0
 3129 0084 00000000 		.word	.LC7
 3130 0088 00000000 		.word	_yt_errmsg
 3131 008c 00000000 		.word	_yt_prompt_msg
 3132 0090 4C000000 		.word	.LC1
 3133              		.cfi_endproc
 3134              	.LFE11:
 3136              		.section	.rodata.__FUNCTION__.0,"a"
 3137              		.align	2
 3140              	__FUNCTION__.0:
 3141 0000 66616C5F 		.ascii	"fal_tiger_dos_large_icmp_size_get\000"
 3141      74696765 
 3141      725F646F 
 3141      735F6C61 
 3141      7267655F 
 3142              		.section	.rodata.__FUNCTION__.1,"a"
 3143              		.align	2
 3146              	__FUNCTION__.1:
 3147 0000 66616C5F 		.ascii	"fal_tiger_dos_large_icmp_size_set\000"
 3147      74696765 
 3147      725F646F 
 3147      735F6C61 
 3147      7267655F 
 3148              		.section	.rodata.__FUNCTION__.2,"a"
 3149              		.align	2
 3152              	__FUNCTION__.2:
 3153 0000 66616C5F 		.ascii	"fal_tiger_dos_tcp_flagsn_get\000"
 3153      74696765 
 3153      725F646F 
 3153      735F7463 
 3153      705F666C 
 3154              		.section	.rodata.__FUNCTION__.3,"a"
 3155              		.align	2
 3158              	__FUNCTION__.3:
 3159 0000 66616C5F 		.ascii	"fal_tiger_dos_drop_en_get\000"
 3159      74696765 
 3159      725F646F 
 3159      735F6472 
 3159      6F705F65 
 3160              		.section	.rodata.__FUNCTION__.4,"a"
 3161              		.align	2
 3164              	__FUNCTION__.4:
 3165 0000 66616C5F 		.ascii	"fal_tiger_dos_tcp_flagsn_set\000"
 3165      74696765 
 3165      725F646F 
 3165      735F7463 
 3165      705F666C 
 3166              		.section	.rodata.__FUNCTION__.5,"a"
 3167              		.align	2
 3170              	__FUNCTION__.5:
 3171 0000 66616C5F 		.ascii	"fal_tiger_dos_drop_en_set\000"
 3171      74696765 
 3171      725F646F 
 3171      735F6472 
 3171      6F705F65 
 3172              		.section	.rodata.__FUNCTION__.6,"a"
 3173              		.align	2
 3176              	__FUNCTION__.6:
 3177 0000 66616C5F 		.ascii	"fal_tiger_dos_port_en_get\000"
 3177      74696765 
 3177      725F646F 
 3177      735F706F 
 3177      72745F65 
 3178              		.section	.rodata.__FUNCTION__.7,"a"
 3179              		.align	2
 3182              	__FUNCTION__.7:
 3183 0000 66616C5F 		.ascii	"fal_tiger_dos_port_en_set\000"
 3183      74696765 
 3183      725F646F 
 3183      735F706F 
 3183      72745F65 
 3184              		.section	.rodata.__FUNCTION__.8,"a"
 3185              		.align	2
 3188              	__FUNCTION__.8:
 3189 0000 66616C5F 		.ascii	"fal_tiger_dos_init\000"
 3189      74696765 
 3189      725F646F 
 3189      735F696E 
 3189      697400
 3190              		.text
 3191              	.Letext0:
 3192              		.file 2 "C:\\Users\\Dmitriy\\Desktop\\GD32F10x\\switch_sdk\\common\\include/yt_types.h"
 3193              		.file 3 "C:\\Users\\Dmitriy\\Desktop\\GD32F10x\\switch_sdk\\common\\include/yt_error.h"
 3194              		.file 4 "C:\\Users\\Dmitriy\\Desktop\\GD32F10x\\switch_sdk\\core\\fal\\chipdef/chipdef.h"
 3195              		.file 5 "C:\\Users\\Dmitriy\\Desktop\\GD32F10x\\switch_sdk\\core\\cal/cal_bprofile.h"
 3196              		.file 6 "C:\\Users\\Dmitriy\\Desktop\\GD32F10x\\switch_sdk\\core\\cal/cal_mgm.h"
 3197              		.file 7 "C:\\Users\\Dmitriy\\Desktop\\GD32F10x\\switch_sdk\\include/yt_dos.h"
 3198              		.file 8 "../switch_sdk/core/fal/tiger/fal_tiger_entry.h"
 3199              		.file 9 "C:\\Users\\Dmitriy\\Desktop\\GD32F10x\\switch_sdk\\core\\hal/hal_mem.h"