   1              		.cpu cortex-m3
   2              		.arch armv7-m
   3              		.fpu softvfp
   4              		.eabi_attribute 20, 1
   5              		.eabi_attribute 21, 1
   6              		.eabi_attribute 23, 3
   7              		.eabi_attribute 24, 1
   8              		.eabi_attribute 25, 1
   9              		.eabi_attribute 26, 1
  10              		.eabi_attribute 30, 1
  11              		.eabi_attribute 34, 1
  12              		.eabi_attribute 18, 4
  13              		.file	"fal_tiger_interrupt.c"
  14              		.text
  15              	.Ltext0:
  16              		.cfi_sections	.debug_frame
  17              		.file 1 "../switch_sdk/core/fal/tiger/fal_tiger_interrupt.c"
  18              		.section	.rodata.fal_tiger_int_polarity_set.str1.4,"aMS",%progbits,1
  19              		.align	2
  20              	.LC0:
  21 0000 68616C5F 		.ascii	"hal_table_reg_read(unit,1,0,sizeof(global_ctrl1_t),"
  21      7461626C 
  21      655F7265 
  21      675F7265 
  21      61642875 
  22 0033 26656E74 		.ascii	"&entry)\000"
  22      72792900 
  23 003b 00       		.align	2
  24              	.LC1:
  25 003c 25732573 		.ascii	"%s%s of \"%s\" in %s\015\012\000"
  25      206F6620 
  25      22257322 
  25      20696E20 
  25      25730D0A 
  26 0051 000000   		.align	2
  27              	.LC2:
  28 0054 68616C5F 		.ascii	"hal_table_reg_write(unit,1,0,sizeof(global_ctrl1_t)"
  28      7461626C 
  28      655F7265 
  28      675F7772 
  28      69746528 
  29 0087 2C26656E 		.ascii	",&entry)\000"
  29      74727929 
  29      00
  30              		.section	.text.fal_tiger_int_polarity_set,"ax",%progbits
  31              		.align	1
  32              		.global	fal_tiger_int_polarity_set
  33              		.syntax unified
  34              		.thumb
  35              		.thumb_func
  37              	fal_tiger_int_polarity_set:
  38              	.LVL0:
  39              	.LFB3:
   1:../switch_sdk/core/fal/tiger/fal_tiger_interrupt.c **** 
   2:../switch_sdk/core/fal/tiger/fal_tiger_interrupt.c **** #ifndef _FAL_TIGER_INTERRUPT_C
   3:../switch_sdk/core/fal/tiger/fal_tiger_interrupt.c **** #define _FAL_TIGER_INTERRUPT_C
   4:../switch_sdk/core/fal/tiger/fal_tiger_interrupt.c **** #include "fal_tiger_interrupt.h"
   5:../switch_sdk/core/fal/tiger/fal_tiger_interrupt.c **** #include "fal_tiger_struct.h"
   6:../switch_sdk/core/fal/tiger/fal_tiger_interrupt.c **** #include "fal_tiger_entry.h"
   7:../switch_sdk/core/fal/tiger/fal_tiger_interrupt.c **** #ifdef PORT_INCLUDED
   8:../switch_sdk/core/fal/tiger/fal_tiger_interrupt.c **** #include "fal_tiger_port.h"
   9:../switch_sdk/core/fal/tiger/fal_tiger_interrupt.c **** #endif
  10:../switch_sdk/core/fal/tiger/fal_tiger_interrupt.c **** 
  11:../switch_sdk/core/fal/tiger/fal_tiger_interrupt.c **** yt_ret_t fal_tiger_int_polarity_set(yt_unit_t unit, yt_int_polarity_t type)
  12:../switch_sdk/core/fal/tiger/fal_tiger_interrupt.c **** {
  40              		.loc 1 12 1 view -0
  41              		.cfi_startproc
  42              		@ args = 0, pretend = 0, frame = 8
  43              		@ frame_needed = 0, uses_anonymous_args = 0
  44              		.loc 1 12 1 is_stmt 0 view .LVU1
  45 0000 70B5     		push	{r4, r5, r6, lr}
  46              		.cfi_def_cfa_offset 16
  47              		.cfi_offset 4, -16
  48              		.cfi_offset 5, -12
  49              		.cfi_offset 6, -8
  50              		.cfi_offset 14, -4
  51 0002 84B0     		sub	sp, sp, #16
  52              		.cfi_def_cfa_offset 32
  53 0004 0546     		mov	r5, r0
  54 0006 0E46     		mov	r6, r1
  13:../switch_sdk/core/fal/tiger/fal_tiger_interrupt.c ****     global_ctrl1_t entry;
  55              		.loc 1 13 5 is_stmt 1 view .LVU2
  14:../switch_sdk/core/fal/tiger/fal_tiger_interrupt.c ****     cmm_err_t ret = CMM_ERR_OK;
  56              		.loc 1 14 5 view .LVU3
  57              	.LVL1:
  15:../switch_sdk/core/fal/tiger/fal_tiger_interrupt.c **** 
  16:../switch_sdk/core/fal/tiger/fal_tiger_interrupt.c ****     CMM_ERR_CHK(HAL_TBL_REG_READ(unit, GLOBAL_CTRL1m, 0, sizeof(global_ctrl1_t), &entry), ret);
  58              		.loc 1 16 5 view .LVU4
  59              		.loc 1 16 5 view .LVU5
  60 0008 03AB     		add	r3, sp, #12
  61 000a 0093     		str	r3, [sp]
  62 000c 0423     		movs	r3, #4
  63 000e 0022     		movs	r2, #0
  64 0010 0121     		movs	r1, #1
  65              	.LVL2:
  66              		.loc 1 16 5 is_stmt 0 view .LVU6
  67 0012 FFF7FEFF 		bl	hal_table_reg_read
  68              	.LVL3:
  69              		.loc 1 16 5 view .LVU7
  70 0016 10F0FF03 		ands	r3, r0, #255
  71 001a 17D0     		beq	.L2
  72 001c 0446     		mov	r4, r0
  73              		.loc 1 16 5 is_stmt 1 discriminator 1 view .LVU8
  74              		.loc 1 16 5 discriminator 1 view .LVU9
  75 001e 204A     		ldr	r2, .L11
  76 0020 1278     		ldrb	r2, [r2]	@ zero_extendqisi2
  77 0022 012A     		cmp	r2, #1
  78 0024 02D8     		bhi	.L8
  79              	.LVL4:
  80              	.L3:
  81              		.loc 1 16 5 discriminator 5 view .LVU10
  82              		.loc 1 16 5 discriminator 5 view .LVU11
  83              		.loc 1 16 5 discriminator 5 view .LVU12
  84 0026 E0B2     		uxtb	r0, r4
  85              	.LVL5:
  86              	.L1:
  17:../switch_sdk/core/fal/tiger/fal_tiger_interrupt.c ****     HAL_FIELD_SET(GLOBAL_CTRL1m, GLOBAL_CTRL1_INTERRUP_POLARITYf, &entry, type);
  18:../switch_sdk/core/fal/tiger/fal_tiger_interrupt.c ****     CMM_ERR_CHK(HAL_TBL_REG_WRITE(unit, GLOBAL_CTRL1m, 0, sizeof(global_ctrl1_t), &entry), ret);
  19:../switch_sdk/core/fal/tiger/fal_tiger_interrupt.c **** 
  20:../switch_sdk/core/fal/tiger/fal_tiger_interrupt.c ****     return CMM_ERR_OK;
  21:../switch_sdk/core/fal/tiger/fal_tiger_interrupt.c **** }
  87              		.loc 1 21 1 is_stmt 0 view .LVU13
  88 0028 04B0     		add	sp, sp, #16
  89              		.cfi_remember_state
  90              		.cfi_def_cfa_offset 16
  91              		@ sp needed
  92 002a 70BD     		pop	{r4, r5, r6, pc}
  93              	.LVL6:
  94              	.L8:
  95              		.cfi_restore_state
  16:../switch_sdk/core/fal/tiger/fal_tiger_interrupt.c ****     HAL_FIELD_SET(GLOBAL_CTRL1m, GLOBAL_CTRL1_INTERRUP_POLARITYf, &entry, type);
  96              		.loc 1 16 5 is_stmt 1 discriminator 3 view .LVU14
  97              	.LBB2:
  16:../switch_sdk/core/fal/tiger/fal_tiger_interrupt.c ****     HAL_FIELD_SET(GLOBAL_CTRL1m, GLOBAL_CTRL1_INTERRUP_POLARITYf, &entry, type);
  98              		.loc 1 16 5 discriminator 3 view .LVU15
  99 002c 142B     		cmp	r3, #20
 100 002e 28BF     		it	cs
 101 0030 1423     		movcs	r3, #20
 102 0032 1A46     		mov	r2, r3
 103 0034 1B4B     		ldr	r3, .L11+4
 104 0036 0093     		str	r3, [sp]
 105 0038 1B4B     		ldr	r3, .L11+8
 106 003a 1C49     		ldr	r1, .L11+12
 107 003c 51F82220 		ldr	r2, [r1, r2, lsl #2]
 108 0040 1B49     		ldr	r1, .L11+16
 109 0042 8968     		ldr	r1, [r1, #8]
 110 0044 1B48     		ldr	r0, .L11+20
 111              	.LVL7:
  16:../switch_sdk/core/fal/tiger/fal_tiger_interrupt.c ****     HAL_FIELD_SET(GLOBAL_CTRL1m, GLOBAL_CTRL1_INTERRUP_POLARITYf, &entry, type);
 112              		.loc 1 16 5 is_stmt 0 discriminator 3 view .LVU16
 113 0046 FFF7FEFF 		bl	osal_printf
 114              	.LVL8:
 115 004a ECE7     		b	.L3
 116              	.LVL9:
 117              	.L2:
  16:../switch_sdk/core/fal/tiger/fal_tiger_interrupt.c ****     HAL_FIELD_SET(GLOBAL_CTRL1m, GLOBAL_CTRL1_INTERRUP_POLARITYf, &entry, type);
 118              		.loc 1 16 5 discriminator 3 view .LVU17
 119              	.LBE2:
  16:../switch_sdk/core/fal/tiger/fal_tiger_interrupt.c ****     HAL_FIELD_SET(GLOBAL_CTRL1m, GLOBAL_CTRL1_INTERRUP_POLARITYf, &entry, type);
 120              		.loc 1 16 5 is_stmt 1 discriminator 2 view .LVU18
  17:../switch_sdk/core/fal/tiger/fal_tiger_interrupt.c ****     HAL_FIELD_SET(GLOBAL_CTRL1m, GLOBAL_CTRL1_INTERRUP_POLARITYf, &entry, type);
 121              		.loc 1 17 5 discriminator 2 view .LVU19
 122 004c 03AC     		add	r4, sp, #12
 123 004e 3346     		mov	r3, r6
 124 0050 2246     		mov	r2, r4
 125 0052 0421     		movs	r1, #4
 126 0054 0120     		movs	r0, #1
 127              	.LVL10:
  17:../switch_sdk/core/fal/tiger/fal_tiger_interrupt.c ****     HAL_FIELD_SET(GLOBAL_CTRL1m, GLOBAL_CTRL1_INTERRUP_POLARITYf, &entry, type);
 128              		.loc 1 17 5 is_stmt 0 discriminator 2 view .LVU20
 129 0056 FFF7FEFF 		bl	hal_tbl_reg_field_set
 130              	.LVL11:
  18:../switch_sdk/core/fal/tiger/fal_tiger_interrupt.c **** 
 131              		.loc 1 18 5 is_stmt 1 discriminator 2 view .LVU21
  18:../switch_sdk/core/fal/tiger/fal_tiger_interrupt.c **** 
 132              		.loc 1 18 5 discriminator 2 view .LVU22
 133 005a 0094     		str	r4, [sp]
 134 005c 0423     		movs	r3, #4
 135 005e 0022     		movs	r2, #0
 136 0060 0121     		movs	r1, #1
 137 0062 2846     		mov	r0, r5
 138 0064 FFF7FEFF 		bl	hal_table_reg_write
 139              	.LVL12:
 140 0068 0446     		mov	r4, r0
 141              	.LVL13:
  18:../switch_sdk/core/fal/tiger/fal_tiger_interrupt.c **** 
 142              		.loc 1 18 5 is_stmt 0 discriminator 2 view .LVU23
 143 006a 10F0FF03 		ands	r3, r0, #255
 144 006e 01D1     		bne	.L9
  20:../switch_sdk/core/fal/tiger/fal_tiger_interrupt.c **** }
 145              		.loc 1 20 12 view .LVU24
 146 0070 0020     		movs	r0, #0
 147              	.LVL14:
  20:../switch_sdk/core/fal/tiger/fal_tiger_interrupt.c **** }
 148              		.loc 1 20 12 view .LVU25
 149 0072 D9E7     		b	.L1
 150              	.LVL15:
 151              	.L9:
  18:../switch_sdk/core/fal/tiger/fal_tiger_interrupt.c **** 
 152              		.loc 1 18 5 is_stmt 1 discriminator 1 view .LVU26
  18:../switch_sdk/core/fal/tiger/fal_tiger_interrupt.c **** 
 153              		.loc 1 18 5 discriminator 1 view .LVU27
 154 0074 0A4A     		ldr	r2, .L11
 155 0076 1278     		ldrb	r2, [r2]	@ zero_extendqisi2
 156 0078 012A     		cmp	r2, #1
 157 007a 01D8     		bhi	.L10
 158              	.LVL16:
 159              	.L5:
  18:../switch_sdk/core/fal/tiger/fal_tiger_interrupt.c **** 
 160              		.loc 1 18 5 discriminator 5 view .LVU28
  18:../switch_sdk/core/fal/tiger/fal_tiger_interrupt.c **** 
 161              		.loc 1 18 5 discriminator 5 view .LVU29
  18:../switch_sdk/core/fal/tiger/fal_tiger_interrupt.c **** 
 162              		.loc 1 18 5 discriminator 5 view .LVU30
 163 007c E0B2     		uxtb	r0, r4
 164 007e D3E7     		b	.L1
 165              	.LVL17:
 166              	.L10:
  18:../switch_sdk/core/fal/tiger/fal_tiger_interrupt.c **** 
 167              		.loc 1 18 5 discriminator 3 view .LVU31
 168              	.LBB3:
  18:../switch_sdk/core/fal/tiger/fal_tiger_interrupt.c **** 
 169              		.loc 1 18 5 discriminator 3 view .LVU32
 170 0080 142B     		cmp	r3, #20
 171 0082 28BF     		it	cs
 172 0084 1423     		movcs	r3, #20
 173 0086 1A46     		mov	r2, r3
 174 0088 064B     		ldr	r3, .L11+4
 175 008a 0093     		str	r3, [sp]
 176 008c 0A4B     		ldr	r3, .L11+24
 177 008e 0749     		ldr	r1, .L11+12
 178 0090 51F82220 		ldr	r2, [r1, r2, lsl #2]
 179 0094 0649     		ldr	r1, .L11+16
 180 0096 8968     		ldr	r1, [r1, #8]
 181 0098 0648     		ldr	r0, .L11+20
 182              	.LVL18:
  18:../switch_sdk/core/fal/tiger/fal_tiger_interrupt.c **** 
 183              		.loc 1 18 5 is_stmt 0 discriminator 3 view .LVU33
 184 009a FFF7FEFF 		bl	osal_printf
 185              	.LVL19:
 186 009e EDE7     		b	.L5
 187              	.L12:
 188              		.align	2
 189              	.L11:
 190 00a0 00000000 		.word	yt_debug_level
 191 00a4 00000000 		.word	__FUNCTION__.4
 192 00a8 00000000 		.word	.LC0
 193 00ac 00000000 		.word	_yt_errmsg
 194 00b0 00000000 		.word	_yt_prompt_msg
 195 00b4 3C000000 		.word	.LC1
 196 00b8 54000000 		.word	.LC2
 197              	.LBE3:
 198              		.cfi_endproc
 199              	.LFE3:
 201              		.section	.text.fal_tiger_int_polarity_get,"ax",%progbits
 202              		.align	1
 203              		.global	fal_tiger_int_polarity_get
 204              		.syntax unified
 205              		.thumb
 206              		.thumb_func
 208              	fal_tiger_int_polarity_get:
 209              	.LVL20:
 210              	.LFB4:
  22:../switch_sdk/core/fal/tiger/fal_tiger_interrupt.c **** 
  23:../switch_sdk/core/fal/tiger/fal_tiger_interrupt.c **** 
  24:../switch_sdk/core/fal/tiger/fal_tiger_interrupt.c **** yt_ret_t fal_tiger_int_polarity_get(yt_unit_t unit, yt_int_polarity_t *pType)
  25:../switch_sdk/core/fal/tiger/fal_tiger_interrupt.c **** {
 211              		.loc 1 25 1 is_stmt 1 view -0
 212              		.cfi_startproc
 213              		@ args = 0, pretend = 0, frame = 8
 214              		@ frame_needed = 0, uses_anonymous_args = 0
 215              		.loc 1 25 1 is_stmt 0 view .LVU35
 216 0000 30B5     		push	{r4, r5, lr}
 217              		.cfi_def_cfa_offset 12
 218              		.cfi_offset 4, -12
 219              		.cfi_offset 5, -8
 220              		.cfi_offset 14, -4
 221 0002 85B0     		sub	sp, sp, #20
 222              		.cfi_def_cfa_offset 32
 223 0004 0D46     		mov	r5, r1
  26:../switch_sdk/core/fal/tiger/fal_tiger_interrupt.c ****     global_ctrl1_t entry;
 224              		.loc 1 26 5 is_stmt 1 view .LVU36
  27:../switch_sdk/core/fal/tiger/fal_tiger_interrupt.c ****     cmm_err_t ret = CMM_ERR_OK;
 225              		.loc 1 27 5 view .LVU37
 226              	.LVL21:
  28:../switch_sdk/core/fal/tiger/fal_tiger_interrupt.c ****     uint32_t polarity;
 227              		.loc 1 28 5 view .LVU38
  29:../switch_sdk/core/fal/tiger/fal_tiger_interrupt.c **** 
  30:../switch_sdk/core/fal/tiger/fal_tiger_interrupt.c ****     CMM_ERR_CHK(HAL_TBL_REG_READ(unit, GLOBAL_CTRL1m, 0, sizeof(global_ctrl1_t), &entry), ret);
 228              		.loc 1 30 5 view .LVU39
 229              		.loc 1 30 5 view .LVU40
 230 0006 03AB     		add	r3, sp, #12
 231 0008 0093     		str	r3, [sp]
 232 000a 0423     		movs	r3, #4
 233 000c 0022     		movs	r2, #0
 234 000e 0121     		movs	r1, #1
 235              	.LVL22:
 236              		.loc 1 30 5 is_stmt 0 view .LVU41
 237 0010 FFF7FEFF 		bl	hal_table_reg_read
 238              	.LVL23:
 239              		.loc 1 30 5 view .LVU42
 240 0014 10F0FF03 		ands	r3, r0, #255
 241 0018 17D0     		beq	.L14
 242 001a 0446     		mov	r4, r0
 243              		.loc 1 30 5 is_stmt 1 discriminator 1 view .LVU43
 244              		.loc 1 30 5 discriminator 1 view .LVU44
 245 001c 114A     		ldr	r2, .L19
 246 001e 1278     		ldrb	r2, [r2]	@ zero_extendqisi2
 247 0020 012A     		cmp	r2, #1
 248 0022 02D8     		bhi	.L18
 249              	.LVL24:
 250              	.L15:
 251              		.loc 1 30 5 discriminator 5 view .LVU45
 252              		.loc 1 30 5 discriminator 5 view .LVU46
 253              		.loc 1 30 5 discriminator 5 view .LVU47
 254 0024 E0B2     		uxtb	r0, r4
 255              	.L13:
  31:../switch_sdk/core/fal/tiger/fal_tiger_interrupt.c ****     HAL_FIELD_GET(GLOBAL_CTRL1m, GLOBAL_CTRL1_INTERRUP_POLARITYf, &entry, &polarity);
  32:../switch_sdk/core/fal/tiger/fal_tiger_interrupt.c ****     *pType = polarity ? INT_POLAR_HIGH : INT_POLAR_LOW;
  33:../switch_sdk/core/fal/tiger/fal_tiger_interrupt.c **** 
  34:../switch_sdk/core/fal/tiger/fal_tiger_interrupt.c ****     return CMM_ERR_OK;
  35:../switch_sdk/core/fal/tiger/fal_tiger_interrupt.c **** }
 256              		.loc 1 35 1 is_stmt 0 view .LVU48
 257 0026 05B0     		add	sp, sp, #20
 258              		.cfi_remember_state
 259              		.cfi_def_cfa_offset 12
 260              		@ sp needed
 261 0028 30BD     		pop	{r4, r5, pc}
 262              	.LVL25:
 263              	.L18:
 264              		.cfi_restore_state
  30:../switch_sdk/core/fal/tiger/fal_tiger_interrupt.c ****     HAL_FIELD_GET(GLOBAL_CTRL1m, GLOBAL_CTRL1_INTERRUP_POLARITYf, &entry, &polarity);
 265              		.loc 1 30 5 is_stmt 1 discriminator 3 view .LVU49
 266              	.LBB4:
  30:../switch_sdk/core/fal/tiger/fal_tiger_interrupt.c ****     HAL_FIELD_GET(GLOBAL_CTRL1m, GLOBAL_CTRL1_INTERRUP_POLARITYf, &entry, &polarity);
 267              		.loc 1 30 5 discriminator 3 view .LVU50
 268 002a 142B     		cmp	r3, #20
 269 002c 28BF     		it	cs
 270 002e 1423     		movcs	r3, #20
 271 0030 1A46     		mov	r2, r3
 272 0032 0D4B     		ldr	r3, .L19+4
 273 0034 0093     		str	r3, [sp]
 274 0036 0D4B     		ldr	r3, .L19+8
 275 0038 0D49     		ldr	r1, .L19+12
 276 003a 51F82220 		ldr	r2, [r1, r2, lsl #2]
 277 003e 0D49     		ldr	r1, .L19+16
 278 0040 8968     		ldr	r1, [r1, #8]
 279 0042 0D48     		ldr	r0, .L19+20
 280              	.LVL26:
  30:../switch_sdk/core/fal/tiger/fal_tiger_interrupt.c ****     HAL_FIELD_GET(GLOBAL_CTRL1m, GLOBAL_CTRL1_INTERRUP_POLARITYf, &entry, &polarity);
 281              		.loc 1 30 5 is_stmt 0 discriminator 3 view .LVU51
 282 0044 FFF7FEFF 		bl	osal_printf
 283              	.LVL27:
 284 0048 ECE7     		b	.L15
 285              	.LVL28:
 286              	.L14:
  30:../switch_sdk/core/fal/tiger/fal_tiger_interrupt.c ****     HAL_FIELD_GET(GLOBAL_CTRL1m, GLOBAL_CTRL1_INTERRUP_POLARITYf, &entry, &polarity);
 287              		.loc 1 30 5 discriminator 3 view .LVU52
 288              	.LBE4:
  30:../switch_sdk/core/fal/tiger/fal_tiger_interrupt.c ****     HAL_FIELD_GET(GLOBAL_CTRL1m, GLOBAL_CTRL1_INTERRUP_POLARITYf, &entry, &polarity);
 289              		.loc 1 30 5 is_stmt 1 discriminator 2 view .LVU53
  31:../switch_sdk/core/fal/tiger/fal_tiger_interrupt.c ****     HAL_FIELD_GET(GLOBAL_CTRL1m, GLOBAL_CTRL1_INTERRUP_POLARITYf, &entry, &polarity);
 290              		.loc 1 31 5 discriminator 2 view .LVU54
 291              	.LBB5:
  31:../switch_sdk/core/fal/tiger/fal_tiger_interrupt.c ****     HAL_FIELD_GET(GLOBAL_CTRL1m, GLOBAL_CTRL1_INTERRUP_POLARITYf, &entry, &polarity);
 292              		.loc 1 31 5 discriminator 2 view .LVU55
  31:../switch_sdk/core/fal/tiger/fal_tiger_interrupt.c ****     HAL_FIELD_GET(GLOBAL_CTRL1m, GLOBAL_CTRL1_INTERRUP_POLARITYf, &entry, &polarity);
 293              		.loc 1 31 5 discriminator 2 view .LVU56
 294 004a 02AB     		add	r3, sp, #8
 295 004c 03AA     		add	r2, sp, #12
 296 004e 0421     		movs	r1, #4
 297 0050 0120     		movs	r0, #1
 298              	.LVL29:
  31:../switch_sdk/core/fal/tiger/fal_tiger_interrupt.c ****     HAL_FIELD_GET(GLOBAL_CTRL1m, GLOBAL_CTRL1_INTERRUP_POLARITYf, &entry, &polarity);
 299              		.loc 1 31 5 is_stmt 0 discriminator 2 view .LVU57
 300 0052 FFF7FEFF 		bl	hal_tbl_reg_field_get
 301              	.LVL30:
  31:../switch_sdk/core/fal/tiger/fal_tiger_interrupt.c ****     HAL_FIELD_GET(GLOBAL_CTRL1m, GLOBAL_CTRL1_INTERRUP_POLARITYf, &entry, &polarity);
 302              		.loc 1 31 5 is_stmt 1 discriminator 2 view .LVU58
  31:../switch_sdk/core/fal/tiger/fal_tiger_interrupt.c ****     HAL_FIELD_GET(GLOBAL_CTRL1m, GLOBAL_CTRL1_INTERRUP_POLARITYf, &entry, &polarity);
 303              		.loc 1 31 5 is_stmt 0 discriminator 2 view .LVU59
 304              	.LBE5:
  31:../switch_sdk/core/fal/tiger/fal_tiger_interrupt.c ****     HAL_FIELD_GET(GLOBAL_CTRL1m, GLOBAL_CTRL1_INTERRUP_POLARITYf, &entry, &polarity);
 305              		.loc 1 31 5 is_stmt 1 discriminator 2 view .LVU60
  32:../switch_sdk/core/fal/tiger/fal_tiger_interrupt.c **** 
 306              		.loc 1 32 5 discriminator 2 view .LVU61
  32:../switch_sdk/core/fal/tiger/fal_tiger_interrupt.c **** 
 307              		.loc 1 32 40 is_stmt 0 discriminator 2 view .LVU62
 308 0056 029B     		ldr	r3, [sp, #8]
 309 0058 003B     		subs	r3, r3, #0
 310 005a 18BF     		it	ne
 311 005c 0123     		movne	r3, #1
  32:../switch_sdk/core/fal/tiger/fal_tiger_interrupt.c **** 
 312              		.loc 1 32 12 discriminator 2 view .LVU63
 313 005e 2B70     		strb	r3, [r5]
 314              	.LVL31:
  34:../switch_sdk/core/fal/tiger/fal_tiger_interrupt.c **** }
 315              		.loc 1 34 5 is_stmt 1 discriminator 2 view .LVU64
  34:../switch_sdk/core/fal/tiger/fal_tiger_interrupt.c **** }
 316              		.loc 1 34 12 is_stmt 0 discriminator 2 view .LVU65
 317 0060 0020     		movs	r0, #0
 318 0062 E0E7     		b	.L13
 319              	.L20:
 320              		.align	2
 321              	.L19:
 322 0064 00000000 		.word	yt_debug_level
 323 0068 00000000 		.word	__FUNCTION__.3
 324 006c 00000000 		.word	.LC0
 325 0070 00000000 		.word	_yt_errmsg
 326 0074 00000000 		.word	_yt_prompt_msg
 327 0078 3C000000 		.word	.LC1
 328              		.cfi_endproc
 329              	.LFE4:
 331              		.section	.rodata.fal_tiger_int_control_set.str1.4,"aMS",%progbits,1
 332              		.align	2
 333              	.LC3:
 334 0000 68616C5F 		.ascii	"hal_table_reg_read(unit,5,0,sizeof(intr_mask_t),&in"
 334      7461626C 
 334      655F7265 
 334      675F7265 
 334      61642875 
 335 0033 74725F6D 		.ascii	"tr_mask)\000"
 335      61736B29 
 335      00
 336              		.align	2
 337              	.LC4:
 338 003c 68616C5F 		.ascii	"hal_table_reg_write(unit,5,0,sizeof(intr_mask_t),&i"
 338      7461626C 
 338      655F7265 
 338      675F7772 
 338      69746528 
 339 006f 6E74725F 		.ascii	"ntr_mask)\000"
 339      6D61736B 
 339      2900
 340              		.section	.text.fal_tiger_int_control_set,"ax",%progbits
 341              		.align	1
 342              		.global	fal_tiger_int_control_set
 343              		.syntax unified
 344              		.thumb
 345              		.thumb_func
 347              	fal_tiger_int_control_set:
 348              	.LVL32:
 349              	.LFB5:
  36:../switch_sdk/core/fal/tiger/fal_tiger_interrupt.c **** 
  37:../switch_sdk/core/fal/tiger/fal_tiger_interrupt.c **** yt_ret_t fal_tiger_int_control_set(yt_unit_t unit, yt_int_type_t type, yt_enable_t enable)
  38:../switch_sdk/core/fal/tiger/fal_tiger_interrupt.c **** {
 350              		.loc 1 38 1 is_stmt 1 view -0
 351              		.cfi_startproc
 352              		@ args = 0, pretend = 0, frame = 8
 353              		@ frame_needed = 0, uses_anonymous_args = 0
 354              		.loc 1 38 1 is_stmt 0 view .LVU67
 355 0000 F0B5     		push	{r4, r5, r6, r7, lr}
 356              		.cfi_def_cfa_offset 20
 357              		.cfi_offset 4, -20
 358              		.cfi_offset 5, -16
 359              		.cfi_offset 6, -12
 360              		.cfi_offset 7, -8
 361              		.cfi_offset 14, -4
 362 0002 85B0     		sub	sp, sp, #20
 363              		.cfi_def_cfa_offset 40
 364 0004 0746     		mov	r7, r0
 365 0006 0E46     		mov	r6, r1
 366 0008 1546     		mov	r5, r2
  39:../switch_sdk/core/fal/tiger/fal_tiger_interrupt.c ****     cmm_err_t ret = CMM_ERR_OK;
 367              		.loc 1 39 5 is_stmt 1 view .LVU68
 368              	.LVL33:
  40:../switch_sdk/core/fal/tiger/fal_tiger_interrupt.c ****     intr_mask_t intr_mask;
 369              		.loc 1 40 5 view .LVU69
  41:../switch_sdk/core/fal/tiger/fal_tiger_interrupt.c ****     uint32_t mask;
 370              		.loc 1 41 5 view .LVU70
  42:../switch_sdk/core/fal/tiger/fal_tiger_interrupt.c **** 
  43:../switch_sdk/core/fal/tiger/fal_tiger_interrupt.c ****     CMM_ERR_CHK(HAL_TBL_REG_READ(unit, INTR_MASKm, 0, sizeof(intr_mask_t), &intr_mask), ret);
 371              		.loc 1 43 5 view .LVU71
 372              		.loc 1 43 5 view .LVU72
 373 000a 03AB     		add	r3, sp, #12
 374 000c 0093     		str	r3, [sp]
 375 000e 0423     		movs	r3, #4
 376 0010 0022     		movs	r2, #0
 377              	.LVL34:
 378              		.loc 1 43 5 is_stmt 0 view .LVU73
 379 0012 0521     		movs	r1, #5
 380              	.LVL35:
 381              		.loc 1 43 5 view .LVU74
 382 0014 FFF7FEFF 		bl	hal_table_reg_read
 383              	.LVL36:
 384              		.loc 1 43 5 view .LVU75
 385 0018 10F0FF03 		ands	r3, r0, #255
 386 001c 17D0     		beq	.L22
 387 001e 0446     		mov	r4, r0
 388              		.loc 1 43 5 is_stmt 1 discriminator 1 view .LVU76
 389              		.loc 1 43 5 discriminator 1 view .LVU77
 390 0020 224A     		ldr	r2, .L31
 391 0022 1278     		ldrb	r2, [r2]	@ zero_extendqisi2
 392 0024 012A     		cmp	r2, #1
 393 0026 02D8     		bhi	.L28
 394              	.LVL37:
 395              	.L23:
 396              		.loc 1 43 5 discriminator 5 view .LVU78
 397              		.loc 1 43 5 discriminator 5 view .LVU79
 398              		.loc 1 43 5 discriminator 5 view .LVU80
 399 0028 E0B2     		uxtb	r0, r4
 400              	.LVL38:
 401              	.L21:
  44:../switch_sdk/core/fal/tiger/fal_tiger_interrupt.c ****     mask = (YT_ENABLE == enable)?1:0;
  45:../switch_sdk/core/fal/tiger/fal_tiger_interrupt.c ****     HAL_FIELD_SET(INTR_MASKm, INTR_MASK_HW_EXCEPTIONf-type, &intr_mask, mask);
  46:../switch_sdk/core/fal/tiger/fal_tiger_interrupt.c ****     CMM_ERR_CHK(HAL_TBL_REG_WRITE(unit, INTR_MASKm, 0, sizeof(intr_mask_t), &intr_mask), ret);
  47:../switch_sdk/core/fal/tiger/fal_tiger_interrupt.c **** 
  48:../switch_sdk/core/fal/tiger/fal_tiger_interrupt.c ****     return CMM_ERR_OK;
  49:../switch_sdk/core/fal/tiger/fal_tiger_interrupt.c **** }
 402              		.loc 1 49 1 is_stmt 0 view .LVU81
 403 002a 05B0     		add	sp, sp, #20
 404              		.cfi_remember_state
 405              		.cfi_def_cfa_offset 20
 406              		@ sp needed
 407 002c F0BD     		pop	{r4, r5, r6, r7, pc}
 408              	.LVL39:
 409              	.L28:
 410              		.cfi_restore_state
  43:../switch_sdk/core/fal/tiger/fal_tiger_interrupt.c ****     mask = (YT_ENABLE == enable)?1:0;
 411              		.loc 1 43 5 is_stmt 1 discriminator 3 view .LVU82
 412              	.LBB6:
  43:../switch_sdk/core/fal/tiger/fal_tiger_interrupt.c ****     mask = (YT_ENABLE == enable)?1:0;
 413              		.loc 1 43 5 discriminator 3 view .LVU83
 414 002e 142B     		cmp	r3, #20
 415 0030 28BF     		it	cs
 416 0032 1423     		movcs	r3, #20
 417 0034 1A46     		mov	r2, r3
 418 0036 1E4B     		ldr	r3, .L31+4
 419 0038 0093     		str	r3, [sp]
 420 003a 1E4B     		ldr	r3, .L31+8
 421 003c 1E49     		ldr	r1, .L31+12
 422 003e 51F82220 		ldr	r2, [r1, r2, lsl #2]
 423 0042 1E49     		ldr	r1, .L31+16
 424 0044 8968     		ldr	r1, [r1, #8]
 425 0046 1E48     		ldr	r0, .L31+20
 426              	.LVL40:
  43:../switch_sdk/core/fal/tiger/fal_tiger_interrupt.c ****     mask = (YT_ENABLE == enable)?1:0;
 427              		.loc 1 43 5 is_stmt 0 discriminator 3 view .LVU84
 428 0048 FFF7FEFF 		bl	osal_printf
 429              	.LVL41:
 430 004c ECE7     		b	.L23
 431              	.LVL42:
 432              	.L22:
  43:../switch_sdk/core/fal/tiger/fal_tiger_interrupt.c ****     mask = (YT_ENABLE == enable)?1:0;
 433              		.loc 1 43 5 discriminator 3 view .LVU85
 434              	.LBE6:
  43:../switch_sdk/core/fal/tiger/fal_tiger_interrupt.c ****     mask = (YT_ENABLE == enable)?1:0;
 435              		.loc 1 43 5 is_stmt 1 discriminator 2 view .LVU86
  44:../switch_sdk/core/fal/tiger/fal_tiger_interrupt.c ****     mask = (YT_ENABLE == enable)?1:0;
 436              		.loc 1 44 5 discriminator 2 view .LVU87
  45:../switch_sdk/core/fal/tiger/fal_tiger_interrupt.c ****     CMM_ERR_CHK(HAL_TBL_REG_WRITE(unit, INTR_MASKm, 0, sizeof(intr_mask_t), &intr_mask), ret);
 437              		.loc 1 45 5 discriminator 2 view .LVU88
 438 004e 03AC     		add	r4, sp, #12
 439 0050 012D     		cmp	r5, #1
 440 0052 14BF     		ite	ne
 441 0054 0023     		movne	r3, #0
 442 0056 0123     		moveq	r3, #1
 443 0058 2246     		mov	r2, r4
 444 005a C6F11C01 		rsb	r1, r6, #28
 445 005e 0520     		movs	r0, #5
 446              	.LVL43:
  45:../switch_sdk/core/fal/tiger/fal_tiger_interrupt.c ****     CMM_ERR_CHK(HAL_TBL_REG_WRITE(unit, INTR_MASKm, 0, sizeof(intr_mask_t), &intr_mask), ret);
 447              		.loc 1 45 5 is_stmt 0 discriminator 2 view .LVU89
 448 0060 FFF7FEFF 		bl	hal_tbl_reg_field_set
 449              	.LVL44:
  46:../switch_sdk/core/fal/tiger/fal_tiger_interrupt.c **** 
 450              		.loc 1 46 5 is_stmt 1 discriminator 2 view .LVU90
  46:../switch_sdk/core/fal/tiger/fal_tiger_interrupt.c **** 
 451              		.loc 1 46 5 discriminator 2 view .LVU91
 452 0064 0094     		str	r4, [sp]
 453 0066 0423     		movs	r3, #4
 454 0068 0022     		movs	r2, #0
 455 006a 0521     		movs	r1, #5
 456 006c 3846     		mov	r0, r7
 457 006e FFF7FEFF 		bl	hal_table_reg_write
 458              	.LVL45:
 459 0072 0446     		mov	r4, r0
 460              	.LVL46:
  46:../switch_sdk/core/fal/tiger/fal_tiger_interrupt.c **** 
 461              		.loc 1 46 5 is_stmt 0 discriminator 2 view .LVU92
 462 0074 10F0FF03 		ands	r3, r0, #255
 463 0078 01D1     		bne	.L29
  48:../switch_sdk/core/fal/tiger/fal_tiger_interrupt.c **** }
 464              		.loc 1 48 12 view .LVU93
 465 007a 0020     		movs	r0, #0
 466              	.LVL47:
  48:../switch_sdk/core/fal/tiger/fal_tiger_interrupt.c **** }
 467              		.loc 1 48 12 view .LVU94
 468 007c D5E7     		b	.L21
 469              	.LVL48:
 470              	.L29:
  46:../switch_sdk/core/fal/tiger/fal_tiger_interrupt.c **** 
 471              		.loc 1 46 5 is_stmt 1 discriminator 1 view .LVU95
  46:../switch_sdk/core/fal/tiger/fal_tiger_interrupt.c **** 
 472              		.loc 1 46 5 discriminator 1 view .LVU96
 473 007e 0B4A     		ldr	r2, .L31
 474 0080 1278     		ldrb	r2, [r2]	@ zero_extendqisi2
 475 0082 012A     		cmp	r2, #1
 476 0084 01D8     		bhi	.L30
 477              	.LVL49:
 478              	.L25:
  46:../switch_sdk/core/fal/tiger/fal_tiger_interrupt.c **** 
 479              		.loc 1 46 5 discriminator 5 view .LVU97
  46:../switch_sdk/core/fal/tiger/fal_tiger_interrupt.c **** 
 480              		.loc 1 46 5 discriminator 5 view .LVU98
  46:../switch_sdk/core/fal/tiger/fal_tiger_interrupt.c **** 
 481              		.loc 1 46 5 discriminator 5 view .LVU99
 482 0086 E0B2     		uxtb	r0, r4
 483 0088 CFE7     		b	.L21
 484              	.LVL50:
 485              	.L30:
  46:../switch_sdk/core/fal/tiger/fal_tiger_interrupt.c **** 
 486              		.loc 1 46 5 discriminator 3 view .LVU100
 487              	.LBB7:
  46:../switch_sdk/core/fal/tiger/fal_tiger_interrupt.c **** 
 488              		.loc 1 46 5 discriminator 3 view .LVU101
 489 008a 142B     		cmp	r3, #20
 490 008c 28BF     		it	cs
 491 008e 1423     		movcs	r3, #20
 492 0090 1A46     		mov	r2, r3
 493 0092 074B     		ldr	r3, .L31+4
 494 0094 0093     		str	r3, [sp]
 495 0096 0B4B     		ldr	r3, .L31+24
 496 0098 0749     		ldr	r1, .L31+12
 497 009a 51F82220 		ldr	r2, [r1, r2, lsl #2]
 498 009e 0749     		ldr	r1, .L31+16
 499 00a0 8968     		ldr	r1, [r1, #8]
 500 00a2 0748     		ldr	r0, .L31+20
 501              	.LVL51:
  46:../switch_sdk/core/fal/tiger/fal_tiger_interrupt.c **** 
 502              		.loc 1 46 5 is_stmt 0 discriminator 3 view .LVU102
 503 00a4 FFF7FEFF 		bl	osal_printf
 504              	.LVL52:
 505 00a8 EDE7     		b	.L25
 506              	.L32:
 507 00aa 00BF     		.align	2
 508              	.L31:
 509 00ac 00000000 		.word	yt_debug_level
 510 00b0 00000000 		.word	__FUNCTION__.2
 511 00b4 00000000 		.word	.LC3
 512 00b8 00000000 		.word	_yt_errmsg
 513 00bc 00000000 		.word	_yt_prompt_msg
 514 00c0 3C000000 		.word	.LC1
 515 00c4 3C000000 		.word	.LC4
 516              	.LBE7:
 517              		.cfi_endproc
 518              	.LFE5:
 520              		.section	.text.fal_tiger_int_control_get,"ax",%progbits
 521              		.align	1
 522              		.global	fal_tiger_int_control_get
 523              		.syntax unified
 524              		.thumb
 525              		.thumb_func
 527              	fal_tiger_int_control_get:
 528              	.LVL53:
 529              	.LFB6:
  50:../switch_sdk/core/fal/tiger/fal_tiger_interrupt.c **** 
  51:../switch_sdk/core/fal/tiger/fal_tiger_interrupt.c **** yt_ret_t fal_tiger_int_control_get(yt_unit_t unit, yt_int_type_t type, yt_enable_t *pEnable)
  52:../switch_sdk/core/fal/tiger/fal_tiger_interrupt.c **** {
 530              		.loc 1 52 1 is_stmt 1 view -0
 531              		.cfi_startproc
 532              		@ args = 0, pretend = 0, frame = 8
 533              		@ frame_needed = 0, uses_anonymous_args = 0
 534              		.loc 1 52 1 is_stmt 0 view .LVU104
 535 0000 70B5     		push	{r4, r5, r6, lr}
 536              		.cfi_def_cfa_offset 16
 537              		.cfi_offset 4, -16
 538              		.cfi_offset 5, -12
 539              		.cfi_offset 6, -8
 540              		.cfi_offset 14, -4
 541 0002 84B0     		sub	sp, sp, #16
 542              		.cfi_def_cfa_offset 32
 543 0004 0E46     		mov	r6, r1
 544 0006 1546     		mov	r5, r2
  53:../switch_sdk/core/fal/tiger/fal_tiger_interrupt.c ****     cmm_err_t ret = CMM_ERR_OK;
 545              		.loc 1 53 5 is_stmt 1 view .LVU105
 546              	.LVL54:
  54:../switch_sdk/core/fal/tiger/fal_tiger_interrupt.c ****     uint32_t intr_mask;
 547              		.loc 1 54 5 view .LVU106
  55:../switch_sdk/core/fal/tiger/fal_tiger_interrupt.c ****     uint32_t mask;
 548              		.loc 1 55 5 view .LVU107
  56:../switch_sdk/core/fal/tiger/fal_tiger_interrupt.c **** 
  57:../switch_sdk/core/fal/tiger/fal_tiger_interrupt.c ****     CMM_ERR_CHK(HAL_TBL_REG_READ(unit, INTR_MASKm, 0, sizeof(intr_mask_t), &intr_mask), ret);
 549              		.loc 1 57 5 view .LVU108
 550              		.loc 1 57 5 view .LVU109
 551 0008 03AB     		add	r3, sp, #12
 552 000a 0093     		str	r3, [sp]
 553 000c 0423     		movs	r3, #4
 554 000e 0022     		movs	r2, #0
 555              	.LVL55:
 556              		.loc 1 57 5 is_stmt 0 view .LVU110
 557 0010 0521     		movs	r1, #5
 558              	.LVL56:
 559              		.loc 1 57 5 view .LVU111
 560 0012 FFF7FEFF 		bl	hal_table_reg_read
 561              	.LVL57:
 562              		.loc 1 57 5 view .LVU112
 563 0016 10F0FF03 		ands	r3, r0, #255
 564 001a 17D0     		beq	.L34
 565 001c 0446     		mov	r4, r0
 566              		.loc 1 57 5 is_stmt 1 discriminator 1 view .LVU113
 567              		.loc 1 57 5 discriminator 1 view .LVU114
 568 001e 124A     		ldr	r2, .L39
 569 0020 1278     		ldrb	r2, [r2]	@ zero_extendqisi2
 570 0022 012A     		cmp	r2, #1
 571 0024 02D8     		bhi	.L38
 572              	.LVL58:
 573              	.L35:
 574              		.loc 1 57 5 discriminator 5 view .LVU115
 575              		.loc 1 57 5 discriminator 5 view .LVU116
 576              		.loc 1 57 5 discriminator 5 view .LVU117
 577 0026 E0B2     		uxtb	r0, r4
 578              	.L33:
  58:../switch_sdk/core/fal/tiger/fal_tiger_interrupt.c ****     HAL_FIELD_GET(INTR_MASKm, INTR_MASK_HW_EXCEPTIONf-type, &intr_mask, &mask);
  59:../switch_sdk/core/fal/tiger/fal_tiger_interrupt.c ****     *pEnable = mask ? YT_ENABLE : YT_DISABLE;
  60:../switch_sdk/core/fal/tiger/fal_tiger_interrupt.c **** 
  61:../switch_sdk/core/fal/tiger/fal_tiger_interrupt.c ****     return CMM_ERR_OK;
  62:../switch_sdk/core/fal/tiger/fal_tiger_interrupt.c **** }
 579              		.loc 1 62 1 is_stmt 0 view .LVU118
 580 0028 04B0     		add	sp, sp, #16
 581              		.cfi_remember_state
 582              		.cfi_def_cfa_offset 16
 583              		@ sp needed
 584 002a 70BD     		pop	{r4, r5, r6, pc}
 585              	.LVL59:
 586              	.L38:
 587              		.cfi_restore_state
  57:../switch_sdk/core/fal/tiger/fal_tiger_interrupt.c ****     HAL_FIELD_GET(INTR_MASKm, INTR_MASK_HW_EXCEPTIONf-type, &intr_mask, &mask);
 588              		.loc 1 57 5 is_stmt 1 discriminator 3 view .LVU119
 589              	.LBB8:
  57:../switch_sdk/core/fal/tiger/fal_tiger_interrupt.c ****     HAL_FIELD_GET(INTR_MASKm, INTR_MASK_HW_EXCEPTIONf-type, &intr_mask, &mask);
 590              		.loc 1 57 5 discriminator 3 view .LVU120
 591 002c 142B     		cmp	r3, #20
 592 002e 28BF     		it	cs
 593 0030 1423     		movcs	r3, #20
 594 0032 1A46     		mov	r2, r3
 595 0034 0D4B     		ldr	r3, .L39+4
 596 0036 0093     		str	r3, [sp]
 597 0038 0D4B     		ldr	r3, .L39+8
 598 003a 0E49     		ldr	r1, .L39+12
 599 003c 51F82220 		ldr	r2, [r1, r2, lsl #2]
 600 0040 0D49     		ldr	r1, .L39+16
 601 0042 8968     		ldr	r1, [r1, #8]
 602 0044 0D48     		ldr	r0, .L39+20
 603              	.LVL60:
  57:../switch_sdk/core/fal/tiger/fal_tiger_interrupt.c ****     HAL_FIELD_GET(INTR_MASKm, INTR_MASK_HW_EXCEPTIONf-type, &intr_mask, &mask);
 604              		.loc 1 57 5 is_stmt 0 discriminator 3 view .LVU121
 605 0046 FFF7FEFF 		bl	osal_printf
 606              	.LVL61:
 607 004a ECE7     		b	.L35
 608              	.LVL62:
 609              	.L34:
  57:../switch_sdk/core/fal/tiger/fal_tiger_interrupt.c ****     HAL_FIELD_GET(INTR_MASKm, INTR_MASK_HW_EXCEPTIONf-type, &intr_mask, &mask);
 610              		.loc 1 57 5 discriminator 3 view .LVU122
 611              	.LBE8:
  57:../switch_sdk/core/fal/tiger/fal_tiger_interrupt.c ****     HAL_FIELD_GET(INTR_MASKm, INTR_MASK_HW_EXCEPTIONf-type, &intr_mask, &mask);
 612              		.loc 1 57 5 is_stmt 1 discriminator 2 view .LVU123
  58:../switch_sdk/core/fal/tiger/fal_tiger_interrupt.c ****     HAL_FIELD_GET(INTR_MASKm, INTR_MASK_HW_EXCEPTIONf-type, &intr_mask, &mask);
 613              		.loc 1 58 5 discriminator 2 view .LVU124
 614              	.LBB9:
  58:../switch_sdk/core/fal/tiger/fal_tiger_interrupt.c ****     HAL_FIELD_GET(INTR_MASKm, INTR_MASK_HW_EXCEPTIONf-type, &intr_mask, &mask);
 615              		.loc 1 58 5 discriminator 2 view .LVU125
  58:../switch_sdk/core/fal/tiger/fal_tiger_interrupt.c ****     HAL_FIELD_GET(INTR_MASKm, INTR_MASK_HW_EXCEPTIONf-type, &intr_mask, &mask);
 616              		.loc 1 58 5 discriminator 2 view .LVU126
 617 004c 02AB     		add	r3, sp, #8
 618 004e 03AA     		add	r2, sp, #12
 619 0050 C6F11C01 		rsb	r1, r6, #28
 620 0054 0520     		movs	r0, #5
 621              	.LVL63:
  58:../switch_sdk/core/fal/tiger/fal_tiger_interrupt.c ****     HAL_FIELD_GET(INTR_MASKm, INTR_MASK_HW_EXCEPTIONf-type, &intr_mask, &mask);
 622              		.loc 1 58 5 is_stmt 0 discriminator 2 view .LVU127
 623 0056 FFF7FEFF 		bl	hal_tbl_reg_field_get
 624              	.LVL64:
  58:../switch_sdk/core/fal/tiger/fal_tiger_interrupt.c ****     HAL_FIELD_GET(INTR_MASKm, INTR_MASK_HW_EXCEPTIONf-type, &intr_mask, &mask);
 625              		.loc 1 58 5 is_stmt 1 discriminator 2 view .LVU128
  58:../switch_sdk/core/fal/tiger/fal_tiger_interrupt.c ****     HAL_FIELD_GET(INTR_MASKm, INTR_MASK_HW_EXCEPTIONf-type, &intr_mask, &mask);
 626              		.loc 1 58 5 is_stmt 0 discriminator 2 view .LVU129
 627              	.LBE9:
  58:../switch_sdk/core/fal/tiger/fal_tiger_interrupt.c ****     HAL_FIELD_GET(INTR_MASKm, INTR_MASK_HW_EXCEPTIONf-type, &intr_mask, &mask);
 628              		.loc 1 58 5 is_stmt 1 discriminator 2 view .LVU130
  59:../switch_sdk/core/fal/tiger/fal_tiger_interrupt.c **** 
 629              		.loc 1 59 5 discriminator 2 view .LVU131
  59:../switch_sdk/core/fal/tiger/fal_tiger_interrupt.c **** 
 630              		.loc 1 59 33 is_stmt 0 discriminator 2 view .LVU132
 631 005a 029B     		ldr	r3, [sp, #8]
 632 005c 003B     		subs	r3, r3, #0
 633 005e 18BF     		it	ne
 634 0060 0123     		movne	r3, #1
  59:../switch_sdk/core/fal/tiger/fal_tiger_interrupt.c **** 
 635              		.loc 1 59 14 discriminator 2 view .LVU133
 636 0062 2B70     		strb	r3, [r5]
 637              	.LVL65:
  61:../switch_sdk/core/fal/tiger/fal_tiger_interrupt.c **** }
 638              		.loc 1 61 5 is_stmt 1 discriminator 2 view .LVU134
  61:../switch_sdk/core/fal/tiger/fal_tiger_interrupt.c **** }
 639              		.loc 1 61 12 is_stmt 0 discriminator 2 view .LVU135
 640 0064 0020     		movs	r0, #0
 641 0066 DFE7     		b	.L33
 642              	.L40:
 643              		.align	2
 644              	.L39:
 645 0068 00000000 		.word	yt_debug_level
 646 006c 00000000 		.word	__FUNCTION__.1
 647 0070 00000000 		.word	.LC3
 648 0074 00000000 		.word	_yt_errmsg
 649 0078 00000000 		.word	_yt_prompt_msg
 650 007c 3C000000 		.word	.LC1
 651              		.cfi_endproc
 652              	.LFE6:
 654              		.section	.rodata.fal_tiger_int_status_get.str1.4,"aMS",%progbits,1
 655              		.align	2
 656              	.LC5:
 657 0000 68616C5F 		.ascii	"hal_table_reg_read(unit,6,0,sizeof(yt_intr_status_t"
 657      7461626C 
 657      655F7265 
 657      675F7265 
 657      61642875 
 658 0033 292C2669 		.ascii	"),&intr_status)\000"
 658      6E74725F 
 658      73746174 
 658      75732900 
 659              		.section	.text.fal_tiger_int_status_get,"ax",%progbits
 660              		.align	1
 661              		.global	fal_tiger_int_status_get
 662              		.syntax unified
 663              		.thumb
 664              		.thumb_func
 666              	fal_tiger_int_status_get:
 667              	.LVL66:
 668              	.LFB7:
  63:../switch_sdk/core/fal/tiger/fal_tiger_interrupt.c **** 
  64:../switch_sdk/core/fal/tiger/fal_tiger_interrupt.c **** yt_ret_t fal_tiger_int_status_get(yt_unit_t unit, yt_intr_status_t *pIntStatus)
  65:../switch_sdk/core/fal/tiger/fal_tiger_interrupt.c **** {
 669              		.loc 1 65 1 is_stmt 1 view -0
 670              		.cfi_startproc
 671              		@ args = 0, pretend = 0, frame = 8
 672              		@ frame_needed = 0, uses_anonymous_args = 0
 673              		.loc 1 65 1 is_stmt 0 view .LVU137
 674 0000 70B5     		push	{r4, r5, r6, lr}
 675              		.cfi_def_cfa_offset 16
 676              		.cfi_offset 4, -16
 677              		.cfi_offset 5, -12
 678              		.cfi_offset 6, -8
 679              		.cfi_offset 14, -4
 680 0002 84B0     		sub	sp, sp, #16
 681              		.cfi_def_cfa_offset 32
 682 0004 0546     		mov	r5, r0
 683 0006 0E46     		mov	r6, r1
  66:../switch_sdk/core/fal/tiger/fal_tiger_interrupt.c ****     cmm_err_t ret = CMM_ERR_OK;
 684              		.loc 1 66 5 is_stmt 1 view .LVU138
 685              	.LVL67:
  67:../switch_sdk/core/fal/tiger/fal_tiger_interrupt.c ****     yt_intr_status_t intr_status;
 686              		.loc 1 67 5 view .LVU139
  68:../switch_sdk/core/fal/tiger/fal_tiger_interrupt.c **** #ifdef PORT_INCLUDED
  69:../switch_sdk/core/fal/tiger/fal_tiger_interrupt.c ****     yt_port_t port;
 687              		.loc 1 69 5 view .LVU140
  70:../switch_sdk/core/fal/tiger/fal_tiger_interrupt.c ****     uint16_t tmpData;
 688              		.loc 1 70 5 view .LVU141
  71:../switch_sdk/core/fal/tiger/fal_tiger_interrupt.c **** #endif
  72:../switch_sdk/core/fal/tiger/fal_tiger_interrupt.c **** 
  73:../switch_sdk/core/fal/tiger/fal_tiger_interrupt.c ****     CMM_ERR_CHK(HAL_TBL_REG_READ(unit, INTR_STATUSm, 0, sizeof(yt_intr_status_t), &intr_status), re
 689              		.loc 1 73 5 view .LVU142
 690              		.loc 1 73 5 view .LVU143
 691 0008 03AB     		add	r3, sp, #12
 692 000a 0093     		str	r3, [sp]
 693 000c 0423     		movs	r3, #4
 694 000e 0022     		movs	r2, #0
 695 0010 0621     		movs	r1, #6
 696              	.LVL68:
 697              		.loc 1 73 5 is_stmt 0 view .LVU144
 698 0012 FFF7FEFF 		bl	hal_table_reg_read
 699              	.LVL69:
 700              		.loc 1 73 5 view .LVU145
 701 0016 10F0FF03 		ands	r3, r0, #255
 702 001a 03D1     		bne	.L48
 703              		.loc 1 73 5 is_stmt 1 discriminator 2 view .LVU146
  74:../switch_sdk/core/fal/tiger/fal_tiger_interrupt.c ****     *pIntStatus = intr_status;
 704              		.loc 1 74 5 discriminator 2 view .LVU147
 705              		.loc 1 74 17 is_stmt 0 discriminator 2 view .LVU148
 706 001c 039B     		ldr	r3, [sp, #12]
 707 001e 3360     		str	r3, [r6]
  75:../switch_sdk/core/fal/tiger/fal_tiger_interrupt.c **** 
  76:../switch_sdk/core/fal/tiger/fal_tiger_interrupt.c **** #ifdef PORT_INCLUDED
  77:../switch_sdk/core/fal/tiger/fal_tiger_interrupt.c ****     for(port = 0; port < CAL_PORT_NUM_ON_UNIT(unit); port++)
 708              		.loc 1 77 5 is_stmt 1 discriminator 2 view .LVU149
 709              	.LVL70:
 710              		.loc 1 77 14 is_stmt 0 discriminator 2 view .LVU150
 711 0020 0024     		movs	r4, #0
 712              		.loc 1 77 5 discriminator 2 view .LVU151
 713 0022 1DE0     		b	.L45
 714              	.LVL71:
 715              	.L48:
 716              		.loc 1 77 5 discriminator 2 view .LVU152
 717 0024 0446     		mov	r4, r0
  73:../switch_sdk/core/fal/tiger/fal_tiger_interrupt.c ****     *pIntStatus = intr_status;
 718              		.loc 1 73 5 is_stmt 1 discriminator 1 view .LVU153
  73:../switch_sdk/core/fal/tiger/fal_tiger_interrupt.c ****     *pIntStatus = intr_status;
 719              		.loc 1 73 5 discriminator 1 view .LVU154
 720 0026 134A     		ldr	r2, .L50
 721 0028 1278     		ldrb	r2, [r2]	@ zero_extendqisi2
 722 002a 012A     		cmp	r2, #1
 723 002c 01D8     		bhi	.L49
 724              	.LVL72:
 725              	.L43:
  73:../switch_sdk/core/fal/tiger/fal_tiger_interrupt.c ****     *pIntStatus = intr_status;
 726              		.loc 1 73 5 discriminator 5 view .LVU155
  73:../switch_sdk/core/fal/tiger/fal_tiger_interrupt.c ****     *pIntStatus = intr_status;
 727              		.loc 1 73 5 discriminator 5 view .LVU156
  73:../switch_sdk/core/fal/tiger/fal_tiger_interrupt.c ****     *pIntStatus = intr_status;
 728              		.loc 1 73 5 discriminator 5 view .LVU157
 729 002e E0B2     		uxtb	r0, r4
 730 0030 1DE0     		b	.L41
 731              	.LVL73:
 732              	.L49:
  73:../switch_sdk/core/fal/tiger/fal_tiger_interrupt.c ****     *pIntStatus = intr_status;
 733              		.loc 1 73 5 discriminator 3 view .LVU158
 734              	.LBB10:
  73:../switch_sdk/core/fal/tiger/fal_tiger_interrupt.c ****     *pIntStatus = intr_status;
 735              		.loc 1 73 5 discriminator 3 view .LVU159
 736 0032 142B     		cmp	r3, #20
 737 0034 28BF     		it	cs
 738 0036 1423     		movcs	r3, #20
 739 0038 1A46     		mov	r2, r3
 740 003a 0F4B     		ldr	r3, .L50+4
 741 003c 0093     		str	r3, [sp]
 742 003e 0F4B     		ldr	r3, .L50+8
 743 0040 0F49     		ldr	r1, .L50+12
 744 0042 51F82220 		ldr	r2, [r1, r2, lsl #2]
 745 0046 0F49     		ldr	r1, .L50+16
 746 0048 8968     		ldr	r1, [r1, #8]
 747 004a 0F48     		ldr	r0, .L50+20
 748              	.LVL74:
  73:../switch_sdk/core/fal/tiger/fal_tiger_interrupt.c ****     *pIntStatus = intr_status;
 749              		.loc 1 73 5 is_stmt 0 discriminator 3 view .LVU160
 750 004c FFF7FEFF 		bl	osal_printf
 751              	.LVL75:
 752 0050 EDE7     		b	.L43
 753              	.LVL76:
 754              	.L46:
  73:../switch_sdk/core/fal/tiger/fal_tiger_interrupt.c ****     *pIntStatus = intr_status;
 755              		.loc 1 73 5 discriminator 3 view .LVU161
 756              	.LBE10:
  78:../switch_sdk/core/fal/tiger/fal_tiger_interrupt.c ****     {
  79:../switch_sdk/core/fal/tiger/fal_tiger_interrupt.c ****         /* TODO: clean phy status asynchronously */
  80:../switch_sdk/core/fal/tiger/fal_tiger_interrupt.c ****         /* read and clean phy interrupt status */
  81:../switch_sdk/core/fal/tiger/fal_tiger_interrupt.c ****         fal_tiger_port_phy_interruptStatus_get(unit, port, &tmpData);
 757              		.loc 1 81 9 is_stmt 1 discriminator 3 view .LVU162
 758 0052 0DF10A02 		add	r2, sp, #10
 759 0056 2146     		mov	r1, r4
 760 0058 2846     		mov	r0, r5
 761 005a FFF7FEFF 		bl	fal_tiger_port_phy_interruptStatus_get
 762              	.LVL77:
  77:../switch_sdk/core/fal/tiger/fal_tiger_interrupt.c ****     {
 763              		.loc 1 77 58 discriminator 3 view .LVU163
 764 005e 0134     		adds	r4, r4, #1
 765              	.LVL78:
 766              	.L45:
  77:../switch_sdk/core/fal/tiger/fal_tiger_interrupt.c ****     {
 767              		.loc 1 77 24 discriminator 1 view .LVU164
  77:../switch_sdk/core/fal/tiger/fal_tiger_interrupt.c ****     {
 768              		.loc 1 77 26 is_stmt 0 discriminator 1 view .LVU165
 769 0060 0A4B     		ldr	r3, .L50+24
 770 0062 53F82530 		ldr	r3, [r3, r5, lsl #2]
 771 0066 1B7D     		ldrb	r3, [r3, #20]	@ zero_extendqisi2
  77:../switch_sdk/core/fal/tiger/fal_tiger_interrupt.c ****     {
 772              		.loc 1 77 24 discriminator 1 view .LVU166
 773 0068 A342     		cmp	r3, r4
 774 006a F2D8     		bhi	.L46
  82:../switch_sdk/core/fal/tiger/fal_tiger_interrupt.c ****     }
  83:../switch_sdk/core/fal/tiger/fal_tiger_interrupt.c **** #endif
  84:../switch_sdk/core/fal/tiger/fal_tiger_interrupt.c **** 
  85:../switch_sdk/core/fal/tiger/fal_tiger_interrupt.c ****     return CMM_ERR_OK;
 775              		.loc 1 85 12 view .LVU167
 776 006c 0020     		movs	r0, #0
 777              	.LVL79:
 778              	.L41:
  86:../switch_sdk/core/fal/tiger/fal_tiger_interrupt.c **** }
 779              		.loc 1 86 1 view .LVU168
 780 006e 04B0     		add	sp, sp, #16
 781              		.cfi_def_cfa_offset 16
 782              		@ sp needed
 783 0070 70BD     		pop	{r4, r5, r6, pc}
 784              	.LVL80:
 785              	.L51:
 786              		.loc 1 86 1 view .LVU169
 787 0072 00BF     		.align	2
 788              	.L50:
 789 0074 00000000 		.word	yt_debug_level
 790 0078 00000000 		.word	__FUNCTION__.0
 791 007c 00000000 		.word	.LC5
 792 0080 00000000 		.word	_yt_errmsg
 793 0084 00000000 		.word	_yt_prompt_msg
 794 0088 3C000000 		.word	.LC1
 795 008c 00000000 		.word	gpSwitchUnit
 796              		.cfi_endproc
 797              	.LFE7:
 799              		.section	.rodata.__FUNCTION__.0,"a"
 800              		.align	2
 803              	__FUNCTION__.0:
 804 0000 66616C5F 		.ascii	"fal_tiger_int_status_get\000"
 804      74696765 
 804      725F696E 
 804      745F7374 
 804      61747573 
 805              		.section	.rodata.__FUNCTION__.1,"a"
 806              		.align	2
 809              	__FUNCTION__.1:
 810 0000 66616C5F 		.ascii	"fal_tiger_int_control_get\000"
 810      74696765 
 810      725F696E 
 810      745F636F 
 810      6E74726F 
 811              		.section	.rodata.__FUNCTION__.2,"a"
 812              		.align	2
 815              	__FUNCTION__.2:
 816 0000 66616C5F 		.ascii	"fal_tiger_int_control_set\000"
 816      74696765 
 816      725F696E 
 816      745F636F 
 816      6E74726F 
 817              		.section	.rodata.__FUNCTION__.3,"a"
 818              		.align	2
 821              	__FUNCTION__.3:
 822 0000 66616C5F 		.ascii	"fal_tiger_int_polarity_get\000"
 822      74696765 
 822      725F696E 
 822      745F706F 
 822      6C617269 
 823              		.section	.rodata.__FUNCTION__.4,"a"
 824              		.align	2
 827              	__FUNCTION__.4:
 828 0000 66616C5F 		.ascii	"fal_tiger_int_polarity_set\000"
 828      74696765 
 828      725F696E 
 828      745F706F 
 828      6C617269 
 829              		.text
 830              	.Letext0:
 831              		.file 2 "C:\\Users\\Dmitriy\\Desktop\\GD32F10x\\switch_sdk\\common\\include/yt_types.h"
 832              		.file 3 "C:\\Users\\Dmitriy\\Desktop\\GD32F10x\\switch_sdk\\common\\include/yt_error.h"
 833              		.file 4 "C:\\Users\\Dmitriy\\Desktop\\GD32F10x\\switch_sdk\\core\\fal\\chipdef/chipdef.h"
 834              		.file 5 "C:\\Users\\Dmitriy\\Desktop\\GD32F10x\\switch_sdk\\core\\cal/cal_bprofile.h"
 835              		.file 6 "C:\\Users\\Dmitriy\\Desktop\\GD32F10x\\switch_sdk\\include/yt_interrupt.h"
 836              		.file 7 "../switch_sdk/core/fal/tiger/fal_tiger_entry.h"
 837              		.file 8 "../switch_sdk/core/fal/tiger/fal_tiger_port.h"
 838              		.file 9 "C:\\Users\\Dmitriy\\Desktop\\GD32F10x\\switch_sdk\\core\\hal/hal_mem.h"