   1              		.cpu cortex-m3
   2              		.arch armv7-m
   3              		.fpu softvfp
   4              		.eabi_attribute 20, 1
   5              		.eabi_attribute 21, 1
   6              		.eabi_attribute 23, 3
   7              		.eabi_attribute 24, 1
   8              		.eabi_attribute 25, 1
   9              		.eabi_attribute 26, 1
  10              		.eabi_attribute 30, 1
  11              		.eabi_attribute 34, 1
  12              		.eabi_attribute 18, 4
  13              		.file	"yt_acl.c"
  14              		.text
  15              	.Ltext0:
  16              		.cfi_sections	.debug_frame
  17              		.file 1 "../Switch/core/yt/yt_acl.c"
  18              		.section	.rodata.yt_acl_init.str1.4,"aMS",%progbits,1
  19              		.align	2
  20              	.LC0:
  21 0000 25732573 		.ascii	"%s%s\015\012\000"
  21      0D0A00
  22              		.section	.text.yt_acl_init,"ax",%progbits
  23              		.align	1
  24              		.global	yt_acl_init
  25              		.syntax unified
  26              		.thumb
  27              		.thumb_func
  29              	yt_acl_init:
  30              	.LVL0:
  31              	.LFB3:
   1:../Switch/core/yt/yt_acl.c **** /*******************************************************************************
   2:../Switch/core/yt/yt_acl.c **** *                                                                              *
   3:../Switch/core/yt/yt_acl.c **** *  Copyright (c), 2022, Motorcomm Electronic Technology Co.,Ltd.               *
   4:../Switch/core/yt/yt_acl.c **** *  Motorcomm Confidential and Proprietary.                                     *
   5:../Switch/core/yt/yt_acl.c **** *                                                                              *
   6:../Switch/core/yt/yt_acl.c **** ********************************************************************************
   7:../Switch/core/yt/yt_acl.c **** */
   8:../Switch/core/yt/yt_acl.c **** /**
   9:../Switch/core/yt/yt_acl.c **** ********************************************************************************
  10:../Switch/core/yt/yt_acl.c **** * @file yt_acl.c
  11:../Switch/core/yt/yt_acl.c **** *
  12:../Switch/core/yt/yt_acl.c **** * @brief x
  13:../Switch/core/yt/yt_acl.c **** *
  14:../Switch/core/yt/yt_acl.c **** ********************************************************************************
  15:../Switch/core/yt/yt_acl.c **** */
  16:../Switch/core/yt/yt_acl.c **** #include "yt_acl.h"
  17:../Switch/core/yt/yt_acl.c **** #include "fal_dispatch.h"
  18:../Switch/core/yt/yt_acl.c **** 
  19:../Switch/core/yt/yt_acl.c **** 
  20:../Switch/core/yt/yt_acl.c **** /**
  21:../Switch/core/yt/yt_acl.c ****  * @internal      yt_acl_init
  22:../Switch/core/yt/yt_acl.c ****  * @endinternal
  23:../Switch/core/yt/yt_acl.c ****  *
  24:../Switch/core/yt/yt_acl.c ****  * @brief         Description
  25:../Switch/core/yt/yt_acl.c ****  * @note          APPLICABLE DEVICES  -Tiger
  26:../Switch/core/yt/yt_acl.c ****  * @param[in]     unit                -unit id
  27:../Switch/core/yt/yt_acl.c ****  * @retval        CMM_ERR_OK          -on success
  28:../Switch/core/yt/yt_acl.c ****  * @retval        CMM_ERR_FAIL        -on fail
  29:../Switch/core/yt/yt_acl.c ****  */
  30:../Switch/core/yt/yt_acl.c **** yt_ret_t yt_acl_init(yt_unit_t unit)
  31:../Switch/core/yt/yt_acl.c **** {
  32              		.loc 1 31 1 view -0
  33              		.cfi_startproc
  34              		@ args = 0, pretend = 0, frame = 0
  35              		@ frame_needed = 0, uses_anonymous_args = 0
  36              		.loc 1 31 1 is_stmt 0 view .LVU1
  37 0000 08B5     		push	{r3, lr}
  38              		.cfi_def_cfa_offset 8
  39              		.cfi_offset 3, -8
  40              		.cfi_offset 14, -4
  32:../Switch/core/yt/yt_acl.c ****     CMM_PARAM_CHK((YT_UNIT_NUM <= unit), CMM_ERR_INPUT);
  41              		.loc 1 32 5 is_stmt 1 view .LVU2
  42              		.loc 1 32 5 view .LVU3
  43 0002 48B9     		cbnz	r0, .L10
  44              		.loc 1 32 5 discriminator 2 view .LVU4
  33:../Switch/core/yt/yt_acl.c ****     CMM_PARAM_CHK(NULL == YT_DISPATCH(unit), CMM_ERR_NOT_INIT);
  45              		.loc 1 33 5 discriminator 2 view .LVU5
  46              		.loc 1 33 5 discriminator 2 view .LVU6
  47 0004 194B     		ldr	r3, .L16
  48 0006 53F82030 		ldr	r3, [r3, r0, lsl #2]
  49 000a 9BB1     		cbz	r3, .L11
  50              		.loc 1 33 5 discriminator 2 view .LVU7
  34:../Switch/core/yt/yt_acl.c ****     CMM_PARAM_CHK((!(YT_DISPATCH(unit)->is_inited)), CMM_ERR_NOT_INIT);
  51              		.loc 1 34 5 discriminator 2 view .LVU8
  52              		.loc 1 34 5 discriminator 2 view .LVU9
  53 000c 1978     		ldrb	r1, [r3]	@ zero_extendqisi2
  54 000e F9B1     		cbz	r1, .L12
  55              		.loc 1 34 5 discriminator 2 view .LVU10
  35:../Switch/core/yt/yt_acl.c **** 
  36:../Switch/core/yt/yt_acl.c ****     return YT_DISPATCH(unit)->acl_init(unit);
  56              		.loc 1 36 5 discriminator 2 view .LVU11
  57              		.loc 1 36 29 is_stmt 0 discriminator 2 view .LVU12
  58 0010 D3F8F430 		ldr	r3, [r3, #244]
  59              		.loc 1 36 12 discriminator 2 view .LVU13
  60 0014 9847     		blx	r3
  61              	.LVL1:
  62              	.L1:
  37:../Switch/core/yt/yt_acl.c **** }
  63              		.loc 1 37 1 view .LVU14
  64 0016 08BD     		pop	{r3, pc}
  65              	.LVL2:
  66              	.L10:
  32:../Switch/core/yt/yt_acl.c ****     CMM_PARAM_CHK(NULL == YT_DISPATCH(unit), CMM_ERR_NOT_INIT);
  67              		.loc 1 32 5 is_stmt 1 discriminator 1 view .LVU15
  32:../Switch/core/yt/yt_acl.c ****     CMM_PARAM_CHK(NULL == YT_DISPATCH(unit), CMM_ERR_NOT_INIT);
  68              		.loc 1 32 5 discriminator 1 view .LVU16
  69 0018 154B     		ldr	r3, .L16+4
  70 001a 1B78     		ldrb	r3, [r3]	@ zero_extendqisi2
  71 001c 012B     		cmp	r3, #1
  72 001e 01D8     		bhi	.L13
  73              	.LVL3:
  74              	.L3:
  32:../Switch/core/yt/yt_acl.c ****     CMM_PARAM_CHK(NULL == YT_DISPATCH(unit), CMM_ERR_NOT_INIT);
  75              		.loc 1 32 5 discriminator 5 view .LVU17
  32:../Switch/core/yt/yt_acl.c ****     CMM_PARAM_CHK(NULL == YT_DISPATCH(unit), CMM_ERR_NOT_INIT);
  76              		.loc 1 32 5 discriminator 5 view .LVU18
  32:../Switch/core/yt/yt_acl.c ****     CMM_PARAM_CHK(NULL == YT_DISPATCH(unit), CMM_ERR_NOT_INIT);
  77              		.loc 1 32 5 discriminator 5 view .LVU19
  78 0020 0520     		movs	r0, #5
  79 0022 F8E7     		b	.L1
  80              	.LVL4:
  81              	.L13:
  32:../Switch/core/yt/yt_acl.c ****     CMM_PARAM_CHK(NULL == YT_DISPATCH(unit), CMM_ERR_NOT_INIT);
  82              		.loc 1 32 5 discriminator 3 view .LVU20
  83              	.LBB2:
  32:../Switch/core/yt/yt_acl.c ****     CMM_PARAM_CHK(NULL == YT_DISPATCH(unit), CMM_ERR_NOT_INIT);
  84              		.loc 1 32 5 discriminator 3 view .LVU21
  85 0024 134B     		ldr	r3, .L16+8
  86 0026 5A69     		ldr	r2, [r3, #20]
  87 0028 134B     		ldr	r3, .L16+12
  88 002a 9968     		ldr	r1, [r3, #8]
  89 002c 1348     		ldr	r0, .L16+16
  90              	.LVL5:
  32:../Switch/core/yt/yt_acl.c ****     CMM_PARAM_CHK(NULL == YT_DISPATCH(unit), CMM_ERR_NOT_INIT);
  91              		.loc 1 32 5 is_stmt 0 discriminator 3 view .LVU22
  92 002e FFF7FEFF 		bl	osal_printf
  93              	.LVL6:
  94 0032 F5E7     		b	.L3
  95              	.LVL7:
  96              	.L11:
  32:../Switch/core/yt/yt_acl.c ****     CMM_PARAM_CHK(NULL == YT_DISPATCH(unit), CMM_ERR_NOT_INIT);
  97              		.loc 1 32 5 discriminator 3 view .LVU23
  98              	.LBE2:
  33:../Switch/core/yt/yt_acl.c ****     CMM_PARAM_CHK((!(YT_DISPATCH(unit)->is_inited)), CMM_ERR_NOT_INIT);
  99              		.loc 1 33 5 is_stmt 1 discriminator 1 view .LVU24
  33:../Switch/core/yt/yt_acl.c ****     CMM_PARAM_CHK((!(YT_DISPATCH(unit)->is_inited)), CMM_ERR_NOT_INIT);
 100              		.loc 1 33 5 discriminator 1 view .LVU25
 101 0034 0E4B     		ldr	r3, .L16+4
 102 0036 1B78     		ldrb	r3, [r3]	@ zero_extendqisi2
 103 0038 012B     		cmp	r3, #1
 104 003a 01D8     		bhi	.L14
 105              	.LVL8:
 106              	.L6:
  33:../Switch/core/yt/yt_acl.c ****     CMM_PARAM_CHK((!(YT_DISPATCH(unit)->is_inited)), CMM_ERR_NOT_INIT);
 107              		.loc 1 33 5 discriminator 5 view .LVU26
  33:../Switch/core/yt/yt_acl.c ****     CMM_PARAM_CHK((!(YT_DISPATCH(unit)->is_inited)), CMM_ERR_NOT_INIT);
 108              		.loc 1 33 5 discriminator 5 view .LVU27
  33:../Switch/core/yt/yt_acl.c ****     CMM_PARAM_CHK((!(YT_DISPATCH(unit)->is_inited)), CMM_ERR_NOT_INIT);
 109              		.loc 1 33 5 discriminator 5 view .LVU28
 110 003c 0420     		movs	r0, #4
 111 003e EAE7     		b	.L1
 112              	.LVL9:
 113              	.L14:
  33:../Switch/core/yt/yt_acl.c ****     CMM_PARAM_CHK((!(YT_DISPATCH(unit)->is_inited)), CMM_ERR_NOT_INIT);
 114              		.loc 1 33 5 discriminator 3 view .LVU29
 115              	.LBB3:
  33:../Switch/core/yt/yt_acl.c ****     CMM_PARAM_CHK((!(YT_DISPATCH(unit)->is_inited)), CMM_ERR_NOT_INIT);
 116              		.loc 1 33 5 discriminator 3 view .LVU30
 117 0040 0C4B     		ldr	r3, .L16+8
 118 0042 1A69     		ldr	r2, [r3, #16]
 119 0044 0C4B     		ldr	r3, .L16+12
 120 0046 9968     		ldr	r1, [r3, #8]
 121 0048 0C48     		ldr	r0, .L16+16
 122              	.LVL10:
  33:../Switch/core/yt/yt_acl.c ****     CMM_PARAM_CHK((!(YT_DISPATCH(unit)->is_inited)), CMM_ERR_NOT_INIT);
 123              		.loc 1 33 5 is_stmt 0 discriminator 3 view .LVU31
 124 004a FFF7FEFF 		bl	osal_printf
 125              	.LVL11:
 126 004e F5E7     		b	.L6
 127              	.LVL12:
 128              	.L12:
  33:../Switch/core/yt/yt_acl.c ****     CMM_PARAM_CHK((!(YT_DISPATCH(unit)->is_inited)), CMM_ERR_NOT_INIT);
 129              		.loc 1 33 5 discriminator 3 view .LVU32
 130              	.LBE3:
  34:../Switch/core/yt/yt_acl.c **** 
 131              		.loc 1 34 5 is_stmt 1 discriminator 1 view .LVU33
  34:../Switch/core/yt/yt_acl.c **** 
 132              		.loc 1 34 5 discriminator 1 view .LVU34
 133 0050 074B     		ldr	r3, .L16+4
 134 0052 1B78     		ldrb	r3, [r3]	@ zero_extendqisi2
 135 0054 012B     		cmp	r3, #1
 136 0056 01D8     		bhi	.L15
 137              	.LVL13:
 138              	.L8:
  34:../Switch/core/yt/yt_acl.c **** 
 139              		.loc 1 34 5 discriminator 5 view .LVU35
  34:../Switch/core/yt/yt_acl.c **** 
 140              		.loc 1 34 5 discriminator 5 view .LVU36
  34:../Switch/core/yt/yt_acl.c **** 
 141              		.loc 1 34 5 discriminator 5 view .LVU37
 142 0058 0420     		movs	r0, #4
 143 005a DCE7     		b	.L1
 144              	.LVL14:
 145              	.L15:
  34:../Switch/core/yt/yt_acl.c **** 
 146              		.loc 1 34 5 discriminator 3 view .LVU38
 147              	.LBB4:
  34:../Switch/core/yt/yt_acl.c **** 
 148              		.loc 1 34 5 discriminator 3 view .LVU39
 149 005c 054B     		ldr	r3, .L16+8
 150 005e 1A69     		ldr	r2, [r3, #16]
 151 0060 054B     		ldr	r3, .L16+12
 152 0062 9968     		ldr	r1, [r3, #8]
 153 0064 0548     		ldr	r0, .L16+16
 154              	.LVL15:
  34:../Switch/core/yt/yt_acl.c **** 
 155              		.loc 1 34 5 is_stmt 0 discriminator 3 view .LVU40
 156 0066 FFF7FEFF 		bl	osal_printf
 157              	.LVL16:
 158 006a F5E7     		b	.L8
 159              	.L17:
 160              		.align	2
 161              	.L16:
 162 006c 00000000 		.word	gpfal_dispatch
 163 0070 00000000 		.word	yt_debug_level
 164 0074 00000000 		.word	_yt_errmsg
 165 0078 00000000 		.word	_yt_prompt_msg
 166 007c 00000000 		.word	.LC0
 167              	.LBE4:
 168              		.cfi_endproc
 169              	.LFE3:
 171              		.section	.text.yt_acl_port_en_set,"ax",%progbits
 172              		.align	1
 173              		.global	yt_acl_port_en_set
 174              		.syntax unified
 175              		.thumb
 176              		.thumb_func
 178              	yt_acl_port_en_set:
 179              	.LVL17:
 180              	.LFB4:
  38:../Switch/core/yt/yt_acl.c **** 
  39:../Switch/core/yt/yt_acl.c **** /**
  40:../Switch/core/yt/yt_acl.c ****  * @internal      yt_acl_port_en_set
  41:../Switch/core/yt/yt_acl.c ****  * @endinternal
  42:../Switch/core/yt/yt_acl.c ****  *
  43:../Switch/core/yt/yt_acl.c ****  * @brief         Description
  44:../Switch/core/yt/yt_acl.c ****  * @note          APPLICABLE DEVICES  -Tiger
  45:../Switch/core/yt/yt_acl.c ****  * @param[in]     unit                -unit id
  46:../Switch/core/yt/yt_acl.c ****  * @param[in]     port                -port num
  47:../Switch/core/yt/yt_acl.c ****  * @param[in]     enable             -enable or disable
  48:../Switch/core/yt/yt_acl.c ****  * @retval        CMM_ERR_OK          -on success
  49:../Switch/core/yt/yt_acl.c ****  * @retval        CMM_ERR_FAIL        -on fail
  50:../Switch/core/yt/yt_acl.c ****  */
  51:../Switch/core/yt/yt_acl.c **** yt_ret_t  yt_acl_port_en_set(yt_unit_t unit, yt_port_t port, yt_enable_t enable)
  52:../Switch/core/yt/yt_acl.c **** {
 181              		.loc 1 52 1 is_stmt 1 view -0
 182              		.cfi_startproc
 183              		@ args = 0, pretend = 0, frame = 0
 184              		@ frame_needed = 0, uses_anonymous_args = 0
 185              		.loc 1 52 1 is_stmt 0 view .LVU42
 186 0000 08B5     		push	{r3, lr}
 187              		.cfi_def_cfa_offset 8
 188              		.cfi_offset 3, -8
 189              		.cfi_offset 14, -4
  53:../Switch/core/yt/yt_acl.c ****     CMM_PARAM_CHK((YT_UNIT_NUM <= unit), CMM_ERR_INPUT);
 190              		.loc 1 53 5 is_stmt 1 view .LVU43
 191              		.loc 1 53 5 view .LVU44
 192 0002 C0B9     		cbnz	r0, .L32
 193 0004 8446     		mov	ip, r0
 194              		.loc 1 53 5 discriminator 2 view .LVU45
  54:../Switch/core/yt/yt_acl.c ****     CMM_PARAM_CHK(NULL == YT_DISPATCH(unit), CMM_ERR_NOT_INIT);
 195              		.loc 1 54 5 discriminator 2 view .LVU46
 196              		.loc 1 54 5 discriminator 2 view .LVU47
 197 0006 2F4B     		ldr	r3, .L41
 198 0008 53F82030 		ldr	r3, [r3, r0, lsl #2]
 199 000c 0BB3     		cbz	r3, .L33
 200              		.loc 1 54 5 discriminator 2 view .LVU48
  55:../Switch/core/yt/yt_acl.c ****     CMM_PARAM_CHK((!(YT_DISPATCH(unit)->is_inited)), CMM_ERR_NOT_INIT);
 201              		.loc 1 55 5 discriminator 2 view .LVU49
 202              		.loc 1 55 5 discriminator 2 view .LVU50
 203 000e 1878     		ldrb	r0, [r3]	@ zero_extendqisi2
 204              	.LVL18:
 205              		.loc 1 55 5 is_stmt 0 discriminator 2 view .LVU51
 206 0010 0028     		cmp	r0, #0
 207 0012 2CD0     		beq	.L34
 208              		.loc 1 55 5 is_stmt 1 discriminator 2 view .LVU52
  56:../Switch/core/yt/yt_acl.c ****     CMM_PARAM_CHK((!(CMM_PORT_VALID(unit, port))), CMM_ERR_PORT);
 209              		.loc 1 56 5 discriminator 2 view .LVU53
 210              		.loc 1 56 5 discriminator 2 view .LVU54
 211 0014 2C48     		ldr	r0, .L41+4
 212 0016 0078     		ldrb	r0, [r0]	@ zero_extendqisi2
 213 0018 0028     		cmp	r0, #0
 214 001a 36D0     		beq	.L26
 215 001c 2B48     		ldr	r0, .L41+8
 216 001e 50F82C00 		ldr	r0, [r0, ip, lsl #2]
 217 0022 007D     		ldrb	r0, [r0, #20]	@ zero_extendqisi2
 218 0024 8842     		cmp	r0, r1
 219 0026 30D9     		bls	.L26
 220              		.loc 1 56 5 discriminator 4 view .LVU55
  57:../Switch/core/yt/yt_acl.c ****     CMM_PARAM_CHK((YT_ENABLE < enable || YT_DISABLE > enable), CMM_ERR_INPUT);
 221              		.loc 1 57 5 discriminator 4 view .LVU56
 222              		.loc 1 57 5 discriminator 4 view .LVU57
 223 0028 012A     		cmp	r2, #1
 224 002a 3CD8     		bhi	.L35
 225              		.loc 1 57 5 discriminator 2 view .LVU58
  58:../Switch/core/yt/yt_acl.c **** 
  59:../Switch/core/yt/yt_acl.c ****     return YT_DISPATCH(unit)->acl_port_en_set(unit, port, enable);
 226              		.loc 1 59 5 discriminator 2 view .LVU59
 227              		.loc 1 59 29 is_stmt 0 discriminator 2 view .LVU60
 228 002c D3F8F830 		ldr	r3, [r3, #248]
 229              		.loc 1 59 12 discriminator 2 view .LVU61
 230 0030 6046     		mov	r0, ip
 231 0032 9847     		blx	r3
 232              	.LVL19:
 233              	.L18:
  60:../Switch/core/yt/yt_acl.c **** }
 234              		.loc 1 60 1 view .LVU62
 235 0034 08BD     		pop	{r3, pc}
 236              	.LVL20:
 237              	.L32:
  53:../Switch/core/yt/yt_acl.c ****     CMM_PARAM_CHK(NULL == YT_DISPATCH(unit), CMM_ERR_NOT_INIT);
 238              		.loc 1 53 5 is_stmt 1 discriminator 1 view .LVU63
  53:../Switch/core/yt/yt_acl.c ****     CMM_PARAM_CHK(NULL == YT_DISPATCH(unit), CMM_ERR_NOT_INIT);
 239              		.loc 1 53 5 discriminator 1 view .LVU64
 240 0036 264B     		ldr	r3, .L41+12
 241 0038 1B78     		ldrb	r3, [r3]	@ zero_extendqisi2
 242 003a 012B     		cmp	r3, #1
 243 003c 01D8     		bhi	.L36
 244              	.LVL21:
 245              	.L20:
  53:../Switch/core/yt/yt_acl.c ****     CMM_PARAM_CHK(NULL == YT_DISPATCH(unit), CMM_ERR_NOT_INIT);
 246              		.loc 1 53 5 discriminator 5 view .LVU65
  53:../Switch/core/yt/yt_acl.c ****     CMM_PARAM_CHK(NULL == YT_DISPATCH(unit), CMM_ERR_NOT_INIT);
 247              		.loc 1 53 5 discriminator 5 view .LVU66
  53:../Switch/core/yt/yt_acl.c ****     CMM_PARAM_CHK(NULL == YT_DISPATCH(unit), CMM_ERR_NOT_INIT);
 248              		.loc 1 53 5 discriminator 5 view .LVU67
 249 003e 0520     		movs	r0, #5
 250 0040 F8E7     		b	.L18
 251              	.LVL22:
 252              	.L36:
  53:../Switch/core/yt/yt_acl.c ****     CMM_PARAM_CHK(NULL == YT_DISPATCH(unit), CMM_ERR_NOT_INIT);
 253              		.loc 1 53 5 discriminator 3 view .LVU68
 254              	.LBB5:
  53:../Switch/core/yt/yt_acl.c ****     CMM_PARAM_CHK(NULL == YT_DISPATCH(unit), CMM_ERR_NOT_INIT);
 255              		.loc 1 53 5 discriminator 3 view .LVU69
 256 0042 244B     		ldr	r3, .L41+16
 257 0044 5A69     		ldr	r2, [r3, #20]
 258              	.LVL23:
  53:../Switch/core/yt/yt_acl.c ****     CMM_PARAM_CHK(NULL == YT_DISPATCH(unit), CMM_ERR_NOT_INIT);
 259              		.loc 1 53 5 is_stmt 0 discriminator 3 view .LVU70
 260 0046 244B     		ldr	r3, .L41+20
 261 0048 9968     		ldr	r1, [r3, #8]
 262              	.LVL24:
  53:../Switch/core/yt/yt_acl.c ****     CMM_PARAM_CHK(NULL == YT_DISPATCH(unit), CMM_ERR_NOT_INIT);
 263              		.loc 1 53 5 discriminator 3 view .LVU71
 264 004a 2448     		ldr	r0, .L41+24
 265              	.LVL25:
  53:../Switch/core/yt/yt_acl.c ****     CMM_PARAM_CHK(NULL == YT_DISPATCH(unit), CMM_ERR_NOT_INIT);
 266              		.loc 1 53 5 discriminator 3 view .LVU72
 267 004c FFF7FEFF 		bl	osal_printf
 268              	.LVL26:
 269 0050 F5E7     		b	.L20
 270              	.LVL27:
 271              	.L33:
  53:../Switch/core/yt/yt_acl.c ****     CMM_PARAM_CHK(NULL == YT_DISPATCH(unit), CMM_ERR_NOT_INIT);
 272              		.loc 1 53 5 discriminator 3 view .LVU73
 273              	.LBE5:
  54:../Switch/core/yt/yt_acl.c ****     CMM_PARAM_CHK((!(YT_DISPATCH(unit)->is_inited)), CMM_ERR_NOT_INIT);
 274              		.loc 1 54 5 is_stmt 1 discriminator 1 view .LVU74
  54:../Switch/core/yt/yt_acl.c ****     CMM_PARAM_CHK((!(YT_DISPATCH(unit)->is_inited)), CMM_ERR_NOT_INIT);
 275              		.loc 1 54 5 discriminator 1 view .LVU75
 276 0052 1F4B     		ldr	r3, .L41+12
 277 0054 1B78     		ldrb	r3, [r3]	@ zero_extendqisi2
 278 0056 012B     		cmp	r3, #1
 279 0058 01D8     		bhi	.L37
 280              	.LVL28:
 281              	.L23:
  54:../Switch/core/yt/yt_acl.c ****     CMM_PARAM_CHK((!(YT_DISPATCH(unit)->is_inited)), CMM_ERR_NOT_INIT);
 282              		.loc 1 54 5 discriminator 5 view .LVU76
  54:../Switch/core/yt/yt_acl.c ****     CMM_PARAM_CHK((!(YT_DISPATCH(unit)->is_inited)), CMM_ERR_NOT_INIT);
 283              		.loc 1 54 5 discriminator 5 view .LVU77
  54:../Switch/core/yt/yt_acl.c ****     CMM_PARAM_CHK((!(YT_DISPATCH(unit)->is_inited)), CMM_ERR_NOT_INIT);
 284              		.loc 1 54 5 discriminator 5 view .LVU78
 285 005a 0420     		movs	r0, #4
 286 005c EAE7     		b	.L18
 287              	.LVL29:
 288              	.L37:
  54:../Switch/core/yt/yt_acl.c ****     CMM_PARAM_CHK((!(YT_DISPATCH(unit)->is_inited)), CMM_ERR_NOT_INIT);
 289              		.loc 1 54 5 discriminator 3 view .LVU79
 290              	.LBB6:
  54:../Switch/core/yt/yt_acl.c ****     CMM_PARAM_CHK((!(YT_DISPATCH(unit)->is_inited)), CMM_ERR_NOT_INIT);
 291              		.loc 1 54 5 discriminator 3 view .LVU80
 292 005e 1D4B     		ldr	r3, .L41+16
 293 0060 1A69     		ldr	r2, [r3, #16]
 294              	.LVL30:
  54:../Switch/core/yt/yt_acl.c ****     CMM_PARAM_CHK((!(YT_DISPATCH(unit)->is_inited)), CMM_ERR_NOT_INIT);
 295              		.loc 1 54 5 is_stmt 0 discriminator 3 view .LVU81
 296 0062 1D4B     		ldr	r3, .L41+20
 297 0064 9968     		ldr	r1, [r3, #8]
 298              	.LVL31:
  54:../Switch/core/yt/yt_acl.c ****     CMM_PARAM_CHK((!(YT_DISPATCH(unit)->is_inited)), CMM_ERR_NOT_INIT);
 299              		.loc 1 54 5 discriminator 3 view .LVU82
 300 0066 1D48     		ldr	r0, .L41+24
 301              	.LVL32:
  54:../Switch/core/yt/yt_acl.c ****     CMM_PARAM_CHK((!(YT_DISPATCH(unit)->is_inited)), CMM_ERR_NOT_INIT);
 302              		.loc 1 54 5 discriminator 3 view .LVU83
 303 0068 FFF7FEFF 		bl	osal_printf
 304              	.LVL33:
 305 006c F5E7     		b	.L23
 306              	.LVL34:
 307              	.L34:
  54:../Switch/core/yt/yt_acl.c ****     CMM_PARAM_CHK((!(YT_DISPATCH(unit)->is_inited)), CMM_ERR_NOT_INIT);
 308              		.loc 1 54 5 discriminator 3 view .LVU84
 309              	.LBE6:
  55:../Switch/core/yt/yt_acl.c ****     CMM_PARAM_CHK((!(CMM_PORT_VALID(unit, port))), CMM_ERR_PORT);
 310              		.loc 1 55 5 is_stmt 1 discriminator 1 view .LVU85
  55:../Switch/core/yt/yt_acl.c ****     CMM_PARAM_CHK((!(CMM_PORT_VALID(unit, port))), CMM_ERR_PORT);
 311              		.loc 1 55 5 discriminator 1 view .LVU86
 312 006e 184B     		ldr	r3, .L41+12
 313 0070 1B78     		ldrb	r3, [r3]	@ zero_extendqisi2
 314 0072 012B     		cmp	r3, #1
 315 0074 01D8     		bhi	.L38
 316              	.LVL35:
 317              	.L25:
  55:../Switch/core/yt/yt_acl.c ****     CMM_PARAM_CHK((!(CMM_PORT_VALID(unit, port))), CMM_ERR_PORT);
 318              		.loc 1 55 5 discriminator 5 view .LVU87
  55:../Switch/core/yt/yt_acl.c ****     CMM_PARAM_CHK((!(CMM_PORT_VALID(unit, port))), CMM_ERR_PORT);
 319              		.loc 1 55 5 discriminator 5 view .LVU88
  55:../Switch/core/yt/yt_acl.c ****     CMM_PARAM_CHK((!(CMM_PORT_VALID(unit, port))), CMM_ERR_PORT);
 320              		.loc 1 55 5 discriminator 5 view .LVU89
 321 0076 0420     		movs	r0, #4
 322 0078 DCE7     		b	.L18
 323              	.LVL36:
 324              	.L38:
  55:../Switch/core/yt/yt_acl.c ****     CMM_PARAM_CHK((!(CMM_PORT_VALID(unit, port))), CMM_ERR_PORT);
 325              		.loc 1 55 5 discriminator 3 view .LVU90
 326              	.LBB7:
  55:../Switch/core/yt/yt_acl.c ****     CMM_PARAM_CHK((!(CMM_PORT_VALID(unit, port))), CMM_ERR_PORT);
 327              		.loc 1 55 5 discriminator 3 view .LVU91
 328 007a 164B     		ldr	r3, .L41+16
 329 007c 1A69     		ldr	r2, [r3, #16]
 330              	.LVL37:
  55:../Switch/core/yt/yt_acl.c ****     CMM_PARAM_CHK((!(CMM_PORT_VALID(unit, port))), CMM_ERR_PORT);
 331              		.loc 1 55 5 is_stmt 0 discriminator 3 view .LVU92
 332 007e 164B     		ldr	r3, .L41+20
 333 0080 9968     		ldr	r1, [r3, #8]
 334              	.LVL38:
  55:../Switch/core/yt/yt_acl.c ****     CMM_PARAM_CHK((!(CMM_PORT_VALID(unit, port))), CMM_ERR_PORT);
 335              		.loc 1 55 5 discriminator 3 view .LVU93
 336 0082 1648     		ldr	r0, .L41+24
 337 0084 FFF7FEFF 		bl	osal_printf
 338              	.LVL39:
 339 0088 F5E7     		b	.L25
 340              	.LVL40:
 341              	.L26:
  55:../Switch/core/yt/yt_acl.c ****     CMM_PARAM_CHK((!(CMM_PORT_VALID(unit, port))), CMM_ERR_PORT);
 342              		.loc 1 55 5 discriminator 3 view .LVU94
 343              	.LBE7:
  56:../Switch/core/yt/yt_acl.c ****     CMM_PARAM_CHK((YT_ENABLE < enable || YT_DISABLE > enable), CMM_ERR_INPUT);
 344              		.loc 1 56 5 is_stmt 1 discriminator 3 view .LVU95
  56:../Switch/core/yt/yt_acl.c ****     CMM_PARAM_CHK((YT_ENABLE < enable || YT_DISABLE > enable), CMM_ERR_INPUT);
 345              		.loc 1 56 5 discriminator 3 view .LVU96
 346 008a 114B     		ldr	r3, .L41+12
 347 008c 1B78     		ldrb	r3, [r3]	@ zero_extendqisi2
 348 008e 012B     		cmp	r3, #1
 349 0090 01D8     		bhi	.L39
 350              	.LVL41:
 351              	.L28:
  56:../Switch/core/yt/yt_acl.c ****     CMM_PARAM_CHK((YT_ENABLE < enable || YT_DISABLE > enable), CMM_ERR_INPUT);
 352              		.loc 1 56 5 discriminator 7 view .LVU97
  56:../Switch/core/yt/yt_acl.c ****     CMM_PARAM_CHK((YT_ENABLE < enable || YT_DISABLE > enable), CMM_ERR_INPUT);
 353              		.loc 1 56 5 discriminator 7 view .LVU98
  56:../Switch/core/yt/yt_acl.c ****     CMM_PARAM_CHK((YT_ENABLE < enable || YT_DISABLE > enable), CMM_ERR_INPUT);
 354              		.loc 1 56 5 discriminator 7 view .LVU99
 355 0092 0E20     		movs	r0, #14
 356 0094 CEE7     		b	.L18
 357              	.LVL42:
 358              	.L39:
  56:../Switch/core/yt/yt_acl.c ****     CMM_PARAM_CHK((YT_ENABLE < enable || YT_DISABLE > enable), CMM_ERR_INPUT);
 359              		.loc 1 56 5 discriminator 5 view .LVU100
 360              	.LBB8:
  56:../Switch/core/yt/yt_acl.c ****     CMM_PARAM_CHK((YT_ENABLE < enable || YT_DISABLE > enable), CMM_ERR_INPUT);
 361              		.loc 1 56 5 discriminator 5 view .LVU101
 362 0096 0F4B     		ldr	r3, .L41+16
 363 0098 9A6B     		ldr	r2, [r3, #56]
 364              	.LVL43:
  56:../Switch/core/yt/yt_acl.c ****     CMM_PARAM_CHK((YT_ENABLE < enable || YT_DISABLE > enable), CMM_ERR_INPUT);
 365              		.loc 1 56 5 is_stmt 0 discriminator 5 view .LVU102
 366 009a 0F4B     		ldr	r3, .L41+20
 367 009c 9968     		ldr	r1, [r3, #8]
 368              	.LVL44:
  56:../Switch/core/yt/yt_acl.c ****     CMM_PARAM_CHK((YT_ENABLE < enable || YT_DISABLE > enable), CMM_ERR_INPUT);
 369              		.loc 1 56 5 discriminator 5 view .LVU103
 370 009e 0F48     		ldr	r0, .L41+24
 371 00a0 FFF7FEFF 		bl	osal_printf
 372              	.LVL45:
 373 00a4 F5E7     		b	.L28
 374              	.LVL46:
 375              	.L35:
  56:../Switch/core/yt/yt_acl.c ****     CMM_PARAM_CHK((YT_ENABLE < enable || YT_DISABLE > enable), CMM_ERR_INPUT);
 376              		.loc 1 56 5 discriminator 5 view .LVU104
 377              	.LBE8:
  57:../Switch/core/yt/yt_acl.c **** 
 378              		.loc 1 57 5 is_stmt 1 discriminator 1 view .LVU105
  57:../Switch/core/yt/yt_acl.c **** 
 379              		.loc 1 57 5 discriminator 1 view .LVU106
 380 00a6 0A4B     		ldr	r3, .L41+12
 381 00a8 1B78     		ldrb	r3, [r3]	@ zero_extendqisi2
 382 00aa 012B     		cmp	r3, #1
 383 00ac 01D8     		bhi	.L40
 384              	.LVL47:
 385              	.L30:
  57:../Switch/core/yt/yt_acl.c **** 
 386              		.loc 1 57 5 discriminator 5 view .LVU107
  57:../Switch/core/yt/yt_acl.c **** 
 387              		.loc 1 57 5 discriminator 5 view .LVU108
  57:../Switch/core/yt/yt_acl.c **** 
 388              		.loc 1 57 5 discriminator 5 view .LVU109
 389 00ae 0520     		movs	r0, #5
 390 00b0 C0E7     		b	.L18
 391              	.LVL48:
 392              	.L40:
  57:../Switch/core/yt/yt_acl.c **** 
 393              		.loc 1 57 5 discriminator 3 view .LVU110
 394              	.LBB9:
  57:../Switch/core/yt/yt_acl.c **** 
 395              		.loc 1 57 5 discriminator 3 view .LVU111
 396 00b2 084B     		ldr	r3, .L41+16
 397 00b4 5A69     		ldr	r2, [r3, #20]
 398              	.LVL49:
  57:../Switch/core/yt/yt_acl.c **** 
 399              		.loc 1 57 5 is_stmt 0 discriminator 3 view .LVU112
 400 00b6 084B     		ldr	r3, .L41+20
 401 00b8 9968     		ldr	r1, [r3, #8]
 402              	.LVL50:
  57:../Switch/core/yt/yt_acl.c **** 
 403              		.loc 1 57 5 discriminator 3 view .LVU113
 404 00ba 0848     		ldr	r0, .L41+24
 405 00bc FFF7FEFF 		bl	osal_printf
 406              	.LVL51:
 407 00c0 F5E7     		b	.L30
 408              	.L42:
 409 00c2 00BF     		.align	2
 410              	.L41:
 411 00c4 00000000 		.word	gpfal_dispatch
 412 00c8 00000000 		.word	gcal_inited
 413 00cc 00000000 		.word	gpSwitchUnit
 414 00d0 00000000 		.word	yt_debug_level
 415 00d4 00000000 		.word	_yt_errmsg
 416 00d8 00000000 		.word	_yt_prompt_msg
 417 00dc 00000000 		.word	.LC0
 418              	.LBE9:
 419              		.cfi_endproc
 420              	.LFE4:
 422              		.section	.text.yt_acl_port_en_get,"ax",%progbits
 423              		.align	1
 424              		.global	yt_acl_port_en_get
 425              		.syntax unified
 426              		.thumb
 427              		.thumb_func
 429              	yt_acl_port_en_get:
 430              	.LVL52:
 431              	.LFB5:
  61:../Switch/core/yt/yt_acl.c **** 
  62:../Switch/core/yt/yt_acl.c **** /**
  63:../Switch/core/yt/yt_acl.c ****  * @internal      yt_acl_port_en_get
  64:../Switch/core/yt/yt_acl.c ****  * @endinternal
  65:../Switch/core/yt/yt_acl.c ****  *
  66:../Switch/core/yt/yt_acl.c ****  * @brief         Description
  67:../Switch/core/yt/yt_acl.c ****  * @note          APPLICABLE DEVICES  -Tiger
  68:../Switch/core/yt/yt_acl.c ****  * @param[in]     unit                -unit id
  69:../Switch/core/yt/yt_acl.c ****  * @param[in]     port                -port num
  70:../Switch/core/yt/yt_acl.c ****  * @param[out]    pEnable            -enable or disable
  71:../Switch/core/yt/yt_acl.c ****  * @retval        CMM_ERR_OK          -on success
  72:../Switch/core/yt/yt_acl.c ****  * @retval        CMM_ERR_FAIL        -on fail
  73:../Switch/core/yt/yt_acl.c ****  */
  74:../Switch/core/yt/yt_acl.c **** yt_ret_t  yt_acl_port_en_get(yt_unit_t unit, yt_port_t port, yt_enable_t *pEnable)
  75:../Switch/core/yt/yt_acl.c **** {
 432              		.loc 1 75 1 is_stmt 1 view -0
 433              		.cfi_startproc
 434              		@ args = 0, pretend = 0, frame = 0
 435              		@ frame_needed = 0, uses_anonymous_args = 0
 436              		.loc 1 75 1 is_stmt 0 view .LVU115
 437 0000 08B5     		push	{r3, lr}
 438              		.cfi_def_cfa_offset 8
 439              		.cfi_offset 3, -8
 440              		.cfi_offset 14, -4
  76:../Switch/core/yt/yt_acl.c ****     CMM_PARAM_CHK((YT_UNIT_NUM <= unit), CMM_ERR_INPUT);
 441              		.loc 1 76 5 is_stmt 1 view .LVU116
 442              		.loc 1 76 5 view .LVU117
 443 0002 C0B9     		cbnz	r0, .L57
 444 0004 8446     		mov	ip, r0
 445              		.loc 1 76 5 discriminator 2 view .LVU118
  77:../Switch/core/yt/yt_acl.c ****     CMM_PARAM_CHK(NULL == YT_DISPATCH(unit), CMM_ERR_NOT_INIT);
 446              		.loc 1 77 5 discriminator 2 view .LVU119
 447              		.loc 1 77 5 discriminator 2 view .LVU120
 448 0006 2F4B     		ldr	r3, .L66
 449 0008 53F82030 		ldr	r3, [r3, r0, lsl #2]
 450 000c 0BB3     		cbz	r3, .L58
 451              		.loc 1 77 5 discriminator 2 view .LVU121
  78:../Switch/core/yt/yt_acl.c ****     CMM_PARAM_CHK((!(YT_DISPATCH(unit)->is_inited)), CMM_ERR_NOT_INIT);
 452              		.loc 1 78 5 discriminator 2 view .LVU122
 453              		.loc 1 78 5 discriminator 2 view .LVU123
 454 000e 1878     		ldrb	r0, [r3]	@ zero_extendqisi2
 455              	.LVL53:
 456              		.loc 1 78 5 is_stmt 0 discriminator 2 view .LVU124
 457 0010 0028     		cmp	r0, #0
 458 0012 2CD0     		beq	.L59
 459              		.loc 1 78 5 is_stmt 1 discriminator 2 view .LVU125
  79:../Switch/core/yt/yt_acl.c ****     CMM_PARAM_CHK((!(CMM_PORT_VALID(unit, port))), CMM_ERR_PORT);
 460              		.loc 1 79 5 discriminator 2 view .LVU126
 461              		.loc 1 79 5 discriminator 2 view .LVU127
 462 0014 2C48     		ldr	r0, .L66+4
 463 0016 0078     		ldrb	r0, [r0]	@ zero_extendqisi2
 464 0018 0028     		cmp	r0, #0
 465 001a 36D0     		beq	.L51
 466 001c 2B48     		ldr	r0, .L66+8
 467 001e 50F82C00 		ldr	r0, [r0, ip, lsl #2]
 468 0022 007D     		ldrb	r0, [r0, #20]	@ zero_extendqisi2
 469 0024 8842     		cmp	r0, r1
 470 0026 30D9     		bls	.L51
 471              		.loc 1 79 5 discriminator 4 view .LVU128
  80:../Switch/core/yt/yt_acl.c ****     CMM_PARAM_CHK((NULL == pEnable), CMM_ERR_NULL_POINT);
 472              		.loc 1 80 5 discriminator 4 view .LVU129
 473              		.loc 1 80 5 discriminator 4 view .LVU130
 474 0028 002A     		cmp	r2, #0
 475 002a 3CD0     		beq	.L60
 476              		.loc 1 80 5 discriminator 2 view .LVU131
  81:../Switch/core/yt/yt_acl.c **** 
  82:../Switch/core/yt/yt_acl.c ****     return YT_DISPATCH(unit)->acl_port_en_get(unit, port, pEnable);
 477              		.loc 1 82 5 discriminator 2 view .LVU132
 478              		.loc 1 82 29 is_stmt 0 discriminator 2 view .LVU133
 479 002c D3F8FC30 		ldr	r3, [r3, #252]
 480              		.loc 1 82 12 discriminator 2 view .LVU134
 481 0030 6046     		mov	r0, ip
 482 0032 9847     		blx	r3
 483              	.LVL54:
 484              	.L43:
  83:../Switch/core/yt/yt_acl.c **** }
 485              		.loc 1 83 1 view .LVU135
 486 0034 08BD     		pop	{r3, pc}
 487              	.LVL55:
 488              	.L57:
  76:../Switch/core/yt/yt_acl.c ****     CMM_PARAM_CHK(NULL == YT_DISPATCH(unit), CMM_ERR_NOT_INIT);
 489              		.loc 1 76 5 is_stmt 1 discriminator 1 view .LVU136
  76:../Switch/core/yt/yt_acl.c ****     CMM_PARAM_CHK(NULL == YT_DISPATCH(unit), CMM_ERR_NOT_INIT);
 490              		.loc 1 76 5 discriminator 1 view .LVU137
 491 0036 264B     		ldr	r3, .L66+12
 492 0038 1B78     		ldrb	r3, [r3]	@ zero_extendqisi2
 493 003a 012B     		cmp	r3, #1
 494 003c 01D8     		bhi	.L61
 495              	.LVL56:
 496              	.L45:
  76:../Switch/core/yt/yt_acl.c ****     CMM_PARAM_CHK(NULL == YT_DISPATCH(unit), CMM_ERR_NOT_INIT);
 497              		.loc 1 76 5 discriminator 5 view .LVU138
  76:../Switch/core/yt/yt_acl.c ****     CMM_PARAM_CHK(NULL == YT_DISPATCH(unit), CMM_ERR_NOT_INIT);
 498              		.loc 1 76 5 discriminator 5 view .LVU139
  76:../Switch/core/yt/yt_acl.c ****     CMM_PARAM_CHK(NULL == YT_DISPATCH(unit), CMM_ERR_NOT_INIT);
 499              		.loc 1 76 5 discriminator 5 view .LVU140
 500 003e 0520     		movs	r0, #5
 501 0040 F8E7     		b	.L43
 502              	.LVL57:
 503              	.L61:
  76:../Switch/core/yt/yt_acl.c ****     CMM_PARAM_CHK(NULL == YT_DISPATCH(unit), CMM_ERR_NOT_INIT);
 504              		.loc 1 76 5 discriminator 3 view .LVU141
 505              	.LBB10:
  76:../Switch/core/yt/yt_acl.c ****     CMM_PARAM_CHK(NULL == YT_DISPATCH(unit), CMM_ERR_NOT_INIT);
 506              		.loc 1 76 5 discriminator 3 view .LVU142
 507 0042 244B     		ldr	r3, .L66+16
 508 0044 5A69     		ldr	r2, [r3, #20]
 509              	.LVL58:
  76:../Switch/core/yt/yt_acl.c ****     CMM_PARAM_CHK(NULL == YT_DISPATCH(unit), CMM_ERR_NOT_INIT);
 510              		.loc 1 76 5 is_stmt 0 discriminator 3 view .LVU143
 511 0046 244B     		ldr	r3, .L66+20
 512 0048 9968     		ldr	r1, [r3, #8]
 513              	.LVL59:
  76:../Switch/core/yt/yt_acl.c ****     CMM_PARAM_CHK(NULL == YT_DISPATCH(unit), CMM_ERR_NOT_INIT);
 514              		.loc 1 76 5 discriminator 3 view .LVU144
 515 004a 2448     		ldr	r0, .L66+24
 516              	.LVL60:
  76:../Switch/core/yt/yt_acl.c ****     CMM_PARAM_CHK(NULL == YT_DISPATCH(unit), CMM_ERR_NOT_INIT);
 517              		.loc 1 76 5 discriminator 3 view .LVU145
 518 004c FFF7FEFF 		bl	osal_printf
 519              	.LVL61:
 520 0050 F5E7     		b	.L45
 521              	.LVL62:
 522              	.L58:
  76:../Switch/core/yt/yt_acl.c ****     CMM_PARAM_CHK(NULL == YT_DISPATCH(unit), CMM_ERR_NOT_INIT);
 523              		.loc 1 76 5 discriminator 3 view .LVU146
 524              	.LBE10:
  77:../Switch/core/yt/yt_acl.c ****     CMM_PARAM_CHK((!(YT_DISPATCH(unit)->is_inited)), CMM_ERR_NOT_INIT);
 525              		.loc 1 77 5 is_stmt 1 discriminator 1 view .LVU147
  77:../Switch/core/yt/yt_acl.c ****     CMM_PARAM_CHK((!(YT_DISPATCH(unit)->is_inited)), CMM_ERR_NOT_INIT);
 526              		.loc 1 77 5 discriminator 1 view .LVU148
 527 0052 1F4B     		ldr	r3, .L66+12
 528 0054 1B78     		ldrb	r3, [r3]	@ zero_extendqisi2
 529 0056 012B     		cmp	r3, #1
 530 0058 01D8     		bhi	.L62
 531              	.LVL63:
 532              	.L48:
  77:../Switch/core/yt/yt_acl.c ****     CMM_PARAM_CHK((!(YT_DISPATCH(unit)->is_inited)), CMM_ERR_NOT_INIT);
 533              		.loc 1 77 5 discriminator 5 view .LVU149
  77:../Switch/core/yt/yt_acl.c ****     CMM_PARAM_CHK((!(YT_DISPATCH(unit)->is_inited)), CMM_ERR_NOT_INIT);
 534              		.loc 1 77 5 discriminator 5 view .LVU150
  77:../Switch/core/yt/yt_acl.c ****     CMM_PARAM_CHK((!(YT_DISPATCH(unit)->is_inited)), CMM_ERR_NOT_INIT);
 535              		.loc 1 77 5 discriminator 5 view .LVU151
 536 005a 0420     		movs	r0, #4
 537 005c EAE7     		b	.L43
 538              	.LVL64:
 539              	.L62:
  77:../Switch/core/yt/yt_acl.c ****     CMM_PARAM_CHK((!(YT_DISPATCH(unit)->is_inited)), CMM_ERR_NOT_INIT);
 540              		.loc 1 77 5 discriminator 3 view .LVU152
 541              	.LBB11:
  77:../Switch/core/yt/yt_acl.c ****     CMM_PARAM_CHK((!(YT_DISPATCH(unit)->is_inited)), CMM_ERR_NOT_INIT);
 542              		.loc 1 77 5 discriminator 3 view .LVU153
 543 005e 1D4B     		ldr	r3, .L66+16
 544 0060 1A69     		ldr	r2, [r3, #16]
 545              	.LVL65:
  77:../Switch/core/yt/yt_acl.c ****     CMM_PARAM_CHK((!(YT_DISPATCH(unit)->is_inited)), CMM_ERR_NOT_INIT);
 546              		.loc 1 77 5 is_stmt 0 discriminator 3 view .LVU154
 547 0062 1D4B     		ldr	r3, .L66+20
 548 0064 9968     		ldr	r1, [r3, #8]
 549              	.LVL66:
  77:../Switch/core/yt/yt_acl.c ****     CMM_PARAM_CHK((!(YT_DISPATCH(unit)->is_inited)), CMM_ERR_NOT_INIT);
 550              		.loc 1 77 5 discriminator 3 view .LVU155
 551 0066 1D48     		ldr	r0, .L66+24
 552              	.LVL67:
  77:../Switch/core/yt/yt_acl.c ****     CMM_PARAM_CHK((!(YT_DISPATCH(unit)->is_inited)), CMM_ERR_NOT_INIT);
 553              		.loc 1 77 5 discriminator 3 view .LVU156
 554 0068 FFF7FEFF 		bl	osal_printf
 555              	.LVL68:
 556 006c F5E7     		b	.L48
 557              	.LVL69:
 558              	.L59:
  77:../Switch/core/yt/yt_acl.c ****     CMM_PARAM_CHK((!(YT_DISPATCH(unit)->is_inited)), CMM_ERR_NOT_INIT);
 559              		.loc 1 77 5 discriminator 3 view .LVU157
 560              	.LBE11:
  78:../Switch/core/yt/yt_acl.c ****     CMM_PARAM_CHK((!(CMM_PORT_VALID(unit, port))), CMM_ERR_PORT);
 561              		.loc 1 78 5 is_stmt 1 discriminator 1 view .LVU158
  78:../Switch/core/yt/yt_acl.c ****     CMM_PARAM_CHK((!(CMM_PORT_VALID(unit, port))), CMM_ERR_PORT);
 562              		.loc 1 78 5 discriminator 1 view .LVU159
 563 006e 184B     		ldr	r3, .L66+12
 564 0070 1B78     		ldrb	r3, [r3]	@ zero_extendqisi2
 565 0072 012B     		cmp	r3, #1
 566 0074 01D8     		bhi	.L63
 567              	.LVL70:
 568              	.L50:
  78:../Switch/core/yt/yt_acl.c ****     CMM_PARAM_CHK((!(CMM_PORT_VALID(unit, port))), CMM_ERR_PORT);
 569              		.loc 1 78 5 discriminator 5 view .LVU160
  78:../Switch/core/yt/yt_acl.c ****     CMM_PARAM_CHK((!(CMM_PORT_VALID(unit, port))), CMM_ERR_PORT);
 570              		.loc 1 78 5 discriminator 5 view .LVU161
  78:../Switch/core/yt/yt_acl.c ****     CMM_PARAM_CHK((!(CMM_PORT_VALID(unit, port))), CMM_ERR_PORT);
 571              		.loc 1 78 5 discriminator 5 view .LVU162
 572 0076 0420     		movs	r0, #4
 573 0078 DCE7     		b	.L43
 574              	.LVL71:
 575              	.L63:
  78:../Switch/core/yt/yt_acl.c ****     CMM_PARAM_CHK((!(CMM_PORT_VALID(unit, port))), CMM_ERR_PORT);
 576              		.loc 1 78 5 discriminator 3 view .LVU163
 577              	.LBB12:
  78:../Switch/core/yt/yt_acl.c ****     CMM_PARAM_CHK((!(CMM_PORT_VALID(unit, port))), CMM_ERR_PORT);
 578              		.loc 1 78 5 discriminator 3 view .LVU164
 579 007a 164B     		ldr	r3, .L66+16
 580 007c 1A69     		ldr	r2, [r3, #16]
 581              	.LVL72:
  78:../Switch/core/yt/yt_acl.c ****     CMM_PARAM_CHK((!(CMM_PORT_VALID(unit, port))), CMM_ERR_PORT);
 582              		.loc 1 78 5 is_stmt 0 discriminator 3 view .LVU165
 583 007e 164B     		ldr	r3, .L66+20
 584 0080 9968     		ldr	r1, [r3, #8]
 585              	.LVL73:
  78:../Switch/core/yt/yt_acl.c ****     CMM_PARAM_CHK((!(CMM_PORT_VALID(unit, port))), CMM_ERR_PORT);
 586              		.loc 1 78 5 discriminator 3 view .LVU166
 587 0082 1648     		ldr	r0, .L66+24
 588 0084 FFF7FEFF 		bl	osal_printf
 589              	.LVL74:
 590 0088 F5E7     		b	.L50
 591              	.LVL75:
 592              	.L51:
  78:../Switch/core/yt/yt_acl.c ****     CMM_PARAM_CHK((!(CMM_PORT_VALID(unit, port))), CMM_ERR_PORT);
 593              		.loc 1 78 5 discriminator 3 view .LVU167
 594              	.LBE12:
  79:../Switch/core/yt/yt_acl.c ****     CMM_PARAM_CHK((NULL == pEnable), CMM_ERR_NULL_POINT);
 595              		.loc 1 79 5 is_stmt 1 discriminator 3 view .LVU168
  79:../Switch/core/yt/yt_acl.c ****     CMM_PARAM_CHK((NULL == pEnable), CMM_ERR_NULL_POINT);
 596              		.loc 1 79 5 discriminator 3 view .LVU169
 597 008a 114B     		ldr	r3, .L66+12
 598 008c 1B78     		ldrb	r3, [r3]	@ zero_extendqisi2
 599 008e 012B     		cmp	r3, #1
 600 0090 01D8     		bhi	.L64
 601              	.LVL76:
 602              	.L53:
  79:../Switch/core/yt/yt_acl.c ****     CMM_PARAM_CHK((NULL == pEnable), CMM_ERR_NULL_POINT);
 603              		.loc 1 79 5 discriminator 7 view .LVU170
  79:../Switch/core/yt/yt_acl.c ****     CMM_PARAM_CHK((NULL == pEnable), CMM_ERR_NULL_POINT);
 604              		.loc 1 79 5 discriminator 7 view .LVU171
  79:../Switch/core/yt/yt_acl.c ****     CMM_PARAM_CHK((NULL == pEnable), CMM_ERR_NULL_POINT);
 605              		.loc 1 79 5 discriminator 7 view .LVU172
 606 0092 0E20     		movs	r0, #14
 607 0094 CEE7     		b	.L43
 608              	.LVL77:
 609              	.L64:
  79:../Switch/core/yt/yt_acl.c ****     CMM_PARAM_CHK((NULL == pEnable), CMM_ERR_NULL_POINT);
 610              		.loc 1 79 5 discriminator 5 view .LVU173
 611              	.LBB13:
  79:../Switch/core/yt/yt_acl.c ****     CMM_PARAM_CHK((NULL == pEnable), CMM_ERR_NULL_POINT);
 612              		.loc 1 79 5 discriminator 5 view .LVU174
 613 0096 0F4B     		ldr	r3, .L66+16
 614 0098 9A6B     		ldr	r2, [r3, #56]
 615              	.LVL78:
  79:../Switch/core/yt/yt_acl.c ****     CMM_PARAM_CHK((NULL == pEnable), CMM_ERR_NULL_POINT);
 616              		.loc 1 79 5 is_stmt 0 discriminator 5 view .LVU175
 617 009a 0F4B     		ldr	r3, .L66+20
 618 009c 9968     		ldr	r1, [r3, #8]
 619              	.LVL79:
  79:../Switch/core/yt/yt_acl.c ****     CMM_PARAM_CHK((NULL == pEnable), CMM_ERR_NULL_POINT);
 620              		.loc 1 79 5 discriminator 5 view .LVU176
 621 009e 0F48     		ldr	r0, .L66+24
 622 00a0 FFF7FEFF 		bl	osal_printf
 623              	.LVL80:
 624 00a4 F5E7     		b	.L53
 625              	.LVL81:
 626              	.L60:
  79:../Switch/core/yt/yt_acl.c ****     CMM_PARAM_CHK((NULL == pEnable), CMM_ERR_NULL_POINT);
 627              		.loc 1 79 5 discriminator 5 view .LVU177
 628              	.LBE13:
  80:../Switch/core/yt/yt_acl.c **** 
 629              		.loc 1 80 5 is_stmt 1 discriminator 1 view .LVU178
  80:../Switch/core/yt/yt_acl.c **** 
 630              		.loc 1 80 5 discriminator 1 view .LVU179
 631 00a6 0A4B     		ldr	r3, .L66+12
 632 00a8 1B78     		ldrb	r3, [r3]	@ zero_extendqisi2
 633 00aa 012B     		cmp	r3, #1
 634 00ac 01D8     		bhi	.L65
 635              	.LVL82:
 636              	.L55:
  80:../Switch/core/yt/yt_acl.c **** 
 637              		.loc 1 80 5 discriminator 5 view .LVU180
  80:../Switch/core/yt/yt_acl.c **** 
 638              		.loc 1 80 5 discriminator 5 view .LVU181
  80:../Switch/core/yt/yt_acl.c **** 
 639              		.loc 1 80 5 discriminator 5 view .LVU182
 640 00ae 0220     		movs	r0, #2
 641 00b0 C0E7     		b	.L43
 642              	.LVL83:
 643              	.L65:
  80:../Switch/core/yt/yt_acl.c **** 
 644              		.loc 1 80 5 discriminator 3 view .LVU183
 645              	.LBB14:
  80:../Switch/core/yt/yt_acl.c **** 
 646              		.loc 1 80 5 discriminator 3 view .LVU184
 647 00b2 084B     		ldr	r3, .L66+16
 648 00b4 9A68     		ldr	r2, [r3, #8]
 649              	.LVL84:
  80:../Switch/core/yt/yt_acl.c **** 
 650              		.loc 1 80 5 is_stmt 0 discriminator 3 view .LVU185
 651 00b6 084B     		ldr	r3, .L66+20
 652 00b8 9968     		ldr	r1, [r3, #8]
 653              	.LVL85:
  80:../Switch/core/yt/yt_acl.c **** 
 654              		.loc 1 80 5 discriminator 3 view .LVU186
 655 00ba 0848     		ldr	r0, .L66+24
 656 00bc FFF7FEFF 		bl	osal_printf
 657              	.LVL86:
 658 00c0 F5E7     		b	.L55
 659              	.L67:
 660 00c2 00BF     		.align	2
 661              	.L66:
 662 00c4 00000000 		.word	gpfal_dispatch
 663 00c8 00000000 		.word	gcal_inited
 664 00cc 00000000 		.word	gpSwitchUnit
 665 00d0 00000000 		.word	yt_debug_level
 666 00d4 00000000 		.word	_yt_errmsg
 667 00d8 00000000 		.word	_yt_prompt_msg
 668 00dc 00000000 		.word	.LC0
 669              	.LBE14:
 670              		.cfi_endproc
 671              	.LFE5:
 673              		.section	.text.yt_acl_unmatch_permit_en_set,"ax",%progbits
 674              		.align	1
 675              		.global	yt_acl_unmatch_permit_en_set
 676              		.syntax unified
 677              		.thumb
 678              		.thumb_func
 680              	yt_acl_unmatch_permit_en_set:
 681              	.LVL87:
 682              	.LFB6:
  84:../Switch/core/yt/yt_acl.c **** 
  85:../Switch/core/yt/yt_acl.c **** /**
  86:../Switch/core/yt/yt_acl.c ****  * @internal      yt_acl_unmatch_permit_en_set
  87:../Switch/core/yt/yt_acl.c ****  * @endinternal
  88:../Switch/core/yt/yt_acl.c ****  *
  89:../Switch/core/yt/yt_acl.c ****  * @brief         Description
  90:../Switch/core/yt/yt_acl.c ****  * @note          APPLICABLE DEVICES  -Tiger
  91:../Switch/core/yt/yt_acl.c ****  * @param[in]     unit                -unit id
  92:../Switch/core/yt/yt_acl.c ****  * @param[in]     port                -port num
  93:../Switch/core/yt/yt_acl.c ****  * @param[in]     enable             -enable or disable
  94:../Switch/core/yt/yt_acl.c ****  * @retval        CMM_ERR_OK          -on success
  95:../Switch/core/yt/yt_acl.c ****  * @retval        CMM_ERR_FAIL        -on fail
  96:../Switch/core/yt/yt_acl.c ****  */
  97:../Switch/core/yt/yt_acl.c **** yt_ret_t  yt_acl_unmatch_permit_en_set(yt_unit_t unit, yt_port_t port, yt_enable_t enable)
  98:../Switch/core/yt/yt_acl.c **** {
 683              		.loc 1 98 1 is_stmt 1 view -0
 684              		.cfi_startproc
 685              		@ args = 0, pretend = 0, frame = 0
 686              		@ frame_needed = 0, uses_anonymous_args = 0
 687              		.loc 1 98 1 is_stmt 0 view .LVU188
 688 0000 08B5     		push	{r3, lr}
 689              		.cfi_def_cfa_offset 8
 690              		.cfi_offset 3, -8
 691              		.cfi_offset 14, -4
  99:../Switch/core/yt/yt_acl.c ****     CMM_PARAM_CHK((YT_UNIT_NUM <= unit), CMM_ERR_INPUT);
 692              		.loc 1 99 5 is_stmt 1 view .LVU189
 693              		.loc 1 99 5 view .LVU190
 694 0002 C0B9     		cbnz	r0, .L82
 695 0004 8446     		mov	ip, r0
 696              		.loc 1 99 5 discriminator 2 view .LVU191
 100:../Switch/core/yt/yt_acl.c ****     CMM_PARAM_CHK(NULL == YT_DISPATCH(unit), CMM_ERR_NOT_INIT);
 697              		.loc 1 100 5 discriminator 2 view .LVU192
 698              		.loc 1 100 5 discriminator 2 view .LVU193
 699 0006 2F4B     		ldr	r3, .L91
 700 0008 53F82030 		ldr	r3, [r3, r0, lsl #2]
 701 000c 0BB3     		cbz	r3, .L83
 702              		.loc 1 100 5 discriminator 2 view .LVU194
 101:../Switch/core/yt/yt_acl.c ****     CMM_PARAM_CHK((!(YT_DISPATCH(unit)->is_inited)), CMM_ERR_NOT_INIT);
 703              		.loc 1 101 5 discriminator 2 view .LVU195
 704              		.loc 1 101 5 discriminator 2 view .LVU196
 705 000e 1878     		ldrb	r0, [r3]	@ zero_extendqisi2
 706              	.LVL88:
 707              		.loc 1 101 5 is_stmt 0 discriminator 2 view .LVU197
 708 0010 0028     		cmp	r0, #0
 709 0012 2CD0     		beq	.L84
 710              		.loc 1 101 5 is_stmt 1 discriminator 2 view .LVU198
 102:../Switch/core/yt/yt_acl.c ****     CMM_PARAM_CHK((!(CMM_PORT_VALID(unit, port))), CMM_ERR_PORT);
 711              		.loc 1 102 5 discriminator 2 view .LVU199
 712              		.loc 1 102 5 discriminator 2 view .LVU200
 713 0014 2C48     		ldr	r0, .L91+4
 714 0016 0078     		ldrb	r0, [r0]	@ zero_extendqisi2
 715 0018 0028     		cmp	r0, #0
 716 001a 36D0     		beq	.L76
 717 001c 2B48     		ldr	r0, .L91+8
 718 001e 50F82C00 		ldr	r0, [r0, ip, lsl #2]
 719 0022 007D     		ldrb	r0, [r0, #20]	@ zero_extendqisi2
 720 0024 8842     		cmp	r0, r1
 721 0026 30D9     		bls	.L76
 722              		.loc 1 102 5 discriminator 4 view .LVU201
 103:../Switch/core/yt/yt_acl.c ****     CMM_PARAM_CHK((YT_ENABLE < enable || YT_DISABLE > enable), CMM_ERR_INPUT);
 723              		.loc 1 103 5 discriminator 4 view .LVU202
 724              		.loc 1 103 5 discriminator 4 view .LVU203
 725 0028 012A     		cmp	r2, #1
 726 002a 3CD8     		bhi	.L85
 727              		.loc 1 103 5 discriminator 2 view .LVU204
 104:../Switch/core/yt/yt_acl.c **** 
 105:../Switch/core/yt/yt_acl.c ****     return YT_DISPATCH(unit)->acl_unmatch_permit_en_set(unit, port, enable);
 728              		.loc 1 105 5 discriminator 2 view .LVU205
 729              		.loc 1 105 29 is_stmt 0 discriminator 2 view .LVU206
 730 002c D3F80031 		ldr	r3, [r3, #256]
 731              		.loc 1 105 12 discriminator 2 view .LVU207
 732 0030 6046     		mov	r0, ip
 733 0032 9847     		blx	r3
 734              	.LVL89:
 735              	.L68:
 106:../Switch/core/yt/yt_acl.c **** }
 736              		.loc 1 106 1 view .LVU208
 737 0034 08BD     		pop	{r3, pc}
 738              	.LVL90:
 739              	.L82:
  99:../Switch/core/yt/yt_acl.c ****     CMM_PARAM_CHK(NULL == YT_DISPATCH(unit), CMM_ERR_NOT_INIT);
 740              		.loc 1 99 5 is_stmt 1 discriminator 1 view .LVU209
  99:../Switch/core/yt/yt_acl.c ****     CMM_PARAM_CHK(NULL == YT_DISPATCH(unit), CMM_ERR_NOT_INIT);
 741              		.loc 1 99 5 discriminator 1 view .LVU210
 742 0036 264B     		ldr	r3, .L91+12
 743 0038 1B78     		ldrb	r3, [r3]	@ zero_extendqisi2
 744 003a 012B     		cmp	r3, #1
 745 003c 01D8     		bhi	.L86
 746              	.LVL91:
 747              	.L70:
  99:../Switch/core/yt/yt_acl.c ****     CMM_PARAM_CHK(NULL == YT_DISPATCH(unit), CMM_ERR_NOT_INIT);
 748              		.loc 1 99 5 discriminator 5 view .LVU211
  99:../Switch/core/yt/yt_acl.c ****     CMM_PARAM_CHK(NULL == YT_DISPATCH(unit), CMM_ERR_NOT_INIT);
 749              		.loc 1 99 5 discriminator 5 view .LVU212
  99:../Switch/core/yt/yt_acl.c ****     CMM_PARAM_CHK(NULL == YT_DISPATCH(unit), CMM_ERR_NOT_INIT);
 750              		.loc 1 99 5 discriminator 5 view .LVU213
 751 003e 0520     		movs	r0, #5
 752 0040 F8E7     		b	.L68
 753              	.LVL92:
 754              	.L86:
  99:../Switch/core/yt/yt_acl.c ****     CMM_PARAM_CHK(NULL == YT_DISPATCH(unit), CMM_ERR_NOT_INIT);
 755              		.loc 1 99 5 discriminator 3 view .LVU214
 756              	.LBB15:
  99:../Switch/core/yt/yt_acl.c ****     CMM_PARAM_CHK(NULL == YT_DISPATCH(unit), CMM_ERR_NOT_INIT);
 757              		.loc 1 99 5 discriminator 3 view .LVU215
 758 0042 244B     		ldr	r3, .L91+16
 759 0044 5A69     		ldr	r2, [r3, #20]
 760              	.LVL93:
  99:../Switch/core/yt/yt_acl.c ****     CMM_PARAM_CHK(NULL == YT_DISPATCH(unit), CMM_ERR_NOT_INIT);
 761              		.loc 1 99 5 is_stmt 0 discriminator 3 view .LVU216
 762 0046 244B     		ldr	r3, .L91+20
 763 0048 9968     		ldr	r1, [r3, #8]
 764              	.LVL94:
  99:../Switch/core/yt/yt_acl.c ****     CMM_PARAM_CHK(NULL == YT_DISPATCH(unit), CMM_ERR_NOT_INIT);
 765              		.loc 1 99 5 discriminator 3 view .LVU217
 766 004a 2448     		ldr	r0, .L91+24
 767              	.LVL95:
  99:../Switch/core/yt/yt_acl.c ****     CMM_PARAM_CHK(NULL == YT_DISPATCH(unit), CMM_ERR_NOT_INIT);
 768              		.loc 1 99 5 discriminator 3 view .LVU218
 769 004c FFF7FEFF 		bl	osal_printf
 770              	.LVL96:
 771 0050 F5E7     		b	.L70
 772              	.LVL97:
 773              	.L83:
  99:../Switch/core/yt/yt_acl.c ****     CMM_PARAM_CHK(NULL == YT_DISPATCH(unit), CMM_ERR_NOT_INIT);
 774              		.loc 1 99 5 discriminator 3 view .LVU219
 775              	.LBE15:
 100:../Switch/core/yt/yt_acl.c ****     CMM_PARAM_CHK((!(YT_DISPATCH(unit)->is_inited)), CMM_ERR_NOT_INIT);
 776              		.loc 1 100 5 is_stmt 1 discriminator 1 view .LVU220
 100:../Switch/core/yt/yt_acl.c ****     CMM_PARAM_CHK((!(YT_DISPATCH(unit)->is_inited)), CMM_ERR_NOT_INIT);
 777              		.loc 1 100 5 discriminator 1 view .LVU221
 778 0052 1F4B     		ldr	r3, .L91+12
 779 0054 1B78     		ldrb	r3, [r3]	@ zero_extendqisi2
 780 0056 012B     		cmp	r3, #1
 781 0058 01D8     		bhi	.L87
 782              	.LVL98:
 783              	.L73:
 100:../Switch/core/yt/yt_acl.c ****     CMM_PARAM_CHK((!(YT_DISPATCH(unit)->is_inited)), CMM_ERR_NOT_INIT);
 784              		.loc 1 100 5 discriminator 5 view .LVU222
 100:../Switch/core/yt/yt_acl.c ****     CMM_PARAM_CHK((!(YT_DISPATCH(unit)->is_inited)), CMM_ERR_NOT_INIT);
 785              		.loc 1 100 5 discriminator 5 view .LVU223
 100:../Switch/core/yt/yt_acl.c ****     CMM_PARAM_CHK((!(YT_DISPATCH(unit)->is_inited)), CMM_ERR_NOT_INIT);
 786              		.loc 1 100 5 discriminator 5 view .LVU224
 787 005a 0420     		movs	r0, #4
 788 005c EAE7     		b	.L68
 789              	.LVL99:
 790              	.L87:
 100:../Switch/core/yt/yt_acl.c ****     CMM_PARAM_CHK((!(YT_DISPATCH(unit)->is_inited)), CMM_ERR_NOT_INIT);
 791              		.loc 1 100 5 discriminator 3 view .LVU225
 792              	.LBB16:
 100:../Switch/core/yt/yt_acl.c ****     CMM_PARAM_CHK((!(YT_DISPATCH(unit)->is_inited)), CMM_ERR_NOT_INIT);
 793              		.loc 1 100 5 discriminator 3 view .LVU226
 794 005e 1D4B     		ldr	r3, .L91+16
 795 0060 1A69     		ldr	r2, [r3, #16]
 796              	.LVL100:
 100:../Switch/core/yt/yt_acl.c ****     CMM_PARAM_CHK((!(YT_DISPATCH(unit)->is_inited)), CMM_ERR_NOT_INIT);
 797              		.loc 1 100 5 is_stmt 0 discriminator 3 view .LVU227
 798 0062 1D4B     		ldr	r3, .L91+20
 799 0064 9968     		ldr	r1, [r3, #8]
 800              	.LVL101:
 100:../Switch/core/yt/yt_acl.c ****     CMM_PARAM_CHK((!(YT_DISPATCH(unit)->is_inited)), CMM_ERR_NOT_INIT);
 801              		.loc 1 100 5 discriminator 3 view .LVU228
 802 0066 1D48     		ldr	r0, .L91+24
 803              	.LVL102:
 100:../Switch/core/yt/yt_acl.c ****     CMM_PARAM_CHK((!(YT_DISPATCH(unit)->is_inited)), CMM_ERR_NOT_INIT);
 804              		.loc 1 100 5 discriminator 3 view .LVU229
 805 0068 FFF7FEFF 		bl	osal_printf
 806              	.LVL103:
 807 006c F5E7     		b	.L73
 808              	.LVL104:
 809              	.L84:
 100:../Switch/core/yt/yt_acl.c ****     CMM_PARAM_CHK((!(YT_DISPATCH(unit)->is_inited)), CMM_ERR_NOT_INIT);
 810              		.loc 1 100 5 discriminator 3 view .LVU230
 811              	.LBE16:
 101:../Switch/core/yt/yt_acl.c ****     CMM_PARAM_CHK((!(CMM_PORT_VALID(unit, port))), CMM_ERR_PORT);
 812              		.loc 1 101 5 is_stmt 1 discriminator 1 view .LVU231
 101:../Switch/core/yt/yt_acl.c ****     CMM_PARAM_CHK((!(CMM_PORT_VALID(unit, port))), CMM_ERR_PORT);
 813              		.loc 1 101 5 discriminator 1 view .LVU232
 814 006e 184B     		ldr	r3, .L91+12
 815 0070 1B78     		ldrb	r3, [r3]	@ zero_extendqisi2
 816 0072 012B     		cmp	r3, #1
 817 0074 01D8     		bhi	.L88
 818              	.LVL105:
 819              	.L75:
 101:../Switch/core/yt/yt_acl.c ****     CMM_PARAM_CHK((!(CMM_PORT_VALID(unit, port))), CMM_ERR_PORT);
 820              		.loc 1 101 5 discriminator 5 view .LVU233
 101:../Switch/core/yt/yt_acl.c ****     CMM_PARAM_CHK((!(CMM_PORT_VALID(unit, port))), CMM_ERR_PORT);
 821              		.loc 1 101 5 discriminator 5 view .LVU234
 101:../Switch/core/yt/yt_acl.c ****     CMM_PARAM_CHK((!(CMM_PORT_VALID(unit, port))), CMM_ERR_PORT);
 822              		.loc 1 101 5 discriminator 5 view .LVU235
 823 0076 0420     		movs	r0, #4
 824 0078 DCE7     		b	.L68
 825              	.LVL106:
 826              	.L88:
 101:../Switch/core/yt/yt_acl.c ****     CMM_PARAM_CHK((!(CMM_PORT_VALID(unit, port))), CMM_ERR_PORT);
 827              		.loc 1 101 5 discriminator 3 view .LVU236
 828              	.LBB17:
 101:../Switch/core/yt/yt_acl.c ****     CMM_PARAM_CHK((!(CMM_PORT_VALID(unit, port))), CMM_ERR_PORT);
 829              		.loc 1 101 5 discriminator 3 view .LVU237
 830 007a 164B     		ldr	r3, .L91+16
 831 007c 1A69     		ldr	r2, [r3, #16]
 832              	.LVL107:
 101:../Switch/core/yt/yt_acl.c ****     CMM_PARAM_CHK((!(CMM_PORT_VALID(unit, port))), CMM_ERR_PORT);
 833              		.loc 1 101 5 is_stmt 0 discriminator 3 view .LVU238
 834 007e 164B     		ldr	r3, .L91+20
 835 0080 9968     		ldr	r1, [r3, #8]
 836              	.LVL108:
 101:../Switch/core/yt/yt_acl.c ****     CMM_PARAM_CHK((!(CMM_PORT_VALID(unit, port))), CMM_ERR_PORT);
 837              		.loc 1 101 5 discriminator 3 view .LVU239
 838 0082 1648     		ldr	r0, .L91+24
 839 0084 FFF7FEFF 		bl	osal_printf
 840              	.LVL109:
 841 0088 F5E7     		b	.L75
 842              	.LVL110:
 843              	.L76:
 101:../Switch/core/yt/yt_acl.c ****     CMM_PARAM_CHK((!(CMM_PORT_VALID(unit, port))), CMM_ERR_PORT);
 844              		.loc 1 101 5 discriminator 3 view .LVU240
 845              	.LBE17:
 102:../Switch/core/yt/yt_acl.c ****     CMM_PARAM_CHK((YT_ENABLE < enable || YT_DISABLE > enable), CMM_ERR_INPUT);
 846              		.loc 1 102 5 is_stmt 1 discriminator 3 view .LVU241
 102:../Switch/core/yt/yt_acl.c ****     CMM_PARAM_CHK((YT_ENABLE < enable || YT_DISABLE > enable), CMM_ERR_INPUT);
 847              		.loc 1 102 5 discriminator 3 view .LVU242
 848 008a 114B     		ldr	r3, .L91+12
 849 008c 1B78     		ldrb	r3, [r3]	@ zero_extendqisi2
 850 008e 012B     		cmp	r3, #1
 851 0090 01D8     		bhi	.L89
 852              	.LVL111:
 853              	.L78:
 102:../Switch/core/yt/yt_acl.c ****     CMM_PARAM_CHK((YT_ENABLE < enable || YT_DISABLE > enable), CMM_ERR_INPUT);
 854              		.loc 1 102 5 discriminator 7 view .LVU243
 102:../Switch/core/yt/yt_acl.c ****     CMM_PARAM_CHK((YT_ENABLE < enable || YT_DISABLE > enable), CMM_ERR_INPUT);
 855              		.loc 1 102 5 discriminator 7 view .LVU244
 102:../Switch/core/yt/yt_acl.c ****     CMM_PARAM_CHK((YT_ENABLE < enable || YT_DISABLE > enable), CMM_ERR_INPUT);
 856              		.loc 1 102 5 discriminator 7 view .LVU245
 857 0092 0E20     		movs	r0, #14
 858 0094 CEE7     		b	.L68
 859              	.LVL112:
 860              	.L89:
 102:../Switch/core/yt/yt_acl.c ****     CMM_PARAM_CHK((YT_ENABLE < enable || YT_DISABLE > enable), CMM_ERR_INPUT);
 861              		.loc 1 102 5 discriminator 5 view .LVU246
 862              	.LBB18:
 102:../Switch/core/yt/yt_acl.c ****     CMM_PARAM_CHK((YT_ENABLE < enable || YT_DISABLE > enable), CMM_ERR_INPUT);
 863              		.loc 1 102 5 discriminator 5 view .LVU247
 864 0096 0F4B     		ldr	r3, .L91+16
 865 0098 9A6B     		ldr	r2, [r3, #56]
 866              	.LVL113:
 102:../Switch/core/yt/yt_acl.c ****     CMM_PARAM_CHK((YT_ENABLE < enable || YT_DISABLE > enable), CMM_ERR_INPUT);
 867              		.loc 1 102 5 is_stmt 0 discriminator 5 view .LVU248
 868 009a 0F4B     		ldr	r3, .L91+20
 869 009c 9968     		ldr	r1, [r3, #8]
 870              	.LVL114:
 102:../Switch/core/yt/yt_acl.c ****     CMM_PARAM_CHK((YT_ENABLE < enable || YT_DISABLE > enable), CMM_ERR_INPUT);
 871              		.loc 1 102 5 discriminator 5 view .LVU249
 872 009e 0F48     		ldr	r0, .L91+24
 873 00a0 FFF7FEFF 		bl	osal_printf
 874              	.LVL115:
 875 00a4 F5E7     		b	.L78
 876              	.LVL116:
 877              	.L85:
 102:../Switch/core/yt/yt_acl.c ****     CMM_PARAM_CHK((YT_ENABLE < enable || YT_DISABLE > enable), CMM_ERR_INPUT);
 878              		.loc 1 102 5 discriminator 5 view .LVU250
 879              	.LBE18:
 103:../Switch/core/yt/yt_acl.c **** 
 880              		.loc 1 103 5 is_stmt 1 discriminator 1 view .LVU251
 103:../Switch/core/yt/yt_acl.c **** 
 881              		.loc 1 103 5 discriminator 1 view .LVU252
 882 00a6 0A4B     		ldr	r3, .L91+12
 883 00a8 1B78     		ldrb	r3, [r3]	@ zero_extendqisi2
 884 00aa 012B     		cmp	r3, #1
 885 00ac 01D8     		bhi	.L90
 886              	.LVL117:
 887              	.L80:
 103:../Switch/core/yt/yt_acl.c **** 
 888              		.loc 1 103 5 discriminator 5 view .LVU253
 103:../Switch/core/yt/yt_acl.c **** 
 889              		.loc 1 103 5 discriminator 5 view .LVU254
 103:../Switch/core/yt/yt_acl.c **** 
 890              		.loc 1 103 5 discriminator 5 view .LVU255
 891 00ae 0520     		movs	r0, #5
 892 00b0 C0E7     		b	.L68
 893              	.LVL118:
 894              	.L90:
 103:../Switch/core/yt/yt_acl.c **** 
 895              		.loc 1 103 5 discriminator 3 view .LVU256
 896              	.LBB19:
 103:../Switch/core/yt/yt_acl.c **** 
 897              		.loc 1 103 5 discriminator 3 view .LVU257
 898 00b2 084B     		ldr	r3, .L91+16
 899 00b4 5A69     		ldr	r2, [r3, #20]
 900              	.LVL119:
 103:../Switch/core/yt/yt_acl.c **** 
 901              		.loc 1 103 5 is_stmt 0 discriminator 3 view .LVU258
 902 00b6 084B     		ldr	r3, .L91+20
 903 00b8 9968     		ldr	r1, [r3, #8]
 904              	.LVL120:
 103:../Switch/core/yt/yt_acl.c **** 
 905              		.loc 1 103 5 discriminator 3 view .LVU259
 906 00ba 0848     		ldr	r0, .L91+24
 907 00bc FFF7FEFF 		bl	osal_printf
 908              	.LVL121:
 909 00c0 F5E7     		b	.L80
 910              	.L92:
 911 00c2 00BF     		.align	2
 912              	.L91:
 913 00c4 00000000 		.word	gpfal_dispatch
 914 00c8 00000000 		.word	gcal_inited
 915 00cc 00000000 		.word	gpSwitchUnit
 916 00d0 00000000 		.word	yt_debug_level
 917 00d4 00000000 		.word	_yt_errmsg
 918 00d8 00000000 		.word	_yt_prompt_msg
 919 00dc 00000000 		.word	.LC0
 920              	.LBE19:
 921              		.cfi_endproc
 922              	.LFE6:
 924              		.section	.text.yt_acl_unmatch_permit_en_get,"ax",%progbits
 925              		.align	1
 926              		.global	yt_acl_unmatch_permit_en_get
 927              		.syntax unified
 928              		.thumb
 929              		.thumb_func
 931              	yt_acl_unmatch_permit_en_get:
 932              	.LVL122:
 933              	.LFB7:
 107:../Switch/core/yt/yt_acl.c **** 
 108:../Switch/core/yt/yt_acl.c **** /**
 109:../Switch/core/yt/yt_acl.c ****  * @internal      yt_acl_unmatch_permit_en_get
 110:../Switch/core/yt/yt_acl.c ****  * @endinternal
 111:../Switch/core/yt/yt_acl.c ****  *
 112:../Switch/core/yt/yt_acl.c ****  * @brief         Description
 113:../Switch/core/yt/yt_acl.c ****  * @note          APPLICABLE DEVICES  -Tiger
 114:../Switch/core/yt/yt_acl.c ****  * @param[in]     unit                -unit id
 115:../Switch/core/yt/yt_acl.c ****  * @param[in]     port                -port num
 116:../Switch/core/yt/yt_acl.c ****  * @param[out]    pEnable            -enable or disable
 117:../Switch/core/yt/yt_acl.c ****  * @retval        CMM_ERR_OK          -on success
 118:../Switch/core/yt/yt_acl.c ****  * @retval        CMM_ERR_FAIL        -on fail
 119:../Switch/core/yt/yt_acl.c ****  */
 120:../Switch/core/yt/yt_acl.c **** yt_ret_t  yt_acl_unmatch_permit_en_get(yt_unit_t unit, yt_port_t port, yt_enable_t *pEnable)
 121:../Switch/core/yt/yt_acl.c **** {
 934              		.loc 1 121 1 is_stmt 1 view -0
 935              		.cfi_startproc
 936              		@ args = 0, pretend = 0, frame = 0
 937              		@ frame_needed = 0, uses_anonymous_args = 0
 938              		.loc 1 121 1 is_stmt 0 view .LVU261
 939 0000 08B5     		push	{r3, lr}
 940              		.cfi_def_cfa_offset 8
 941              		.cfi_offset 3, -8
 942              		.cfi_offset 14, -4
 122:../Switch/core/yt/yt_acl.c ****     CMM_PARAM_CHK((YT_UNIT_NUM <= unit), CMM_ERR_INPUT);
 943              		.loc 1 122 5 is_stmt 1 view .LVU262
 944              		.loc 1 122 5 view .LVU263
 945 0002 C0B9     		cbnz	r0, .L107
 946 0004 8446     		mov	ip, r0
 947              		.loc 1 122 5 discriminator 2 view .LVU264
 123:../Switch/core/yt/yt_acl.c ****     CMM_PARAM_CHK(NULL == YT_DISPATCH(unit), CMM_ERR_NOT_INIT);
 948              		.loc 1 123 5 discriminator 2 view .LVU265
 949              		.loc 1 123 5 discriminator 2 view .LVU266
 950 0006 2F4B     		ldr	r3, .L116
 951 0008 53F82030 		ldr	r3, [r3, r0, lsl #2]
 952 000c 0BB3     		cbz	r3, .L108
 953              		.loc 1 123 5 discriminator 2 view .LVU267
 124:../Switch/core/yt/yt_acl.c ****     CMM_PARAM_CHK((!(YT_DISPATCH(unit)->is_inited)), CMM_ERR_NOT_INIT);
 954              		.loc 1 124 5 discriminator 2 view .LVU268
 955              		.loc 1 124 5 discriminator 2 view .LVU269
 956 000e 1878     		ldrb	r0, [r3]	@ zero_extendqisi2
 957              	.LVL123:
 958              		.loc 1 124 5 is_stmt 0 discriminator 2 view .LVU270
 959 0010 0028     		cmp	r0, #0
 960 0012 2CD0     		beq	.L109
 961              		.loc 1 124 5 is_stmt 1 discriminator 2 view .LVU271
 125:../Switch/core/yt/yt_acl.c ****     CMM_PARAM_CHK((!(CMM_PORT_VALID(unit, port))), CMM_ERR_PORT);
 962              		.loc 1 125 5 discriminator 2 view .LVU272
 963              		.loc 1 125 5 discriminator 2 view .LVU273
 964 0014 2C48     		ldr	r0, .L116+4
 965 0016 0078     		ldrb	r0, [r0]	@ zero_extendqisi2
 966 0018 0028     		cmp	r0, #0
 967 001a 36D0     		beq	.L101
 968 001c 2B48     		ldr	r0, .L116+8
 969 001e 50F82C00 		ldr	r0, [r0, ip, lsl #2]
 970 0022 007D     		ldrb	r0, [r0, #20]	@ zero_extendqisi2
 971 0024 8842     		cmp	r0, r1
 972 0026 30D9     		bls	.L101
 973              		.loc 1 125 5 discriminator 4 view .LVU274
 126:../Switch/core/yt/yt_acl.c ****     CMM_PARAM_CHK((NULL == pEnable), CMM_ERR_NULL_POINT);
 974              		.loc 1 126 5 discriminator 4 view .LVU275
 975              		.loc 1 126 5 discriminator 4 view .LVU276
 976 0028 002A     		cmp	r2, #0
 977 002a 3CD0     		beq	.L110
 978              		.loc 1 126 5 discriminator 2 view .LVU277
 127:../Switch/core/yt/yt_acl.c **** 
 128:../Switch/core/yt/yt_acl.c ****     return YT_DISPATCH(unit)->acl_unmatch_permit_en_get(unit, port, pEnable);
 979              		.loc 1 128 5 discriminator 2 view .LVU278
 980              		.loc 1 128 29 is_stmt 0 discriminator 2 view .LVU279
 981 002c D3F80431 		ldr	r3, [r3, #260]
 982              		.loc 1 128 12 discriminator 2 view .LVU280
 983 0030 6046     		mov	r0, ip
 984 0032 9847     		blx	r3
 985              	.LVL124:
 986              	.L93:
 129:../Switch/core/yt/yt_acl.c **** }
 987              		.loc 1 129 1 view .LVU281
 988 0034 08BD     		pop	{r3, pc}
 989              	.LVL125:
 990              	.L107:
 122:../Switch/core/yt/yt_acl.c ****     CMM_PARAM_CHK(NULL == YT_DISPATCH(unit), CMM_ERR_NOT_INIT);
 991              		.loc 1 122 5 is_stmt 1 discriminator 1 view .LVU282
 122:../Switch/core/yt/yt_acl.c ****     CMM_PARAM_CHK(NULL == YT_DISPATCH(unit), CMM_ERR_NOT_INIT);
 992              		.loc 1 122 5 discriminator 1 view .LVU283
 993 0036 264B     		ldr	r3, .L116+12
 994 0038 1B78     		ldrb	r3, [r3]	@ zero_extendqisi2
 995 003a 012B     		cmp	r3, #1
 996 003c 01D8     		bhi	.L111
 997              	.LVL126:
 998              	.L95:
 122:../Switch/core/yt/yt_acl.c ****     CMM_PARAM_CHK(NULL == YT_DISPATCH(unit), CMM_ERR_NOT_INIT);
 999              		.loc 1 122 5 discriminator 5 view .LVU284
 122:../Switch/core/yt/yt_acl.c ****     CMM_PARAM_CHK(NULL == YT_DISPATCH(unit), CMM_ERR_NOT_INIT);
 1000              		.loc 1 122 5 discriminator 5 view .LVU285
 122:../Switch/core/yt/yt_acl.c ****     CMM_PARAM_CHK(NULL == YT_DISPATCH(unit), CMM_ERR_NOT_INIT);
 1001              		.loc 1 122 5 discriminator 5 view .LVU286
 1002 003e 0520     		movs	r0, #5
 1003 0040 F8E7     		b	.L93
 1004              	.LVL127:
 1005              	.L111:
 122:../Switch/core/yt/yt_acl.c ****     CMM_PARAM_CHK(NULL == YT_DISPATCH(unit), CMM_ERR_NOT_INIT);
 1006              		.loc 1 122 5 discriminator 3 view .LVU287
 1007              	.LBB20:
 122:../Switch/core/yt/yt_acl.c ****     CMM_PARAM_CHK(NULL == YT_DISPATCH(unit), CMM_ERR_NOT_INIT);
 1008              		.loc 1 122 5 discriminator 3 view .LVU288
 1009 0042 244B     		ldr	r3, .L116+16
 1010 0044 5A69     		ldr	r2, [r3, #20]
 1011              	.LVL128:
 122:../Switch/core/yt/yt_acl.c ****     CMM_PARAM_CHK(NULL == YT_DISPATCH(unit), CMM_ERR_NOT_INIT);
 1012              		.loc 1 122 5 is_stmt 0 discriminator 3 view .LVU289
 1013 0046 244B     		ldr	r3, .L116+20
 1014 0048 9968     		ldr	r1, [r3, #8]
 1015              	.LVL129:
 122:../Switch/core/yt/yt_acl.c ****     CMM_PARAM_CHK(NULL == YT_DISPATCH(unit), CMM_ERR_NOT_INIT);
 1016              		.loc 1 122 5 discriminator 3 view .LVU290
 1017 004a 2448     		ldr	r0, .L116+24
 1018              	.LVL130:
 122:../Switch/core/yt/yt_acl.c ****     CMM_PARAM_CHK(NULL == YT_DISPATCH(unit), CMM_ERR_NOT_INIT);
 1019              		.loc 1 122 5 discriminator 3 view .LVU291
 1020 004c FFF7FEFF 		bl	osal_printf
 1021              	.LVL131:
 1022 0050 F5E7     		b	.L95
 1023              	.LVL132:
 1024              	.L108:
 122:../Switch/core/yt/yt_acl.c ****     CMM_PARAM_CHK(NULL == YT_DISPATCH(unit), CMM_ERR_NOT_INIT);
 1025              		.loc 1 122 5 discriminator 3 view .LVU292
 1026              	.LBE20:
 123:../Switch/core/yt/yt_acl.c ****     CMM_PARAM_CHK((!(YT_DISPATCH(unit)->is_inited)), CMM_ERR_NOT_INIT);
 1027              		.loc 1 123 5 is_stmt 1 discriminator 1 view .LVU293
 123:../Switch/core/yt/yt_acl.c ****     CMM_PARAM_CHK((!(YT_DISPATCH(unit)->is_inited)), CMM_ERR_NOT_INIT);
 1028              		.loc 1 123 5 discriminator 1 view .LVU294
 1029 0052 1F4B     		ldr	r3, .L116+12
 1030 0054 1B78     		ldrb	r3, [r3]	@ zero_extendqisi2
 1031 0056 012B     		cmp	r3, #1
 1032 0058 01D8     		bhi	.L112
 1033              	.LVL133:
 1034              	.L98:
 123:../Switch/core/yt/yt_acl.c ****     CMM_PARAM_CHK((!(YT_DISPATCH(unit)->is_inited)), CMM_ERR_NOT_INIT);
 1035              		.loc 1 123 5 discriminator 5 view .LVU295
 123:../Switch/core/yt/yt_acl.c ****     CMM_PARAM_CHK((!(YT_DISPATCH(unit)->is_inited)), CMM_ERR_NOT_INIT);
 1036              		.loc 1 123 5 discriminator 5 view .LVU296
 123:../Switch/core/yt/yt_acl.c ****     CMM_PARAM_CHK((!(YT_DISPATCH(unit)->is_inited)), CMM_ERR_NOT_INIT);
 1037              		.loc 1 123 5 discriminator 5 view .LVU297
 1038 005a 0420     		movs	r0, #4
 1039 005c EAE7     		b	.L93
 1040              	.LVL134:
 1041              	.L112:
 123:../Switch/core/yt/yt_acl.c ****     CMM_PARAM_CHK((!(YT_DISPATCH(unit)->is_inited)), CMM_ERR_NOT_INIT);
 1042              		.loc 1 123 5 discriminator 3 view .LVU298
 1043              	.LBB21:
 123:../Switch/core/yt/yt_acl.c ****     CMM_PARAM_CHK((!(YT_DISPATCH(unit)->is_inited)), CMM_ERR_NOT_INIT);
 1044              		.loc 1 123 5 discriminator 3 view .LVU299
 1045 005e 1D4B     		ldr	r3, .L116+16
 1046 0060 1A69     		ldr	r2, [r3, #16]
 1047              	.LVL135:
 123:../Switch/core/yt/yt_acl.c ****     CMM_PARAM_CHK((!(YT_DISPATCH(unit)->is_inited)), CMM_ERR_NOT_INIT);
 1048              		.loc 1 123 5 is_stmt 0 discriminator 3 view .LVU300
 1049 0062 1D4B     		ldr	r3, .L116+20
 1050 0064 9968     		ldr	r1, [r3, #8]
 1051              	.LVL136:
 123:../Switch/core/yt/yt_acl.c ****     CMM_PARAM_CHK((!(YT_DISPATCH(unit)->is_inited)), CMM_ERR_NOT_INIT);
 1052              		.loc 1 123 5 discriminator 3 view .LVU301
 1053 0066 1D48     		ldr	r0, .L116+24
 1054              	.LVL137:
 123:../Switch/core/yt/yt_acl.c ****     CMM_PARAM_CHK((!(YT_DISPATCH(unit)->is_inited)), CMM_ERR_NOT_INIT);
 1055              		.loc 1 123 5 discriminator 3 view .LVU302
 1056 0068 FFF7FEFF 		bl	osal_printf
 1057              	.LVL138:
 1058 006c F5E7     		b	.L98
 1059              	.LVL139:
 1060              	.L109:
 123:../Switch/core/yt/yt_acl.c ****     CMM_PARAM_CHK((!(YT_DISPATCH(unit)->is_inited)), CMM_ERR_NOT_INIT);
 1061              		.loc 1 123 5 discriminator 3 view .LVU303
 1062              	.LBE21:
 124:../Switch/core/yt/yt_acl.c ****     CMM_PARAM_CHK((!(CMM_PORT_VALID(unit, port))), CMM_ERR_PORT);
 1063              		.loc 1 124 5 is_stmt 1 discriminator 1 view .LVU304
 124:../Switch/core/yt/yt_acl.c ****     CMM_PARAM_CHK((!(CMM_PORT_VALID(unit, port))), CMM_ERR_PORT);
 1064              		.loc 1 124 5 discriminator 1 view .LVU305
 1065 006e 184B     		ldr	r3, .L116+12
 1066 0070 1B78     		ldrb	r3, [r3]	@ zero_extendqisi2
 1067 0072 012B     		cmp	r3, #1
 1068 0074 01D8     		bhi	.L113
 1069              	.LVL140:
 1070              	.L100:
 124:../Switch/core/yt/yt_acl.c ****     CMM_PARAM_CHK((!(CMM_PORT_VALID(unit, port))), CMM_ERR_PORT);
 1071              		.loc 1 124 5 discriminator 5 view .LVU306
 124:../Switch/core/yt/yt_acl.c ****     CMM_PARAM_CHK((!(CMM_PORT_VALID(unit, port))), CMM_ERR_PORT);
 1072              		.loc 1 124 5 discriminator 5 view .LVU307
 124:../Switch/core/yt/yt_acl.c ****     CMM_PARAM_CHK((!(CMM_PORT_VALID(unit, port))), CMM_ERR_PORT);
 1073              		.loc 1 124 5 discriminator 5 view .LVU308
 1074 0076 0420     		movs	r0, #4
 1075 0078 DCE7     		b	.L93
 1076              	.LVL141:
 1077              	.L113:
 124:../Switch/core/yt/yt_acl.c ****     CMM_PARAM_CHK((!(CMM_PORT_VALID(unit, port))), CMM_ERR_PORT);
 1078              		.loc 1 124 5 discriminator 3 view .LVU309
 1079              	.LBB22:
 124:../Switch/core/yt/yt_acl.c ****     CMM_PARAM_CHK((!(CMM_PORT_VALID(unit, port))), CMM_ERR_PORT);
 1080              		.loc 1 124 5 discriminator 3 view .LVU310
 1081 007a 164B     		ldr	r3, .L116+16
 1082 007c 1A69     		ldr	r2, [r3, #16]
 1083              	.LVL142:
 124:../Switch/core/yt/yt_acl.c ****     CMM_PARAM_CHK((!(CMM_PORT_VALID(unit, port))), CMM_ERR_PORT);
 1084              		.loc 1 124 5 is_stmt 0 discriminator 3 view .LVU311
 1085 007e 164B     		ldr	r3, .L116+20
 1086 0080 9968     		ldr	r1, [r3, #8]
 1087              	.LVL143:
 124:../Switch/core/yt/yt_acl.c ****     CMM_PARAM_CHK((!(CMM_PORT_VALID(unit, port))), CMM_ERR_PORT);
 1088              		.loc 1 124 5 discriminator 3 view .LVU312
 1089 0082 1648     		ldr	r0, .L116+24
 1090 0084 FFF7FEFF 		bl	osal_printf
 1091              	.LVL144:
 1092 0088 F5E7     		b	.L100
 1093              	.LVL145:
 1094              	.L101:
 124:../Switch/core/yt/yt_acl.c ****     CMM_PARAM_CHK((!(CMM_PORT_VALID(unit, port))), CMM_ERR_PORT);
 1095              		.loc 1 124 5 discriminator 3 view .LVU313
 1096              	.LBE22:
 125:../Switch/core/yt/yt_acl.c ****     CMM_PARAM_CHK((NULL == pEnable), CMM_ERR_NULL_POINT);
 1097              		.loc 1 125 5 is_stmt 1 discriminator 3 view .LVU314
 125:../Switch/core/yt/yt_acl.c ****     CMM_PARAM_CHK((NULL == pEnable), CMM_ERR_NULL_POINT);
 1098              		.loc 1 125 5 discriminator 3 view .LVU315
 1099 008a 114B     		ldr	r3, .L116+12
 1100 008c 1B78     		ldrb	r3, [r3]	@ zero_extendqisi2
 1101 008e 012B     		cmp	r3, #1
 1102 0090 01D8     		bhi	.L114
 1103              	.LVL146:
 1104              	.L103:
 125:../Switch/core/yt/yt_acl.c ****     CMM_PARAM_CHK((NULL == pEnable), CMM_ERR_NULL_POINT);
 1105              		.loc 1 125 5 discriminator 7 view .LVU316
 125:../Switch/core/yt/yt_acl.c ****     CMM_PARAM_CHK((NULL == pEnable), CMM_ERR_NULL_POINT);
 1106              		.loc 1 125 5 discriminator 7 view .LVU317
 125:../Switch/core/yt/yt_acl.c ****     CMM_PARAM_CHK((NULL == pEnable), CMM_ERR_NULL_POINT);
 1107              		.loc 1 125 5 discriminator 7 view .LVU318
 1108 0092 0E20     		movs	r0, #14
 1109 0094 CEE7     		b	.L93
 1110              	.LVL147:
 1111              	.L114:
 125:../Switch/core/yt/yt_acl.c ****     CMM_PARAM_CHK((NULL == pEnable), CMM_ERR_NULL_POINT);
 1112              		.loc 1 125 5 discriminator 5 view .LVU319
 1113              	.LBB23:
 125:../Switch/core/yt/yt_acl.c ****     CMM_PARAM_CHK((NULL == pEnable), CMM_ERR_NULL_POINT);
 1114              		.loc 1 125 5 discriminator 5 view .LVU320
 1115 0096 0F4B     		ldr	r3, .L116+16
 1116 0098 9A6B     		ldr	r2, [r3, #56]
 1117              	.LVL148:
 125:../Switch/core/yt/yt_acl.c ****     CMM_PARAM_CHK((NULL == pEnable), CMM_ERR_NULL_POINT);
 1118              		.loc 1 125 5 is_stmt 0 discriminator 5 view .LVU321
 1119 009a 0F4B     		ldr	r3, .L116+20
 1120 009c 9968     		ldr	r1, [r3, #8]
 1121              	.LVL149:
 125:../Switch/core/yt/yt_acl.c ****     CMM_PARAM_CHK((NULL == pEnable), CMM_ERR_NULL_POINT);
 1122              		.loc 1 125 5 discriminator 5 view .LVU322
 1123 009e 0F48     		ldr	r0, .L116+24
 1124 00a0 FFF7FEFF 		bl	osal_printf
 1125              	.LVL150:
 1126 00a4 F5E7     		b	.L103
 1127              	.LVL151:
 1128              	.L110:
 125:../Switch/core/yt/yt_acl.c ****     CMM_PARAM_CHK((NULL == pEnable), CMM_ERR_NULL_POINT);
 1129              		.loc 1 125 5 discriminator 5 view .LVU323
 1130              	.LBE23:
 126:../Switch/core/yt/yt_acl.c **** 
 1131              		.loc 1 126 5 is_stmt 1 discriminator 1 view .LVU324
 126:../Switch/core/yt/yt_acl.c **** 
 1132              		.loc 1 126 5 discriminator 1 view .LVU325
 1133 00a6 0A4B     		ldr	r3, .L116+12
 1134 00a8 1B78     		ldrb	r3, [r3]	@ zero_extendqisi2
 1135 00aa 012B     		cmp	r3, #1
 1136 00ac 01D8     		bhi	.L115
 1137              	.LVL152:
 1138              	.L105:
 126:../Switch/core/yt/yt_acl.c **** 
 1139              		.loc 1 126 5 discriminator 5 view .LVU326
 126:../Switch/core/yt/yt_acl.c **** 
 1140              		.loc 1 126 5 discriminator 5 view .LVU327
 126:../Switch/core/yt/yt_acl.c **** 
 1141              		.loc 1 126 5 discriminator 5 view .LVU328
 1142 00ae 0220     		movs	r0, #2
 1143 00b0 C0E7     		b	.L93
 1144              	.LVL153:
 1145              	.L115:
 126:../Switch/core/yt/yt_acl.c **** 
 1146              		.loc 1 126 5 discriminator 3 view .LVU329
 1147              	.LBB24:
 126:../Switch/core/yt/yt_acl.c **** 
 1148              		.loc 1 126 5 discriminator 3 view .LVU330
 1149 00b2 084B     		ldr	r3, .L116+16
 1150 00b4 9A68     		ldr	r2, [r3, #8]
 1151              	.LVL154:
 126:../Switch/core/yt/yt_acl.c **** 
 1152              		.loc 1 126 5 is_stmt 0 discriminator 3 view .LVU331
 1153 00b6 084B     		ldr	r3, .L116+20
 1154 00b8 9968     		ldr	r1, [r3, #8]
 1155              	.LVL155:
 126:../Switch/core/yt/yt_acl.c **** 
 1156              		.loc 1 126 5 discriminator 3 view .LVU332
 1157 00ba 0848     		ldr	r0, .L116+24
 1158 00bc FFF7FEFF 		bl	osal_printf
 1159              	.LVL156:
 1160 00c0 F5E7     		b	.L105
 1161              	.L117:
 1162 00c2 00BF     		.align	2
 1163              	.L116:
 1164 00c4 00000000 		.word	gpfal_dispatch
 1165 00c8 00000000 		.word	gcal_inited
 1166 00cc 00000000 		.word	gpSwitchUnit
 1167 00d0 00000000 		.word	yt_debug_level
 1168 00d4 00000000 		.word	_yt_errmsg
 1169 00d8 00000000 		.word	_yt_prompt_msg
 1170 00dc 00000000 		.word	.LC0
 1171              	.LBE24:
 1172              		.cfi_endproc
 1173              	.LFE7:
 1175              		.section	.text.yt_acl_udf_rule_set,"ax",%progbits
 1176              		.align	1
 1177              		.global	yt_acl_udf_rule_set
 1178              		.syntax unified
 1179              		.thumb
 1180              		.thumb_func
 1182              	yt_acl_udf_rule_set:
 1183              	.LVL157:
 1184              	.LFB8:
 130:../Switch/core/yt/yt_acl.c **** 
 131:../Switch/core/yt/yt_acl.c **** /**
 132:../Switch/core/yt/yt_acl.c ****  * @internal      yt_acl_udf_rule_set
 133:../Switch/core/yt/yt_acl.c ****  * @endinternal
 134:../Switch/core/yt/yt_acl.c ****  *
 135:../Switch/core/yt/yt_acl.c ****  * @brief         set user define rule to specific acl udf table.
 136:../Switch/core/yt/yt_acl.c ****  * @brief         every table will take 2 bytes data,X*2 and X*2+1 udf table used for YT_IGRACL_TEM
 137:../Switch/core/yt/yt_acl.c ****  * @note          APPLICABLE DEVICES  -Tiger
 138:../Switch/core/yt/yt_acl.c ****  * @param[in]     unit                -unit id
 139:../Switch/core/yt/yt_acl.c ****  * @param[in]     index               -acl udf table index,range (0~15).
 140:../Switch/core/yt/yt_acl.c ****  * @param[in]     type                -acl user define data type
 141:../Switch/core/yt/yt_acl.c ****  * @param[in]     offset              -offset start from specific type,range (0~127)
 142:../Switch/core/yt/yt_acl.c ****  * @retval        CMM_ERR_OK          -on success
 143:../Switch/core/yt/yt_acl.c ****  * @retval        CMM_ERR_FAIL        -on fail
 144:../Switch/core/yt/yt_acl.c ****  */
 145:../Switch/core/yt/yt_acl.c **** yt_ret_t yt_acl_udf_rule_set(yt_unit_t unit, uint8_t index, yt_acl_udf_type_t type, uint8_t offset)
 146:../Switch/core/yt/yt_acl.c **** {
 1185              		.loc 1 146 1 is_stmt 1 view -0
 1186              		.cfi_startproc
 1187              		@ args = 0, pretend = 0, frame = 0
 1188              		@ frame_needed = 0, uses_anonymous_args = 0
 1189              		.loc 1 146 1 is_stmt 0 view .LVU334
 1190 0000 10B5     		push	{r4, lr}
 1191              		.cfi_def_cfa_offset 8
 1192              		.cfi_offset 4, -8
 1193              		.cfi_offset 14, -4
 147:../Switch/core/yt/yt_acl.c ****     CMM_PARAM_CHK((YT_UNIT_NUM <= unit), CMM_ERR_INPUT);
 1194              		.loc 1 147 5 is_stmt 1 view .LVU335
 1195              		.loc 1 147 5 view .LVU336
 1196 0002 68B9     		cbnz	r0, .L129
 1197 0004 8446     		mov	ip, r0
 1198              		.loc 1 147 5 discriminator 2 view .LVU337
 148:../Switch/core/yt/yt_acl.c ****     CMM_PARAM_CHK(NULL == YT_DISPATCH(unit), CMM_ERR_NOT_INIT);
 1199              		.loc 1 148 5 discriminator 2 view .LVU338
 1200              		.loc 1 148 5 discriminator 2 view .LVU339
 1201 0006 2248     		ldr	r0, .L137
 1202              	.LVL158:
 1203              		.loc 1 148 5 is_stmt 0 discriminator 2 view .LVU340
 1204 0008 50F82C40 		ldr	r4, [r0, ip, lsl #2]
 1205 000c B4B1     		cbz	r4, .L130
 1206              		.loc 1 148 5 is_stmt 1 discriminator 2 view .LVU341
 149:../Switch/core/yt/yt_acl.c ****     CMM_PARAM_CHK((!(YT_DISPATCH(unit)->is_inited)), CMM_ERR_NOT_INIT);
 1207              		.loc 1 149 5 discriminator 2 view .LVU342
 1208              		.loc 1 149 5 discriminator 2 view .LVU343
 1209 000e 2078     		ldrb	r0, [r4]	@ zero_extendqisi2
 1210 0010 10B3     		cbz	r0, .L131
 1211              		.loc 1 149 5 discriminator 2 view .LVU344
 150:../Switch/core/yt/yt_acl.c ****     CMM_PARAM_CHK((ACL_UDF_TYPE_L4 < type || ACL_UDF_TYPE_RAW > type), CMM_ERR_INPUT);
 1212              		.loc 1 150 5 discriminator 2 view .LVU345
 1213              		.loc 1 150 5 discriminator 2 view .LVU346
 1214 0012 022A     		cmp	r2, #2
 1215 0014 2ED8     		bhi	.L132
 1216              		.loc 1 150 5 discriminator 2 view .LVU347
 151:../Switch/core/yt/yt_acl.c **** 
 152:../Switch/core/yt/yt_acl.c ****     return YT_DISPATCH(unit)->acl_udf_rule_set(unit, index, type, offset);
 1217              		.loc 1 152 5 discriminator 2 view .LVU348
 1218              		.loc 1 152 29 is_stmt 0 discriminator 2 view .LVU349
 1219 0016 D4F80841 		ldr	r4, [r4, #264]
 1220              		.loc 1 152 12 discriminator 2 view .LVU350
 1221 001a 6046     		mov	r0, ip
 1222 001c A047     		blx	r4
 1223              	.LVL159:
 1224              	.L118:
 153:../Switch/core/yt/yt_acl.c **** }
 1225              		.loc 1 153 1 view .LVU351
 1226 001e 10BD     		pop	{r4, pc}
 1227              	.LVL160:
 1228              	.L129:
 147:../Switch/core/yt/yt_acl.c ****     CMM_PARAM_CHK(NULL == YT_DISPATCH(unit), CMM_ERR_NOT_INIT);
 1229              		.loc 1 147 5 is_stmt 1 discriminator 1 view .LVU352
 147:../Switch/core/yt/yt_acl.c ****     CMM_PARAM_CHK(NULL == YT_DISPATCH(unit), CMM_ERR_NOT_INIT);
 1230              		.loc 1 147 5 discriminator 1 view .LVU353
 1231 0020 1C4B     		ldr	r3, .L137+4
 1232              	.LVL161:
 147:../Switch/core/yt/yt_acl.c ****     CMM_PARAM_CHK(NULL == YT_DISPATCH(unit), CMM_ERR_NOT_INIT);
 1233              		.loc 1 147 5 is_stmt 0 discriminator 1 view .LVU354
 1234 0022 1B78     		ldrb	r3, [r3]	@ zero_extendqisi2
 1235 0024 012B     		cmp	r3, #1
 1236 0026 01D8     		bhi	.L133
 1237              	.LVL162:
 1238              	.L120:
 147:../Switch/core/yt/yt_acl.c ****     CMM_PARAM_CHK(NULL == YT_DISPATCH(unit), CMM_ERR_NOT_INIT);
 1239              		.loc 1 147 5 is_stmt 1 discriminator 5 view .LVU355
 147:../Switch/core/yt/yt_acl.c ****     CMM_PARAM_CHK(NULL == YT_DISPATCH(unit), CMM_ERR_NOT_INIT);
 1240              		.loc 1 147 5 discriminator 5 view .LVU356
 147:../Switch/core/yt/yt_acl.c ****     CMM_PARAM_CHK(NULL == YT_DISPATCH(unit), CMM_ERR_NOT_INIT);
 1241              		.loc 1 147 5 discriminator 5 view .LVU357
 1242 0028 0520     		movs	r0, #5
 1243 002a F8E7     		b	.L118
 1244              	.LVL163:
 1245              	.L133:
 147:../Switch/core/yt/yt_acl.c ****     CMM_PARAM_CHK(NULL == YT_DISPATCH(unit), CMM_ERR_NOT_INIT);
 1246              		.loc 1 147 5 discriminator 3 view .LVU358
 1247              	.LBB25:
 147:../Switch/core/yt/yt_acl.c ****     CMM_PARAM_CHK(NULL == YT_DISPATCH(unit), CMM_ERR_NOT_INIT);
 1248              		.loc 1 147 5 discriminator 3 view .LVU359
 1249 002c 1A4B     		ldr	r3, .L137+8
 1250 002e 5A69     		ldr	r2, [r3, #20]
 1251              	.LVL164:
 147:../Switch/core/yt/yt_acl.c ****     CMM_PARAM_CHK(NULL == YT_DISPATCH(unit), CMM_ERR_NOT_INIT);
 1252              		.loc 1 147 5 is_stmt 0 discriminator 3 view .LVU360
 1253 0030 1A4B     		ldr	r3, .L137+12
 1254 0032 9968     		ldr	r1, [r3, #8]
 1255              	.LVL165:
 147:../Switch/core/yt/yt_acl.c ****     CMM_PARAM_CHK(NULL == YT_DISPATCH(unit), CMM_ERR_NOT_INIT);
 1256              		.loc 1 147 5 discriminator 3 view .LVU361
 1257 0034 1A48     		ldr	r0, .L137+16
 1258              	.LVL166:
 147:../Switch/core/yt/yt_acl.c ****     CMM_PARAM_CHK(NULL == YT_DISPATCH(unit), CMM_ERR_NOT_INIT);
 1259              		.loc 1 147 5 discriminator 3 view .LVU362
 1260 0036 FFF7FEFF 		bl	osal_printf
 1261              	.LVL167:
 1262 003a F5E7     		b	.L120
 1263              	.LVL168:
 1264              	.L130:
 147:../Switch/core/yt/yt_acl.c ****     CMM_PARAM_CHK(NULL == YT_DISPATCH(unit), CMM_ERR_NOT_INIT);
 1265              		.loc 1 147 5 discriminator 3 view .LVU363
 1266              	.LBE25:
 148:../Switch/core/yt/yt_acl.c ****     CMM_PARAM_CHK((!(YT_DISPATCH(unit)->is_inited)), CMM_ERR_NOT_INIT);
 1267              		.loc 1 148 5 is_stmt 1 discriminator 1 view .LVU364
 148:../Switch/core/yt/yt_acl.c ****     CMM_PARAM_CHK((!(YT_DISPATCH(unit)->is_inited)), CMM_ERR_NOT_INIT);
 1268              		.loc 1 148 5 discriminator 1 view .LVU365
 1269 003c 154B     		ldr	r3, .L137+4
 1270              	.LVL169:
 148:../Switch/core/yt/yt_acl.c ****     CMM_PARAM_CHK((!(YT_DISPATCH(unit)->is_inited)), CMM_ERR_NOT_INIT);
 1271              		.loc 1 148 5 is_stmt 0 discriminator 1 view .LVU366
 1272 003e 1B78     		ldrb	r3, [r3]	@ zero_extendqisi2
 1273 0040 012B     		cmp	r3, #1
 1274 0042 01D8     		bhi	.L134
 1275              	.LVL170:
 1276              	.L123:
 148:../Switch/core/yt/yt_acl.c ****     CMM_PARAM_CHK((!(YT_DISPATCH(unit)->is_inited)), CMM_ERR_NOT_INIT);
 1277              		.loc 1 148 5 is_stmt 1 discriminator 5 view .LVU367
 148:../Switch/core/yt/yt_acl.c ****     CMM_PARAM_CHK((!(YT_DISPATCH(unit)->is_inited)), CMM_ERR_NOT_INIT);
 1278              		.loc 1 148 5 discriminator 5 view .LVU368
 148:../Switch/core/yt/yt_acl.c ****     CMM_PARAM_CHK((!(YT_DISPATCH(unit)->is_inited)), CMM_ERR_NOT_INIT);
 1279              		.loc 1 148 5 discriminator 5 view .LVU369
 1280 0044 0420     		movs	r0, #4
 1281 0046 EAE7     		b	.L118
 1282              	.LVL171:
 1283              	.L134:
 148:../Switch/core/yt/yt_acl.c ****     CMM_PARAM_CHK((!(YT_DISPATCH(unit)->is_inited)), CMM_ERR_NOT_INIT);
 1284              		.loc 1 148 5 discriminator 3 view .LVU370
 1285              	.LBB26:
 148:../Switch/core/yt/yt_acl.c ****     CMM_PARAM_CHK((!(YT_DISPATCH(unit)->is_inited)), CMM_ERR_NOT_INIT);
 1286              		.loc 1 148 5 discriminator 3 view .LVU371
 1287 0048 134B     		ldr	r3, .L137+8
 1288 004a 1A69     		ldr	r2, [r3, #16]
 1289              	.LVL172:
 148:../Switch/core/yt/yt_acl.c ****     CMM_PARAM_CHK((!(YT_DISPATCH(unit)->is_inited)), CMM_ERR_NOT_INIT);
 1290              		.loc 1 148 5 is_stmt 0 discriminator 3 view .LVU372
 1291 004c 134B     		ldr	r3, .L137+12
 1292 004e 9968     		ldr	r1, [r3, #8]
 1293              	.LVL173:
 148:../Switch/core/yt/yt_acl.c ****     CMM_PARAM_CHK((!(YT_DISPATCH(unit)->is_inited)), CMM_ERR_NOT_INIT);
 1294              		.loc 1 148 5 discriminator 3 view .LVU373
 1295 0050 1348     		ldr	r0, .L137+16
 1296 0052 FFF7FEFF 		bl	osal_printf
 1297              	.LVL174:
 1298 0056 F5E7     		b	.L123
 1299              	.LVL175:
 1300              	.L131:
 148:../Switch/core/yt/yt_acl.c ****     CMM_PARAM_CHK((!(YT_DISPATCH(unit)->is_inited)), CMM_ERR_NOT_INIT);
 1301              		.loc 1 148 5 discriminator 3 view .LVU374
 1302              	.LBE26:
 149:../Switch/core/yt/yt_acl.c ****     CMM_PARAM_CHK((ACL_UDF_TYPE_L4 < type || ACL_UDF_TYPE_RAW > type), CMM_ERR_INPUT);
 1303              		.loc 1 149 5 is_stmt 1 discriminator 1 view .LVU375
 149:../Switch/core/yt/yt_acl.c ****     CMM_PARAM_CHK((ACL_UDF_TYPE_L4 < type || ACL_UDF_TYPE_RAW > type), CMM_ERR_INPUT);
 1304              		.loc 1 149 5 discriminator 1 view .LVU376
 1305 0058 0E4B     		ldr	r3, .L137+4
 1306              	.LVL176:
 149:../Switch/core/yt/yt_acl.c ****     CMM_PARAM_CHK((ACL_UDF_TYPE_L4 < type || ACL_UDF_TYPE_RAW > type), CMM_ERR_INPUT);
 1307              		.loc 1 149 5 is_stmt 0 discriminator 1 view .LVU377
 1308 005a 1B78     		ldrb	r3, [r3]	@ zero_extendqisi2
 1309 005c 012B     		cmp	r3, #1
 1310 005e 01D8     		bhi	.L135
 1311              	.LVL177:
 1312              	.L125:
 149:../Switch/core/yt/yt_acl.c ****     CMM_PARAM_CHK((ACL_UDF_TYPE_L4 < type || ACL_UDF_TYPE_RAW > type), CMM_ERR_INPUT);
 1313              		.loc 1 149 5 is_stmt 1 discriminator 5 view .LVU378
 149:../Switch/core/yt/yt_acl.c ****     CMM_PARAM_CHK((ACL_UDF_TYPE_L4 < type || ACL_UDF_TYPE_RAW > type), CMM_ERR_INPUT);
 1314              		.loc 1 149 5 discriminator 5 view .LVU379
 149:../Switch/core/yt/yt_acl.c ****     CMM_PARAM_CHK((ACL_UDF_TYPE_L4 < type || ACL_UDF_TYPE_RAW > type), CMM_ERR_INPUT);
 1315              		.loc 1 149 5 discriminator 5 view .LVU380
 1316 0060 0420     		movs	r0, #4
 1317 0062 DCE7     		b	.L118
 1318              	.LVL178:
 1319              	.L135:
 149:../Switch/core/yt/yt_acl.c ****     CMM_PARAM_CHK((ACL_UDF_TYPE_L4 < type || ACL_UDF_TYPE_RAW > type), CMM_ERR_INPUT);
 1320              		.loc 1 149 5 discriminator 3 view .LVU381
 1321              	.LBB27:
 149:../Switch/core/yt/yt_acl.c ****     CMM_PARAM_CHK((ACL_UDF_TYPE_L4 < type || ACL_UDF_TYPE_RAW > type), CMM_ERR_INPUT);
 1322              		.loc 1 149 5 discriminator 3 view .LVU382
 1323 0064 0C4B     		ldr	r3, .L137+8
 1324 0066 1A69     		ldr	r2, [r3, #16]
 1325              	.LVL179:
 149:../Switch/core/yt/yt_acl.c ****     CMM_PARAM_CHK((ACL_UDF_TYPE_L4 < type || ACL_UDF_TYPE_RAW > type), CMM_ERR_INPUT);
 1326              		.loc 1 149 5 is_stmt 0 discriminator 3 view .LVU383
 1327 0068 0C4B     		ldr	r3, .L137+12
 1328 006a 9968     		ldr	r1, [r3, #8]
 1329              	.LVL180:
 149:../Switch/core/yt/yt_acl.c ****     CMM_PARAM_CHK((ACL_UDF_TYPE_L4 < type || ACL_UDF_TYPE_RAW > type), CMM_ERR_INPUT);
 1330              		.loc 1 149 5 discriminator 3 view .LVU384
 1331 006c 0C48     		ldr	r0, .L137+16
 1332 006e FFF7FEFF 		bl	osal_printf
 1333              	.LVL181:
 1334 0072 F5E7     		b	.L125
 1335              	.LVL182:
 1336              	.L132:
 149:../Switch/core/yt/yt_acl.c ****     CMM_PARAM_CHK((ACL_UDF_TYPE_L4 < type || ACL_UDF_TYPE_RAW > type), CMM_ERR_INPUT);
 1337              		.loc 1 149 5 discriminator 3 view .LVU385
 1338              	.LBE27:
 150:../Switch/core/yt/yt_acl.c **** 
 1339              		.loc 1 150 5 is_stmt 1 discriminator 1 view .LVU386
 150:../Switch/core/yt/yt_acl.c **** 
 1340              		.loc 1 150 5 discriminator 1 view .LVU387
 1341 0074 074B     		ldr	r3, .L137+4
 1342              	.LVL183:
 150:../Switch/core/yt/yt_acl.c **** 
 1343              		.loc 1 150 5 is_stmt 0 discriminator 1 view .LVU388
 1344 0076 1B78     		ldrb	r3, [r3]	@ zero_extendqisi2
 1345 0078 012B     		cmp	r3, #1
 1346 007a 01D8     		bhi	.L136
 1347              	.LVL184:
 1348              	.L127:
 150:../Switch/core/yt/yt_acl.c **** 
 1349              		.loc 1 150 5 is_stmt 1 discriminator 5 view .LVU389
 150:../Switch/core/yt/yt_acl.c **** 
 1350              		.loc 1 150 5 discriminator 5 view .LVU390
 150:../Switch/core/yt/yt_acl.c **** 
 1351              		.loc 1 150 5 discriminator 5 view .LVU391
 1352 007c 0520     		movs	r0, #5
 1353 007e CEE7     		b	.L118
 1354              	.LVL185:
 1355              	.L136:
 150:../Switch/core/yt/yt_acl.c **** 
 1356              		.loc 1 150 5 discriminator 3 view .LVU392
 1357              	.LBB28:
 150:../Switch/core/yt/yt_acl.c **** 
 1358              		.loc 1 150 5 discriminator 3 view .LVU393
 1359 0080 054B     		ldr	r3, .L137+8
 1360 0082 5A69     		ldr	r2, [r3, #20]
 1361              	.LVL186:
 150:../Switch/core/yt/yt_acl.c **** 
 1362              		.loc 1 150 5 is_stmt 0 discriminator 3 view .LVU394
 1363 0084 054B     		ldr	r3, .L137+12
 1364 0086 9968     		ldr	r1, [r3, #8]
 1365              	.LVL187:
 150:../Switch/core/yt/yt_acl.c **** 
 1366              		.loc 1 150 5 discriminator 3 view .LVU395
 1367 0088 0548     		ldr	r0, .L137+16
 1368 008a FFF7FEFF 		bl	osal_printf
 1369              	.LVL188:
 1370 008e F5E7     		b	.L127
 1371              	.L138:
 1372              		.align	2
 1373              	.L137:
 1374 0090 00000000 		.word	gpfal_dispatch
 1375 0094 00000000 		.word	yt_debug_level
 1376 0098 00000000 		.word	_yt_errmsg
 1377 009c 00000000 		.word	_yt_prompt_msg
 1378 00a0 00000000 		.word	.LC0
 1379              	.LBE28:
 1380              		.cfi_endproc
 1381              	.LFE8:
 1383              		.section	.text.yt_acl_rule_init,"ax",%progbits
 1384              		.align	1
 1385              		.global	yt_acl_rule_init
 1386              		.syntax unified
 1387              		.thumb
 1388              		.thumb_func
 1390              	yt_acl_rule_init:
 1391              	.LVL189:
 1392              	.LFB9:
 154:../Switch/core/yt/yt_acl.c **** 
 155:../Switch/core/yt/yt_acl.c **** /**
 156:../Switch/core/yt/yt_acl.c ****  * @internal      yt_acl_rule_init
 157:../Switch/core/yt/yt_acl.c ****  * @endinternal
 158:../Switch/core/yt/yt_acl.c ****  *
 159:../Switch/core/yt/yt_acl.c ****  * @brief         start to init rule,must init before add rule key
 160:../Switch/core/yt/yt_acl.c ****  * @note          APPLICABLE DEVICES  -Tiger
 161:../Switch/core/yt/yt_acl.c ****  * @param[in]     unit                -unit id
 162:../Switch/core/yt/yt_acl.c ****  * @retval        CMM_ERR_OK          -on success
 163:../Switch/core/yt/yt_acl.c ****  * @retval        CMM_ERR_FAIL        -on fail
 164:../Switch/core/yt/yt_acl.c ****  */
 165:../Switch/core/yt/yt_acl.c **** yt_ret_t yt_acl_rule_init(yt_unit_t unit)
 166:../Switch/core/yt/yt_acl.c **** {
 1393              		.loc 1 166 1 is_stmt 1 view -0
 1394              		.cfi_startproc
 1395              		@ args = 0, pretend = 0, frame = 0
 1396              		@ frame_needed = 0, uses_anonymous_args = 0
 1397              		.loc 1 166 1 is_stmt 0 view .LVU397
 1398 0000 08B5     		push	{r3, lr}
 1399              		.cfi_def_cfa_offset 8
 1400              		.cfi_offset 3, -8
 1401              		.cfi_offset 14, -4
 167:../Switch/core/yt/yt_acl.c ****     CMM_PARAM_CHK((YT_UNIT_NUM <= unit), CMM_ERR_INPUT);
 1402              		.loc 1 167 5 is_stmt 1 view .LVU398
 1403              		.loc 1 167 5 view .LVU399
 1404 0002 48B9     		cbnz	r0, .L148
 1405              		.loc 1 167 5 discriminator 2 view .LVU400
 168:../Switch/core/yt/yt_acl.c ****     CMM_PARAM_CHK(NULL == YT_DISPATCH(unit), CMM_ERR_NOT_INIT);
 1406              		.loc 1 168 5 discriminator 2 view .LVU401
 1407              		.loc 1 168 5 discriminator 2 view .LVU402
 1408 0004 194B     		ldr	r3, .L154
 1409 0006 53F82030 		ldr	r3, [r3, r0, lsl #2]
 1410 000a 9BB1     		cbz	r3, .L149
 1411              		.loc 1 168 5 discriminator 2 view .LVU403
 169:../Switch/core/yt/yt_acl.c ****     CMM_PARAM_CHK((!(YT_DISPATCH(unit)->is_inited)), CMM_ERR_NOT_INIT);
 1412              		.loc 1 169 5 discriminator 2 view .LVU404
 1413              		.loc 1 169 5 discriminator 2 view .LVU405
 1414 000c 1978     		ldrb	r1, [r3]	@ zero_extendqisi2
 1415 000e F9B1     		cbz	r1, .L150
 1416              		.loc 1 169 5 discriminator 2 view .LVU406
 170:../Switch/core/yt/yt_acl.c **** 
 171:../Switch/core/yt/yt_acl.c ****     return YT_DISPATCH(unit)->acl_rule_init(unit);
 1417              		.loc 1 171 5 discriminator 2 view .LVU407
 1418              		.loc 1 171 29 is_stmt 0 discriminator 2 view .LVU408
 1419 0010 D3F80C31 		ldr	r3, [r3, #268]
 1420              		.loc 1 171 12 discriminator 2 view .LVU409
 1421 0014 9847     		blx	r3
 1422              	.LVL190:
 1423              	.L139:
 172:../Switch/core/yt/yt_acl.c **** }
 1424              		.loc 1 172 1 view .LVU410
 1425 0016 08BD     		pop	{r3, pc}
 1426              	.LVL191:
 1427              	.L148:
 167:../Switch/core/yt/yt_acl.c ****     CMM_PARAM_CHK(NULL == YT_DISPATCH(unit), CMM_ERR_NOT_INIT);
 1428              		.loc 1 167 5 is_stmt 1 discriminator 1 view .LVU411
 167:../Switch/core/yt/yt_acl.c ****     CMM_PARAM_CHK(NULL == YT_DISPATCH(unit), CMM_ERR_NOT_INIT);
 1429              		.loc 1 167 5 discriminator 1 view .LVU412
 1430 0018 154B     		ldr	r3, .L154+4
 1431 001a 1B78     		ldrb	r3, [r3]	@ zero_extendqisi2
 1432 001c 012B     		cmp	r3, #1
 1433 001e 01D8     		bhi	.L151
 1434              	.LVL192:
 1435              	.L141:
 167:../Switch/core/yt/yt_acl.c ****     CMM_PARAM_CHK(NULL == YT_DISPATCH(unit), CMM_ERR_NOT_INIT);
 1436              		.loc 1 167 5 discriminator 5 view .LVU413
 167:../Switch/core/yt/yt_acl.c ****     CMM_PARAM_CHK(NULL == YT_DISPATCH(unit), CMM_ERR_NOT_INIT);
 1437              		.loc 1 167 5 discriminator 5 view .LVU414
 167:../Switch/core/yt/yt_acl.c ****     CMM_PARAM_CHK(NULL == YT_DISPATCH(unit), CMM_ERR_NOT_INIT);
 1438              		.loc 1 167 5 discriminator 5 view .LVU415
 1439 0020 0520     		movs	r0, #5
 1440 0022 F8E7     		b	.L139
 1441              	.LVL193:
 1442              	.L151:
 167:../Switch/core/yt/yt_acl.c ****     CMM_PARAM_CHK(NULL == YT_DISPATCH(unit), CMM_ERR_NOT_INIT);
 1443              		.loc 1 167 5 discriminator 3 view .LVU416
 1444              	.LBB29:
 167:../Switch/core/yt/yt_acl.c ****     CMM_PARAM_CHK(NULL == YT_DISPATCH(unit), CMM_ERR_NOT_INIT);
 1445              		.loc 1 167 5 discriminator 3 view .LVU417
 1446 0024 134B     		ldr	r3, .L154+8
 1447 0026 5A69     		ldr	r2, [r3, #20]
 1448 0028 134B     		ldr	r3, .L154+12
 1449 002a 9968     		ldr	r1, [r3, #8]
 1450 002c 1348     		ldr	r0, .L154+16
 1451              	.LVL194:
 167:../Switch/core/yt/yt_acl.c ****     CMM_PARAM_CHK(NULL == YT_DISPATCH(unit), CMM_ERR_NOT_INIT);
 1452              		.loc 1 167 5 is_stmt 0 discriminator 3 view .LVU418
 1453 002e FFF7FEFF 		bl	osal_printf
 1454              	.LVL195:
 1455 0032 F5E7     		b	.L141
 1456              	.LVL196:
 1457              	.L149:
 167:../Switch/core/yt/yt_acl.c ****     CMM_PARAM_CHK(NULL == YT_DISPATCH(unit), CMM_ERR_NOT_INIT);
 1458              		.loc 1 167 5 discriminator 3 view .LVU419
 1459              	.LBE29:
 168:../Switch/core/yt/yt_acl.c ****     CMM_PARAM_CHK((!(YT_DISPATCH(unit)->is_inited)), CMM_ERR_NOT_INIT);
 1460              		.loc 1 168 5 is_stmt 1 discriminator 1 view .LVU420
 168:../Switch/core/yt/yt_acl.c ****     CMM_PARAM_CHK((!(YT_DISPATCH(unit)->is_inited)), CMM_ERR_NOT_INIT);
 1461              		.loc 1 168 5 discriminator 1 view .LVU421
 1462 0034 0E4B     		ldr	r3, .L154+4
 1463 0036 1B78     		ldrb	r3, [r3]	@ zero_extendqisi2
 1464 0038 012B     		cmp	r3, #1
 1465 003a 01D8     		bhi	.L152
 1466              	.LVL197:
 1467              	.L144:
 168:../Switch/core/yt/yt_acl.c ****     CMM_PARAM_CHK((!(YT_DISPATCH(unit)->is_inited)), CMM_ERR_NOT_INIT);
 1468              		.loc 1 168 5 discriminator 5 view .LVU422
 168:../Switch/core/yt/yt_acl.c ****     CMM_PARAM_CHK((!(YT_DISPATCH(unit)->is_inited)), CMM_ERR_NOT_INIT);
 1469              		.loc 1 168 5 discriminator 5 view .LVU423
 168:../Switch/core/yt/yt_acl.c ****     CMM_PARAM_CHK((!(YT_DISPATCH(unit)->is_inited)), CMM_ERR_NOT_INIT);
 1470              		.loc 1 168 5 discriminator 5 view .LVU424
 1471 003c 0420     		movs	r0, #4
 1472 003e EAE7     		b	.L139
 1473              	.LVL198:
 1474              	.L152:
 168:../Switch/core/yt/yt_acl.c ****     CMM_PARAM_CHK((!(YT_DISPATCH(unit)->is_inited)), CMM_ERR_NOT_INIT);
 1475              		.loc 1 168 5 discriminator 3 view .LVU425
 1476              	.LBB30:
 168:../Switch/core/yt/yt_acl.c ****     CMM_PARAM_CHK((!(YT_DISPATCH(unit)->is_inited)), CMM_ERR_NOT_INIT);
 1477              		.loc 1 168 5 discriminator 3 view .LVU426
 1478 0040 0C4B     		ldr	r3, .L154+8
 1479 0042 1A69     		ldr	r2, [r3, #16]
 1480 0044 0C4B     		ldr	r3, .L154+12
 1481 0046 9968     		ldr	r1, [r3, #8]
 1482 0048 0C48     		ldr	r0, .L154+16
 1483              	.LVL199:
 168:../Switch/core/yt/yt_acl.c ****     CMM_PARAM_CHK((!(YT_DISPATCH(unit)->is_inited)), CMM_ERR_NOT_INIT);
 1484              		.loc 1 168 5 is_stmt 0 discriminator 3 view .LVU427
 1485 004a FFF7FEFF 		bl	osal_printf
 1486              	.LVL200:
 1487 004e F5E7     		b	.L144
 1488              	.LVL201:
 1489              	.L150:
 168:../Switch/core/yt/yt_acl.c ****     CMM_PARAM_CHK((!(YT_DISPATCH(unit)->is_inited)), CMM_ERR_NOT_INIT);
 1490              		.loc 1 168 5 discriminator 3 view .LVU428
 1491              	.LBE30:
 169:../Switch/core/yt/yt_acl.c **** 
 1492              		.loc 1 169 5 is_stmt 1 discriminator 1 view .LVU429
 169:../Switch/core/yt/yt_acl.c **** 
 1493              		.loc 1 169 5 discriminator 1 view .LVU430
 1494 0050 074B     		ldr	r3, .L154+4
 1495 0052 1B78     		ldrb	r3, [r3]	@ zero_extendqisi2
 1496 0054 012B     		cmp	r3, #1
 1497 0056 01D8     		bhi	.L153
 1498              	.LVL202:
 1499              	.L146:
 169:../Switch/core/yt/yt_acl.c **** 
 1500              		.loc 1 169 5 discriminator 5 view .LVU431
 169:../Switch/core/yt/yt_acl.c **** 
 1501              		.loc 1 169 5 discriminator 5 view .LVU432
 169:../Switch/core/yt/yt_acl.c **** 
 1502              		.loc 1 169 5 discriminator 5 view .LVU433
 1503 0058 0420     		movs	r0, #4
 1504 005a DCE7     		b	.L139
 1505              	.LVL203:
 1506              	.L153:
 169:../Switch/core/yt/yt_acl.c **** 
 1507              		.loc 1 169 5 discriminator 3 view .LVU434
 1508              	.LBB31:
 169:../Switch/core/yt/yt_acl.c **** 
 1509              		.loc 1 169 5 discriminator 3 view .LVU435
 1510 005c 054B     		ldr	r3, .L154+8
 1511 005e 1A69     		ldr	r2, [r3, #16]
 1512 0060 054B     		ldr	r3, .L154+12
 1513 0062 9968     		ldr	r1, [r3, #8]
 1514 0064 0548     		ldr	r0, .L154+16
 1515              	.LVL204:
 169:../Switch/core/yt/yt_acl.c **** 
 1516              		.loc 1 169 5 is_stmt 0 discriminator 3 view .LVU436
 1517 0066 FFF7FEFF 		bl	osal_printf
 1518              	.LVL205:
 1519 006a F5E7     		b	.L146
 1520              	.L155:
 1521              		.align	2
 1522              	.L154:
 1523 006c 00000000 		.word	gpfal_dispatch
 1524 0070 00000000 		.word	yt_debug_level
 1525 0074 00000000 		.word	_yt_errmsg
 1526 0078 00000000 		.word	_yt_prompt_msg
 1527 007c 00000000 		.word	.LC0
 1528              	.LBE31:
 1529              		.cfi_endproc
 1530              	.LFE9:
 1532              		.section	.text.yt_acl_rule_reset,"ax",%progbits
 1533              		.align	1
 1534              		.global	yt_acl_rule_reset
 1535              		.syntax unified
 1536              		.thumb
 1537              		.thumb_func
 1539              	yt_acl_rule_reset:
 1540              	.LVL206:
 1541              	.LFB10:
 173:../Switch/core/yt/yt_acl.c **** 
 174:../Switch/core/yt/yt_acl.c **** /**
 175:../Switch/core/yt/yt_acl.c ****  * @internal      yt_acl_rule_reset
 176:../Switch/core/yt/yt_acl.c ****  * @endinternal
 177:../Switch/core/yt/yt_acl.c ****  *
 178:../Switch/core/yt/yt_acl.c ****  * @brief         clear acl rule key and action,used to recreate rule before rule active
 179:../Switch/core/yt/yt_acl.c ****  * @note          APPLICABLE DEVICES  -Tiger
 180:../Switch/core/yt/yt_acl.c ****  * @param[in]     unit                -unit id
 181:../Switch/core/yt/yt_acl.c ****  * @retval        CMM_ERR_OK          -on success
 182:../Switch/core/yt/yt_acl.c ****  * @retval        CMM_ERR_FAIL        -on fail
 183:../Switch/core/yt/yt_acl.c ****  */
 184:../Switch/core/yt/yt_acl.c **** yt_ret_t yt_acl_rule_reset(yt_unit_t unit)
 185:../Switch/core/yt/yt_acl.c **** {
 1542              		.loc 1 185 1 is_stmt 1 view -0
 1543              		.cfi_startproc
 1544              		@ args = 0, pretend = 0, frame = 0
 1545              		@ frame_needed = 0, uses_anonymous_args = 0
 1546              		.loc 1 185 1 is_stmt 0 view .LVU438
 1547 0000 08B5     		push	{r3, lr}
 1548              		.cfi_def_cfa_offset 8
 1549              		.cfi_offset 3, -8
 1550              		.cfi_offset 14, -4
 186:../Switch/core/yt/yt_acl.c ****     CMM_PARAM_CHK((YT_UNIT_NUM <= unit), CMM_ERR_INPUT);
 1551              		.loc 1 186 5 is_stmt 1 view .LVU439
 1552              		.loc 1 186 5 view .LVU440
 1553 0002 48B9     		cbnz	r0, .L165
 1554              		.loc 1 186 5 discriminator 2 view .LVU441
 187:../Switch/core/yt/yt_acl.c ****     CMM_PARAM_CHK(NULL == YT_DISPATCH(unit), CMM_ERR_NOT_INIT);
 1555              		.loc 1 187 5 discriminator 2 view .LVU442
 1556              		.loc 1 187 5 discriminator 2 view .LVU443
 1557 0004 194B     		ldr	r3, .L171
 1558 0006 53F82030 		ldr	r3, [r3, r0, lsl #2]
 1559 000a 9BB1     		cbz	r3, .L166
 1560              		.loc 1 187 5 discriminator 2 view .LVU444
 188:../Switch/core/yt/yt_acl.c ****     CMM_PARAM_CHK((!(YT_DISPATCH(unit)->is_inited)), CMM_ERR_NOT_INIT);
 1561              		.loc 1 188 5 discriminator 2 view .LVU445
 1562              		.loc 1 188 5 discriminator 2 view .LVU446
 1563 000c 1978     		ldrb	r1, [r3]	@ zero_extendqisi2
 1564 000e F9B1     		cbz	r1, .L167
 1565              		.loc 1 188 5 discriminator 2 view .LVU447
 189:../Switch/core/yt/yt_acl.c **** 
 190:../Switch/core/yt/yt_acl.c ****     return YT_DISPATCH(unit)->acl_rule_reset(unit);
 1566              		.loc 1 190 5 discriminator 2 view .LVU448
 1567              		.loc 1 190 29 is_stmt 0 discriminator 2 view .LVU449
 1568 0010 D3F81031 		ldr	r3, [r3, #272]
 1569              		.loc 1 190 12 discriminator 2 view .LVU450
 1570 0014 9847     		blx	r3
 1571              	.LVL207:
 1572              	.L156:
 191:../Switch/core/yt/yt_acl.c **** }
 1573              		.loc 1 191 1 view .LVU451
 1574 0016 08BD     		pop	{r3, pc}
 1575              	.LVL208:
 1576              	.L165:
 186:../Switch/core/yt/yt_acl.c ****     CMM_PARAM_CHK(NULL == YT_DISPATCH(unit), CMM_ERR_NOT_INIT);
 1577              		.loc 1 186 5 is_stmt 1 discriminator 1 view .LVU452
 186:../Switch/core/yt/yt_acl.c ****     CMM_PARAM_CHK(NULL == YT_DISPATCH(unit), CMM_ERR_NOT_INIT);
 1578              		.loc 1 186 5 discriminator 1 view .LVU453
 1579 0018 154B     		ldr	r3, .L171+4
 1580 001a 1B78     		ldrb	r3, [r3]	@ zero_extendqisi2
 1581 001c 012B     		cmp	r3, #1
 1582 001e 01D8     		bhi	.L168
 1583              	.LVL209:
 1584              	.L158:
 186:../Switch/core/yt/yt_acl.c ****     CMM_PARAM_CHK(NULL == YT_DISPATCH(unit), CMM_ERR_NOT_INIT);
 1585              		.loc 1 186 5 discriminator 5 view .LVU454
 186:../Switch/core/yt/yt_acl.c ****     CMM_PARAM_CHK(NULL == YT_DISPATCH(unit), CMM_ERR_NOT_INIT);
 1586              		.loc 1 186 5 discriminator 5 view .LVU455
 186:../Switch/core/yt/yt_acl.c ****     CMM_PARAM_CHK(NULL == YT_DISPATCH(unit), CMM_ERR_NOT_INIT);
 1587              		.loc 1 186 5 discriminator 5 view .LVU456
 1588 0020 0520     		movs	r0, #5
 1589 0022 F8E7     		b	.L156
 1590              	.LVL210:
 1591              	.L168:
 186:../Switch/core/yt/yt_acl.c ****     CMM_PARAM_CHK(NULL == YT_DISPATCH(unit), CMM_ERR_NOT_INIT);
 1592              		.loc 1 186 5 discriminator 3 view .LVU457
 1593              	.LBB32:
 186:../Switch/core/yt/yt_acl.c ****     CMM_PARAM_CHK(NULL == YT_DISPATCH(unit), CMM_ERR_NOT_INIT);
 1594              		.loc 1 186 5 discriminator 3 view .LVU458
 1595 0024 134B     		ldr	r3, .L171+8
 1596 0026 5A69     		ldr	r2, [r3, #20]
 1597 0028 134B     		ldr	r3, .L171+12
 1598 002a 9968     		ldr	r1, [r3, #8]
 1599 002c 1348     		ldr	r0, .L171+16
 1600              	.LVL211:
 186:../Switch/core/yt/yt_acl.c ****     CMM_PARAM_CHK(NULL == YT_DISPATCH(unit), CMM_ERR_NOT_INIT);
 1601              		.loc 1 186 5 is_stmt 0 discriminator 3 view .LVU459
 1602 002e FFF7FEFF 		bl	osal_printf
 1603              	.LVL212:
 1604 0032 F5E7     		b	.L158
 1605              	.LVL213:
 1606              	.L166:
 186:../Switch/core/yt/yt_acl.c ****     CMM_PARAM_CHK(NULL == YT_DISPATCH(unit), CMM_ERR_NOT_INIT);
 1607              		.loc 1 186 5 discriminator 3 view .LVU460
 1608              	.LBE32:
 187:../Switch/core/yt/yt_acl.c ****     CMM_PARAM_CHK((!(YT_DISPATCH(unit)->is_inited)), CMM_ERR_NOT_INIT);
 1609              		.loc 1 187 5 is_stmt 1 discriminator 1 view .LVU461
 187:../Switch/core/yt/yt_acl.c ****     CMM_PARAM_CHK((!(YT_DISPATCH(unit)->is_inited)), CMM_ERR_NOT_INIT);
 1610              		.loc 1 187 5 discriminator 1 view .LVU462
 1611 0034 0E4B     		ldr	r3, .L171+4
 1612 0036 1B78     		ldrb	r3, [r3]	@ zero_extendqisi2
 1613 0038 012B     		cmp	r3, #1
 1614 003a 01D8     		bhi	.L169
 1615              	.LVL214:
 1616              	.L161:
 187:../Switch/core/yt/yt_acl.c ****     CMM_PARAM_CHK((!(YT_DISPATCH(unit)->is_inited)), CMM_ERR_NOT_INIT);
 1617              		.loc 1 187 5 discriminator 5 view .LVU463
 187:../Switch/core/yt/yt_acl.c ****     CMM_PARAM_CHK((!(YT_DISPATCH(unit)->is_inited)), CMM_ERR_NOT_INIT);
 1618              		.loc 1 187 5 discriminator 5 view .LVU464
 187:../Switch/core/yt/yt_acl.c ****     CMM_PARAM_CHK((!(YT_DISPATCH(unit)->is_inited)), CMM_ERR_NOT_INIT);
 1619              		.loc 1 187 5 discriminator 5 view .LVU465
 1620 003c 0420     		movs	r0, #4
 1621 003e EAE7     		b	.L156
 1622              	.LVL215:
 1623              	.L169:
 187:../Switch/core/yt/yt_acl.c ****     CMM_PARAM_CHK((!(YT_DISPATCH(unit)->is_inited)), CMM_ERR_NOT_INIT);
 1624              		.loc 1 187 5 discriminator 3 view .LVU466
 1625              	.LBB33:
 187:../Switch/core/yt/yt_acl.c ****     CMM_PARAM_CHK((!(YT_DISPATCH(unit)->is_inited)), CMM_ERR_NOT_INIT);
 1626              		.loc 1 187 5 discriminator 3 view .LVU467
 1627 0040 0C4B     		ldr	r3, .L171+8
 1628 0042 1A69     		ldr	r2, [r3, #16]
 1629 0044 0C4B     		ldr	r3, .L171+12
 1630 0046 9968     		ldr	r1, [r3, #8]
 1631 0048 0C48     		ldr	r0, .L171+16
 1632              	.LVL216:
 187:../Switch/core/yt/yt_acl.c ****     CMM_PARAM_CHK((!(YT_DISPATCH(unit)->is_inited)), CMM_ERR_NOT_INIT);
 1633              		.loc 1 187 5 is_stmt 0 discriminator 3 view .LVU468
 1634 004a FFF7FEFF 		bl	osal_printf
 1635              	.LVL217:
 1636 004e F5E7     		b	.L161
 1637              	.LVL218:
 1638              	.L167:
 187:../Switch/core/yt/yt_acl.c ****     CMM_PARAM_CHK((!(YT_DISPATCH(unit)->is_inited)), CMM_ERR_NOT_INIT);
 1639              		.loc 1 187 5 discriminator 3 view .LVU469
 1640              	.LBE33:
 188:../Switch/core/yt/yt_acl.c **** 
 1641              		.loc 1 188 5 is_stmt 1 discriminator 1 view .LVU470
 188:../Switch/core/yt/yt_acl.c **** 
 1642              		.loc 1 188 5 discriminator 1 view .LVU471
 1643 0050 074B     		ldr	r3, .L171+4
 1644 0052 1B78     		ldrb	r3, [r3]	@ zero_extendqisi2
 1645 0054 012B     		cmp	r3, #1
 1646 0056 01D8     		bhi	.L170
 1647              	.LVL219:
 1648              	.L163:
 188:../Switch/core/yt/yt_acl.c **** 
 1649              		.loc 1 188 5 discriminator 5 view .LVU472
 188:../Switch/core/yt/yt_acl.c **** 
 1650              		.loc 1 188 5 discriminator 5 view .LVU473
 188:../Switch/core/yt/yt_acl.c **** 
 1651              		.loc 1 188 5 discriminator 5 view .LVU474
 1652 0058 0420     		movs	r0, #4
 1653 005a DCE7     		b	.L156
 1654              	.LVL220:
 1655              	.L170:
 188:../Switch/core/yt/yt_acl.c **** 
 1656              		.loc 1 188 5 discriminator 3 view .LVU475
 1657              	.LBB34:
 188:../Switch/core/yt/yt_acl.c **** 
 1658              		.loc 1 188 5 discriminator 3 view .LVU476
 1659 005c 054B     		ldr	r3, .L171+8
 1660 005e 1A69     		ldr	r2, [r3, #16]
 1661 0060 054B     		ldr	r3, .L171+12
 1662 0062 9968     		ldr	r1, [r3, #8]
 1663 0064 0548     		ldr	r0, .L171+16
 1664              	.LVL221:
 188:../Switch/core/yt/yt_acl.c **** 
 1665              		.loc 1 188 5 is_stmt 0 discriminator 3 view .LVU477
 1666 0066 FFF7FEFF 		bl	osal_printf
 1667              	.LVL222:
 1668 006a F5E7     		b	.L163
 1669              	.L172:
 1670              		.align	2
 1671              	.L171:
 1672 006c 00000000 		.word	gpfal_dispatch
 1673 0070 00000000 		.word	yt_debug_level
 1674 0074 00000000 		.word	_yt_errmsg
 1675 0078 00000000 		.word	_yt_prompt_msg
 1676 007c 00000000 		.word	.LC0
 1677              	.LBE34:
 1678              		.cfi_endproc
 1679              	.LFE10:
 1681              		.section	.text.yt_acl_rule_key_add,"ax",%progbits
 1682              		.align	1
 1683              		.global	yt_acl_rule_key_add
 1684              		.syntax unified
 1685              		.thumb
 1686              		.thumb_func
 1688              	yt_acl_rule_key_add:
 1689              	.LVL223:
 1690              	.LFB11:
 192:../Switch/core/yt/yt_acl.c **** 
 193:../Switch/core/yt/yt_acl.c **** /**
 194:../Switch/core/yt/yt_acl.c ****  * @internal      yt_acl_rule_key_add
 195:../Switch/core/yt/yt_acl.c ****  * @endinternal
 196:../Switch/core/yt/yt_acl.c ****  *
 197:../Switch/core/yt/yt_acl.c ****  * @brief         add key to list,prepare to create rule.max 16 keys
 198:../Switch/core/yt/yt_acl.c ****  * @note          APPLICABLE DEVICES  -Tiger
 199:../Switch/core/yt/yt_acl.c ****  * @param[in]     unit                -unit id
 200:../Switch/core/yt/yt_acl.c ****  * @param[in]     type                -acl key type,refer to yt_igrAcl_key_type_t define
 201:../Switch/core/yt/yt_acl.c ****  * @param[in]     pKey_data           -point to different key data,must according to key type
 202:../Switch/core/yt/yt_acl.c ****  * @retval        CMM_ERR_OK          -on success
 203:../Switch/core/yt/yt_acl.c ****  * @retval        CMM_ERR_FAIL        -on fail
 204:../Switch/core/yt/yt_acl.c ****  * @retval        CMM_ERR_NOT_INIT        -did not init rule yet
 205:../Switch/core/yt/yt_acl.c ****  * @retval        CMM_ERR_NOT_SUPPORT        -unknown key type
 206:../Switch/core/yt/yt_acl.c ****  * @retval        CMM_ERR_ENTRY_FULL        -reach to max num of keys
 207:../Switch/core/yt/yt_acl.c ****  * @retval        CMM_ERR_SAMEENTRY_EXIST        -already has same key
 208:../Switch/core/yt/yt_acl.c ****  */
 209:../Switch/core/yt/yt_acl.c **** yt_ret_t yt_acl_rule_key_add(yt_unit_t unit, yt_igrAcl_key_type_t type, yt_comm_key_t *pKey_data)
 210:../Switch/core/yt/yt_acl.c **** {
 1691              		.loc 1 210 1 is_stmt 1 view -0
 1692              		.cfi_startproc
 1693              		@ args = 0, pretend = 0, frame = 0
 1694              		@ frame_needed = 0, uses_anonymous_args = 0
 1695              		.loc 1 210 1 is_stmt 0 view .LVU479
 1696 0000 08B5     		push	{r3, lr}
 1697              		.cfi_def_cfa_offset 8
 1698              		.cfi_offset 3, -8
 1699              		.cfi_offset 14, -4
 211:../Switch/core/yt/yt_acl.c ****     CMM_PARAM_CHK((YT_UNIT_NUM <= unit), CMM_ERR_INPUT);
 1700              		.loc 1 211 5 is_stmt 1 view .LVU480
 1701              		.loc 1 211 5 view .LVU481
 1702 0002 88B9     		cbnz	r0, .L186
 1703 0004 8446     		mov	ip, r0
 1704              		.loc 1 211 5 discriminator 2 view .LVU482
 212:../Switch/core/yt/yt_acl.c ****     CMM_PARAM_CHK(NULL == YT_DISPATCH(unit), CMM_ERR_NOT_INIT);
 1705              		.loc 1 212 5 discriminator 2 view .LVU483
 1706              		.loc 1 212 5 discriminator 2 view .LVU484
 1707 0006 2B4B     		ldr	r3, .L196
 1708 0008 53F82030 		ldr	r3, [r3, r0, lsl #2]
 1709 000c D3B1     		cbz	r3, .L187
 1710              		.loc 1 212 5 discriminator 2 view .LVU485
 213:../Switch/core/yt/yt_acl.c ****     CMM_PARAM_CHK((!(YT_DISPATCH(unit)->is_inited)), CMM_ERR_NOT_INIT);
 1711              		.loc 1 213 5 discriminator 2 view .LVU486
 1712              		.loc 1 213 5 discriminator 2 view .LVU487
 1713 000e 1878     		ldrb	r0, [r3]	@ zero_extendqisi2
 1714              	.LVL224:
 1715              		.loc 1 213 5 is_stmt 0 discriminator 2 view .LVU488
 1716 0010 30B3     		cbz	r0, .L188
 1717              		.loc 1 213 5 is_stmt 1 discriminator 2 view .LVU489
 214:../Switch/core/yt/yt_acl.c ****     CMM_PARAM_CHK((NULL == pKey_data), CMM_ERR_NULL_POINT);
 1718              		.loc 1 214 5 discriminator 2 view .LVU490
 1719              		.loc 1 214 5 discriminator 2 view .LVU491
 1720 0012 002A     		cmp	r2, #0
 1721 0014 32D0     		beq	.L189
 1722              		.loc 1 214 5 discriminator 2 view .LVU492
 215:../Switch/core/yt/yt_acl.c ****     CMM_PARAM_CHK((YT_IGRACL_TEMPLATE_MAX < type || YT_IGRACL_TEMPLATE_MAC_DA > type), CMM_ERR_INPU
 1723              		.loc 1 215 5 discriminator 2 view .LVU493
 1724              		.loc 1 215 5 discriminator 2 view .LVU494
 1725 0016 481E     		subs	r0, r1, #1
 1726 0018 C0B2     		uxtb	r0, r0
 1727 001a 2B28     		cmp	r0, #43
 1728 001c 3CD8     		bhi	.L190
 1729              		.loc 1 215 5 discriminator 2 view .LVU495
 216:../Switch/core/yt/yt_acl.c **** 
 217:../Switch/core/yt/yt_acl.c ****     return YT_DISPATCH(unit)->acl_rule_key_add(unit, type, pKey_data);
 1730              		.loc 1 217 5 discriminator 2 view .LVU496
 1731              		.loc 1 217 29 is_stmt 0 discriminator 2 view .LVU497
 1732 001e D3F81431 		ldr	r3, [r3, #276]
 1733              		.loc 1 217 12 discriminator 2 view .LVU498
 1734 0022 6046     		mov	r0, ip
 1735 0024 9847     		blx	r3
 1736              	.LVL225:
 1737              	.L173:
 218:../Switch/core/yt/yt_acl.c **** }
 1738              		.loc 1 218 1 view .LVU499
 1739 0026 08BD     		pop	{r3, pc}
 1740              	.LVL226:
 1741              	.L186:
 211:../Switch/core/yt/yt_acl.c ****     CMM_PARAM_CHK(NULL == YT_DISPATCH(unit), CMM_ERR_NOT_INIT);
 1742              		.loc 1 211 5 is_stmt 1 discriminator 1 view .LVU500
 211:../Switch/core/yt/yt_acl.c ****     CMM_PARAM_CHK(NULL == YT_DISPATCH(unit), CMM_ERR_NOT_INIT);
 1743              		.loc 1 211 5 discriminator 1 view .LVU501
 1744 0028 234B     		ldr	r3, .L196+4
 1745 002a 1B78     		ldrb	r3, [r3]	@ zero_extendqisi2
 1746 002c 012B     		cmp	r3, #1
 1747 002e 01D8     		bhi	.L191
 1748              	.LVL227:
 1749              	.L175:
 211:../Switch/core/yt/yt_acl.c ****     CMM_PARAM_CHK(NULL == YT_DISPATCH(unit), CMM_ERR_NOT_INIT);
 1750              		.loc 1 211 5 discriminator 5 view .LVU502
 211:../Switch/core/yt/yt_acl.c ****     CMM_PARAM_CHK(NULL == YT_DISPATCH(unit), CMM_ERR_NOT_INIT);
 1751              		.loc 1 211 5 discriminator 5 view .LVU503
 211:../Switch/core/yt/yt_acl.c ****     CMM_PARAM_CHK(NULL == YT_DISPATCH(unit), CMM_ERR_NOT_INIT);
 1752              		.loc 1 211 5 discriminator 5 view .LVU504
 1753 0030 0520     		movs	r0, #5
 1754 0032 F8E7     		b	.L173
 1755              	.LVL228:
 1756              	.L191:
 211:../Switch/core/yt/yt_acl.c ****     CMM_PARAM_CHK(NULL == YT_DISPATCH(unit), CMM_ERR_NOT_INIT);
 1757              		.loc 1 211 5 discriminator 3 view .LVU505
 1758              	.LBB35:
 211:../Switch/core/yt/yt_acl.c ****     CMM_PARAM_CHK(NULL == YT_DISPATCH(unit), CMM_ERR_NOT_INIT);
 1759              		.loc 1 211 5 discriminator 3 view .LVU506
 1760 0034 214B     		ldr	r3, .L196+8
 1761 0036 5A69     		ldr	r2, [r3, #20]
 1762              	.LVL229:
 211:../Switch/core/yt/yt_acl.c ****     CMM_PARAM_CHK(NULL == YT_DISPATCH(unit), CMM_ERR_NOT_INIT);
 1763              		.loc 1 211 5 is_stmt 0 discriminator 3 view .LVU507
 1764 0038 214B     		ldr	r3, .L196+12
 1765 003a 9968     		ldr	r1, [r3, #8]
 1766              	.LVL230:
 211:../Switch/core/yt/yt_acl.c ****     CMM_PARAM_CHK(NULL == YT_DISPATCH(unit), CMM_ERR_NOT_INIT);
 1767              		.loc 1 211 5 discriminator 3 view .LVU508
 1768 003c 2148     		ldr	r0, .L196+16
 1769              	.LVL231:
 211:../Switch/core/yt/yt_acl.c ****     CMM_PARAM_CHK(NULL == YT_DISPATCH(unit), CMM_ERR_NOT_INIT);
 1770              		.loc 1 211 5 discriminator 3 view .LVU509
 1771 003e FFF7FEFF 		bl	osal_printf
 1772              	.LVL232:
 1773 0042 F5E7     		b	.L175
 1774              	.LVL233:
 1775              	.L187:
 211:../Switch/core/yt/yt_acl.c ****     CMM_PARAM_CHK(NULL == YT_DISPATCH(unit), CMM_ERR_NOT_INIT);
 1776              		.loc 1 211 5 discriminator 3 view .LVU510
 1777              	.LBE35:
 212:../Switch/core/yt/yt_acl.c ****     CMM_PARAM_CHK((!(YT_DISPATCH(unit)->is_inited)), CMM_ERR_NOT_INIT);
 1778              		.loc 1 212 5 is_stmt 1 discriminator 1 view .LVU511
 212:../Switch/core/yt/yt_acl.c ****     CMM_PARAM_CHK((!(YT_DISPATCH(unit)->is_inited)), CMM_ERR_NOT_INIT);
 1779              		.loc 1 212 5 discriminator 1 view .LVU512
 1780 0044 1C4B     		ldr	r3, .L196+4
 1781 0046 1B78     		ldrb	r3, [r3]	@ zero_extendqisi2
 1782 0048 012B     		cmp	r3, #1
 1783 004a 01D8     		bhi	.L192
 1784              	.LVL234:
 1785              	.L178:
 212:../Switch/core/yt/yt_acl.c ****     CMM_PARAM_CHK((!(YT_DISPATCH(unit)->is_inited)), CMM_ERR_NOT_INIT);
 1786              		.loc 1 212 5 discriminator 5 view .LVU513
 212:../Switch/core/yt/yt_acl.c ****     CMM_PARAM_CHK((!(YT_DISPATCH(unit)->is_inited)), CMM_ERR_NOT_INIT);
 1787              		.loc 1 212 5 discriminator 5 view .LVU514
 212:../Switch/core/yt/yt_acl.c ****     CMM_PARAM_CHK((!(YT_DISPATCH(unit)->is_inited)), CMM_ERR_NOT_INIT);
 1788              		.loc 1 212 5 discriminator 5 view .LVU515
 1789 004c 0420     		movs	r0, #4
 1790 004e EAE7     		b	.L173
 1791              	.LVL235:
 1792              	.L192:
 212:../Switch/core/yt/yt_acl.c ****     CMM_PARAM_CHK((!(YT_DISPATCH(unit)->is_inited)), CMM_ERR_NOT_INIT);
 1793              		.loc 1 212 5 discriminator 3 view .LVU516
 1794              	.LBB36:
 212:../Switch/core/yt/yt_acl.c ****     CMM_PARAM_CHK((!(YT_DISPATCH(unit)->is_inited)), CMM_ERR_NOT_INIT);
 1795              		.loc 1 212 5 discriminator 3 view .LVU517
 1796 0050 1A4B     		ldr	r3, .L196+8
 1797 0052 1A69     		ldr	r2, [r3, #16]
 1798              	.LVL236:
 212:../Switch/core/yt/yt_acl.c ****     CMM_PARAM_CHK((!(YT_DISPATCH(unit)->is_inited)), CMM_ERR_NOT_INIT);
 1799              		.loc 1 212 5 is_stmt 0 discriminator 3 view .LVU518
 1800 0054 1A4B     		ldr	r3, .L196+12
 1801 0056 9968     		ldr	r1, [r3, #8]
 1802              	.LVL237:
 212:../Switch/core/yt/yt_acl.c ****     CMM_PARAM_CHK((!(YT_DISPATCH(unit)->is_inited)), CMM_ERR_NOT_INIT);
 1803              		.loc 1 212 5 discriminator 3 view .LVU519
 1804 0058 1A48     		ldr	r0, .L196+16
 1805              	.LVL238:
 212:../Switch/core/yt/yt_acl.c ****     CMM_PARAM_CHK((!(YT_DISPATCH(unit)->is_inited)), CMM_ERR_NOT_INIT);
 1806              		.loc 1 212 5 discriminator 3 view .LVU520
 1807 005a FFF7FEFF 		bl	osal_printf
 1808              	.LVL239:
 1809 005e F5E7     		b	.L178
 1810              	.LVL240:
 1811              	.L188:
 212:../Switch/core/yt/yt_acl.c ****     CMM_PARAM_CHK((!(YT_DISPATCH(unit)->is_inited)), CMM_ERR_NOT_INIT);
 1812              		.loc 1 212 5 discriminator 3 view .LVU521
 1813              	.LBE36:
 213:../Switch/core/yt/yt_acl.c ****     CMM_PARAM_CHK((NULL == pKey_data), CMM_ERR_NULL_POINT);
 1814              		.loc 1 213 5 is_stmt 1 discriminator 1 view .LVU522
 213:../Switch/core/yt/yt_acl.c ****     CMM_PARAM_CHK((NULL == pKey_data), CMM_ERR_NULL_POINT);
 1815              		.loc 1 213 5 discriminator 1 view .LVU523
 1816 0060 154B     		ldr	r3, .L196+4
 1817 0062 1B78     		ldrb	r3, [r3]	@ zero_extendqisi2
 1818 0064 012B     		cmp	r3, #1
 1819 0066 01D8     		bhi	.L193
 1820              	.LVL241:
 1821              	.L180:
 213:../Switch/core/yt/yt_acl.c ****     CMM_PARAM_CHK((NULL == pKey_data), CMM_ERR_NULL_POINT);
 1822              		.loc 1 213 5 discriminator 5 view .LVU524
 213:../Switch/core/yt/yt_acl.c ****     CMM_PARAM_CHK((NULL == pKey_data), CMM_ERR_NULL_POINT);
 1823              		.loc 1 213 5 discriminator 5 view .LVU525
 213:../Switch/core/yt/yt_acl.c ****     CMM_PARAM_CHK((NULL == pKey_data), CMM_ERR_NULL_POINT);
 1824              		.loc 1 213 5 discriminator 5 view .LVU526
 1825 0068 0420     		movs	r0, #4
 1826 006a DCE7     		b	.L173
 1827              	.LVL242:
 1828              	.L193:
 213:../Switch/core/yt/yt_acl.c ****     CMM_PARAM_CHK((NULL == pKey_data), CMM_ERR_NULL_POINT);
 1829              		.loc 1 213 5 discriminator 3 view .LVU527
 1830              	.LBB37:
 213:../Switch/core/yt/yt_acl.c ****     CMM_PARAM_CHK((NULL == pKey_data), CMM_ERR_NULL_POINT);
 1831              		.loc 1 213 5 discriminator 3 view .LVU528
 1832 006c 134B     		ldr	r3, .L196+8
 1833 006e 1A69     		ldr	r2, [r3, #16]
 1834              	.LVL243:
 213:../Switch/core/yt/yt_acl.c ****     CMM_PARAM_CHK((NULL == pKey_data), CMM_ERR_NULL_POINT);
 1835              		.loc 1 213 5 is_stmt 0 discriminator 3 view .LVU529
 1836 0070 134B     		ldr	r3, .L196+12
 1837 0072 9968     		ldr	r1, [r3, #8]
 1838              	.LVL244:
 213:../Switch/core/yt/yt_acl.c ****     CMM_PARAM_CHK((NULL == pKey_data), CMM_ERR_NULL_POINT);
 1839              		.loc 1 213 5 discriminator 3 view .LVU530
 1840 0074 1348     		ldr	r0, .L196+16
 1841 0076 FFF7FEFF 		bl	osal_printf
 1842              	.LVL245:
 1843 007a F5E7     		b	.L180
 1844              	.LVL246:
 1845              	.L189:
 213:../Switch/core/yt/yt_acl.c ****     CMM_PARAM_CHK((NULL == pKey_data), CMM_ERR_NULL_POINT);
 1846              		.loc 1 213 5 discriminator 3 view .LVU531
 1847              	.LBE37:
 214:../Switch/core/yt/yt_acl.c ****     CMM_PARAM_CHK((YT_IGRACL_TEMPLATE_MAX < type || YT_IGRACL_TEMPLATE_MAC_DA > type), CMM_ERR_INPU
 1848              		.loc 1 214 5 is_stmt 1 discriminator 1 view .LVU532
 214:../Switch/core/yt/yt_acl.c ****     CMM_PARAM_CHK((YT_IGRACL_TEMPLATE_MAX < type || YT_IGRACL_TEMPLATE_MAC_DA > type), CMM_ERR_INPU
 1849              		.loc 1 214 5 discriminator 1 view .LVU533
 1850 007c 0E4B     		ldr	r3, .L196+4
 1851 007e 1B78     		ldrb	r3, [r3]	@ zero_extendqisi2
 1852 0080 012B     		cmp	r3, #1
 1853 0082 01D8     		bhi	.L194
 1854              	.LVL247:
 1855              	.L182:
 214:../Switch/core/yt/yt_acl.c ****     CMM_PARAM_CHK((YT_IGRACL_TEMPLATE_MAX < type || YT_IGRACL_TEMPLATE_MAC_DA > type), CMM_ERR_INPU
 1856              		.loc 1 214 5 discriminator 5 view .LVU534
 214:../Switch/core/yt/yt_acl.c ****     CMM_PARAM_CHK((YT_IGRACL_TEMPLATE_MAX < type || YT_IGRACL_TEMPLATE_MAC_DA > type), CMM_ERR_INPU
 1857              		.loc 1 214 5 discriminator 5 view .LVU535
 214:../Switch/core/yt/yt_acl.c ****     CMM_PARAM_CHK((YT_IGRACL_TEMPLATE_MAX < type || YT_IGRACL_TEMPLATE_MAC_DA > type), CMM_ERR_INPU
 1858              		.loc 1 214 5 discriminator 5 view .LVU536
 1859 0084 0220     		movs	r0, #2
 1860 0086 CEE7     		b	.L173
 1861              	.LVL248:
 1862              	.L194:
 214:../Switch/core/yt/yt_acl.c ****     CMM_PARAM_CHK((YT_IGRACL_TEMPLATE_MAX < type || YT_IGRACL_TEMPLATE_MAC_DA > type), CMM_ERR_INPU
 1863              		.loc 1 214 5 discriminator 3 view .LVU537
 1864              	.LBB38:
 214:../Switch/core/yt/yt_acl.c ****     CMM_PARAM_CHK((YT_IGRACL_TEMPLATE_MAX < type || YT_IGRACL_TEMPLATE_MAC_DA > type), CMM_ERR_INPU
 1865              		.loc 1 214 5 discriminator 3 view .LVU538
 1866 0088 0C4B     		ldr	r3, .L196+8
 1867 008a 9A68     		ldr	r2, [r3, #8]
 1868              	.LVL249:
 214:../Switch/core/yt/yt_acl.c ****     CMM_PARAM_CHK((YT_IGRACL_TEMPLATE_MAX < type || YT_IGRACL_TEMPLATE_MAC_DA > type), CMM_ERR_INPU
 1869              		.loc 1 214 5 is_stmt 0 discriminator 3 view .LVU539
 1870 008c 0C4B     		ldr	r3, .L196+12
 1871 008e 9968     		ldr	r1, [r3, #8]
 1872              	.LVL250:
 214:../Switch/core/yt/yt_acl.c ****     CMM_PARAM_CHK((YT_IGRACL_TEMPLATE_MAX < type || YT_IGRACL_TEMPLATE_MAC_DA > type), CMM_ERR_INPU
 1873              		.loc 1 214 5 discriminator 3 view .LVU540
 1874 0090 0C48     		ldr	r0, .L196+16
 1875 0092 FFF7FEFF 		bl	osal_printf
 1876              	.LVL251:
 1877 0096 F5E7     		b	.L182
 1878              	.LVL252:
 1879              	.L190:
 214:../Switch/core/yt/yt_acl.c ****     CMM_PARAM_CHK((YT_IGRACL_TEMPLATE_MAX < type || YT_IGRACL_TEMPLATE_MAC_DA > type), CMM_ERR_INPU
 1880              		.loc 1 214 5 discriminator 3 view .LVU541
 1881              	.LBE38:
 215:../Switch/core/yt/yt_acl.c **** 
 1882              		.loc 1 215 5 is_stmt 1 discriminator 1 view .LVU542
 215:../Switch/core/yt/yt_acl.c **** 
 1883              		.loc 1 215 5 discriminator 1 view .LVU543
 1884 0098 074B     		ldr	r3, .L196+4
 1885 009a 1B78     		ldrb	r3, [r3]	@ zero_extendqisi2
 1886 009c 012B     		cmp	r3, #1
 1887 009e 01D8     		bhi	.L195
 1888              	.LVL253:
 1889              	.L184:
 215:../Switch/core/yt/yt_acl.c **** 
 1890              		.loc 1 215 5 discriminator 5 view .LVU544
 215:../Switch/core/yt/yt_acl.c **** 
 1891              		.loc 1 215 5 discriminator 5 view .LVU545
 215:../Switch/core/yt/yt_acl.c **** 
 1892              		.loc 1 215 5 discriminator 5 view .LVU546
 1893 00a0 0520     		movs	r0, #5
 1894 00a2 C0E7     		b	.L173
 1895              	.LVL254:
 1896              	.L195:
 215:../Switch/core/yt/yt_acl.c **** 
 1897              		.loc 1 215 5 discriminator 3 view .LVU547
 1898              	.LBB39:
 215:../Switch/core/yt/yt_acl.c **** 
 1899              		.loc 1 215 5 discriminator 3 view .LVU548
 1900 00a4 054B     		ldr	r3, .L196+8
 1901 00a6 5A69     		ldr	r2, [r3, #20]
 1902              	.LVL255:
 215:../Switch/core/yt/yt_acl.c **** 
 1903              		.loc 1 215 5 is_stmt 0 discriminator 3 view .LVU549
 1904 00a8 054B     		ldr	r3, .L196+12
 1905 00aa 9968     		ldr	r1, [r3, #8]
 1906              	.LVL256:
 215:../Switch/core/yt/yt_acl.c **** 
 1907              		.loc 1 215 5 discriminator 3 view .LVU550
 1908 00ac 0548     		ldr	r0, .L196+16
 1909 00ae FFF7FEFF 		bl	osal_printf
 1910              	.LVL257:
 1911 00b2 F5E7     		b	.L184
 1912              	.L197:
 1913              		.align	2
 1914              	.L196:
 1915 00b4 00000000 		.word	gpfal_dispatch
 1916 00b8 00000000 		.word	yt_debug_level
 1917 00bc 00000000 		.word	_yt_errmsg
 1918 00c0 00000000 		.word	_yt_prompt_msg
 1919 00c4 00000000 		.word	.LC0
 1920              	.LBE39:
 1921              		.cfi_endproc
 1922              	.LFE11:
 1924              		.section	.text.yt_acl_rule_action_add,"ax",%progbits
 1925              		.align	1
 1926              		.global	yt_acl_rule_action_add
 1927              		.syntax unified
 1928              		.thumb
 1929              		.thumb_func
 1931              	yt_acl_rule_action_add:
 1932              	.LVL258:
 1933              	.LFB12:
 219:../Switch/core/yt/yt_acl.c **** 
 220:../Switch/core/yt/yt_acl.c **** /**
 221:../Switch/core/yt/yt_acl.c ****  * @internal      yt_acl_rule_action_add
 222:../Switch/core/yt/yt_acl.c ****  * @endinternal
 223:../Switch/core/yt/yt_acl.c ****  *
 224:../Switch/core/yt/yt_acl.c ****  * @brief         add acl action before acl rule active
 225:../Switch/core/yt/yt_acl.c ****  * @note          APPLICABLE DEVICES  -Tiger
 226:../Switch/core/yt/yt_acl.c ****  * @param[in]     unit                -unit id
 227:../Switch/core/yt/yt_acl.c ****  * @param[in]     type                  -acl action type,refer to yt_acl_action_type_t define
 228:../Switch/core/yt/yt_acl.c ****  * @param[in]     pAction             -point to acl action settings,must according to action type
 229:../Switch/core/yt/yt_acl.c ****  * @retval        CMM_ERR_OK          -on success
 230:../Switch/core/yt/yt_acl.c ****  * @retval        CMM_ERR_FAIL        -on fail
 231:../Switch/core/yt/yt_acl.c ****  * @retval        CMM_ERR_NOT_INIT        -did not init rule yet
 232:../Switch/core/yt/yt_acl.c ****  * @retval        CMM_ERR_NOT_SUPPORT        -unknown action type
 233:../Switch/core/yt/yt_acl.c ****  */
 234:../Switch/core/yt/yt_acl.c **** yt_ret_t yt_acl_rule_action_add(yt_unit_t unit, yt_acl_action_type_t type, yt_comm_act_t *pAction)
 235:../Switch/core/yt/yt_acl.c **** {
 1934              		.loc 1 235 1 is_stmt 1 view -0
 1935              		.cfi_startproc
 1936              		@ args = 0, pretend = 0, frame = 0
 1937              		@ frame_needed = 0, uses_anonymous_args = 0
 1938              		.loc 1 235 1 is_stmt 0 view .LVU552
 1939 0000 08B5     		push	{r3, lr}
 1940              		.cfi_def_cfa_offset 8
 1941              		.cfi_offset 3, -8
 1942              		.cfi_offset 14, -4
 236:../Switch/core/yt/yt_acl.c ****     CMM_PARAM_CHK((YT_UNIT_NUM <= unit), CMM_ERR_INPUT);
 1943              		.loc 1 236 5 is_stmt 1 view .LVU553
 1944              		.loc 1 236 5 view .LVU554
 1945 0002 78B9     		cbnz	r0, .L211
 1946 0004 8446     		mov	ip, r0
 1947              		.loc 1 236 5 discriminator 2 view .LVU555
 237:../Switch/core/yt/yt_acl.c ****     CMM_PARAM_CHK(NULL == YT_DISPATCH(unit), CMM_ERR_NOT_INIT);
 1948              		.loc 1 237 5 discriminator 2 view .LVU556
 1949              		.loc 1 237 5 discriminator 2 view .LVU557
 1950 0006 2A4B     		ldr	r3, .L221
 1951 0008 53F82030 		ldr	r3, [r3, r0, lsl #2]
 1952 000c C3B1     		cbz	r3, .L212
 1953              		.loc 1 237 5 discriminator 2 view .LVU558
 238:../Switch/core/yt/yt_acl.c ****     CMM_PARAM_CHK((!(YT_DISPATCH(unit)->is_inited)), CMM_ERR_NOT_INIT);
 1954              		.loc 1 238 5 discriminator 2 view .LVU559
 1955              		.loc 1 238 5 discriminator 2 view .LVU560
 1956 000e 1878     		ldrb	r0, [r3]	@ zero_extendqisi2
 1957              	.LVL259:
 1958              		.loc 1 238 5 is_stmt 0 discriminator 2 view .LVU561
 1959 0010 20B3     		cbz	r0, .L213
 1960              		.loc 1 238 5 is_stmt 1 discriminator 2 view .LVU562
 239:../Switch/core/yt/yt_acl.c ****     CMM_PARAM_CHK((NULL == pAction), CMM_ERR_NULL_POINT);
 1961              		.loc 1 239 5 discriminator 2 view .LVU563
 1962              		.loc 1 239 5 discriminator 2 view .LVU564
 1963 0012 002A     		cmp	r2, #0
 1964 0014 30D0     		beq	.L214
 1965              		.loc 1 239 5 discriminator 2 view .LVU565
 240:../Switch/core/yt/yt_acl.c ****     CMM_PARAM_CHK((ACL_ACT_TYPE_MAX < type || ACL_ACT_TYPE_FWD > type), CMM_ERR_INPUT);
 1966              		.loc 1 240 5 discriminator 2 view .LVU566
 1967              		.loc 1 240 5 discriminator 2 view .LVU567
 1968 0016 0A29     		cmp	r1, #10
 1969 0018 3CD8     		bhi	.L215
 1970              		.loc 1 240 5 discriminator 2 view .LVU568
 241:../Switch/core/yt/yt_acl.c **** 
 242:../Switch/core/yt/yt_acl.c ****     return YT_DISPATCH(unit)->acl_rule_action_add(unit, type, pAction);
 1971              		.loc 1 242 5 discriminator 2 view .LVU569
 1972              		.loc 1 242 29 is_stmt 0 discriminator 2 view .LVU570
 1973 001a D3F81831 		ldr	r3, [r3, #280]
 1974              		.loc 1 242 12 discriminator 2 view .LVU571
 1975 001e 6046     		mov	r0, ip
 1976 0020 9847     		blx	r3
 1977              	.LVL260:
 1978              	.L198:
 243:../Switch/core/yt/yt_acl.c **** }
 1979              		.loc 1 243 1 view .LVU572
 1980 0022 08BD     		pop	{r3, pc}
 1981              	.LVL261:
 1982              	.L211:
 236:../Switch/core/yt/yt_acl.c ****     CMM_PARAM_CHK(NULL == YT_DISPATCH(unit), CMM_ERR_NOT_INIT);
 1983              		.loc 1 236 5 is_stmt 1 discriminator 1 view .LVU573
 236:../Switch/core/yt/yt_acl.c ****     CMM_PARAM_CHK(NULL == YT_DISPATCH(unit), CMM_ERR_NOT_INIT);
 1984              		.loc 1 236 5 discriminator 1 view .LVU574
 1985 0024 234B     		ldr	r3, .L221+4
 1986 0026 1B78     		ldrb	r3, [r3]	@ zero_extendqisi2
 1987 0028 012B     		cmp	r3, #1
 1988 002a 01D8     		bhi	.L216
 1989              	.LVL262:
 1990              	.L200:
 236:../Switch/core/yt/yt_acl.c ****     CMM_PARAM_CHK(NULL == YT_DISPATCH(unit), CMM_ERR_NOT_INIT);
 1991              		.loc 1 236 5 discriminator 5 view .LVU575
 236:../Switch/core/yt/yt_acl.c ****     CMM_PARAM_CHK(NULL == YT_DISPATCH(unit), CMM_ERR_NOT_INIT);
 1992              		.loc 1 236 5 discriminator 5 view .LVU576
 236:../Switch/core/yt/yt_acl.c ****     CMM_PARAM_CHK(NULL == YT_DISPATCH(unit), CMM_ERR_NOT_INIT);
 1993              		.loc 1 236 5 discriminator 5 view .LVU577
 1994 002c 0520     		movs	r0, #5
 1995 002e F8E7     		b	.L198
 1996              	.LVL263:
 1997              	.L216:
 236:../Switch/core/yt/yt_acl.c ****     CMM_PARAM_CHK(NULL == YT_DISPATCH(unit), CMM_ERR_NOT_INIT);
 1998              		.loc 1 236 5 discriminator 3 view .LVU578
 1999              	.LBB40:
 236:../Switch/core/yt/yt_acl.c ****     CMM_PARAM_CHK(NULL == YT_DISPATCH(unit), CMM_ERR_NOT_INIT);
 2000              		.loc 1 236 5 discriminator 3 view .LVU579
 2001 0030 214B     		ldr	r3, .L221+8
 2002 0032 5A69     		ldr	r2, [r3, #20]
 2003              	.LVL264:
 236:../Switch/core/yt/yt_acl.c ****     CMM_PARAM_CHK(NULL == YT_DISPATCH(unit), CMM_ERR_NOT_INIT);
 2004              		.loc 1 236 5 is_stmt 0 discriminator 3 view .LVU580
 2005 0034 214B     		ldr	r3, .L221+12
 2006 0036 9968     		ldr	r1, [r3, #8]
 2007              	.LVL265:
 236:../Switch/core/yt/yt_acl.c ****     CMM_PARAM_CHK(NULL == YT_DISPATCH(unit), CMM_ERR_NOT_INIT);
 2008              		.loc 1 236 5 discriminator 3 view .LVU581
 2009 0038 2148     		ldr	r0, .L221+16
 2010              	.LVL266:
 236:../Switch/core/yt/yt_acl.c ****     CMM_PARAM_CHK(NULL == YT_DISPATCH(unit), CMM_ERR_NOT_INIT);
 2011              		.loc 1 236 5 discriminator 3 view .LVU582
 2012 003a FFF7FEFF 		bl	osal_printf
 2013              	.LVL267:
 2014 003e F5E7     		b	.L200
 2015              	.LVL268:
 2016              	.L212:
 236:../Switch/core/yt/yt_acl.c ****     CMM_PARAM_CHK(NULL == YT_DISPATCH(unit), CMM_ERR_NOT_INIT);
 2017              		.loc 1 236 5 discriminator 3 view .LVU583
 2018              	.LBE40:
 237:../Switch/core/yt/yt_acl.c ****     CMM_PARAM_CHK((!(YT_DISPATCH(unit)->is_inited)), CMM_ERR_NOT_INIT);
 2019              		.loc 1 237 5 is_stmt 1 discriminator 1 view .LVU584
 237:../Switch/core/yt/yt_acl.c ****     CMM_PARAM_CHK((!(YT_DISPATCH(unit)->is_inited)), CMM_ERR_NOT_INIT);
 2020              		.loc 1 237 5 discriminator 1 view .LVU585
 2021 0040 1C4B     		ldr	r3, .L221+4
 2022 0042 1B78     		ldrb	r3, [r3]	@ zero_extendqisi2
 2023 0044 012B     		cmp	r3, #1
 2024 0046 01D8     		bhi	.L217
 2025              	.LVL269:
 2026              	.L203:
 237:../Switch/core/yt/yt_acl.c ****     CMM_PARAM_CHK((!(YT_DISPATCH(unit)->is_inited)), CMM_ERR_NOT_INIT);
 2027              		.loc 1 237 5 discriminator 5 view .LVU586
 237:../Switch/core/yt/yt_acl.c ****     CMM_PARAM_CHK((!(YT_DISPATCH(unit)->is_inited)), CMM_ERR_NOT_INIT);
 2028              		.loc 1 237 5 discriminator 5 view .LVU587
 237:../Switch/core/yt/yt_acl.c ****     CMM_PARAM_CHK((!(YT_DISPATCH(unit)->is_inited)), CMM_ERR_NOT_INIT);
 2029              		.loc 1 237 5 discriminator 5 view .LVU588
 2030 0048 0420     		movs	r0, #4
 2031 004a EAE7     		b	.L198
 2032              	.LVL270:
 2033              	.L217:
 237:../Switch/core/yt/yt_acl.c ****     CMM_PARAM_CHK((!(YT_DISPATCH(unit)->is_inited)), CMM_ERR_NOT_INIT);
 2034              		.loc 1 237 5 discriminator 3 view .LVU589
 2035              	.LBB41:
 237:../Switch/core/yt/yt_acl.c ****     CMM_PARAM_CHK((!(YT_DISPATCH(unit)->is_inited)), CMM_ERR_NOT_INIT);
 2036              		.loc 1 237 5 discriminator 3 view .LVU590
 2037 004c 1A4B     		ldr	r3, .L221+8
 2038 004e 1A69     		ldr	r2, [r3, #16]
 2039              	.LVL271:
 237:../Switch/core/yt/yt_acl.c ****     CMM_PARAM_CHK((!(YT_DISPATCH(unit)->is_inited)), CMM_ERR_NOT_INIT);
 2040              		.loc 1 237 5 is_stmt 0 discriminator 3 view .LVU591
 2041 0050 1A4B     		ldr	r3, .L221+12
 2042 0052 9968     		ldr	r1, [r3, #8]
 2043              	.LVL272:
 237:../Switch/core/yt/yt_acl.c ****     CMM_PARAM_CHK((!(YT_DISPATCH(unit)->is_inited)), CMM_ERR_NOT_INIT);
 2044              		.loc 1 237 5 discriminator 3 view .LVU592
 2045 0054 1A48     		ldr	r0, .L221+16
 2046              	.LVL273:
 237:../Switch/core/yt/yt_acl.c ****     CMM_PARAM_CHK((!(YT_DISPATCH(unit)->is_inited)), CMM_ERR_NOT_INIT);
 2047              		.loc 1 237 5 discriminator 3 view .LVU593
 2048 0056 FFF7FEFF 		bl	osal_printf
 2049              	.LVL274:
 2050 005a F5E7     		b	.L203
 2051              	.LVL275:
 2052              	.L213:
 237:../Switch/core/yt/yt_acl.c ****     CMM_PARAM_CHK((!(YT_DISPATCH(unit)->is_inited)), CMM_ERR_NOT_INIT);
 2053              		.loc 1 237 5 discriminator 3 view .LVU594
 2054              	.LBE41:
 238:../Switch/core/yt/yt_acl.c ****     CMM_PARAM_CHK((NULL == pAction), CMM_ERR_NULL_POINT);
 2055              		.loc 1 238 5 is_stmt 1 discriminator 1 view .LVU595
 238:../Switch/core/yt/yt_acl.c ****     CMM_PARAM_CHK((NULL == pAction), CMM_ERR_NULL_POINT);
 2056              		.loc 1 238 5 discriminator 1 view .LVU596
 2057 005c 154B     		ldr	r3, .L221+4
 2058 005e 1B78     		ldrb	r3, [r3]	@ zero_extendqisi2
 2059 0060 012B     		cmp	r3, #1
 2060 0062 01D8     		bhi	.L218
 2061              	.LVL276:
 2062              	.L205:
 238:../Switch/core/yt/yt_acl.c ****     CMM_PARAM_CHK((NULL == pAction), CMM_ERR_NULL_POINT);
 2063              		.loc 1 238 5 discriminator 5 view .LVU597
 238:../Switch/core/yt/yt_acl.c ****     CMM_PARAM_CHK((NULL == pAction), CMM_ERR_NULL_POINT);
 2064              		.loc 1 238 5 discriminator 5 view .LVU598
 238:../Switch/core/yt/yt_acl.c ****     CMM_PARAM_CHK((NULL == pAction), CMM_ERR_NULL_POINT);
 2065              		.loc 1 238 5 discriminator 5 view .LVU599
 2066 0064 0420     		movs	r0, #4
 2067 0066 DCE7     		b	.L198
 2068              	.LVL277:
 2069              	.L218:
 238:../Switch/core/yt/yt_acl.c ****     CMM_PARAM_CHK((NULL == pAction), CMM_ERR_NULL_POINT);
 2070              		.loc 1 238 5 discriminator 3 view .LVU600
 2071              	.LBB42:
 238:../Switch/core/yt/yt_acl.c ****     CMM_PARAM_CHK((NULL == pAction), CMM_ERR_NULL_POINT);
 2072              		.loc 1 238 5 discriminator 3 view .LVU601
 2073 0068 134B     		ldr	r3, .L221+8
 2074 006a 1A69     		ldr	r2, [r3, #16]
 2075              	.LVL278:
 238:../Switch/core/yt/yt_acl.c ****     CMM_PARAM_CHK((NULL == pAction), CMM_ERR_NULL_POINT);
 2076              		.loc 1 238 5 is_stmt 0 discriminator 3 view .LVU602
 2077 006c 134B     		ldr	r3, .L221+12
 2078 006e 9968     		ldr	r1, [r3, #8]
 2079              	.LVL279:
 238:../Switch/core/yt/yt_acl.c ****     CMM_PARAM_CHK((NULL == pAction), CMM_ERR_NULL_POINT);
 2080              		.loc 1 238 5 discriminator 3 view .LVU603
 2081 0070 1348     		ldr	r0, .L221+16
 2082 0072 FFF7FEFF 		bl	osal_printf
 2083              	.LVL280:
 2084 0076 F5E7     		b	.L205
 2085              	.LVL281:
 2086              	.L214:
 238:../Switch/core/yt/yt_acl.c ****     CMM_PARAM_CHK((NULL == pAction), CMM_ERR_NULL_POINT);
 2087              		.loc 1 238 5 discriminator 3 view .LVU604
 2088              	.LBE42:
 239:../Switch/core/yt/yt_acl.c ****     CMM_PARAM_CHK((ACL_ACT_TYPE_MAX < type || ACL_ACT_TYPE_FWD > type), CMM_ERR_INPUT);
 2089              		.loc 1 239 5 is_stmt 1 discriminator 1 view .LVU605
 239:../Switch/core/yt/yt_acl.c ****     CMM_PARAM_CHK((ACL_ACT_TYPE_MAX < type || ACL_ACT_TYPE_FWD > type), CMM_ERR_INPUT);
 2090              		.loc 1 239 5 discriminator 1 view .LVU606
 2091 0078 0E4B     		ldr	r3, .L221+4
 2092 007a 1B78     		ldrb	r3, [r3]	@ zero_extendqisi2
 2093 007c 012B     		cmp	r3, #1
 2094 007e 01D8     		bhi	.L219
 2095              	.LVL282:
 2096              	.L207:
 239:../Switch/core/yt/yt_acl.c ****     CMM_PARAM_CHK((ACL_ACT_TYPE_MAX < type || ACL_ACT_TYPE_FWD > type), CMM_ERR_INPUT);
 2097              		.loc 1 239 5 discriminator 5 view .LVU607
 239:../Switch/core/yt/yt_acl.c ****     CMM_PARAM_CHK((ACL_ACT_TYPE_MAX < type || ACL_ACT_TYPE_FWD > type), CMM_ERR_INPUT);
 2098              		.loc 1 239 5 discriminator 5 view .LVU608
 239:../Switch/core/yt/yt_acl.c ****     CMM_PARAM_CHK((ACL_ACT_TYPE_MAX < type || ACL_ACT_TYPE_FWD > type), CMM_ERR_INPUT);
 2099              		.loc 1 239 5 discriminator 5 view .LVU609
 2100 0080 0220     		movs	r0, #2
 2101 0082 CEE7     		b	.L198
 2102              	.LVL283:
 2103              	.L219:
 239:../Switch/core/yt/yt_acl.c ****     CMM_PARAM_CHK((ACL_ACT_TYPE_MAX < type || ACL_ACT_TYPE_FWD > type), CMM_ERR_INPUT);
 2104              		.loc 1 239 5 discriminator 3 view .LVU610
 2105              	.LBB43:
 239:../Switch/core/yt/yt_acl.c ****     CMM_PARAM_CHK((ACL_ACT_TYPE_MAX < type || ACL_ACT_TYPE_FWD > type), CMM_ERR_INPUT);
 2106              		.loc 1 239 5 discriminator 3 view .LVU611
 2107 0084 0C4B     		ldr	r3, .L221+8
 2108 0086 9A68     		ldr	r2, [r3, #8]
 2109              	.LVL284:
 239:../Switch/core/yt/yt_acl.c ****     CMM_PARAM_CHK((ACL_ACT_TYPE_MAX < type || ACL_ACT_TYPE_FWD > type), CMM_ERR_INPUT);
 2110              		.loc 1 239 5 is_stmt 0 discriminator 3 view .LVU612
 2111 0088 0C4B     		ldr	r3, .L221+12
 2112 008a 9968     		ldr	r1, [r3, #8]
 2113              	.LVL285:
 239:../Switch/core/yt/yt_acl.c ****     CMM_PARAM_CHK((ACL_ACT_TYPE_MAX < type || ACL_ACT_TYPE_FWD > type), CMM_ERR_INPUT);
 2114              		.loc 1 239 5 discriminator 3 view .LVU613
 2115 008c 0C48     		ldr	r0, .L221+16
 2116 008e FFF7FEFF 		bl	osal_printf
 2117              	.LVL286:
 2118 0092 F5E7     		b	.L207
 2119              	.LVL287:
 2120              	.L215:
 239:../Switch/core/yt/yt_acl.c ****     CMM_PARAM_CHK((ACL_ACT_TYPE_MAX < type || ACL_ACT_TYPE_FWD > type), CMM_ERR_INPUT);
 2121              		.loc 1 239 5 discriminator 3 view .LVU614
 2122              	.LBE43:
 240:../Switch/core/yt/yt_acl.c **** 
 2123              		.loc 1 240 5 is_stmt 1 discriminator 1 view .LVU615
 240:../Switch/core/yt/yt_acl.c **** 
 2124              		.loc 1 240 5 discriminator 1 view .LVU616
 2125 0094 074B     		ldr	r3, .L221+4
 2126 0096 1B78     		ldrb	r3, [r3]	@ zero_extendqisi2
 2127 0098 012B     		cmp	r3, #1
 2128 009a 01D8     		bhi	.L220
 2129              	.LVL288:
 2130              	.L209:
 240:../Switch/core/yt/yt_acl.c **** 
 2131              		.loc 1 240 5 discriminator 5 view .LVU617
 240:../Switch/core/yt/yt_acl.c **** 
 2132              		.loc 1 240 5 discriminator 5 view .LVU618
 240:../Switch/core/yt/yt_acl.c **** 
 2133              		.loc 1 240 5 discriminator 5 view .LVU619
 2134 009c 0520     		movs	r0, #5
 2135 009e C0E7     		b	.L198
 2136              	.LVL289:
 2137              	.L220:
 240:../Switch/core/yt/yt_acl.c **** 
 2138              		.loc 1 240 5 discriminator 3 view .LVU620
 2139              	.LBB44:
 240:../Switch/core/yt/yt_acl.c **** 
 2140              		.loc 1 240 5 discriminator 3 view .LVU621
 2141 00a0 054B     		ldr	r3, .L221+8
 2142 00a2 5A69     		ldr	r2, [r3, #20]
 2143              	.LVL290:
 240:../Switch/core/yt/yt_acl.c **** 
 2144              		.loc 1 240 5 is_stmt 0 discriminator 3 view .LVU622
 2145 00a4 054B     		ldr	r3, .L221+12
 2146 00a6 9968     		ldr	r1, [r3, #8]
 2147              	.LVL291:
 240:../Switch/core/yt/yt_acl.c **** 
 2148              		.loc 1 240 5 discriminator 3 view .LVU623
 2149 00a8 0548     		ldr	r0, .L221+16
 2150 00aa FFF7FEFF 		bl	osal_printf
 2151              	.LVL292:
 2152 00ae F5E7     		b	.L209
 2153              	.L222:
 2154              		.align	2
 2155              	.L221:
 2156 00b0 00000000 		.word	gpfal_dispatch
 2157 00b4 00000000 		.word	yt_debug_level
 2158 00b8 00000000 		.word	_yt_errmsg
 2159 00bc 00000000 		.word	_yt_prompt_msg
 2160 00c0 00000000 		.word	.LC0
 2161              	.LBE44:
 2162              		.cfi_endproc
 2163              	.LFE12:
 2165              		.section	.text.yt_acl_rule_create,"ax",%progbits
 2166              		.align	1
 2167              		.global	yt_acl_rule_create
 2168              		.syntax unified
 2169              		.thumb
 2170              		.thumb_func
 2172              	yt_acl_rule_create:
 2173              	.LVL293:
 2174              	.LFB13:
 244:../Switch/core/yt/yt_acl.c **** 
 245:../Switch/core/yt/yt_acl.c **** /**
 246:../Switch/core/yt/yt_acl.c ****  * @internal      yt_acl_rule_create
 247:../Switch/core/yt/yt_acl.c ****  * @endinternal
 248:../Switch/core/yt/yt_acl.c ****  *
 249:../Switch/core/yt/yt_acl.c ****  * @brief         create acl rule after add rule key data
 250:../Switch/core/yt/yt_acl.c ****  * @note          APPLICABLE DEVICES  -Tiger
 251:../Switch/core/yt/yt_acl.c ****  * @param[in]     unit                -unit id
 252:../Switch/core/yt/yt_acl.c ****  * @param[in]     rulePri             -acl rule priority,range 0~511
 253:../Switch/core/yt/yt_acl.c ****  * @param[in]     ruleReverse         -if reverse rule logic
 254:../Switch/core/yt/yt_acl.c ****  * @param[out]    pId                 -acl rule id
 255:../Switch/core/yt/yt_acl.c ****  * @retval        CMM_ERR_OK          -on success
 256:../Switch/core/yt/yt_acl.c ****  * @retval        CMM_ERR_FAIL        -on fail
 257:../Switch/core/yt/yt_acl.c ****  */
 258:../Switch/core/yt/yt_acl.c **** yt_ret_t yt_acl_rule_create(yt_unit_t unit, uint16_t rulePri, yt_bool_t ruleReverse, uint32_t *pId)
 259:../Switch/core/yt/yt_acl.c **** {
 2175              		.loc 1 259 1 is_stmt 1 view -0
 2176              		.cfi_startproc
 2177              		@ args = 0, pretend = 0, frame = 0
 2178              		@ frame_needed = 0, uses_anonymous_args = 0
 2179              		.loc 1 259 1 is_stmt 0 view .LVU625
 2180 0000 10B5     		push	{r4, lr}
 2181              		.cfi_def_cfa_offset 8
 2182              		.cfi_offset 4, -8
 2183              		.cfi_offset 14, -4
 260:../Switch/core/yt/yt_acl.c ****     CMM_PARAM_CHK((YT_UNIT_NUM <= unit), CMM_ERR_INPUT);
 2184              		.loc 1 260 5 is_stmt 1 view .LVU626
 2185              		.loc 1 260 5 view .LVU627
 2186 0002 68B9     		cbnz	r0, .L234
 2187 0004 8446     		mov	ip, r0
 2188              		.loc 1 260 5 discriminator 2 view .LVU628
 261:../Switch/core/yt/yt_acl.c ****     CMM_PARAM_CHK(NULL == YT_DISPATCH(unit), CMM_ERR_NOT_INIT);
 2189              		.loc 1 261 5 discriminator 2 view .LVU629
 2190              		.loc 1 261 5 discriminator 2 view .LVU630
 2191 0006 2248     		ldr	r0, .L242
 2192              	.LVL294:
 2193              		.loc 1 261 5 is_stmt 0 discriminator 2 view .LVU631
 2194 0008 50F82C40 		ldr	r4, [r0, ip, lsl #2]
 2195 000c B4B1     		cbz	r4, .L235
 2196              		.loc 1 261 5 is_stmt 1 discriminator 2 view .LVU632
 262:../Switch/core/yt/yt_acl.c ****     CMM_PARAM_CHK((!(YT_DISPATCH(unit)->is_inited)), CMM_ERR_NOT_INIT);
 2197              		.loc 1 262 5 discriminator 2 view .LVU633
 2198              		.loc 1 262 5 discriminator 2 view .LVU634
 2199 000e 2078     		ldrb	r0, [r4]	@ zero_extendqisi2
 2200 0010 10B3     		cbz	r0, .L236
 2201              		.loc 1 262 5 discriminator 2 view .LVU635
 263:../Switch/core/yt/yt_acl.c ****     CMM_PARAM_CHK((NULL == pId), CMM_ERR_NULL_POINT);
 2202              		.loc 1 263 5 discriminator 2 view .LVU636
 2203              		.loc 1 263 5 discriminator 2 view .LVU637
 2204 0012 002B     		cmp	r3, #0
 2205 0014 2ED0     		beq	.L237
 2206              		.loc 1 263 5 discriminator 2 view .LVU638
 264:../Switch/core/yt/yt_acl.c **** 
 265:../Switch/core/yt/yt_acl.c ****     return YT_DISPATCH(unit)->acl_rule_create(unit, rulePri, ruleReverse, pId);
 2207              		.loc 1 265 5 discriminator 2 view .LVU639
 2208              		.loc 1 265 29 is_stmt 0 discriminator 2 view .LVU640
 2209 0016 D4F81C41 		ldr	r4, [r4, #284]
 2210              		.loc 1 265 12 discriminator 2 view .LVU641
 2211 001a 6046     		mov	r0, ip
 2212 001c A047     		blx	r4
 2213              	.LVL295:
 2214              	.L223:
 266:../Switch/core/yt/yt_acl.c **** }
 2215              		.loc 1 266 1 view .LVU642
 2216 001e 10BD     		pop	{r4, pc}
 2217              	.LVL296:
 2218              	.L234:
 260:../Switch/core/yt/yt_acl.c ****     CMM_PARAM_CHK(NULL == YT_DISPATCH(unit), CMM_ERR_NOT_INIT);
 2219              		.loc 1 260 5 is_stmt 1 discriminator 1 view .LVU643
 260:../Switch/core/yt/yt_acl.c ****     CMM_PARAM_CHK(NULL == YT_DISPATCH(unit), CMM_ERR_NOT_INIT);
 2220              		.loc 1 260 5 discriminator 1 view .LVU644
 2221 0020 1C4B     		ldr	r3, .L242+4
 2222              	.LVL297:
 260:../Switch/core/yt/yt_acl.c ****     CMM_PARAM_CHK(NULL == YT_DISPATCH(unit), CMM_ERR_NOT_INIT);
 2223              		.loc 1 260 5 is_stmt 0 discriminator 1 view .LVU645
 2224 0022 1B78     		ldrb	r3, [r3]	@ zero_extendqisi2
 2225 0024 012B     		cmp	r3, #1
 2226 0026 01D8     		bhi	.L238
 2227              	.LVL298:
 2228              	.L225:
 260:../Switch/core/yt/yt_acl.c ****     CMM_PARAM_CHK(NULL == YT_DISPATCH(unit), CMM_ERR_NOT_INIT);
 2229              		.loc 1 260 5 is_stmt 1 discriminator 5 view .LVU646
 260:../Switch/core/yt/yt_acl.c ****     CMM_PARAM_CHK(NULL == YT_DISPATCH(unit), CMM_ERR_NOT_INIT);
 2230              		.loc 1 260 5 discriminator 5 view .LVU647
 260:../Switch/core/yt/yt_acl.c ****     CMM_PARAM_CHK(NULL == YT_DISPATCH(unit), CMM_ERR_NOT_INIT);
 2231              		.loc 1 260 5 discriminator 5 view .LVU648
 2232 0028 0520     		movs	r0, #5
 2233 002a F8E7     		b	.L223
 2234              	.LVL299:
 2235              	.L238:
 260:../Switch/core/yt/yt_acl.c ****     CMM_PARAM_CHK(NULL == YT_DISPATCH(unit), CMM_ERR_NOT_INIT);
 2236              		.loc 1 260 5 discriminator 3 view .LVU649
 2237              	.LBB45:
 260:../Switch/core/yt/yt_acl.c ****     CMM_PARAM_CHK(NULL == YT_DISPATCH(unit), CMM_ERR_NOT_INIT);
 2238              		.loc 1 260 5 discriminator 3 view .LVU650
 2239 002c 1A4B     		ldr	r3, .L242+8
 2240 002e 5A69     		ldr	r2, [r3, #20]
 2241              	.LVL300:
 260:../Switch/core/yt/yt_acl.c ****     CMM_PARAM_CHK(NULL == YT_DISPATCH(unit), CMM_ERR_NOT_INIT);
 2242              		.loc 1 260 5 is_stmt 0 discriminator 3 view .LVU651
 2243 0030 1A4B     		ldr	r3, .L242+12
 2244 0032 9968     		ldr	r1, [r3, #8]
 2245              	.LVL301:
 260:../Switch/core/yt/yt_acl.c ****     CMM_PARAM_CHK(NULL == YT_DISPATCH(unit), CMM_ERR_NOT_INIT);
 2246              		.loc 1 260 5 discriminator 3 view .LVU652
 2247 0034 1A48     		ldr	r0, .L242+16
 2248              	.LVL302:
 260:../Switch/core/yt/yt_acl.c ****     CMM_PARAM_CHK(NULL == YT_DISPATCH(unit), CMM_ERR_NOT_INIT);
 2249              		.loc 1 260 5 discriminator 3 view .LVU653
 2250 0036 FFF7FEFF 		bl	osal_printf
 2251              	.LVL303:
 2252 003a F5E7     		b	.L225
 2253              	.LVL304:
 2254              	.L235:
 260:../Switch/core/yt/yt_acl.c ****     CMM_PARAM_CHK(NULL == YT_DISPATCH(unit), CMM_ERR_NOT_INIT);
 2255              		.loc 1 260 5 discriminator 3 view .LVU654
 2256              	.LBE45:
 261:../Switch/core/yt/yt_acl.c ****     CMM_PARAM_CHK((!(YT_DISPATCH(unit)->is_inited)), CMM_ERR_NOT_INIT);
 2257              		.loc 1 261 5 is_stmt 1 discriminator 1 view .LVU655
 261:../Switch/core/yt/yt_acl.c ****     CMM_PARAM_CHK((!(YT_DISPATCH(unit)->is_inited)), CMM_ERR_NOT_INIT);
 2258              		.loc 1 261 5 discriminator 1 view .LVU656
 2259 003c 154B     		ldr	r3, .L242+4
 2260              	.LVL305:
 261:../Switch/core/yt/yt_acl.c ****     CMM_PARAM_CHK((!(YT_DISPATCH(unit)->is_inited)), CMM_ERR_NOT_INIT);
 2261              		.loc 1 261 5 is_stmt 0 discriminator 1 view .LVU657
 2262 003e 1B78     		ldrb	r3, [r3]	@ zero_extendqisi2
 2263 0040 012B     		cmp	r3, #1
 2264 0042 01D8     		bhi	.L239
 2265              	.LVL306:
 2266              	.L228:
 261:../Switch/core/yt/yt_acl.c ****     CMM_PARAM_CHK((!(YT_DISPATCH(unit)->is_inited)), CMM_ERR_NOT_INIT);
 2267              		.loc 1 261 5 is_stmt 1 discriminator 5 view .LVU658
 261:../Switch/core/yt/yt_acl.c ****     CMM_PARAM_CHK((!(YT_DISPATCH(unit)->is_inited)), CMM_ERR_NOT_INIT);
 2268              		.loc 1 261 5 discriminator 5 view .LVU659
 261:../Switch/core/yt/yt_acl.c ****     CMM_PARAM_CHK((!(YT_DISPATCH(unit)->is_inited)), CMM_ERR_NOT_INIT);
 2269              		.loc 1 261 5 discriminator 5 view .LVU660
 2270 0044 0420     		movs	r0, #4
 2271 0046 EAE7     		b	.L223
 2272              	.LVL307:
 2273              	.L239:
 261:../Switch/core/yt/yt_acl.c ****     CMM_PARAM_CHK((!(YT_DISPATCH(unit)->is_inited)), CMM_ERR_NOT_INIT);
 2274              		.loc 1 261 5 discriminator 3 view .LVU661
 2275              	.LBB46:
 261:../Switch/core/yt/yt_acl.c ****     CMM_PARAM_CHK((!(YT_DISPATCH(unit)->is_inited)), CMM_ERR_NOT_INIT);
 2276              		.loc 1 261 5 discriminator 3 view .LVU662
 2277 0048 134B     		ldr	r3, .L242+8
 2278 004a 1A69     		ldr	r2, [r3, #16]
 2279              	.LVL308:
 261:../Switch/core/yt/yt_acl.c ****     CMM_PARAM_CHK((!(YT_DISPATCH(unit)->is_inited)), CMM_ERR_NOT_INIT);
 2280              		.loc 1 261 5 is_stmt 0 discriminator 3 view .LVU663
 2281 004c 134B     		ldr	r3, .L242+12
 2282 004e 9968     		ldr	r1, [r3, #8]
 2283              	.LVL309:
 261:../Switch/core/yt/yt_acl.c ****     CMM_PARAM_CHK((!(YT_DISPATCH(unit)->is_inited)), CMM_ERR_NOT_INIT);
 2284              		.loc 1 261 5 discriminator 3 view .LVU664
 2285 0050 1348     		ldr	r0, .L242+16
 2286 0052 FFF7FEFF 		bl	osal_printf
 2287              	.LVL310:
 2288 0056 F5E7     		b	.L228
 2289              	.LVL311:
 2290              	.L236:
 261:../Switch/core/yt/yt_acl.c ****     CMM_PARAM_CHK((!(YT_DISPATCH(unit)->is_inited)), CMM_ERR_NOT_INIT);
 2291              		.loc 1 261 5 discriminator 3 view .LVU665
 2292              	.LBE46:
 262:../Switch/core/yt/yt_acl.c ****     CMM_PARAM_CHK((NULL == pId), CMM_ERR_NULL_POINT);
 2293              		.loc 1 262 5 is_stmt 1 discriminator 1 view .LVU666
 262:../Switch/core/yt/yt_acl.c ****     CMM_PARAM_CHK((NULL == pId), CMM_ERR_NULL_POINT);
 2294              		.loc 1 262 5 discriminator 1 view .LVU667
 2295 0058 0E4B     		ldr	r3, .L242+4
 2296              	.LVL312:
 262:../Switch/core/yt/yt_acl.c ****     CMM_PARAM_CHK((NULL == pId), CMM_ERR_NULL_POINT);
 2297              		.loc 1 262 5 is_stmt 0 discriminator 1 view .LVU668
 2298 005a 1B78     		ldrb	r3, [r3]	@ zero_extendqisi2
 2299 005c 012B     		cmp	r3, #1
 2300 005e 01D8     		bhi	.L240
 2301              	.LVL313:
 2302              	.L230:
 262:../Switch/core/yt/yt_acl.c ****     CMM_PARAM_CHK((NULL == pId), CMM_ERR_NULL_POINT);
 2303              		.loc 1 262 5 is_stmt 1 discriminator 5 view .LVU669
 262:../Switch/core/yt/yt_acl.c ****     CMM_PARAM_CHK((NULL == pId), CMM_ERR_NULL_POINT);
 2304              		.loc 1 262 5 discriminator 5 view .LVU670
 262:../Switch/core/yt/yt_acl.c ****     CMM_PARAM_CHK((NULL == pId), CMM_ERR_NULL_POINT);
 2305              		.loc 1 262 5 discriminator 5 view .LVU671
 2306 0060 0420     		movs	r0, #4
 2307 0062 DCE7     		b	.L223
 2308              	.LVL314:
 2309              	.L240:
 262:../Switch/core/yt/yt_acl.c ****     CMM_PARAM_CHK((NULL == pId), CMM_ERR_NULL_POINT);
 2310              		.loc 1 262 5 discriminator 3 view .LVU672
 2311              	.LBB47:
 262:../Switch/core/yt/yt_acl.c ****     CMM_PARAM_CHK((NULL == pId), CMM_ERR_NULL_POINT);
 2312              		.loc 1 262 5 discriminator 3 view .LVU673
 2313 0064 0C4B     		ldr	r3, .L242+8
 2314 0066 1A69     		ldr	r2, [r3, #16]
 2315              	.LVL315:
 262:../Switch/core/yt/yt_acl.c ****     CMM_PARAM_CHK((NULL == pId), CMM_ERR_NULL_POINT);
 2316              		.loc 1 262 5 is_stmt 0 discriminator 3 view .LVU674
 2317 0068 0C4B     		ldr	r3, .L242+12
 2318 006a 9968     		ldr	r1, [r3, #8]
 2319              	.LVL316:
 262:../Switch/core/yt/yt_acl.c ****     CMM_PARAM_CHK((NULL == pId), CMM_ERR_NULL_POINT);
 2320              		.loc 1 262 5 discriminator 3 view .LVU675
 2321 006c 0C48     		ldr	r0, .L242+16
 2322 006e FFF7FEFF 		bl	osal_printf
 2323              	.LVL317:
 2324 0072 F5E7     		b	.L230
 2325              	.LVL318:
 2326              	.L237:
 262:../Switch/core/yt/yt_acl.c ****     CMM_PARAM_CHK((NULL == pId), CMM_ERR_NULL_POINT);
 2327              		.loc 1 262 5 discriminator 3 view .LVU676
 2328              	.LBE47:
 263:../Switch/core/yt/yt_acl.c **** 
 2329              		.loc 1 263 5 is_stmt 1 discriminator 1 view .LVU677
 263:../Switch/core/yt/yt_acl.c **** 
 2330              		.loc 1 263 5 discriminator 1 view .LVU678
 2331 0074 074B     		ldr	r3, .L242+4
 2332              	.LVL319:
 263:../Switch/core/yt/yt_acl.c **** 
 2333              		.loc 1 263 5 is_stmt 0 discriminator 1 view .LVU679
 2334 0076 1B78     		ldrb	r3, [r3]	@ zero_extendqisi2
 2335 0078 012B     		cmp	r3, #1
 2336 007a 01D8     		bhi	.L241
 2337              	.LVL320:
 2338              	.L232:
 263:../Switch/core/yt/yt_acl.c **** 
 2339              		.loc 1 263 5 is_stmt 1 discriminator 5 view .LVU680
 263:../Switch/core/yt/yt_acl.c **** 
 2340              		.loc 1 263 5 discriminator 5 view .LVU681
 263:../Switch/core/yt/yt_acl.c **** 
 2341              		.loc 1 263 5 discriminator 5 view .LVU682
 2342 007c 0220     		movs	r0, #2
 2343 007e CEE7     		b	.L223
 2344              	.LVL321:
 2345              	.L241:
 263:../Switch/core/yt/yt_acl.c **** 
 2346              		.loc 1 263 5 discriminator 3 view .LVU683
 2347              	.LBB48:
 263:../Switch/core/yt/yt_acl.c **** 
 2348              		.loc 1 263 5 discriminator 3 view .LVU684
 2349 0080 054B     		ldr	r3, .L242+8
 2350 0082 9A68     		ldr	r2, [r3, #8]
 2351              	.LVL322:
 263:../Switch/core/yt/yt_acl.c **** 
 2352              		.loc 1 263 5 is_stmt 0 discriminator 3 view .LVU685
 2353 0084 054B     		ldr	r3, .L242+12
 2354 0086 9968     		ldr	r1, [r3, #8]
 2355              	.LVL323:
 263:../Switch/core/yt/yt_acl.c **** 
 2356              		.loc 1 263 5 discriminator 3 view .LVU686
 2357 0088 0548     		ldr	r0, .L242+16
 2358 008a FFF7FEFF 		bl	osal_printf
 2359              	.LVL324:
 2360 008e F5E7     		b	.L232
 2361              	.L243:
 2362              		.align	2
 2363              	.L242:
 2364 0090 00000000 		.word	gpfal_dispatch
 2365 0094 00000000 		.word	yt_debug_level
 2366 0098 00000000 		.word	_yt_errmsg
 2367 009c 00000000 		.word	_yt_prompt_msg
 2368 00a0 00000000 		.word	.LC0
 2369              	.LBE48:
 2370              		.cfi_endproc
 2371              	.LFE13:
 2373              		.section	.text.yt_acl_rule_active,"ax",%progbits
 2374              		.align	1
 2375              		.global	yt_acl_rule_active
 2376              		.syntax unified
 2377              		.thumb
 2378              		.thumb_func
 2380              	yt_acl_rule_active:
 2381              	.LVL325:
 2382              	.LFB14:
 267:../Switch/core/yt/yt_acl.c **** 
 268:../Switch/core/yt/yt_acl.c **** /**
 269:../Switch/core/yt/yt_acl.c ****  * @internal      yt_acl_rule_active
 270:../Switch/core/yt/yt_acl.c ****  * @endinternal
 271:../Switch/core/yt/yt_acl.c ****  *
 272:../Switch/core/yt/yt_acl.c ****  * @brief         active acl rule and related action
 273:../Switch/core/yt/yt_acl.c ****  * @note          APPLICABLE DEVICES  -Tiger
 274:../Switch/core/yt/yt_acl.c ****  * @param[in]     unit                -unit id
 275:../Switch/core/yt/yt_acl.c ****  * @param[in]     id                  -acl rule id created by yt_acl_rule_create
 276:../Switch/core/yt/yt_acl.c ****  * @retval        CMM_ERR_OK          -on success
 277:../Switch/core/yt/yt_acl.c ****  * @retval        CMM_ERR_FAIL        -on fail
 278:../Switch/core/yt/yt_acl.c ****  */
 279:../Switch/core/yt/yt_acl.c **** yt_ret_t yt_acl_rule_active(yt_unit_t unit, uint32_t id)
 280:../Switch/core/yt/yt_acl.c **** {
 2383              		.loc 1 280 1 is_stmt 1 view -0
 2384              		.cfi_startproc
 2385              		@ args = 0, pretend = 0, frame = 0
 2386              		@ frame_needed = 0, uses_anonymous_args = 0
 2387              		.loc 1 280 1 is_stmt 0 view .LVU688
 2388 0000 08B5     		push	{r3, lr}
 2389              		.cfi_def_cfa_offset 8
 2390              		.cfi_offset 3, -8
 2391              		.cfi_offset 14, -4
 281:../Switch/core/yt/yt_acl.c ****     CMM_PARAM_CHK((YT_UNIT_NUM <= unit), CMM_ERR_INPUT);
 2392              		.loc 1 281 5 is_stmt 1 view .LVU689
 2393              		.loc 1 281 5 view .LVU690
 2394 0002 58B9     		cbnz	r0, .L253
 2395 0004 0246     		mov	r2, r0
 2396              		.loc 1 281 5 discriminator 2 view .LVU691
 282:../Switch/core/yt/yt_acl.c ****     CMM_PARAM_CHK(NULL == YT_DISPATCH(unit), CMM_ERR_NOT_INIT);
 2397              		.loc 1 282 5 discriminator 2 view .LVU692
 2398              		.loc 1 282 5 discriminator 2 view .LVU693
 2399 0006 1A4B     		ldr	r3, .L259
 2400 0008 53F82030 		ldr	r3, [r3, r0, lsl #2]
 2401 000c A3B1     		cbz	r3, .L254
 2402              		.loc 1 282 5 discriminator 2 view .LVU694
 283:../Switch/core/yt/yt_acl.c ****     CMM_PARAM_CHK((!(YT_DISPATCH(unit)->is_inited)), CMM_ERR_NOT_INIT);
 2403              		.loc 1 283 5 discriminator 2 view .LVU695
 2404              		.loc 1 283 5 discriminator 2 view .LVU696
 2405 000e 1878     		ldrb	r0, [r3]	@ zero_extendqisi2
 2406              	.LVL326:
 2407              		.loc 1 283 5 is_stmt 0 discriminator 2 view .LVU697
 2408 0010 00B3     		cbz	r0, .L255
 2409              		.loc 1 283 5 is_stmt 1 discriminator 2 view .LVU698
 284:../Switch/core/yt/yt_acl.c **** 
 285:../Switch/core/yt/yt_acl.c ****     return YT_DISPATCH(unit)->acl_rule_active(unit, id);
 2410              		.loc 1 285 5 discriminator 2 view .LVU699
 2411              		.loc 1 285 29 is_stmt 0 discriminator 2 view .LVU700
 2412 0012 D3F82031 		ldr	r3, [r3, #288]
 2413              		.loc 1 285 12 discriminator 2 view .LVU701
 2414 0016 1046     		mov	r0, r2
 2415 0018 9847     		blx	r3
 2416              	.LVL327:
 2417              	.L244:
 286:../Switch/core/yt/yt_acl.c **** }
 2418              		.loc 1 286 1 view .LVU702
 2419 001a 08BD     		pop	{r3, pc}
 2420              	.LVL328:
 2421              	.L253:
 281:../Switch/core/yt/yt_acl.c ****     CMM_PARAM_CHK(NULL == YT_DISPATCH(unit), CMM_ERR_NOT_INIT);
 2422              		.loc 1 281 5 is_stmt 1 discriminator 1 view .LVU703
 281:../Switch/core/yt/yt_acl.c ****     CMM_PARAM_CHK(NULL == YT_DISPATCH(unit), CMM_ERR_NOT_INIT);
 2423              		.loc 1 281 5 discriminator 1 view .LVU704
 2424 001c 154B     		ldr	r3, .L259+4
 2425 001e 1B78     		ldrb	r3, [r3]	@ zero_extendqisi2
 2426 0020 012B     		cmp	r3, #1
 2427 0022 01D8     		bhi	.L256
 2428              	.LVL329:
 2429              	.L246:
 281:../Switch/core/yt/yt_acl.c ****     CMM_PARAM_CHK(NULL == YT_DISPATCH(unit), CMM_ERR_NOT_INIT);
 2430              		.loc 1 281 5 discriminator 5 view .LVU705
 281:../Switch/core/yt/yt_acl.c ****     CMM_PARAM_CHK(NULL == YT_DISPATCH(unit), CMM_ERR_NOT_INIT);
 2431              		.loc 1 281 5 discriminator 5 view .LVU706
 281:../Switch/core/yt/yt_acl.c ****     CMM_PARAM_CHK(NULL == YT_DISPATCH(unit), CMM_ERR_NOT_INIT);
 2432              		.loc 1 281 5 discriminator 5 view .LVU707
 2433 0024 0520     		movs	r0, #5
 2434 0026 F8E7     		b	.L244
 2435              	.LVL330:
 2436              	.L256:
 281:../Switch/core/yt/yt_acl.c ****     CMM_PARAM_CHK(NULL == YT_DISPATCH(unit), CMM_ERR_NOT_INIT);
 2437              		.loc 1 281 5 discriminator 3 view .LVU708
 2438              	.LBB49:
 281:../Switch/core/yt/yt_acl.c ****     CMM_PARAM_CHK(NULL == YT_DISPATCH(unit), CMM_ERR_NOT_INIT);
 2439              		.loc 1 281 5 discriminator 3 view .LVU709
 2440 0028 134B     		ldr	r3, .L259+8
 2441 002a 5A69     		ldr	r2, [r3, #20]
 2442 002c 134B     		ldr	r3, .L259+12
 2443 002e 9968     		ldr	r1, [r3, #8]
 2444              	.LVL331:
 281:../Switch/core/yt/yt_acl.c ****     CMM_PARAM_CHK(NULL == YT_DISPATCH(unit), CMM_ERR_NOT_INIT);
 2445              		.loc 1 281 5 is_stmt 0 discriminator 3 view .LVU710
 2446 0030 1348     		ldr	r0, .L259+16
 2447              	.LVL332:
 281:../Switch/core/yt/yt_acl.c ****     CMM_PARAM_CHK(NULL == YT_DISPATCH(unit), CMM_ERR_NOT_INIT);
 2448              		.loc 1 281 5 discriminator 3 view .LVU711
 2449 0032 FFF7FEFF 		bl	osal_printf
 2450              	.LVL333:
 2451 0036 F5E7     		b	.L246
 2452              	.LVL334:
 2453              	.L254:
 281:../Switch/core/yt/yt_acl.c ****     CMM_PARAM_CHK(NULL == YT_DISPATCH(unit), CMM_ERR_NOT_INIT);
 2454              		.loc 1 281 5 discriminator 3 view .LVU712
 2455              	.LBE49:
 282:../Switch/core/yt/yt_acl.c ****     CMM_PARAM_CHK((!(YT_DISPATCH(unit)->is_inited)), CMM_ERR_NOT_INIT);
 2456              		.loc 1 282 5 is_stmt 1 discriminator 1 view .LVU713
 282:../Switch/core/yt/yt_acl.c ****     CMM_PARAM_CHK((!(YT_DISPATCH(unit)->is_inited)), CMM_ERR_NOT_INIT);
 2457              		.loc 1 282 5 discriminator 1 view .LVU714
 2458 0038 0E4B     		ldr	r3, .L259+4
 2459 003a 1B78     		ldrb	r3, [r3]	@ zero_extendqisi2
 2460 003c 012B     		cmp	r3, #1
 2461 003e 01D8     		bhi	.L257
 2462              	.LVL335:
 2463              	.L249:
 282:../Switch/core/yt/yt_acl.c ****     CMM_PARAM_CHK((!(YT_DISPATCH(unit)->is_inited)), CMM_ERR_NOT_INIT);
 2464              		.loc 1 282 5 discriminator 5 view .LVU715
 282:../Switch/core/yt/yt_acl.c ****     CMM_PARAM_CHK((!(YT_DISPATCH(unit)->is_inited)), CMM_ERR_NOT_INIT);
 2465              		.loc 1 282 5 discriminator 5 view .LVU716
 282:../Switch/core/yt/yt_acl.c ****     CMM_PARAM_CHK((!(YT_DISPATCH(unit)->is_inited)), CMM_ERR_NOT_INIT);
 2466              		.loc 1 282 5 discriminator 5 view .LVU717
 2467 0040 0420     		movs	r0, #4
 2468 0042 EAE7     		b	.L244
 2469              	.LVL336:
 2470              	.L257:
 282:../Switch/core/yt/yt_acl.c ****     CMM_PARAM_CHK((!(YT_DISPATCH(unit)->is_inited)), CMM_ERR_NOT_INIT);
 2471              		.loc 1 282 5 discriminator 3 view .LVU718
 2472              	.LBB50:
 282:../Switch/core/yt/yt_acl.c ****     CMM_PARAM_CHK((!(YT_DISPATCH(unit)->is_inited)), CMM_ERR_NOT_INIT);
 2473              		.loc 1 282 5 discriminator 3 view .LVU719
 2474 0044 0C4B     		ldr	r3, .L259+8
 2475 0046 1A69     		ldr	r2, [r3, #16]
 2476 0048 0C4B     		ldr	r3, .L259+12
 2477 004a 9968     		ldr	r1, [r3, #8]
 2478              	.LVL337:
 282:../Switch/core/yt/yt_acl.c ****     CMM_PARAM_CHK((!(YT_DISPATCH(unit)->is_inited)), CMM_ERR_NOT_INIT);
 2479              		.loc 1 282 5 is_stmt 0 discriminator 3 view .LVU720
 2480 004c 0C48     		ldr	r0, .L259+16
 2481              	.LVL338:
 282:../Switch/core/yt/yt_acl.c ****     CMM_PARAM_CHK((!(YT_DISPATCH(unit)->is_inited)), CMM_ERR_NOT_INIT);
 2482              		.loc 1 282 5 discriminator 3 view .LVU721
 2483 004e FFF7FEFF 		bl	osal_printf
 2484              	.LVL339:
 2485 0052 F5E7     		b	.L249
 2486              	.LVL340:
 2487              	.L255:
 282:../Switch/core/yt/yt_acl.c ****     CMM_PARAM_CHK((!(YT_DISPATCH(unit)->is_inited)), CMM_ERR_NOT_INIT);
 2488              		.loc 1 282 5 discriminator 3 view .LVU722
 2489              	.LBE50:
 283:../Switch/core/yt/yt_acl.c **** 
 2490              		.loc 1 283 5 is_stmt 1 discriminator 1 view .LVU723
 283:../Switch/core/yt/yt_acl.c **** 
 2491              		.loc 1 283 5 discriminator 1 view .LVU724
 2492 0054 074B     		ldr	r3, .L259+4
 2493 0056 1B78     		ldrb	r3, [r3]	@ zero_extendqisi2
 2494 0058 012B     		cmp	r3, #1
 2495 005a 01D8     		bhi	.L258
 2496              	.LVL341:
 2497              	.L251:
 283:../Switch/core/yt/yt_acl.c **** 
 2498              		.loc 1 283 5 discriminator 5 view .LVU725
 283:../Switch/core/yt/yt_acl.c **** 
 2499              		.loc 1 283 5 discriminator 5 view .LVU726
 283:../Switch/core/yt/yt_acl.c **** 
 2500              		.loc 1 283 5 discriminator 5 view .LVU727
 2501 005c 0420     		movs	r0, #4
 2502 005e DCE7     		b	.L244
 2503              	.LVL342:
 2504              	.L258:
 283:../Switch/core/yt/yt_acl.c **** 
 2505              		.loc 1 283 5 discriminator 3 view .LVU728
 2506              	.LBB51:
 283:../Switch/core/yt/yt_acl.c **** 
 2507              		.loc 1 283 5 discriminator 3 view .LVU729
 2508 0060 054B     		ldr	r3, .L259+8
 2509 0062 1A69     		ldr	r2, [r3, #16]
 2510 0064 054B     		ldr	r3, .L259+12
 2511 0066 9968     		ldr	r1, [r3, #8]
 2512              	.LVL343:
 283:../Switch/core/yt/yt_acl.c **** 
 2513              		.loc 1 283 5 is_stmt 0 discriminator 3 view .LVU730
 2514 0068 0548     		ldr	r0, .L259+16
 2515 006a FFF7FEFF 		bl	osal_printf
 2516              	.LVL344:
 2517 006e F5E7     		b	.L251
 2518              	.L260:
 2519              		.align	2
 2520              	.L259:
 2521 0070 00000000 		.word	gpfal_dispatch
 2522 0074 00000000 		.word	yt_debug_level
 2523 0078 00000000 		.word	_yt_errmsg
 2524 007c 00000000 		.word	_yt_prompt_msg
 2525 0080 00000000 		.word	.LC0
 2526              	.LBE51:
 2527              		.cfi_endproc
 2528              	.LFE14:
 2530              		.section	.text.yt_acl_rule_del,"ax",%progbits
 2531              		.align	1
 2532              		.global	yt_acl_rule_del
 2533              		.syntax unified
 2534              		.thumb
 2535              		.thumb_func
 2537              	yt_acl_rule_del:
 2538              	.LVL345:
 2539              	.LFB15:
 287:../Switch/core/yt/yt_acl.c **** 
 288:../Switch/core/yt/yt_acl.c **** /**
 289:../Switch/core/yt/yt_acl.c ****  * @internal      yt_acl_rule_del
 290:../Switch/core/yt/yt_acl.c ****  * @endinternal
 291:../Switch/core/yt/yt_acl.c ****  *
 292:../Switch/core/yt/yt_acl.c ****  * @brief         Description
 293:../Switch/core/yt/yt_acl.c ****  * @note          APPLICABLE DEVICES  -Tiger
 294:../Switch/core/yt/yt_acl.c ****  * @param[in]     unit                -unit id
 295:../Switch/core/yt/yt_acl.c ****  * @param[in]     id                  -acl rule id created by yt_acl_rule_create
 296:../Switch/core/yt/yt_acl.c ****  * @retval        CMM_ERR_OK          -on success
 297:../Switch/core/yt/yt_acl.c ****  * @retval        CMM_ERR_FAIL        -on fail
 298:../Switch/core/yt/yt_acl.c ****  */
 299:../Switch/core/yt/yt_acl.c **** yt_ret_t yt_acl_rule_del(yt_unit_t unit, uint32_t id)
 300:../Switch/core/yt/yt_acl.c **** {
 2540              		.loc 1 300 1 is_stmt 1 view -0
 2541              		.cfi_startproc
 2542              		@ args = 0, pretend = 0, frame = 0
 2543              		@ frame_needed = 0, uses_anonymous_args = 0
 2544              		.loc 1 300 1 is_stmt 0 view .LVU732
 2545 0000 08B5     		push	{r3, lr}
 2546              		.cfi_def_cfa_offset 8
 2547              		.cfi_offset 3, -8
 2548              		.cfi_offset 14, -4
 301:../Switch/core/yt/yt_acl.c ****     CMM_PARAM_CHK((YT_UNIT_NUM <= unit), CMM_ERR_INPUT);
 2549              		.loc 1 301 5 is_stmt 1 view .LVU733
 2550              		.loc 1 301 5 view .LVU734
 2551 0002 58B9     		cbnz	r0, .L270
 2552 0004 0246     		mov	r2, r0
 2553              		.loc 1 301 5 discriminator 2 view .LVU735
 302:../Switch/core/yt/yt_acl.c ****     CMM_PARAM_CHK(NULL == YT_DISPATCH(unit), CMM_ERR_NOT_INIT);
 2554              		.loc 1 302 5 discriminator 2 view .LVU736
 2555              		.loc 1 302 5 discriminator 2 view .LVU737
 2556 0006 1A4B     		ldr	r3, .L276
 2557 0008 53F82030 		ldr	r3, [r3, r0, lsl #2]
 2558 000c A3B1     		cbz	r3, .L271
 2559              		.loc 1 302 5 discriminator 2 view .LVU738
 303:../Switch/core/yt/yt_acl.c ****     CMM_PARAM_CHK((!(YT_DISPATCH(unit)->is_inited)), CMM_ERR_NOT_INIT);
 2560              		.loc 1 303 5 discriminator 2 view .LVU739
 2561              		.loc 1 303 5 discriminator 2 view .LVU740
 2562 000e 1878     		ldrb	r0, [r3]	@ zero_extendqisi2
 2563              	.LVL346:
 2564              		.loc 1 303 5 is_stmt 0 discriminator 2 view .LVU741
 2565 0010 00B3     		cbz	r0, .L272
 2566              		.loc 1 303 5 is_stmt 1 discriminator 2 view .LVU742
 304:../Switch/core/yt/yt_acl.c **** 
 305:../Switch/core/yt/yt_acl.c ****     return YT_DISPATCH(unit)->acl_rule_del(unit, id);
 2567              		.loc 1 305 5 discriminator 2 view .LVU743
 2568              		.loc 1 305 29 is_stmt 0 discriminator 2 view .LVU744
 2569 0012 D3F82431 		ldr	r3, [r3, #292]
 2570              		.loc 1 305 12 discriminator 2 view .LVU745
 2571 0016 1046     		mov	r0, r2
 2572 0018 9847     		blx	r3
 2573              	.LVL347:
 2574              	.L261:
 306:../Switch/core/yt/yt_acl.c **** }
 2575              		.loc 1 306 1 view .LVU746
 2576 001a 08BD     		pop	{r3, pc}
 2577              	.LVL348:
 2578              	.L270:
 301:../Switch/core/yt/yt_acl.c ****     CMM_PARAM_CHK(NULL == YT_DISPATCH(unit), CMM_ERR_NOT_INIT);
 2579              		.loc 1 301 5 is_stmt 1 discriminator 1 view .LVU747
 301:../Switch/core/yt/yt_acl.c ****     CMM_PARAM_CHK(NULL == YT_DISPATCH(unit), CMM_ERR_NOT_INIT);
 2580              		.loc 1 301 5 discriminator 1 view .LVU748
 2581 001c 154B     		ldr	r3, .L276+4
 2582 001e 1B78     		ldrb	r3, [r3]	@ zero_extendqisi2
 2583 0020 012B     		cmp	r3, #1
 2584 0022 01D8     		bhi	.L273
 2585              	.LVL349:
 2586              	.L263:
 301:../Switch/core/yt/yt_acl.c ****     CMM_PARAM_CHK(NULL == YT_DISPATCH(unit), CMM_ERR_NOT_INIT);
 2587              		.loc 1 301 5 discriminator 5 view .LVU749
 301:../Switch/core/yt/yt_acl.c ****     CMM_PARAM_CHK(NULL == YT_DISPATCH(unit), CMM_ERR_NOT_INIT);
 2588              		.loc 1 301 5 discriminator 5 view .LVU750
 301:../Switch/core/yt/yt_acl.c ****     CMM_PARAM_CHK(NULL == YT_DISPATCH(unit), CMM_ERR_NOT_INIT);
 2589              		.loc 1 301 5 discriminator 5 view .LVU751
 2590 0024 0520     		movs	r0, #5
 2591 0026 F8E7     		b	.L261
 2592              	.LVL350:
 2593              	.L273:
 301:../Switch/core/yt/yt_acl.c ****     CMM_PARAM_CHK(NULL == YT_DISPATCH(unit), CMM_ERR_NOT_INIT);
 2594              		.loc 1 301 5 discriminator 3 view .LVU752
 2595              	.LBB52:
 301:../Switch/core/yt/yt_acl.c ****     CMM_PARAM_CHK(NULL == YT_DISPATCH(unit), CMM_ERR_NOT_INIT);
 2596              		.loc 1 301 5 discriminator 3 view .LVU753
 2597 0028 134B     		ldr	r3, .L276+8
 2598 002a 5A69     		ldr	r2, [r3, #20]
 2599 002c 134B     		ldr	r3, .L276+12
 2600 002e 9968     		ldr	r1, [r3, #8]
 2601              	.LVL351:
 301:../Switch/core/yt/yt_acl.c ****     CMM_PARAM_CHK(NULL == YT_DISPATCH(unit), CMM_ERR_NOT_INIT);
 2602              		.loc 1 301 5 is_stmt 0 discriminator 3 view .LVU754
 2603 0030 1348     		ldr	r0, .L276+16
 2604              	.LVL352:
 301:../Switch/core/yt/yt_acl.c ****     CMM_PARAM_CHK(NULL == YT_DISPATCH(unit), CMM_ERR_NOT_INIT);
 2605              		.loc 1 301 5 discriminator 3 view .LVU755
 2606 0032 FFF7FEFF 		bl	osal_printf
 2607              	.LVL353:
 2608 0036 F5E7     		b	.L263
 2609              	.LVL354:
 2610              	.L271:
 301:../Switch/core/yt/yt_acl.c ****     CMM_PARAM_CHK(NULL == YT_DISPATCH(unit), CMM_ERR_NOT_INIT);
 2611              		.loc 1 301 5 discriminator 3 view .LVU756
 2612              	.LBE52:
 302:../Switch/core/yt/yt_acl.c ****     CMM_PARAM_CHK((!(YT_DISPATCH(unit)->is_inited)), CMM_ERR_NOT_INIT);
 2613              		.loc 1 302 5 is_stmt 1 discriminator 1 view .LVU757
 302:../Switch/core/yt/yt_acl.c ****     CMM_PARAM_CHK((!(YT_DISPATCH(unit)->is_inited)), CMM_ERR_NOT_INIT);
 2614              		.loc 1 302 5 discriminator 1 view .LVU758
 2615 0038 0E4B     		ldr	r3, .L276+4
 2616 003a 1B78     		ldrb	r3, [r3]	@ zero_extendqisi2
 2617 003c 012B     		cmp	r3, #1
 2618 003e 01D8     		bhi	.L274
 2619              	.LVL355:
 2620              	.L266:
 302:../Switch/core/yt/yt_acl.c ****     CMM_PARAM_CHK((!(YT_DISPATCH(unit)->is_inited)), CMM_ERR_NOT_INIT);
 2621              		.loc 1 302 5 discriminator 5 view .LVU759
 302:../Switch/core/yt/yt_acl.c ****     CMM_PARAM_CHK((!(YT_DISPATCH(unit)->is_inited)), CMM_ERR_NOT_INIT);
 2622              		.loc 1 302 5 discriminator 5 view .LVU760
 302:../Switch/core/yt/yt_acl.c ****     CMM_PARAM_CHK((!(YT_DISPATCH(unit)->is_inited)), CMM_ERR_NOT_INIT);
 2623              		.loc 1 302 5 discriminator 5 view .LVU761
 2624 0040 0420     		movs	r0, #4
 2625 0042 EAE7     		b	.L261
 2626              	.LVL356:
 2627              	.L274:
 302:../Switch/core/yt/yt_acl.c ****     CMM_PARAM_CHK((!(YT_DISPATCH(unit)->is_inited)), CMM_ERR_NOT_INIT);
 2628              		.loc 1 302 5 discriminator 3 view .LVU762
 2629              	.LBB53:
 302:../Switch/core/yt/yt_acl.c ****     CMM_PARAM_CHK((!(YT_DISPATCH(unit)->is_inited)), CMM_ERR_NOT_INIT);
 2630              		.loc 1 302 5 discriminator 3 view .LVU763
 2631 0044 0C4B     		ldr	r3, .L276+8
 2632 0046 1A69     		ldr	r2, [r3, #16]
 2633 0048 0C4B     		ldr	r3, .L276+12
 2634 004a 9968     		ldr	r1, [r3, #8]
 2635              	.LVL357:
 302:../Switch/core/yt/yt_acl.c ****     CMM_PARAM_CHK((!(YT_DISPATCH(unit)->is_inited)), CMM_ERR_NOT_INIT);
 2636              		.loc 1 302 5 is_stmt 0 discriminator 3 view .LVU764
 2637 004c 0C48     		ldr	r0, .L276+16
 2638              	.LVL358:
 302:../Switch/core/yt/yt_acl.c ****     CMM_PARAM_CHK((!(YT_DISPATCH(unit)->is_inited)), CMM_ERR_NOT_INIT);
 2639              		.loc 1 302 5 discriminator 3 view .LVU765
 2640 004e FFF7FEFF 		bl	osal_printf
 2641              	.LVL359:
 2642 0052 F5E7     		b	.L266
 2643              	.LVL360:
 2644              	.L272:
 302:../Switch/core/yt/yt_acl.c ****     CMM_PARAM_CHK((!(YT_DISPATCH(unit)->is_inited)), CMM_ERR_NOT_INIT);
 2645              		.loc 1 302 5 discriminator 3 view .LVU766
 2646              	.LBE53:
 303:../Switch/core/yt/yt_acl.c **** 
 2647              		.loc 1 303 5 is_stmt 1 discriminator 1 view .LVU767
 303:../Switch/core/yt/yt_acl.c **** 
 2648              		.loc 1 303 5 discriminator 1 view .LVU768
 2649 0054 074B     		ldr	r3, .L276+4
 2650 0056 1B78     		ldrb	r3, [r3]	@ zero_extendqisi2
 2651 0058 012B     		cmp	r3, #1
 2652 005a 01D8     		bhi	.L275
 2653              	.LVL361:
 2654              	.L268:
 303:../Switch/core/yt/yt_acl.c **** 
 2655              		.loc 1 303 5 discriminator 5 view .LVU769
 303:../Switch/core/yt/yt_acl.c **** 
 2656              		.loc 1 303 5 discriminator 5 view .LVU770
 303:../Switch/core/yt/yt_acl.c **** 
 2657              		.loc 1 303 5 discriminator 5 view .LVU771
 2658 005c 0420     		movs	r0, #4
 2659 005e DCE7     		b	.L261
 2660              	.LVL362:
 2661              	.L275:
 303:../Switch/core/yt/yt_acl.c **** 
 2662              		.loc 1 303 5 discriminator 3 view .LVU772
 2663              	.LBB54:
 303:../Switch/core/yt/yt_acl.c **** 
 2664              		.loc 1 303 5 discriminator 3 view .LVU773
 2665 0060 054B     		ldr	r3, .L276+8
 2666 0062 1A69     		ldr	r2, [r3, #16]
 2667 0064 054B     		ldr	r3, .L276+12
 2668 0066 9968     		ldr	r1, [r3, #8]
 2669              	.LVL363:
 303:../Switch/core/yt/yt_acl.c **** 
 2670              		.loc 1 303 5 is_stmt 0 discriminator 3 view .LVU774
 2671 0068 0548     		ldr	r0, .L276+16
 2672 006a FFF7FEFF 		bl	osal_printf
 2673              	.LVL364:
 2674 006e F5E7     		b	.L268
 2675              	.L277:
 2676              		.align	2
 2677              	.L276:
 2678 0070 00000000 		.word	gpfal_dispatch
 2679 0074 00000000 		.word	yt_debug_level
 2680 0078 00000000 		.word	_yt_errmsg
 2681 007c 00000000 		.word	_yt_prompt_msg
 2682 0080 00000000 		.word	.LC0
 2683              	.LBE54:
 2684              		.cfi_endproc
 2685              	.LFE15:
 2687              		.text
 2688              	.Letext0:
 2689              		.file 2 "C:\\Users\\Dmitriy\\Desktop\\GD32F10x\\Switch\\common\\include/yt_types.h"
 2690              		.file 3 "C:\\Users\\Dmitriy\\Desktop\\GD32F10x\\Switch\\common\\include/yt_error.h"
 2691              		.file 4 "C:\\Users\\Dmitriy\\Desktop\\GD32F10x\\Switch\\core\\fal\\chipdef/chipdef.h"
 2692              		.file 5 "C:\\Users\\Dmitriy\\Desktop\\GD32F10x\\Switch\\core\\cal/cal_bprofile.h"
 2693              		.file 6 "C:\\Users\\Dmitriy\\Desktop\\GD32F10x\\Switch\\core\\cal/cal_mgm.h"
 2694              		.file 7 "C:\\Users\\Dmitriy\\Desktop\\GD32F10x\\Switch\\include/yt_cmm.h"
 2695              		.file 8 "C:\\Users\\Dmitriy\\Desktop\\GD32F10x\\Switch\\include/yt_vlan.h"
 2696              		.file 9 "C:\\Users\\Dmitriy\\Desktop\\GD32F10x\\Switch\\include/yt_vlan_translate.h"
 2697              		.file 10 "C:\\Users\\Dmitriy\\Desktop\\GD32F10x\\Switch\\include/yt_acl.h"
 2698              		.file 11 "C:\\Users\\Dmitriy\\Desktop\\GD32F10x\\Switch\\include/yt_qos.h"
 2699              		.file 12 "C:\\Users\\Dmitriy\\Desktop\\GD32F10x\\Switch\\include/yt_rate.h"
 2700              		.file 13 "C:\\Users\\Dmitriy\\Desktop\\GD32F10x\\Switch\\include/yt_dos.h"
 2701              		.file 14 "C:\\Users\\Dmitriy\\Desktop\\GD32F10x\\Switch\\include/yt_nic.h"
 2702              		.file 15 "C:\\Users\\Dmitriy\\Desktop\\GD32F10x\\Switch\\include/yt_stp.h"
 2703              		.file 16 "C:\\Users\\Dmitriy\\Desktop\\GD32F10x\\Switch\\include/yt_l2.h"
 2704              		.file 17 "C:\\Users\\Dmitriy\\Desktop\\GD32F10x\\Switch\\include/yt_loopdetect.h"
 2705              		.file 18 "C:\\Users\\Dmitriy\\Desktop\\GD32F10x\\Switch\\include/yt_multicast.h"
 2706              		.file 19 "C:\\Users\\Dmitriy\\Desktop\\GD32F10x\\Switch\\include/yt_rma.h"
 2707              		.file 20 "C:\\Users\\Dmitriy\\Desktop\\GD32F10x\\Switch\\include/yt_oam.h"
 2708              		.file 21 "C:\\Users\\Dmitriy\\Desktop\\GD32F10x\\Switch\\include/yt_storm_ctrl.h"
 2709              		.file 22 "C:\\Users\\Dmitriy\\Desktop\\GD32F10x\\Switch\\include/yt_port.h"
 2710              		.file 23 "C:\\Users\\Dmitriy\\Desktop\\GD32F10x\\Switch\\include/yt_dot1x.h"
 2711              		.file 24 "C:\\Users\\Dmitriy\\Desktop\\GD32F10x\\Switch\\include/yt_ctrlpkt.h"
 2712              		.file 25 "C:\\Users\\Dmitriy\\Desktop\\GD32F10x\\Switch\\include/yt_stat.h"
 2713              		.file 26 "C:\\Users\\Dmitriy\\Desktop\\GD32F10x\\Switch\\include/yt_interrupt.h"
 2714              		.file 27 "C:\\Users\\Dmitriy\\Desktop\\GD32F10x\\Switch\\include/yt_led.h"
 2715              		.file 28 "C:\\Users\\Dmitriy\\Desktop\\GD32F10x\\Switch\\include/yt_sys.h"
 2716              		.file 29 "C:\\Users\\Dmitriy\\Desktop\\GD32F10x\\Switch\\include/yt_debug.h"
 2717              		.file 30 "C:\\Users\\Dmitriy\\Desktop\\GD32F10x\\Switch\\core\\fal/fal_dispatch.h"