   1              		.cpu cortex-m3
   2              		.arch armv7-m
   3              		.fpu softvfp
   4              		.eabi_attribute 20, 1
   5              		.eabi_attribute 21, 1
   6              		.eabi_attribute 23, 3
   7              		.eabi_attribute 24, 1
   8              		.eabi_attribute 25, 1
   9              		.eabi_attribute 26, 1
  10              		.eabi_attribute 30, 1
  11              		.eabi_attribute 34, 1
  12              		.eabi_attribute 18, 4
  13              		.file	"yt_dos.c"
  14              		.text
  15              	.Ltext0:
  16              		.cfi_sections	.debug_frame
  17              		.file 1 "../Switch/core/yt/yt_dos.c"
  18              		.section	.rodata.yt_dos_init.str1.4,"aMS",%progbits,1
  19              		.align	2
  20              	.LC0:
  21 0000 25732573 		.ascii	"%s%s\015\012\000"
  21      0D0A00
  22              		.section	.text.yt_dos_init,"ax",%progbits
  23              		.align	1
  24              		.global	yt_dos_init
  25              		.syntax unified
  26              		.thumb
  27              		.thumb_func
  29              	yt_dos_init:
  30              	.LVL0:
  31              	.LFB3:
   1:../Switch/core/yt/yt_dos.c **** /*******************************************************************************
   2:../Switch/core/yt/yt_dos.c **** *                                                                              *
   3:../Switch/core/yt/yt_dos.c **** *  Copyright (c), 2022, Motorcomm Electronic Technology Co.,Ltd.               *
   4:../Switch/core/yt/yt_dos.c **** *  Motorcomm Confidential and Proprietary.                                     *
   5:../Switch/core/yt/yt_dos.c **** *                                                                              *
   6:../Switch/core/yt/yt_dos.c **** ********************************************************************************
   7:../Switch/core/yt/yt_dos.c **** */
   8:../Switch/core/yt/yt_dos.c **** /**
   9:../Switch/core/yt/yt_dos.c **** ********************************************************************************
  10:../Switch/core/yt/yt_dos.c **** * @file yt_dos.c
  11:../Switch/core/yt/yt_dos.c **** *
  12:../Switch/core/yt/yt_dos.c **** * @brief x
  13:../Switch/core/yt/yt_dos.c **** *
  14:../Switch/core/yt/yt_dos.c **** ********************************************************************************
  15:../Switch/core/yt/yt_dos.c **** */
  16:../Switch/core/yt/yt_dos.c **** #include "yt_dos.h"
  17:../Switch/core/yt/yt_dos.c **** #include "fal_dispatch.h"
  18:../Switch/core/yt/yt_dos.c **** 
  19:../Switch/core/yt/yt_dos.c **** /**
  20:../Switch/core/yt/yt_dos.c ****  * @internal      yt_dos_init
  21:../Switch/core/yt/yt_dos.c ****  * @endinternal
  22:../Switch/core/yt/yt_dos.c ****  *
  23:../Switch/core/yt/yt_dos.c ****  * @brief         Description
  24:../Switch/core/yt/yt_dos.c ****  * @note          APPLICABLE DEVICES  -Tiger
  25:../Switch/core/yt/yt_dos.c ****  * @param[in]     unit                -unit id
  26:../Switch/core/yt/yt_dos.c ****  * @retval        CMM_ERR_OK          -on success
  27:../Switch/core/yt/yt_dos.c ****  * @retval        CMM_ERR_FAIL        -on fail
  28:../Switch/core/yt/yt_dos.c ****  */
  29:../Switch/core/yt/yt_dos.c **** yt_ret_t yt_dos_init(yt_unit_t unit)
  30:../Switch/core/yt/yt_dos.c **** {
  32              		.loc 1 30 1 view -0
  33              		.cfi_startproc
  34              		@ args = 0, pretend = 0, frame = 0
  35              		@ frame_needed = 0, uses_anonymous_args = 0
  36              		.loc 1 30 1 is_stmt 0 view .LVU1
  37 0000 08B5     		push	{r3, lr}
  38              		.cfi_def_cfa_offset 8
  39              		.cfi_offset 3, -8
  40              		.cfi_offset 14, -4
  31:../Switch/core/yt/yt_dos.c ****     CMM_PARAM_CHK((YT_UNIT_NUM <= unit), CMM_ERR_INPUT);
  41              		.loc 1 31 5 is_stmt 1 view .LVU2
  42              		.loc 1 31 5 view .LVU3
  43 0002 48B9     		cbnz	r0, .L10
  44              		.loc 1 31 5 discriminator 2 view .LVU4
  32:../Switch/core/yt/yt_dos.c ****     CMM_PARAM_CHK(NULL == YT_DISPATCH(unit), CMM_ERR_NOT_INIT);
  45              		.loc 1 32 5 discriminator 2 view .LVU5
  46              		.loc 1 32 5 discriminator 2 view .LVU6
  47 0004 194B     		ldr	r3, .L16
  48 0006 53F82030 		ldr	r3, [r3, r0, lsl #2]
  49 000a 9BB1     		cbz	r3, .L11
  50              		.loc 1 32 5 discriminator 2 view .LVU7
  33:../Switch/core/yt/yt_dos.c ****     CMM_PARAM_CHK((!(YT_DISPATCH(unit)->is_inited)), CMM_ERR_NOT_INIT);
  51              		.loc 1 33 5 discriminator 2 view .LVU8
  52              		.loc 1 33 5 discriminator 2 view .LVU9
  53 000c 1978     		ldrb	r1, [r3]	@ zero_extendqisi2
  54 000e F9B1     		cbz	r1, .L12
  55              		.loc 1 33 5 discriminator 2 view .LVU10
  34:../Switch/core/yt/yt_dos.c **** 
  35:../Switch/core/yt/yt_dos.c ****     return YT_DISPATCH(unit)->dos_init(unit);
  56              		.loc 1 35 5 discriminator 2 view .LVU11
  57              		.loc 1 35 29 is_stmt 0 discriminator 2 view .LVU12
  58 0010 D3F8D830 		ldr	r3, [r3, #216]
  59              		.loc 1 35 12 discriminator 2 view .LVU13
  60 0014 9847     		blx	r3
  61              	.LVL1:
  62              	.L1:
  36:../Switch/core/yt/yt_dos.c **** }
  63              		.loc 1 36 1 view .LVU14
  64 0016 08BD     		pop	{r3, pc}
  65              	.LVL2:
  66              	.L10:
  31:../Switch/core/yt/yt_dos.c ****     CMM_PARAM_CHK(NULL == YT_DISPATCH(unit), CMM_ERR_NOT_INIT);
  67              		.loc 1 31 5 is_stmt 1 discriminator 1 view .LVU15
  31:../Switch/core/yt/yt_dos.c ****     CMM_PARAM_CHK(NULL == YT_DISPATCH(unit), CMM_ERR_NOT_INIT);
  68              		.loc 1 31 5 discriminator 1 view .LVU16
  69 0018 154B     		ldr	r3, .L16+4
  70 001a 1B78     		ldrb	r3, [r3]	@ zero_extendqisi2
  71 001c 012B     		cmp	r3, #1
  72 001e 01D8     		bhi	.L13
  73              	.LVL3:
  74              	.L3:
  31:../Switch/core/yt/yt_dos.c ****     CMM_PARAM_CHK(NULL == YT_DISPATCH(unit), CMM_ERR_NOT_INIT);
  75              		.loc 1 31 5 discriminator 5 view .LVU17
  31:../Switch/core/yt/yt_dos.c ****     CMM_PARAM_CHK(NULL == YT_DISPATCH(unit), CMM_ERR_NOT_INIT);
  76              		.loc 1 31 5 discriminator 5 view .LVU18
  31:../Switch/core/yt/yt_dos.c ****     CMM_PARAM_CHK(NULL == YT_DISPATCH(unit), CMM_ERR_NOT_INIT);
  77              		.loc 1 31 5 discriminator 5 view .LVU19
  78 0020 0520     		movs	r0, #5
  79 0022 F8E7     		b	.L1
  80              	.LVL4:
  81              	.L13:
  31:../Switch/core/yt/yt_dos.c ****     CMM_PARAM_CHK(NULL == YT_DISPATCH(unit), CMM_ERR_NOT_INIT);
  82              		.loc 1 31 5 discriminator 3 view .LVU20
  83              	.LBB2:
  31:../Switch/core/yt/yt_dos.c ****     CMM_PARAM_CHK(NULL == YT_DISPATCH(unit), CMM_ERR_NOT_INIT);
  84              		.loc 1 31 5 discriminator 3 view .LVU21
  85 0024 134B     		ldr	r3, .L16+8
  86 0026 5A69     		ldr	r2, [r3, #20]
  87 0028 134B     		ldr	r3, .L16+12
  88 002a 9968     		ldr	r1, [r3, #8]
  89 002c 1348     		ldr	r0, .L16+16
  90              	.LVL5:
  31:../Switch/core/yt/yt_dos.c ****     CMM_PARAM_CHK(NULL == YT_DISPATCH(unit), CMM_ERR_NOT_INIT);
  91              		.loc 1 31 5 is_stmt 0 discriminator 3 view .LVU22
  92 002e FFF7FEFF 		bl	osal_printf
  93              	.LVL6:
  94 0032 F5E7     		b	.L3
  95              	.LVL7:
  96              	.L11:
  31:../Switch/core/yt/yt_dos.c ****     CMM_PARAM_CHK(NULL == YT_DISPATCH(unit), CMM_ERR_NOT_INIT);
  97              		.loc 1 31 5 discriminator 3 view .LVU23
  98              	.LBE2:
  32:../Switch/core/yt/yt_dos.c ****     CMM_PARAM_CHK((!(YT_DISPATCH(unit)->is_inited)), CMM_ERR_NOT_INIT);
  99              		.loc 1 32 5 is_stmt 1 discriminator 1 view .LVU24
  32:../Switch/core/yt/yt_dos.c ****     CMM_PARAM_CHK((!(YT_DISPATCH(unit)->is_inited)), CMM_ERR_NOT_INIT);
 100              		.loc 1 32 5 discriminator 1 view .LVU25
 101 0034 0E4B     		ldr	r3, .L16+4
 102 0036 1B78     		ldrb	r3, [r3]	@ zero_extendqisi2
 103 0038 012B     		cmp	r3, #1
 104 003a 01D8     		bhi	.L14
 105              	.LVL8:
 106              	.L6:
  32:../Switch/core/yt/yt_dos.c ****     CMM_PARAM_CHK((!(YT_DISPATCH(unit)->is_inited)), CMM_ERR_NOT_INIT);
 107              		.loc 1 32 5 discriminator 5 view .LVU26
  32:../Switch/core/yt/yt_dos.c ****     CMM_PARAM_CHK((!(YT_DISPATCH(unit)->is_inited)), CMM_ERR_NOT_INIT);
 108              		.loc 1 32 5 discriminator 5 view .LVU27
  32:../Switch/core/yt/yt_dos.c ****     CMM_PARAM_CHK((!(YT_DISPATCH(unit)->is_inited)), CMM_ERR_NOT_INIT);
 109              		.loc 1 32 5 discriminator 5 view .LVU28
 110 003c 0420     		movs	r0, #4
 111 003e EAE7     		b	.L1
 112              	.LVL9:
 113              	.L14:
  32:../Switch/core/yt/yt_dos.c ****     CMM_PARAM_CHK((!(YT_DISPATCH(unit)->is_inited)), CMM_ERR_NOT_INIT);
 114              		.loc 1 32 5 discriminator 3 view .LVU29
 115              	.LBB3:
  32:../Switch/core/yt/yt_dos.c ****     CMM_PARAM_CHK((!(YT_DISPATCH(unit)->is_inited)), CMM_ERR_NOT_INIT);
 116              		.loc 1 32 5 discriminator 3 view .LVU30
 117 0040 0C4B     		ldr	r3, .L16+8
 118 0042 1A69     		ldr	r2, [r3, #16]
 119 0044 0C4B     		ldr	r3, .L16+12
 120 0046 9968     		ldr	r1, [r3, #8]
 121 0048 0C48     		ldr	r0, .L16+16
 122              	.LVL10:
  32:../Switch/core/yt/yt_dos.c ****     CMM_PARAM_CHK((!(YT_DISPATCH(unit)->is_inited)), CMM_ERR_NOT_INIT);
 123              		.loc 1 32 5 is_stmt 0 discriminator 3 view .LVU31
 124 004a FFF7FEFF 		bl	osal_printf
 125              	.LVL11:
 126 004e F5E7     		b	.L6
 127              	.LVL12:
 128              	.L12:
  32:../Switch/core/yt/yt_dos.c ****     CMM_PARAM_CHK((!(YT_DISPATCH(unit)->is_inited)), CMM_ERR_NOT_INIT);
 129              		.loc 1 32 5 discriminator 3 view .LVU32
 130              	.LBE3:
  33:../Switch/core/yt/yt_dos.c **** 
 131              		.loc 1 33 5 is_stmt 1 discriminator 1 view .LVU33
  33:../Switch/core/yt/yt_dos.c **** 
 132              		.loc 1 33 5 discriminator 1 view .LVU34
 133 0050 074B     		ldr	r3, .L16+4
 134 0052 1B78     		ldrb	r3, [r3]	@ zero_extendqisi2
 135 0054 012B     		cmp	r3, #1
 136 0056 01D8     		bhi	.L15
 137              	.LVL13:
 138              	.L8:
  33:../Switch/core/yt/yt_dos.c **** 
 139              		.loc 1 33 5 discriminator 5 view .LVU35
  33:../Switch/core/yt/yt_dos.c **** 
 140              		.loc 1 33 5 discriminator 5 view .LVU36
  33:../Switch/core/yt/yt_dos.c **** 
 141              		.loc 1 33 5 discriminator 5 view .LVU37
 142 0058 0420     		movs	r0, #4
 143 005a DCE7     		b	.L1
 144              	.LVL14:
 145              	.L15:
  33:../Switch/core/yt/yt_dos.c **** 
 146              		.loc 1 33 5 discriminator 3 view .LVU38
 147              	.LBB4:
  33:../Switch/core/yt/yt_dos.c **** 
 148              		.loc 1 33 5 discriminator 3 view .LVU39
 149 005c 054B     		ldr	r3, .L16+8
 150 005e 1A69     		ldr	r2, [r3, #16]
 151 0060 054B     		ldr	r3, .L16+12
 152 0062 9968     		ldr	r1, [r3, #8]
 153 0064 0548     		ldr	r0, .L16+16
 154              	.LVL15:
  33:../Switch/core/yt/yt_dos.c **** 
 155              		.loc 1 33 5 is_stmt 0 discriminator 3 view .LVU40
 156 0066 FFF7FEFF 		bl	osal_printf
 157              	.LVL16:
 158 006a F5E7     		b	.L8
 159              	.L17:
 160              		.align	2
 161              	.L16:
 162 006c 00000000 		.word	gpfal_dispatch
 163 0070 00000000 		.word	yt_debug_level
 164 0074 00000000 		.word	_yt_errmsg
 165 0078 00000000 		.word	_yt_prompt_msg
 166 007c 00000000 		.word	.LC0
 167              	.LBE4:
 168              		.cfi_endproc
 169              	.LFE3:
 171              		.section	.text.yt_dos_port_en_set,"ax",%progbits
 172              		.align	1
 173              		.global	yt_dos_port_en_set
 174              		.syntax unified
 175              		.thumb
 176              		.thumb_func
 178              	yt_dos_port_en_set:
 179              	.LVL17:
 180              	.LFB4:
  37:../Switch/core/yt/yt_dos.c **** 
  38:../Switch/core/yt/yt_dos.c **** /**
  39:../Switch/core/yt/yt_dos.c ****  * @internal      yt_dos_port_en_set
  40:../Switch/core/yt/yt_dos.c ****  * @endinternal
  41:../Switch/core/yt/yt_dos.c ****  *
  42:../Switch/core/yt/yt_dos.c ****  * @brief         Description
  43:../Switch/core/yt/yt_dos.c ****  * @note          APPLICABLE DEVICES  -Tiger
  44:../Switch/core/yt/yt_dos.c ****  * @param[in]     unit                -unit id
  45:../Switch/core/yt/yt_dos.c ****  * @param[in]     port                -port num
  46:../Switch/core/yt/yt_dos.c ****  * @param[in]     enable              -enable or disable
  47:../Switch/core/yt/yt_dos.c ****  * @retval        CMM_ERR_OK          -on success
  48:../Switch/core/yt/yt_dos.c ****  * @retval        CMM_ERR_FAIL        -on fail
  49:../Switch/core/yt/yt_dos.c ****  */
  50:../Switch/core/yt/yt_dos.c **** yt_ret_t yt_dos_port_en_set(yt_unit_t unit, yt_port_t port, yt_enable_t enable)
  51:../Switch/core/yt/yt_dos.c **** {
 181              		.loc 1 51 1 is_stmt 1 view -0
 182              		.cfi_startproc
 183              		@ args = 0, pretend = 0, frame = 0
 184              		@ frame_needed = 0, uses_anonymous_args = 0
 185              		.loc 1 51 1 is_stmt 0 view .LVU42
 186 0000 08B5     		push	{r3, lr}
 187              		.cfi_def_cfa_offset 8
 188              		.cfi_offset 3, -8
 189              		.cfi_offset 14, -4
  52:../Switch/core/yt/yt_dos.c ****     CMM_PARAM_CHK((YT_UNIT_NUM <= unit), CMM_ERR_INPUT);
 190              		.loc 1 52 5 is_stmt 1 view .LVU43
 191              		.loc 1 52 5 view .LVU44
 192 0002 C0B9     		cbnz	r0, .L32
 193 0004 8446     		mov	ip, r0
 194              		.loc 1 52 5 discriminator 2 view .LVU45
  53:../Switch/core/yt/yt_dos.c ****     CMM_PARAM_CHK(NULL == YT_DISPATCH(unit), CMM_ERR_NOT_INIT);
 195              		.loc 1 53 5 discriminator 2 view .LVU46
 196              		.loc 1 53 5 discriminator 2 view .LVU47
 197 0006 2F4B     		ldr	r3, .L41
 198 0008 53F82030 		ldr	r3, [r3, r0, lsl #2]
 199 000c 0BB3     		cbz	r3, .L33
 200              		.loc 1 53 5 discriminator 2 view .LVU48
  54:../Switch/core/yt/yt_dos.c ****     CMM_PARAM_CHK((!(YT_DISPATCH(unit)->is_inited)), CMM_ERR_NOT_INIT);
 201              		.loc 1 54 5 discriminator 2 view .LVU49
 202              		.loc 1 54 5 discriminator 2 view .LVU50
 203 000e 1878     		ldrb	r0, [r3]	@ zero_extendqisi2
 204              	.LVL18:
 205              		.loc 1 54 5 is_stmt 0 discriminator 2 view .LVU51
 206 0010 0028     		cmp	r0, #0
 207 0012 2CD0     		beq	.L34
 208              		.loc 1 54 5 is_stmt 1 discriminator 2 view .LVU52
  55:../Switch/core/yt/yt_dos.c ****     CMM_PARAM_CHK((!(CMM_PORT_VALID(unit, port))), CMM_ERR_PORT);
 209              		.loc 1 55 5 discriminator 2 view .LVU53
 210              		.loc 1 55 5 discriminator 2 view .LVU54
 211 0014 2C48     		ldr	r0, .L41+4
 212 0016 0078     		ldrb	r0, [r0]	@ zero_extendqisi2
 213 0018 0028     		cmp	r0, #0
 214 001a 36D0     		beq	.L26
 215 001c 2B48     		ldr	r0, .L41+8
 216 001e 50F82C00 		ldr	r0, [r0, ip, lsl #2]
 217 0022 007D     		ldrb	r0, [r0, #20]	@ zero_extendqisi2
 218 0024 8842     		cmp	r0, r1
 219 0026 30D9     		bls	.L26
 220              		.loc 1 55 5 discriminator 4 view .LVU55
  56:../Switch/core/yt/yt_dos.c ****     CMM_PARAM_CHK((YT_ENABLE < enable || YT_DISABLE > enable), CMM_ERR_INPUT);
 221              		.loc 1 56 5 discriminator 4 view .LVU56
 222              		.loc 1 56 5 discriminator 4 view .LVU57
 223 0028 012A     		cmp	r2, #1
 224 002a 3CD8     		bhi	.L35
 225              		.loc 1 56 5 discriminator 2 view .LVU58
  57:../Switch/core/yt/yt_dos.c **** 
  58:../Switch/core/yt/yt_dos.c ****     return YT_DISPATCH(unit)->dos_port_en_set(unit, port, enable);
 226              		.loc 1 58 5 discriminator 2 view .LVU59
 227              		.loc 1 58 29 is_stmt 0 discriminator 2 view .LVU60
 228 002c D3F8DC30 		ldr	r3, [r3, #220]
 229              		.loc 1 58 12 discriminator 2 view .LVU61
 230 0030 6046     		mov	r0, ip
 231 0032 9847     		blx	r3
 232              	.LVL19:
 233              	.L18:
  59:../Switch/core/yt/yt_dos.c **** }
 234              		.loc 1 59 1 view .LVU62
 235 0034 08BD     		pop	{r3, pc}
 236              	.LVL20:
 237              	.L32:
  52:../Switch/core/yt/yt_dos.c ****     CMM_PARAM_CHK(NULL == YT_DISPATCH(unit), CMM_ERR_NOT_INIT);
 238              		.loc 1 52 5 is_stmt 1 discriminator 1 view .LVU63
  52:../Switch/core/yt/yt_dos.c ****     CMM_PARAM_CHK(NULL == YT_DISPATCH(unit), CMM_ERR_NOT_INIT);
 239              		.loc 1 52 5 discriminator 1 view .LVU64
 240 0036 264B     		ldr	r3, .L41+12
 241 0038 1B78     		ldrb	r3, [r3]	@ zero_extendqisi2
 242 003a 012B     		cmp	r3, #1
 243 003c 01D8     		bhi	.L36
 244              	.LVL21:
 245              	.L20:
  52:../Switch/core/yt/yt_dos.c ****     CMM_PARAM_CHK(NULL == YT_DISPATCH(unit), CMM_ERR_NOT_INIT);
 246              		.loc 1 52 5 discriminator 5 view .LVU65
  52:../Switch/core/yt/yt_dos.c ****     CMM_PARAM_CHK(NULL == YT_DISPATCH(unit), CMM_ERR_NOT_INIT);
 247              		.loc 1 52 5 discriminator 5 view .LVU66
  52:../Switch/core/yt/yt_dos.c ****     CMM_PARAM_CHK(NULL == YT_DISPATCH(unit), CMM_ERR_NOT_INIT);
 248              		.loc 1 52 5 discriminator 5 view .LVU67
 249 003e 0520     		movs	r0, #5
 250 0040 F8E7     		b	.L18
 251              	.LVL22:
 252              	.L36:
  52:../Switch/core/yt/yt_dos.c ****     CMM_PARAM_CHK(NULL == YT_DISPATCH(unit), CMM_ERR_NOT_INIT);
 253              		.loc 1 52 5 discriminator 3 view .LVU68
 254              	.LBB5:
  52:../Switch/core/yt/yt_dos.c ****     CMM_PARAM_CHK(NULL == YT_DISPATCH(unit), CMM_ERR_NOT_INIT);
 255              		.loc 1 52 5 discriminator 3 view .LVU69
 256 0042 244B     		ldr	r3, .L41+16
 257 0044 5A69     		ldr	r2, [r3, #20]
 258              	.LVL23:
  52:../Switch/core/yt/yt_dos.c ****     CMM_PARAM_CHK(NULL == YT_DISPATCH(unit), CMM_ERR_NOT_INIT);
 259              		.loc 1 52 5 is_stmt 0 discriminator 3 view .LVU70
 260 0046 244B     		ldr	r3, .L41+20
 261 0048 9968     		ldr	r1, [r3, #8]
 262              	.LVL24:
  52:../Switch/core/yt/yt_dos.c ****     CMM_PARAM_CHK(NULL == YT_DISPATCH(unit), CMM_ERR_NOT_INIT);
 263              		.loc 1 52 5 discriminator 3 view .LVU71
 264 004a 2448     		ldr	r0, .L41+24
 265              	.LVL25:
  52:../Switch/core/yt/yt_dos.c ****     CMM_PARAM_CHK(NULL == YT_DISPATCH(unit), CMM_ERR_NOT_INIT);
 266              		.loc 1 52 5 discriminator 3 view .LVU72
 267 004c FFF7FEFF 		bl	osal_printf
 268              	.LVL26:
 269 0050 F5E7     		b	.L20
 270              	.LVL27:
 271              	.L33:
  52:../Switch/core/yt/yt_dos.c ****     CMM_PARAM_CHK(NULL == YT_DISPATCH(unit), CMM_ERR_NOT_INIT);
 272              		.loc 1 52 5 discriminator 3 view .LVU73
 273              	.LBE5:
  53:../Switch/core/yt/yt_dos.c ****     CMM_PARAM_CHK((!(YT_DISPATCH(unit)->is_inited)), CMM_ERR_NOT_INIT);
 274              		.loc 1 53 5 is_stmt 1 discriminator 1 view .LVU74
  53:../Switch/core/yt/yt_dos.c ****     CMM_PARAM_CHK((!(YT_DISPATCH(unit)->is_inited)), CMM_ERR_NOT_INIT);
 275              		.loc 1 53 5 discriminator 1 view .LVU75
 276 0052 1F4B     		ldr	r3, .L41+12
 277 0054 1B78     		ldrb	r3, [r3]	@ zero_extendqisi2
 278 0056 012B     		cmp	r3, #1
 279 0058 01D8     		bhi	.L37
 280              	.LVL28:
 281              	.L23:
  53:../Switch/core/yt/yt_dos.c ****     CMM_PARAM_CHK((!(YT_DISPATCH(unit)->is_inited)), CMM_ERR_NOT_INIT);
 282              		.loc 1 53 5 discriminator 5 view .LVU76
  53:../Switch/core/yt/yt_dos.c ****     CMM_PARAM_CHK((!(YT_DISPATCH(unit)->is_inited)), CMM_ERR_NOT_INIT);
 283              		.loc 1 53 5 discriminator 5 view .LVU77
  53:../Switch/core/yt/yt_dos.c ****     CMM_PARAM_CHK((!(YT_DISPATCH(unit)->is_inited)), CMM_ERR_NOT_INIT);
 284              		.loc 1 53 5 discriminator 5 view .LVU78
 285 005a 0420     		movs	r0, #4
 286 005c EAE7     		b	.L18
 287              	.LVL29:
 288              	.L37:
  53:../Switch/core/yt/yt_dos.c ****     CMM_PARAM_CHK((!(YT_DISPATCH(unit)->is_inited)), CMM_ERR_NOT_INIT);
 289              		.loc 1 53 5 discriminator 3 view .LVU79
 290              	.LBB6:
  53:../Switch/core/yt/yt_dos.c ****     CMM_PARAM_CHK((!(YT_DISPATCH(unit)->is_inited)), CMM_ERR_NOT_INIT);
 291              		.loc 1 53 5 discriminator 3 view .LVU80
 292 005e 1D4B     		ldr	r3, .L41+16
 293 0060 1A69     		ldr	r2, [r3, #16]
 294              	.LVL30:
  53:../Switch/core/yt/yt_dos.c ****     CMM_PARAM_CHK((!(YT_DISPATCH(unit)->is_inited)), CMM_ERR_NOT_INIT);
 295              		.loc 1 53 5 is_stmt 0 discriminator 3 view .LVU81
 296 0062 1D4B     		ldr	r3, .L41+20
 297 0064 9968     		ldr	r1, [r3, #8]
 298              	.LVL31:
  53:../Switch/core/yt/yt_dos.c ****     CMM_PARAM_CHK((!(YT_DISPATCH(unit)->is_inited)), CMM_ERR_NOT_INIT);
 299              		.loc 1 53 5 discriminator 3 view .LVU82
 300 0066 1D48     		ldr	r0, .L41+24
 301              	.LVL32:
  53:../Switch/core/yt/yt_dos.c ****     CMM_PARAM_CHK((!(YT_DISPATCH(unit)->is_inited)), CMM_ERR_NOT_INIT);
 302              		.loc 1 53 5 discriminator 3 view .LVU83
 303 0068 FFF7FEFF 		bl	osal_printf
 304              	.LVL33:
 305 006c F5E7     		b	.L23
 306              	.LVL34:
 307              	.L34:
  53:../Switch/core/yt/yt_dos.c ****     CMM_PARAM_CHK((!(YT_DISPATCH(unit)->is_inited)), CMM_ERR_NOT_INIT);
 308              		.loc 1 53 5 discriminator 3 view .LVU84
 309              	.LBE6:
  54:../Switch/core/yt/yt_dos.c ****     CMM_PARAM_CHK((!(CMM_PORT_VALID(unit, port))), CMM_ERR_PORT);
 310              		.loc 1 54 5 is_stmt 1 discriminator 1 view .LVU85
  54:../Switch/core/yt/yt_dos.c ****     CMM_PARAM_CHK((!(CMM_PORT_VALID(unit, port))), CMM_ERR_PORT);
 311              		.loc 1 54 5 discriminator 1 view .LVU86
 312 006e 184B     		ldr	r3, .L41+12
 313 0070 1B78     		ldrb	r3, [r3]	@ zero_extendqisi2
 314 0072 012B     		cmp	r3, #1
 315 0074 01D8     		bhi	.L38
 316              	.LVL35:
 317              	.L25:
  54:../Switch/core/yt/yt_dos.c ****     CMM_PARAM_CHK((!(CMM_PORT_VALID(unit, port))), CMM_ERR_PORT);
 318              		.loc 1 54 5 discriminator 5 view .LVU87
  54:../Switch/core/yt/yt_dos.c ****     CMM_PARAM_CHK((!(CMM_PORT_VALID(unit, port))), CMM_ERR_PORT);
 319              		.loc 1 54 5 discriminator 5 view .LVU88
  54:../Switch/core/yt/yt_dos.c ****     CMM_PARAM_CHK((!(CMM_PORT_VALID(unit, port))), CMM_ERR_PORT);
 320              		.loc 1 54 5 discriminator 5 view .LVU89
 321 0076 0420     		movs	r0, #4
 322 0078 DCE7     		b	.L18
 323              	.LVL36:
 324              	.L38:
  54:../Switch/core/yt/yt_dos.c ****     CMM_PARAM_CHK((!(CMM_PORT_VALID(unit, port))), CMM_ERR_PORT);
 325              		.loc 1 54 5 discriminator 3 view .LVU90
 326              	.LBB7:
  54:../Switch/core/yt/yt_dos.c ****     CMM_PARAM_CHK((!(CMM_PORT_VALID(unit, port))), CMM_ERR_PORT);
 327              		.loc 1 54 5 discriminator 3 view .LVU91
 328 007a 164B     		ldr	r3, .L41+16
 329 007c 1A69     		ldr	r2, [r3, #16]
 330              	.LVL37:
  54:../Switch/core/yt/yt_dos.c ****     CMM_PARAM_CHK((!(CMM_PORT_VALID(unit, port))), CMM_ERR_PORT);
 331              		.loc 1 54 5 is_stmt 0 discriminator 3 view .LVU92
 332 007e 164B     		ldr	r3, .L41+20
 333 0080 9968     		ldr	r1, [r3, #8]
 334              	.LVL38:
  54:../Switch/core/yt/yt_dos.c ****     CMM_PARAM_CHK((!(CMM_PORT_VALID(unit, port))), CMM_ERR_PORT);
 335              		.loc 1 54 5 discriminator 3 view .LVU93
 336 0082 1648     		ldr	r0, .L41+24
 337 0084 FFF7FEFF 		bl	osal_printf
 338              	.LVL39:
 339 0088 F5E7     		b	.L25
 340              	.LVL40:
 341              	.L26:
  54:../Switch/core/yt/yt_dos.c ****     CMM_PARAM_CHK((!(CMM_PORT_VALID(unit, port))), CMM_ERR_PORT);
 342              		.loc 1 54 5 discriminator 3 view .LVU94
 343              	.LBE7:
  55:../Switch/core/yt/yt_dos.c ****     CMM_PARAM_CHK((YT_ENABLE < enable || YT_DISABLE > enable), CMM_ERR_INPUT);
 344              		.loc 1 55 5 is_stmt 1 discriminator 3 view .LVU95
  55:../Switch/core/yt/yt_dos.c ****     CMM_PARAM_CHK((YT_ENABLE < enable || YT_DISABLE > enable), CMM_ERR_INPUT);
 345              		.loc 1 55 5 discriminator 3 view .LVU96
 346 008a 114B     		ldr	r3, .L41+12
 347 008c 1B78     		ldrb	r3, [r3]	@ zero_extendqisi2
 348 008e 012B     		cmp	r3, #1
 349 0090 01D8     		bhi	.L39
 350              	.LVL41:
 351              	.L28:
  55:../Switch/core/yt/yt_dos.c ****     CMM_PARAM_CHK((YT_ENABLE < enable || YT_DISABLE > enable), CMM_ERR_INPUT);
 352              		.loc 1 55 5 discriminator 7 view .LVU97
  55:../Switch/core/yt/yt_dos.c ****     CMM_PARAM_CHK((YT_ENABLE < enable || YT_DISABLE > enable), CMM_ERR_INPUT);
 353              		.loc 1 55 5 discriminator 7 view .LVU98
  55:../Switch/core/yt/yt_dos.c ****     CMM_PARAM_CHK((YT_ENABLE < enable || YT_DISABLE > enable), CMM_ERR_INPUT);
 354              		.loc 1 55 5 discriminator 7 view .LVU99
 355 0092 0E20     		movs	r0, #14
 356 0094 CEE7     		b	.L18
 357              	.LVL42:
 358              	.L39:
  55:../Switch/core/yt/yt_dos.c ****     CMM_PARAM_CHK((YT_ENABLE < enable || YT_DISABLE > enable), CMM_ERR_INPUT);
 359              		.loc 1 55 5 discriminator 5 view .LVU100
 360              	.LBB8:
  55:../Switch/core/yt/yt_dos.c ****     CMM_PARAM_CHK((YT_ENABLE < enable || YT_DISABLE > enable), CMM_ERR_INPUT);
 361              		.loc 1 55 5 discriminator 5 view .LVU101
 362 0096 0F4B     		ldr	r3, .L41+16
 363 0098 9A6B     		ldr	r2, [r3, #56]
 364              	.LVL43:
  55:../Switch/core/yt/yt_dos.c ****     CMM_PARAM_CHK((YT_ENABLE < enable || YT_DISABLE > enable), CMM_ERR_INPUT);
 365              		.loc 1 55 5 is_stmt 0 discriminator 5 view .LVU102
 366 009a 0F4B     		ldr	r3, .L41+20
 367 009c 9968     		ldr	r1, [r3, #8]
 368              	.LVL44:
  55:../Switch/core/yt/yt_dos.c ****     CMM_PARAM_CHK((YT_ENABLE < enable || YT_DISABLE > enable), CMM_ERR_INPUT);
 369              		.loc 1 55 5 discriminator 5 view .LVU103
 370 009e 0F48     		ldr	r0, .L41+24
 371 00a0 FFF7FEFF 		bl	osal_printf
 372              	.LVL45:
 373 00a4 F5E7     		b	.L28
 374              	.LVL46:
 375              	.L35:
  55:../Switch/core/yt/yt_dos.c ****     CMM_PARAM_CHK((YT_ENABLE < enable || YT_DISABLE > enable), CMM_ERR_INPUT);
 376              		.loc 1 55 5 discriminator 5 view .LVU104
 377              	.LBE8:
  56:../Switch/core/yt/yt_dos.c **** 
 378              		.loc 1 56 5 is_stmt 1 discriminator 1 view .LVU105
  56:../Switch/core/yt/yt_dos.c **** 
 379              		.loc 1 56 5 discriminator 1 view .LVU106
 380 00a6 0A4B     		ldr	r3, .L41+12
 381 00a8 1B78     		ldrb	r3, [r3]	@ zero_extendqisi2
 382 00aa 012B     		cmp	r3, #1
 383 00ac 01D8     		bhi	.L40
 384              	.LVL47:
 385              	.L30:
  56:../Switch/core/yt/yt_dos.c **** 
 386              		.loc 1 56 5 discriminator 5 view .LVU107
  56:../Switch/core/yt/yt_dos.c **** 
 387              		.loc 1 56 5 discriminator 5 view .LVU108
  56:../Switch/core/yt/yt_dos.c **** 
 388              		.loc 1 56 5 discriminator 5 view .LVU109
 389 00ae 0520     		movs	r0, #5
 390 00b0 C0E7     		b	.L18
 391              	.LVL48:
 392              	.L40:
  56:../Switch/core/yt/yt_dos.c **** 
 393              		.loc 1 56 5 discriminator 3 view .LVU110
 394              	.LBB9:
  56:../Switch/core/yt/yt_dos.c **** 
 395              		.loc 1 56 5 discriminator 3 view .LVU111
 396 00b2 084B     		ldr	r3, .L41+16
 397 00b4 5A69     		ldr	r2, [r3, #20]
 398              	.LVL49:
  56:../Switch/core/yt/yt_dos.c **** 
 399              		.loc 1 56 5 is_stmt 0 discriminator 3 view .LVU112
 400 00b6 084B     		ldr	r3, .L41+20
 401 00b8 9968     		ldr	r1, [r3, #8]
 402              	.LVL50:
  56:../Switch/core/yt/yt_dos.c **** 
 403              		.loc 1 56 5 discriminator 3 view .LVU113
 404 00ba 0848     		ldr	r0, .L41+24
 405 00bc FFF7FEFF 		bl	osal_printf
 406              	.LVL51:
 407 00c0 F5E7     		b	.L30
 408              	.L42:
 409 00c2 00BF     		.align	2
 410              	.L41:
 411 00c4 00000000 		.word	gpfal_dispatch
 412 00c8 00000000 		.word	gcal_inited
 413 00cc 00000000 		.word	gpSwitchUnit
 414 00d0 00000000 		.word	yt_debug_level
 415 00d4 00000000 		.word	_yt_errmsg
 416 00d8 00000000 		.word	_yt_prompt_msg
 417 00dc 00000000 		.word	.LC0
 418              	.LBE9:
 419              		.cfi_endproc
 420              	.LFE4:
 422              		.section	.text.yt_dos_port_en_get,"ax",%progbits
 423              		.align	1
 424              		.global	yt_dos_port_en_get
 425              		.syntax unified
 426              		.thumb
 427              		.thumb_func
 429              	yt_dos_port_en_get:
 430              	.LVL52:
 431              	.LFB5:
  60:../Switch/core/yt/yt_dos.c **** 
  61:../Switch/core/yt/yt_dos.c **** /**
  62:../Switch/core/yt/yt_dos.c ****  * @internal      yt_dos_port_en_get
  63:../Switch/core/yt/yt_dos.c ****  * @endinternal
  64:../Switch/core/yt/yt_dos.c ****  *
  65:../Switch/core/yt/yt_dos.c ****  * @brief         Description
  66:../Switch/core/yt/yt_dos.c ****  * @note          APPLICABLE DEVICES  -Tiger
  67:../Switch/core/yt/yt_dos.c ****  * @param[in]     unit                -unit id
  68:../Switch/core/yt/yt_dos.c ****  * @param[in]     port                -port num
  69:../Switch/core/yt/yt_dos.c ****  * @param[out]    pEnable             -enable or disable
  70:../Switch/core/yt/yt_dos.c ****  * @retval        CMM_ERR_OK          -on success
  71:../Switch/core/yt/yt_dos.c ****  * @retval        CMM_ERR_FAIL        -on fail
  72:../Switch/core/yt/yt_dos.c ****  */
  73:../Switch/core/yt/yt_dos.c **** yt_ret_t yt_dos_port_en_get(yt_unit_t unit, yt_port_t port, yt_enable_t *pEnable)
  74:../Switch/core/yt/yt_dos.c **** {
 432              		.loc 1 74 1 is_stmt 1 view -0
 433              		.cfi_startproc
 434              		@ args = 0, pretend = 0, frame = 0
 435              		@ frame_needed = 0, uses_anonymous_args = 0
 436              		.loc 1 74 1 is_stmt 0 view .LVU115
 437 0000 08B5     		push	{r3, lr}
 438              		.cfi_def_cfa_offset 8
 439              		.cfi_offset 3, -8
 440              		.cfi_offset 14, -4
  75:../Switch/core/yt/yt_dos.c ****     CMM_PARAM_CHK((YT_UNIT_NUM <= unit), CMM_ERR_INPUT);
 441              		.loc 1 75 5 is_stmt 1 view .LVU116
 442              		.loc 1 75 5 view .LVU117
 443 0002 C0B9     		cbnz	r0, .L57
 444 0004 8446     		mov	ip, r0
 445              		.loc 1 75 5 discriminator 2 view .LVU118
  76:../Switch/core/yt/yt_dos.c ****     CMM_PARAM_CHK(NULL == YT_DISPATCH(unit), CMM_ERR_NOT_INIT);
 446              		.loc 1 76 5 discriminator 2 view .LVU119
 447              		.loc 1 76 5 discriminator 2 view .LVU120
 448 0006 2F4B     		ldr	r3, .L66
 449 0008 53F82030 		ldr	r3, [r3, r0, lsl #2]
 450 000c 0BB3     		cbz	r3, .L58
 451              		.loc 1 76 5 discriminator 2 view .LVU121
  77:../Switch/core/yt/yt_dos.c ****     CMM_PARAM_CHK((!(YT_DISPATCH(unit)->is_inited)), CMM_ERR_NOT_INIT);
 452              		.loc 1 77 5 discriminator 2 view .LVU122
 453              		.loc 1 77 5 discriminator 2 view .LVU123
 454 000e 1878     		ldrb	r0, [r3]	@ zero_extendqisi2
 455              	.LVL53:
 456              		.loc 1 77 5 is_stmt 0 discriminator 2 view .LVU124
 457 0010 0028     		cmp	r0, #0
 458 0012 2CD0     		beq	.L59
 459              		.loc 1 77 5 is_stmt 1 discriminator 2 view .LVU125
  78:../Switch/core/yt/yt_dos.c ****     CMM_PARAM_CHK((!(CMM_PORT_VALID(unit, port))), CMM_ERR_PORT);
 460              		.loc 1 78 5 discriminator 2 view .LVU126
 461              		.loc 1 78 5 discriminator 2 view .LVU127
 462 0014 2C48     		ldr	r0, .L66+4
 463 0016 0078     		ldrb	r0, [r0]	@ zero_extendqisi2
 464 0018 0028     		cmp	r0, #0
 465 001a 36D0     		beq	.L51
 466 001c 2B48     		ldr	r0, .L66+8
 467 001e 50F82C00 		ldr	r0, [r0, ip, lsl #2]
 468 0022 007D     		ldrb	r0, [r0, #20]	@ zero_extendqisi2
 469 0024 8842     		cmp	r0, r1
 470 0026 30D9     		bls	.L51
 471              		.loc 1 78 5 discriminator 4 view .LVU128
  79:../Switch/core/yt/yt_dos.c ****     CMM_PARAM_CHK((NULL == pEnable), CMM_ERR_NULL_POINT);
 472              		.loc 1 79 5 discriminator 4 view .LVU129
 473              		.loc 1 79 5 discriminator 4 view .LVU130
 474 0028 002A     		cmp	r2, #0
 475 002a 3CD0     		beq	.L60
 476              		.loc 1 79 5 discriminator 2 view .LVU131
  80:../Switch/core/yt/yt_dos.c **** 
  81:../Switch/core/yt/yt_dos.c ****     return YT_DISPATCH(unit)->dos_port_en_get(unit, port, pEnable);
 477              		.loc 1 81 5 discriminator 2 view .LVU132
 478              		.loc 1 81 29 is_stmt 0 discriminator 2 view .LVU133
 479 002c D3F8E030 		ldr	r3, [r3, #224]
 480              		.loc 1 81 12 discriminator 2 view .LVU134
 481 0030 6046     		mov	r0, ip
 482 0032 9847     		blx	r3
 483              	.LVL54:
 484              	.L43:
  82:../Switch/core/yt/yt_dos.c **** }
 485              		.loc 1 82 1 view .LVU135
 486 0034 08BD     		pop	{r3, pc}
 487              	.LVL55:
 488              	.L57:
  75:../Switch/core/yt/yt_dos.c ****     CMM_PARAM_CHK(NULL == YT_DISPATCH(unit), CMM_ERR_NOT_INIT);
 489              		.loc 1 75 5 is_stmt 1 discriminator 1 view .LVU136
  75:../Switch/core/yt/yt_dos.c ****     CMM_PARAM_CHK(NULL == YT_DISPATCH(unit), CMM_ERR_NOT_INIT);
 490              		.loc 1 75 5 discriminator 1 view .LVU137
 491 0036 264B     		ldr	r3, .L66+12
 492 0038 1B78     		ldrb	r3, [r3]	@ zero_extendqisi2
 493 003a 012B     		cmp	r3, #1
 494 003c 01D8     		bhi	.L61
 495              	.LVL56:
 496              	.L45:
  75:../Switch/core/yt/yt_dos.c ****     CMM_PARAM_CHK(NULL == YT_DISPATCH(unit), CMM_ERR_NOT_INIT);
 497              		.loc 1 75 5 discriminator 5 view .LVU138
  75:../Switch/core/yt/yt_dos.c ****     CMM_PARAM_CHK(NULL == YT_DISPATCH(unit), CMM_ERR_NOT_INIT);
 498              		.loc 1 75 5 discriminator 5 view .LVU139
  75:../Switch/core/yt/yt_dos.c ****     CMM_PARAM_CHK(NULL == YT_DISPATCH(unit), CMM_ERR_NOT_INIT);
 499              		.loc 1 75 5 discriminator 5 view .LVU140
 500 003e 0520     		movs	r0, #5
 501 0040 F8E7     		b	.L43
 502              	.LVL57:
 503              	.L61:
  75:../Switch/core/yt/yt_dos.c ****     CMM_PARAM_CHK(NULL == YT_DISPATCH(unit), CMM_ERR_NOT_INIT);
 504              		.loc 1 75 5 discriminator 3 view .LVU141
 505              	.LBB10:
  75:../Switch/core/yt/yt_dos.c ****     CMM_PARAM_CHK(NULL == YT_DISPATCH(unit), CMM_ERR_NOT_INIT);
 506              		.loc 1 75 5 discriminator 3 view .LVU142
 507 0042 244B     		ldr	r3, .L66+16
 508 0044 5A69     		ldr	r2, [r3, #20]
 509              	.LVL58:
  75:../Switch/core/yt/yt_dos.c ****     CMM_PARAM_CHK(NULL == YT_DISPATCH(unit), CMM_ERR_NOT_INIT);
 510              		.loc 1 75 5 is_stmt 0 discriminator 3 view .LVU143
 511 0046 244B     		ldr	r3, .L66+20
 512 0048 9968     		ldr	r1, [r3, #8]
 513              	.LVL59:
  75:../Switch/core/yt/yt_dos.c ****     CMM_PARAM_CHK(NULL == YT_DISPATCH(unit), CMM_ERR_NOT_INIT);
 514              		.loc 1 75 5 discriminator 3 view .LVU144
 515 004a 2448     		ldr	r0, .L66+24
 516              	.LVL60:
  75:../Switch/core/yt/yt_dos.c ****     CMM_PARAM_CHK(NULL == YT_DISPATCH(unit), CMM_ERR_NOT_INIT);
 517              		.loc 1 75 5 discriminator 3 view .LVU145
 518 004c FFF7FEFF 		bl	osal_printf
 519              	.LVL61:
 520 0050 F5E7     		b	.L45
 521              	.LVL62:
 522              	.L58:
  75:../Switch/core/yt/yt_dos.c ****     CMM_PARAM_CHK(NULL == YT_DISPATCH(unit), CMM_ERR_NOT_INIT);
 523              		.loc 1 75 5 discriminator 3 view .LVU146
 524              	.LBE10:
  76:../Switch/core/yt/yt_dos.c ****     CMM_PARAM_CHK((!(YT_DISPATCH(unit)->is_inited)), CMM_ERR_NOT_INIT);
 525              		.loc 1 76 5 is_stmt 1 discriminator 1 view .LVU147
  76:../Switch/core/yt/yt_dos.c ****     CMM_PARAM_CHK((!(YT_DISPATCH(unit)->is_inited)), CMM_ERR_NOT_INIT);
 526              		.loc 1 76 5 discriminator 1 view .LVU148
 527 0052 1F4B     		ldr	r3, .L66+12
 528 0054 1B78     		ldrb	r3, [r3]	@ zero_extendqisi2
 529 0056 012B     		cmp	r3, #1
 530 0058 01D8     		bhi	.L62
 531              	.LVL63:
 532              	.L48:
  76:../Switch/core/yt/yt_dos.c ****     CMM_PARAM_CHK((!(YT_DISPATCH(unit)->is_inited)), CMM_ERR_NOT_INIT);
 533              		.loc 1 76 5 discriminator 5 view .LVU149
  76:../Switch/core/yt/yt_dos.c ****     CMM_PARAM_CHK((!(YT_DISPATCH(unit)->is_inited)), CMM_ERR_NOT_INIT);
 534              		.loc 1 76 5 discriminator 5 view .LVU150
  76:../Switch/core/yt/yt_dos.c ****     CMM_PARAM_CHK((!(YT_DISPATCH(unit)->is_inited)), CMM_ERR_NOT_INIT);
 535              		.loc 1 76 5 discriminator 5 view .LVU151
 536 005a 0420     		movs	r0, #4
 537 005c EAE7     		b	.L43
 538              	.LVL64:
 539              	.L62:
  76:../Switch/core/yt/yt_dos.c ****     CMM_PARAM_CHK((!(YT_DISPATCH(unit)->is_inited)), CMM_ERR_NOT_INIT);
 540              		.loc 1 76 5 discriminator 3 view .LVU152
 541              	.LBB11:
  76:../Switch/core/yt/yt_dos.c ****     CMM_PARAM_CHK((!(YT_DISPATCH(unit)->is_inited)), CMM_ERR_NOT_INIT);
 542              		.loc 1 76 5 discriminator 3 view .LVU153
 543 005e 1D4B     		ldr	r3, .L66+16
 544 0060 1A69     		ldr	r2, [r3, #16]
 545              	.LVL65:
  76:../Switch/core/yt/yt_dos.c ****     CMM_PARAM_CHK((!(YT_DISPATCH(unit)->is_inited)), CMM_ERR_NOT_INIT);
 546              		.loc 1 76 5 is_stmt 0 discriminator 3 view .LVU154
 547 0062 1D4B     		ldr	r3, .L66+20
 548 0064 9968     		ldr	r1, [r3, #8]
 549              	.LVL66:
  76:../Switch/core/yt/yt_dos.c ****     CMM_PARAM_CHK((!(YT_DISPATCH(unit)->is_inited)), CMM_ERR_NOT_INIT);
 550              		.loc 1 76 5 discriminator 3 view .LVU155
 551 0066 1D48     		ldr	r0, .L66+24
 552              	.LVL67:
  76:../Switch/core/yt/yt_dos.c ****     CMM_PARAM_CHK((!(YT_DISPATCH(unit)->is_inited)), CMM_ERR_NOT_INIT);
 553              		.loc 1 76 5 discriminator 3 view .LVU156
 554 0068 FFF7FEFF 		bl	osal_printf
 555              	.LVL68:
 556 006c F5E7     		b	.L48
 557              	.LVL69:
 558              	.L59:
  76:../Switch/core/yt/yt_dos.c ****     CMM_PARAM_CHK((!(YT_DISPATCH(unit)->is_inited)), CMM_ERR_NOT_INIT);
 559              		.loc 1 76 5 discriminator 3 view .LVU157
 560              	.LBE11:
  77:../Switch/core/yt/yt_dos.c ****     CMM_PARAM_CHK((!(CMM_PORT_VALID(unit, port))), CMM_ERR_PORT);
 561              		.loc 1 77 5 is_stmt 1 discriminator 1 view .LVU158
  77:../Switch/core/yt/yt_dos.c ****     CMM_PARAM_CHK((!(CMM_PORT_VALID(unit, port))), CMM_ERR_PORT);
 562              		.loc 1 77 5 discriminator 1 view .LVU159
 563 006e 184B     		ldr	r3, .L66+12
 564 0070 1B78     		ldrb	r3, [r3]	@ zero_extendqisi2
 565 0072 012B     		cmp	r3, #1
 566 0074 01D8     		bhi	.L63
 567              	.LVL70:
 568              	.L50:
  77:../Switch/core/yt/yt_dos.c ****     CMM_PARAM_CHK((!(CMM_PORT_VALID(unit, port))), CMM_ERR_PORT);
 569              		.loc 1 77 5 discriminator 5 view .LVU160
  77:../Switch/core/yt/yt_dos.c ****     CMM_PARAM_CHK((!(CMM_PORT_VALID(unit, port))), CMM_ERR_PORT);
 570              		.loc 1 77 5 discriminator 5 view .LVU161
  77:../Switch/core/yt/yt_dos.c ****     CMM_PARAM_CHK((!(CMM_PORT_VALID(unit, port))), CMM_ERR_PORT);
 571              		.loc 1 77 5 discriminator 5 view .LVU162
 572 0076 0420     		movs	r0, #4
 573 0078 DCE7     		b	.L43
 574              	.LVL71:
 575              	.L63:
  77:../Switch/core/yt/yt_dos.c ****     CMM_PARAM_CHK((!(CMM_PORT_VALID(unit, port))), CMM_ERR_PORT);
 576              		.loc 1 77 5 discriminator 3 view .LVU163
 577              	.LBB12:
  77:../Switch/core/yt/yt_dos.c ****     CMM_PARAM_CHK((!(CMM_PORT_VALID(unit, port))), CMM_ERR_PORT);
 578              		.loc 1 77 5 discriminator 3 view .LVU164
 579 007a 164B     		ldr	r3, .L66+16
 580 007c 1A69     		ldr	r2, [r3, #16]
 581              	.LVL72:
  77:../Switch/core/yt/yt_dos.c ****     CMM_PARAM_CHK((!(CMM_PORT_VALID(unit, port))), CMM_ERR_PORT);
 582              		.loc 1 77 5 is_stmt 0 discriminator 3 view .LVU165
 583 007e 164B     		ldr	r3, .L66+20
 584 0080 9968     		ldr	r1, [r3, #8]
 585              	.LVL73:
  77:../Switch/core/yt/yt_dos.c ****     CMM_PARAM_CHK((!(CMM_PORT_VALID(unit, port))), CMM_ERR_PORT);
 586              		.loc 1 77 5 discriminator 3 view .LVU166
 587 0082 1648     		ldr	r0, .L66+24
 588 0084 FFF7FEFF 		bl	osal_printf
 589              	.LVL74:
 590 0088 F5E7     		b	.L50
 591              	.LVL75:
 592              	.L51:
  77:../Switch/core/yt/yt_dos.c ****     CMM_PARAM_CHK((!(CMM_PORT_VALID(unit, port))), CMM_ERR_PORT);
 593              		.loc 1 77 5 discriminator 3 view .LVU167
 594              	.LBE12:
  78:../Switch/core/yt/yt_dos.c ****     CMM_PARAM_CHK((NULL == pEnable), CMM_ERR_NULL_POINT);
 595              		.loc 1 78 5 is_stmt 1 discriminator 3 view .LVU168
  78:../Switch/core/yt/yt_dos.c ****     CMM_PARAM_CHK((NULL == pEnable), CMM_ERR_NULL_POINT);
 596              		.loc 1 78 5 discriminator 3 view .LVU169
 597 008a 114B     		ldr	r3, .L66+12
 598 008c 1B78     		ldrb	r3, [r3]	@ zero_extendqisi2
 599 008e 012B     		cmp	r3, #1
 600 0090 01D8     		bhi	.L64
 601              	.LVL76:
 602              	.L53:
  78:../Switch/core/yt/yt_dos.c ****     CMM_PARAM_CHK((NULL == pEnable), CMM_ERR_NULL_POINT);
 603              		.loc 1 78 5 discriminator 7 view .LVU170
  78:../Switch/core/yt/yt_dos.c ****     CMM_PARAM_CHK((NULL == pEnable), CMM_ERR_NULL_POINT);
 604              		.loc 1 78 5 discriminator 7 view .LVU171
  78:../Switch/core/yt/yt_dos.c ****     CMM_PARAM_CHK((NULL == pEnable), CMM_ERR_NULL_POINT);
 605              		.loc 1 78 5 discriminator 7 view .LVU172
 606 0092 0E20     		movs	r0, #14
 607 0094 CEE7     		b	.L43
 608              	.LVL77:
 609              	.L64:
  78:../Switch/core/yt/yt_dos.c ****     CMM_PARAM_CHK((NULL == pEnable), CMM_ERR_NULL_POINT);
 610              		.loc 1 78 5 discriminator 5 view .LVU173
 611              	.LBB13:
  78:../Switch/core/yt/yt_dos.c ****     CMM_PARAM_CHK((NULL == pEnable), CMM_ERR_NULL_POINT);
 612              		.loc 1 78 5 discriminator 5 view .LVU174
 613 0096 0F4B     		ldr	r3, .L66+16
 614 0098 9A6B     		ldr	r2, [r3, #56]
 615              	.LVL78:
  78:../Switch/core/yt/yt_dos.c ****     CMM_PARAM_CHK((NULL == pEnable), CMM_ERR_NULL_POINT);
 616              		.loc 1 78 5 is_stmt 0 discriminator 5 view .LVU175
 617 009a 0F4B     		ldr	r3, .L66+20
 618 009c 9968     		ldr	r1, [r3, #8]
 619              	.LVL79:
  78:../Switch/core/yt/yt_dos.c ****     CMM_PARAM_CHK((NULL == pEnable), CMM_ERR_NULL_POINT);
 620              		.loc 1 78 5 discriminator 5 view .LVU176
 621 009e 0F48     		ldr	r0, .L66+24
 622 00a0 FFF7FEFF 		bl	osal_printf
 623              	.LVL80:
 624 00a4 F5E7     		b	.L53
 625              	.LVL81:
 626              	.L60:
  78:../Switch/core/yt/yt_dos.c ****     CMM_PARAM_CHK((NULL == pEnable), CMM_ERR_NULL_POINT);
 627              		.loc 1 78 5 discriminator 5 view .LVU177
 628              	.LBE13:
  79:../Switch/core/yt/yt_dos.c **** 
 629              		.loc 1 79 5 is_stmt 1 discriminator 1 view .LVU178
  79:../Switch/core/yt/yt_dos.c **** 
 630              		.loc 1 79 5 discriminator 1 view .LVU179
 631 00a6 0A4B     		ldr	r3, .L66+12
 632 00a8 1B78     		ldrb	r3, [r3]	@ zero_extendqisi2
 633 00aa 012B     		cmp	r3, #1
 634 00ac 01D8     		bhi	.L65
 635              	.LVL82:
 636              	.L55:
  79:../Switch/core/yt/yt_dos.c **** 
 637              		.loc 1 79 5 discriminator 5 view .LVU180
  79:../Switch/core/yt/yt_dos.c **** 
 638              		.loc 1 79 5 discriminator 5 view .LVU181
  79:../Switch/core/yt/yt_dos.c **** 
 639              		.loc 1 79 5 discriminator 5 view .LVU182
 640 00ae 0220     		movs	r0, #2
 641 00b0 C0E7     		b	.L43
 642              	.LVL83:
 643              	.L65:
  79:../Switch/core/yt/yt_dos.c **** 
 644              		.loc 1 79 5 discriminator 3 view .LVU183
 645              	.LBB14:
  79:../Switch/core/yt/yt_dos.c **** 
 646              		.loc 1 79 5 discriminator 3 view .LVU184
 647 00b2 084B     		ldr	r3, .L66+16
 648 00b4 9A68     		ldr	r2, [r3, #8]
 649              	.LVL84:
  79:../Switch/core/yt/yt_dos.c **** 
 650              		.loc 1 79 5 is_stmt 0 discriminator 3 view .LVU185
 651 00b6 084B     		ldr	r3, .L66+20
 652 00b8 9968     		ldr	r1, [r3, #8]
 653              	.LVL85:
  79:../Switch/core/yt/yt_dos.c **** 
 654              		.loc 1 79 5 discriminator 3 view .LVU186
 655 00ba 0848     		ldr	r0, .L66+24
 656 00bc FFF7FEFF 		bl	osal_printf
 657              	.LVL86:
 658 00c0 F5E7     		b	.L55
 659              	.L67:
 660 00c2 00BF     		.align	2
 661              	.L66:
 662 00c4 00000000 		.word	gpfal_dispatch
 663 00c8 00000000 		.word	gcal_inited
 664 00cc 00000000 		.word	gpSwitchUnit
 665 00d0 00000000 		.word	yt_debug_level
 666 00d4 00000000 		.word	_yt_errmsg
 667 00d8 00000000 		.word	_yt_prompt_msg
 668 00dc 00000000 		.word	.LC0
 669              	.LBE14:
 670              		.cfi_endproc
 671              	.LFE5:
 673              		.section	.text.yt_dos_drop_en_set,"ax",%progbits
 674              		.align	1
 675              		.global	yt_dos_drop_en_set
 676              		.syntax unified
 677              		.thumb
 678              		.thumb_func
 680              	yt_dos_drop_en_set:
 681              	.LVL87:
 682              	.LFB6:
  83:../Switch/core/yt/yt_dos.c **** 
  84:../Switch/core/yt/yt_dos.c **** /**
  85:../Switch/core/yt/yt_dos.c ****  * @internal      yt_dos_drop_en_set
  86:../Switch/core/yt/yt_dos.c ****  * @endinternal
  87:../Switch/core/yt/yt_dos.c ****  *
  88:../Switch/core/yt/yt_dos.c ****  * @brief         Description
  89:../Switch/core/yt/yt_dos.c ****  * @note          APPLICABLE DEVICES  -Tiger
  90:../Switch/core/yt/yt_dos.c ****  * @param[in]     unit                -unit id
  91:../Switch/core/yt/yt_dos.c ****  * @param[in]     type                -type defined of dos
  92:../Switch/core/yt/yt_dos.c ****  * @param[in]     enable              -enable or disable
  93:../Switch/core/yt/yt_dos.c ****  * @retval        CMM_ERR_OK          -on success
  94:../Switch/core/yt/yt_dos.c ****  * @retval        CMM_ERR_FAIL        -on fail
  95:../Switch/core/yt/yt_dos.c ****  */
  96:../Switch/core/yt/yt_dos.c **** yt_ret_t yt_dos_drop_en_set(yt_unit_t unit, yt_dos_type_t type, yt_enable_t enable)
  97:../Switch/core/yt/yt_dos.c **** {
 683              		.loc 1 97 1 is_stmt 1 view -0
 684              		.cfi_startproc
 685              		@ args = 0, pretend = 0, frame = 0
 686              		@ frame_needed = 0, uses_anonymous_args = 0
 687              		.loc 1 97 1 is_stmt 0 view .LVU188
 688 0000 08B5     		push	{r3, lr}
 689              		.cfi_def_cfa_offset 8
 690              		.cfi_offset 3, -8
 691              		.cfi_offset 14, -4
  98:../Switch/core/yt/yt_dos.c ****     CMM_PARAM_CHK((YT_UNIT_NUM <= unit), CMM_ERR_INPUT);
 692              		.loc 1 98 5 is_stmt 1 view .LVU189
 693              		.loc 1 98 5 view .LVU190
 694 0002 68B9     		cbnz	r0, .L79
 695 0004 8446     		mov	ip, r0
 696              		.loc 1 98 5 discriminator 2 view .LVU191
  99:../Switch/core/yt/yt_dos.c ****     CMM_PARAM_CHK(NULL == YT_DISPATCH(unit), CMM_ERR_NOT_INIT);
 697              		.loc 1 99 5 discriminator 2 view .LVU192
 698              		.loc 1 99 5 discriminator 2 view .LVU193
 699 0006 224B     		ldr	r3, .L87
 700 0008 53F82030 		ldr	r3, [r3, r0, lsl #2]
 701 000c B3B1     		cbz	r3, .L80
 702              		.loc 1 99 5 discriminator 2 view .LVU194
 100:../Switch/core/yt/yt_dos.c ****     CMM_PARAM_CHK((!(YT_DISPATCH(unit)->is_inited)), CMM_ERR_NOT_INIT);
 703              		.loc 1 100 5 discriminator 2 view .LVU195
 704              		.loc 1 100 5 discriminator 2 view .LVU196
 705 000e 1878     		ldrb	r0, [r3]	@ zero_extendqisi2
 706              	.LVL88:
 707              		.loc 1 100 5 is_stmt 0 discriminator 2 view .LVU197
 708 0010 10B3     		cbz	r0, .L81
 709              		.loc 1 100 5 is_stmt 1 discriminator 2 view .LVU198
 101:../Switch/core/yt/yt_dos.c ****     CMM_PARAM_CHK((YT_ENABLE < enable || YT_DISABLE > enable), CMM_ERR_INPUT);
 710              		.loc 1 101 5 discriminator 2 view .LVU199
 711              		.loc 1 101 5 discriminator 2 view .LVU200
 712 0012 012A     		cmp	r2, #1
 713 0014 2ED8     		bhi	.L82
 714              		.loc 1 101 5 discriminator 2 view .LVU201
 102:../Switch/core/yt/yt_dos.c **** 
 103:../Switch/core/yt/yt_dos.c ****     return YT_DISPATCH(unit)->dos_drop_en_set(unit, type, enable);
 715              		.loc 1 103 5 discriminator 2 view .LVU202
 716              		.loc 1 103 29 is_stmt 0 discriminator 2 view .LVU203
 717 0016 D3F8E430 		ldr	r3, [r3, #228]
 718              		.loc 1 103 12 discriminator 2 view .LVU204
 719 001a 6046     		mov	r0, ip
 720 001c 9847     		blx	r3
 721              	.LVL89:
 722              	.L68:
 104:../Switch/core/yt/yt_dos.c **** }
 723              		.loc 1 104 1 view .LVU205
 724 001e 08BD     		pop	{r3, pc}
 725              	.LVL90:
 726              	.L79:
  98:../Switch/core/yt/yt_dos.c ****     CMM_PARAM_CHK(NULL == YT_DISPATCH(unit), CMM_ERR_NOT_INIT);
 727              		.loc 1 98 5 is_stmt 1 discriminator 1 view .LVU206
  98:../Switch/core/yt/yt_dos.c ****     CMM_PARAM_CHK(NULL == YT_DISPATCH(unit), CMM_ERR_NOT_INIT);
 728              		.loc 1 98 5 discriminator 1 view .LVU207
 729 0020 1C4B     		ldr	r3, .L87+4
 730 0022 1B78     		ldrb	r3, [r3]	@ zero_extendqisi2
 731 0024 012B     		cmp	r3, #1
 732 0026 01D8     		bhi	.L83
 733              	.LVL91:
 734              	.L70:
  98:../Switch/core/yt/yt_dos.c ****     CMM_PARAM_CHK(NULL == YT_DISPATCH(unit), CMM_ERR_NOT_INIT);
 735              		.loc 1 98 5 discriminator 5 view .LVU208
  98:../Switch/core/yt/yt_dos.c ****     CMM_PARAM_CHK(NULL == YT_DISPATCH(unit), CMM_ERR_NOT_INIT);
 736              		.loc 1 98 5 discriminator 5 view .LVU209
  98:../Switch/core/yt/yt_dos.c ****     CMM_PARAM_CHK(NULL == YT_DISPATCH(unit), CMM_ERR_NOT_INIT);
 737              		.loc 1 98 5 discriminator 5 view .LVU210
 738 0028 0520     		movs	r0, #5
 739 002a F8E7     		b	.L68
 740              	.LVL92:
 741              	.L83:
  98:../Switch/core/yt/yt_dos.c ****     CMM_PARAM_CHK(NULL == YT_DISPATCH(unit), CMM_ERR_NOT_INIT);
 742              		.loc 1 98 5 discriminator 3 view .LVU211
 743              	.LBB15:
  98:../Switch/core/yt/yt_dos.c ****     CMM_PARAM_CHK(NULL == YT_DISPATCH(unit), CMM_ERR_NOT_INIT);
 744              		.loc 1 98 5 discriminator 3 view .LVU212
 745 002c 1A4B     		ldr	r3, .L87+8
 746 002e 5A69     		ldr	r2, [r3, #20]
 747              	.LVL93:
  98:../Switch/core/yt/yt_dos.c ****     CMM_PARAM_CHK(NULL == YT_DISPATCH(unit), CMM_ERR_NOT_INIT);
 748              		.loc 1 98 5 is_stmt 0 discriminator 3 view .LVU213
 749 0030 1A4B     		ldr	r3, .L87+12
 750 0032 9968     		ldr	r1, [r3, #8]
 751              	.LVL94:
  98:../Switch/core/yt/yt_dos.c ****     CMM_PARAM_CHK(NULL == YT_DISPATCH(unit), CMM_ERR_NOT_INIT);
 752              		.loc 1 98 5 discriminator 3 view .LVU214
 753 0034 1A48     		ldr	r0, .L87+16
 754              	.LVL95:
  98:../Switch/core/yt/yt_dos.c ****     CMM_PARAM_CHK(NULL == YT_DISPATCH(unit), CMM_ERR_NOT_INIT);
 755              		.loc 1 98 5 discriminator 3 view .LVU215
 756 0036 FFF7FEFF 		bl	osal_printf
 757              	.LVL96:
 758 003a F5E7     		b	.L70
 759              	.LVL97:
 760              	.L80:
  98:../Switch/core/yt/yt_dos.c ****     CMM_PARAM_CHK(NULL == YT_DISPATCH(unit), CMM_ERR_NOT_INIT);
 761              		.loc 1 98 5 discriminator 3 view .LVU216
 762              	.LBE15:
  99:../Switch/core/yt/yt_dos.c ****     CMM_PARAM_CHK((!(YT_DISPATCH(unit)->is_inited)), CMM_ERR_NOT_INIT);
 763              		.loc 1 99 5 is_stmt 1 discriminator 1 view .LVU217
  99:../Switch/core/yt/yt_dos.c ****     CMM_PARAM_CHK((!(YT_DISPATCH(unit)->is_inited)), CMM_ERR_NOT_INIT);
 764              		.loc 1 99 5 discriminator 1 view .LVU218
 765 003c 154B     		ldr	r3, .L87+4
 766 003e 1B78     		ldrb	r3, [r3]	@ zero_extendqisi2
 767 0040 012B     		cmp	r3, #1
 768 0042 01D8     		bhi	.L84
 769              	.LVL98:
 770              	.L73:
  99:../Switch/core/yt/yt_dos.c ****     CMM_PARAM_CHK((!(YT_DISPATCH(unit)->is_inited)), CMM_ERR_NOT_INIT);
 771              		.loc 1 99 5 discriminator 5 view .LVU219
  99:../Switch/core/yt/yt_dos.c ****     CMM_PARAM_CHK((!(YT_DISPATCH(unit)->is_inited)), CMM_ERR_NOT_INIT);
 772              		.loc 1 99 5 discriminator 5 view .LVU220
  99:../Switch/core/yt/yt_dos.c ****     CMM_PARAM_CHK((!(YT_DISPATCH(unit)->is_inited)), CMM_ERR_NOT_INIT);
 773              		.loc 1 99 5 discriminator 5 view .LVU221
 774 0044 0420     		movs	r0, #4
 775 0046 EAE7     		b	.L68
 776              	.LVL99:
 777              	.L84:
  99:../Switch/core/yt/yt_dos.c ****     CMM_PARAM_CHK((!(YT_DISPATCH(unit)->is_inited)), CMM_ERR_NOT_INIT);
 778              		.loc 1 99 5 discriminator 3 view .LVU222
 779              	.LBB16:
  99:../Switch/core/yt/yt_dos.c ****     CMM_PARAM_CHK((!(YT_DISPATCH(unit)->is_inited)), CMM_ERR_NOT_INIT);
 780              		.loc 1 99 5 discriminator 3 view .LVU223
 781 0048 134B     		ldr	r3, .L87+8
 782 004a 1A69     		ldr	r2, [r3, #16]
 783              	.LVL100:
  99:../Switch/core/yt/yt_dos.c ****     CMM_PARAM_CHK((!(YT_DISPATCH(unit)->is_inited)), CMM_ERR_NOT_INIT);
 784              		.loc 1 99 5 is_stmt 0 discriminator 3 view .LVU224
 785 004c 134B     		ldr	r3, .L87+12
 786 004e 9968     		ldr	r1, [r3, #8]
 787              	.LVL101:
  99:../Switch/core/yt/yt_dos.c ****     CMM_PARAM_CHK((!(YT_DISPATCH(unit)->is_inited)), CMM_ERR_NOT_INIT);
 788              		.loc 1 99 5 discriminator 3 view .LVU225
 789 0050 1348     		ldr	r0, .L87+16
 790              	.LVL102:
  99:../Switch/core/yt/yt_dos.c ****     CMM_PARAM_CHK((!(YT_DISPATCH(unit)->is_inited)), CMM_ERR_NOT_INIT);
 791              		.loc 1 99 5 discriminator 3 view .LVU226
 792 0052 FFF7FEFF 		bl	osal_printf
 793              	.LVL103:
 794 0056 F5E7     		b	.L73
 795              	.LVL104:
 796              	.L81:
  99:../Switch/core/yt/yt_dos.c ****     CMM_PARAM_CHK((!(YT_DISPATCH(unit)->is_inited)), CMM_ERR_NOT_INIT);
 797              		.loc 1 99 5 discriminator 3 view .LVU227
 798              	.LBE16:
 100:../Switch/core/yt/yt_dos.c ****     CMM_PARAM_CHK((YT_ENABLE < enable || YT_DISABLE > enable), CMM_ERR_INPUT);
 799              		.loc 1 100 5 is_stmt 1 discriminator 1 view .LVU228
 100:../Switch/core/yt/yt_dos.c ****     CMM_PARAM_CHK((YT_ENABLE < enable || YT_DISABLE > enable), CMM_ERR_INPUT);
 800              		.loc 1 100 5 discriminator 1 view .LVU229
 801 0058 0E4B     		ldr	r3, .L87+4
 802 005a 1B78     		ldrb	r3, [r3]	@ zero_extendqisi2
 803 005c 012B     		cmp	r3, #1
 804 005e 01D8     		bhi	.L85
 805              	.LVL105:
 806              	.L75:
 100:../Switch/core/yt/yt_dos.c ****     CMM_PARAM_CHK((YT_ENABLE < enable || YT_DISABLE > enable), CMM_ERR_INPUT);
 807              		.loc 1 100 5 discriminator 5 view .LVU230
 100:../Switch/core/yt/yt_dos.c ****     CMM_PARAM_CHK((YT_ENABLE < enable || YT_DISABLE > enable), CMM_ERR_INPUT);
 808              		.loc 1 100 5 discriminator 5 view .LVU231
 100:../Switch/core/yt/yt_dos.c ****     CMM_PARAM_CHK((YT_ENABLE < enable || YT_DISABLE > enable), CMM_ERR_INPUT);
 809              		.loc 1 100 5 discriminator 5 view .LVU232
 810 0060 0420     		movs	r0, #4
 811 0062 DCE7     		b	.L68
 812              	.LVL106:
 813              	.L85:
 100:../Switch/core/yt/yt_dos.c ****     CMM_PARAM_CHK((YT_ENABLE < enable || YT_DISABLE > enable), CMM_ERR_INPUT);
 814              		.loc 1 100 5 discriminator 3 view .LVU233
 815              	.LBB17:
 100:../Switch/core/yt/yt_dos.c ****     CMM_PARAM_CHK((YT_ENABLE < enable || YT_DISABLE > enable), CMM_ERR_INPUT);
 816              		.loc 1 100 5 discriminator 3 view .LVU234
 817 0064 0C4B     		ldr	r3, .L87+8
 818 0066 1A69     		ldr	r2, [r3, #16]
 819              	.LVL107:
 100:../Switch/core/yt/yt_dos.c ****     CMM_PARAM_CHK((YT_ENABLE < enable || YT_DISABLE > enable), CMM_ERR_INPUT);
 820              		.loc 1 100 5 is_stmt 0 discriminator 3 view .LVU235
 821 0068 0C4B     		ldr	r3, .L87+12
 822 006a 9968     		ldr	r1, [r3, #8]
 823              	.LVL108:
 100:../Switch/core/yt/yt_dos.c ****     CMM_PARAM_CHK((YT_ENABLE < enable || YT_DISABLE > enable), CMM_ERR_INPUT);
 824              		.loc 1 100 5 discriminator 3 view .LVU236
 825 006c 0C48     		ldr	r0, .L87+16
 826 006e FFF7FEFF 		bl	osal_printf
 827              	.LVL109:
 828 0072 F5E7     		b	.L75
 829              	.LVL110:
 830              	.L82:
 100:../Switch/core/yt/yt_dos.c ****     CMM_PARAM_CHK((YT_ENABLE < enable || YT_DISABLE > enable), CMM_ERR_INPUT);
 831              		.loc 1 100 5 discriminator 3 view .LVU237
 832              	.LBE17:
 101:../Switch/core/yt/yt_dos.c **** 
 833              		.loc 1 101 5 is_stmt 1 discriminator 1 view .LVU238
 101:../Switch/core/yt/yt_dos.c **** 
 834              		.loc 1 101 5 discriminator 1 view .LVU239
 835 0074 074B     		ldr	r3, .L87+4
 836 0076 1B78     		ldrb	r3, [r3]	@ zero_extendqisi2
 837 0078 012B     		cmp	r3, #1
 838 007a 01D8     		bhi	.L86
 839              	.LVL111:
 840              	.L77:
 101:../Switch/core/yt/yt_dos.c **** 
 841              		.loc 1 101 5 discriminator 5 view .LVU240
 101:../Switch/core/yt/yt_dos.c **** 
 842              		.loc 1 101 5 discriminator 5 view .LVU241
 101:../Switch/core/yt/yt_dos.c **** 
 843              		.loc 1 101 5 discriminator 5 view .LVU242
 844 007c 0520     		movs	r0, #5
 845 007e CEE7     		b	.L68
 846              	.LVL112:
 847              	.L86:
 101:../Switch/core/yt/yt_dos.c **** 
 848              		.loc 1 101 5 discriminator 3 view .LVU243
 849              	.LBB18:
 101:../Switch/core/yt/yt_dos.c **** 
 850              		.loc 1 101 5 discriminator 3 view .LVU244
 851 0080 054B     		ldr	r3, .L87+8
 852 0082 5A69     		ldr	r2, [r3, #20]
 853              	.LVL113:
 101:../Switch/core/yt/yt_dos.c **** 
 854              		.loc 1 101 5 is_stmt 0 discriminator 3 view .LVU245
 855 0084 054B     		ldr	r3, .L87+12
 856 0086 9968     		ldr	r1, [r3, #8]
 857              	.LVL114:
 101:../Switch/core/yt/yt_dos.c **** 
 858              		.loc 1 101 5 discriminator 3 view .LVU246
 859 0088 0548     		ldr	r0, .L87+16
 860 008a FFF7FEFF 		bl	osal_printf
 861              	.LVL115:
 862 008e F5E7     		b	.L77
 863              	.L88:
 864              		.align	2
 865              	.L87:
 866 0090 00000000 		.word	gpfal_dispatch
 867 0094 00000000 		.word	yt_debug_level
 868 0098 00000000 		.word	_yt_errmsg
 869 009c 00000000 		.word	_yt_prompt_msg
 870 00a0 00000000 		.word	.LC0
 871              	.LBE18:
 872              		.cfi_endproc
 873              	.LFE6:
 875              		.section	.text.yt_dos_drop_en_get,"ax",%progbits
 876              		.align	1
 877              		.global	yt_dos_drop_en_get
 878              		.syntax unified
 879              		.thumb
 880              		.thumb_func
 882              	yt_dos_drop_en_get:
 883              	.LVL116:
 884              	.LFB7:
 105:../Switch/core/yt/yt_dos.c **** 
 106:../Switch/core/yt/yt_dos.c **** /**
 107:../Switch/core/yt/yt_dos.c ****  * @internal      yt_dos_drop_en_get
 108:../Switch/core/yt/yt_dos.c ****  * @endinternal
 109:../Switch/core/yt/yt_dos.c ****  *
 110:../Switch/core/yt/yt_dos.c ****  * @brief         Description
 111:../Switch/core/yt/yt_dos.c ****  * @note          APPLICABLE DEVICES  -Tiger
 112:../Switch/core/yt/yt_dos.c ****  * @param[in]     unit                -unit id
 113:../Switch/core/yt/yt_dos.c ****  * @param[in]     type                -type defined of dos
 114:../Switch/core/yt/yt_dos.c ****  * @param[out]    pEnable             -enable or disable
 115:../Switch/core/yt/yt_dos.c ****  * @retval        CMM_ERR_OK          -on success
 116:../Switch/core/yt/yt_dos.c ****  * @retval        CMM_ERR_FAIL        -on fail
 117:../Switch/core/yt/yt_dos.c ****  */
 118:../Switch/core/yt/yt_dos.c **** yt_ret_t yt_dos_drop_en_get(yt_unit_t unit, yt_dos_type_t type, yt_enable_t *pEnable)
 119:../Switch/core/yt/yt_dos.c **** {
 885              		.loc 1 119 1 is_stmt 1 view -0
 886              		.cfi_startproc
 887              		@ args = 0, pretend = 0, frame = 0
 888              		@ frame_needed = 0, uses_anonymous_args = 0
 889              		.loc 1 119 1 is_stmt 0 view .LVU248
 890 0000 08B5     		push	{r3, lr}
 891              		.cfi_def_cfa_offset 8
 892              		.cfi_offset 3, -8
 893              		.cfi_offset 14, -4
 120:../Switch/core/yt/yt_dos.c ****     CMM_PARAM_CHK((YT_UNIT_NUM <= unit), CMM_ERR_INPUT);
 894              		.loc 1 120 5 is_stmt 1 view .LVU249
 895              		.loc 1 120 5 view .LVU250
 896 0002 68B9     		cbnz	r0, .L100
 897 0004 8446     		mov	ip, r0
 898              		.loc 1 120 5 discriminator 2 view .LVU251
 121:../Switch/core/yt/yt_dos.c ****     CMM_PARAM_CHK(NULL == YT_DISPATCH(unit), CMM_ERR_NOT_INIT);
 899              		.loc 1 121 5 discriminator 2 view .LVU252
 900              		.loc 1 121 5 discriminator 2 view .LVU253
 901 0006 224B     		ldr	r3, .L108
 902 0008 53F82030 		ldr	r3, [r3, r0, lsl #2]
 903 000c B3B1     		cbz	r3, .L101
 904              		.loc 1 121 5 discriminator 2 view .LVU254
 122:../Switch/core/yt/yt_dos.c ****     CMM_PARAM_CHK((!(YT_DISPATCH(unit)->is_inited)), CMM_ERR_NOT_INIT);
 905              		.loc 1 122 5 discriminator 2 view .LVU255
 906              		.loc 1 122 5 discriminator 2 view .LVU256
 907 000e 1878     		ldrb	r0, [r3]	@ zero_extendqisi2
 908              	.LVL117:
 909              		.loc 1 122 5 is_stmt 0 discriminator 2 view .LVU257
 910 0010 10B3     		cbz	r0, .L102
 911              		.loc 1 122 5 is_stmt 1 discriminator 2 view .LVU258
 123:../Switch/core/yt/yt_dos.c ****     CMM_PARAM_CHK((NULL == pEnable), CMM_ERR_NULL_POINT);
 912              		.loc 1 123 5 discriminator 2 view .LVU259
 913              		.loc 1 123 5 discriminator 2 view .LVU260
 914 0012 002A     		cmp	r2, #0
 915 0014 2ED0     		beq	.L103
 916              		.loc 1 123 5 discriminator 2 view .LVU261
 124:../Switch/core/yt/yt_dos.c **** 
 125:../Switch/core/yt/yt_dos.c ****     return YT_DISPATCH(unit)->dos_drop_en_get(unit, type, pEnable);
 917              		.loc 1 125 5 discriminator 2 view .LVU262
 918              		.loc 1 125 29 is_stmt 0 discriminator 2 view .LVU263
 919 0016 D3F8E830 		ldr	r3, [r3, #232]
 920              		.loc 1 125 12 discriminator 2 view .LVU264
 921 001a 6046     		mov	r0, ip
 922 001c 9847     		blx	r3
 923              	.LVL118:
 924              	.L89:
 126:../Switch/core/yt/yt_dos.c **** }
 925              		.loc 1 126 1 view .LVU265
 926 001e 08BD     		pop	{r3, pc}
 927              	.LVL119:
 928              	.L100:
 120:../Switch/core/yt/yt_dos.c ****     CMM_PARAM_CHK(NULL == YT_DISPATCH(unit), CMM_ERR_NOT_INIT);
 929              		.loc 1 120 5 is_stmt 1 discriminator 1 view .LVU266
 120:../Switch/core/yt/yt_dos.c ****     CMM_PARAM_CHK(NULL == YT_DISPATCH(unit), CMM_ERR_NOT_INIT);
 930              		.loc 1 120 5 discriminator 1 view .LVU267
 931 0020 1C4B     		ldr	r3, .L108+4
 932 0022 1B78     		ldrb	r3, [r3]	@ zero_extendqisi2
 933 0024 012B     		cmp	r3, #1
 934 0026 01D8     		bhi	.L104
 935              	.LVL120:
 936              	.L91:
 120:../Switch/core/yt/yt_dos.c ****     CMM_PARAM_CHK(NULL == YT_DISPATCH(unit), CMM_ERR_NOT_INIT);
 937              		.loc 1 120 5 discriminator 5 view .LVU268
 120:../Switch/core/yt/yt_dos.c ****     CMM_PARAM_CHK(NULL == YT_DISPATCH(unit), CMM_ERR_NOT_INIT);
 938              		.loc 1 120 5 discriminator 5 view .LVU269
 120:../Switch/core/yt/yt_dos.c ****     CMM_PARAM_CHK(NULL == YT_DISPATCH(unit), CMM_ERR_NOT_INIT);
 939              		.loc 1 120 5 discriminator 5 view .LVU270
 940 0028 0520     		movs	r0, #5
 941 002a F8E7     		b	.L89
 942              	.LVL121:
 943              	.L104:
 120:../Switch/core/yt/yt_dos.c ****     CMM_PARAM_CHK(NULL == YT_DISPATCH(unit), CMM_ERR_NOT_INIT);
 944              		.loc 1 120 5 discriminator 3 view .LVU271
 945              	.LBB19:
 120:../Switch/core/yt/yt_dos.c ****     CMM_PARAM_CHK(NULL == YT_DISPATCH(unit), CMM_ERR_NOT_INIT);
 946              		.loc 1 120 5 discriminator 3 view .LVU272
 947 002c 1A4B     		ldr	r3, .L108+8
 948 002e 5A69     		ldr	r2, [r3, #20]
 949              	.LVL122:
 120:../Switch/core/yt/yt_dos.c ****     CMM_PARAM_CHK(NULL == YT_DISPATCH(unit), CMM_ERR_NOT_INIT);
 950              		.loc 1 120 5 is_stmt 0 discriminator 3 view .LVU273
 951 0030 1A4B     		ldr	r3, .L108+12
 952 0032 9968     		ldr	r1, [r3, #8]
 953              	.LVL123:
 120:../Switch/core/yt/yt_dos.c ****     CMM_PARAM_CHK(NULL == YT_DISPATCH(unit), CMM_ERR_NOT_INIT);
 954              		.loc 1 120 5 discriminator 3 view .LVU274
 955 0034 1A48     		ldr	r0, .L108+16
 956              	.LVL124:
 120:../Switch/core/yt/yt_dos.c ****     CMM_PARAM_CHK(NULL == YT_DISPATCH(unit), CMM_ERR_NOT_INIT);
 957              		.loc 1 120 5 discriminator 3 view .LVU275
 958 0036 FFF7FEFF 		bl	osal_printf
 959              	.LVL125:
 960 003a F5E7     		b	.L91
 961              	.LVL126:
 962              	.L101:
 120:../Switch/core/yt/yt_dos.c ****     CMM_PARAM_CHK(NULL == YT_DISPATCH(unit), CMM_ERR_NOT_INIT);
 963              		.loc 1 120 5 discriminator 3 view .LVU276
 964              	.LBE19:
 121:../Switch/core/yt/yt_dos.c ****     CMM_PARAM_CHK((!(YT_DISPATCH(unit)->is_inited)), CMM_ERR_NOT_INIT);
 965              		.loc 1 121 5 is_stmt 1 discriminator 1 view .LVU277
 121:../Switch/core/yt/yt_dos.c ****     CMM_PARAM_CHK((!(YT_DISPATCH(unit)->is_inited)), CMM_ERR_NOT_INIT);
 966              		.loc 1 121 5 discriminator 1 view .LVU278
 967 003c 154B     		ldr	r3, .L108+4
 968 003e 1B78     		ldrb	r3, [r3]	@ zero_extendqisi2
 969 0040 012B     		cmp	r3, #1
 970 0042 01D8     		bhi	.L105
 971              	.LVL127:
 972              	.L94:
 121:../Switch/core/yt/yt_dos.c ****     CMM_PARAM_CHK((!(YT_DISPATCH(unit)->is_inited)), CMM_ERR_NOT_INIT);
 973              		.loc 1 121 5 discriminator 5 view .LVU279
 121:../Switch/core/yt/yt_dos.c ****     CMM_PARAM_CHK((!(YT_DISPATCH(unit)->is_inited)), CMM_ERR_NOT_INIT);
 974              		.loc 1 121 5 discriminator 5 view .LVU280
 121:../Switch/core/yt/yt_dos.c ****     CMM_PARAM_CHK((!(YT_DISPATCH(unit)->is_inited)), CMM_ERR_NOT_INIT);
 975              		.loc 1 121 5 discriminator 5 view .LVU281
 976 0044 0420     		movs	r0, #4
 977 0046 EAE7     		b	.L89
 978              	.LVL128:
 979              	.L105:
 121:../Switch/core/yt/yt_dos.c ****     CMM_PARAM_CHK((!(YT_DISPATCH(unit)->is_inited)), CMM_ERR_NOT_INIT);
 980              		.loc 1 121 5 discriminator 3 view .LVU282
 981              	.LBB20:
 121:../Switch/core/yt/yt_dos.c ****     CMM_PARAM_CHK((!(YT_DISPATCH(unit)->is_inited)), CMM_ERR_NOT_INIT);
 982              		.loc 1 121 5 discriminator 3 view .LVU283
 983 0048 134B     		ldr	r3, .L108+8
 984 004a 1A69     		ldr	r2, [r3, #16]
 985              	.LVL129:
 121:../Switch/core/yt/yt_dos.c ****     CMM_PARAM_CHK((!(YT_DISPATCH(unit)->is_inited)), CMM_ERR_NOT_INIT);
 986              		.loc 1 121 5 is_stmt 0 discriminator 3 view .LVU284
 987 004c 134B     		ldr	r3, .L108+12
 988 004e 9968     		ldr	r1, [r3, #8]
 989              	.LVL130:
 121:../Switch/core/yt/yt_dos.c ****     CMM_PARAM_CHK((!(YT_DISPATCH(unit)->is_inited)), CMM_ERR_NOT_INIT);
 990              		.loc 1 121 5 discriminator 3 view .LVU285
 991 0050 1348     		ldr	r0, .L108+16
 992              	.LVL131:
 121:../Switch/core/yt/yt_dos.c ****     CMM_PARAM_CHK((!(YT_DISPATCH(unit)->is_inited)), CMM_ERR_NOT_INIT);
 993              		.loc 1 121 5 discriminator 3 view .LVU286
 994 0052 FFF7FEFF 		bl	osal_printf
 995              	.LVL132:
 996 0056 F5E7     		b	.L94
 997              	.LVL133:
 998              	.L102:
 121:../Switch/core/yt/yt_dos.c ****     CMM_PARAM_CHK((!(YT_DISPATCH(unit)->is_inited)), CMM_ERR_NOT_INIT);
 999              		.loc 1 121 5 discriminator 3 view .LVU287
 1000              	.LBE20:
 122:../Switch/core/yt/yt_dos.c ****     CMM_PARAM_CHK((NULL == pEnable), CMM_ERR_NULL_POINT);
 1001              		.loc 1 122 5 is_stmt 1 discriminator 1 view .LVU288
 122:../Switch/core/yt/yt_dos.c ****     CMM_PARAM_CHK((NULL == pEnable), CMM_ERR_NULL_POINT);
 1002              		.loc 1 122 5 discriminator 1 view .LVU289
 1003 0058 0E4B     		ldr	r3, .L108+4
 1004 005a 1B78     		ldrb	r3, [r3]	@ zero_extendqisi2
 1005 005c 012B     		cmp	r3, #1
 1006 005e 01D8     		bhi	.L106
 1007              	.LVL134:
 1008              	.L96:
 122:../Switch/core/yt/yt_dos.c ****     CMM_PARAM_CHK((NULL == pEnable), CMM_ERR_NULL_POINT);
 1009              		.loc 1 122 5 discriminator 5 view .LVU290
 122:../Switch/core/yt/yt_dos.c ****     CMM_PARAM_CHK((NULL == pEnable), CMM_ERR_NULL_POINT);
 1010              		.loc 1 122 5 discriminator 5 view .LVU291
 122:../Switch/core/yt/yt_dos.c ****     CMM_PARAM_CHK((NULL == pEnable), CMM_ERR_NULL_POINT);
 1011              		.loc 1 122 5 discriminator 5 view .LVU292
 1012 0060 0420     		movs	r0, #4
 1013 0062 DCE7     		b	.L89
 1014              	.LVL135:
 1015              	.L106:
 122:../Switch/core/yt/yt_dos.c ****     CMM_PARAM_CHK((NULL == pEnable), CMM_ERR_NULL_POINT);
 1016              		.loc 1 122 5 discriminator 3 view .LVU293
 1017              	.LBB21:
 122:../Switch/core/yt/yt_dos.c ****     CMM_PARAM_CHK((NULL == pEnable), CMM_ERR_NULL_POINT);
 1018              		.loc 1 122 5 discriminator 3 view .LVU294
 1019 0064 0C4B     		ldr	r3, .L108+8
 1020 0066 1A69     		ldr	r2, [r3, #16]
 1021              	.LVL136:
 122:../Switch/core/yt/yt_dos.c ****     CMM_PARAM_CHK((NULL == pEnable), CMM_ERR_NULL_POINT);
 1022              		.loc 1 122 5 is_stmt 0 discriminator 3 view .LVU295
 1023 0068 0C4B     		ldr	r3, .L108+12
 1024 006a 9968     		ldr	r1, [r3, #8]
 1025              	.LVL137:
 122:../Switch/core/yt/yt_dos.c ****     CMM_PARAM_CHK((NULL == pEnable), CMM_ERR_NULL_POINT);
 1026              		.loc 1 122 5 discriminator 3 view .LVU296
 1027 006c 0C48     		ldr	r0, .L108+16
 1028 006e FFF7FEFF 		bl	osal_printf
 1029              	.LVL138:
 1030 0072 F5E7     		b	.L96
 1031              	.LVL139:
 1032              	.L103:
 122:../Switch/core/yt/yt_dos.c ****     CMM_PARAM_CHK((NULL == pEnable), CMM_ERR_NULL_POINT);
 1033              		.loc 1 122 5 discriminator 3 view .LVU297
 1034              	.LBE21:
 123:../Switch/core/yt/yt_dos.c **** 
 1035              		.loc 1 123 5 is_stmt 1 discriminator 1 view .LVU298
 123:../Switch/core/yt/yt_dos.c **** 
 1036              		.loc 1 123 5 discriminator 1 view .LVU299
 1037 0074 074B     		ldr	r3, .L108+4
 1038 0076 1B78     		ldrb	r3, [r3]	@ zero_extendqisi2
 1039 0078 012B     		cmp	r3, #1
 1040 007a 01D8     		bhi	.L107
 1041              	.LVL140:
 1042              	.L98:
 123:../Switch/core/yt/yt_dos.c **** 
 1043              		.loc 1 123 5 discriminator 5 view .LVU300
 123:../Switch/core/yt/yt_dos.c **** 
 1044              		.loc 1 123 5 discriminator 5 view .LVU301
 123:../Switch/core/yt/yt_dos.c **** 
 1045              		.loc 1 123 5 discriminator 5 view .LVU302
 1046 007c 0220     		movs	r0, #2
 1047 007e CEE7     		b	.L89
 1048              	.LVL141:
 1049              	.L107:
 123:../Switch/core/yt/yt_dos.c **** 
 1050              		.loc 1 123 5 discriminator 3 view .LVU303
 1051              	.LBB22:
 123:../Switch/core/yt/yt_dos.c **** 
 1052              		.loc 1 123 5 discriminator 3 view .LVU304
 1053 0080 054B     		ldr	r3, .L108+8
 1054 0082 9A68     		ldr	r2, [r3, #8]
 1055              	.LVL142:
 123:../Switch/core/yt/yt_dos.c **** 
 1056              		.loc 1 123 5 is_stmt 0 discriminator 3 view .LVU305
 1057 0084 054B     		ldr	r3, .L108+12
 1058 0086 9968     		ldr	r1, [r3, #8]
 1059              	.LVL143:
 123:../Switch/core/yt/yt_dos.c **** 
 1060              		.loc 1 123 5 discriminator 3 view .LVU306
 1061 0088 0548     		ldr	r0, .L108+16
 1062 008a FFF7FEFF 		bl	osal_printf
 1063              	.LVL144:
 1064 008e F5E7     		b	.L98
 1065              	.L109:
 1066              		.align	2
 1067              	.L108:
 1068 0090 00000000 		.word	gpfal_dispatch
 1069 0094 00000000 		.word	yt_debug_level
 1070 0098 00000000 		.word	_yt_errmsg
 1071 009c 00000000 		.word	_yt_prompt_msg
 1072 00a0 00000000 		.word	.LC0
 1073              	.LBE22:
 1074              		.cfi_endproc
 1075              	.LFE7:
 1077              		.section	.text.yt_dos_large_icmp_size_set,"ax",%progbits
 1078              		.align	1
 1079              		.global	yt_dos_large_icmp_size_set
 1080              		.syntax unified
 1081              		.thumb
 1082              		.thumb_func
 1084              	yt_dos_large_icmp_size_set:
 1085              	.LVL145:
 1086              	.LFB8:
 127:../Switch/core/yt/yt_dos.c **** 
 128:../Switch/core/yt/yt_dos.c **** /**
 129:../Switch/core/yt/yt_dos.c ****  * @internal      yt_dos_large_icmp_size_set
 130:../Switch/core/yt/yt_dos.c ****  * @endinternal
 131:../Switch/core/yt/yt_dos.c ****  *
 132:../Switch/core/yt/yt_dos.c ****  * @brief         Description
 133:../Switch/core/yt/yt_dos.c ****  * @note          APPLICABLE DEVICES  -Tiger
 134:../Switch/core/yt/yt_dos.c ****  * @param[in]     unit                -unit id
 135:../Switch/core/yt/yt_dos.c ****  * @param[in]     ver                 -icmp version
 136:../Switch/core/yt/yt_dos.c ****  * @param[in]     size                -x
 137:../Switch/core/yt/yt_dos.c ****  * @retval        CMM_ERR_OK          -on success
 138:../Switch/core/yt/yt_dos.c ****  * @retval        CMM_ERR_FAIL        -on fail
 139:../Switch/core/yt/yt_dos.c ****  */
 140:../Switch/core/yt/yt_dos.c **** yt_ret_t  yt_dos_large_icmp_size_set(yt_unit_t unit, yt_dos_icmp_version_t ver, uint16_t size)
 141:../Switch/core/yt/yt_dos.c **** {
 1087              		.loc 1 141 1 is_stmt 1 view -0
 1088              		.cfi_startproc
 1089              		@ args = 0, pretend = 0, frame = 0
 1090              		@ frame_needed = 0, uses_anonymous_args = 0
 1091              		.loc 1 141 1 is_stmt 0 view .LVU308
 1092 0000 08B5     		push	{r3, lr}
 1093              		.cfi_def_cfa_offset 8
 1094              		.cfi_offset 3, -8
 1095              		.cfi_offset 14, -4
 142:../Switch/core/yt/yt_dos.c ****     CMM_PARAM_CHK((YT_UNIT_NUM <= unit), CMM_ERR_INPUT);
 1096              		.loc 1 142 5 is_stmt 1 view .LVU309
 1097              		.loc 1 142 5 view .LVU310
 1098 0002 58B9     		cbnz	r0, .L119
 1099 0004 8446     		mov	ip, r0
 1100              		.loc 1 142 5 discriminator 2 view .LVU311
 143:../Switch/core/yt/yt_dos.c ****     CMM_PARAM_CHK(NULL == YT_DISPATCH(unit), CMM_ERR_NOT_INIT);
 1101              		.loc 1 143 5 discriminator 2 view .LVU312
 1102              		.loc 1 143 5 discriminator 2 view .LVU313
 1103 0006 1A4B     		ldr	r3, .L125
 1104 0008 53F82030 		ldr	r3, [r3, r0, lsl #2]
 1105 000c A3B1     		cbz	r3, .L120
 1106              		.loc 1 143 5 discriminator 2 view .LVU314
 144:../Switch/core/yt/yt_dos.c ****     CMM_PARAM_CHK((!(YT_DISPATCH(unit)->is_inited)), CMM_ERR_NOT_INIT);
 1107              		.loc 1 144 5 discriminator 2 view .LVU315
 1108              		.loc 1 144 5 discriminator 2 view .LVU316
 1109 000e 1878     		ldrb	r0, [r3]	@ zero_extendqisi2
 1110              	.LVL146:
 1111              		.loc 1 144 5 is_stmt 0 discriminator 2 view .LVU317
 1112 0010 00B3     		cbz	r0, .L121
 1113              		.loc 1 144 5 is_stmt 1 discriminator 2 view .LVU318
 145:../Switch/core/yt/yt_dos.c **** 
 146:../Switch/core/yt/yt_dos.c ****     return YT_DISPATCH(unit)->dos_large_icmp_size_set(unit, ver, size);
 1114              		.loc 1 146 5 discriminator 2 view .LVU319
 1115              		.loc 1 146 29 is_stmt 0 discriminator 2 view .LVU320
 1116 0012 D3F8EC30 		ldr	r3, [r3, #236]
 1117              		.loc 1 146 12 discriminator 2 view .LVU321
 1118 0016 6046     		mov	r0, ip
 1119 0018 9847     		blx	r3
 1120              	.LVL147:
 1121              	.L110:
 147:../Switch/core/yt/yt_dos.c **** }
 1122              		.loc 1 147 1 view .LVU322
 1123 001a 08BD     		pop	{r3, pc}
 1124              	.LVL148:
 1125              	.L119:
 142:../Switch/core/yt/yt_dos.c ****     CMM_PARAM_CHK(NULL == YT_DISPATCH(unit), CMM_ERR_NOT_INIT);
 1126              		.loc 1 142 5 is_stmt 1 discriminator 1 view .LVU323
 142:../Switch/core/yt/yt_dos.c ****     CMM_PARAM_CHK(NULL == YT_DISPATCH(unit), CMM_ERR_NOT_INIT);
 1127              		.loc 1 142 5 discriminator 1 view .LVU324
 1128 001c 154B     		ldr	r3, .L125+4
 1129 001e 1B78     		ldrb	r3, [r3]	@ zero_extendqisi2
 1130 0020 012B     		cmp	r3, #1
 1131 0022 01D8     		bhi	.L122
 1132              	.LVL149:
 1133              	.L112:
 142:../Switch/core/yt/yt_dos.c ****     CMM_PARAM_CHK(NULL == YT_DISPATCH(unit), CMM_ERR_NOT_INIT);
 1134              		.loc 1 142 5 discriminator 5 view .LVU325
 142:../Switch/core/yt/yt_dos.c ****     CMM_PARAM_CHK(NULL == YT_DISPATCH(unit), CMM_ERR_NOT_INIT);
 1135              		.loc 1 142 5 discriminator 5 view .LVU326
 142:../Switch/core/yt/yt_dos.c ****     CMM_PARAM_CHK(NULL == YT_DISPATCH(unit), CMM_ERR_NOT_INIT);
 1136              		.loc 1 142 5 discriminator 5 view .LVU327
 1137 0024 0520     		movs	r0, #5
 1138 0026 F8E7     		b	.L110
 1139              	.LVL150:
 1140              	.L122:
 142:../Switch/core/yt/yt_dos.c ****     CMM_PARAM_CHK(NULL == YT_DISPATCH(unit), CMM_ERR_NOT_INIT);
 1141              		.loc 1 142 5 discriminator 3 view .LVU328
 1142              	.LBB23:
 142:../Switch/core/yt/yt_dos.c ****     CMM_PARAM_CHK(NULL == YT_DISPATCH(unit), CMM_ERR_NOT_INIT);
 1143              		.loc 1 142 5 discriminator 3 view .LVU329
 1144 0028 134B     		ldr	r3, .L125+8
 1145 002a 5A69     		ldr	r2, [r3, #20]
 1146              	.LVL151:
 142:../Switch/core/yt/yt_dos.c ****     CMM_PARAM_CHK(NULL == YT_DISPATCH(unit), CMM_ERR_NOT_INIT);
 1147              		.loc 1 142 5 is_stmt 0 discriminator 3 view .LVU330
 1148 002c 134B     		ldr	r3, .L125+12
 1149 002e 9968     		ldr	r1, [r3, #8]
 1150              	.LVL152:
 142:../Switch/core/yt/yt_dos.c ****     CMM_PARAM_CHK(NULL == YT_DISPATCH(unit), CMM_ERR_NOT_INIT);
 1151              		.loc 1 142 5 discriminator 3 view .LVU331
 1152 0030 1348     		ldr	r0, .L125+16
 1153              	.LVL153:
 142:../Switch/core/yt/yt_dos.c ****     CMM_PARAM_CHK(NULL == YT_DISPATCH(unit), CMM_ERR_NOT_INIT);
 1154              		.loc 1 142 5 discriminator 3 view .LVU332
 1155 0032 FFF7FEFF 		bl	osal_printf
 1156              	.LVL154:
 1157 0036 F5E7     		b	.L112
 1158              	.LVL155:
 1159              	.L120:
 142:../Switch/core/yt/yt_dos.c ****     CMM_PARAM_CHK(NULL == YT_DISPATCH(unit), CMM_ERR_NOT_INIT);
 1160              		.loc 1 142 5 discriminator 3 view .LVU333
 1161              	.LBE23:
 143:../Switch/core/yt/yt_dos.c ****     CMM_PARAM_CHK((!(YT_DISPATCH(unit)->is_inited)), CMM_ERR_NOT_INIT);
 1162              		.loc 1 143 5 is_stmt 1 discriminator 1 view .LVU334
 143:../Switch/core/yt/yt_dos.c ****     CMM_PARAM_CHK((!(YT_DISPATCH(unit)->is_inited)), CMM_ERR_NOT_INIT);
 1163              		.loc 1 143 5 discriminator 1 view .LVU335
 1164 0038 0E4B     		ldr	r3, .L125+4
 1165 003a 1B78     		ldrb	r3, [r3]	@ zero_extendqisi2
 1166 003c 012B     		cmp	r3, #1
 1167 003e 01D8     		bhi	.L123
 1168              	.LVL156:
 1169              	.L115:
 143:../Switch/core/yt/yt_dos.c ****     CMM_PARAM_CHK((!(YT_DISPATCH(unit)->is_inited)), CMM_ERR_NOT_INIT);
 1170              		.loc 1 143 5 discriminator 5 view .LVU336
 143:../Switch/core/yt/yt_dos.c ****     CMM_PARAM_CHK((!(YT_DISPATCH(unit)->is_inited)), CMM_ERR_NOT_INIT);
 1171              		.loc 1 143 5 discriminator 5 view .LVU337
 143:../Switch/core/yt/yt_dos.c ****     CMM_PARAM_CHK((!(YT_DISPATCH(unit)->is_inited)), CMM_ERR_NOT_INIT);
 1172              		.loc 1 143 5 discriminator 5 view .LVU338
 1173 0040 0420     		movs	r0, #4
 1174 0042 EAE7     		b	.L110
 1175              	.LVL157:
 1176              	.L123:
 143:../Switch/core/yt/yt_dos.c ****     CMM_PARAM_CHK((!(YT_DISPATCH(unit)->is_inited)), CMM_ERR_NOT_INIT);
 1177              		.loc 1 143 5 discriminator 3 view .LVU339
 1178              	.LBB24:
 143:../Switch/core/yt/yt_dos.c ****     CMM_PARAM_CHK((!(YT_DISPATCH(unit)->is_inited)), CMM_ERR_NOT_INIT);
 1179              		.loc 1 143 5 discriminator 3 view .LVU340
 1180 0044 0C4B     		ldr	r3, .L125+8
 1181 0046 1A69     		ldr	r2, [r3, #16]
 1182              	.LVL158:
 143:../Switch/core/yt/yt_dos.c ****     CMM_PARAM_CHK((!(YT_DISPATCH(unit)->is_inited)), CMM_ERR_NOT_INIT);
 1183              		.loc 1 143 5 is_stmt 0 discriminator 3 view .LVU341
 1184 0048 0C4B     		ldr	r3, .L125+12
 1185 004a 9968     		ldr	r1, [r3, #8]
 1186              	.LVL159:
 143:../Switch/core/yt/yt_dos.c ****     CMM_PARAM_CHK((!(YT_DISPATCH(unit)->is_inited)), CMM_ERR_NOT_INIT);
 1187              		.loc 1 143 5 discriminator 3 view .LVU342
 1188 004c 0C48     		ldr	r0, .L125+16
 1189              	.LVL160:
 143:../Switch/core/yt/yt_dos.c ****     CMM_PARAM_CHK((!(YT_DISPATCH(unit)->is_inited)), CMM_ERR_NOT_INIT);
 1190              		.loc 1 143 5 discriminator 3 view .LVU343
 1191 004e FFF7FEFF 		bl	osal_printf
 1192              	.LVL161:
 1193 0052 F5E7     		b	.L115
 1194              	.LVL162:
 1195              	.L121:
 143:../Switch/core/yt/yt_dos.c ****     CMM_PARAM_CHK((!(YT_DISPATCH(unit)->is_inited)), CMM_ERR_NOT_INIT);
 1196              		.loc 1 143 5 discriminator 3 view .LVU344
 1197              	.LBE24:
 144:../Switch/core/yt/yt_dos.c **** 
 1198              		.loc 1 144 5 is_stmt 1 discriminator 1 view .LVU345
 144:../Switch/core/yt/yt_dos.c **** 
 1199              		.loc 1 144 5 discriminator 1 view .LVU346
 1200 0054 074B     		ldr	r3, .L125+4
 1201 0056 1B78     		ldrb	r3, [r3]	@ zero_extendqisi2
 1202 0058 012B     		cmp	r3, #1
 1203 005a 01D8     		bhi	.L124
 1204              	.LVL163:
 1205              	.L117:
 144:../Switch/core/yt/yt_dos.c **** 
 1206              		.loc 1 144 5 discriminator 5 view .LVU347
 144:../Switch/core/yt/yt_dos.c **** 
 1207              		.loc 1 144 5 discriminator 5 view .LVU348
 144:../Switch/core/yt/yt_dos.c **** 
 1208              		.loc 1 144 5 discriminator 5 view .LVU349
 1209 005c 0420     		movs	r0, #4
 1210 005e DCE7     		b	.L110
 1211              	.LVL164:
 1212              	.L124:
 144:../Switch/core/yt/yt_dos.c **** 
 1213              		.loc 1 144 5 discriminator 3 view .LVU350
 1214              	.LBB25:
 144:../Switch/core/yt/yt_dos.c **** 
 1215              		.loc 1 144 5 discriminator 3 view .LVU351
 1216 0060 054B     		ldr	r3, .L125+8
 1217 0062 1A69     		ldr	r2, [r3, #16]
 1218              	.LVL165:
 144:../Switch/core/yt/yt_dos.c **** 
 1219              		.loc 1 144 5 is_stmt 0 discriminator 3 view .LVU352
 1220 0064 054B     		ldr	r3, .L125+12
 1221 0066 9968     		ldr	r1, [r3, #8]
 1222              	.LVL166:
 144:../Switch/core/yt/yt_dos.c **** 
 1223              		.loc 1 144 5 discriminator 3 view .LVU353
 1224 0068 0548     		ldr	r0, .L125+16
 1225 006a FFF7FEFF 		bl	osal_printf
 1226              	.LVL167:
 1227 006e F5E7     		b	.L117
 1228              	.L126:
 1229              		.align	2
 1230              	.L125:
 1231 0070 00000000 		.word	gpfal_dispatch
 1232 0074 00000000 		.word	yt_debug_level
 1233 0078 00000000 		.word	_yt_errmsg
 1234 007c 00000000 		.word	_yt_prompt_msg
 1235 0080 00000000 		.word	.LC0
 1236              	.LBE25:
 1237              		.cfi_endproc
 1238              	.LFE8:
 1240              		.section	.text.yt_dos_large_icmp_size_get,"ax",%progbits
 1241              		.align	1
 1242              		.global	yt_dos_large_icmp_size_get
 1243              		.syntax unified
 1244              		.thumb
 1245              		.thumb_func
 1247              	yt_dos_large_icmp_size_get:
 1248              	.LVL168:
 1249              	.LFB9:
 148:../Switch/core/yt/yt_dos.c **** 
 149:../Switch/core/yt/yt_dos.c **** /**
 150:../Switch/core/yt/yt_dos.c ****  * @internal      yt_dos_large_icmp_size_get
 151:../Switch/core/yt/yt_dos.c ****  * @endinternal
 152:../Switch/core/yt/yt_dos.c ****  *
 153:../Switch/core/yt/yt_dos.c ****  * @brief         Description
 154:../Switch/core/yt/yt_dos.c ****  * @note          APPLICABLE DEVICES  -Tiger
 155:../Switch/core/yt/yt_dos.c ****  * @param[in]     unit                -unit id
 156:../Switch/core/yt/yt_dos.c ****  * @param[in]     ver                 -icmp version
 157:../Switch/core/yt/yt_dos.c ****  * @param[out]    psize               -x
 158:../Switch/core/yt/yt_dos.c ****  * @retval        CMM_ERR_OK          -on success
 159:../Switch/core/yt/yt_dos.c ****  * @retval        CMM_ERR_FAIL        -on fail
 160:../Switch/core/yt/yt_dos.c ****  */
 161:../Switch/core/yt/yt_dos.c **** yt_ret_t  yt_dos_large_icmp_size_get(yt_unit_t unit, yt_dos_icmp_version_t ver, uint16_t *psize)
 162:../Switch/core/yt/yt_dos.c **** {
 1250              		.loc 1 162 1 is_stmt 1 view -0
 1251              		.cfi_startproc
 1252              		@ args = 0, pretend = 0, frame = 0
 1253              		@ frame_needed = 0, uses_anonymous_args = 0
 1254              		.loc 1 162 1 is_stmt 0 view .LVU355
 1255 0000 08B5     		push	{r3, lr}
 1256              		.cfi_def_cfa_offset 8
 1257              		.cfi_offset 3, -8
 1258              		.cfi_offset 14, -4
 163:../Switch/core/yt/yt_dos.c ****     CMM_PARAM_CHK((YT_UNIT_NUM <= unit), CMM_ERR_INPUT);
 1259              		.loc 1 163 5 is_stmt 1 view .LVU356
 1260              		.loc 1 163 5 view .LVU357
 1261 0002 68B9     		cbnz	r0, .L138
 1262 0004 8446     		mov	ip, r0
 1263              		.loc 1 163 5 discriminator 2 view .LVU358
 164:../Switch/core/yt/yt_dos.c ****     CMM_PARAM_CHK(NULL == YT_DISPATCH(unit), CMM_ERR_NOT_INIT);
 1264              		.loc 1 164 5 discriminator 2 view .LVU359
 1265              		.loc 1 164 5 discriminator 2 view .LVU360
 1266 0006 224B     		ldr	r3, .L146
 1267 0008 53F82030 		ldr	r3, [r3, r0, lsl #2]
 1268 000c B3B1     		cbz	r3, .L139
 1269              		.loc 1 164 5 discriminator 2 view .LVU361
 165:../Switch/core/yt/yt_dos.c ****     CMM_PARAM_CHK((!(YT_DISPATCH(unit)->is_inited)), CMM_ERR_NOT_INIT);
 1270              		.loc 1 165 5 discriminator 2 view .LVU362
 1271              		.loc 1 165 5 discriminator 2 view .LVU363
 1272 000e 1878     		ldrb	r0, [r3]	@ zero_extendqisi2
 1273              	.LVL169:
 1274              		.loc 1 165 5 is_stmt 0 discriminator 2 view .LVU364
 1275 0010 10B3     		cbz	r0, .L140
 1276              		.loc 1 165 5 is_stmt 1 discriminator 2 view .LVU365
 166:../Switch/core/yt/yt_dos.c ****     CMM_PARAM_CHK((NULL == psize), CMM_ERR_NULL_POINT);
 1277              		.loc 1 166 5 discriminator 2 view .LVU366
 1278              		.loc 1 166 5 discriminator 2 view .LVU367
 1279 0012 002A     		cmp	r2, #0
 1280 0014 2ED0     		beq	.L141
 1281              		.loc 1 166 5 discriminator 2 view .LVU368
 167:../Switch/core/yt/yt_dos.c **** 
 168:../Switch/core/yt/yt_dos.c ****     return YT_DISPATCH(unit)->dos_large_icmp_size_get(unit, ver, psize);
 1282              		.loc 1 168 5 discriminator 2 view .LVU369
 1283              		.loc 1 168 29 is_stmt 0 discriminator 2 view .LVU370
 1284 0016 D3F8F030 		ldr	r3, [r3, #240]
 1285              		.loc 1 168 12 discriminator 2 view .LVU371
 1286 001a 6046     		mov	r0, ip
 1287 001c 9847     		blx	r3
 1288              	.LVL170:
 1289              	.L127:
 169:../Switch/core/yt/yt_dos.c **** }
 1290              		.loc 1 169 1 view .LVU372
 1291 001e 08BD     		pop	{r3, pc}
 1292              	.LVL171:
 1293              	.L138:
 163:../Switch/core/yt/yt_dos.c ****     CMM_PARAM_CHK(NULL == YT_DISPATCH(unit), CMM_ERR_NOT_INIT);
 1294              		.loc 1 163 5 is_stmt 1 discriminator 1 view .LVU373
 163:../Switch/core/yt/yt_dos.c ****     CMM_PARAM_CHK(NULL == YT_DISPATCH(unit), CMM_ERR_NOT_INIT);
 1295              		.loc 1 163 5 discriminator 1 view .LVU374
 1296 0020 1C4B     		ldr	r3, .L146+4
 1297 0022 1B78     		ldrb	r3, [r3]	@ zero_extendqisi2
 1298 0024 012B     		cmp	r3, #1
 1299 0026 01D8     		bhi	.L142
 1300              	.LVL172:
 1301              	.L129:
 163:../Switch/core/yt/yt_dos.c ****     CMM_PARAM_CHK(NULL == YT_DISPATCH(unit), CMM_ERR_NOT_INIT);
 1302              		.loc 1 163 5 discriminator 5 view .LVU375
 163:../Switch/core/yt/yt_dos.c ****     CMM_PARAM_CHK(NULL == YT_DISPATCH(unit), CMM_ERR_NOT_INIT);
 1303              		.loc 1 163 5 discriminator 5 view .LVU376
 163:../Switch/core/yt/yt_dos.c ****     CMM_PARAM_CHK(NULL == YT_DISPATCH(unit), CMM_ERR_NOT_INIT);
 1304              		.loc 1 163 5 discriminator 5 view .LVU377
 1305 0028 0520     		movs	r0, #5
 1306 002a F8E7     		b	.L127
 1307              	.LVL173:
 1308              	.L142:
 163:../Switch/core/yt/yt_dos.c ****     CMM_PARAM_CHK(NULL == YT_DISPATCH(unit), CMM_ERR_NOT_INIT);
 1309              		.loc 1 163 5 discriminator 3 view .LVU378
 1310              	.LBB26:
 163:../Switch/core/yt/yt_dos.c ****     CMM_PARAM_CHK(NULL == YT_DISPATCH(unit), CMM_ERR_NOT_INIT);
 1311              		.loc 1 163 5 discriminator 3 view .LVU379
 1312 002c 1A4B     		ldr	r3, .L146+8
 1313 002e 5A69     		ldr	r2, [r3, #20]
 1314              	.LVL174:
 163:../Switch/core/yt/yt_dos.c ****     CMM_PARAM_CHK(NULL == YT_DISPATCH(unit), CMM_ERR_NOT_INIT);
 1315              		.loc 1 163 5 is_stmt 0 discriminator 3 view .LVU380
 1316 0030 1A4B     		ldr	r3, .L146+12
 1317 0032 9968     		ldr	r1, [r3, #8]
 1318              	.LVL175:
 163:../Switch/core/yt/yt_dos.c ****     CMM_PARAM_CHK(NULL == YT_DISPATCH(unit), CMM_ERR_NOT_INIT);
 1319              		.loc 1 163 5 discriminator 3 view .LVU381
 1320 0034 1A48     		ldr	r0, .L146+16
 1321              	.LVL176:
 163:../Switch/core/yt/yt_dos.c ****     CMM_PARAM_CHK(NULL == YT_DISPATCH(unit), CMM_ERR_NOT_INIT);
 1322              		.loc 1 163 5 discriminator 3 view .LVU382
 1323 0036 FFF7FEFF 		bl	osal_printf
 1324              	.LVL177:
 1325 003a F5E7     		b	.L129
 1326              	.LVL178:
 1327              	.L139:
 163:../Switch/core/yt/yt_dos.c ****     CMM_PARAM_CHK(NULL == YT_DISPATCH(unit), CMM_ERR_NOT_INIT);
 1328              		.loc 1 163 5 discriminator 3 view .LVU383
 1329              	.LBE26:
 164:../Switch/core/yt/yt_dos.c ****     CMM_PARAM_CHK((!(YT_DISPATCH(unit)->is_inited)), CMM_ERR_NOT_INIT);
 1330              		.loc 1 164 5 is_stmt 1 discriminator 1 view .LVU384
 164:../Switch/core/yt/yt_dos.c ****     CMM_PARAM_CHK((!(YT_DISPATCH(unit)->is_inited)), CMM_ERR_NOT_INIT);
 1331              		.loc 1 164 5 discriminator 1 view .LVU385
 1332 003c 154B     		ldr	r3, .L146+4
 1333 003e 1B78     		ldrb	r3, [r3]	@ zero_extendqisi2
 1334 0040 012B     		cmp	r3, #1
 1335 0042 01D8     		bhi	.L143
 1336              	.LVL179:
 1337              	.L132:
 164:../Switch/core/yt/yt_dos.c ****     CMM_PARAM_CHK((!(YT_DISPATCH(unit)->is_inited)), CMM_ERR_NOT_INIT);
 1338              		.loc 1 164 5 discriminator 5 view .LVU386
 164:../Switch/core/yt/yt_dos.c ****     CMM_PARAM_CHK((!(YT_DISPATCH(unit)->is_inited)), CMM_ERR_NOT_INIT);
 1339              		.loc 1 164 5 discriminator 5 view .LVU387
 164:../Switch/core/yt/yt_dos.c ****     CMM_PARAM_CHK((!(YT_DISPATCH(unit)->is_inited)), CMM_ERR_NOT_INIT);
 1340              		.loc 1 164 5 discriminator 5 view .LVU388
 1341 0044 0420     		movs	r0, #4
 1342 0046 EAE7     		b	.L127
 1343              	.LVL180:
 1344              	.L143:
 164:../Switch/core/yt/yt_dos.c ****     CMM_PARAM_CHK((!(YT_DISPATCH(unit)->is_inited)), CMM_ERR_NOT_INIT);
 1345              		.loc 1 164 5 discriminator 3 view .LVU389
 1346              	.LBB27:
 164:../Switch/core/yt/yt_dos.c ****     CMM_PARAM_CHK((!(YT_DISPATCH(unit)->is_inited)), CMM_ERR_NOT_INIT);
 1347              		.loc 1 164 5 discriminator 3 view .LVU390
 1348 0048 134B     		ldr	r3, .L146+8
 1349 004a 1A69     		ldr	r2, [r3, #16]
 1350              	.LVL181:
 164:../Switch/core/yt/yt_dos.c ****     CMM_PARAM_CHK((!(YT_DISPATCH(unit)->is_inited)), CMM_ERR_NOT_INIT);
 1351              		.loc 1 164 5 is_stmt 0 discriminator 3 view .LVU391
 1352 004c 134B     		ldr	r3, .L146+12
 1353 004e 9968     		ldr	r1, [r3, #8]
 1354              	.LVL182:
 164:../Switch/core/yt/yt_dos.c ****     CMM_PARAM_CHK((!(YT_DISPATCH(unit)->is_inited)), CMM_ERR_NOT_INIT);
 1355              		.loc 1 164 5 discriminator 3 view .LVU392
 1356 0050 1348     		ldr	r0, .L146+16
 1357              	.LVL183:
 164:../Switch/core/yt/yt_dos.c ****     CMM_PARAM_CHK((!(YT_DISPATCH(unit)->is_inited)), CMM_ERR_NOT_INIT);
 1358              		.loc 1 164 5 discriminator 3 view .LVU393
 1359 0052 FFF7FEFF 		bl	osal_printf
 1360              	.LVL184:
 1361 0056 F5E7     		b	.L132
 1362              	.LVL185:
 1363              	.L140:
 164:../Switch/core/yt/yt_dos.c ****     CMM_PARAM_CHK((!(YT_DISPATCH(unit)->is_inited)), CMM_ERR_NOT_INIT);
 1364              		.loc 1 164 5 discriminator 3 view .LVU394
 1365              	.LBE27:
 165:../Switch/core/yt/yt_dos.c ****     CMM_PARAM_CHK((NULL == psize), CMM_ERR_NULL_POINT);
 1366              		.loc 1 165 5 is_stmt 1 discriminator 1 view .LVU395
 165:../Switch/core/yt/yt_dos.c ****     CMM_PARAM_CHK((NULL == psize), CMM_ERR_NULL_POINT);
 1367              		.loc 1 165 5 discriminator 1 view .LVU396
 1368 0058 0E4B     		ldr	r3, .L146+4
 1369 005a 1B78     		ldrb	r3, [r3]	@ zero_extendqisi2
 1370 005c 012B     		cmp	r3, #1
 1371 005e 01D8     		bhi	.L144
 1372              	.LVL186:
 1373              	.L134:
 165:../Switch/core/yt/yt_dos.c ****     CMM_PARAM_CHK((NULL == psize), CMM_ERR_NULL_POINT);
 1374              		.loc 1 165 5 discriminator 5 view .LVU397
 165:../Switch/core/yt/yt_dos.c ****     CMM_PARAM_CHK((NULL == psize), CMM_ERR_NULL_POINT);
 1375              		.loc 1 165 5 discriminator 5 view .LVU398
 165:../Switch/core/yt/yt_dos.c ****     CMM_PARAM_CHK((NULL == psize), CMM_ERR_NULL_POINT);
 1376              		.loc 1 165 5 discriminator 5 view .LVU399
 1377 0060 0420     		movs	r0, #4
 1378 0062 DCE7     		b	.L127
 1379              	.LVL187:
 1380              	.L144:
 165:../Switch/core/yt/yt_dos.c ****     CMM_PARAM_CHK((NULL == psize), CMM_ERR_NULL_POINT);
 1381              		.loc 1 165 5 discriminator 3 view .LVU400
 1382              	.LBB28:
 165:../Switch/core/yt/yt_dos.c ****     CMM_PARAM_CHK((NULL == psize), CMM_ERR_NULL_POINT);
 1383              		.loc 1 165 5 discriminator 3 view .LVU401
 1384 0064 0C4B     		ldr	r3, .L146+8
 1385 0066 1A69     		ldr	r2, [r3, #16]
 1386              	.LVL188:
 165:../Switch/core/yt/yt_dos.c ****     CMM_PARAM_CHK((NULL == psize), CMM_ERR_NULL_POINT);
 1387              		.loc 1 165 5 is_stmt 0 discriminator 3 view .LVU402
 1388 0068 0C4B     		ldr	r3, .L146+12
 1389 006a 9968     		ldr	r1, [r3, #8]
 1390              	.LVL189:
 165:../Switch/core/yt/yt_dos.c ****     CMM_PARAM_CHK((NULL == psize), CMM_ERR_NULL_POINT);
 1391              		.loc 1 165 5 discriminator 3 view .LVU403
 1392 006c 0C48     		ldr	r0, .L146+16
 1393 006e FFF7FEFF 		bl	osal_printf
 1394              	.LVL190:
 1395 0072 F5E7     		b	.L134
 1396              	.LVL191:
 1397              	.L141:
 165:../Switch/core/yt/yt_dos.c ****     CMM_PARAM_CHK((NULL == psize), CMM_ERR_NULL_POINT);
 1398              		.loc 1 165 5 discriminator 3 view .LVU404
 1399              	.LBE28:
 166:../Switch/core/yt/yt_dos.c **** 
 1400              		.loc 1 166 5 is_stmt 1 discriminator 1 view .LVU405
 166:../Switch/core/yt/yt_dos.c **** 
 1401              		.loc 1 166 5 discriminator 1 view .LVU406
 1402 0074 074B     		ldr	r3, .L146+4
 1403 0076 1B78     		ldrb	r3, [r3]	@ zero_extendqisi2
 1404 0078 012B     		cmp	r3, #1
 1405 007a 01D8     		bhi	.L145
 1406              	.LVL192:
 1407              	.L136:
 166:../Switch/core/yt/yt_dos.c **** 
 1408              		.loc 1 166 5 discriminator 5 view .LVU407
 166:../Switch/core/yt/yt_dos.c **** 
 1409              		.loc 1 166 5 discriminator 5 view .LVU408
 166:../Switch/core/yt/yt_dos.c **** 
 1410              		.loc 1 166 5 discriminator 5 view .LVU409
 1411 007c 0220     		movs	r0, #2
 1412 007e CEE7     		b	.L127
 1413              	.LVL193:
 1414              	.L145:
 166:../Switch/core/yt/yt_dos.c **** 
 1415              		.loc 1 166 5 discriminator 3 view .LVU410
 1416              	.LBB29:
 166:../Switch/core/yt/yt_dos.c **** 
 1417              		.loc 1 166 5 discriminator 3 view .LVU411
 1418 0080 054B     		ldr	r3, .L146+8
 1419 0082 9A68     		ldr	r2, [r3, #8]
 1420              	.LVL194:
 166:../Switch/core/yt/yt_dos.c **** 
 1421              		.loc 1 166 5 is_stmt 0 discriminator 3 view .LVU412
 1422 0084 054B     		ldr	r3, .L146+12
 1423 0086 9968     		ldr	r1, [r3, #8]
 1424              	.LVL195:
 166:../Switch/core/yt/yt_dos.c **** 
 1425              		.loc 1 166 5 discriminator 3 view .LVU413
 1426 0088 0548     		ldr	r0, .L146+16
 1427 008a FFF7FEFF 		bl	osal_printf
 1428              	.LVL196:
 1429 008e F5E7     		b	.L136
 1430              	.L147:
 1431              		.align	2
 1432              	.L146:
 1433 0090 00000000 		.word	gpfal_dispatch
 1434 0094 00000000 		.word	yt_debug_level
 1435 0098 00000000 		.word	_yt_errmsg
 1436 009c 00000000 		.word	_yt_prompt_msg
 1437 00a0 00000000 		.word	.LC0
 1438              	.LBE29:
 1439              		.cfi_endproc
 1440              	.LFE9:
 1442              		.text
 1443              	.Letext0:
 1444              		.file 2 "C:\\Users\\Dmitriy\\Desktop\\GD32F10x\\Switch\\common\\include/yt_types.h"
 1445              		.file 3 "C:\\Users\\Dmitriy\\Desktop\\GD32F10x\\Switch\\common\\include/yt_error.h"
 1446              		.file 4 "C:\\Users\\Dmitriy\\Desktop\\GD32F10x\\Switch\\core\\fal\\chipdef/chipdef.h"
 1447              		.file 5 "C:\\Users\\Dmitriy\\Desktop\\GD32F10x\\Switch\\core\\cal/cal_bprofile.h"
 1448              		.file 6 "C:\\Users\\Dmitriy\\Desktop\\GD32F10x\\Switch\\core\\cal/cal_mgm.h"
 1449              		.file 7 "C:\\Users\\Dmitriy\\Desktop\\GD32F10x\\Switch\\include/yt_cmm.h"
 1450              		.file 8 "C:\\Users\\Dmitriy\\Desktop\\GD32F10x\\Switch\\include/yt_dos.h"
 1451              		.file 9 "C:\\Users\\Dmitriy\\Desktop\\GD32F10x\\Switch\\include/yt_vlan.h"
 1452              		.file 10 "C:\\Users\\Dmitriy\\Desktop\\GD32F10x\\Switch\\include/yt_vlan_translate.h"
 1453              		.file 11 "C:\\Users\\Dmitriy\\Desktop\\GD32F10x\\Switch\\include/yt_acl.h"
 1454              		.file 12 "C:\\Users\\Dmitriy\\Desktop\\GD32F10x\\Switch\\include/yt_qos.h"
 1455              		.file 13 "C:\\Users\\Dmitriy\\Desktop\\GD32F10x\\Switch\\include/yt_rate.h"
 1456              		.file 14 "C:\\Users\\Dmitriy\\Desktop\\GD32F10x\\Switch\\include/yt_nic.h"
 1457              		.file 15 "C:\\Users\\Dmitriy\\Desktop\\GD32F10x\\Switch\\include/yt_stp.h"
 1458              		.file 16 "C:\\Users\\Dmitriy\\Desktop\\GD32F10x\\Switch\\include/yt_l2.h"
 1459              		.file 17 "C:\\Users\\Dmitriy\\Desktop\\GD32F10x\\Switch\\include/yt_loopdetect.h"
 1460              		.file 18 "C:\\Users\\Dmitriy\\Desktop\\GD32F10x\\Switch\\include/yt_multicast.h"
 1461              		.file 19 "C:\\Users\\Dmitriy\\Desktop\\GD32F10x\\Switch\\include/yt_rma.h"
 1462              		.file 20 "C:\\Users\\Dmitriy\\Desktop\\GD32F10x\\Switch\\include/yt_oam.h"
 1463              		.file 21 "C:\\Users\\Dmitriy\\Desktop\\GD32F10x\\Switch\\include/yt_storm_ctrl.h"
 1464              		.file 22 "C:\\Users\\Dmitriy\\Desktop\\GD32F10x\\Switch\\include/yt_port.h"
 1465              		.file 23 "C:\\Users\\Dmitriy\\Desktop\\GD32F10x\\Switch\\include/yt_dot1x.h"
 1466              		.file 24 "C:\\Users\\Dmitriy\\Desktop\\GD32F10x\\Switch\\include/yt_ctrlpkt.h"
 1467              		.file 25 "C:\\Users\\Dmitriy\\Desktop\\GD32F10x\\Switch\\include/yt_stat.h"
 1468              		.file 26 "C:\\Users\\Dmitriy\\Desktop\\GD32F10x\\Switch\\include/yt_interrupt.h"
 1469              		.file 27 "C:\\Users\\Dmitriy\\Desktop\\GD32F10x\\Switch\\include/yt_led.h"
 1470              		.file 28 "C:\\Users\\Dmitriy\\Desktop\\GD32F10x\\Switch\\include/yt_sys.h"
 1471              		.file 29 "C:\\Users\\Dmitriy\\Desktop\\GD32F10x\\Switch\\include/yt_debug.h"
 1472              		.file 30 "C:\\Users\\Dmitriy\\Desktop\\GD32F10x\\Switch\\core\\fal/fal_dispatch.h"