   1              		.cpu cortex-m3
   2              		.arch armv7-m
   3              		.fpu softvfp
   4              		.eabi_attribute 20, 1
   5              		.eabi_attribute 21, 1
   6              		.eabi_attribute 23, 3
   7              		.eabi_attribute 24, 1
   8              		.eabi_attribute 25, 1
   9              		.eabi_attribute 26, 1
  10              		.eabi_attribute 30, 1
  11              		.eabi_attribute 34, 1
  12              		.eabi_attribute 18, 4
  13              		.file	"yt_init.c"
  14              		.text
  15              	.Ltext0:
  16              		.cfi_sections	.debug_frame
  17              		.file 1 "../Switch/core/yt/yt_init.c"
  18              		.section	.rodata.yt_device_init.str1.4,"aMS",%progbits,1
  19              		.align	2
  20              	.LC0:
  21 0000 6472765F 		.ascii	"drv_init(dev)\000"
  21      696E6974 
  21      28646576 
  21      2900
  22 000e 0000     		.align	2
  23              	.LC1:
  24 0010 25732573 		.ascii	"%s%s of \"%s\" in %s\015\012\000"
  24      206F6620 
  24      22257322 
  24      20696E20 
  24      25730D0A 
  25              		.section	.text.yt_device_init,"ax",%progbits
  26              		.align	1
  27              		.global	yt_device_init
  28              		.syntax unified
  29              		.thumb
  30              		.thumb_func
  32              	yt_device_init:
  33              	.LVL0:
  34              	.LFB4:
   1:../Switch/core/yt/yt_init.c **** /*******************************************************************************
   2:../Switch/core/yt/yt_init.c **** *                                                                              *
   3:../Switch/core/yt/yt_init.c **** *  Copyright (c), 2022, Motorcomm Electronic Technology Co.,Ltd.               *
   4:../Switch/core/yt/yt_init.c **** *  Motorcomm Confidential and Proprietary.                                     *
   5:../Switch/core/yt/yt_init.c **** *                                                                              *
   6:../Switch/core/yt/yt_init.c **** ********************************************************************************
   7:../Switch/core/yt/yt_init.c **** */
   8:../Switch/core/yt/yt_init.c **** /*
   9:../Switch/core/yt/yt_init.c ****  * Include Files
  10:../Switch/core/yt/yt_init.c ****  */
  11:../Switch/core/yt/yt_init.c **** #include "yt_error.h"
  12:../Switch/core/yt/yt_init.c **** #include "yt_types.h"
  13:../Switch/core/yt/yt_init.c **** #include "yt_init.h"
  14:../Switch/core/yt/yt_init.c **** #include "yt_vlan.h"
  15:../Switch/core/yt/yt_init.c **** #include "cal_mgm.h"
  16:../Switch/core/yt/yt_init.c **** #include "fal_dispatch.h"
  17:../Switch/core/yt/yt_init.c **** #include "hal_cmm.h"
  18:../Switch/core/yt/yt_init.c **** #include "drv.h"
  19:../Switch/core/yt/yt_init.c **** #include "fal_init.h"
  20:../Switch/core/yt/yt_init.c **** 
  21:../Switch/core/yt/yt_init.c **** yt_ret_t  yt_basic_init(void)
  22:../Switch/core/yt/yt_init.c **** {
  23:../Switch/core/yt/yt_init.c ****     cmm_err_t ret = CMM_ERR_OK;
  24:../Switch/core/yt/yt_init.c ****     CMM_ERR_CHK(cal_mgm_init(), ret);
  25:../Switch/core/yt/yt_init.c ****     CMM_ERR_CHK(hal_init(), ret);
  26:../Switch/core/yt/yt_init.c ****     CMM_ERR_CHK(fal_dispatch_init(), ret);
  27:../Switch/core/yt/yt_init.c ****     CMM_ERR_CHK(yt_drv_init(), ret);
  28:../Switch/core/yt/yt_init.c ****     CMM_ERR_CHK(fal_init(), ret);
  29:../Switch/core/yt/yt_init.c **** 
  30:../Switch/core/yt/yt_init.c ****     return CMM_ERR_OK;
  31:../Switch/core/yt/yt_init.c **** }
  32:../Switch/core/yt/yt_init.c **** 
  33:../Switch/core/yt/yt_init.c **** yt_ret_t  yt_device_init(yt_unit_t unit, uint8_t *dev)
  34:../Switch/core/yt/yt_init.c **** {
  35              		.loc 1 34 1 view -0
  36              		.cfi_startproc
  37              		@ args = 0, pretend = 0, frame = 0
  38              		@ frame_needed = 0, uses_anonymous_args = 0
  39              		.loc 1 34 1 is_stmt 0 view .LVU1
  40 0000 10B5     		push	{r4, lr}
  41              		.cfi_def_cfa_offset 8
  42              		.cfi_offset 4, -8
  43              		.cfi_offset 14, -4
  44 0002 82B0     		sub	sp, sp, #8
  45              		.cfi_def_cfa_offset 16
  35:../Switch/core/yt/yt_init.c ****     cmm_err_t ret = CMM_ERR_OK;
  46              		.loc 1 35 5 is_stmt 1 view .LVU2
  47              	.LVL1:
  36:../Switch/core/yt/yt_init.c ****     CMM_UNUSED_PARAM(unit);
  48              		.loc 1 36 5 view .LVU3
  37:../Switch/core/yt/yt_init.c ****     CMM_ERR_CHK(drv_init(dev),ret);
  49              		.loc 1 37 5 view .LVU4
  50              		.loc 1 37 5 view .LVU5
  51 0004 0846     		mov	r0, r1
  52              	.LVL2:
  53              		.loc 1 37 5 is_stmt 0 view .LVU6
  54 0006 FFF7FEFF 		bl	drv_init
  55              	.LVL3:
  56              		.loc 1 37 5 view .LVU7
  57 000a 10F0FF03 		ands	r3, r0, #255
  58 000e 02D1     		bne	.L6
  38:../Switch/core/yt/yt_init.c ****     return CMM_ERR_OK;
  59              		.loc 1 38 12 view .LVU8
  60 0010 0020     		movs	r0, #0
  61              	.LVL4:
  62              	.L1:
  39:../Switch/core/yt/yt_init.c **** }
  63              		.loc 1 39 1 view .LVU9
  64 0012 02B0     		add	sp, sp, #8
  65              		.cfi_remember_state
  66              		.cfi_def_cfa_offset 8
  67              		@ sp needed
  68 0014 10BD     		pop	{r4, pc}
  69              	.LVL5:
  70              	.L6:
  71              		.cfi_restore_state
  72              		.loc 1 39 1 view .LVU10
  73 0016 0446     		mov	r4, r0
  37:../Switch/core/yt/yt_init.c ****     CMM_ERR_CHK(drv_init(dev),ret);
  74              		.loc 1 37 5 is_stmt 1 discriminator 1 view .LVU11
  37:../Switch/core/yt/yt_init.c ****     CMM_ERR_CHK(drv_init(dev),ret);
  75              		.loc 1 37 5 discriminator 1 view .LVU12
  76 0018 0A4A     		ldr	r2, .L8
  77 001a 1278     		ldrb	r2, [r2]	@ zero_extendqisi2
  78 001c 012A     		cmp	r2, #1
  79 001e 01D8     		bhi	.L7
  80              	.LVL6:
  81              	.L3:
  37:../Switch/core/yt/yt_init.c ****     CMM_ERR_CHK(drv_init(dev),ret);
  82              		.loc 1 37 5 discriminator 5 view .LVU13
  37:../Switch/core/yt/yt_init.c ****     CMM_ERR_CHK(drv_init(dev),ret);
  83              		.loc 1 37 5 discriminator 5 view .LVU14
  37:../Switch/core/yt/yt_init.c ****     CMM_ERR_CHK(drv_init(dev),ret);
  84              		.loc 1 37 5 discriminator 5 view .LVU15
  85 0020 E0B2     		uxtb	r0, r4
  86 0022 F6E7     		b	.L1
  87              	.LVL7:
  88              	.L7:
  37:../Switch/core/yt/yt_init.c ****     CMM_ERR_CHK(drv_init(dev),ret);
  89              		.loc 1 37 5 discriminator 3 view .LVU16
  90              	.LBB2:
  37:../Switch/core/yt/yt_init.c ****     CMM_ERR_CHK(drv_init(dev),ret);
  91              		.loc 1 37 5 discriminator 3 view .LVU17
  92 0024 142B     		cmp	r3, #20
  93 0026 28BF     		it	cs
  94 0028 1423     		movcs	r3, #20
  95 002a 1A46     		mov	r2, r3
  96 002c 064B     		ldr	r3, .L8+4
  97 002e 0093     		str	r3, [sp]
  98 0030 064B     		ldr	r3, .L8+8
  99 0032 0749     		ldr	r1, .L8+12
 100 0034 51F82220 		ldr	r2, [r1, r2, lsl #2]
 101 0038 0649     		ldr	r1, .L8+16
 102 003a 8968     		ldr	r1, [r1, #8]
 103 003c 0648     		ldr	r0, .L8+20
 104              	.LVL8:
  37:../Switch/core/yt/yt_init.c ****     CMM_ERR_CHK(drv_init(dev),ret);
 105              		.loc 1 37 5 is_stmt 0 discriminator 3 view .LVU18
 106 003e FFF7FEFF 		bl	osal_printf
 107              	.LVL9:
 108 0042 EDE7     		b	.L3
 109              	.L9:
 110              		.align	2
 111              	.L8:
 112 0044 00000000 		.word	yt_debug_level
 113 0048 00000000 		.word	__FUNCTION__.3
 114 004c 00000000 		.word	.LC0
 115 0050 00000000 		.word	_yt_errmsg
 116 0054 00000000 		.word	_yt_prompt_msg
 117 0058 10000000 		.word	.LC1
 118              	.LBE2:
 119              		.cfi_endproc
 120              	.LFE4:
 122              		.section	.rodata.yt_device_close.str1.4,"aMS",%progbits,1
 123              		.align	2
 124              	.LC2:
 125 0000 6472765F 		.ascii	"drv_close()\000"
 125      636C6F73 
 125      65282900 
 126              		.section	.text.yt_device_close,"ax",%progbits
 127              		.align	1
 128              		.global	yt_device_close
 129              		.syntax unified
 130              		.thumb
 131              		.thumb_func
 133              	yt_device_close:
 134              	.LVL10:
 135              	.LFB5:
  40:../Switch/core/yt/yt_init.c **** 
  41:../Switch/core/yt/yt_init.c **** yt_ret_t  yt_device_close(yt_unit_t unit)
  42:../Switch/core/yt/yt_init.c **** {
 136              		.loc 1 42 1 is_stmt 1 view -0
 137              		.cfi_startproc
 138              		@ args = 0, pretend = 0, frame = 0
 139              		@ frame_needed = 0, uses_anonymous_args = 0
 140              		.loc 1 42 1 is_stmt 0 view .LVU20
 141 0000 10B5     		push	{r4, lr}
 142              		.cfi_def_cfa_offset 8
 143              		.cfi_offset 4, -8
 144              		.cfi_offset 14, -4
 145 0002 82B0     		sub	sp, sp, #8
 146              		.cfi_def_cfa_offset 16
  43:../Switch/core/yt/yt_init.c ****     cmm_err_t ret = CMM_ERR_OK;
 147              		.loc 1 43 5 is_stmt 1 view .LVU21
 148              	.LVL11:
  44:../Switch/core/yt/yt_init.c ****     CMM_UNUSED_PARAM(unit);
 149              		.loc 1 44 5 view .LVU22
  45:../Switch/core/yt/yt_init.c ****     CMM_ERR_CHK(drv_close(),ret);
 150              		.loc 1 45 5 view .LVU23
 151              		.loc 1 45 5 view .LVU24
 152 0004 FFF7FEFF 		bl	drv_close
 153              	.LVL12:
 154              		.loc 1 45 5 is_stmt 0 view .LVU25
 155 0008 10F0FF03 		ands	r3, r0, #255
 156 000c 02D1     		bne	.L15
  46:../Switch/core/yt/yt_init.c ****     return CMM_ERR_OK;
 157              		.loc 1 46 12 view .LVU26
 158 000e 0020     		movs	r0, #0
 159              	.LVL13:
 160              	.L10:
  47:../Switch/core/yt/yt_init.c **** }
 161              		.loc 1 47 1 view .LVU27
 162 0010 02B0     		add	sp, sp, #8
 163              		.cfi_remember_state
 164              		.cfi_def_cfa_offset 8
 165              		@ sp needed
 166 0012 10BD     		pop	{r4, pc}
 167              	.LVL14:
 168              	.L15:
 169              		.cfi_restore_state
 170              		.loc 1 47 1 view .LVU28
 171 0014 0446     		mov	r4, r0
  45:../Switch/core/yt/yt_init.c ****     CMM_ERR_CHK(drv_close(),ret);
 172              		.loc 1 45 5 is_stmt 1 discriminator 1 view .LVU29
  45:../Switch/core/yt/yt_init.c ****     CMM_ERR_CHK(drv_close(),ret);
 173              		.loc 1 45 5 discriminator 1 view .LVU30
 174 0016 0B4A     		ldr	r2, .L17
 175 0018 1278     		ldrb	r2, [r2]	@ zero_extendqisi2
 176 001a 012A     		cmp	r2, #1
 177 001c 01D8     		bhi	.L16
 178              	.LVL15:
 179              	.L12:
  45:../Switch/core/yt/yt_init.c ****     CMM_ERR_CHK(drv_close(),ret);
 180              		.loc 1 45 5 discriminator 5 view .LVU31
  45:../Switch/core/yt/yt_init.c ****     CMM_ERR_CHK(drv_close(),ret);
 181              		.loc 1 45 5 discriminator 5 view .LVU32
  45:../Switch/core/yt/yt_init.c ****     CMM_ERR_CHK(drv_close(),ret);
 182              		.loc 1 45 5 discriminator 5 view .LVU33
 183 001e E0B2     		uxtb	r0, r4
 184 0020 F6E7     		b	.L10
 185              	.LVL16:
 186              	.L16:
  45:../Switch/core/yt/yt_init.c ****     CMM_ERR_CHK(drv_close(),ret);
 187              		.loc 1 45 5 discriminator 3 view .LVU34
 188              	.LBB3:
  45:../Switch/core/yt/yt_init.c ****     CMM_ERR_CHK(drv_close(),ret);
 189              		.loc 1 45 5 discriminator 3 view .LVU35
 190 0022 142B     		cmp	r3, #20
 191 0024 28BF     		it	cs
 192 0026 1423     		movcs	r3, #20
 193 0028 1A46     		mov	r2, r3
 194 002a 074B     		ldr	r3, .L17+4
 195 002c 0093     		str	r3, [sp]
 196 002e 074B     		ldr	r3, .L17+8
 197 0030 0749     		ldr	r1, .L17+12
 198 0032 51F82220 		ldr	r2, [r1, r2, lsl #2]
 199 0036 0749     		ldr	r1, .L17+16
 200 0038 8968     		ldr	r1, [r1, #8]
 201 003a 0748     		ldr	r0, .L17+20
 202              	.LVL17:
  45:../Switch/core/yt/yt_init.c ****     CMM_ERR_CHK(drv_close(),ret);
 203              		.loc 1 45 5 is_stmt 0 discriminator 3 view .LVU36
 204 003c FFF7FEFF 		bl	osal_printf
 205              	.LVL18:
 206 0040 EDE7     		b	.L12
 207              	.L18:
 208 0042 00BF     		.align	2
 209              	.L17:
 210 0044 00000000 		.word	yt_debug_level
 211 0048 00000000 		.word	__FUNCTION__.2
 212 004c 00000000 		.word	.LC2
 213 0050 00000000 		.word	_yt_errmsg
 214 0054 00000000 		.word	_yt_prompt_msg
 215 0058 10000000 		.word	.LC1
 216              	.LBE3:
 217              		.cfi_endproc
 218              	.LFE5:
 220              		.section	.text.yt_modules_init,"ax",%progbits
 221              		.align	1
 222              		.global	yt_modules_init
 223              		.syntax unified
 224              		.thumb
 225              		.thumb_func
 227              	yt_modules_init:
 228              	.LFB6:
  48:../Switch/core/yt/yt_init.c **** 
  49:../Switch/core/yt/yt_init.c **** yt_ret_t yt_modules_init(void)
  50:../Switch/core/yt/yt_init.c **** {
 229              		.loc 1 50 1 is_stmt 1 view -0
 230              		.cfi_startproc
 231              		@ args = 0, pretend = 0, frame = 0
 232              		@ frame_needed = 0, uses_anonymous_args = 0
 233              		@ link register save eliminated.
  51:../Switch/core/yt/yt_init.c ****     yt_unit_t unit;
 234              		.loc 1 51 5 view .LVU38
  52:../Switch/core/yt/yt_init.c ****     cmm_err_t ret = CMM_ERR_OK;
 235              		.loc 1 52 5 view .LVU39
 236              	.LVL19:
  53:../Switch/core/yt/yt_init.c ****     
  54:../Switch/core/yt/yt_init.c ****     for(unit = 0; unit < YT_UNIT_NUM; unit++)
 237              		.loc 1 54 5 view .LVU40
 238              		.loc 1 54 14 is_stmt 0 view .LVU41
 239 0000 0023     		movs	r3, #0
 240              	.LVL20:
 241              	.L20:
 242              		.loc 1 54 24 is_stmt 1 discriminator 1 view .LVU42
 243 0002 0BB1     		cbz	r3, .L21
  55:../Switch/core/yt/yt_init.c ****     {
  56:../Switch/core/yt/yt_init.c **** #ifdef L2_INCLUDED
  57:../Switch/core/yt/yt_init.c ****         CMM_ERR_CHK(yt_l2_init(unit),ret);
  58:../Switch/core/yt/yt_init.c **** #endif
  59:../Switch/core/yt/yt_init.c **** #ifdef PORT_INCLUDED    
  60:../Switch/core/yt/yt_init.c ****         CMM_ERR_CHK(yt_port_init(unit),ret);
  61:../Switch/core/yt/yt_init.c **** #endif
  62:../Switch/core/yt/yt_init.c **** #ifdef VLAN_INCLUDED
  63:../Switch/core/yt/yt_init.c ****         CMM_ERR_CHK(yt_vlan_init(unit),ret);
  64:../Switch/core/yt/yt_init.c **** #endif
  65:../Switch/core/yt/yt_init.c **** #ifdef RATE_INCLUDED
  66:../Switch/core/yt/yt_init.c ****         CMM_ERR_CHK(yt_rate_init(unit),ret);
  67:../Switch/core/yt/yt_init.c **** #endif
  68:../Switch/core/yt/yt_init.c **** #ifdef STORM_CTRL_INCLUDED
  69:../Switch/core/yt/yt_init.c ****         CMM_ERR_CHK(yt_storm_ctrl_init(unit),ret);
  70:../Switch/core/yt/yt_init.c **** #endif
  71:../Switch/core/yt/yt_init.c **** #ifdef ACL_INCLUDED
  72:../Switch/core/yt/yt_init.c ****         CMM_ERR_CHK(yt_acl_init(unit),ret);
  73:../Switch/core/yt/yt_init.c **** #endif
  74:../Switch/core/yt/yt_init.c **** #ifdef DOT1X_INCLUDED
  75:../Switch/core/yt/yt_init.c ****         CMM_ERR_CHK(yt_dot1x_init(unit),ret);
  76:../Switch/core/yt/yt_init.c **** #endif
  77:../Switch/core/yt/yt_init.c **** #ifdef STAT_INCLUDED
  78:../Switch/core/yt/yt_init.c ****         CMM_ERR_CHK(yt_stat_mib_init(unit),ret);
  79:../Switch/core/yt/yt_init.c **** #endif
  80:../Switch/core/yt/yt_init.c **** #ifdef NIC_INCLUDED
  81:../Switch/core/yt/yt_init.c ****         CMM_ERR_CHK(yt_nic_init(unit),ret);
  82:../Switch/core/yt/yt_init.c **** #endif
  83:../Switch/core/yt/yt_init.c **** #ifdef DOS_INCLUDED
  84:../Switch/core/yt/yt_init.c ****         CMM_ERR_CHK(yt_dos_init(unit),ret);
  85:../Switch/core/yt/yt_init.c **** #endif
  86:../Switch/core/yt/yt_init.c ****     }
  87:../Switch/core/yt/yt_init.c ****     
  88:../Switch/core/yt/yt_init.c ****     return CMM_ERR_OK;
 244              		.loc 1 88 5 view .LVU43
  89:../Switch/core/yt/yt_init.c **** }
 245              		.loc 1 89 1 is_stmt 0 view .LVU44
 246 0004 0020     		movs	r0, #0
 247 0006 7047     		bx	lr
 248              	.L21:
  86:../Switch/core/yt/yt_init.c ****     
 249              		.loc 1 86 5 is_stmt 1 discriminator 3 view .LVU45
  54:../Switch/core/yt/yt_init.c ****     {
 250              		.loc 1 54 43 discriminator 3 view .LVU46
 251 0008 0133     		adds	r3, r3, #1
 252              	.LVL21:
  54:../Switch/core/yt/yt_init.c ****     {
 253              		.loc 1 54 43 is_stmt 0 discriminator 3 view .LVU47
 254 000a DBB2     		uxtb	r3, r3
 255              	.LVL22:
  54:../Switch/core/yt/yt_init.c ****     {
 256              		.loc 1 54 43 discriminator 3 view .LVU48
 257 000c F9E7     		b	.L20
 258              		.cfi_endproc
 259              	.LFE6:
 261              		.section	.rodata.yt_drv_init.str1.4,"aMS",%progbits,1
 262              		.align	2
 263              	.LC3:
 264 0000 79745F64 		.ascii	"yt_device_init(unit, ((void *)0))\000"
 264      65766963 
 264      655F696E 
 264      69742875 
 264      6E69742C 
 265              		.section	.text.yt_drv_init,"ax",%progbits
 266              		.align	1
 267              		.global	yt_drv_init
 268              		.syntax unified
 269              		.thumb
 270              		.thumb_func
 272              	yt_drv_init:
 273              	.LFB8:
  90:../Switch/core/yt/yt_init.c **** 
  91:../Switch/core/yt/yt_init.c **** yt_ret_t  yt_init(void)
  92:../Switch/core/yt/yt_init.c **** {
  93:../Switch/core/yt/yt_init.c ****     cmm_err_t ret = CMM_ERR_OK;
  94:../Switch/core/yt/yt_init.c **** 
  95:../Switch/core/yt/yt_init.c ****     YT_DEBUG_LEVEL(YT_DEBUG_NONE);
  96:../Switch/core/yt/yt_init.c **** 
  97:../Switch/core/yt/yt_init.c ****     CMM_ERR_CHK(yt_basic_init(),ret);
  98:../Switch/core/yt/yt_init.c **** 
  99:../Switch/core/yt/yt_init.c ****     CMM_ERR_CHK(yt_modules_init(),ret);
 100:../Switch/core/yt/yt_init.c **** 
 101:../Switch/core/yt/yt_init.c ****     return CMM_ERR_OK;
 102:../Switch/core/yt/yt_init.c **** }
 103:../Switch/core/yt/yt_init.c **** 
 104:../Switch/core/yt/yt_init.c **** yt_ret_t  yt_drv_init(void)
 105:../Switch/core/yt/yt_init.c **** {
 274              		.loc 1 105 1 is_stmt 1 view -0
 275              		.cfi_startproc
 276              		@ args = 0, pretend = 0, frame = 0
 277              		@ frame_needed = 0, uses_anonymous_args = 0
 278 0000 30B5     		push	{r4, r5, lr}
 279              		.cfi_def_cfa_offset 12
 280              		.cfi_offset 4, -12
 281              		.cfi_offset 5, -8
 282              		.cfi_offset 14, -4
 283 0002 83B0     		sub	sp, sp, #12
 284              		.cfi_def_cfa_offset 24
 106:../Switch/core/yt/yt_init.c ****     yt_unit_t unit;
 285              		.loc 1 106 5 view .LVU50
 107:../Switch/core/yt/yt_init.c ****     cmm_err_t ret = CMM_ERR_OK;
 286              		.loc 1 107 5 view .LVU51
 287              	.LVL23:
 108:../Switch/core/yt/yt_init.c **** 
 109:../Switch/core/yt/yt_init.c ****     for(unit = 0; unit < YT_UNIT_NUM; unit++)
 288              		.loc 1 109 5 view .LVU52
 289              		.loc 1 109 14 is_stmt 0 view .LVU53
 290 0004 0024     		movs	r4, #0
 291              	.LVL24:
 292              	.L23:
 293              		.loc 1 109 24 is_stmt 1 discriminator 2 view .LVU54
 294 0006 14B1     		cbz	r4, .L27
 110:../Switch/core/yt/yt_init.c ****     {
 111:../Switch/core/yt/yt_init.c **** #ifdef ACC_UART
 112:../Switch/core/yt/yt_init.c ****         CMM_ERR_CHK(yt_device_init(unit, "ttyS2"),ret);
 113:../Switch/core/yt/yt_init.c **** #else
 114:../Switch/core/yt/yt_init.c ****         CMM_ERR_CHK(yt_device_init(unit, NULL),ret);
 115:../Switch/core/yt/yt_init.c **** #endif
 116:../Switch/core/yt/yt_init.c ****     }
 117:../Switch/core/yt/yt_init.c **** 
 118:../Switch/core/yt/yt_init.c ****     return CMM_ERR_OK;
 295              		.loc 1 118 12 is_stmt 0 view .LVU55
 296 0008 0020     		movs	r0, #0
 297              	.L22:
 119:../Switch/core/yt/yt_init.c **** }
 298              		.loc 1 119 1 view .LVU56
 299 000a 03B0     		add	sp, sp, #12
 300              		.cfi_remember_state
 301              		.cfi_def_cfa_offset 12
 302              		@ sp needed
 303 000c 30BD     		pop	{r4, r5, pc}
 304              	.LVL25:
 305              	.L27:
 306              		.cfi_restore_state
 114:../Switch/core/yt/yt_init.c **** #endif
 307              		.loc 1 114 9 is_stmt 1 view .LVU57
 114:../Switch/core/yt/yt_init.c **** #endif
 308              		.loc 1 114 9 view .LVU58
 309 000e 0021     		movs	r1, #0
 310 0010 2046     		mov	r0, r4
 311 0012 FFF7FEFF 		bl	yt_device_init
 312              	.LVL26:
 313 0016 0546     		mov	r5, r0
 314              	.LVL27:
 114:../Switch/core/yt/yt_init.c **** #endif
 315              		.loc 1 114 9 is_stmt 0 view .LVU59
 316 0018 10F0FF03 		ands	r3, r0, #255
 317 001c 02D1     		bne	.L29
 114:../Switch/core/yt/yt_init.c **** #endif
 318              		.loc 1 114 9 is_stmt 1 discriminator 2 view .LVU60
 109:../Switch/core/yt/yt_init.c ****     {
 319              		.loc 1 109 43 discriminator 2 view .LVU61
 320 001e 0134     		adds	r4, r4, #1
 321              	.LVL28:
 109:../Switch/core/yt/yt_init.c ****     {
 322              		.loc 1 109 43 is_stmt 0 discriminator 2 view .LVU62
 323 0020 E4B2     		uxtb	r4, r4
 324              	.LVL29:
 109:../Switch/core/yt/yt_init.c ****     {
 325              		.loc 1 109 43 discriminator 2 view .LVU63
 326 0022 F0E7     		b	.L23
 327              	.L29:
 114:../Switch/core/yt/yt_init.c **** #endif
 328              		.loc 1 114 9 is_stmt 1 discriminator 1 view .LVU64
 114:../Switch/core/yt/yt_init.c **** #endif
 329              		.loc 1 114 9 discriminator 1 view .LVU65
 330 0024 0A4A     		ldr	r2, .L31
 331 0026 1278     		ldrb	r2, [r2]	@ zero_extendqisi2
 332 0028 012A     		cmp	r2, #1
 333 002a 01D8     		bhi	.L30
 334              	.LVL30:
 335              	.L25:
 114:../Switch/core/yt/yt_init.c **** #endif
 336              		.loc 1 114 9 discriminator 5 view .LVU66
 114:../Switch/core/yt/yt_init.c **** #endif
 337              		.loc 1 114 9 discriminator 5 view .LVU67
 114:../Switch/core/yt/yt_init.c **** #endif
 338              		.loc 1 114 9 discriminator 5 view .LVU68
 339 002c E8B2     		uxtb	r0, r5
 340 002e ECE7     		b	.L22
 341              	.LVL31:
 342              	.L30:
 114:../Switch/core/yt/yt_init.c **** #endif
 343              		.loc 1 114 9 discriminator 3 view .LVU69
 344              	.LBB4:
 114:../Switch/core/yt/yt_init.c **** #endif
 345              		.loc 1 114 9 discriminator 3 view .LVU70
 346 0030 142B     		cmp	r3, #20
 347 0032 28BF     		it	cs
 348 0034 1423     		movcs	r3, #20
 349 0036 1A46     		mov	r2, r3
 350 0038 064B     		ldr	r3, .L31+4
 351 003a 0093     		str	r3, [sp]
 352 003c 064B     		ldr	r3, .L31+8
 353 003e 0749     		ldr	r1, .L31+12
 354 0040 51F82220 		ldr	r2, [r1, r2, lsl #2]
 355 0044 0649     		ldr	r1, .L31+16
 356 0046 8968     		ldr	r1, [r1, #8]
 357 0048 0648     		ldr	r0, .L31+20
 358              	.LVL32:
 114:../Switch/core/yt/yt_init.c **** #endif
 359              		.loc 1 114 9 is_stmt 0 discriminator 3 view .LVU71
 360 004a FFF7FEFF 		bl	osal_printf
 361              	.LVL33:
 362 004e EDE7     		b	.L25
 363              	.L32:
 364              		.align	2
 365              	.L31:
 366 0050 00000000 		.word	yt_debug_level
 367 0054 00000000 		.word	__FUNCTION__.0
 368 0058 00000000 		.word	.LC3
 369 005c 00000000 		.word	_yt_errmsg
 370 0060 00000000 		.word	_yt_prompt_msg
 371 0064 10000000 		.word	.LC1
 372              	.LBE4:
 373              		.cfi_endproc
 374              	.LFE8:
 376              		.section	.rodata.yt_basic_init.str1.4,"aMS",%progbits,1
 377              		.align	2
 378              	.LC4:
 379 0000 63616C5F 		.ascii	"cal_mgm_init()\000"
 379      6D676D5F 
 379      696E6974 
 379      282900
 380 000f 00       		.align	2
 381              	.LC5:
 382 0010 68616C5F 		.ascii	"hal_init()\000"
 382      696E6974 
 382      282900
 383 001b 00       		.align	2
 384              	.LC6:
 385 001c 66616C5F 		.ascii	"fal_dispatch_init()\000"
 385      64697370 
 385      61746368 
 385      5F696E69 
 385      74282900 
 386              		.align	2
 387              	.LC7:
 388 0030 79745F64 		.ascii	"yt_drv_init()\000"
 388      72765F69 
 388      6E697428 
 388      2900
 389 003e 0000     		.align	2
 390              	.LC8:
 391 0040 66616C5F 		.ascii	"fal_init()\000"
 391      696E6974 
 391      282900
 392              		.section	.text.yt_basic_init,"ax",%progbits
 393              		.align	1
 394              		.global	yt_basic_init
 395              		.syntax unified
 396              		.thumb
 397              		.thumb_func
 399              	yt_basic_init:
 400              	.LFB3:
  22:../Switch/core/yt/yt_init.c ****     cmm_err_t ret = CMM_ERR_OK;
 401              		.loc 1 22 1 is_stmt 1 view -0
 402              		.cfi_startproc
 403              		@ args = 0, pretend = 0, frame = 0
 404              		@ frame_needed = 0, uses_anonymous_args = 0
 405 0000 10B5     		push	{r4, lr}
 406              		.cfi_def_cfa_offset 8
 407              		.cfi_offset 4, -8
 408              		.cfi_offset 14, -4
 409 0002 82B0     		sub	sp, sp, #8
 410              		.cfi_def_cfa_offset 16
  23:../Switch/core/yt/yt_init.c ****     CMM_ERR_CHK(cal_mgm_init(), ret);
 411              		.loc 1 23 5 view .LVU73
 412              	.LVL34:
  24:../Switch/core/yt/yt_init.c ****     CMM_ERR_CHK(hal_init(), ret);
 413              		.loc 1 24 5 view .LVU74
  24:../Switch/core/yt/yt_init.c ****     CMM_ERR_CHK(hal_init(), ret);
 414              		.loc 1 24 5 view .LVU75
 415 0004 FFF7FEFF 		bl	cal_mgm_init
 416              	.LVL35:
  24:../Switch/core/yt/yt_init.c ****     CMM_ERR_CHK(hal_init(), ret);
 417              		.loc 1 24 5 is_stmt 0 view .LVU76
 418 0008 10F0FF03 		ands	r3, r0, #255
 419 000c 17D0     		beq	.L34
 420 000e 0446     		mov	r4, r0
  24:../Switch/core/yt/yt_init.c ****     CMM_ERR_CHK(hal_init(), ret);
 421              		.loc 1 24 5 is_stmt 1 discriminator 1 view .LVU77
  24:../Switch/core/yt/yt_init.c ****     CMM_ERR_CHK(hal_init(), ret);
 422              		.loc 1 24 5 discriminator 1 view .LVU78
 423 0010 444A     		ldr	r2, .L52
 424 0012 1278     		ldrb	r2, [r2]	@ zero_extendqisi2
 425 0014 012A     		cmp	r2, #1
 426 0016 02D8     		bhi	.L46
 427              	.LVL36:
 428              	.L35:
  24:../Switch/core/yt/yt_init.c ****     CMM_ERR_CHK(hal_init(), ret);
 429              		.loc 1 24 5 discriminator 5 view .LVU79
  24:../Switch/core/yt/yt_init.c ****     CMM_ERR_CHK(hal_init(), ret);
 430              		.loc 1 24 5 discriminator 5 view .LVU80
  24:../Switch/core/yt/yt_init.c ****     CMM_ERR_CHK(hal_init(), ret);
 431              		.loc 1 24 5 discriminator 5 view .LVU81
 432 0018 E0B2     		uxtb	r0, r4
 433              	.LVL37:
 434              	.L33:
  31:../Switch/core/yt/yt_init.c **** 
 435              		.loc 1 31 1 is_stmt 0 view .LVU82
 436 001a 02B0     		add	sp, sp, #8
 437              		.cfi_remember_state
 438              		.cfi_def_cfa_offset 8
 439              		@ sp needed
 440 001c 10BD     		pop	{r4, pc}
 441              	.LVL38:
 442              	.L46:
 443              		.cfi_restore_state
  24:../Switch/core/yt/yt_init.c ****     CMM_ERR_CHK(hal_init(), ret);
 444              		.loc 1 24 5 is_stmt 1 discriminator 3 view .LVU83
 445              	.LBB5:
  24:../Switch/core/yt/yt_init.c ****     CMM_ERR_CHK(hal_init(), ret);
 446              		.loc 1 24 5 discriminator 3 view .LVU84
 447 001e 142B     		cmp	r3, #20
 448 0020 28BF     		it	cs
 449 0022 1423     		movcs	r3, #20
 450 0024 1A46     		mov	r2, r3
 451 0026 404B     		ldr	r3, .L52+4
 452 0028 0093     		str	r3, [sp]
 453 002a 404B     		ldr	r3, .L52+8
 454 002c 4049     		ldr	r1, .L52+12
 455 002e 51F82220 		ldr	r2, [r1, r2, lsl #2]
 456 0032 4049     		ldr	r1, .L52+16
 457 0034 8968     		ldr	r1, [r1, #8]
 458 0036 4048     		ldr	r0, .L52+20
 459              	.LVL39:
  24:../Switch/core/yt/yt_init.c ****     CMM_ERR_CHK(hal_init(), ret);
 460              		.loc 1 24 5 is_stmt 0 discriminator 3 view .LVU85
 461 0038 FFF7FEFF 		bl	osal_printf
 462              	.LVL40:
 463 003c ECE7     		b	.L35
 464              	.LVL41:
 465              	.L34:
  24:../Switch/core/yt/yt_init.c ****     CMM_ERR_CHK(hal_init(), ret);
 466              		.loc 1 24 5 discriminator 3 view .LVU86
 467              	.LBE5:
  24:../Switch/core/yt/yt_init.c ****     CMM_ERR_CHK(hal_init(), ret);
 468              		.loc 1 24 5 is_stmt 1 discriminator 2 view .LVU87
  25:../Switch/core/yt/yt_init.c ****     CMM_ERR_CHK(fal_dispatch_init(), ret);
 469              		.loc 1 25 5 discriminator 2 view .LVU88
  25:../Switch/core/yt/yt_init.c ****     CMM_ERR_CHK(fal_dispatch_init(), ret);
 470              		.loc 1 25 5 discriminator 2 view .LVU89
 471 003e FFF7FEFF 		bl	hal_init
 472              	.LVL42:
  25:../Switch/core/yt/yt_init.c ****     CMM_ERR_CHK(fal_dispatch_init(), ret);
 473              		.loc 1 25 5 is_stmt 0 discriminator 2 view .LVU90
 474 0042 0446     		mov	r4, r0
 475              	.LVL43:
  25:../Switch/core/yt/yt_init.c ****     CMM_ERR_CHK(fal_dispatch_init(), ret);
 476              		.loc 1 25 5 discriminator 2 view .LVU91
 477 0044 10F0FF03 		ands	r3, r0, #255
 478 0048 15D0     		beq	.L37
  25:../Switch/core/yt/yt_init.c ****     CMM_ERR_CHK(fal_dispatch_init(), ret);
 479              		.loc 1 25 5 is_stmt 1 discriminator 1 view .LVU92
  25:../Switch/core/yt/yt_init.c ****     CMM_ERR_CHK(fal_dispatch_init(), ret);
 480              		.loc 1 25 5 discriminator 1 view .LVU93
 481 004a 364A     		ldr	r2, .L52
 482 004c 1278     		ldrb	r2, [r2]	@ zero_extendqisi2
 483 004e 012A     		cmp	r2, #1
 484 0050 01D8     		bhi	.L47
 485              	.LVL44:
 486              	.L38:
  25:../Switch/core/yt/yt_init.c ****     CMM_ERR_CHK(fal_dispatch_init(), ret);
 487              		.loc 1 25 5 discriminator 5 view .LVU94
  25:../Switch/core/yt/yt_init.c ****     CMM_ERR_CHK(fal_dispatch_init(), ret);
 488              		.loc 1 25 5 discriminator 5 view .LVU95
  25:../Switch/core/yt/yt_init.c ****     CMM_ERR_CHK(fal_dispatch_init(), ret);
 489              		.loc 1 25 5 discriminator 5 view .LVU96
 490 0052 E0B2     		uxtb	r0, r4
 491 0054 E1E7     		b	.L33
 492              	.LVL45:
 493              	.L47:
  25:../Switch/core/yt/yt_init.c ****     CMM_ERR_CHK(fal_dispatch_init(), ret);
 494              		.loc 1 25 5 discriminator 3 view .LVU97
 495              	.LBB6:
  25:../Switch/core/yt/yt_init.c ****     CMM_ERR_CHK(fal_dispatch_init(), ret);
 496              		.loc 1 25 5 discriminator 3 view .LVU98
 497 0056 142B     		cmp	r3, #20
 498 0058 28BF     		it	cs
 499 005a 1423     		movcs	r3, #20
 500 005c 1A46     		mov	r2, r3
 501 005e 324B     		ldr	r3, .L52+4
 502 0060 0093     		str	r3, [sp]
 503 0062 364B     		ldr	r3, .L52+24
 504 0064 3249     		ldr	r1, .L52+12
 505 0066 51F82220 		ldr	r2, [r1, r2, lsl #2]
 506 006a 3249     		ldr	r1, .L52+16
 507 006c 8968     		ldr	r1, [r1, #8]
 508 006e 3248     		ldr	r0, .L52+20
 509              	.LVL46:
  25:../Switch/core/yt/yt_init.c ****     CMM_ERR_CHK(fal_dispatch_init(), ret);
 510              		.loc 1 25 5 is_stmt 0 discriminator 3 view .LVU99
 511 0070 FFF7FEFF 		bl	osal_printf
 512              	.LVL47:
 513 0074 EDE7     		b	.L38
 514              	.LVL48:
 515              	.L37:
  25:../Switch/core/yt/yt_init.c ****     CMM_ERR_CHK(fal_dispatch_init(), ret);
 516              		.loc 1 25 5 discriminator 3 view .LVU100
 517              	.LBE6:
  25:../Switch/core/yt/yt_init.c ****     CMM_ERR_CHK(fal_dispatch_init(), ret);
 518              		.loc 1 25 5 is_stmt 1 discriminator 2 view .LVU101
  26:../Switch/core/yt/yt_init.c ****     CMM_ERR_CHK(yt_drv_init(), ret);
 519              		.loc 1 26 5 discriminator 2 view .LVU102
  26:../Switch/core/yt/yt_init.c ****     CMM_ERR_CHK(yt_drv_init(), ret);
 520              		.loc 1 26 5 discriminator 2 view .LVU103
 521 0076 FFF7FEFF 		bl	fal_dispatch_init
 522              	.LVL49:
  26:../Switch/core/yt/yt_init.c ****     CMM_ERR_CHK(yt_drv_init(), ret);
 523              		.loc 1 26 5 is_stmt 0 discriminator 2 view .LVU104
 524 007a 0446     		mov	r4, r0
 525              	.LVL50:
  26:../Switch/core/yt/yt_init.c ****     CMM_ERR_CHK(yt_drv_init(), ret);
 526              		.loc 1 26 5 discriminator 2 view .LVU105
 527 007c 10F0FF03 		ands	r3, r0, #255
 528 0080 15D0     		beq	.L39
  26:../Switch/core/yt/yt_init.c ****     CMM_ERR_CHK(yt_drv_init(), ret);
 529              		.loc 1 26 5 is_stmt 1 discriminator 1 view .LVU106
  26:../Switch/core/yt/yt_init.c ****     CMM_ERR_CHK(yt_drv_init(), ret);
 530              		.loc 1 26 5 discriminator 1 view .LVU107
 531 0082 284A     		ldr	r2, .L52
 532 0084 1278     		ldrb	r2, [r2]	@ zero_extendqisi2
 533 0086 012A     		cmp	r2, #1
 534 0088 01D8     		bhi	.L48
 535              	.LVL51:
 536              	.L40:
  26:../Switch/core/yt/yt_init.c ****     CMM_ERR_CHK(yt_drv_init(), ret);
 537              		.loc 1 26 5 discriminator 5 view .LVU108
  26:../Switch/core/yt/yt_init.c ****     CMM_ERR_CHK(yt_drv_init(), ret);
 538              		.loc 1 26 5 discriminator 5 view .LVU109
  26:../Switch/core/yt/yt_init.c ****     CMM_ERR_CHK(yt_drv_init(), ret);
 539              		.loc 1 26 5 discriminator 5 view .LVU110
 540 008a E0B2     		uxtb	r0, r4
 541 008c C5E7     		b	.L33
 542              	.LVL52:
 543              	.L48:
  26:../Switch/core/yt/yt_init.c ****     CMM_ERR_CHK(yt_drv_init(), ret);
 544              		.loc 1 26 5 discriminator 3 view .LVU111
 545              	.LBB7:
  26:../Switch/core/yt/yt_init.c ****     CMM_ERR_CHK(yt_drv_init(), ret);
 546              		.loc 1 26 5 discriminator 3 view .LVU112
 547 008e 142B     		cmp	r3, #20
 548 0090 28BF     		it	cs
 549 0092 1423     		movcs	r3, #20
 550 0094 1A46     		mov	r2, r3
 551 0096 244B     		ldr	r3, .L52+4
 552 0098 0093     		str	r3, [sp]
 553 009a 294B     		ldr	r3, .L52+28
 554 009c 2449     		ldr	r1, .L52+12
 555 009e 51F82220 		ldr	r2, [r1, r2, lsl #2]
 556 00a2 2449     		ldr	r1, .L52+16
 557 00a4 8968     		ldr	r1, [r1, #8]
 558 00a6 2448     		ldr	r0, .L52+20
 559              	.LVL53:
  26:../Switch/core/yt/yt_init.c ****     CMM_ERR_CHK(yt_drv_init(), ret);
 560              		.loc 1 26 5 is_stmt 0 discriminator 3 view .LVU113
 561 00a8 FFF7FEFF 		bl	osal_printf
 562              	.LVL54:
 563 00ac EDE7     		b	.L40
 564              	.LVL55:
 565              	.L39:
  26:../Switch/core/yt/yt_init.c ****     CMM_ERR_CHK(yt_drv_init(), ret);
 566              		.loc 1 26 5 discriminator 3 view .LVU114
 567              	.LBE7:
  26:../Switch/core/yt/yt_init.c ****     CMM_ERR_CHK(yt_drv_init(), ret);
 568              		.loc 1 26 5 is_stmt 1 discriminator 2 view .LVU115
  27:../Switch/core/yt/yt_init.c ****     CMM_ERR_CHK(fal_init(), ret);
 569              		.loc 1 27 5 discriminator 2 view .LVU116
  27:../Switch/core/yt/yt_init.c ****     CMM_ERR_CHK(fal_init(), ret);
 570              		.loc 1 27 5 discriminator 2 view .LVU117
 571 00ae FFF7FEFF 		bl	yt_drv_init
 572              	.LVL56:
  27:../Switch/core/yt/yt_init.c ****     CMM_ERR_CHK(fal_init(), ret);
 573              		.loc 1 27 5 is_stmt 0 discriminator 2 view .LVU118
 574 00b2 0446     		mov	r4, r0
 575              	.LVL57:
  27:../Switch/core/yt/yt_init.c ****     CMM_ERR_CHK(fal_init(), ret);
 576              		.loc 1 27 5 discriminator 2 view .LVU119
 577 00b4 10F0FF03 		ands	r3, r0, #255
 578 00b8 15D0     		beq	.L41
  27:../Switch/core/yt/yt_init.c ****     CMM_ERR_CHK(fal_init(), ret);
 579              		.loc 1 27 5 is_stmt 1 discriminator 1 view .LVU120
  27:../Switch/core/yt/yt_init.c ****     CMM_ERR_CHK(fal_init(), ret);
 580              		.loc 1 27 5 discriminator 1 view .LVU121
 581 00ba 1A4A     		ldr	r2, .L52
 582 00bc 1278     		ldrb	r2, [r2]	@ zero_extendqisi2
 583 00be 012A     		cmp	r2, #1
 584 00c0 01D8     		bhi	.L49
 585              	.LVL58:
 586              	.L42:
  27:../Switch/core/yt/yt_init.c ****     CMM_ERR_CHK(fal_init(), ret);
 587              		.loc 1 27 5 discriminator 5 view .LVU122
  27:../Switch/core/yt/yt_init.c ****     CMM_ERR_CHK(fal_init(), ret);
 588              		.loc 1 27 5 discriminator 5 view .LVU123
  27:../Switch/core/yt/yt_init.c ****     CMM_ERR_CHK(fal_init(), ret);
 589              		.loc 1 27 5 discriminator 5 view .LVU124
 590 00c2 E0B2     		uxtb	r0, r4
 591 00c4 A9E7     		b	.L33
 592              	.LVL59:
 593              	.L49:
  27:../Switch/core/yt/yt_init.c ****     CMM_ERR_CHK(fal_init(), ret);
 594              		.loc 1 27 5 discriminator 3 view .LVU125
 595              	.LBB8:
  27:../Switch/core/yt/yt_init.c ****     CMM_ERR_CHK(fal_init(), ret);
 596              		.loc 1 27 5 discriminator 3 view .LVU126
 597 00c6 142B     		cmp	r3, #20
 598 00c8 28BF     		it	cs
 599 00ca 1423     		movcs	r3, #20
 600 00cc 1A46     		mov	r2, r3
 601 00ce 164B     		ldr	r3, .L52+4
 602 00d0 0093     		str	r3, [sp]
 603 00d2 1C4B     		ldr	r3, .L52+32
 604 00d4 1649     		ldr	r1, .L52+12
 605 00d6 51F82220 		ldr	r2, [r1, r2, lsl #2]
 606 00da 1649     		ldr	r1, .L52+16
 607 00dc 8968     		ldr	r1, [r1, #8]
 608 00de 1648     		ldr	r0, .L52+20
 609              	.LVL60:
  27:../Switch/core/yt/yt_init.c ****     CMM_ERR_CHK(fal_init(), ret);
 610              		.loc 1 27 5 is_stmt 0 discriminator 3 view .LVU127
 611 00e0 FFF7FEFF 		bl	osal_printf
 612              	.LVL61:
 613 00e4 EDE7     		b	.L42
 614              	.LVL62:
 615              	.L41:
  27:../Switch/core/yt/yt_init.c ****     CMM_ERR_CHK(fal_init(), ret);
 616              		.loc 1 27 5 discriminator 3 view .LVU128
 617              	.LBE8:
  27:../Switch/core/yt/yt_init.c ****     CMM_ERR_CHK(fal_init(), ret);
 618              		.loc 1 27 5 is_stmt 1 discriminator 2 view .LVU129
  28:../Switch/core/yt/yt_init.c **** 
 619              		.loc 1 28 5 discriminator 2 view .LVU130
  28:../Switch/core/yt/yt_init.c **** 
 620              		.loc 1 28 5 discriminator 2 view .LVU131
 621 00e6 FFF7FEFF 		bl	fal_init
 622              	.LVL63:
  28:../Switch/core/yt/yt_init.c **** 
 623              		.loc 1 28 5 is_stmt 0 discriminator 2 view .LVU132
 624 00ea 0446     		mov	r4, r0
 625              	.LVL64:
  28:../Switch/core/yt/yt_init.c **** 
 626              		.loc 1 28 5 discriminator 2 view .LVU133
 627 00ec 10F0FF03 		ands	r3, r0, #255
 628 00f0 01D1     		bne	.L50
  30:../Switch/core/yt/yt_init.c **** }
 629              		.loc 1 30 12 view .LVU134
 630 00f2 0020     		movs	r0, #0
 631              	.LVL65:
  30:../Switch/core/yt/yt_init.c **** }
 632              		.loc 1 30 12 view .LVU135
 633 00f4 91E7     		b	.L33
 634              	.LVL66:
 635              	.L50:
  28:../Switch/core/yt/yt_init.c **** 
 636              		.loc 1 28 5 is_stmt 1 discriminator 1 view .LVU136
  28:../Switch/core/yt/yt_init.c **** 
 637              		.loc 1 28 5 discriminator 1 view .LVU137
 638 00f6 0B4A     		ldr	r2, .L52
 639 00f8 1278     		ldrb	r2, [r2]	@ zero_extendqisi2
 640 00fa 012A     		cmp	r2, #1
 641 00fc 01D8     		bhi	.L51
 642              	.LVL67:
 643              	.L43:
  28:../Switch/core/yt/yt_init.c **** 
 644              		.loc 1 28 5 discriminator 5 view .LVU138
  28:../Switch/core/yt/yt_init.c **** 
 645              		.loc 1 28 5 discriminator 5 view .LVU139
  28:../Switch/core/yt/yt_init.c **** 
 646              		.loc 1 28 5 discriminator 5 view .LVU140
 647 00fe E0B2     		uxtb	r0, r4
 648 0100 8BE7     		b	.L33
 649              	.LVL68:
 650              	.L51:
  28:../Switch/core/yt/yt_init.c **** 
 651              		.loc 1 28 5 discriminator 3 view .LVU141
 652              	.LBB9:
  28:../Switch/core/yt/yt_init.c **** 
 653              		.loc 1 28 5 discriminator 3 view .LVU142
 654 0102 142B     		cmp	r3, #20
 655 0104 28BF     		it	cs
 656 0106 1423     		movcs	r3, #20
 657 0108 1A46     		mov	r2, r3
 658 010a 074B     		ldr	r3, .L52+4
 659 010c 0093     		str	r3, [sp]
 660 010e 0E4B     		ldr	r3, .L52+36
 661 0110 0749     		ldr	r1, .L52+12
 662 0112 51F82220 		ldr	r2, [r1, r2, lsl #2]
 663 0116 0749     		ldr	r1, .L52+16
 664 0118 8968     		ldr	r1, [r1, #8]
 665 011a 0748     		ldr	r0, .L52+20
 666              	.LVL69:
  28:../Switch/core/yt/yt_init.c **** 
 667              		.loc 1 28 5 is_stmt 0 discriminator 3 view .LVU143
 668 011c FFF7FEFF 		bl	osal_printf
 669              	.LVL70:
 670 0120 EDE7     		b	.L43
 671              	.L53:
 672 0122 00BF     		.align	2
 673              	.L52:
 674 0124 00000000 		.word	yt_debug_level
 675 0128 00000000 		.word	__FUNCTION__.4
 676 012c 00000000 		.word	.LC4
 677 0130 00000000 		.word	_yt_errmsg
 678 0134 00000000 		.word	_yt_prompt_msg
 679 0138 10000000 		.word	.LC1
 680 013c 10000000 		.word	.LC5
 681 0140 1C000000 		.word	.LC6
 682 0144 30000000 		.word	.LC7
 683 0148 40000000 		.word	.LC8
 684              	.LBE9:
 685              		.cfi_endproc
 686              	.LFE3:
 688              		.section	.rodata.yt_init.str1.4,"aMS",%progbits,1
 689              		.align	2
 690              	.LC9:
 691 0000 79745F62 		.ascii	"yt_basic_init()\000"
 691      61736963 
 691      5F696E69 
 691      74282900 
 692              		.align	2
 693              	.LC10:
 694 0010 79745F6D 		.ascii	"yt_modules_init()\000"
 694      6F64756C 
 694      65735F69 
 694      6E697428 
 694      2900
 695              		.section	.text.yt_init,"ax",%progbits
 696              		.align	1
 697              		.global	yt_init
 698              		.syntax unified
 699              		.thumb
 700              		.thumb_func
 702              	yt_init:
 703              	.LFB7:
  92:../Switch/core/yt/yt_init.c ****     cmm_err_t ret = CMM_ERR_OK;
 704              		.loc 1 92 1 is_stmt 1 view -0
 705              		.cfi_startproc
 706              		@ args = 0, pretend = 0, frame = 0
 707              		@ frame_needed = 0, uses_anonymous_args = 0
 708 0000 10B5     		push	{r4, lr}
 709              		.cfi_def_cfa_offset 8
 710              		.cfi_offset 4, -8
 711              		.cfi_offset 14, -4
 712 0002 82B0     		sub	sp, sp, #8
 713              		.cfi_def_cfa_offset 16
  93:../Switch/core/yt/yt_init.c **** 
 714              		.loc 1 93 5 view .LVU145
 715              	.LVL71:
  95:../Switch/core/yt/yt_init.c **** 
 716              		.loc 1 95 5 view .LVU146
  95:../Switch/core/yt/yt_init.c **** 
 717              		.loc 1 95 5 view .LVU147
 718 0004 1E4B     		ldr	r3, .L64
 719 0006 0022     		movs	r2, #0
 720 0008 1A70     		strb	r2, [r3]
  95:../Switch/core/yt/yt_init.c **** 
 721              		.loc 1 95 5 view .LVU148
  97:../Switch/core/yt/yt_init.c **** 
 722              		.loc 1 97 5 view .LVU149
  97:../Switch/core/yt/yt_init.c **** 
 723              		.loc 1 97 5 view .LVU150
 724 000a FFF7FEFF 		bl	yt_basic_init
 725              	.LVL72:
  97:../Switch/core/yt/yt_init.c **** 
 726              		.loc 1 97 5 is_stmt 0 view .LVU151
 727 000e 10F0FF03 		ands	r3, r0, #255
 728 0012 17D0     		beq	.L55
 729 0014 0446     		mov	r4, r0
  97:../Switch/core/yt/yt_init.c **** 
 730              		.loc 1 97 5 is_stmt 1 discriminator 1 view .LVU152
  97:../Switch/core/yt/yt_init.c **** 
 731              		.loc 1 97 5 discriminator 1 view .LVU153
 732 0016 1A4A     		ldr	r2, .L64
 733 0018 1278     		ldrb	r2, [r2]	@ zero_extendqisi2
 734 001a 012A     		cmp	r2, #1
 735 001c 02D8     		bhi	.L61
 736              	.LVL73:
 737              	.L56:
  97:../Switch/core/yt/yt_init.c **** 
 738              		.loc 1 97 5 discriminator 5 view .LVU154
  97:../Switch/core/yt/yt_init.c **** 
 739              		.loc 1 97 5 discriminator 5 view .LVU155
  97:../Switch/core/yt/yt_init.c **** 
 740              		.loc 1 97 5 discriminator 5 view .LVU156
 741 001e E0B2     		uxtb	r0, r4
 742              	.LVL74:
 743              	.L54:
 102:../Switch/core/yt/yt_init.c **** 
 744              		.loc 1 102 1 is_stmt 0 view .LVU157
 745 0020 02B0     		add	sp, sp, #8
 746              		.cfi_remember_state
 747              		.cfi_def_cfa_offset 8
 748              		@ sp needed
 749 0022 10BD     		pop	{r4, pc}
 750              	.LVL75:
 751              	.L61:
 752              		.cfi_restore_state
  97:../Switch/core/yt/yt_init.c **** 
 753              		.loc 1 97 5 is_stmt 1 discriminator 3 view .LVU158
 754              	.LBB10:
  97:../Switch/core/yt/yt_init.c **** 
 755              		.loc 1 97 5 discriminator 3 view .LVU159
 756 0024 142B     		cmp	r3, #20
 757 0026 28BF     		it	cs
 758 0028 1423     		movcs	r3, #20
 759 002a 1A46     		mov	r2, r3
 760 002c 154B     		ldr	r3, .L64+4
 761 002e 0093     		str	r3, [sp]
 762 0030 154B     		ldr	r3, .L64+8
 763 0032 1649     		ldr	r1, .L64+12
 764 0034 51F82220 		ldr	r2, [r1, r2, lsl #2]
 765 0038 1549     		ldr	r1, .L64+16
 766 003a 8968     		ldr	r1, [r1, #8]
 767 003c 1548     		ldr	r0, .L64+20
 768              	.LVL76:
  97:../Switch/core/yt/yt_init.c **** 
 769              		.loc 1 97 5 is_stmt 0 discriminator 3 view .LVU160
 770 003e FFF7FEFF 		bl	osal_printf
 771              	.LVL77:
 772 0042 ECE7     		b	.L56
 773              	.LVL78:
 774              	.L55:
  97:../Switch/core/yt/yt_init.c **** 
 775              		.loc 1 97 5 discriminator 3 view .LVU161
 776              	.LBE10:
  97:../Switch/core/yt/yt_init.c **** 
 777              		.loc 1 97 5 is_stmt 1 discriminator 2 view .LVU162
  99:../Switch/core/yt/yt_init.c **** 
 778              		.loc 1 99 5 discriminator 2 view .LVU163
  99:../Switch/core/yt/yt_init.c **** 
 779              		.loc 1 99 5 discriminator 2 view .LVU164
 780 0044 FFF7FEFF 		bl	yt_modules_init
 781              	.LVL79:
  99:../Switch/core/yt/yt_init.c **** 
 782              		.loc 1 99 5 is_stmt 0 discriminator 2 view .LVU165
 783 0048 0446     		mov	r4, r0
 784              	.LVL80:
  99:../Switch/core/yt/yt_init.c **** 
 785              		.loc 1 99 5 discriminator 2 view .LVU166
 786 004a 10F0FF03 		ands	r3, r0, #255
 787 004e 01D1     		bne	.L62
 101:../Switch/core/yt/yt_init.c **** }
 788              		.loc 1 101 12 view .LVU167
 789 0050 0020     		movs	r0, #0
 790              	.LVL81:
 101:../Switch/core/yt/yt_init.c **** }
 791              		.loc 1 101 12 view .LVU168
 792 0052 E5E7     		b	.L54
 793              	.LVL82:
 794              	.L62:
  99:../Switch/core/yt/yt_init.c **** 
 795              		.loc 1 99 5 is_stmt 1 discriminator 1 view .LVU169
  99:../Switch/core/yt/yt_init.c **** 
 796              		.loc 1 99 5 discriminator 1 view .LVU170
 797 0054 0A4A     		ldr	r2, .L64
 798 0056 1278     		ldrb	r2, [r2]	@ zero_extendqisi2
 799 0058 012A     		cmp	r2, #1
 800 005a 01D8     		bhi	.L63
 801              	.LVL83:
 802              	.L58:
  99:../Switch/core/yt/yt_init.c **** 
 803              		.loc 1 99 5 discriminator 5 view .LVU171
  99:../Switch/core/yt/yt_init.c **** 
 804              		.loc 1 99 5 discriminator 5 view .LVU172
  99:../Switch/core/yt/yt_init.c **** 
 805              		.loc 1 99 5 discriminator 5 view .LVU173
 806 005c E0B2     		uxtb	r0, r4
 807 005e DFE7     		b	.L54
 808              	.LVL84:
 809              	.L63:
  99:../Switch/core/yt/yt_init.c **** 
 810              		.loc 1 99 5 discriminator 3 view .LVU174
 811              	.LBB11:
  99:../Switch/core/yt/yt_init.c **** 
 812              		.loc 1 99 5 discriminator 3 view .LVU175
 813 0060 142B     		cmp	r3, #20
 814 0062 28BF     		it	cs
 815 0064 1423     		movcs	r3, #20
 816 0066 1A46     		mov	r2, r3
 817 0068 064B     		ldr	r3, .L64+4
 818 006a 0093     		str	r3, [sp]
 819 006c 0A4B     		ldr	r3, .L64+24
 820 006e 0749     		ldr	r1, .L64+12
 821 0070 51F82220 		ldr	r2, [r1, r2, lsl #2]
 822 0074 0649     		ldr	r1, .L64+16
 823 0076 8968     		ldr	r1, [r1, #8]
 824 0078 0648     		ldr	r0, .L64+20
 825              	.LVL85:
  99:../Switch/core/yt/yt_init.c **** 
 826              		.loc 1 99 5 is_stmt 0 discriminator 3 view .LVU176
 827 007a FFF7FEFF 		bl	osal_printf
 828              	.LVL86:
 829 007e EDE7     		b	.L58
 830              	.L65:
 831              		.align	2
 832              	.L64:
 833 0080 00000000 		.word	yt_debug_level
 834 0084 00000000 		.word	__FUNCTION__.1
 835 0088 00000000 		.word	.LC9
 836 008c 00000000 		.word	_yt_errmsg
 837 0090 00000000 		.word	_yt_prompt_msg
 838 0094 10000000 		.word	.LC1
 839 0098 10000000 		.word	.LC10
 840              	.LBE11:
 841              		.cfi_endproc
 842              	.LFE7:
 844              		.section	.rodata.__FUNCTION__.0,"a"
 845              		.align	2
 848              	__FUNCTION__.0:
 849 0000 79745F64 		.ascii	"yt_drv_init\000"
 849      72765F69 
 849      6E697400 
 850              		.section	.rodata.__FUNCTION__.1,"a"
 851              		.align	2
 854              	__FUNCTION__.1:
 855 0000 79745F69 		.ascii	"yt_init\000"
 855      6E697400 
 856              		.section	.rodata.__FUNCTION__.2,"a"
 857              		.align	2
 860              	__FUNCTION__.2:
 861 0000 79745F64 		.ascii	"yt_device_close\000"
 861      65766963 
 861      655F636C 
 861      6F736500 
 862              		.section	.rodata.__FUNCTION__.3,"a"
 863              		.align	2
 866              	__FUNCTION__.3:
 867 0000 79745F64 		.ascii	"yt_device_init\000"
 867      65766963 
 867      655F696E 
 867      697400
 868              		.section	.rodata.__FUNCTION__.4,"a"
 869              		.align	2
 872              	__FUNCTION__.4:
 873 0000 79745F62 		.ascii	"yt_basic_init\000"
 873      61736963 
 873      5F696E69 
 873      7400
 874              		.text
 875              	.Letext0:
 876              		.file 2 "C:\\Users\\Dmitriy\\Desktop\\GD32F10x\\Switch\\common\\include/yt_types.h"
 877              		.file 3 "C:\\Users\\Dmitriy\\Desktop\\GD32F10x\\Switch\\common\\include/yt_error.h"
 878              		.file 4 "C:\\Users\\Dmitriy\\Desktop\\GD32F10x\\Switch\\core\\drv\\sw_ctrl/drv.h"
 879              		.file 5 "C:\\Users\\Dmitriy\\Desktop\\GD32F10x\\Switch\\core\\fal/fal_init.h"
 880              		.file 6 "C:\\Users\\Dmitriy\\Desktop\\GD32F10x\\Switch\\core\\fal/fal_dispatch.h"
 881              		.file 7 "C:\\Users\\Dmitriy\\Desktop\\GD32F10x\\Switch\\core\\hal/hal_cmm.h"
 882              		.file 8 "C:\\Users\\Dmitriy\\Desktop\\GD32F10x\\Switch\\core\\cal/cal_mgm.h"