   1              		.cpu cortex-m3
   2              		.arch armv7-m
   3              		.fpu softvfp
   4              		.eabi_attribute 20, 1
   5              		.eabi_attribute 21, 1
   6              		.eabi_attribute 23, 3
   7              		.eabi_attribute 24, 1
   8              		.eabi_attribute 25, 1
   9              		.eabi_attribute 26, 1
  10              		.eabi_attribute 30, 1
  11              		.eabi_attribute 34, 1
  12              		.eabi_attribute 18, 4
  13              		.file	"yt_port.c"
  14              		.text
  15              	.Ltext0:
  16              		.cfi_sections	.debug_frame
  17              		.file 1 "../Switch/core/yt/yt_port.c"
  18              		.section	.rodata.yt_port_init.str1.4,"aMS",%progbits,1
  19              		.align	2
  20              	.LC0:
  21 0000 25732573 		.ascii	"%s%s\015\012\000"
  21      0D0A00
  22              		.section	.text.yt_port_init,"ax",%progbits
  23              		.align	1
  24              		.global	yt_port_init
  25              		.syntax unified
  26              		.thumb
  27              		.thumb_func
  29              	yt_port_init:
  30              	.LVL0:
  31              	.LFB3:
   1:../Switch/core/yt/yt_port.c **** /*******************************************************************************
   2:../Switch/core/yt/yt_port.c **** *                                                                              *
   3:../Switch/core/yt/yt_port.c **** *  Copyright (c), 2022, Motorcomm Electronic Technology Co.,Ltd.               *
   4:../Switch/core/yt/yt_port.c **** *  Motorcomm Confidential and Proprietary.                                     *
   5:../Switch/core/yt/yt_port.c **** *                                                                              *
   6:../Switch/core/yt/yt_port.c **** ********************************************************************************
   7:../Switch/core/yt/yt_port.c **** */
   8:../Switch/core/yt/yt_port.c **** /**
   9:../Switch/core/yt/yt_port.c **** ********************************************************************************
  10:../Switch/core/yt/yt_port.c **** * @file yt_port.c
  11:../Switch/core/yt/yt_port.c **** *
  12:../Switch/core/yt/yt_port.c **** * @brief x
  13:../Switch/core/yt/yt_port.c **** *
  14:../Switch/core/yt/yt_port.c **** ********************************************************************************
  15:../Switch/core/yt/yt_port.c **** */
  16:../Switch/core/yt/yt_port.c **** #include "yt_port.h"
  17:../Switch/core/yt/yt_port.c **** #include "fal_dispatch.h"
  18:../Switch/core/yt/yt_port.c **** 
  19:../Switch/core/yt/yt_port.c **** 
  20:../Switch/core/yt/yt_port.c **** /**
  21:../Switch/core/yt/yt_port.c ****  * @internal      yt_port_init
  22:../Switch/core/yt/yt_port.c ****  * @endinternal
  23:../Switch/core/yt/yt_port.c ****  *
  24:../Switch/core/yt/yt_port.c ****  * @brief         Description
  25:../Switch/core/yt/yt_port.c ****  * @note          APPLICABLE DEVICES  -Tiger
  26:../Switch/core/yt/yt_port.c ****  * @param[in]     unit                -unit id
  27:../Switch/core/yt/yt_port.c ****  * @retval        CMM_ERR_OK          -on success
  28:../Switch/core/yt/yt_port.c ****  * @retval        CMM_ERR_FAIL        -on fail
  29:../Switch/core/yt/yt_port.c ****  */
  30:../Switch/core/yt/yt_port.c **** yt_ret_t yt_port_init(yt_unit_t unit)
  31:../Switch/core/yt/yt_port.c **** {
  32              		.loc 1 31 1 view -0
  33              		.cfi_startproc
  34              		@ args = 0, pretend = 0, frame = 0
  35              		@ frame_needed = 0, uses_anonymous_args = 0
  36              		.loc 1 31 1 is_stmt 0 view .LVU1
  37 0000 08B5     		push	{r3, lr}
  38              		.cfi_def_cfa_offset 8
  39              		.cfi_offset 3, -8
  40              		.cfi_offset 14, -4
  32:../Switch/core/yt/yt_port.c ****     CMM_PARAM_CHK((YT_UNIT_NUM <= unit), CMM_ERR_INPUT);
  41              		.loc 1 32 5 is_stmt 1 view .LVU2
  42              		.loc 1 32 5 view .LVU3
  43 0002 48B9     		cbnz	r0, .L10
  44              		.loc 1 32 5 discriminator 2 view .LVU4
  33:../Switch/core/yt/yt_port.c ****     CMM_PARAM_CHK(NULL == YT_DISPATCH(unit), CMM_ERR_NOT_INIT);
  45              		.loc 1 33 5 discriminator 2 view .LVU5
  46              		.loc 1 33 5 discriminator 2 view .LVU6
  47 0004 194B     		ldr	r3, .L16
  48 0006 53F82030 		ldr	r3, [r3, r0, lsl #2]
  49 000a 9BB1     		cbz	r3, .L11
  50              		.loc 1 33 5 discriminator 2 view .LVU7
  34:../Switch/core/yt/yt_port.c ****     CMM_PARAM_CHK((!(YT_DISPATCH(unit)->is_inited)), CMM_ERR_NOT_INIT);
  51              		.loc 1 34 5 discriminator 2 view .LVU8
  52              		.loc 1 34 5 discriminator 2 view .LVU9
  53 000c 1978     		ldrb	r1, [r3]	@ zero_extendqisi2
  54 000e F9B1     		cbz	r1, .L12
  55              		.loc 1 34 5 discriminator 2 view .LVU10
  35:../Switch/core/yt/yt_port.c **** 
  36:../Switch/core/yt/yt_port.c ****     return YT_DISPATCH(unit)->port_init(unit);
  56              		.loc 1 36 5 discriminator 2 view .LVU11
  57              		.loc 1 36 29 is_stmt 0 discriminator 2 view .LVU12
  58 0010 D3F85035 		ldr	r3, [r3, #1360]
  59              		.loc 1 36 12 discriminator 2 view .LVU13
  60 0014 9847     		blx	r3
  61              	.LVL1:
  62              	.L1:
  37:../Switch/core/yt/yt_port.c **** }
  63              		.loc 1 37 1 view .LVU14
  64 0016 08BD     		pop	{r3, pc}
  65              	.LVL2:
  66              	.L10:
  32:../Switch/core/yt/yt_port.c ****     CMM_PARAM_CHK(NULL == YT_DISPATCH(unit), CMM_ERR_NOT_INIT);
  67              		.loc 1 32 5 is_stmt 1 discriminator 1 view .LVU15
  32:../Switch/core/yt/yt_port.c ****     CMM_PARAM_CHK(NULL == YT_DISPATCH(unit), CMM_ERR_NOT_INIT);
  68              		.loc 1 32 5 discriminator 1 view .LVU16
  69 0018 154B     		ldr	r3, .L16+4
  70 001a 1B78     		ldrb	r3, [r3]	@ zero_extendqisi2
  71 001c 012B     		cmp	r3, #1
  72 001e 01D8     		bhi	.L13
  73              	.LVL3:
  74              	.L3:
  32:../Switch/core/yt/yt_port.c ****     CMM_PARAM_CHK(NULL == YT_DISPATCH(unit), CMM_ERR_NOT_INIT);
  75              		.loc 1 32 5 discriminator 5 view .LVU17
  32:../Switch/core/yt/yt_port.c ****     CMM_PARAM_CHK(NULL == YT_DISPATCH(unit), CMM_ERR_NOT_INIT);
  76              		.loc 1 32 5 discriminator 5 view .LVU18
  32:../Switch/core/yt/yt_port.c ****     CMM_PARAM_CHK(NULL == YT_DISPATCH(unit), CMM_ERR_NOT_INIT);
  77              		.loc 1 32 5 discriminator 5 view .LVU19
  78 0020 0520     		movs	r0, #5
  79 0022 F8E7     		b	.L1
  80              	.LVL4:
  81              	.L13:
  32:../Switch/core/yt/yt_port.c ****     CMM_PARAM_CHK(NULL == YT_DISPATCH(unit), CMM_ERR_NOT_INIT);
  82              		.loc 1 32 5 discriminator 3 view .LVU20
  83              	.LBB2:
  32:../Switch/core/yt/yt_port.c ****     CMM_PARAM_CHK(NULL == YT_DISPATCH(unit), CMM_ERR_NOT_INIT);
  84              		.loc 1 32 5 discriminator 3 view .LVU21
  85 0024 134B     		ldr	r3, .L16+8
  86 0026 5A69     		ldr	r2, [r3, #20]
  87 0028 134B     		ldr	r3, .L16+12
  88 002a 9968     		ldr	r1, [r3, #8]
  89 002c 1348     		ldr	r0, .L16+16
  90              	.LVL5:
  32:../Switch/core/yt/yt_port.c ****     CMM_PARAM_CHK(NULL == YT_DISPATCH(unit), CMM_ERR_NOT_INIT);
  91              		.loc 1 32 5 is_stmt 0 discriminator 3 view .LVU22
  92 002e FFF7FEFF 		bl	osal_printf
  93              	.LVL6:
  94 0032 F5E7     		b	.L3
  95              	.LVL7:
  96              	.L11:
  32:../Switch/core/yt/yt_port.c ****     CMM_PARAM_CHK(NULL == YT_DISPATCH(unit), CMM_ERR_NOT_INIT);
  97              		.loc 1 32 5 discriminator 3 view .LVU23
  98              	.LBE2:
  33:../Switch/core/yt/yt_port.c ****     CMM_PARAM_CHK((!(YT_DISPATCH(unit)->is_inited)), CMM_ERR_NOT_INIT);
  99              		.loc 1 33 5 is_stmt 1 discriminator 1 view .LVU24
  33:../Switch/core/yt/yt_port.c ****     CMM_PARAM_CHK((!(YT_DISPATCH(unit)->is_inited)), CMM_ERR_NOT_INIT);
 100              		.loc 1 33 5 discriminator 1 view .LVU25
 101 0034 0E4B     		ldr	r3, .L16+4
 102 0036 1B78     		ldrb	r3, [r3]	@ zero_extendqisi2
 103 0038 012B     		cmp	r3, #1
 104 003a 01D8     		bhi	.L14
 105              	.LVL8:
 106              	.L6:
  33:../Switch/core/yt/yt_port.c ****     CMM_PARAM_CHK((!(YT_DISPATCH(unit)->is_inited)), CMM_ERR_NOT_INIT);
 107              		.loc 1 33 5 discriminator 5 view .LVU26
  33:../Switch/core/yt/yt_port.c ****     CMM_PARAM_CHK((!(YT_DISPATCH(unit)->is_inited)), CMM_ERR_NOT_INIT);
 108              		.loc 1 33 5 discriminator 5 view .LVU27
  33:../Switch/core/yt/yt_port.c ****     CMM_PARAM_CHK((!(YT_DISPATCH(unit)->is_inited)), CMM_ERR_NOT_INIT);
 109              		.loc 1 33 5 discriminator 5 view .LVU28
 110 003c 0420     		movs	r0, #4
 111 003e EAE7     		b	.L1
 112              	.LVL9:
 113              	.L14:
  33:../Switch/core/yt/yt_port.c ****     CMM_PARAM_CHK((!(YT_DISPATCH(unit)->is_inited)), CMM_ERR_NOT_INIT);
 114              		.loc 1 33 5 discriminator 3 view .LVU29
 115              	.LBB3:
  33:../Switch/core/yt/yt_port.c ****     CMM_PARAM_CHK((!(YT_DISPATCH(unit)->is_inited)), CMM_ERR_NOT_INIT);
 116              		.loc 1 33 5 discriminator 3 view .LVU30
 117 0040 0C4B     		ldr	r3, .L16+8
 118 0042 1A69     		ldr	r2, [r3, #16]
 119 0044 0C4B     		ldr	r3, .L16+12
 120 0046 9968     		ldr	r1, [r3, #8]
 121 0048 0C48     		ldr	r0, .L16+16
 122              	.LVL10:
  33:../Switch/core/yt/yt_port.c ****     CMM_PARAM_CHK((!(YT_DISPATCH(unit)->is_inited)), CMM_ERR_NOT_INIT);
 123              		.loc 1 33 5 is_stmt 0 discriminator 3 view .LVU31
 124 004a FFF7FEFF 		bl	osal_printf
 125              	.LVL11:
 126 004e F5E7     		b	.L6
 127              	.LVL12:
 128              	.L12:
  33:../Switch/core/yt/yt_port.c ****     CMM_PARAM_CHK((!(YT_DISPATCH(unit)->is_inited)), CMM_ERR_NOT_INIT);
 129              		.loc 1 33 5 discriminator 3 view .LVU32
 130              	.LBE3:
  34:../Switch/core/yt/yt_port.c **** 
 131              		.loc 1 34 5 is_stmt 1 discriminator 1 view .LVU33
  34:../Switch/core/yt/yt_port.c **** 
 132              		.loc 1 34 5 discriminator 1 view .LVU34
 133 0050 074B     		ldr	r3, .L16+4
 134 0052 1B78     		ldrb	r3, [r3]	@ zero_extendqisi2
 135 0054 012B     		cmp	r3, #1
 136 0056 01D8     		bhi	.L15
 137              	.LVL13:
 138              	.L8:
  34:../Switch/core/yt/yt_port.c **** 
 139              		.loc 1 34 5 discriminator 5 view .LVU35
  34:../Switch/core/yt/yt_port.c **** 
 140              		.loc 1 34 5 discriminator 5 view .LVU36
  34:../Switch/core/yt/yt_port.c **** 
 141              		.loc 1 34 5 discriminator 5 view .LVU37
 142 0058 0420     		movs	r0, #4
 143 005a DCE7     		b	.L1
 144              	.LVL14:
 145              	.L15:
  34:../Switch/core/yt/yt_port.c **** 
 146              		.loc 1 34 5 discriminator 3 view .LVU38
 147              	.LBB4:
  34:../Switch/core/yt/yt_port.c **** 
 148              		.loc 1 34 5 discriminator 3 view .LVU39
 149 005c 054B     		ldr	r3, .L16+8
 150 005e 1A69     		ldr	r2, [r3, #16]
 151 0060 054B     		ldr	r3, .L16+12
 152 0062 9968     		ldr	r1, [r3, #8]
 153 0064 0548     		ldr	r0, .L16+16
 154              	.LVL15:
  34:../Switch/core/yt/yt_port.c **** 
 155              		.loc 1 34 5 is_stmt 0 discriminator 3 view .LVU40
 156 0066 FFF7FEFF 		bl	osal_printf
 157              	.LVL16:
 158 006a F5E7     		b	.L8
 159              	.L17:
 160              		.align	2
 161              	.L16:
 162 006c 00000000 		.word	gpfal_dispatch
 163 0070 00000000 		.word	yt_debug_level
 164 0074 00000000 		.word	_yt_errmsg
 165 0078 00000000 		.word	_yt_prompt_msg
 166 007c 00000000 		.word	.LC0
 167              	.LBE4:
 168              		.cfi_endproc
 169              	.LFE3:
 171              		.section	.text.yt_port_enable_set,"ax",%progbits
 172              		.align	1
 173              		.global	yt_port_enable_set
 174              		.syntax unified
 175              		.thumb
 176              		.thumb_func
 178              	yt_port_enable_set:
 179              	.LVL17:
 180              	.LFB4:
  38:../Switch/core/yt/yt_port.c **** 
  39:../Switch/core/yt/yt_port.c **** /**
  40:../Switch/core/yt/yt_port.c ****  * @internal      yt_port_enable_set
  41:../Switch/core/yt/yt_port.c ****  * @endinternal
  42:../Switch/core/yt/yt_port.c ****  *
  43:../Switch/core/yt/yt_port.c ****  * @brief         Description
  44:../Switch/core/yt/yt_port.c ****  * @note          APPLICABLE DEVICES  -Tiger
  45:../Switch/core/yt/yt_port.c ****  * @param[in]     unit                -unit id
  46:../Switch/core/yt/yt_port.c ****  * @param[in]     port                -port num
  47:../Switch/core/yt/yt_port.c ****  * @param[in]     enable              -enable or disable
  48:../Switch/core/yt/yt_port.c ****  * @retval        CMM_ERR_OK          -on success
  49:../Switch/core/yt/yt_port.c ****  * @retval        CMM_ERR_FAIL        -on fail
  50:../Switch/core/yt/yt_port.c ****  */
  51:../Switch/core/yt/yt_port.c **** yt_ret_t yt_port_enable_set(yt_unit_t unit, yt_port_t port, yt_enable_t enable)
  52:../Switch/core/yt/yt_port.c **** {
 181              		.loc 1 52 1 is_stmt 1 view -0
 182              		.cfi_startproc
 183              		@ args = 0, pretend = 0, frame = 0
 184              		@ frame_needed = 0, uses_anonymous_args = 0
 185              		.loc 1 52 1 is_stmt 0 view .LVU42
 186 0000 08B5     		push	{r3, lr}
 187              		.cfi_def_cfa_offset 8
 188              		.cfi_offset 3, -8
 189              		.cfi_offset 14, -4
  53:../Switch/core/yt/yt_port.c ****     CMM_PARAM_CHK((YT_UNIT_NUM <= unit), CMM_ERR_INPUT);
 190              		.loc 1 53 5 is_stmt 1 view .LVU43
 191              		.loc 1 53 5 view .LVU44
 192 0002 C0B9     		cbnz	r0, .L32
 193 0004 8446     		mov	ip, r0
 194              		.loc 1 53 5 discriminator 2 view .LVU45
  54:../Switch/core/yt/yt_port.c ****     CMM_PARAM_CHK(NULL == YT_DISPATCH(unit), CMM_ERR_NOT_INIT);
 195              		.loc 1 54 5 discriminator 2 view .LVU46
 196              		.loc 1 54 5 discriminator 2 view .LVU47
 197 0006 2F4B     		ldr	r3, .L41
 198 0008 53F82030 		ldr	r3, [r3, r0, lsl #2]
 199 000c 0BB3     		cbz	r3, .L33
 200              		.loc 1 54 5 discriminator 2 view .LVU48
  55:../Switch/core/yt/yt_port.c ****     CMM_PARAM_CHK((!(YT_DISPATCH(unit)->is_inited)), CMM_ERR_NOT_INIT);
 201              		.loc 1 55 5 discriminator 2 view .LVU49
 202              		.loc 1 55 5 discriminator 2 view .LVU50
 203 000e 1878     		ldrb	r0, [r3]	@ zero_extendqisi2
 204              	.LVL18:
 205              		.loc 1 55 5 is_stmt 0 discriminator 2 view .LVU51
 206 0010 0028     		cmp	r0, #0
 207 0012 2CD0     		beq	.L34
 208              		.loc 1 55 5 is_stmt 1 discriminator 2 view .LVU52
  56:../Switch/core/yt/yt_port.c ****     CMM_PARAM_CHK((!(CMM_PORT_VALID(unit, port))), CMM_ERR_PORT);
 209              		.loc 1 56 5 discriminator 2 view .LVU53
 210              		.loc 1 56 5 discriminator 2 view .LVU54
 211 0014 2C48     		ldr	r0, .L41+4
 212 0016 0078     		ldrb	r0, [r0]	@ zero_extendqisi2
 213 0018 0028     		cmp	r0, #0
 214 001a 36D0     		beq	.L26
 215 001c 2B48     		ldr	r0, .L41+8
 216 001e 50F82C00 		ldr	r0, [r0, ip, lsl #2]
 217 0022 007D     		ldrb	r0, [r0, #20]	@ zero_extendqisi2
 218 0024 8842     		cmp	r0, r1
 219 0026 30D9     		bls	.L26
 220              		.loc 1 56 5 discriminator 4 view .LVU55
  57:../Switch/core/yt/yt_port.c ****     CMM_PARAM_CHK((YT_ENABLE < enable || YT_DISABLE > enable), CMM_ERR_INPUT);
 221              		.loc 1 57 5 discriminator 4 view .LVU56
 222              		.loc 1 57 5 discriminator 4 view .LVU57
 223 0028 012A     		cmp	r2, #1
 224 002a 3CD8     		bhi	.L35
 225              		.loc 1 57 5 discriminator 2 view .LVU58
  58:../Switch/core/yt/yt_port.c **** 
  59:../Switch/core/yt/yt_port.c ****     return YT_DISPATCH(unit)->port_enable_set(unit, port, enable);
 226              		.loc 1 59 5 discriminator 2 view .LVU59
 227              		.loc 1 59 29 is_stmt 0 discriminator 2 view .LVU60
 228 002c D3F85435 		ldr	r3, [r3, #1364]
 229              		.loc 1 59 12 discriminator 2 view .LVU61
 230 0030 6046     		mov	r0, ip
 231 0032 9847     		blx	r3
 232              	.LVL19:
 233              	.L18:
  60:../Switch/core/yt/yt_port.c **** }
 234              		.loc 1 60 1 view .LVU62
 235 0034 08BD     		pop	{r3, pc}
 236              	.LVL20:
 237              	.L32:
  53:../Switch/core/yt/yt_port.c ****     CMM_PARAM_CHK(NULL == YT_DISPATCH(unit), CMM_ERR_NOT_INIT);
 238              		.loc 1 53 5 is_stmt 1 discriminator 1 view .LVU63
  53:../Switch/core/yt/yt_port.c ****     CMM_PARAM_CHK(NULL == YT_DISPATCH(unit), CMM_ERR_NOT_INIT);
 239              		.loc 1 53 5 discriminator 1 view .LVU64
 240 0036 264B     		ldr	r3, .L41+12
 241 0038 1B78     		ldrb	r3, [r3]	@ zero_extendqisi2
 242 003a 012B     		cmp	r3, #1
 243 003c 01D8     		bhi	.L36
 244              	.LVL21:
 245              	.L20:
  53:../Switch/core/yt/yt_port.c ****     CMM_PARAM_CHK(NULL == YT_DISPATCH(unit), CMM_ERR_NOT_INIT);
 246              		.loc 1 53 5 discriminator 5 view .LVU65
  53:../Switch/core/yt/yt_port.c ****     CMM_PARAM_CHK(NULL == YT_DISPATCH(unit), CMM_ERR_NOT_INIT);
 247              		.loc 1 53 5 discriminator 5 view .LVU66
  53:../Switch/core/yt/yt_port.c ****     CMM_PARAM_CHK(NULL == YT_DISPATCH(unit), CMM_ERR_NOT_INIT);
 248              		.loc 1 53 5 discriminator 5 view .LVU67
 249 003e 0520     		movs	r0, #5
 250 0040 F8E7     		b	.L18
 251              	.LVL22:
 252              	.L36:
  53:../Switch/core/yt/yt_port.c ****     CMM_PARAM_CHK(NULL == YT_DISPATCH(unit), CMM_ERR_NOT_INIT);
 253              		.loc 1 53 5 discriminator 3 view .LVU68
 254              	.LBB5:
  53:../Switch/core/yt/yt_port.c ****     CMM_PARAM_CHK(NULL == YT_DISPATCH(unit), CMM_ERR_NOT_INIT);
 255              		.loc 1 53 5 discriminator 3 view .LVU69
 256 0042 244B     		ldr	r3, .L41+16
 257 0044 5A69     		ldr	r2, [r3, #20]
 258              	.LVL23:
  53:../Switch/core/yt/yt_port.c ****     CMM_PARAM_CHK(NULL == YT_DISPATCH(unit), CMM_ERR_NOT_INIT);
 259              		.loc 1 53 5 is_stmt 0 discriminator 3 view .LVU70
 260 0046 244B     		ldr	r3, .L41+20
 261 0048 9968     		ldr	r1, [r3, #8]
 262              	.LVL24:
  53:../Switch/core/yt/yt_port.c ****     CMM_PARAM_CHK(NULL == YT_DISPATCH(unit), CMM_ERR_NOT_INIT);
 263              		.loc 1 53 5 discriminator 3 view .LVU71
 264 004a 2448     		ldr	r0, .L41+24
 265              	.LVL25:
  53:../Switch/core/yt/yt_port.c ****     CMM_PARAM_CHK(NULL == YT_DISPATCH(unit), CMM_ERR_NOT_INIT);
 266              		.loc 1 53 5 discriminator 3 view .LVU72
 267 004c FFF7FEFF 		bl	osal_printf
 268              	.LVL26:
 269 0050 F5E7     		b	.L20
 270              	.LVL27:
 271              	.L33:
  53:../Switch/core/yt/yt_port.c ****     CMM_PARAM_CHK(NULL == YT_DISPATCH(unit), CMM_ERR_NOT_INIT);
 272              		.loc 1 53 5 discriminator 3 view .LVU73
 273              	.LBE5:
  54:../Switch/core/yt/yt_port.c ****     CMM_PARAM_CHK((!(YT_DISPATCH(unit)->is_inited)), CMM_ERR_NOT_INIT);
 274              		.loc 1 54 5 is_stmt 1 discriminator 1 view .LVU74
  54:../Switch/core/yt/yt_port.c ****     CMM_PARAM_CHK((!(YT_DISPATCH(unit)->is_inited)), CMM_ERR_NOT_INIT);
 275              		.loc 1 54 5 discriminator 1 view .LVU75
 276 0052 1F4B     		ldr	r3, .L41+12
 277 0054 1B78     		ldrb	r3, [r3]	@ zero_extendqisi2
 278 0056 012B     		cmp	r3, #1
 279 0058 01D8     		bhi	.L37
 280              	.LVL28:
 281              	.L23:
  54:../Switch/core/yt/yt_port.c ****     CMM_PARAM_CHK((!(YT_DISPATCH(unit)->is_inited)), CMM_ERR_NOT_INIT);
 282              		.loc 1 54 5 discriminator 5 view .LVU76
  54:../Switch/core/yt/yt_port.c ****     CMM_PARAM_CHK((!(YT_DISPATCH(unit)->is_inited)), CMM_ERR_NOT_INIT);
 283              		.loc 1 54 5 discriminator 5 view .LVU77
  54:../Switch/core/yt/yt_port.c ****     CMM_PARAM_CHK((!(YT_DISPATCH(unit)->is_inited)), CMM_ERR_NOT_INIT);
 284              		.loc 1 54 5 discriminator 5 view .LVU78
 285 005a 0420     		movs	r0, #4
 286 005c EAE7     		b	.L18
 287              	.LVL29:
 288              	.L37:
  54:../Switch/core/yt/yt_port.c ****     CMM_PARAM_CHK((!(YT_DISPATCH(unit)->is_inited)), CMM_ERR_NOT_INIT);
 289              		.loc 1 54 5 discriminator 3 view .LVU79
 290              	.LBB6:
  54:../Switch/core/yt/yt_port.c ****     CMM_PARAM_CHK((!(YT_DISPATCH(unit)->is_inited)), CMM_ERR_NOT_INIT);
 291              		.loc 1 54 5 discriminator 3 view .LVU80
 292 005e 1D4B     		ldr	r3, .L41+16
 293 0060 1A69     		ldr	r2, [r3, #16]
 294              	.LVL30:
  54:../Switch/core/yt/yt_port.c ****     CMM_PARAM_CHK((!(YT_DISPATCH(unit)->is_inited)), CMM_ERR_NOT_INIT);
 295              		.loc 1 54 5 is_stmt 0 discriminator 3 view .LVU81
 296 0062 1D4B     		ldr	r3, .L41+20
 297 0064 9968     		ldr	r1, [r3, #8]
 298              	.LVL31:
  54:../Switch/core/yt/yt_port.c ****     CMM_PARAM_CHK((!(YT_DISPATCH(unit)->is_inited)), CMM_ERR_NOT_INIT);
 299              		.loc 1 54 5 discriminator 3 view .LVU82
 300 0066 1D48     		ldr	r0, .L41+24
 301              	.LVL32:
  54:../Switch/core/yt/yt_port.c ****     CMM_PARAM_CHK((!(YT_DISPATCH(unit)->is_inited)), CMM_ERR_NOT_INIT);
 302              		.loc 1 54 5 discriminator 3 view .LVU83
 303 0068 FFF7FEFF 		bl	osal_printf
 304              	.LVL33:
 305 006c F5E7     		b	.L23
 306              	.LVL34:
 307              	.L34:
  54:../Switch/core/yt/yt_port.c ****     CMM_PARAM_CHK((!(YT_DISPATCH(unit)->is_inited)), CMM_ERR_NOT_INIT);
 308              		.loc 1 54 5 discriminator 3 view .LVU84
 309              	.LBE6:
  55:../Switch/core/yt/yt_port.c ****     CMM_PARAM_CHK((!(CMM_PORT_VALID(unit, port))), CMM_ERR_PORT);
 310              		.loc 1 55 5 is_stmt 1 discriminator 1 view .LVU85
  55:../Switch/core/yt/yt_port.c ****     CMM_PARAM_CHK((!(CMM_PORT_VALID(unit, port))), CMM_ERR_PORT);
 311              		.loc 1 55 5 discriminator 1 view .LVU86
 312 006e 184B     		ldr	r3, .L41+12
 313 0070 1B78     		ldrb	r3, [r3]	@ zero_extendqisi2
 314 0072 012B     		cmp	r3, #1
 315 0074 01D8     		bhi	.L38
 316              	.LVL35:
 317              	.L25:
  55:../Switch/core/yt/yt_port.c ****     CMM_PARAM_CHK((!(CMM_PORT_VALID(unit, port))), CMM_ERR_PORT);
 318              		.loc 1 55 5 discriminator 5 view .LVU87
  55:../Switch/core/yt/yt_port.c ****     CMM_PARAM_CHK((!(CMM_PORT_VALID(unit, port))), CMM_ERR_PORT);
 319              		.loc 1 55 5 discriminator 5 view .LVU88
  55:../Switch/core/yt/yt_port.c ****     CMM_PARAM_CHK((!(CMM_PORT_VALID(unit, port))), CMM_ERR_PORT);
 320              		.loc 1 55 5 discriminator 5 view .LVU89
 321 0076 0420     		movs	r0, #4
 322 0078 DCE7     		b	.L18
 323              	.LVL36:
 324              	.L38:
  55:../Switch/core/yt/yt_port.c ****     CMM_PARAM_CHK((!(CMM_PORT_VALID(unit, port))), CMM_ERR_PORT);
 325              		.loc 1 55 5 discriminator 3 view .LVU90
 326              	.LBB7:
  55:../Switch/core/yt/yt_port.c ****     CMM_PARAM_CHK((!(CMM_PORT_VALID(unit, port))), CMM_ERR_PORT);
 327              		.loc 1 55 5 discriminator 3 view .LVU91
 328 007a 164B     		ldr	r3, .L41+16
 329 007c 1A69     		ldr	r2, [r3, #16]
 330              	.LVL37:
  55:../Switch/core/yt/yt_port.c ****     CMM_PARAM_CHK((!(CMM_PORT_VALID(unit, port))), CMM_ERR_PORT);
 331              		.loc 1 55 5 is_stmt 0 discriminator 3 view .LVU92
 332 007e 164B     		ldr	r3, .L41+20
 333 0080 9968     		ldr	r1, [r3, #8]
 334              	.LVL38:
  55:../Switch/core/yt/yt_port.c ****     CMM_PARAM_CHK((!(CMM_PORT_VALID(unit, port))), CMM_ERR_PORT);
 335              		.loc 1 55 5 discriminator 3 view .LVU93
 336 0082 1648     		ldr	r0, .L41+24
 337 0084 FFF7FEFF 		bl	osal_printf
 338              	.LVL39:
 339 0088 F5E7     		b	.L25
 340              	.LVL40:
 341              	.L26:
  55:../Switch/core/yt/yt_port.c ****     CMM_PARAM_CHK((!(CMM_PORT_VALID(unit, port))), CMM_ERR_PORT);
 342              		.loc 1 55 5 discriminator 3 view .LVU94
 343              	.LBE7:
  56:../Switch/core/yt/yt_port.c ****     CMM_PARAM_CHK((YT_ENABLE < enable || YT_DISABLE > enable), CMM_ERR_INPUT);
 344              		.loc 1 56 5 is_stmt 1 discriminator 3 view .LVU95
  56:../Switch/core/yt/yt_port.c ****     CMM_PARAM_CHK((YT_ENABLE < enable || YT_DISABLE > enable), CMM_ERR_INPUT);
 345              		.loc 1 56 5 discriminator 3 view .LVU96
 346 008a 114B     		ldr	r3, .L41+12
 347 008c 1B78     		ldrb	r3, [r3]	@ zero_extendqisi2
 348 008e 012B     		cmp	r3, #1
 349 0090 01D8     		bhi	.L39
 350              	.LVL41:
 351              	.L28:
  56:../Switch/core/yt/yt_port.c ****     CMM_PARAM_CHK((YT_ENABLE < enable || YT_DISABLE > enable), CMM_ERR_INPUT);
 352              		.loc 1 56 5 discriminator 7 view .LVU97
  56:../Switch/core/yt/yt_port.c ****     CMM_PARAM_CHK((YT_ENABLE < enable || YT_DISABLE > enable), CMM_ERR_INPUT);
 353              		.loc 1 56 5 discriminator 7 view .LVU98
  56:../Switch/core/yt/yt_port.c ****     CMM_PARAM_CHK((YT_ENABLE < enable || YT_DISABLE > enable), CMM_ERR_INPUT);
 354              		.loc 1 56 5 discriminator 7 view .LVU99
 355 0092 0E20     		movs	r0, #14
 356 0094 CEE7     		b	.L18
 357              	.LVL42:
 358              	.L39:
  56:../Switch/core/yt/yt_port.c ****     CMM_PARAM_CHK((YT_ENABLE < enable || YT_DISABLE > enable), CMM_ERR_INPUT);
 359              		.loc 1 56 5 discriminator 5 view .LVU100
 360              	.LBB8:
  56:../Switch/core/yt/yt_port.c ****     CMM_PARAM_CHK((YT_ENABLE < enable || YT_DISABLE > enable), CMM_ERR_INPUT);
 361              		.loc 1 56 5 discriminator 5 view .LVU101
 362 0096 0F4B     		ldr	r3, .L41+16
 363 0098 9A6B     		ldr	r2, [r3, #56]
 364              	.LVL43:
  56:../Switch/core/yt/yt_port.c ****     CMM_PARAM_CHK((YT_ENABLE < enable || YT_DISABLE > enable), CMM_ERR_INPUT);
 365              		.loc 1 56 5 is_stmt 0 discriminator 5 view .LVU102
 366 009a 0F4B     		ldr	r3, .L41+20
 367 009c 9968     		ldr	r1, [r3, #8]
 368              	.LVL44:
  56:../Switch/core/yt/yt_port.c ****     CMM_PARAM_CHK((YT_ENABLE < enable || YT_DISABLE > enable), CMM_ERR_INPUT);
 369              		.loc 1 56 5 discriminator 5 view .LVU103
 370 009e 0F48     		ldr	r0, .L41+24
 371 00a0 FFF7FEFF 		bl	osal_printf
 372              	.LVL45:
 373 00a4 F5E7     		b	.L28
 374              	.LVL46:
 375              	.L35:
  56:../Switch/core/yt/yt_port.c ****     CMM_PARAM_CHK((YT_ENABLE < enable || YT_DISABLE > enable), CMM_ERR_INPUT);
 376              		.loc 1 56 5 discriminator 5 view .LVU104
 377              	.LBE8:
  57:../Switch/core/yt/yt_port.c **** 
 378              		.loc 1 57 5 is_stmt 1 discriminator 1 view .LVU105
  57:../Switch/core/yt/yt_port.c **** 
 379              		.loc 1 57 5 discriminator 1 view .LVU106
 380 00a6 0A4B     		ldr	r3, .L41+12
 381 00a8 1B78     		ldrb	r3, [r3]	@ zero_extendqisi2
 382 00aa 012B     		cmp	r3, #1
 383 00ac 01D8     		bhi	.L40
 384              	.LVL47:
 385              	.L30:
  57:../Switch/core/yt/yt_port.c **** 
 386              		.loc 1 57 5 discriminator 5 view .LVU107
  57:../Switch/core/yt/yt_port.c **** 
 387              		.loc 1 57 5 discriminator 5 view .LVU108
  57:../Switch/core/yt/yt_port.c **** 
 388              		.loc 1 57 5 discriminator 5 view .LVU109
 389 00ae 0520     		movs	r0, #5
 390 00b0 C0E7     		b	.L18
 391              	.LVL48:
 392              	.L40:
  57:../Switch/core/yt/yt_port.c **** 
 393              		.loc 1 57 5 discriminator 3 view .LVU110
 394              	.LBB9:
  57:../Switch/core/yt/yt_port.c **** 
 395              		.loc 1 57 5 discriminator 3 view .LVU111
 396 00b2 084B     		ldr	r3, .L41+16
 397 00b4 5A69     		ldr	r2, [r3, #20]
 398              	.LVL49:
  57:../Switch/core/yt/yt_port.c **** 
 399              		.loc 1 57 5 is_stmt 0 discriminator 3 view .LVU112
 400 00b6 084B     		ldr	r3, .L41+20
 401 00b8 9968     		ldr	r1, [r3, #8]
 402              	.LVL50:
  57:../Switch/core/yt/yt_port.c **** 
 403              		.loc 1 57 5 discriminator 3 view .LVU113
 404 00ba 0848     		ldr	r0, .L41+24
 405 00bc FFF7FEFF 		bl	osal_printf
 406              	.LVL51:
 407 00c0 F5E7     		b	.L30
 408              	.L42:
 409 00c2 00BF     		.align	2
 410              	.L41:
 411 00c4 00000000 		.word	gpfal_dispatch
 412 00c8 00000000 		.word	gcal_inited
 413 00cc 00000000 		.word	gpSwitchUnit
 414 00d0 00000000 		.word	yt_debug_level
 415 00d4 00000000 		.word	_yt_errmsg
 416 00d8 00000000 		.word	_yt_prompt_msg
 417 00dc 00000000 		.word	.LC0
 418              	.LBE9:
 419              		.cfi_endproc
 420              	.LFE4:
 422              		.section	.text.yt_port_enable_get,"ax",%progbits
 423              		.align	1
 424              		.global	yt_port_enable_get
 425              		.syntax unified
 426              		.thumb
 427              		.thumb_func
 429              	yt_port_enable_get:
 430              	.LVL52:
 431              	.LFB5:
  61:../Switch/core/yt/yt_port.c **** 
  62:../Switch/core/yt/yt_port.c **** /**
  63:../Switch/core/yt/yt_port.c ****  * @internal      yt_port_enable_get
  64:../Switch/core/yt/yt_port.c ****  * @endinternal
  65:../Switch/core/yt/yt_port.c ****  *
  66:../Switch/core/yt/yt_port.c ****  * @brief         Description
  67:../Switch/core/yt/yt_port.c ****  * @note          APPLICABLE DEVICES  -Tiger
  68:../Switch/core/yt/yt_port.c ****  * @param[in]     unit                -unit id
  69:../Switch/core/yt/yt_port.c ****  * @param[in]     port                -port num
  70:../Switch/core/yt/yt_port.c ****  * @param[out]    pEnable             -enable or disable
  71:../Switch/core/yt/yt_port.c ****  * @retval        CMM_ERR_OK          -on success
  72:../Switch/core/yt/yt_port.c ****  * @retval        CMM_ERR_FAIL        -on fail
  73:../Switch/core/yt/yt_port.c ****  */
  74:../Switch/core/yt/yt_port.c **** yt_ret_t yt_port_enable_get(yt_unit_t unit, yt_port_t port, yt_enable_t *pEnable)
  75:../Switch/core/yt/yt_port.c **** {
 432              		.loc 1 75 1 is_stmt 1 view -0
 433              		.cfi_startproc
 434              		@ args = 0, pretend = 0, frame = 0
 435              		@ frame_needed = 0, uses_anonymous_args = 0
 436              		.loc 1 75 1 is_stmt 0 view .LVU115
 437 0000 08B5     		push	{r3, lr}
 438              		.cfi_def_cfa_offset 8
 439              		.cfi_offset 3, -8
 440              		.cfi_offset 14, -4
  76:../Switch/core/yt/yt_port.c ****     CMM_PARAM_CHK((YT_UNIT_NUM <= unit), CMM_ERR_INPUT);
 441              		.loc 1 76 5 is_stmt 1 view .LVU116
 442              		.loc 1 76 5 view .LVU117
 443 0002 C0B9     		cbnz	r0, .L57
 444 0004 8446     		mov	ip, r0
 445              		.loc 1 76 5 discriminator 2 view .LVU118
  77:../Switch/core/yt/yt_port.c ****     CMM_PARAM_CHK(NULL == YT_DISPATCH(unit), CMM_ERR_NOT_INIT);
 446              		.loc 1 77 5 discriminator 2 view .LVU119
 447              		.loc 1 77 5 discriminator 2 view .LVU120
 448 0006 2F4B     		ldr	r3, .L66
 449 0008 53F82030 		ldr	r3, [r3, r0, lsl #2]
 450 000c 0BB3     		cbz	r3, .L58
 451              		.loc 1 77 5 discriminator 2 view .LVU121
  78:../Switch/core/yt/yt_port.c ****     CMM_PARAM_CHK((!(YT_DISPATCH(unit)->is_inited)), CMM_ERR_NOT_INIT);
 452              		.loc 1 78 5 discriminator 2 view .LVU122
 453              		.loc 1 78 5 discriminator 2 view .LVU123
 454 000e 1878     		ldrb	r0, [r3]	@ zero_extendqisi2
 455              	.LVL53:
 456              		.loc 1 78 5 is_stmt 0 discriminator 2 view .LVU124
 457 0010 0028     		cmp	r0, #0
 458 0012 2CD0     		beq	.L59
 459              		.loc 1 78 5 is_stmt 1 discriminator 2 view .LVU125
  79:../Switch/core/yt/yt_port.c ****     CMM_PARAM_CHK((!(CMM_PORT_VALID(unit, port))), CMM_ERR_PORT);
 460              		.loc 1 79 5 discriminator 2 view .LVU126
 461              		.loc 1 79 5 discriminator 2 view .LVU127
 462 0014 2C48     		ldr	r0, .L66+4
 463 0016 0078     		ldrb	r0, [r0]	@ zero_extendqisi2
 464 0018 0028     		cmp	r0, #0
 465 001a 36D0     		beq	.L51
 466 001c 2B48     		ldr	r0, .L66+8
 467 001e 50F82C00 		ldr	r0, [r0, ip, lsl #2]
 468 0022 007D     		ldrb	r0, [r0, #20]	@ zero_extendqisi2
 469 0024 8842     		cmp	r0, r1
 470 0026 30D9     		bls	.L51
 471              		.loc 1 79 5 discriminator 4 view .LVU128
  80:../Switch/core/yt/yt_port.c ****     CMM_PARAM_CHK((NULL == pEnable), CMM_ERR_NULL_POINT);
 472              		.loc 1 80 5 discriminator 4 view .LVU129
 473              		.loc 1 80 5 discriminator 4 view .LVU130
 474 0028 002A     		cmp	r2, #0
 475 002a 3CD0     		beq	.L60
 476              		.loc 1 80 5 discriminator 2 view .LVU131
  81:../Switch/core/yt/yt_port.c **** 
  82:../Switch/core/yt/yt_port.c ****     return YT_DISPATCH(unit)->port_enable_get(unit, port, pEnable);
 477              		.loc 1 82 5 discriminator 2 view .LVU132
 478              		.loc 1 82 29 is_stmt 0 discriminator 2 view .LVU133
 479 002c D3F85835 		ldr	r3, [r3, #1368]
 480              		.loc 1 82 12 discriminator 2 view .LVU134
 481 0030 6046     		mov	r0, ip
 482 0032 9847     		blx	r3
 483              	.LVL54:
 484              	.L43:
  83:../Switch/core/yt/yt_port.c **** }
 485              		.loc 1 83 1 view .LVU135
 486 0034 08BD     		pop	{r3, pc}
 487              	.LVL55:
 488              	.L57:
  76:../Switch/core/yt/yt_port.c ****     CMM_PARAM_CHK(NULL == YT_DISPATCH(unit), CMM_ERR_NOT_INIT);
 489              		.loc 1 76 5 is_stmt 1 discriminator 1 view .LVU136
  76:../Switch/core/yt/yt_port.c ****     CMM_PARAM_CHK(NULL == YT_DISPATCH(unit), CMM_ERR_NOT_INIT);
 490              		.loc 1 76 5 discriminator 1 view .LVU137
 491 0036 264B     		ldr	r3, .L66+12
 492 0038 1B78     		ldrb	r3, [r3]	@ zero_extendqisi2
 493 003a 012B     		cmp	r3, #1
 494 003c 01D8     		bhi	.L61
 495              	.LVL56:
 496              	.L45:
  76:../Switch/core/yt/yt_port.c ****     CMM_PARAM_CHK(NULL == YT_DISPATCH(unit), CMM_ERR_NOT_INIT);
 497              		.loc 1 76 5 discriminator 5 view .LVU138
  76:../Switch/core/yt/yt_port.c ****     CMM_PARAM_CHK(NULL == YT_DISPATCH(unit), CMM_ERR_NOT_INIT);
 498              		.loc 1 76 5 discriminator 5 view .LVU139
  76:../Switch/core/yt/yt_port.c ****     CMM_PARAM_CHK(NULL == YT_DISPATCH(unit), CMM_ERR_NOT_INIT);
 499              		.loc 1 76 5 discriminator 5 view .LVU140
 500 003e 0520     		movs	r0, #5
 501 0040 F8E7     		b	.L43
 502              	.LVL57:
 503              	.L61:
  76:../Switch/core/yt/yt_port.c ****     CMM_PARAM_CHK(NULL == YT_DISPATCH(unit), CMM_ERR_NOT_INIT);
 504              		.loc 1 76 5 discriminator 3 view .LVU141
 505              	.LBB10:
  76:../Switch/core/yt/yt_port.c ****     CMM_PARAM_CHK(NULL == YT_DISPATCH(unit), CMM_ERR_NOT_INIT);
 506              		.loc 1 76 5 discriminator 3 view .LVU142
 507 0042 244B     		ldr	r3, .L66+16
 508 0044 5A69     		ldr	r2, [r3, #20]
 509              	.LVL58:
  76:../Switch/core/yt/yt_port.c ****     CMM_PARAM_CHK(NULL == YT_DISPATCH(unit), CMM_ERR_NOT_INIT);
 510              		.loc 1 76 5 is_stmt 0 discriminator 3 view .LVU143
 511 0046 244B     		ldr	r3, .L66+20
 512 0048 9968     		ldr	r1, [r3, #8]
 513              	.LVL59:
  76:../Switch/core/yt/yt_port.c ****     CMM_PARAM_CHK(NULL == YT_DISPATCH(unit), CMM_ERR_NOT_INIT);
 514              		.loc 1 76 5 discriminator 3 view .LVU144
 515 004a 2448     		ldr	r0, .L66+24
 516              	.LVL60:
  76:../Switch/core/yt/yt_port.c ****     CMM_PARAM_CHK(NULL == YT_DISPATCH(unit), CMM_ERR_NOT_INIT);
 517              		.loc 1 76 5 discriminator 3 view .LVU145
 518 004c FFF7FEFF 		bl	osal_printf
 519              	.LVL61:
 520 0050 F5E7     		b	.L45
 521              	.LVL62:
 522              	.L58:
  76:../Switch/core/yt/yt_port.c ****     CMM_PARAM_CHK(NULL == YT_DISPATCH(unit), CMM_ERR_NOT_INIT);
 523              		.loc 1 76 5 discriminator 3 view .LVU146
 524              	.LBE10:
  77:../Switch/core/yt/yt_port.c ****     CMM_PARAM_CHK((!(YT_DISPATCH(unit)->is_inited)), CMM_ERR_NOT_INIT);
 525              		.loc 1 77 5 is_stmt 1 discriminator 1 view .LVU147
  77:../Switch/core/yt/yt_port.c ****     CMM_PARAM_CHK((!(YT_DISPATCH(unit)->is_inited)), CMM_ERR_NOT_INIT);
 526              		.loc 1 77 5 discriminator 1 view .LVU148
 527 0052 1F4B     		ldr	r3, .L66+12
 528 0054 1B78     		ldrb	r3, [r3]	@ zero_extendqisi2
 529 0056 012B     		cmp	r3, #1
 530 0058 01D8     		bhi	.L62
 531              	.LVL63:
 532              	.L48:
  77:../Switch/core/yt/yt_port.c ****     CMM_PARAM_CHK((!(YT_DISPATCH(unit)->is_inited)), CMM_ERR_NOT_INIT);
 533              		.loc 1 77 5 discriminator 5 view .LVU149
  77:../Switch/core/yt/yt_port.c ****     CMM_PARAM_CHK((!(YT_DISPATCH(unit)->is_inited)), CMM_ERR_NOT_INIT);
 534              		.loc 1 77 5 discriminator 5 view .LVU150
  77:../Switch/core/yt/yt_port.c ****     CMM_PARAM_CHK((!(YT_DISPATCH(unit)->is_inited)), CMM_ERR_NOT_INIT);
 535              		.loc 1 77 5 discriminator 5 view .LVU151
 536 005a 0420     		movs	r0, #4
 537 005c EAE7     		b	.L43
 538              	.LVL64:
 539              	.L62:
  77:../Switch/core/yt/yt_port.c ****     CMM_PARAM_CHK((!(YT_DISPATCH(unit)->is_inited)), CMM_ERR_NOT_INIT);
 540              		.loc 1 77 5 discriminator 3 view .LVU152
 541              	.LBB11:
  77:../Switch/core/yt/yt_port.c ****     CMM_PARAM_CHK((!(YT_DISPATCH(unit)->is_inited)), CMM_ERR_NOT_INIT);
 542              		.loc 1 77 5 discriminator 3 view .LVU153
 543 005e 1D4B     		ldr	r3, .L66+16
 544 0060 1A69     		ldr	r2, [r3, #16]
 545              	.LVL65:
  77:../Switch/core/yt/yt_port.c ****     CMM_PARAM_CHK((!(YT_DISPATCH(unit)->is_inited)), CMM_ERR_NOT_INIT);
 546              		.loc 1 77 5 is_stmt 0 discriminator 3 view .LVU154
 547 0062 1D4B     		ldr	r3, .L66+20
 548 0064 9968     		ldr	r1, [r3, #8]
 549              	.LVL66:
  77:../Switch/core/yt/yt_port.c ****     CMM_PARAM_CHK((!(YT_DISPATCH(unit)->is_inited)), CMM_ERR_NOT_INIT);
 550              		.loc 1 77 5 discriminator 3 view .LVU155
 551 0066 1D48     		ldr	r0, .L66+24
 552              	.LVL67:
  77:../Switch/core/yt/yt_port.c ****     CMM_PARAM_CHK((!(YT_DISPATCH(unit)->is_inited)), CMM_ERR_NOT_INIT);
 553              		.loc 1 77 5 discriminator 3 view .LVU156
 554 0068 FFF7FEFF 		bl	osal_printf
 555              	.LVL68:
 556 006c F5E7     		b	.L48
 557              	.LVL69:
 558              	.L59:
  77:../Switch/core/yt/yt_port.c ****     CMM_PARAM_CHK((!(YT_DISPATCH(unit)->is_inited)), CMM_ERR_NOT_INIT);
 559              		.loc 1 77 5 discriminator 3 view .LVU157
 560              	.LBE11:
  78:../Switch/core/yt/yt_port.c ****     CMM_PARAM_CHK((!(CMM_PORT_VALID(unit, port))), CMM_ERR_PORT);
 561              		.loc 1 78 5 is_stmt 1 discriminator 1 view .LVU158
  78:../Switch/core/yt/yt_port.c ****     CMM_PARAM_CHK((!(CMM_PORT_VALID(unit, port))), CMM_ERR_PORT);
 562              		.loc 1 78 5 discriminator 1 view .LVU159
 563 006e 184B     		ldr	r3, .L66+12
 564 0070 1B78     		ldrb	r3, [r3]	@ zero_extendqisi2
 565 0072 012B     		cmp	r3, #1
 566 0074 01D8     		bhi	.L63
 567              	.LVL70:
 568              	.L50:
  78:../Switch/core/yt/yt_port.c ****     CMM_PARAM_CHK((!(CMM_PORT_VALID(unit, port))), CMM_ERR_PORT);
 569              		.loc 1 78 5 discriminator 5 view .LVU160
  78:../Switch/core/yt/yt_port.c ****     CMM_PARAM_CHK((!(CMM_PORT_VALID(unit, port))), CMM_ERR_PORT);
 570              		.loc 1 78 5 discriminator 5 view .LVU161
  78:../Switch/core/yt/yt_port.c ****     CMM_PARAM_CHK((!(CMM_PORT_VALID(unit, port))), CMM_ERR_PORT);
 571              		.loc 1 78 5 discriminator 5 view .LVU162
 572 0076 0420     		movs	r0, #4
 573 0078 DCE7     		b	.L43
 574              	.LVL71:
 575              	.L63:
  78:../Switch/core/yt/yt_port.c ****     CMM_PARAM_CHK((!(CMM_PORT_VALID(unit, port))), CMM_ERR_PORT);
 576              		.loc 1 78 5 discriminator 3 view .LVU163
 577              	.LBB12:
  78:../Switch/core/yt/yt_port.c ****     CMM_PARAM_CHK((!(CMM_PORT_VALID(unit, port))), CMM_ERR_PORT);
 578              		.loc 1 78 5 discriminator 3 view .LVU164
 579 007a 164B     		ldr	r3, .L66+16
 580 007c 1A69     		ldr	r2, [r3, #16]
 581              	.LVL72:
  78:../Switch/core/yt/yt_port.c ****     CMM_PARAM_CHK((!(CMM_PORT_VALID(unit, port))), CMM_ERR_PORT);
 582              		.loc 1 78 5 is_stmt 0 discriminator 3 view .LVU165
 583 007e 164B     		ldr	r3, .L66+20
 584 0080 9968     		ldr	r1, [r3, #8]
 585              	.LVL73:
  78:../Switch/core/yt/yt_port.c ****     CMM_PARAM_CHK((!(CMM_PORT_VALID(unit, port))), CMM_ERR_PORT);
 586              		.loc 1 78 5 discriminator 3 view .LVU166
 587 0082 1648     		ldr	r0, .L66+24
 588 0084 FFF7FEFF 		bl	osal_printf
 589              	.LVL74:
 590 0088 F5E7     		b	.L50
 591              	.LVL75:
 592              	.L51:
  78:../Switch/core/yt/yt_port.c ****     CMM_PARAM_CHK((!(CMM_PORT_VALID(unit, port))), CMM_ERR_PORT);
 593              		.loc 1 78 5 discriminator 3 view .LVU167
 594              	.LBE12:
  79:../Switch/core/yt/yt_port.c ****     CMM_PARAM_CHK((NULL == pEnable), CMM_ERR_NULL_POINT);
 595              		.loc 1 79 5 is_stmt 1 discriminator 3 view .LVU168
  79:../Switch/core/yt/yt_port.c ****     CMM_PARAM_CHK((NULL == pEnable), CMM_ERR_NULL_POINT);
 596              		.loc 1 79 5 discriminator 3 view .LVU169
 597 008a 114B     		ldr	r3, .L66+12
 598 008c 1B78     		ldrb	r3, [r3]	@ zero_extendqisi2
 599 008e 012B     		cmp	r3, #1
 600 0090 01D8     		bhi	.L64
 601              	.LVL76:
 602              	.L53:
  79:../Switch/core/yt/yt_port.c ****     CMM_PARAM_CHK((NULL == pEnable), CMM_ERR_NULL_POINT);
 603              		.loc 1 79 5 discriminator 7 view .LVU170
  79:../Switch/core/yt/yt_port.c ****     CMM_PARAM_CHK((NULL == pEnable), CMM_ERR_NULL_POINT);
 604              		.loc 1 79 5 discriminator 7 view .LVU171
  79:../Switch/core/yt/yt_port.c ****     CMM_PARAM_CHK((NULL == pEnable), CMM_ERR_NULL_POINT);
 605              		.loc 1 79 5 discriminator 7 view .LVU172
 606 0092 0E20     		movs	r0, #14
 607 0094 CEE7     		b	.L43
 608              	.LVL77:
 609              	.L64:
  79:../Switch/core/yt/yt_port.c ****     CMM_PARAM_CHK((NULL == pEnable), CMM_ERR_NULL_POINT);
 610              		.loc 1 79 5 discriminator 5 view .LVU173
 611              	.LBB13:
  79:../Switch/core/yt/yt_port.c ****     CMM_PARAM_CHK((NULL == pEnable), CMM_ERR_NULL_POINT);
 612              		.loc 1 79 5 discriminator 5 view .LVU174
 613 0096 0F4B     		ldr	r3, .L66+16
 614 0098 9A6B     		ldr	r2, [r3, #56]
 615              	.LVL78:
  79:../Switch/core/yt/yt_port.c ****     CMM_PARAM_CHK((NULL == pEnable), CMM_ERR_NULL_POINT);
 616              		.loc 1 79 5 is_stmt 0 discriminator 5 view .LVU175
 617 009a 0F4B     		ldr	r3, .L66+20
 618 009c 9968     		ldr	r1, [r3, #8]
 619              	.LVL79:
  79:../Switch/core/yt/yt_port.c ****     CMM_PARAM_CHK((NULL == pEnable), CMM_ERR_NULL_POINT);
 620              		.loc 1 79 5 discriminator 5 view .LVU176
 621 009e 0F48     		ldr	r0, .L66+24
 622 00a0 FFF7FEFF 		bl	osal_printf
 623              	.LVL80:
 624 00a4 F5E7     		b	.L53
 625              	.LVL81:
 626              	.L60:
  79:../Switch/core/yt/yt_port.c ****     CMM_PARAM_CHK((NULL == pEnable), CMM_ERR_NULL_POINT);
 627              		.loc 1 79 5 discriminator 5 view .LVU177
 628              	.LBE13:
  80:../Switch/core/yt/yt_port.c **** 
 629              		.loc 1 80 5 is_stmt 1 discriminator 1 view .LVU178
  80:../Switch/core/yt/yt_port.c **** 
 630              		.loc 1 80 5 discriminator 1 view .LVU179
 631 00a6 0A4B     		ldr	r3, .L66+12
 632 00a8 1B78     		ldrb	r3, [r3]	@ zero_extendqisi2
 633 00aa 012B     		cmp	r3, #1
 634 00ac 01D8     		bhi	.L65
 635              	.LVL82:
 636              	.L55:
  80:../Switch/core/yt/yt_port.c **** 
 637              		.loc 1 80 5 discriminator 5 view .LVU180
  80:../Switch/core/yt/yt_port.c **** 
 638              		.loc 1 80 5 discriminator 5 view .LVU181
  80:../Switch/core/yt/yt_port.c **** 
 639              		.loc 1 80 5 discriminator 5 view .LVU182
 640 00ae 0220     		movs	r0, #2
 641 00b0 C0E7     		b	.L43
 642              	.LVL83:
 643              	.L65:
  80:../Switch/core/yt/yt_port.c **** 
 644              		.loc 1 80 5 discriminator 3 view .LVU183
 645              	.LBB14:
  80:../Switch/core/yt/yt_port.c **** 
 646              		.loc 1 80 5 discriminator 3 view .LVU184
 647 00b2 084B     		ldr	r3, .L66+16
 648 00b4 9A68     		ldr	r2, [r3, #8]
 649              	.LVL84:
  80:../Switch/core/yt/yt_port.c **** 
 650              		.loc 1 80 5 is_stmt 0 discriminator 3 view .LVU185
 651 00b6 084B     		ldr	r3, .L66+20
 652 00b8 9968     		ldr	r1, [r3, #8]
 653              	.LVL85:
  80:../Switch/core/yt/yt_port.c **** 
 654              		.loc 1 80 5 discriminator 3 view .LVU186
 655 00ba 0848     		ldr	r0, .L66+24
 656 00bc FFF7FEFF 		bl	osal_printf
 657              	.LVL86:
 658 00c0 F5E7     		b	.L55
 659              	.L67:
 660 00c2 00BF     		.align	2
 661              	.L66:
 662 00c4 00000000 		.word	gpfal_dispatch
 663 00c8 00000000 		.word	gcal_inited
 664 00cc 00000000 		.word	gpSwitchUnit
 665 00d0 00000000 		.word	yt_debug_level
 666 00d4 00000000 		.word	_yt_errmsg
 667 00d8 00000000 		.word	_yt_prompt_msg
 668 00dc 00000000 		.word	.LC0
 669              	.LBE14:
 670              		.cfi_endproc
 671              	.LFE5:
 673              		.section	.text.yt_port_link_status_get,"ax",%progbits
 674              		.align	1
 675              		.global	yt_port_link_status_get
 676              		.syntax unified
 677              		.thumb
 678              		.thumb_func
 680              	yt_port_link_status_get:
 681              	.LVL87:
 682              	.LFB6:
  84:../Switch/core/yt/yt_port.c **** 
  85:../Switch/core/yt/yt_port.c **** /**
  86:../Switch/core/yt/yt_port.c ****  * @internal      yt_port_link_status_get
  87:../Switch/core/yt/yt_port.c ****  * @endinternal
  88:../Switch/core/yt/yt_port.c ****  *
  89:../Switch/core/yt/yt_port.c ****  * @brief         Description
  90:../Switch/core/yt/yt_port.c ****  * @note          APPLICABLE DEVICES  -Tiger
  91:../Switch/core/yt/yt_port.c ****  * @param[in]     unit                -unit id
  92:../Switch/core/yt/yt_port.c ****  * @param[in]     port                -port num
  93:../Switch/core/yt/yt_port.c ****  * @param[out]    pLinkStatus         -x
  94:../Switch/core/yt/yt_port.c ****  * @retval        CMM_ERR_OK          -on success
  95:../Switch/core/yt/yt_port.c ****  * @retval        CMM_ERR_FAIL        -on fail
  96:../Switch/core/yt/yt_port.c ****  */
  97:../Switch/core/yt/yt_port.c **** yt_ret_t yt_port_link_status_get(yt_unit_t unit, yt_port_t port, yt_port_link_status_t *pLinkStatus
  98:../Switch/core/yt/yt_port.c **** {
 683              		.loc 1 98 1 is_stmt 1 view -0
 684              		.cfi_startproc
 685              		@ args = 0, pretend = 0, frame = 0
 686              		@ frame_needed = 0, uses_anonymous_args = 0
 687              		.loc 1 98 1 is_stmt 0 view .LVU188
 688 0000 08B5     		push	{r3, lr}
 689              		.cfi_def_cfa_offset 8
 690              		.cfi_offset 3, -8
 691              		.cfi_offset 14, -4
  99:../Switch/core/yt/yt_port.c ****     CMM_PARAM_CHK((YT_UNIT_NUM <= unit), CMM_ERR_INPUT);
 692              		.loc 1 99 5 is_stmt 1 view .LVU189
 693              		.loc 1 99 5 view .LVU190
 694 0002 C0B9     		cbnz	r0, .L82
 695 0004 8446     		mov	ip, r0
 696              		.loc 1 99 5 discriminator 2 view .LVU191
 100:../Switch/core/yt/yt_port.c ****     CMM_PARAM_CHK(NULL == YT_DISPATCH(unit), CMM_ERR_NOT_INIT);
 697              		.loc 1 100 5 discriminator 2 view .LVU192
 698              		.loc 1 100 5 discriminator 2 view .LVU193
 699 0006 2F4B     		ldr	r3, .L91
 700 0008 53F82030 		ldr	r3, [r3, r0, lsl #2]
 701 000c 0BB3     		cbz	r3, .L83
 702              		.loc 1 100 5 discriminator 2 view .LVU194
 101:../Switch/core/yt/yt_port.c ****     CMM_PARAM_CHK((!(YT_DISPATCH(unit)->is_inited)), CMM_ERR_NOT_INIT);
 703              		.loc 1 101 5 discriminator 2 view .LVU195
 704              		.loc 1 101 5 discriminator 2 view .LVU196
 705 000e 1878     		ldrb	r0, [r3]	@ zero_extendqisi2
 706              	.LVL88:
 707              		.loc 1 101 5 is_stmt 0 discriminator 2 view .LVU197
 708 0010 0028     		cmp	r0, #0
 709 0012 2CD0     		beq	.L84
 710              		.loc 1 101 5 is_stmt 1 discriminator 2 view .LVU198
 102:../Switch/core/yt/yt_port.c ****     CMM_PARAM_CHK((!(CMM_PORT_VALID(unit, port))), CMM_ERR_PORT);
 711              		.loc 1 102 5 discriminator 2 view .LVU199
 712              		.loc 1 102 5 discriminator 2 view .LVU200
 713 0014 2C48     		ldr	r0, .L91+4
 714 0016 0078     		ldrb	r0, [r0]	@ zero_extendqisi2
 715 0018 0028     		cmp	r0, #0
 716 001a 36D0     		beq	.L76
 717 001c 2B48     		ldr	r0, .L91+8
 718 001e 50F82C00 		ldr	r0, [r0, ip, lsl #2]
 719 0022 007D     		ldrb	r0, [r0, #20]	@ zero_extendqisi2
 720 0024 8842     		cmp	r0, r1
 721 0026 30D9     		bls	.L76
 722              		.loc 1 102 5 discriminator 4 view .LVU201
 103:../Switch/core/yt/yt_port.c ****     CMM_PARAM_CHK((NULL == pLinkStatus), CMM_ERR_NULL_POINT);
 723              		.loc 1 103 5 discriminator 4 view .LVU202
 724              		.loc 1 103 5 discriminator 4 view .LVU203
 725 0028 002A     		cmp	r2, #0
 726 002a 3CD0     		beq	.L85
 727              		.loc 1 103 5 discriminator 2 view .LVU204
 104:../Switch/core/yt/yt_port.c **** 
 105:../Switch/core/yt/yt_port.c ****     return YT_DISPATCH(unit)->port_link_status_get(unit, port, pLinkStatus);
 728              		.loc 1 105 5 discriminator 2 view .LVU205
 729              		.loc 1 105 29 is_stmt 0 discriminator 2 view .LVU206
 730 002c D3F85C35 		ldr	r3, [r3, #1372]
 731              		.loc 1 105 12 discriminator 2 view .LVU207
 732 0030 6046     		mov	r0, ip
 733 0032 9847     		blx	r3
 734              	.LVL89:
 735              	.L68:
 106:../Switch/core/yt/yt_port.c **** }
 736              		.loc 1 106 1 view .LVU208
 737 0034 08BD     		pop	{r3, pc}
 738              	.LVL90:
 739              	.L82:
  99:../Switch/core/yt/yt_port.c ****     CMM_PARAM_CHK(NULL == YT_DISPATCH(unit), CMM_ERR_NOT_INIT);
 740              		.loc 1 99 5 is_stmt 1 discriminator 1 view .LVU209
  99:../Switch/core/yt/yt_port.c ****     CMM_PARAM_CHK(NULL == YT_DISPATCH(unit), CMM_ERR_NOT_INIT);
 741              		.loc 1 99 5 discriminator 1 view .LVU210
 742 0036 264B     		ldr	r3, .L91+12
 743 0038 1B78     		ldrb	r3, [r3]	@ zero_extendqisi2
 744 003a 012B     		cmp	r3, #1
 745 003c 01D8     		bhi	.L86
 746              	.LVL91:
 747              	.L70:
  99:../Switch/core/yt/yt_port.c ****     CMM_PARAM_CHK(NULL == YT_DISPATCH(unit), CMM_ERR_NOT_INIT);
 748              		.loc 1 99 5 discriminator 5 view .LVU211
  99:../Switch/core/yt/yt_port.c ****     CMM_PARAM_CHK(NULL == YT_DISPATCH(unit), CMM_ERR_NOT_INIT);
 749              		.loc 1 99 5 discriminator 5 view .LVU212
  99:../Switch/core/yt/yt_port.c ****     CMM_PARAM_CHK(NULL == YT_DISPATCH(unit), CMM_ERR_NOT_INIT);
 750              		.loc 1 99 5 discriminator 5 view .LVU213
 751 003e 0520     		movs	r0, #5
 752 0040 F8E7     		b	.L68
 753              	.LVL92:
 754              	.L86:
  99:../Switch/core/yt/yt_port.c ****     CMM_PARAM_CHK(NULL == YT_DISPATCH(unit), CMM_ERR_NOT_INIT);
 755              		.loc 1 99 5 discriminator 3 view .LVU214
 756              	.LBB15:
  99:../Switch/core/yt/yt_port.c ****     CMM_PARAM_CHK(NULL == YT_DISPATCH(unit), CMM_ERR_NOT_INIT);
 757              		.loc 1 99 5 discriminator 3 view .LVU215
 758 0042 244B     		ldr	r3, .L91+16
 759 0044 5A69     		ldr	r2, [r3, #20]
 760              	.LVL93:
  99:../Switch/core/yt/yt_port.c ****     CMM_PARAM_CHK(NULL == YT_DISPATCH(unit), CMM_ERR_NOT_INIT);
 761              		.loc 1 99 5 is_stmt 0 discriminator 3 view .LVU216
 762 0046 244B     		ldr	r3, .L91+20
 763 0048 9968     		ldr	r1, [r3, #8]
 764              	.LVL94:
  99:../Switch/core/yt/yt_port.c ****     CMM_PARAM_CHK(NULL == YT_DISPATCH(unit), CMM_ERR_NOT_INIT);
 765              		.loc 1 99 5 discriminator 3 view .LVU217
 766 004a 2448     		ldr	r0, .L91+24
 767              	.LVL95:
  99:../Switch/core/yt/yt_port.c ****     CMM_PARAM_CHK(NULL == YT_DISPATCH(unit), CMM_ERR_NOT_INIT);
 768              		.loc 1 99 5 discriminator 3 view .LVU218
 769 004c FFF7FEFF 		bl	osal_printf
 770              	.LVL96:
 771 0050 F5E7     		b	.L70
 772              	.LVL97:
 773              	.L83:
  99:../Switch/core/yt/yt_port.c ****     CMM_PARAM_CHK(NULL == YT_DISPATCH(unit), CMM_ERR_NOT_INIT);
 774              		.loc 1 99 5 discriminator 3 view .LVU219
 775              	.LBE15:
 100:../Switch/core/yt/yt_port.c ****     CMM_PARAM_CHK((!(YT_DISPATCH(unit)->is_inited)), CMM_ERR_NOT_INIT);
 776              		.loc 1 100 5 is_stmt 1 discriminator 1 view .LVU220
 100:../Switch/core/yt/yt_port.c ****     CMM_PARAM_CHK((!(YT_DISPATCH(unit)->is_inited)), CMM_ERR_NOT_INIT);
 777              		.loc 1 100 5 discriminator 1 view .LVU221
 778 0052 1F4B     		ldr	r3, .L91+12
 779 0054 1B78     		ldrb	r3, [r3]	@ zero_extendqisi2
 780 0056 012B     		cmp	r3, #1
 781 0058 01D8     		bhi	.L87
 782              	.LVL98:
 783              	.L73:
 100:../Switch/core/yt/yt_port.c ****     CMM_PARAM_CHK((!(YT_DISPATCH(unit)->is_inited)), CMM_ERR_NOT_INIT);
 784              		.loc 1 100 5 discriminator 5 view .LVU222
 100:../Switch/core/yt/yt_port.c ****     CMM_PARAM_CHK((!(YT_DISPATCH(unit)->is_inited)), CMM_ERR_NOT_INIT);
 785              		.loc 1 100 5 discriminator 5 view .LVU223
 100:../Switch/core/yt/yt_port.c ****     CMM_PARAM_CHK((!(YT_DISPATCH(unit)->is_inited)), CMM_ERR_NOT_INIT);
 786              		.loc 1 100 5 discriminator 5 view .LVU224
 787 005a 0420     		movs	r0, #4
 788 005c EAE7     		b	.L68
 789              	.LVL99:
 790              	.L87:
 100:../Switch/core/yt/yt_port.c ****     CMM_PARAM_CHK((!(YT_DISPATCH(unit)->is_inited)), CMM_ERR_NOT_INIT);
 791              		.loc 1 100 5 discriminator 3 view .LVU225
 792              	.LBB16:
 100:../Switch/core/yt/yt_port.c ****     CMM_PARAM_CHK((!(YT_DISPATCH(unit)->is_inited)), CMM_ERR_NOT_INIT);
 793              		.loc 1 100 5 discriminator 3 view .LVU226
 794 005e 1D4B     		ldr	r3, .L91+16
 795 0060 1A69     		ldr	r2, [r3, #16]
 796              	.LVL100:
 100:../Switch/core/yt/yt_port.c ****     CMM_PARAM_CHK((!(YT_DISPATCH(unit)->is_inited)), CMM_ERR_NOT_INIT);
 797              		.loc 1 100 5 is_stmt 0 discriminator 3 view .LVU227
 798 0062 1D4B     		ldr	r3, .L91+20
 799 0064 9968     		ldr	r1, [r3, #8]
 800              	.LVL101:
 100:../Switch/core/yt/yt_port.c ****     CMM_PARAM_CHK((!(YT_DISPATCH(unit)->is_inited)), CMM_ERR_NOT_INIT);
 801              		.loc 1 100 5 discriminator 3 view .LVU228
 802 0066 1D48     		ldr	r0, .L91+24
 803              	.LVL102:
 100:../Switch/core/yt/yt_port.c ****     CMM_PARAM_CHK((!(YT_DISPATCH(unit)->is_inited)), CMM_ERR_NOT_INIT);
 804              		.loc 1 100 5 discriminator 3 view .LVU229
 805 0068 FFF7FEFF 		bl	osal_printf
 806              	.LVL103:
 807 006c F5E7     		b	.L73
 808              	.LVL104:
 809              	.L84:
 100:../Switch/core/yt/yt_port.c ****     CMM_PARAM_CHK((!(YT_DISPATCH(unit)->is_inited)), CMM_ERR_NOT_INIT);
 810              		.loc 1 100 5 discriminator 3 view .LVU230
 811              	.LBE16:
 101:../Switch/core/yt/yt_port.c ****     CMM_PARAM_CHK((!(CMM_PORT_VALID(unit, port))), CMM_ERR_PORT);
 812              		.loc 1 101 5 is_stmt 1 discriminator 1 view .LVU231
 101:../Switch/core/yt/yt_port.c ****     CMM_PARAM_CHK((!(CMM_PORT_VALID(unit, port))), CMM_ERR_PORT);
 813              		.loc 1 101 5 discriminator 1 view .LVU232
 814 006e 184B     		ldr	r3, .L91+12
 815 0070 1B78     		ldrb	r3, [r3]	@ zero_extendqisi2
 816 0072 012B     		cmp	r3, #1
 817 0074 01D8     		bhi	.L88
 818              	.LVL105:
 819              	.L75:
 101:../Switch/core/yt/yt_port.c ****     CMM_PARAM_CHK((!(CMM_PORT_VALID(unit, port))), CMM_ERR_PORT);
 820              		.loc 1 101 5 discriminator 5 view .LVU233
 101:../Switch/core/yt/yt_port.c ****     CMM_PARAM_CHK((!(CMM_PORT_VALID(unit, port))), CMM_ERR_PORT);
 821              		.loc 1 101 5 discriminator 5 view .LVU234
 101:../Switch/core/yt/yt_port.c ****     CMM_PARAM_CHK((!(CMM_PORT_VALID(unit, port))), CMM_ERR_PORT);
 822              		.loc 1 101 5 discriminator 5 view .LVU235
 823 0076 0420     		movs	r0, #4
 824 0078 DCE7     		b	.L68
 825              	.LVL106:
 826              	.L88:
 101:../Switch/core/yt/yt_port.c ****     CMM_PARAM_CHK((!(CMM_PORT_VALID(unit, port))), CMM_ERR_PORT);
 827              		.loc 1 101 5 discriminator 3 view .LVU236
 828              	.LBB17:
 101:../Switch/core/yt/yt_port.c ****     CMM_PARAM_CHK((!(CMM_PORT_VALID(unit, port))), CMM_ERR_PORT);
 829              		.loc 1 101 5 discriminator 3 view .LVU237
 830 007a 164B     		ldr	r3, .L91+16
 831 007c 1A69     		ldr	r2, [r3, #16]
 832              	.LVL107:
 101:../Switch/core/yt/yt_port.c ****     CMM_PARAM_CHK((!(CMM_PORT_VALID(unit, port))), CMM_ERR_PORT);
 833              		.loc 1 101 5 is_stmt 0 discriminator 3 view .LVU238
 834 007e 164B     		ldr	r3, .L91+20
 835 0080 9968     		ldr	r1, [r3, #8]
 836              	.LVL108:
 101:../Switch/core/yt/yt_port.c ****     CMM_PARAM_CHK((!(CMM_PORT_VALID(unit, port))), CMM_ERR_PORT);
 837              		.loc 1 101 5 discriminator 3 view .LVU239
 838 0082 1648     		ldr	r0, .L91+24
 839 0084 FFF7FEFF 		bl	osal_printf
 840              	.LVL109:
 841 0088 F5E7     		b	.L75
 842              	.LVL110:
 843              	.L76:
 101:../Switch/core/yt/yt_port.c ****     CMM_PARAM_CHK((!(CMM_PORT_VALID(unit, port))), CMM_ERR_PORT);
 844              		.loc 1 101 5 discriminator 3 view .LVU240
 845              	.LBE17:
 102:../Switch/core/yt/yt_port.c ****     CMM_PARAM_CHK((NULL == pLinkStatus), CMM_ERR_NULL_POINT);
 846              		.loc 1 102 5 is_stmt 1 discriminator 3 view .LVU241
 102:../Switch/core/yt/yt_port.c ****     CMM_PARAM_CHK((NULL == pLinkStatus), CMM_ERR_NULL_POINT);
 847              		.loc 1 102 5 discriminator 3 view .LVU242
 848 008a 114B     		ldr	r3, .L91+12
 849 008c 1B78     		ldrb	r3, [r3]	@ zero_extendqisi2
 850 008e 012B     		cmp	r3, #1
 851 0090 01D8     		bhi	.L89
 852              	.LVL111:
 853              	.L78:
 102:../Switch/core/yt/yt_port.c ****     CMM_PARAM_CHK((NULL == pLinkStatus), CMM_ERR_NULL_POINT);
 854              		.loc 1 102 5 discriminator 7 view .LVU243
 102:../Switch/core/yt/yt_port.c ****     CMM_PARAM_CHK((NULL == pLinkStatus), CMM_ERR_NULL_POINT);
 855              		.loc 1 102 5 discriminator 7 view .LVU244
 102:../Switch/core/yt/yt_port.c ****     CMM_PARAM_CHK((NULL == pLinkStatus), CMM_ERR_NULL_POINT);
 856              		.loc 1 102 5 discriminator 7 view .LVU245
 857 0092 0E20     		movs	r0, #14
 858 0094 CEE7     		b	.L68
 859              	.LVL112:
 860              	.L89:
 102:../Switch/core/yt/yt_port.c ****     CMM_PARAM_CHK((NULL == pLinkStatus), CMM_ERR_NULL_POINT);
 861              		.loc 1 102 5 discriminator 5 view .LVU246
 862              	.LBB18:
 102:../Switch/core/yt/yt_port.c ****     CMM_PARAM_CHK((NULL == pLinkStatus), CMM_ERR_NULL_POINT);
 863              		.loc 1 102 5 discriminator 5 view .LVU247
 864 0096 0F4B     		ldr	r3, .L91+16
 865 0098 9A6B     		ldr	r2, [r3, #56]
 866              	.LVL113:
 102:../Switch/core/yt/yt_port.c ****     CMM_PARAM_CHK((NULL == pLinkStatus), CMM_ERR_NULL_POINT);
 867              		.loc 1 102 5 is_stmt 0 discriminator 5 view .LVU248
 868 009a 0F4B     		ldr	r3, .L91+20
 869 009c 9968     		ldr	r1, [r3, #8]
 870              	.LVL114:
 102:../Switch/core/yt/yt_port.c ****     CMM_PARAM_CHK((NULL == pLinkStatus), CMM_ERR_NULL_POINT);
 871              		.loc 1 102 5 discriminator 5 view .LVU249
 872 009e 0F48     		ldr	r0, .L91+24
 873 00a0 FFF7FEFF 		bl	osal_printf
 874              	.LVL115:
 875 00a4 F5E7     		b	.L78
 876              	.LVL116:
 877              	.L85:
 102:../Switch/core/yt/yt_port.c ****     CMM_PARAM_CHK((NULL == pLinkStatus), CMM_ERR_NULL_POINT);
 878              		.loc 1 102 5 discriminator 5 view .LVU250
 879              	.LBE18:
 103:../Switch/core/yt/yt_port.c **** 
 880              		.loc 1 103 5 is_stmt 1 discriminator 1 view .LVU251
 103:../Switch/core/yt/yt_port.c **** 
 881              		.loc 1 103 5 discriminator 1 view .LVU252
 882 00a6 0A4B     		ldr	r3, .L91+12
 883 00a8 1B78     		ldrb	r3, [r3]	@ zero_extendqisi2
 884 00aa 012B     		cmp	r3, #1
 885 00ac 01D8     		bhi	.L90
 886              	.LVL117:
 887              	.L80:
 103:../Switch/core/yt/yt_port.c **** 
 888              		.loc 1 103 5 discriminator 5 view .LVU253
 103:../Switch/core/yt/yt_port.c **** 
 889              		.loc 1 103 5 discriminator 5 view .LVU254
 103:../Switch/core/yt/yt_port.c **** 
 890              		.loc 1 103 5 discriminator 5 view .LVU255
 891 00ae 0220     		movs	r0, #2
 892 00b0 C0E7     		b	.L68
 893              	.LVL118:
 894              	.L90:
 103:../Switch/core/yt/yt_port.c **** 
 895              		.loc 1 103 5 discriminator 3 view .LVU256
 896              	.LBB19:
 103:../Switch/core/yt/yt_port.c **** 
 897              		.loc 1 103 5 discriminator 3 view .LVU257
 898 00b2 084B     		ldr	r3, .L91+16
 899 00b4 9A68     		ldr	r2, [r3, #8]
 900              	.LVL119:
 103:../Switch/core/yt/yt_port.c **** 
 901              		.loc 1 103 5 is_stmt 0 discriminator 3 view .LVU258
 902 00b6 084B     		ldr	r3, .L91+20
 903 00b8 9968     		ldr	r1, [r3, #8]
 904              	.LVL120:
 103:../Switch/core/yt/yt_port.c **** 
 905              		.loc 1 103 5 discriminator 3 view .LVU259
 906 00ba 0848     		ldr	r0, .L91+24
 907 00bc FFF7FEFF 		bl	osal_printf
 908              	.LVL121:
 909 00c0 F5E7     		b	.L80
 910              	.L92:
 911 00c2 00BF     		.align	2
 912              	.L91:
 913 00c4 00000000 		.word	gpfal_dispatch
 914 00c8 00000000 		.word	gcal_inited
 915 00cc 00000000 		.word	gpSwitchUnit
 916 00d0 00000000 		.word	yt_debug_level
 917 00d4 00000000 		.word	_yt_errmsg
 918 00d8 00000000 		.word	_yt_prompt_msg
 919 00dc 00000000 		.word	.LC0
 920              	.LBE19:
 921              		.cfi_endproc
 922              	.LFE6:
 924              		.section	.text.yt_port_link_status_all_get,"ax",%progbits
 925              		.align	1
 926              		.global	yt_port_link_status_all_get
 927              		.syntax unified
 928              		.thumb
 929              		.thumb_func
 931              	yt_port_link_status_all_get:
 932              	.LVL122:
 933              	.LFB7:
 107:../Switch/core/yt/yt_port.c **** 
 108:../Switch/core/yt/yt_port.c **** /**
 109:../Switch/core/yt/yt_port.c ****  * @internal      yt_port_link_status_all_get
 110:../Switch/core/yt/yt_port.c ****  * @endinternal
 111:../Switch/core/yt/yt_port.c ****  *
 112:../Switch/core/yt/yt_port.c ****  * @brief         Description
 113:../Switch/core/yt/yt_port.c ****  * @note          APPLICABLE DEVICES  -Tiger
 114:../Switch/core/yt/yt_port.c ****  * @param[in]     unit                -unit id
 115:../Switch/core/yt/yt_port.c ****  * @param[in]     port                -port num
 116:../Switch/core/yt/yt_port.c ****  * @param[out]    pAllLinkStatus      -x
 117:../Switch/core/yt/yt_port.c ****  * @retval        CMM_ERR_OK          -on success
 118:../Switch/core/yt/yt_port.c ****  * @retval        CMM_ERR_FAIL        -on fail
 119:../Switch/core/yt/yt_port.c ****  */
 120:../Switch/core/yt/yt_port.c **** yt_ret_t yt_port_link_status_all_get(yt_unit_t unit, yt_port_t port, yt_port_linkStatus_all_t *pAll
 121:../Switch/core/yt/yt_port.c **** {
 934              		.loc 1 121 1 is_stmt 1 view -0
 935              		.cfi_startproc
 936              		@ args = 0, pretend = 0, frame = 0
 937              		@ frame_needed = 0, uses_anonymous_args = 0
 938              		.loc 1 121 1 is_stmt 0 view .LVU261
 939 0000 08B5     		push	{r3, lr}
 940              		.cfi_def_cfa_offset 8
 941              		.cfi_offset 3, -8
 942              		.cfi_offset 14, -4
 122:../Switch/core/yt/yt_port.c ****     CMM_PARAM_CHK((YT_UNIT_NUM <= unit), CMM_ERR_INPUT);
 943              		.loc 1 122 5 is_stmt 1 view .LVU262
 944              		.loc 1 122 5 view .LVU263
 945 0002 C0B9     		cbnz	r0, .L107
 946 0004 8446     		mov	ip, r0
 947              		.loc 1 122 5 discriminator 2 view .LVU264
 123:../Switch/core/yt/yt_port.c ****     CMM_PARAM_CHK(NULL == YT_DISPATCH(unit), CMM_ERR_NOT_INIT);
 948              		.loc 1 123 5 discriminator 2 view .LVU265
 949              		.loc 1 123 5 discriminator 2 view .LVU266
 950 0006 2F4B     		ldr	r3, .L116
 951 0008 53F82030 		ldr	r3, [r3, r0, lsl #2]
 952 000c 0BB3     		cbz	r3, .L108
 953              		.loc 1 123 5 discriminator 2 view .LVU267
 124:../Switch/core/yt/yt_port.c ****     CMM_PARAM_CHK((!(YT_DISPATCH(unit)->is_inited)), CMM_ERR_NOT_INIT);
 954              		.loc 1 124 5 discriminator 2 view .LVU268
 955              		.loc 1 124 5 discriminator 2 view .LVU269
 956 000e 1878     		ldrb	r0, [r3]	@ zero_extendqisi2
 957              	.LVL123:
 958              		.loc 1 124 5 is_stmt 0 discriminator 2 view .LVU270
 959 0010 0028     		cmp	r0, #0
 960 0012 2CD0     		beq	.L109
 961              		.loc 1 124 5 is_stmt 1 discriminator 2 view .LVU271
 125:../Switch/core/yt/yt_port.c ****     CMM_PARAM_CHK((!(CMM_PORT_VALID(unit, port))), CMM_ERR_PORT);
 962              		.loc 1 125 5 discriminator 2 view .LVU272
 963              		.loc 1 125 5 discriminator 2 view .LVU273
 964 0014 2C48     		ldr	r0, .L116+4
 965 0016 0078     		ldrb	r0, [r0]	@ zero_extendqisi2
 966 0018 0028     		cmp	r0, #0
 967 001a 36D0     		beq	.L101
 968 001c 2B48     		ldr	r0, .L116+8
 969 001e 50F82C00 		ldr	r0, [r0, ip, lsl #2]
 970 0022 007D     		ldrb	r0, [r0, #20]	@ zero_extendqisi2
 971 0024 8842     		cmp	r0, r1
 972 0026 30D9     		bls	.L101
 973              		.loc 1 125 5 discriminator 4 view .LVU274
 126:../Switch/core/yt/yt_port.c ****     CMM_PARAM_CHK((NULL == pAllLinkStatus), CMM_ERR_NULL_POINT);
 974              		.loc 1 126 5 discriminator 4 view .LVU275
 975              		.loc 1 126 5 discriminator 4 view .LVU276
 976 0028 002A     		cmp	r2, #0
 977 002a 3CD0     		beq	.L110
 978              		.loc 1 126 5 discriminator 2 view .LVU277
 127:../Switch/core/yt/yt_port.c **** 
 128:../Switch/core/yt/yt_port.c ****     return YT_DISPATCH(unit)->port_link_status_all_get(unit, port, pAllLinkStatus);
 979              		.loc 1 128 5 discriminator 2 view .LVU278
 980              		.loc 1 128 29 is_stmt 0 discriminator 2 view .LVU279
 981 002c D3F86035 		ldr	r3, [r3, #1376]
 982              		.loc 1 128 12 discriminator 2 view .LVU280
 983 0030 6046     		mov	r0, ip
 984 0032 9847     		blx	r3
 985              	.LVL124:
 986              	.L93:
 129:../Switch/core/yt/yt_port.c **** }
 987              		.loc 1 129 1 view .LVU281
 988 0034 08BD     		pop	{r3, pc}
 989              	.LVL125:
 990              	.L107:
 122:../Switch/core/yt/yt_port.c ****     CMM_PARAM_CHK(NULL == YT_DISPATCH(unit), CMM_ERR_NOT_INIT);
 991              		.loc 1 122 5 is_stmt 1 discriminator 1 view .LVU282
 122:../Switch/core/yt/yt_port.c ****     CMM_PARAM_CHK(NULL == YT_DISPATCH(unit), CMM_ERR_NOT_INIT);
 992              		.loc 1 122 5 discriminator 1 view .LVU283
 993 0036 264B     		ldr	r3, .L116+12
 994 0038 1B78     		ldrb	r3, [r3]	@ zero_extendqisi2
 995 003a 012B     		cmp	r3, #1
 996 003c 01D8     		bhi	.L111
 997              	.LVL126:
 998              	.L95:
 122:../Switch/core/yt/yt_port.c ****     CMM_PARAM_CHK(NULL == YT_DISPATCH(unit), CMM_ERR_NOT_INIT);
 999              		.loc 1 122 5 discriminator 5 view .LVU284
 122:../Switch/core/yt/yt_port.c ****     CMM_PARAM_CHK(NULL == YT_DISPATCH(unit), CMM_ERR_NOT_INIT);
 1000              		.loc 1 122 5 discriminator 5 view .LVU285
 122:../Switch/core/yt/yt_port.c ****     CMM_PARAM_CHK(NULL == YT_DISPATCH(unit), CMM_ERR_NOT_INIT);
 1001              		.loc 1 122 5 discriminator 5 view .LVU286
 1002 003e 0520     		movs	r0, #5
 1003 0040 F8E7     		b	.L93
 1004              	.LVL127:
 1005              	.L111:
 122:../Switch/core/yt/yt_port.c ****     CMM_PARAM_CHK(NULL == YT_DISPATCH(unit), CMM_ERR_NOT_INIT);
 1006              		.loc 1 122 5 discriminator 3 view .LVU287
 1007              	.LBB20:
 122:../Switch/core/yt/yt_port.c ****     CMM_PARAM_CHK(NULL == YT_DISPATCH(unit), CMM_ERR_NOT_INIT);
 1008              		.loc 1 122 5 discriminator 3 view .LVU288
 1009 0042 244B     		ldr	r3, .L116+16
 1010 0044 5A69     		ldr	r2, [r3, #20]
 1011              	.LVL128:
 122:../Switch/core/yt/yt_port.c ****     CMM_PARAM_CHK(NULL == YT_DISPATCH(unit), CMM_ERR_NOT_INIT);
 1012              		.loc 1 122 5 is_stmt 0 discriminator 3 view .LVU289
 1013 0046 244B     		ldr	r3, .L116+20
 1014 0048 9968     		ldr	r1, [r3, #8]
 1015              	.LVL129:
 122:../Switch/core/yt/yt_port.c ****     CMM_PARAM_CHK(NULL == YT_DISPATCH(unit), CMM_ERR_NOT_INIT);
 1016              		.loc 1 122 5 discriminator 3 view .LVU290
 1017 004a 2448     		ldr	r0, .L116+24
 1018              	.LVL130:
 122:../Switch/core/yt/yt_port.c ****     CMM_PARAM_CHK(NULL == YT_DISPATCH(unit), CMM_ERR_NOT_INIT);
 1019              		.loc 1 122 5 discriminator 3 view .LVU291
 1020 004c FFF7FEFF 		bl	osal_printf
 1021              	.LVL131:
 1022 0050 F5E7     		b	.L95
 1023              	.LVL132:
 1024              	.L108:
 122:../Switch/core/yt/yt_port.c ****     CMM_PARAM_CHK(NULL == YT_DISPATCH(unit), CMM_ERR_NOT_INIT);
 1025              		.loc 1 122 5 discriminator 3 view .LVU292
 1026              	.LBE20:
 123:../Switch/core/yt/yt_port.c ****     CMM_PARAM_CHK((!(YT_DISPATCH(unit)->is_inited)), CMM_ERR_NOT_INIT);
 1027              		.loc 1 123 5 is_stmt 1 discriminator 1 view .LVU293
 123:../Switch/core/yt/yt_port.c ****     CMM_PARAM_CHK((!(YT_DISPATCH(unit)->is_inited)), CMM_ERR_NOT_INIT);
 1028              		.loc 1 123 5 discriminator 1 view .LVU294
 1029 0052 1F4B     		ldr	r3, .L116+12
 1030 0054 1B78     		ldrb	r3, [r3]	@ zero_extendqisi2
 1031 0056 012B     		cmp	r3, #1
 1032 0058 01D8     		bhi	.L112
 1033              	.LVL133:
 1034              	.L98:
 123:../Switch/core/yt/yt_port.c ****     CMM_PARAM_CHK((!(YT_DISPATCH(unit)->is_inited)), CMM_ERR_NOT_INIT);
 1035              		.loc 1 123 5 discriminator 5 view .LVU295
 123:../Switch/core/yt/yt_port.c ****     CMM_PARAM_CHK((!(YT_DISPATCH(unit)->is_inited)), CMM_ERR_NOT_INIT);
 1036              		.loc 1 123 5 discriminator 5 view .LVU296
 123:../Switch/core/yt/yt_port.c ****     CMM_PARAM_CHK((!(YT_DISPATCH(unit)->is_inited)), CMM_ERR_NOT_INIT);
 1037              		.loc 1 123 5 discriminator 5 view .LVU297
 1038 005a 0420     		movs	r0, #4
 1039 005c EAE7     		b	.L93
 1040              	.LVL134:
 1041              	.L112:
 123:../Switch/core/yt/yt_port.c ****     CMM_PARAM_CHK((!(YT_DISPATCH(unit)->is_inited)), CMM_ERR_NOT_INIT);
 1042              		.loc 1 123 5 discriminator 3 view .LVU298
 1043              	.LBB21:
 123:../Switch/core/yt/yt_port.c ****     CMM_PARAM_CHK((!(YT_DISPATCH(unit)->is_inited)), CMM_ERR_NOT_INIT);
 1044              		.loc 1 123 5 discriminator 3 view .LVU299
 1045 005e 1D4B     		ldr	r3, .L116+16
 1046 0060 1A69     		ldr	r2, [r3, #16]
 1047              	.LVL135:
 123:../Switch/core/yt/yt_port.c ****     CMM_PARAM_CHK((!(YT_DISPATCH(unit)->is_inited)), CMM_ERR_NOT_INIT);
 1048              		.loc 1 123 5 is_stmt 0 discriminator 3 view .LVU300
 1049 0062 1D4B     		ldr	r3, .L116+20
 1050 0064 9968     		ldr	r1, [r3, #8]
 1051              	.LVL136:
 123:../Switch/core/yt/yt_port.c ****     CMM_PARAM_CHK((!(YT_DISPATCH(unit)->is_inited)), CMM_ERR_NOT_INIT);
 1052              		.loc 1 123 5 discriminator 3 view .LVU301
 1053 0066 1D48     		ldr	r0, .L116+24
 1054              	.LVL137:
 123:../Switch/core/yt/yt_port.c ****     CMM_PARAM_CHK((!(YT_DISPATCH(unit)->is_inited)), CMM_ERR_NOT_INIT);
 1055              		.loc 1 123 5 discriminator 3 view .LVU302
 1056 0068 FFF7FEFF 		bl	osal_printf
 1057              	.LVL138:
 1058 006c F5E7     		b	.L98
 1059              	.LVL139:
 1060              	.L109:
 123:../Switch/core/yt/yt_port.c ****     CMM_PARAM_CHK((!(YT_DISPATCH(unit)->is_inited)), CMM_ERR_NOT_INIT);
 1061              		.loc 1 123 5 discriminator 3 view .LVU303
 1062              	.LBE21:
 124:../Switch/core/yt/yt_port.c ****     CMM_PARAM_CHK((!(CMM_PORT_VALID(unit, port))), CMM_ERR_PORT);
 1063              		.loc 1 124 5 is_stmt 1 discriminator 1 view .LVU304
 124:../Switch/core/yt/yt_port.c ****     CMM_PARAM_CHK((!(CMM_PORT_VALID(unit, port))), CMM_ERR_PORT);
 1064              		.loc 1 124 5 discriminator 1 view .LVU305
 1065 006e 184B     		ldr	r3, .L116+12
 1066 0070 1B78     		ldrb	r3, [r3]	@ zero_extendqisi2
 1067 0072 012B     		cmp	r3, #1
 1068 0074 01D8     		bhi	.L113
 1069              	.LVL140:
 1070              	.L100:
 124:../Switch/core/yt/yt_port.c ****     CMM_PARAM_CHK((!(CMM_PORT_VALID(unit, port))), CMM_ERR_PORT);
 1071              		.loc 1 124 5 discriminator 5 view .LVU306
 124:../Switch/core/yt/yt_port.c ****     CMM_PARAM_CHK((!(CMM_PORT_VALID(unit, port))), CMM_ERR_PORT);
 1072              		.loc 1 124 5 discriminator 5 view .LVU307
 124:../Switch/core/yt/yt_port.c ****     CMM_PARAM_CHK((!(CMM_PORT_VALID(unit, port))), CMM_ERR_PORT);
 1073              		.loc 1 124 5 discriminator 5 view .LVU308
 1074 0076 0420     		movs	r0, #4
 1075 0078 DCE7     		b	.L93
 1076              	.LVL141:
 1077              	.L113:
 124:../Switch/core/yt/yt_port.c ****     CMM_PARAM_CHK((!(CMM_PORT_VALID(unit, port))), CMM_ERR_PORT);
 1078              		.loc 1 124 5 discriminator 3 view .LVU309
 1079              	.LBB22:
 124:../Switch/core/yt/yt_port.c ****     CMM_PARAM_CHK((!(CMM_PORT_VALID(unit, port))), CMM_ERR_PORT);
 1080              		.loc 1 124 5 discriminator 3 view .LVU310
 1081 007a 164B     		ldr	r3, .L116+16
 1082 007c 1A69     		ldr	r2, [r3, #16]
 1083              	.LVL142:
 124:../Switch/core/yt/yt_port.c ****     CMM_PARAM_CHK((!(CMM_PORT_VALID(unit, port))), CMM_ERR_PORT);
 1084              		.loc 1 124 5 is_stmt 0 discriminator 3 view .LVU311
 1085 007e 164B     		ldr	r3, .L116+20
 1086 0080 9968     		ldr	r1, [r3, #8]
 1087              	.LVL143:
 124:../Switch/core/yt/yt_port.c ****     CMM_PARAM_CHK((!(CMM_PORT_VALID(unit, port))), CMM_ERR_PORT);
 1088              		.loc 1 124 5 discriminator 3 view .LVU312
 1089 0082 1648     		ldr	r0, .L116+24
 1090 0084 FFF7FEFF 		bl	osal_printf
 1091              	.LVL144:
 1092 0088 F5E7     		b	.L100
 1093              	.LVL145:
 1094              	.L101:
 124:../Switch/core/yt/yt_port.c ****     CMM_PARAM_CHK((!(CMM_PORT_VALID(unit, port))), CMM_ERR_PORT);
 1095              		.loc 1 124 5 discriminator 3 view .LVU313
 1096              	.LBE22:
 125:../Switch/core/yt/yt_port.c ****     CMM_PARAM_CHK((NULL == pAllLinkStatus), CMM_ERR_NULL_POINT);
 1097              		.loc 1 125 5 is_stmt 1 discriminator 3 view .LVU314
 125:../Switch/core/yt/yt_port.c ****     CMM_PARAM_CHK((NULL == pAllLinkStatus), CMM_ERR_NULL_POINT);
 1098              		.loc 1 125 5 discriminator 3 view .LVU315
 1099 008a 114B     		ldr	r3, .L116+12
 1100 008c 1B78     		ldrb	r3, [r3]	@ zero_extendqisi2
 1101 008e 012B     		cmp	r3, #1
 1102 0090 01D8     		bhi	.L114
 1103              	.LVL146:
 1104              	.L103:
 125:../Switch/core/yt/yt_port.c ****     CMM_PARAM_CHK((NULL == pAllLinkStatus), CMM_ERR_NULL_POINT);
 1105              		.loc 1 125 5 discriminator 7 view .LVU316
 125:../Switch/core/yt/yt_port.c ****     CMM_PARAM_CHK((NULL == pAllLinkStatus), CMM_ERR_NULL_POINT);
 1106              		.loc 1 125 5 discriminator 7 view .LVU317
 125:../Switch/core/yt/yt_port.c ****     CMM_PARAM_CHK((NULL == pAllLinkStatus), CMM_ERR_NULL_POINT);
 1107              		.loc 1 125 5 discriminator 7 view .LVU318
 1108 0092 0E20     		movs	r0, #14
 1109 0094 CEE7     		b	.L93
 1110              	.LVL147:
 1111              	.L114:
 125:../Switch/core/yt/yt_port.c ****     CMM_PARAM_CHK((NULL == pAllLinkStatus), CMM_ERR_NULL_POINT);
 1112              		.loc 1 125 5 discriminator 5 view .LVU319
 1113              	.LBB23:
 125:../Switch/core/yt/yt_port.c ****     CMM_PARAM_CHK((NULL == pAllLinkStatus), CMM_ERR_NULL_POINT);
 1114              		.loc 1 125 5 discriminator 5 view .LVU320
 1115 0096 0F4B     		ldr	r3, .L116+16
 1116 0098 9A6B     		ldr	r2, [r3, #56]
 1117              	.LVL148:
 125:../Switch/core/yt/yt_port.c ****     CMM_PARAM_CHK((NULL == pAllLinkStatus), CMM_ERR_NULL_POINT);
 1118              		.loc 1 125 5 is_stmt 0 discriminator 5 view .LVU321
 1119 009a 0F4B     		ldr	r3, .L116+20
 1120 009c 9968     		ldr	r1, [r3, #8]
 1121              	.LVL149:
 125:../Switch/core/yt/yt_port.c ****     CMM_PARAM_CHK((NULL == pAllLinkStatus), CMM_ERR_NULL_POINT);
 1122              		.loc 1 125 5 discriminator 5 view .LVU322
 1123 009e 0F48     		ldr	r0, .L116+24
 1124 00a0 FFF7FEFF 		bl	osal_printf
 1125              	.LVL150:
 1126 00a4 F5E7     		b	.L103
 1127              	.LVL151:
 1128              	.L110:
 125:../Switch/core/yt/yt_port.c ****     CMM_PARAM_CHK((NULL == pAllLinkStatus), CMM_ERR_NULL_POINT);
 1129              		.loc 1 125 5 discriminator 5 view .LVU323
 1130              	.LBE23:
 126:../Switch/core/yt/yt_port.c **** 
 1131              		.loc 1 126 5 is_stmt 1 discriminator 1 view .LVU324
 126:../Switch/core/yt/yt_port.c **** 
 1132              		.loc 1 126 5 discriminator 1 view .LVU325
 1133 00a6 0A4B     		ldr	r3, .L116+12
 1134 00a8 1B78     		ldrb	r3, [r3]	@ zero_extendqisi2
 1135 00aa 012B     		cmp	r3, #1
 1136 00ac 01D8     		bhi	.L115
 1137              	.LVL152:
 1138              	.L105:
 126:../Switch/core/yt/yt_port.c **** 
 1139              		.loc 1 126 5 discriminator 5 view .LVU326
 126:../Switch/core/yt/yt_port.c **** 
 1140              		.loc 1 126 5 discriminator 5 view .LVU327
 126:../Switch/core/yt/yt_port.c **** 
 1141              		.loc 1 126 5 discriminator 5 view .LVU328
 1142 00ae 0220     		movs	r0, #2
 1143 00b0 C0E7     		b	.L93
 1144              	.LVL153:
 1145              	.L115:
 126:../Switch/core/yt/yt_port.c **** 
 1146              		.loc 1 126 5 discriminator 3 view .LVU329
 1147              	.LBB24:
 126:../Switch/core/yt/yt_port.c **** 
 1148              		.loc 1 126 5 discriminator 3 view .LVU330
 1149 00b2 084B     		ldr	r3, .L116+16
 1150 00b4 9A68     		ldr	r2, [r3, #8]
 1151              	.LVL154:
 126:../Switch/core/yt/yt_port.c **** 
 1152              		.loc 1 126 5 is_stmt 0 discriminator 3 view .LVU331
 1153 00b6 084B     		ldr	r3, .L116+20
 1154 00b8 9968     		ldr	r1, [r3, #8]
 1155              	.LVL155:
 126:../Switch/core/yt/yt_port.c **** 
 1156              		.loc 1 126 5 discriminator 3 view .LVU332
 1157 00ba 0848     		ldr	r0, .L116+24
 1158 00bc FFF7FEFF 		bl	osal_printf
 1159              	.LVL156:
 1160 00c0 F5E7     		b	.L105
 1161              	.L117:
 1162 00c2 00BF     		.align	2
 1163              	.L116:
 1164 00c4 00000000 		.word	gpfal_dispatch
 1165 00c8 00000000 		.word	gcal_inited
 1166 00cc 00000000 		.word	gpSwitchUnit
 1167 00d0 00000000 		.word	yt_debug_level
 1168 00d4 00000000 		.word	_yt_errmsg
 1169 00d8 00000000 		.word	_yt_prompt_msg
 1170 00dc 00000000 		.word	.LC0
 1171              	.LBE24:
 1172              		.cfi_endproc
 1173              	.LFE7:
 1175              		.section	.text.yt_port_backpress_enable_set,"ax",%progbits
 1176              		.align	1
 1177              		.global	yt_port_backpress_enable_set
 1178              		.syntax unified
 1179              		.thumb
 1180              		.thumb_func
 1182              	yt_port_backpress_enable_set:
 1183              	.LVL157:
 1184              	.LFB8:
 130:../Switch/core/yt/yt_port.c **** 
 131:../Switch/core/yt/yt_port.c **** /**
 132:../Switch/core/yt/yt_port.c ****  * @internal      yt_port_backpress_enable_set
 133:../Switch/core/yt/yt_port.c ****  * @endinternal
 134:../Switch/core/yt/yt_port.c ****  *
 135:../Switch/core/yt/yt_port.c ****  * @brief         Description
 136:../Switch/core/yt/yt_port.c ****  * @note          APPLICABLE DEVICES  -Tiger
 137:../Switch/core/yt/yt_port.c ****  * @param[in]     unit                -unit id
 138:../Switch/core/yt/yt_port.c ****  * @param[in]     port                -port num
 139:../Switch/core/yt/yt_port.c ****  * @param[in]     enable              -enable or disable
 140:../Switch/core/yt/yt_port.c ****  * @retval        CMM_ERR_OK          -on success
 141:../Switch/core/yt/yt_port.c ****  * @retval        CMM_ERR_FAIL        -on fail
 142:../Switch/core/yt/yt_port.c ****  */
 143:../Switch/core/yt/yt_port.c **** yt_ret_t yt_port_backpress_enable_set(yt_unit_t unit, yt_port_t port, yt_enable_t enable)
 144:../Switch/core/yt/yt_port.c **** {
 1185              		.loc 1 144 1 is_stmt 1 view -0
 1186              		.cfi_startproc
 1187              		@ args = 0, pretend = 0, frame = 0
 1188              		@ frame_needed = 0, uses_anonymous_args = 0
 1189              		.loc 1 144 1 is_stmt 0 view .LVU334
 1190 0000 08B5     		push	{r3, lr}
 1191              		.cfi_def_cfa_offset 8
 1192              		.cfi_offset 3, -8
 1193              		.cfi_offset 14, -4
 145:../Switch/core/yt/yt_port.c ****     CMM_PARAM_CHK((YT_UNIT_NUM <= unit), CMM_ERR_INPUT);
 1194              		.loc 1 145 5 is_stmt 1 view .LVU335
 1195              		.loc 1 145 5 view .LVU336
 1196 0002 C0B9     		cbnz	r0, .L132
 1197 0004 8446     		mov	ip, r0
 1198              		.loc 1 145 5 discriminator 2 view .LVU337
 146:../Switch/core/yt/yt_port.c ****     CMM_PARAM_CHK(NULL == YT_DISPATCH(unit), CMM_ERR_NOT_INIT);
 1199              		.loc 1 146 5 discriminator 2 view .LVU338
 1200              		.loc 1 146 5 discriminator 2 view .LVU339
 1201 0006 2F4B     		ldr	r3, .L141
 1202 0008 53F82030 		ldr	r3, [r3, r0, lsl #2]
 1203 000c 0BB3     		cbz	r3, .L133
 1204              		.loc 1 146 5 discriminator 2 view .LVU340
 147:../Switch/core/yt/yt_port.c ****     CMM_PARAM_CHK((!(YT_DISPATCH(unit)->is_inited)), CMM_ERR_NOT_INIT);
 1205              		.loc 1 147 5 discriminator 2 view .LVU341
 1206              		.loc 1 147 5 discriminator 2 view .LVU342
 1207 000e 1878     		ldrb	r0, [r3]	@ zero_extendqisi2
 1208              	.LVL158:
 1209              		.loc 1 147 5 is_stmt 0 discriminator 2 view .LVU343
 1210 0010 0028     		cmp	r0, #0
 1211 0012 2CD0     		beq	.L134
 1212              		.loc 1 147 5 is_stmt 1 discriminator 2 view .LVU344
 148:../Switch/core/yt/yt_port.c ****     CMM_PARAM_CHK((!(CMM_PORT_VALID(unit, port))), CMM_ERR_PORT);
 1213              		.loc 1 148 5 discriminator 2 view .LVU345
 1214              		.loc 1 148 5 discriminator 2 view .LVU346
 1215 0014 2C48     		ldr	r0, .L141+4
 1216 0016 0078     		ldrb	r0, [r0]	@ zero_extendqisi2
 1217 0018 0028     		cmp	r0, #0
 1218 001a 36D0     		beq	.L126
 1219 001c 2B48     		ldr	r0, .L141+8
 1220 001e 50F82C00 		ldr	r0, [r0, ip, lsl #2]
 1221 0022 007D     		ldrb	r0, [r0, #20]	@ zero_extendqisi2
 1222 0024 8842     		cmp	r0, r1
 1223 0026 30D9     		bls	.L126
 1224              		.loc 1 148 5 discriminator 4 view .LVU347
 149:../Switch/core/yt/yt_port.c ****     CMM_PARAM_CHK((YT_ENABLE < enable || YT_DISABLE > enable), CMM_ERR_INPUT);
 1225              		.loc 1 149 5 discriminator 4 view .LVU348
 1226              		.loc 1 149 5 discriminator 4 view .LVU349
 1227 0028 012A     		cmp	r2, #1
 1228 002a 3CD8     		bhi	.L135
 1229              		.loc 1 149 5 discriminator 2 view .LVU350
 150:../Switch/core/yt/yt_port.c **** 
 151:../Switch/core/yt/yt_port.c ****     return YT_DISPATCH(unit)->port_backpress_enable_set(unit, port, enable);
 1230              		.loc 1 151 5 discriminator 2 view .LVU351
 1231              		.loc 1 151 29 is_stmt 0 discriminator 2 view .LVU352
 1232 002c D3F86435 		ldr	r3, [r3, #1380]
 1233              		.loc 1 151 12 discriminator 2 view .LVU353
 1234 0030 6046     		mov	r0, ip
 1235 0032 9847     		blx	r3
 1236              	.LVL159:
 1237              	.L118:
 152:../Switch/core/yt/yt_port.c **** }
 1238              		.loc 1 152 1 view .LVU354
 1239 0034 08BD     		pop	{r3, pc}
 1240              	.LVL160:
 1241              	.L132:
 145:../Switch/core/yt/yt_port.c ****     CMM_PARAM_CHK(NULL == YT_DISPATCH(unit), CMM_ERR_NOT_INIT);
 1242              		.loc 1 145 5 is_stmt 1 discriminator 1 view .LVU355
 145:../Switch/core/yt/yt_port.c ****     CMM_PARAM_CHK(NULL == YT_DISPATCH(unit), CMM_ERR_NOT_INIT);
 1243              		.loc 1 145 5 discriminator 1 view .LVU356
 1244 0036 264B     		ldr	r3, .L141+12
 1245 0038 1B78     		ldrb	r3, [r3]	@ zero_extendqisi2
 1246 003a 012B     		cmp	r3, #1
 1247 003c 01D8     		bhi	.L136
 1248              	.LVL161:
 1249              	.L120:
 145:../Switch/core/yt/yt_port.c ****     CMM_PARAM_CHK(NULL == YT_DISPATCH(unit), CMM_ERR_NOT_INIT);
 1250              		.loc 1 145 5 discriminator 5 view .LVU357
 145:../Switch/core/yt/yt_port.c ****     CMM_PARAM_CHK(NULL == YT_DISPATCH(unit), CMM_ERR_NOT_INIT);
 1251              		.loc 1 145 5 discriminator 5 view .LVU358
 145:../Switch/core/yt/yt_port.c ****     CMM_PARAM_CHK(NULL == YT_DISPATCH(unit), CMM_ERR_NOT_INIT);
 1252              		.loc 1 145 5 discriminator 5 view .LVU359
 1253 003e 0520     		movs	r0, #5
 1254 0040 F8E7     		b	.L118
 1255              	.LVL162:
 1256              	.L136:
 145:../Switch/core/yt/yt_port.c ****     CMM_PARAM_CHK(NULL == YT_DISPATCH(unit), CMM_ERR_NOT_INIT);
 1257              		.loc 1 145 5 discriminator 3 view .LVU360
 1258              	.LBB25:
 145:../Switch/core/yt/yt_port.c ****     CMM_PARAM_CHK(NULL == YT_DISPATCH(unit), CMM_ERR_NOT_INIT);
 1259              		.loc 1 145 5 discriminator 3 view .LVU361
 1260 0042 244B     		ldr	r3, .L141+16
 1261 0044 5A69     		ldr	r2, [r3, #20]
 1262              	.LVL163:
 145:../Switch/core/yt/yt_port.c ****     CMM_PARAM_CHK(NULL == YT_DISPATCH(unit), CMM_ERR_NOT_INIT);
 1263              		.loc 1 145 5 is_stmt 0 discriminator 3 view .LVU362
 1264 0046 244B     		ldr	r3, .L141+20
 1265 0048 9968     		ldr	r1, [r3, #8]
 1266              	.LVL164:
 145:../Switch/core/yt/yt_port.c ****     CMM_PARAM_CHK(NULL == YT_DISPATCH(unit), CMM_ERR_NOT_INIT);
 1267              		.loc 1 145 5 discriminator 3 view .LVU363
 1268 004a 2448     		ldr	r0, .L141+24
 1269              	.LVL165:
 145:../Switch/core/yt/yt_port.c ****     CMM_PARAM_CHK(NULL == YT_DISPATCH(unit), CMM_ERR_NOT_INIT);
 1270              		.loc 1 145 5 discriminator 3 view .LVU364
 1271 004c FFF7FEFF 		bl	osal_printf
 1272              	.LVL166:
 1273 0050 F5E7     		b	.L120
 1274              	.LVL167:
 1275              	.L133:
 145:../Switch/core/yt/yt_port.c ****     CMM_PARAM_CHK(NULL == YT_DISPATCH(unit), CMM_ERR_NOT_INIT);
 1276              		.loc 1 145 5 discriminator 3 view .LVU365
 1277              	.LBE25:
 146:../Switch/core/yt/yt_port.c ****     CMM_PARAM_CHK((!(YT_DISPATCH(unit)->is_inited)), CMM_ERR_NOT_INIT);
 1278              		.loc 1 146 5 is_stmt 1 discriminator 1 view .LVU366
 146:../Switch/core/yt/yt_port.c ****     CMM_PARAM_CHK((!(YT_DISPATCH(unit)->is_inited)), CMM_ERR_NOT_INIT);
 1279              		.loc 1 146 5 discriminator 1 view .LVU367
 1280 0052 1F4B     		ldr	r3, .L141+12
 1281 0054 1B78     		ldrb	r3, [r3]	@ zero_extendqisi2
 1282 0056 012B     		cmp	r3, #1
 1283 0058 01D8     		bhi	.L137
 1284              	.LVL168:
 1285              	.L123:
 146:../Switch/core/yt/yt_port.c ****     CMM_PARAM_CHK((!(YT_DISPATCH(unit)->is_inited)), CMM_ERR_NOT_INIT);
 1286              		.loc 1 146 5 discriminator 5 view .LVU368
 146:../Switch/core/yt/yt_port.c ****     CMM_PARAM_CHK((!(YT_DISPATCH(unit)->is_inited)), CMM_ERR_NOT_INIT);
 1287              		.loc 1 146 5 discriminator 5 view .LVU369
 146:../Switch/core/yt/yt_port.c ****     CMM_PARAM_CHK((!(YT_DISPATCH(unit)->is_inited)), CMM_ERR_NOT_INIT);
 1288              		.loc 1 146 5 discriminator 5 view .LVU370
 1289 005a 0420     		movs	r0, #4
 1290 005c EAE7     		b	.L118
 1291              	.LVL169:
 1292              	.L137:
 146:../Switch/core/yt/yt_port.c ****     CMM_PARAM_CHK((!(YT_DISPATCH(unit)->is_inited)), CMM_ERR_NOT_INIT);
 1293              		.loc 1 146 5 discriminator 3 view .LVU371
 1294              	.LBB26:
 146:../Switch/core/yt/yt_port.c ****     CMM_PARAM_CHK((!(YT_DISPATCH(unit)->is_inited)), CMM_ERR_NOT_INIT);
 1295              		.loc 1 146 5 discriminator 3 view .LVU372
 1296 005e 1D4B     		ldr	r3, .L141+16
 1297 0060 1A69     		ldr	r2, [r3, #16]
 1298              	.LVL170:
 146:../Switch/core/yt/yt_port.c ****     CMM_PARAM_CHK((!(YT_DISPATCH(unit)->is_inited)), CMM_ERR_NOT_INIT);
 1299              		.loc 1 146 5 is_stmt 0 discriminator 3 view .LVU373
 1300 0062 1D4B     		ldr	r3, .L141+20
 1301 0064 9968     		ldr	r1, [r3, #8]
 1302              	.LVL171:
 146:../Switch/core/yt/yt_port.c ****     CMM_PARAM_CHK((!(YT_DISPATCH(unit)->is_inited)), CMM_ERR_NOT_INIT);
 1303              		.loc 1 146 5 discriminator 3 view .LVU374
 1304 0066 1D48     		ldr	r0, .L141+24
 1305              	.LVL172:
 146:../Switch/core/yt/yt_port.c ****     CMM_PARAM_CHK((!(YT_DISPATCH(unit)->is_inited)), CMM_ERR_NOT_INIT);
 1306              		.loc 1 146 5 discriminator 3 view .LVU375
 1307 0068 FFF7FEFF 		bl	osal_printf
 1308              	.LVL173:
 1309 006c F5E7     		b	.L123
 1310              	.LVL174:
 1311              	.L134:
 146:../Switch/core/yt/yt_port.c ****     CMM_PARAM_CHK((!(YT_DISPATCH(unit)->is_inited)), CMM_ERR_NOT_INIT);
 1312              		.loc 1 146 5 discriminator 3 view .LVU376
 1313              	.LBE26:
 147:../Switch/core/yt/yt_port.c ****     CMM_PARAM_CHK((!(CMM_PORT_VALID(unit, port))), CMM_ERR_PORT);
 1314              		.loc 1 147 5 is_stmt 1 discriminator 1 view .LVU377
 147:../Switch/core/yt/yt_port.c ****     CMM_PARAM_CHK((!(CMM_PORT_VALID(unit, port))), CMM_ERR_PORT);
 1315              		.loc 1 147 5 discriminator 1 view .LVU378
 1316 006e 184B     		ldr	r3, .L141+12
 1317 0070 1B78     		ldrb	r3, [r3]	@ zero_extendqisi2
 1318 0072 012B     		cmp	r3, #1
 1319 0074 01D8     		bhi	.L138
 1320              	.LVL175:
 1321              	.L125:
 147:../Switch/core/yt/yt_port.c ****     CMM_PARAM_CHK((!(CMM_PORT_VALID(unit, port))), CMM_ERR_PORT);
 1322              		.loc 1 147 5 discriminator 5 view .LVU379
 147:../Switch/core/yt/yt_port.c ****     CMM_PARAM_CHK((!(CMM_PORT_VALID(unit, port))), CMM_ERR_PORT);
 1323              		.loc 1 147 5 discriminator 5 view .LVU380
 147:../Switch/core/yt/yt_port.c ****     CMM_PARAM_CHK((!(CMM_PORT_VALID(unit, port))), CMM_ERR_PORT);
 1324              		.loc 1 147 5 discriminator 5 view .LVU381
 1325 0076 0420     		movs	r0, #4
 1326 0078 DCE7     		b	.L118
 1327              	.LVL176:
 1328              	.L138:
 147:../Switch/core/yt/yt_port.c ****     CMM_PARAM_CHK((!(CMM_PORT_VALID(unit, port))), CMM_ERR_PORT);
 1329              		.loc 1 147 5 discriminator 3 view .LVU382
 1330              	.LBB27:
 147:../Switch/core/yt/yt_port.c ****     CMM_PARAM_CHK((!(CMM_PORT_VALID(unit, port))), CMM_ERR_PORT);
 1331              		.loc 1 147 5 discriminator 3 view .LVU383
 1332 007a 164B     		ldr	r3, .L141+16
 1333 007c 1A69     		ldr	r2, [r3, #16]
 1334              	.LVL177:
 147:../Switch/core/yt/yt_port.c ****     CMM_PARAM_CHK((!(CMM_PORT_VALID(unit, port))), CMM_ERR_PORT);
 1335              		.loc 1 147 5 is_stmt 0 discriminator 3 view .LVU384
 1336 007e 164B     		ldr	r3, .L141+20
 1337 0080 9968     		ldr	r1, [r3, #8]
 1338              	.LVL178:
 147:../Switch/core/yt/yt_port.c ****     CMM_PARAM_CHK((!(CMM_PORT_VALID(unit, port))), CMM_ERR_PORT);
 1339              		.loc 1 147 5 discriminator 3 view .LVU385
 1340 0082 1648     		ldr	r0, .L141+24
 1341 0084 FFF7FEFF 		bl	osal_printf
 1342              	.LVL179:
 1343 0088 F5E7     		b	.L125
 1344              	.LVL180:
 1345              	.L126:
 147:../Switch/core/yt/yt_port.c ****     CMM_PARAM_CHK((!(CMM_PORT_VALID(unit, port))), CMM_ERR_PORT);
 1346              		.loc 1 147 5 discriminator 3 view .LVU386
 1347              	.LBE27:
 148:../Switch/core/yt/yt_port.c ****     CMM_PARAM_CHK((YT_ENABLE < enable || YT_DISABLE > enable), CMM_ERR_INPUT);
 1348              		.loc 1 148 5 is_stmt 1 discriminator 3 view .LVU387
 148:../Switch/core/yt/yt_port.c ****     CMM_PARAM_CHK((YT_ENABLE < enable || YT_DISABLE > enable), CMM_ERR_INPUT);
 1349              		.loc 1 148 5 discriminator 3 view .LVU388
 1350 008a 114B     		ldr	r3, .L141+12
 1351 008c 1B78     		ldrb	r3, [r3]	@ zero_extendqisi2
 1352 008e 012B     		cmp	r3, #1
 1353 0090 01D8     		bhi	.L139
 1354              	.LVL181:
 1355              	.L128:
 148:../Switch/core/yt/yt_port.c ****     CMM_PARAM_CHK((YT_ENABLE < enable || YT_DISABLE > enable), CMM_ERR_INPUT);
 1356              		.loc 1 148 5 discriminator 7 view .LVU389
 148:../Switch/core/yt/yt_port.c ****     CMM_PARAM_CHK((YT_ENABLE < enable || YT_DISABLE > enable), CMM_ERR_INPUT);
 1357              		.loc 1 148 5 discriminator 7 view .LVU390
 148:../Switch/core/yt/yt_port.c ****     CMM_PARAM_CHK((YT_ENABLE < enable || YT_DISABLE > enable), CMM_ERR_INPUT);
 1358              		.loc 1 148 5 discriminator 7 view .LVU391
 1359 0092 0E20     		movs	r0, #14
 1360 0094 CEE7     		b	.L118
 1361              	.LVL182:
 1362              	.L139:
 148:../Switch/core/yt/yt_port.c ****     CMM_PARAM_CHK((YT_ENABLE < enable || YT_DISABLE > enable), CMM_ERR_INPUT);
 1363              		.loc 1 148 5 discriminator 5 view .LVU392
 1364              	.LBB28:
 148:../Switch/core/yt/yt_port.c ****     CMM_PARAM_CHK((YT_ENABLE < enable || YT_DISABLE > enable), CMM_ERR_INPUT);
 1365              		.loc 1 148 5 discriminator 5 view .LVU393
 1366 0096 0F4B     		ldr	r3, .L141+16
 1367 0098 9A6B     		ldr	r2, [r3, #56]
 1368              	.LVL183:
 148:../Switch/core/yt/yt_port.c ****     CMM_PARAM_CHK((YT_ENABLE < enable || YT_DISABLE > enable), CMM_ERR_INPUT);
 1369              		.loc 1 148 5 is_stmt 0 discriminator 5 view .LVU394
 1370 009a 0F4B     		ldr	r3, .L141+20
 1371 009c 9968     		ldr	r1, [r3, #8]
 1372              	.LVL184:
 148:../Switch/core/yt/yt_port.c ****     CMM_PARAM_CHK((YT_ENABLE < enable || YT_DISABLE > enable), CMM_ERR_INPUT);
 1373              		.loc 1 148 5 discriminator 5 view .LVU395
 1374 009e 0F48     		ldr	r0, .L141+24
 1375 00a0 FFF7FEFF 		bl	osal_printf
 1376              	.LVL185:
 1377 00a4 F5E7     		b	.L128
 1378              	.LVL186:
 1379              	.L135:
 148:../Switch/core/yt/yt_port.c ****     CMM_PARAM_CHK((YT_ENABLE < enable || YT_DISABLE > enable), CMM_ERR_INPUT);
 1380              		.loc 1 148 5 discriminator 5 view .LVU396
 1381              	.LBE28:
 149:../Switch/core/yt/yt_port.c **** 
 1382              		.loc 1 149 5 is_stmt 1 discriminator 1 view .LVU397
 149:../Switch/core/yt/yt_port.c **** 
 1383              		.loc 1 149 5 discriminator 1 view .LVU398
 1384 00a6 0A4B     		ldr	r3, .L141+12
 1385 00a8 1B78     		ldrb	r3, [r3]	@ zero_extendqisi2
 1386 00aa 012B     		cmp	r3, #1
 1387 00ac 01D8     		bhi	.L140
 1388              	.LVL187:
 1389              	.L130:
 149:../Switch/core/yt/yt_port.c **** 
 1390              		.loc 1 149 5 discriminator 5 view .LVU399
 149:../Switch/core/yt/yt_port.c **** 
 1391              		.loc 1 149 5 discriminator 5 view .LVU400
 149:../Switch/core/yt/yt_port.c **** 
 1392              		.loc 1 149 5 discriminator 5 view .LVU401
 1393 00ae 0520     		movs	r0, #5
 1394 00b0 C0E7     		b	.L118
 1395              	.LVL188:
 1396              	.L140:
 149:../Switch/core/yt/yt_port.c **** 
 1397              		.loc 1 149 5 discriminator 3 view .LVU402
 1398              	.LBB29:
 149:../Switch/core/yt/yt_port.c **** 
 1399              		.loc 1 149 5 discriminator 3 view .LVU403
 1400 00b2 084B     		ldr	r3, .L141+16
 1401 00b4 5A69     		ldr	r2, [r3, #20]
 1402              	.LVL189:
 149:../Switch/core/yt/yt_port.c **** 
 1403              		.loc 1 149 5 is_stmt 0 discriminator 3 view .LVU404
 1404 00b6 084B     		ldr	r3, .L141+20
 1405 00b8 9968     		ldr	r1, [r3, #8]
 1406              	.LVL190:
 149:../Switch/core/yt/yt_port.c **** 
 1407              		.loc 1 149 5 discriminator 3 view .LVU405
 1408 00ba 0848     		ldr	r0, .L141+24
 1409 00bc FFF7FEFF 		bl	osal_printf
 1410              	.LVL191:
 1411 00c0 F5E7     		b	.L130
 1412              	.L142:
 1413 00c2 00BF     		.align	2
 1414              	.L141:
 1415 00c4 00000000 		.word	gpfal_dispatch
 1416 00c8 00000000 		.word	gcal_inited
 1417 00cc 00000000 		.word	gpSwitchUnit
 1418 00d0 00000000 		.word	yt_debug_level
 1419 00d4 00000000 		.word	_yt_errmsg
 1420 00d8 00000000 		.word	_yt_prompt_msg
 1421 00dc 00000000 		.word	.LC0
 1422              	.LBE29:
 1423              		.cfi_endproc
 1424              	.LFE8:
 1426              		.section	.text.yt_port_backpress_enable_get,"ax",%progbits
 1427              		.align	1
 1428              		.global	yt_port_backpress_enable_get
 1429              		.syntax unified
 1430              		.thumb
 1431              		.thumb_func
 1433              	yt_port_backpress_enable_get:
 1434              	.LVL192:
 1435              	.LFB9:
 153:../Switch/core/yt/yt_port.c **** 
 154:../Switch/core/yt/yt_port.c **** /**
 155:../Switch/core/yt/yt_port.c ****  * @internal      yt_port_backpress_enable_get
 156:../Switch/core/yt/yt_port.c ****  * @endinternal
 157:../Switch/core/yt/yt_port.c ****  *
 158:../Switch/core/yt/yt_port.c ****  * @brief         Description
 159:../Switch/core/yt/yt_port.c ****  * @note          APPLICABLE DEVICES  -Tiger
 160:../Switch/core/yt/yt_port.c ****  * @param[in]     unit                -unit id
 161:../Switch/core/yt/yt_port.c ****  * @param[in]     port                -port num
 162:../Switch/core/yt/yt_port.c ****  * @param[out]    pEnable             -enable or disable
 163:../Switch/core/yt/yt_port.c ****  * @retval        CMM_ERR_OK          -on success
 164:../Switch/core/yt/yt_port.c ****  * @retval        CMM_ERR_FAIL        -on fail
 165:../Switch/core/yt/yt_port.c ****  */
 166:../Switch/core/yt/yt_port.c **** yt_ret_t yt_port_backpress_enable_get(yt_unit_t unit, yt_port_t port, yt_enable_t *pEnable)
 167:../Switch/core/yt/yt_port.c **** {
 1436              		.loc 1 167 1 is_stmt 1 view -0
 1437              		.cfi_startproc
 1438              		@ args = 0, pretend = 0, frame = 0
 1439              		@ frame_needed = 0, uses_anonymous_args = 0
 1440              		.loc 1 167 1 is_stmt 0 view .LVU407
 1441 0000 08B5     		push	{r3, lr}
 1442              		.cfi_def_cfa_offset 8
 1443              		.cfi_offset 3, -8
 1444              		.cfi_offset 14, -4
 168:../Switch/core/yt/yt_port.c ****     CMM_PARAM_CHK((YT_UNIT_NUM <= unit), CMM_ERR_INPUT);
 1445              		.loc 1 168 5 is_stmt 1 view .LVU408
 1446              		.loc 1 168 5 view .LVU409
 1447 0002 C0B9     		cbnz	r0, .L157
 1448 0004 8446     		mov	ip, r0
 1449              		.loc 1 168 5 discriminator 2 view .LVU410
 169:../Switch/core/yt/yt_port.c ****     CMM_PARAM_CHK(NULL == YT_DISPATCH(unit), CMM_ERR_NOT_INIT);
 1450              		.loc 1 169 5 discriminator 2 view .LVU411
 1451              		.loc 1 169 5 discriminator 2 view .LVU412
 1452 0006 2F4B     		ldr	r3, .L166
 1453 0008 53F82030 		ldr	r3, [r3, r0, lsl #2]
 1454 000c 0BB3     		cbz	r3, .L158
 1455              		.loc 1 169 5 discriminator 2 view .LVU413
 170:../Switch/core/yt/yt_port.c ****     CMM_PARAM_CHK((!(YT_DISPATCH(unit)->is_inited)), CMM_ERR_NOT_INIT);
 1456              		.loc 1 170 5 discriminator 2 view .LVU414
 1457              		.loc 1 170 5 discriminator 2 view .LVU415
 1458 000e 1878     		ldrb	r0, [r3]	@ zero_extendqisi2
 1459              	.LVL193:
 1460              		.loc 1 170 5 is_stmt 0 discriminator 2 view .LVU416
 1461 0010 0028     		cmp	r0, #0
 1462 0012 2CD0     		beq	.L159
 1463              		.loc 1 170 5 is_stmt 1 discriminator 2 view .LVU417
 171:../Switch/core/yt/yt_port.c ****     CMM_PARAM_CHK((!(CMM_PORT_VALID(unit, port))), CMM_ERR_PORT);
 1464              		.loc 1 171 5 discriminator 2 view .LVU418
 1465              		.loc 1 171 5 discriminator 2 view .LVU419
 1466 0014 2C48     		ldr	r0, .L166+4
 1467 0016 0078     		ldrb	r0, [r0]	@ zero_extendqisi2
 1468 0018 0028     		cmp	r0, #0
 1469 001a 36D0     		beq	.L151
 1470 001c 2B48     		ldr	r0, .L166+8
 1471 001e 50F82C00 		ldr	r0, [r0, ip, lsl #2]
 1472 0022 007D     		ldrb	r0, [r0, #20]	@ zero_extendqisi2
 1473 0024 8842     		cmp	r0, r1
 1474 0026 30D9     		bls	.L151
 1475              		.loc 1 171 5 discriminator 4 view .LVU420
 172:../Switch/core/yt/yt_port.c ****     CMM_PARAM_CHK((NULL == pEnable), CMM_ERR_NULL_POINT);
 1476              		.loc 1 172 5 discriminator 4 view .LVU421
 1477              		.loc 1 172 5 discriminator 4 view .LVU422
 1478 0028 002A     		cmp	r2, #0
 1479 002a 3CD0     		beq	.L160
 1480              		.loc 1 172 5 discriminator 2 view .LVU423
 173:../Switch/core/yt/yt_port.c **** 
 174:../Switch/core/yt/yt_port.c ****     return YT_DISPATCH(unit)->port_backpress_enable_get(unit, port, pEnable);
 1481              		.loc 1 174 5 discriminator 2 view .LVU424
 1482              		.loc 1 174 29 is_stmt 0 discriminator 2 view .LVU425
 1483 002c D3F86835 		ldr	r3, [r3, #1384]
 1484              		.loc 1 174 12 discriminator 2 view .LVU426
 1485 0030 6046     		mov	r0, ip
 1486 0032 9847     		blx	r3
 1487              	.LVL194:
 1488              	.L143:
 175:../Switch/core/yt/yt_port.c **** }
 1489              		.loc 1 175 1 view .LVU427
 1490 0034 08BD     		pop	{r3, pc}
 1491              	.LVL195:
 1492              	.L157:
 168:../Switch/core/yt/yt_port.c ****     CMM_PARAM_CHK(NULL == YT_DISPATCH(unit), CMM_ERR_NOT_INIT);
 1493              		.loc 1 168 5 is_stmt 1 discriminator 1 view .LVU428
 168:../Switch/core/yt/yt_port.c ****     CMM_PARAM_CHK(NULL == YT_DISPATCH(unit), CMM_ERR_NOT_INIT);
 1494              		.loc 1 168 5 discriminator 1 view .LVU429
 1495 0036 264B     		ldr	r3, .L166+12
 1496 0038 1B78     		ldrb	r3, [r3]	@ zero_extendqisi2
 1497 003a 012B     		cmp	r3, #1
 1498 003c 01D8     		bhi	.L161
 1499              	.LVL196:
 1500              	.L145:
 168:../Switch/core/yt/yt_port.c ****     CMM_PARAM_CHK(NULL == YT_DISPATCH(unit), CMM_ERR_NOT_INIT);
 1501              		.loc 1 168 5 discriminator 5 view .LVU430
 168:../Switch/core/yt/yt_port.c ****     CMM_PARAM_CHK(NULL == YT_DISPATCH(unit), CMM_ERR_NOT_INIT);
 1502              		.loc 1 168 5 discriminator 5 view .LVU431
 168:../Switch/core/yt/yt_port.c ****     CMM_PARAM_CHK(NULL == YT_DISPATCH(unit), CMM_ERR_NOT_INIT);
 1503              		.loc 1 168 5 discriminator 5 view .LVU432
 1504 003e 0520     		movs	r0, #5
 1505 0040 F8E7     		b	.L143
 1506              	.LVL197:
 1507              	.L161:
 168:../Switch/core/yt/yt_port.c ****     CMM_PARAM_CHK(NULL == YT_DISPATCH(unit), CMM_ERR_NOT_INIT);
 1508              		.loc 1 168 5 discriminator 3 view .LVU433
 1509              	.LBB30:
 168:../Switch/core/yt/yt_port.c ****     CMM_PARAM_CHK(NULL == YT_DISPATCH(unit), CMM_ERR_NOT_INIT);
 1510              		.loc 1 168 5 discriminator 3 view .LVU434
 1511 0042 244B     		ldr	r3, .L166+16
 1512 0044 5A69     		ldr	r2, [r3, #20]
 1513              	.LVL198:
 168:../Switch/core/yt/yt_port.c ****     CMM_PARAM_CHK(NULL == YT_DISPATCH(unit), CMM_ERR_NOT_INIT);
 1514              		.loc 1 168 5 is_stmt 0 discriminator 3 view .LVU435
 1515 0046 244B     		ldr	r3, .L166+20
 1516 0048 9968     		ldr	r1, [r3, #8]
 1517              	.LVL199:
 168:../Switch/core/yt/yt_port.c ****     CMM_PARAM_CHK(NULL == YT_DISPATCH(unit), CMM_ERR_NOT_INIT);
 1518              		.loc 1 168 5 discriminator 3 view .LVU436
 1519 004a 2448     		ldr	r0, .L166+24
 1520              	.LVL200:
 168:../Switch/core/yt/yt_port.c ****     CMM_PARAM_CHK(NULL == YT_DISPATCH(unit), CMM_ERR_NOT_INIT);
 1521              		.loc 1 168 5 discriminator 3 view .LVU437
 1522 004c FFF7FEFF 		bl	osal_printf
 1523              	.LVL201:
 1524 0050 F5E7     		b	.L145
 1525              	.LVL202:
 1526              	.L158:
 168:../Switch/core/yt/yt_port.c ****     CMM_PARAM_CHK(NULL == YT_DISPATCH(unit), CMM_ERR_NOT_INIT);
 1527              		.loc 1 168 5 discriminator 3 view .LVU438
 1528              	.LBE30:
 169:../Switch/core/yt/yt_port.c ****     CMM_PARAM_CHK((!(YT_DISPATCH(unit)->is_inited)), CMM_ERR_NOT_INIT);
 1529              		.loc 1 169 5 is_stmt 1 discriminator 1 view .LVU439
 169:../Switch/core/yt/yt_port.c ****     CMM_PARAM_CHK((!(YT_DISPATCH(unit)->is_inited)), CMM_ERR_NOT_INIT);
 1530              		.loc 1 169 5 discriminator 1 view .LVU440
 1531 0052 1F4B     		ldr	r3, .L166+12
 1532 0054 1B78     		ldrb	r3, [r3]	@ zero_extendqisi2
 1533 0056 012B     		cmp	r3, #1
 1534 0058 01D8     		bhi	.L162
 1535              	.LVL203:
 1536              	.L148:
 169:../Switch/core/yt/yt_port.c ****     CMM_PARAM_CHK((!(YT_DISPATCH(unit)->is_inited)), CMM_ERR_NOT_INIT);
 1537              		.loc 1 169 5 discriminator 5 view .LVU441
 169:../Switch/core/yt/yt_port.c ****     CMM_PARAM_CHK((!(YT_DISPATCH(unit)->is_inited)), CMM_ERR_NOT_INIT);
 1538              		.loc 1 169 5 discriminator 5 view .LVU442
 169:../Switch/core/yt/yt_port.c ****     CMM_PARAM_CHK((!(YT_DISPATCH(unit)->is_inited)), CMM_ERR_NOT_INIT);
 1539              		.loc 1 169 5 discriminator 5 view .LVU443
 1540 005a 0420     		movs	r0, #4
 1541 005c EAE7     		b	.L143
 1542              	.LVL204:
 1543              	.L162:
 169:../Switch/core/yt/yt_port.c ****     CMM_PARAM_CHK((!(YT_DISPATCH(unit)->is_inited)), CMM_ERR_NOT_INIT);
 1544              		.loc 1 169 5 discriminator 3 view .LVU444
 1545              	.LBB31:
 169:../Switch/core/yt/yt_port.c ****     CMM_PARAM_CHK((!(YT_DISPATCH(unit)->is_inited)), CMM_ERR_NOT_INIT);
 1546              		.loc 1 169 5 discriminator 3 view .LVU445
 1547 005e 1D4B     		ldr	r3, .L166+16
 1548 0060 1A69     		ldr	r2, [r3, #16]
 1549              	.LVL205:
 169:../Switch/core/yt/yt_port.c ****     CMM_PARAM_CHK((!(YT_DISPATCH(unit)->is_inited)), CMM_ERR_NOT_INIT);
 1550              		.loc 1 169 5 is_stmt 0 discriminator 3 view .LVU446
 1551 0062 1D4B     		ldr	r3, .L166+20
 1552 0064 9968     		ldr	r1, [r3, #8]
 1553              	.LVL206:
 169:../Switch/core/yt/yt_port.c ****     CMM_PARAM_CHK((!(YT_DISPATCH(unit)->is_inited)), CMM_ERR_NOT_INIT);
 1554              		.loc 1 169 5 discriminator 3 view .LVU447
 1555 0066 1D48     		ldr	r0, .L166+24
 1556              	.LVL207:
 169:../Switch/core/yt/yt_port.c ****     CMM_PARAM_CHK((!(YT_DISPATCH(unit)->is_inited)), CMM_ERR_NOT_INIT);
 1557              		.loc 1 169 5 discriminator 3 view .LVU448
 1558 0068 FFF7FEFF 		bl	osal_printf
 1559              	.LVL208:
 1560 006c F5E7     		b	.L148
 1561              	.LVL209:
 1562              	.L159:
 169:../Switch/core/yt/yt_port.c ****     CMM_PARAM_CHK((!(YT_DISPATCH(unit)->is_inited)), CMM_ERR_NOT_INIT);
 1563              		.loc 1 169 5 discriminator 3 view .LVU449
 1564              	.LBE31:
 170:../Switch/core/yt/yt_port.c ****     CMM_PARAM_CHK((!(CMM_PORT_VALID(unit, port))), CMM_ERR_PORT);
 1565              		.loc 1 170 5 is_stmt 1 discriminator 1 view .LVU450
 170:../Switch/core/yt/yt_port.c ****     CMM_PARAM_CHK((!(CMM_PORT_VALID(unit, port))), CMM_ERR_PORT);
 1566              		.loc 1 170 5 discriminator 1 view .LVU451
 1567 006e 184B     		ldr	r3, .L166+12
 1568 0070 1B78     		ldrb	r3, [r3]	@ zero_extendqisi2
 1569 0072 012B     		cmp	r3, #1
 1570 0074 01D8     		bhi	.L163
 1571              	.LVL210:
 1572              	.L150:
 170:../Switch/core/yt/yt_port.c ****     CMM_PARAM_CHK((!(CMM_PORT_VALID(unit, port))), CMM_ERR_PORT);
 1573              		.loc 1 170 5 discriminator 5 view .LVU452
 170:../Switch/core/yt/yt_port.c ****     CMM_PARAM_CHK((!(CMM_PORT_VALID(unit, port))), CMM_ERR_PORT);
 1574              		.loc 1 170 5 discriminator 5 view .LVU453
 170:../Switch/core/yt/yt_port.c ****     CMM_PARAM_CHK((!(CMM_PORT_VALID(unit, port))), CMM_ERR_PORT);
 1575              		.loc 1 170 5 discriminator 5 view .LVU454
 1576 0076 0420     		movs	r0, #4
 1577 0078 DCE7     		b	.L143
 1578              	.LVL211:
 1579              	.L163:
 170:../Switch/core/yt/yt_port.c ****     CMM_PARAM_CHK((!(CMM_PORT_VALID(unit, port))), CMM_ERR_PORT);
 1580              		.loc 1 170 5 discriminator 3 view .LVU455
 1581              	.LBB32:
 170:../Switch/core/yt/yt_port.c ****     CMM_PARAM_CHK((!(CMM_PORT_VALID(unit, port))), CMM_ERR_PORT);
 1582              		.loc 1 170 5 discriminator 3 view .LVU456
 1583 007a 164B     		ldr	r3, .L166+16
 1584 007c 1A69     		ldr	r2, [r3, #16]
 1585              	.LVL212:
 170:../Switch/core/yt/yt_port.c ****     CMM_PARAM_CHK((!(CMM_PORT_VALID(unit, port))), CMM_ERR_PORT);
 1586              		.loc 1 170 5 is_stmt 0 discriminator 3 view .LVU457
 1587 007e 164B     		ldr	r3, .L166+20
 1588 0080 9968     		ldr	r1, [r3, #8]
 1589              	.LVL213:
 170:../Switch/core/yt/yt_port.c ****     CMM_PARAM_CHK((!(CMM_PORT_VALID(unit, port))), CMM_ERR_PORT);
 1590              		.loc 1 170 5 discriminator 3 view .LVU458
 1591 0082 1648     		ldr	r0, .L166+24
 1592 0084 FFF7FEFF 		bl	osal_printf
 1593              	.LVL214:
 1594 0088 F5E7     		b	.L150
 1595              	.LVL215:
 1596              	.L151:
 170:../Switch/core/yt/yt_port.c ****     CMM_PARAM_CHK((!(CMM_PORT_VALID(unit, port))), CMM_ERR_PORT);
 1597              		.loc 1 170 5 discriminator 3 view .LVU459
 1598              	.LBE32:
 171:../Switch/core/yt/yt_port.c ****     CMM_PARAM_CHK((NULL == pEnable), CMM_ERR_NULL_POINT);
 1599              		.loc 1 171 5 is_stmt 1 discriminator 3 view .LVU460
 171:../Switch/core/yt/yt_port.c ****     CMM_PARAM_CHK((NULL == pEnable), CMM_ERR_NULL_POINT);
 1600              		.loc 1 171 5 discriminator 3 view .LVU461
 1601 008a 114B     		ldr	r3, .L166+12
 1602 008c 1B78     		ldrb	r3, [r3]	@ zero_extendqisi2
 1603 008e 012B     		cmp	r3, #1
 1604 0090 01D8     		bhi	.L164
 1605              	.LVL216:
 1606              	.L153:
 171:../Switch/core/yt/yt_port.c ****     CMM_PARAM_CHK((NULL == pEnable), CMM_ERR_NULL_POINT);
 1607              		.loc 1 171 5 discriminator 7 view .LVU462
 171:../Switch/core/yt/yt_port.c ****     CMM_PARAM_CHK((NULL == pEnable), CMM_ERR_NULL_POINT);
 1608              		.loc 1 171 5 discriminator 7 view .LVU463
 171:../Switch/core/yt/yt_port.c ****     CMM_PARAM_CHK((NULL == pEnable), CMM_ERR_NULL_POINT);
 1609              		.loc 1 171 5 discriminator 7 view .LVU464
 1610 0092 0E20     		movs	r0, #14
 1611 0094 CEE7     		b	.L143
 1612              	.LVL217:
 1613              	.L164:
 171:../Switch/core/yt/yt_port.c ****     CMM_PARAM_CHK((NULL == pEnable), CMM_ERR_NULL_POINT);
 1614              		.loc 1 171 5 discriminator 5 view .LVU465
 1615              	.LBB33:
 171:../Switch/core/yt/yt_port.c ****     CMM_PARAM_CHK((NULL == pEnable), CMM_ERR_NULL_POINT);
 1616              		.loc 1 171 5 discriminator 5 view .LVU466
 1617 0096 0F4B     		ldr	r3, .L166+16
 1618 0098 9A6B     		ldr	r2, [r3, #56]
 1619              	.LVL218:
 171:../Switch/core/yt/yt_port.c ****     CMM_PARAM_CHK((NULL == pEnable), CMM_ERR_NULL_POINT);
 1620              		.loc 1 171 5 is_stmt 0 discriminator 5 view .LVU467
 1621 009a 0F4B     		ldr	r3, .L166+20
 1622 009c 9968     		ldr	r1, [r3, #8]
 1623              	.LVL219:
 171:../Switch/core/yt/yt_port.c ****     CMM_PARAM_CHK((NULL == pEnable), CMM_ERR_NULL_POINT);
 1624              		.loc 1 171 5 discriminator 5 view .LVU468
 1625 009e 0F48     		ldr	r0, .L166+24
 1626 00a0 FFF7FEFF 		bl	osal_printf
 1627              	.LVL220:
 1628 00a4 F5E7     		b	.L153
 1629              	.LVL221:
 1630              	.L160:
 171:../Switch/core/yt/yt_port.c ****     CMM_PARAM_CHK((NULL == pEnable), CMM_ERR_NULL_POINT);
 1631              		.loc 1 171 5 discriminator 5 view .LVU469
 1632              	.LBE33:
 172:../Switch/core/yt/yt_port.c **** 
 1633              		.loc 1 172 5 is_stmt 1 discriminator 1 view .LVU470
 172:../Switch/core/yt/yt_port.c **** 
 1634              		.loc 1 172 5 discriminator 1 view .LVU471
 1635 00a6 0A4B     		ldr	r3, .L166+12
 1636 00a8 1B78     		ldrb	r3, [r3]	@ zero_extendqisi2
 1637 00aa 012B     		cmp	r3, #1
 1638 00ac 01D8     		bhi	.L165
 1639              	.LVL222:
 1640              	.L155:
 172:../Switch/core/yt/yt_port.c **** 
 1641              		.loc 1 172 5 discriminator 5 view .LVU472
 172:../Switch/core/yt/yt_port.c **** 
 1642              		.loc 1 172 5 discriminator 5 view .LVU473
 172:../Switch/core/yt/yt_port.c **** 
 1643              		.loc 1 172 5 discriminator 5 view .LVU474
 1644 00ae 0220     		movs	r0, #2
 1645 00b0 C0E7     		b	.L143
 1646              	.LVL223:
 1647              	.L165:
 172:../Switch/core/yt/yt_port.c **** 
 1648              		.loc 1 172 5 discriminator 3 view .LVU475
 1649              	.LBB34:
 172:../Switch/core/yt/yt_port.c **** 
 1650              		.loc 1 172 5 discriminator 3 view .LVU476
 1651 00b2 084B     		ldr	r3, .L166+16
 1652 00b4 9A68     		ldr	r2, [r3, #8]
 1653              	.LVL224:
 172:../Switch/core/yt/yt_port.c **** 
 1654              		.loc 1 172 5 is_stmt 0 discriminator 3 view .LVU477
 1655 00b6 084B     		ldr	r3, .L166+20
 1656 00b8 9968     		ldr	r1, [r3, #8]
 1657              	.LVL225:
 172:../Switch/core/yt/yt_port.c **** 
 1658              		.loc 1 172 5 discriminator 3 view .LVU478
 1659 00ba 0848     		ldr	r0, .L166+24
 1660 00bc FFF7FEFF 		bl	osal_printf
 1661              	.LVL226:
 1662 00c0 F5E7     		b	.L155
 1663              	.L167:
 1664 00c2 00BF     		.align	2
 1665              	.L166:
 1666 00c4 00000000 		.word	gpfal_dispatch
 1667 00c8 00000000 		.word	gcal_inited
 1668 00cc 00000000 		.word	gpSwitchUnit
 1669 00d0 00000000 		.word	yt_debug_level
 1670 00d4 00000000 		.word	_yt_errmsg
 1671 00d8 00000000 		.word	_yt_prompt_msg
 1672 00dc 00000000 		.word	.LC0
 1673              	.LBE34:
 1674              		.cfi_endproc
 1675              	.LFE9:
 1677              		.section	.text.yt_port_cascade_set,"ax",%progbits
 1678              		.align	1
 1679              		.global	yt_port_cascade_set
 1680              		.syntax unified
 1681              		.thumb
 1682              		.thumb_func
 1684              	yt_port_cascade_set:
 1685              	.LVL227:
 1686              	.LFB10:
 176:../Switch/core/yt/yt_port.c **** 
 177:../Switch/core/yt/yt_port.c **** /**
 178:../Switch/core/yt/yt_port.c ****  * @internal      yt_port_cascade_set
 179:../Switch/core/yt/yt_port.c ****  * @endinternal
 180:../Switch/core/yt/yt_port.c ****  *
 181:../Switch/core/yt/yt_port.c ****  * @brief         Description
 182:../Switch/core/yt/yt_port.c ****  * @note          APPLICABLE DEVICES  -Tiger
 183:../Switch/core/yt/yt_port.c ****  * @param[in]     unit                -unit id
 184:../Switch/core/yt/yt_port.c ****  * @param[in]     cascade_info        -cascade enable status and ports configure information
 185:../Switch/core/yt/yt_port.c ****  * @retval        CMM_ERR_OK          -on success
 186:../Switch/core/yt/yt_port.c ****  * @retval        CMM_ERR_FAIL        -on fail
 187:../Switch/core/yt/yt_port.c ****  */
 188:../Switch/core/yt/yt_port.c **** yt_ret_t yt_port_cascade_set(yt_unit_t unit, yt_cascade_info_t cascade_info)
 189:../Switch/core/yt/yt_port.c **** {
 1687              		.loc 1 189 1 is_stmt 1 view -0
 1688              		.cfi_startproc
 1689              		@ args = 24, pretend = 16, frame = 0
 1690              		@ frame_needed = 0, uses_anonymous_args = 0
 1691              		.loc 1 189 1 is_stmt 0 view .LVU480
 1692 0000 84B0     		sub	sp, sp, #16
 1693              		.cfi_def_cfa_offset 16
 1694 0002 10B5     		push	{r4, lr}
 1695              		.cfi_def_cfa_offset 24
 1696              		.cfi_offset 4, -24
 1697              		.cfi_offset 14, -20
 1698 0004 82B0     		sub	sp, sp, #8
 1699              		.cfi_def_cfa_offset 32
 1700 0006 0DF1140C 		add	ip, sp, #20
 1701 000a 8CE80E00 		stm	ip, {r1, r2, r3}
 190:../Switch/core/yt/yt_port.c ****     uint32_t i;
 1702              		.loc 1 190 5 is_stmt 1 view .LVU481
 191:../Switch/core/yt/yt_port.c **** 
 192:../Switch/core/yt/yt_port.c ****     CMM_PARAM_CHK((YT_UNIT_NUM <= unit), CMM_ERR_INPUT);
 1703              		.loc 1 192 5 view .LVU482
 1704              		.loc 1 192 5 view .LVU483
 1705 000e 60B9     		cbnz	r0, .L184
 1706 0010 8446     		mov	ip, r0
 1707              		.loc 1 192 5 discriminator 2 view .LVU484
 193:../Switch/core/yt/yt_port.c ****     CMM_PARAM_CHK(NULL == YT_DISPATCH(unit), CMM_ERR_NOT_INIT);
 1708              		.loc 1 193 5 discriminator 2 view .LVU485
 1709              		.loc 1 193 5 discriminator 2 view .LVU486
 1710 0012 3C4B     		ldr	r3, .L194
 1711 0014 53F82020 		ldr	r2, [r3, r0, lsl #2]
 1712 0018 AAB1     		cbz	r2, .L185
 1713              		.loc 1 193 5 discriminator 2 view .LVU487
 194:../Switch/core/yt/yt_port.c ****     CMM_PARAM_CHK((!(YT_DISPATCH(unit)->is_inited)), CMM_ERR_NOT_INIT);
 1714              		.loc 1 194 5 discriminator 2 view .LVU488
 1715              		.loc 1 194 5 discriminator 2 view .LVU489
 1716 001a 1378     		ldrb	r3, [r2]	@ zero_extendqisi2
 1717 001c 0BB3     		cbz	r3, .L186
 1718              		.loc 1 194 5 discriminator 2 view .LVU490
 195:../Switch/core/yt/yt_port.c ****     CMM_PARAM_CHK((YT_ENABLE < cascade_info.en || YT_DISABLE > cascade_info.en), CMM_ERR_INPUT);
 1719              		.loc 1 195 5 discriminator 2 view .LVU491
 1720              		.loc 1 195 5 discriminator 2 view .LVU492
 1721 001e 9DF81430 		ldrb	r3, [sp, #20]	@ zero_extendqisi2
 1722 0022 012B     		cmp	r3, #1
 1723 0024 2BD8     		bhi	.L187
 196:../Switch/core/yt/yt_port.c ****     for (i = 0; i < YT_MAX_CASCADE_PORT_NUM; i++)
 1724              		.loc 1 196 12 is_stmt 0 view .LVU493
 1725 0026 0023     		movs	r3, #0
 1726 0028 40E0     		b	.L176
 1727              	.L184:
 192:../Switch/core/yt/yt_port.c ****     CMM_PARAM_CHK(NULL == YT_DISPATCH(unit), CMM_ERR_NOT_INIT);
 1728              		.loc 1 192 5 is_stmt 1 discriminator 1 view .LVU494
 192:../Switch/core/yt/yt_port.c ****     CMM_PARAM_CHK(NULL == YT_DISPATCH(unit), CMM_ERR_NOT_INIT);
 1729              		.loc 1 192 5 discriminator 1 view .LVU495
 1730 002a 374B     		ldr	r3, .L194+4
 1731 002c 1B78     		ldrb	r3, [r3]	@ zero_extendqisi2
 1732 002e 012B     		cmp	r3, #1
 1733 0030 01D8     		bhi	.L188
 1734              	.LVL228:
 1735              	.L170:
 192:../Switch/core/yt/yt_port.c ****     CMM_PARAM_CHK(NULL == YT_DISPATCH(unit), CMM_ERR_NOT_INIT);
 1736              		.loc 1 192 5 discriminator 5 view .LVU496
 192:../Switch/core/yt/yt_port.c ****     CMM_PARAM_CHK(NULL == YT_DISPATCH(unit), CMM_ERR_NOT_INIT);
 1737              		.loc 1 192 5 discriminator 5 view .LVU497
 192:../Switch/core/yt/yt_port.c ****     CMM_PARAM_CHK(NULL == YT_DISPATCH(unit), CMM_ERR_NOT_INIT);
 1738              		.loc 1 192 5 discriminator 5 view .LVU498
 1739 0032 0520     		movs	r0, #5
 1740 0034 60E0     		b	.L168
 1741              	.LVL229:
 1742              	.L188:
 192:../Switch/core/yt/yt_port.c ****     CMM_PARAM_CHK(NULL == YT_DISPATCH(unit), CMM_ERR_NOT_INIT);
 1743              		.loc 1 192 5 discriminator 3 view .LVU499
 1744              	.LBB35:
 192:../Switch/core/yt/yt_port.c ****     CMM_PARAM_CHK(NULL == YT_DISPATCH(unit), CMM_ERR_NOT_INIT);
 1745              		.loc 1 192 5 discriminator 3 view .LVU500
 1746 0036 354B     		ldr	r3, .L194+8
 1747 0038 5A69     		ldr	r2, [r3, #20]
 1748 003a 354B     		ldr	r3, .L194+12
 1749 003c 9968     		ldr	r1, [r3, #8]
 1750 003e 3548     		ldr	r0, .L194+16
 1751              	.LVL230:
 192:../Switch/core/yt/yt_port.c ****     CMM_PARAM_CHK(NULL == YT_DISPATCH(unit), CMM_ERR_NOT_INIT);
 1752              		.loc 1 192 5 is_stmt 0 discriminator 3 view .LVU501
 1753 0040 FFF7FEFF 		bl	osal_printf
 1754              	.LVL231:
 1755 0044 F5E7     		b	.L170
 1756              	.LVL232:
 1757              	.L185:
 192:../Switch/core/yt/yt_port.c ****     CMM_PARAM_CHK(NULL == YT_DISPATCH(unit), CMM_ERR_NOT_INIT);
 1758              		.loc 1 192 5 discriminator 3 view .LVU502
 1759              	.LBE35:
 193:../Switch/core/yt/yt_port.c ****     CMM_PARAM_CHK((!(YT_DISPATCH(unit)->is_inited)), CMM_ERR_NOT_INIT);
 1760              		.loc 1 193 5 is_stmt 1 discriminator 1 view .LVU503
 193:../Switch/core/yt/yt_port.c ****     CMM_PARAM_CHK((!(YT_DISPATCH(unit)->is_inited)), CMM_ERR_NOT_INIT);
 1761              		.loc 1 193 5 discriminator 1 view .LVU504
 1762 0046 304B     		ldr	r3, .L194+4
 1763 0048 1B78     		ldrb	r3, [r3]	@ zero_extendqisi2
 1764 004a 012B     		cmp	r3, #1
 1765 004c 01D8     		bhi	.L189
 1766              	.LVL233:
 1767              	.L173:
 193:../Switch/core/yt/yt_port.c ****     CMM_PARAM_CHK((!(YT_DISPATCH(unit)->is_inited)), CMM_ERR_NOT_INIT);
 1768              		.loc 1 193 5 discriminator 5 view .LVU505
 193:../Switch/core/yt/yt_port.c ****     CMM_PARAM_CHK((!(YT_DISPATCH(unit)->is_inited)), CMM_ERR_NOT_INIT);
 1769              		.loc 1 193 5 discriminator 5 view .LVU506
 193:../Switch/core/yt/yt_port.c ****     CMM_PARAM_CHK((!(YT_DISPATCH(unit)->is_inited)), CMM_ERR_NOT_INIT);
 1770              		.loc 1 193 5 discriminator 5 view .LVU507
 1771 004e 0420     		movs	r0, #4
 1772 0050 52E0     		b	.L168
 1773              	.LVL234:
 1774              	.L189:
 193:../Switch/core/yt/yt_port.c ****     CMM_PARAM_CHK((!(YT_DISPATCH(unit)->is_inited)), CMM_ERR_NOT_INIT);
 1775              		.loc 1 193 5 discriminator 3 view .LVU508
 1776              	.LBB36:
 193:../Switch/core/yt/yt_port.c ****     CMM_PARAM_CHK((!(YT_DISPATCH(unit)->is_inited)), CMM_ERR_NOT_INIT);
 1777              		.loc 1 193 5 discriminator 3 view .LVU509
 1778 0052 2E4B     		ldr	r3, .L194+8
 1779 0054 1A69     		ldr	r2, [r3, #16]
 1780 0056 2E4B     		ldr	r3, .L194+12
 1781 0058 9968     		ldr	r1, [r3, #8]
 1782 005a 2E48     		ldr	r0, .L194+16
 1783              	.LVL235:
 193:../Switch/core/yt/yt_port.c ****     CMM_PARAM_CHK((!(YT_DISPATCH(unit)->is_inited)), CMM_ERR_NOT_INIT);
 1784              		.loc 1 193 5 is_stmt 0 discriminator 3 view .LVU510
 1785 005c FFF7FEFF 		bl	osal_printf
 1786              	.LVL236:
 1787 0060 F5E7     		b	.L173
 1788              	.LVL237:
 1789              	.L186:
 193:../Switch/core/yt/yt_port.c ****     CMM_PARAM_CHK((!(YT_DISPATCH(unit)->is_inited)), CMM_ERR_NOT_INIT);
 1790              		.loc 1 193 5 discriminator 3 view .LVU511
 1791              	.LBE36:
 194:../Switch/core/yt/yt_port.c ****     CMM_PARAM_CHK((YT_ENABLE < cascade_info.en || YT_DISABLE > cascade_info.en), CMM_ERR_INPUT);
 1792              		.loc 1 194 5 is_stmt 1 discriminator 1 view .LVU512
 194:../Switch/core/yt/yt_port.c ****     CMM_PARAM_CHK((YT_ENABLE < cascade_info.en || YT_DISABLE > cascade_info.en), CMM_ERR_INPUT);
 1793              		.loc 1 194 5 discriminator 1 view .LVU513
 1794 0062 294B     		ldr	r3, .L194+4
 1795 0064 1B78     		ldrb	r3, [r3]	@ zero_extendqisi2
 1796 0066 012B     		cmp	r3, #1
 1797 0068 01D8     		bhi	.L190
 1798              	.LVL238:
 1799              	.L175:
 194:../Switch/core/yt/yt_port.c ****     CMM_PARAM_CHK((YT_ENABLE < cascade_info.en || YT_DISABLE > cascade_info.en), CMM_ERR_INPUT);
 1800              		.loc 1 194 5 discriminator 5 view .LVU514
 194:../Switch/core/yt/yt_port.c ****     CMM_PARAM_CHK((YT_ENABLE < cascade_info.en || YT_DISABLE > cascade_info.en), CMM_ERR_INPUT);
 1801              		.loc 1 194 5 discriminator 5 view .LVU515
 194:../Switch/core/yt/yt_port.c ****     CMM_PARAM_CHK((YT_ENABLE < cascade_info.en || YT_DISABLE > cascade_info.en), CMM_ERR_INPUT);
 1802              		.loc 1 194 5 discriminator 5 view .LVU516
 1803 006a 0420     		movs	r0, #4
 1804 006c 44E0     		b	.L168
 1805              	.LVL239:
 1806              	.L190:
 194:../Switch/core/yt/yt_port.c ****     CMM_PARAM_CHK((YT_ENABLE < cascade_info.en || YT_DISABLE > cascade_info.en), CMM_ERR_INPUT);
 1807              		.loc 1 194 5 discriminator 3 view .LVU517
 1808              	.LBB37:
 194:../Switch/core/yt/yt_port.c ****     CMM_PARAM_CHK((YT_ENABLE < cascade_info.en || YT_DISABLE > cascade_info.en), CMM_ERR_INPUT);
 1809              		.loc 1 194 5 discriminator 3 view .LVU518
 1810 006e 274B     		ldr	r3, .L194+8
 1811 0070 1A69     		ldr	r2, [r3, #16]
 1812 0072 274B     		ldr	r3, .L194+12
 1813 0074 9968     		ldr	r1, [r3, #8]
 1814 0076 2748     		ldr	r0, .L194+16
 1815              	.LVL240:
 194:../Switch/core/yt/yt_port.c ****     CMM_PARAM_CHK((YT_ENABLE < cascade_info.en || YT_DISABLE > cascade_info.en), CMM_ERR_INPUT);
 1816              		.loc 1 194 5 is_stmt 0 discriminator 3 view .LVU519
 1817 0078 FFF7FEFF 		bl	osal_printf
 1818              	.LVL241:
 1819 007c F5E7     		b	.L175
 1820              	.LVL242:
 1821              	.L187:
 194:../Switch/core/yt/yt_port.c ****     CMM_PARAM_CHK((YT_ENABLE < cascade_info.en || YT_DISABLE > cascade_info.en), CMM_ERR_INPUT);
 1822              		.loc 1 194 5 discriminator 3 view .LVU520
 1823              	.LBE37:
 195:../Switch/core/yt/yt_port.c ****     for (i = 0; i < YT_MAX_CASCADE_PORT_NUM; i++)
 1824              		.loc 1 195 5 is_stmt 1 discriminator 1 view .LVU521
 195:../Switch/core/yt/yt_port.c ****     for (i = 0; i < YT_MAX_CASCADE_PORT_NUM; i++)
 1825              		.loc 1 195 5 discriminator 1 view .LVU522
 1826 007e 224B     		ldr	r3, .L194+4
 1827 0080 1B78     		ldrb	r3, [r3]	@ zero_extendqisi2
 1828 0082 012B     		cmp	r3, #1
 1829 0084 01D8     		bhi	.L191
 1830              	.LVL243:
 1831              	.L177:
 195:../Switch/core/yt/yt_port.c ****     for (i = 0; i < YT_MAX_CASCADE_PORT_NUM; i++)
 1832              		.loc 1 195 5 discriminator 5 view .LVU523
 195:../Switch/core/yt/yt_port.c ****     for (i = 0; i < YT_MAX_CASCADE_PORT_NUM; i++)
 1833              		.loc 1 195 5 discriminator 5 view .LVU524
 195:../Switch/core/yt/yt_port.c ****     for (i = 0; i < YT_MAX_CASCADE_PORT_NUM; i++)
 1834              		.loc 1 195 5 discriminator 5 view .LVU525
 1835 0086 0520     		movs	r0, #5
 1836 0088 36E0     		b	.L168
 1837              	.LVL244:
 1838              	.L191:
 195:../Switch/core/yt/yt_port.c ****     for (i = 0; i < YT_MAX_CASCADE_PORT_NUM; i++)
 1839              		.loc 1 195 5 discriminator 3 view .LVU526
 1840              	.LBB38:
 195:../Switch/core/yt/yt_port.c ****     for (i = 0; i < YT_MAX_CASCADE_PORT_NUM; i++)
 1841              		.loc 1 195 5 discriminator 3 view .LVU527
 1842 008a 204B     		ldr	r3, .L194+8
 1843 008c 5A69     		ldr	r2, [r3, #20]
 1844 008e 204B     		ldr	r3, .L194+12
 1845 0090 9968     		ldr	r1, [r3, #8]
 1846 0092 2048     		ldr	r0, .L194+16
 1847              	.LVL245:
 195:../Switch/core/yt/yt_port.c ****     for (i = 0; i < YT_MAX_CASCADE_PORT_NUM; i++)
 1848              		.loc 1 195 5 is_stmt 0 discriminator 3 view .LVU528
 1849 0094 FFF7FEFF 		bl	osal_printf
 1850              	.LVL246:
 1851 0098 F5E7     		b	.L177
 1852              	.LVL247:
 1853              	.L193:
 195:../Switch/core/yt/yt_port.c ****     for (i = 0; i < YT_MAX_CASCADE_PORT_NUM; i++)
 1854              		.loc 1 195 5 discriminator 3 view .LVU529
 1855              	.LBE38:
 197:../Switch/core/yt/yt_port.c ****     {
 198:../Switch/core/yt/yt_port.c ****         if (cascade_info.ports[i].valid)
 199:../Switch/core/yt/yt_port.c ****             CMM_PARAM_CHK((!(CMM_PORT_VALID(unit, cascade_info.ports[i].port_num))), CMM_ERR_PORT);
 1856              		.loc 1 199 13 is_stmt 1 discriminator 5 view .LVU530
 1857              	.LBB39:
 1858              		.loc 1 199 13 discriminator 5 view .LVU531
 1859 009a 1C4B     		ldr	r3, .L194+8
 1860 009c 9A6B     		ldr	r2, [r3, #56]
 1861 009e 1C4B     		ldr	r3, .L194+12
 1862 00a0 9968     		ldr	r1, [r3, #8]
 1863 00a2 1C48     		ldr	r0, .L194+16
 1864 00a4 FFF7FEFF 		bl	osal_printf
 1865              	.LVL248:
 1866 00a8 19E0     		b	.L180
 1867              	.LVL249:
 1868              	.L178:
 1869              		.loc 1 199 13 is_stmt 0 discriminator 5 view .LVU532
 1870              	.LBE39:
 1871              		.loc 1 199 13 is_stmt 1 discriminator 4 view .LVU533
 196:../Switch/core/yt/yt_port.c ****     {
 1872              		.loc 1 196 47 discriminator 4 view .LVU534
 1873 00aa 0133     		adds	r3, r3, #1
 1874              	.LVL250:
 1875              	.L176:
 196:../Switch/core/yt/yt_port.c ****     {
 1876              		.loc 1 196 19 discriminator 2 view .LVU535
 1877 00ac 012B     		cmp	r3, #1
 1878 00ae 18D8     		bhi	.L192
 198:../Switch/core/yt/yt_port.c ****             CMM_PARAM_CHK((!(CMM_PORT_VALID(unit, cascade_info.ports[i].port_num))), CMM_ERR_PORT);
 1879              		.loc 1 198 9 view .LVU536
 198:../Switch/core/yt/yt_port.c ****             CMM_PARAM_CHK((!(CMM_PORT_VALID(unit, cascade_info.ports[i].port_num))), CMM_ERR_PORT);
 1880              		.loc 1 198 34 is_stmt 0 view .LVU537
 1881 00b0 04A9     		add	r1, sp, #16
 1882 00b2 01EBC301 		add	r1, r1, r3, lsl #3
 1883 00b6 097A     		ldrb	r1, [r1, #8]	@ zero_extendqisi2
 198:../Switch/core/yt/yt_port.c ****             CMM_PARAM_CHK((!(CMM_PORT_VALID(unit, cascade_info.ports[i].port_num))), CMM_ERR_PORT);
 1884              		.loc 1 198 12 view .LVU538
 1885 00b8 0029     		cmp	r1, #0
 1886 00ba F6D0     		beq	.L178
 1887              		.loc 1 199 13 is_stmt 1 view .LVU539
 1888              		.loc 1 199 13 view .LVU540
 1889 00bc 1649     		ldr	r1, .L194+20
 1890 00be 0978     		ldrb	r1, [r1]	@ zero_extendqisi2
 1891 00c0 49B1     		cbz	r1, .L179
 1892              		.loc 1 199 13 is_stmt 0 discriminator 2 view .LVU541
 1893 00c2 04A9     		add	r1, sp, #16
 1894 00c4 01EBC301 		add	r1, r1, r3, lsl #3
 1895 00c8 C868     		ldr	r0, [r1, #12]
 1896 00ca 1449     		ldr	r1, .L194+24
 1897 00cc 51F82C10 		ldr	r1, [r1, ip, lsl #2]
 1898 00d0 097D     		ldrb	r1, [r1, #20]	@ zero_extendqisi2
 1899 00d2 8842     		cmp	r0, r1
 1900 00d4 E9D3     		bcc	.L178
 1901              	.L179:
 1902              		.loc 1 199 13 is_stmt 1 discriminator 3 view .LVU542
 1903              		.loc 1 199 13 discriminator 3 view .LVU543
 1904 00d6 0C4B     		ldr	r3, .L194+4
 1905              	.LVL251:
 1906              		.loc 1 199 13 is_stmt 0 discriminator 3 view .LVU544
 1907 00d8 1B78     		ldrb	r3, [r3]	@ zero_extendqisi2
 1908 00da 012B     		cmp	r3, #1
 1909 00dc DDD8     		bhi	.L193
 1910              	.L180:
 1911              		.loc 1 199 13 is_stmt 1 discriminator 7 view .LVU545
 1912              		.loc 1 199 13 discriminator 7 view .LVU546
 1913              		.loc 1 199 13 discriminator 7 view .LVU547
 1914 00de 0E20     		movs	r0, #14
 1915 00e0 0AE0     		b	.L168
 1916              	.LVL252:
 1917              	.L192:
 200:../Switch/core/yt/yt_port.c ****     }
 201:../Switch/core/yt/yt_port.c **** 
 202:../Switch/core/yt/yt_port.c ****     return YT_DISPATCH(unit)->port_cascade_set(unit, cascade_info);
 1918              		.loc 1 202 5 view .LVU548
 1919              		.loc 1 202 29 is_stmt 0 view .LVU549
 1920 00e2 D2F86C45 		ldr	r4, [r2, #1388]
 1921              		.loc 1 202 12 view .LVU550
 1922 00e6 08AB     		add	r3, sp, #32
 1923              	.LVL253:
 1924              		.loc 1 202 12 view .LVU551
 1925 00e8 93E80300 		ldm	r3, {r0, r1}
 1926 00ec 8DE80300 		stm	sp, {r0, r1}
 1927 00f0 05AB     		add	r3, sp, #20
 1928 00f2 0ECB     		ldm	r3, {r1, r2, r3}
 1929 00f4 6046     		mov	r0, ip
 1930 00f6 A047     		blx	r4
 1931              	.LVL254:
 1932              	.L168:
 203:../Switch/core/yt/yt_port.c **** }
 1933              		.loc 1 203 1 view .LVU552
 1934 00f8 02B0     		add	sp, sp, #8
 1935              		.cfi_def_cfa_offset 24
 1936              		@ sp needed
 1937 00fa BDE81040 		pop	{r4, lr}
 1938              		.cfi_restore 14
 1939              		.cfi_restore 4
 1940              		.cfi_def_cfa_offset 16
 1941 00fe 04B0     		add	sp, sp, #16
 1942              		.cfi_def_cfa_offset 0
 1943 0100 7047     		bx	lr
 1944              	.L195:
 1945 0102 00BF     		.align	2
 1946              	.L194:
 1947 0104 00000000 		.word	gpfal_dispatch
 1948 0108 00000000 		.word	yt_debug_level
 1949 010c 00000000 		.word	_yt_errmsg
 1950 0110 00000000 		.word	_yt_prompt_msg
 1951 0114 00000000 		.word	.LC0
 1952 0118 00000000 		.word	gcal_inited
 1953 011c 00000000 		.word	gpSwitchUnit
 1954              		.cfi_endproc
 1955              	.LFE10:
 1957              		.section	.text.yt_port_cascade_get,"ax",%progbits
 1958              		.align	1
 1959              		.global	yt_port_cascade_get
 1960              		.syntax unified
 1961              		.thumb
 1962              		.thumb_func
 1964              	yt_port_cascade_get:
 1965              	.LVL255:
 1966              	.LFB11:
 204:../Switch/core/yt/yt_port.c **** 
 205:../Switch/core/yt/yt_port.c **** /**
 206:../Switch/core/yt/yt_port.c ****  * @internal      yt_port_cascade_get
 207:../Switch/core/yt/yt_port.c ****  * @endinternal
 208:../Switch/core/yt/yt_port.c ****  *
 209:../Switch/core/yt/yt_port.c ****  * @brief         Description
 210:../Switch/core/yt/yt_port.c ****  * @note          APPLICABLE DEVICES  -Tiger
 211:../Switch/core/yt/yt_port.c ****  * @param[in]     unit                -unit id
 212:../Switch/core/yt/yt_port.c ****  * @param[out]    pCascade_info       -cascade enable status and ports configure information
 213:../Switch/core/yt/yt_port.c ****  * @retval        CMM_ERR_OK          -on success
 214:../Switch/core/yt/yt_port.c ****  * @retval        CMM_ERR_FAIL        -on fail
 215:../Switch/core/yt/yt_port.c ****  */
 216:../Switch/core/yt/yt_port.c **** yt_ret_t yt_port_cascade_get(yt_unit_t unit, yt_cascade_info_t *pCascade_info)
 217:../Switch/core/yt/yt_port.c **** {
 1967              		.loc 1 217 1 is_stmt 1 view -0
 1968              		.cfi_startproc
 1969              		@ args = 0, pretend = 0, frame = 0
 1970              		@ frame_needed = 0, uses_anonymous_args = 0
 1971              		.loc 1 217 1 is_stmt 0 view .LVU554
 1972 0000 08B5     		push	{r3, lr}
 1973              		.cfi_def_cfa_offset 8
 1974              		.cfi_offset 3, -8
 1975              		.cfi_offset 14, -4
 218:../Switch/core/yt/yt_port.c ****     CMM_PARAM_CHK((YT_UNIT_NUM <= unit), CMM_ERR_INPUT);
 1976              		.loc 1 218 5 is_stmt 1 view .LVU555
 1977              		.loc 1 218 5 view .LVU556
 1978 0002 68B9     		cbnz	r0, .L207
 1979 0004 0246     		mov	r2, r0
 1980              		.loc 1 218 5 discriminator 2 view .LVU557
 219:../Switch/core/yt/yt_port.c ****     CMM_PARAM_CHK(NULL == YT_DISPATCH(unit), CMM_ERR_NOT_INIT);
 1981              		.loc 1 219 5 discriminator 2 view .LVU558
 1982              		.loc 1 219 5 discriminator 2 view .LVU559
 1983 0006 224B     		ldr	r3, .L215
 1984 0008 53F82030 		ldr	r3, [r3, r0, lsl #2]
 1985 000c B3B1     		cbz	r3, .L208
 1986              		.loc 1 219 5 discriminator 2 view .LVU560
 220:../Switch/core/yt/yt_port.c ****     CMM_PARAM_CHK((!(YT_DISPATCH(unit)->is_inited)), CMM_ERR_NOT_INIT);
 1987              		.loc 1 220 5 discriminator 2 view .LVU561
 1988              		.loc 1 220 5 discriminator 2 view .LVU562
 1989 000e 1878     		ldrb	r0, [r3]	@ zero_extendqisi2
 1990              	.LVL256:
 1991              		.loc 1 220 5 is_stmt 0 discriminator 2 view .LVU563
 1992 0010 10B3     		cbz	r0, .L209
 1993              		.loc 1 220 5 is_stmt 1 discriminator 2 view .LVU564
 221:../Switch/core/yt/yt_port.c ****     CMM_PARAM_CHK((NULL == pCascade_info), CMM_ERR_NULL_POINT);
 1994              		.loc 1 221 5 discriminator 2 view .LVU565
 1995              		.loc 1 221 5 discriminator 2 view .LVU566
 1996 0012 0029     		cmp	r1, #0
 1997 0014 2ED0     		beq	.L210
 1998              		.loc 1 221 5 discriminator 2 view .LVU567
 222:../Switch/core/yt/yt_port.c **** 
 223:../Switch/core/yt/yt_port.c ****     return YT_DISPATCH(unit)->port_cascade_get(unit, pCascade_info);
 1999              		.loc 1 223 5 discriminator 2 view .LVU568
 2000              		.loc 1 223 29 is_stmt 0 discriminator 2 view .LVU569
 2001 0016 D3F87035 		ldr	r3, [r3, #1392]
 2002              		.loc 1 223 12 discriminator 2 view .LVU570
 2003 001a 1046     		mov	r0, r2
 2004 001c 9847     		blx	r3
 2005              	.LVL257:
 2006              	.L196:
 224:../Switch/core/yt/yt_port.c **** }
 2007              		.loc 1 224 1 view .LVU571
 2008 001e 08BD     		pop	{r3, pc}
 2009              	.LVL258:
 2010              	.L207:
 218:../Switch/core/yt/yt_port.c ****     CMM_PARAM_CHK(NULL == YT_DISPATCH(unit), CMM_ERR_NOT_INIT);
 2011              		.loc 1 218 5 is_stmt 1 discriminator 1 view .LVU572
 218:../Switch/core/yt/yt_port.c ****     CMM_PARAM_CHK(NULL == YT_DISPATCH(unit), CMM_ERR_NOT_INIT);
 2012              		.loc 1 218 5 discriminator 1 view .LVU573
 2013 0020 1C4B     		ldr	r3, .L215+4
 2014 0022 1B78     		ldrb	r3, [r3]	@ zero_extendqisi2
 2015 0024 012B     		cmp	r3, #1
 2016 0026 01D8     		bhi	.L211
 2017              	.LVL259:
 2018              	.L198:
 218:../Switch/core/yt/yt_port.c ****     CMM_PARAM_CHK(NULL == YT_DISPATCH(unit), CMM_ERR_NOT_INIT);
 2019              		.loc 1 218 5 discriminator 5 view .LVU574
 218:../Switch/core/yt/yt_port.c ****     CMM_PARAM_CHK(NULL == YT_DISPATCH(unit), CMM_ERR_NOT_INIT);
 2020              		.loc 1 218 5 discriminator 5 view .LVU575
 218:../Switch/core/yt/yt_port.c ****     CMM_PARAM_CHK(NULL == YT_DISPATCH(unit), CMM_ERR_NOT_INIT);
 2021              		.loc 1 218 5 discriminator 5 view .LVU576
 2022 0028 0520     		movs	r0, #5
 2023 002a F8E7     		b	.L196
 2024              	.LVL260:
 2025              	.L211:
 218:../Switch/core/yt/yt_port.c ****     CMM_PARAM_CHK(NULL == YT_DISPATCH(unit), CMM_ERR_NOT_INIT);
 2026              		.loc 1 218 5 discriminator 3 view .LVU577
 2027              	.LBB40:
 218:../Switch/core/yt/yt_port.c ****     CMM_PARAM_CHK(NULL == YT_DISPATCH(unit), CMM_ERR_NOT_INIT);
 2028              		.loc 1 218 5 discriminator 3 view .LVU578
 2029 002c 1A4B     		ldr	r3, .L215+8
 2030 002e 5A69     		ldr	r2, [r3, #20]
 2031 0030 1A4B     		ldr	r3, .L215+12
 2032 0032 9968     		ldr	r1, [r3, #8]
 2033              	.LVL261:
 218:../Switch/core/yt/yt_port.c ****     CMM_PARAM_CHK(NULL == YT_DISPATCH(unit), CMM_ERR_NOT_INIT);
 2034              		.loc 1 218 5 is_stmt 0 discriminator 3 view .LVU579
 2035 0034 1A48     		ldr	r0, .L215+16
 2036              	.LVL262:
 218:../Switch/core/yt/yt_port.c ****     CMM_PARAM_CHK(NULL == YT_DISPATCH(unit), CMM_ERR_NOT_INIT);
 2037              		.loc 1 218 5 discriminator 3 view .LVU580
 2038 0036 FFF7FEFF 		bl	osal_printf
 2039              	.LVL263:
 2040 003a F5E7     		b	.L198
 2041              	.LVL264:
 2042              	.L208:
 218:../Switch/core/yt/yt_port.c ****     CMM_PARAM_CHK(NULL == YT_DISPATCH(unit), CMM_ERR_NOT_INIT);
 2043              		.loc 1 218 5 discriminator 3 view .LVU581
 2044              	.LBE40:
 219:../Switch/core/yt/yt_port.c ****     CMM_PARAM_CHK((!(YT_DISPATCH(unit)->is_inited)), CMM_ERR_NOT_INIT);
 2045              		.loc 1 219 5 is_stmt 1 discriminator 1 view .LVU582
 219:../Switch/core/yt/yt_port.c ****     CMM_PARAM_CHK((!(YT_DISPATCH(unit)->is_inited)), CMM_ERR_NOT_INIT);
 2046              		.loc 1 219 5 discriminator 1 view .LVU583
 2047 003c 154B     		ldr	r3, .L215+4
 2048 003e 1B78     		ldrb	r3, [r3]	@ zero_extendqisi2
 2049 0040 012B     		cmp	r3, #1
 2050 0042 01D8     		bhi	.L212
 2051              	.LVL265:
 2052              	.L201:
 219:../Switch/core/yt/yt_port.c ****     CMM_PARAM_CHK((!(YT_DISPATCH(unit)->is_inited)), CMM_ERR_NOT_INIT);
 2053              		.loc 1 219 5 discriminator 5 view .LVU584
 219:../Switch/core/yt/yt_port.c ****     CMM_PARAM_CHK((!(YT_DISPATCH(unit)->is_inited)), CMM_ERR_NOT_INIT);
 2054              		.loc 1 219 5 discriminator 5 view .LVU585
 219:../Switch/core/yt/yt_port.c ****     CMM_PARAM_CHK((!(YT_DISPATCH(unit)->is_inited)), CMM_ERR_NOT_INIT);
 2055              		.loc 1 219 5 discriminator 5 view .LVU586
 2056 0044 0420     		movs	r0, #4
 2057 0046 EAE7     		b	.L196
 2058              	.LVL266:
 2059              	.L212:
 219:../Switch/core/yt/yt_port.c ****     CMM_PARAM_CHK((!(YT_DISPATCH(unit)->is_inited)), CMM_ERR_NOT_INIT);
 2060              		.loc 1 219 5 discriminator 3 view .LVU587
 2061              	.LBB41:
 219:../Switch/core/yt/yt_port.c ****     CMM_PARAM_CHK((!(YT_DISPATCH(unit)->is_inited)), CMM_ERR_NOT_INIT);
 2062              		.loc 1 219 5 discriminator 3 view .LVU588
 2063 0048 134B     		ldr	r3, .L215+8
 2064 004a 1A69     		ldr	r2, [r3, #16]
 2065 004c 134B     		ldr	r3, .L215+12
 2066 004e 9968     		ldr	r1, [r3, #8]
 2067              	.LVL267:
 219:../Switch/core/yt/yt_port.c ****     CMM_PARAM_CHK((!(YT_DISPATCH(unit)->is_inited)), CMM_ERR_NOT_INIT);
 2068              		.loc 1 219 5 is_stmt 0 discriminator 3 view .LVU589
 2069 0050 1348     		ldr	r0, .L215+16
 2070              	.LVL268:
 219:../Switch/core/yt/yt_port.c ****     CMM_PARAM_CHK((!(YT_DISPATCH(unit)->is_inited)), CMM_ERR_NOT_INIT);
 2071              		.loc 1 219 5 discriminator 3 view .LVU590
 2072 0052 FFF7FEFF 		bl	osal_printf
 2073              	.LVL269:
 2074 0056 F5E7     		b	.L201
 2075              	.LVL270:
 2076              	.L209:
 219:../Switch/core/yt/yt_port.c ****     CMM_PARAM_CHK((!(YT_DISPATCH(unit)->is_inited)), CMM_ERR_NOT_INIT);
 2077              		.loc 1 219 5 discriminator 3 view .LVU591
 2078              	.LBE41:
 220:../Switch/core/yt/yt_port.c ****     CMM_PARAM_CHK((NULL == pCascade_info), CMM_ERR_NULL_POINT);
 2079              		.loc 1 220 5 is_stmt 1 discriminator 1 view .LVU592
 220:../Switch/core/yt/yt_port.c ****     CMM_PARAM_CHK((NULL == pCascade_info), CMM_ERR_NULL_POINT);
 2080              		.loc 1 220 5 discriminator 1 view .LVU593
 2081 0058 0E4B     		ldr	r3, .L215+4
 2082 005a 1B78     		ldrb	r3, [r3]	@ zero_extendqisi2
 2083 005c 012B     		cmp	r3, #1
 2084 005e 01D8     		bhi	.L213
 2085              	.LVL271:
 2086              	.L203:
 220:../Switch/core/yt/yt_port.c ****     CMM_PARAM_CHK((NULL == pCascade_info), CMM_ERR_NULL_POINT);
 2087              		.loc 1 220 5 discriminator 5 view .LVU594
 220:../Switch/core/yt/yt_port.c ****     CMM_PARAM_CHK((NULL == pCascade_info), CMM_ERR_NULL_POINT);
 2088              		.loc 1 220 5 discriminator 5 view .LVU595
 220:../Switch/core/yt/yt_port.c ****     CMM_PARAM_CHK((NULL == pCascade_info), CMM_ERR_NULL_POINT);
 2089              		.loc 1 220 5 discriminator 5 view .LVU596
 2090 0060 0420     		movs	r0, #4
 2091 0062 DCE7     		b	.L196
 2092              	.LVL272:
 2093              	.L213:
 220:../Switch/core/yt/yt_port.c ****     CMM_PARAM_CHK((NULL == pCascade_info), CMM_ERR_NULL_POINT);
 2094              		.loc 1 220 5 discriminator 3 view .LVU597
 2095              	.LBB42:
 220:../Switch/core/yt/yt_port.c ****     CMM_PARAM_CHK((NULL == pCascade_info), CMM_ERR_NULL_POINT);
 2096              		.loc 1 220 5 discriminator 3 view .LVU598
 2097 0064 0C4B     		ldr	r3, .L215+8
 2098 0066 1A69     		ldr	r2, [r3, #16]
 2099 0068 0C4B     		ldr	r3, .L215+12
 2100 006a 9968     		ldr	r1, [r3, #8]
 2101              	.LVL273:
 220:../Switch/core/yt/yt_port.c ****     CMM_PARAM_CHK((NULL == pCascade_info), CMM_ERR_NULL_POINT);
 2102              		.loc 1 220 5 is_stmt 0 discriminator 3 view .LVU599
 2103 006c 0C48     		ldr	r0, .L215+16
 2104 006e FFF7FEFF 		bl	osal_printf
 2105              	.LVL274:
 2106 0072 F5E7     		b	.L203
 2107              	.LVL275:
 2108              	.L210:
 220:../Switch/core/yt/yt_port.c ****     CMM_PARAM_CHK((NULL == pCascade_info), CMM_ERR_NULL_POINT);
 2109              		.loc 1 220 5 discriminator 3 view .LVU600
 2110              	.LBE42:
 221:../Switch/core/yt/yt_port.c **** 
 2111              		.loc 1 221 5 is_stmt 1 discriminator 1 view .LVU601
 221:../Switch/core/yt/yt_port.c **** 
 2112              		.loc 1 221 5 discriminator 1 view .LVU602
 2113 0074 074B     		ldr	r3, .L215+4
 2114 0076 1B78     		ldrb	r3, [r3]	@ zero_extendqisi2
 2115 0078 012B     		cmp	r3, #1
 2116 007a 01D8     		bhi	.L214
 2117              	.LVL276:
 2118              	.L205:
 221:../Switch/core/yt/yt_port.c **** 
 2119              		.loc 1 221 5 discriminator 5 view .LVU603
 221:../Switch/core/yt/yt_port.c **** 
 2120              		.loc 1 221 5 discriminator 5 view .LVU604
 221:../Switch/core/yt/yt_port.c **** 
 2121              		.loc 1 221 5 discriminator 5 view .LVU605
 2122 007c 0220     		movs	r0, #2
 2123 007e CEE7     		b	.L196
 2124              	.LVL277:
 2125              	.L214:
 221:../Switch/core/yt/yt_port.c **** 
 2126              		.loc 1 221 5 discriminator 3 view .LVU606
 2127              	.LBB43:
 221:../Switch/core/yt/yt_port.c **** 
 2128              		.loc 1 221 5 discriminator 3 view .LVU607
 2129 0080 054B     		ldr	r3, .L215+8
 2130 0082 9A68     		ldr	r2, [r3, #8]
 2131 0084 054B     		ldr	r3, .L215+12
 2132 0086 9968     		ldr	r1, [r3, #8]
 2133              	.LVL278:
 221:../Switch/core/yt/yt_port.c **** 
 2134              		.loc 1 221 5 is_stmt 0 discriminator 3 view .LVU608
 2135 0088 0548     		ldr	r0, .L215+16
 2136 008a FFF7FEFF 		bl	osal_printf
 2137              	.LVL279:
 2138 008e F5E7     		b	.L205
 2139              	.L216:
 2140              		.align	2
 2141              	.L215:
 2142 0090 00000000 		.word	gpfal_dispatch
 2143 0094 00000000 		.word	yt_debug_level
 2144 0098 00000000 		.word	_yt_errmsg
 2145 009c 00000000 		.word	_yt_prompt_msg
 2146 00a0 00000000 		.word	.LC0
 2147              	.LBE43:
 2148              		.cfi_endproc
 2149              	.LFE11:
 2151              		.section	.text.yt_port_pkt_gap_set,"ax",%progbits
 2152              		.align	1
 2153              		.global	yt_port_pkt_gap_set
 2154              		.syntax unified
 2155              		.thumb
 2156              		.thumb_func
 2158              	yt_port_pkt_gap_set:
 2159              	.LVL280:
 2160              	.LFB12:
 225:../Switch/core/yt/yt_port.c **** 
 226:../Switch/core/yt/yt_port.c **** /**
 227:../Switch/core/yt/yt_port.c ****  * @internal      yt_port_pkt_gap_set
 228:../Switch/core/yt/yt_port.c ****  * @endinternal
 229:../Switch/core/yt/yt_port.c ****  *
 230:../Switch/core/yt/yt_port.c ****  * @brief         Description
 231:../Switch/core/yt/yt_port.c ****  * @note          APPLICABLE DEVICES  -Tiger
 232:../Switch/core/yt/yt_port.c ****  * @param[in]     unit                -unit id
 233:../Switch/core/yt/yt_port.c ****  * @param[in]     port                -port num
 234:../Switch/core/yt/yt_port.c ****  * @param[in]     gap                 -x
 235:../Switch/core/yt/yt_port.c ****  * @retval        CMM_ERR_OK          -on success
 236:../Switch/core/yt/yt_port.c ****  * @retval        CMM_ERR_FAIL        -on fail
 237:../Switch/core/yt/yt_port.c ****  */
 238:../Switch/core/yt/yt_port.c **** yt_ret_t yt_port_pkt_gap_set(yt_unit_t unit, yt_port_t port, uint8_t gap)
 239:../Switch/core/yt/yt_port.c **** {
 2161              		.loc 1 239 1 is_stmt 1 view -0
 2162              		.cfi_startproc
 2163              		@ args = 0, pretend = 0, frame = 0
 2164              		@ frame_needed = 0, uses_anonymous_args = 0
 2165              		.loc 1 239 1 is_stmt 0 view .LVU610
 2166 0000 08B5     		push	{r3, lr}
 2167              		.cfi_def_cfa_offset 8
 2168              		.cfi_offset 3, -8
 2169              		.cfi_offset 14, -4
 240:../Switch/core/yt/yt_port.c ****     CMM_PARAM_CHK((YT_UNIT_NUM <= unit), CMM_ERR_INPUT);
 2170              		.loc 1 240 5 is_stmt 1 view .LVU611
 2171              		.loc 1 240 5 view .LVU612
 2172 0002 A8B9     		cbnz	r0, .L229
 2173 0004 8446     		mov	ip, r0
 2174              		.loc 1 240 5 discriminator 2 view .LVU613
 241:../Switch/core/yt/yt_port.c ****     CMM_PARAM_CHK(NULL == YT_DISPATCH(unit), CMM_ERR_NOT_INIT);
 2175              		.loc 1 241 5 discriminator 2 view .LVU614
 2176              		.loc 1 241 5 discriminator 2 view .LVU615
 2177 0006 264B     		ldr	r3, .L236
 2178 0008 53F82030 		ldr	r3, [r3, r0, lsl #2]
 2179 000c F3B1     		cbz	r3, .L230
 2180              		.loc 1 241 5 discriminator 2 view .LVU616
 242:../Switch/core/yt/yt_port.c ****     CMM_PARAM_CHK((!(YT_DISPATCH(unit)->is_inited)), CMM_ERR_NOT_INIT);
 2181              		.loc 1 242 5 discriminator 2 view .LVU617
 2182              		.loc 1 242 5 discriminator 2 view .LVU618
 2183 000e 1878     		ldrb	r0, [r3]	@ zero_extendqisi2
 2184              	.LVL281:
 2185              		.loc 1 242 5 is_stmt 0 discriminator 2 view .LVU619
 2186 0010 50B3     		cbz	r0, .L231
 2187              		.loc 1 242 5 is_stmt 1 discriminator 2 view .LVU620
 243:../Switch/core/yt/yt_port.c ****     CMM_PARAM_CHK((!(CMM_PORT_VALID(unit, port))), CMM_ERR_PORT);
 2188              		.loc 1 243 5 discriminator 2 view .LVU621
 2189              		.loc 1 243 5 discriminator 2 view .LVU622
 2190 0012 2448     		ldr	r0, .L236+4
 2191 0014 0078     		ldrb	r0, [r0]	@ zero_extendqisi2
 2192 0016 0028     		cmp	r0, #0
 2193 0018 34D0     		beq	.L225
 2194 001a 2348     		ldr	r0, .L236+8
 2195 001c 50F82C00 		ldr	r0, [r0, ip, lsl #2]
 2196 0020 007D     		ldrb	r0, [r0, #20]	@ zero_extendqisi2
 2197 0022 8842     		cmp	r0, r1
 2198 0024 2ED9     		bls	.L225
 2199              		.loc 1 243 5 discriminator 4 view .LVU623
 244:../Switch/core/yt/yt_port.c **** 
 245:../Switch/core/yt/yt_port.c ****     return YT_DISPATCH(unit)->port_pkt_gap_set(unit, port, gap);
 2200              		.loc 1 245 5 discriminator 4 view .LVU624
 2201              		.loc 1 245 29 is_stmt 0 discriminator 4 view .LVU625
 2202 0026 D3F87435 		ldr	r3, [r3, #1396]
 2203              		.loc 1 245 12 discriminator 4 view .LVU626
 2204 002a 6046     		mov	r0, ip
 2205 002c 9847     		blx	r3
 2206              	.LVL282:
 2207              	.L217:
 246:../Switch/core/yt/yt_port.c **** }
 2208              		.loc 1 246 1 view .LVU627
 2209 002e 08BD     		pop	{r3, pc}
 2210              	.LVL283:
 2211              	.L229:
 240:../Switch/core/yt/yt_port.c ****     CMM_PARAM_CHK(NULL == YT_DISPATCH(unit), CMM_ERR_NOT_INIT);
 2212              		.loc 1 240 5 is_stmt 1 discriminator 1 view .LVU628
 240:../Switch/core/yt/yt_port.c ****     CMM_PARAM_CHK(NULL == YT_DISPATCH(unit), CMM_ERR_NOT_INIT);
 2213              		.loc 1 240 5 discriminator 1 view .LVU629
 2214 0030 1E4B     		ldr	r3, .L236+12
 2215 0032 1B78     		ldrb	r3, [r3]	@ zero_extendqisi2
 2216 0034 012B     		cmp	r3, #1
 2217 0036 01D8     		bhi	.L232
 2218              	.LVL284:
 2219              	.L219:
 240:../Switch/core/yt/yt_port.c ****     CMM_PARAM_CHK(NULL == YT_DISPATCH(unit), CMM_ERR_NOT_INIT);
 2220              		.loc 1 240 5 discriminator 5 view .LVU630
 240:../Switch/core/yt/yt_port.c ****     CMM_PARAM_CHK(NULL == YT_DISPATCH(unit), CMM_ERR_NOT_INIT);
 2221              		.loc 1 240 5 discriminator 5 view .LVU631
 240:../Switch/core/yt/yt_port.c ****     CMM_PARAM_CHK(NULL == YT_DISPATCH(unit), CMM_ERR_NOT_INIT);
 2222              		.loc 1 240 5 discriminator 5 view .LVU632
 2223 0038 0520     		movs	r0, #5
 2224 003a F8E7     		b	.L217
 2225              	.LVL285:
 2226              	.L232:
 240:../Switch/core/yt/yt_port.c ****     CMM_PARAM_CHK(NULL == YT_DISPATCH(unit), CMM_ERR_NOT_INIT);
 2227              		.loc 1 240 5 discriminator 3 view .LVU633
 2228              	.LBB44:
 240:../Switch/core/yt/yt_port.c ****     CMM_PARAM_CHK(NULL == YT_DISPATCH(unit), CMM_ERR_NOT_INIT);
 2229              		.loc 1 240 5 discriminator 3 view .LVU634
 2230 003c 1C4B     		ldr	r3, .L236+16
 2231 003e 5A69     		ldr	r2, [r3, #20]
 2232              	.LVL286:
 240:../Switch/core/yt/yt_port.c ****     CMM_PARAM_CHK(NULL == YT_DISPATCH(unit), CMM_ERR_NOT_INIT);
 2233              		.loc 1 240 5 is_stmt 0 discriminator 3 view .LVU635
 2234 0040 1C4B     		ldr	r3, .L236+20
 2235 0042 9968     		ldr	r1, [r3, #8]
 2236              	.LVL287:
 240:../Switch/core/yt/yt_port.c ****     CMM_PARAM_CHK(NULL == YT_DISPATCH(unit), CMM_ERR_NOT_INIT);
 2237              		.loc 1 240 5 discriminator 3 view .LVU636
 2238 0044 1C48     		ldr	r0, .L236+24
 2239              	.LVL288:
 240:../Switch/core/yt/yt_port.c ****     CMM_PARAM_CHK(NULL == YT_DISPATCH(unit), CMM_ERR_NOT_INIT);
 2240              		.loc 1 240 5 discriminator 3 view .LVU637
 2241 0046 FFF7FEFF 		bl	osal_printf
 2242              	.LVL289:
 2243 004a F5E7     		b	.L219
 2244              	.LVL290:
 2245              	.L230:
 240:../Switch/core/yt/yt_port.c ****     CMM_PARAM_CHK(NULL == YT_DISPATCH(unit), CMM_ERR_NOT_INIT);
 2246              		.loc 1 240 5 discriminator 3 view .LVU638
 2247              	.LBE44:
 241:../Switch/core/yt/yt_port.c ****     CMM_PARAM_CHK((!(YT_DISPATCH(unit)->is_inited)), CMM_ERR_NOT_INIT);
 2248              		.loc 1 241 5 is_stmt 1 discriminator 1 view .LVU639
 241:../Switch/core/yt/yt_port.c ****     CMM_PARAM_CHK((!(YT_DISPATCH(unit)->is_inited)), CMM_ERR_NOT_INIT);
 2249              		.loc 1 241 5 discriminator 1 view .LVU640
 2250 004c 174B     		ldr	r3, .L236+12
 2251 004e 1B78     		ldrb	r3, [r3]	@ zero_extendqisi2
 2252 0050 012B     		cmp	r3, #1
 2253 0052 01D8     		bhi	.L233
 2254              	.LVL291:
 2255              	.L222:
 241:../Switch/core/yt/yt_port.c ****     CMM_PARAM_CHK((!(YT_DISPATCH(unit)->is_inited)), CMM_ERR_NOT_INIT);
 2256              		.loc 1 241 5 discriminator 5 view .LVU641
 241:../Switch/core/yt/yt_port.c ****     CMM_PARAM_CHK((!(YT_DISPATCH(unit)->is_inited)), CMM_ERR_NOT_INIT);
 2257              		.loc 1 241 5 discriminator 5 view .LVU642
 241:../Switch/core/yt/yt_port.c ****     CMM_PARAM_CHK((!(YT_DISPATCH(unit)->is_inited)), CMM_ERR_NOT_INIT);
 2258              		.loc 1 241 5 discriminator 5 view .LVU643
 2259 0054 0420     		movs	r0, #4
 2260 0056 EAE7     		b	.L217
 2261              	.LVL292:
 2262              	.L233:
 241:../Switch/core/yt/yt_port.c ****     CMM_PARAM_CHK((!(YT_DISPATCH(unit)->is_inited)), CMM_ERR_NOT_INIT);
 2263              		.loc 1 241 5 discriminator 3 view .LVU644
 2264              	.LBB45:
 241:../Switch/core/yt/yt_port.c ****     CMM_PARAM_CHK((!(YT_DISPATCH(unit)->is_inited)), CMM_ERR_NOT_INIT);
 2265              		.loc 1 241 5 discriminator 3 view .LVU645
 2266 0058 154B     		ldr	r3, .L236+16
 2267 005a 1A69     		ldr	r2, [r3, #16]
 2268              	.LVL293:
 241:../Switch/core/yt/yt_port.c ****     CMM_PARAM_CHK((!(YT_DISPATCH(unit)->is_inited)), CMM_ERR_NOT_INIT);
 2269              		.loc 1 241 5 is_stmt 0 discriminator 3 view .LVU646
 2270 005c 154B     		ldr	r3, .L236+20
 2271 005e 9968     		ldr	r1, [r3, #8]
 2272              	.LVL294:
 241:../Switch/core/yt/yt_port.c ****     CMM_PARAM_CHK((!(YT_DISPATCH(unit)->is_inited)), CMM_ERR_NOT_INIT);
 2273              		.loc 1 241 5 discriminator 3 view .LVU647
 2274 0060 1548     		ldr	r0, .L236+24
 2275              	.LVL295:
 241:../Switch/core/yt/yt_port.c ****     CMM_PARAM_CHK((!(YT_DISPATCH(unit)->is_inited)), CMM_ERR_NOT_INIT);
 2276              		.loc 1 241 5 discriminator 3 view .LVU648
 2277 0062 FFF7FEFF 		bl	osal_printf
 2278              	.LVL296:
 2279 0066 F5E7     		b	.L222
 2280              	.LVL297:
 2281              	.L231:
 241:../Switch/core/yt/yt_port.c ****     CMM_PARAM_CHK((!(YT_DISPATCH(unit)->is_inited)), CMM_ERR_NOT_INIT);
 2282              		.loc 1 241 5 discriminator 3 view .LVU649
 2283              	.LBE45:
 242:../Switch/core/yt/yt_port.c ****     CMM_PARAM_CHK((!(CMM_PORT_VALID(unit, port))), CMM_ERR_PORT);
 2284              		.loc 1 242 5 is_stmt 1 discriminator 1 view .LVU650
 242:../Switch/core/yt/yt_port.c ****     CMM_PARAM_CHK((!(CMM_PORT_VALID(unit, port))), CMM_ERR_PORT);
 2285              		.loc 1 242 5 discriminator 1 view .LVU651
 2286 0068 104B     		ldr	r3, .L236+12
 2287 006a 1B78     		ldrb	r3, [r3]	@ zero_extendqisi2
 2288 006c 012B     		cmp	r3, #1
 2289 006e 01D8     		bhi	.L234
 2290              	.LVL298:
 2291              	.L224:
 242:../Switch/core/yt/yt_port.c ****     CMM_PARAM_CHK((!(CMM_PORT_VALID(unit, port))), CMM_ERR_PORT);
 2292              		.loc 1 242 5 discriminator 5 view .LVU652
 242:../Switch/core/yt/yt_port.c ****     CMM_PARAM_CHK((!(CMM_PORT_VALID(unit, port))), CMM_ERR_PORT);
 2293              		.loc 1 242 5 discriminator 5 view .LVU653
 242:../Switch/core/yt/yt_port.c ****     CMM_PARAM_CHK((!(CMM_PORT_VALID(unit, port))), CMM_ERR_PORT);
 2294              		.loc 1 242 5 discriminator 5 view .LVU654
 2295 0070 0420     		movs	r0, #4
 2296 0072 DCE7     		b	.L217
 2297              	.LVL299:
 2298              	.L234:
 242:../Switch/core/yt/yt_port.c ****     CMM_PARAM_CHK((!(CMM_PORT_VALID(unit, port))), CMM_ERR_PORT);
 2299              		.loc 1 242 5 discriminator 3 view .LVU655
 2300              	.LBB46:
 242:../Switch/core/yt/yt_port.c ****     CMM_PARAM_CHK((!(CMM_PORT_VALID(unit, port))), CMM_ERR_PORT);
 2301              		.loc 1 242 5 discriminator 3 view .LVU656
 2302 0074 0E4B     		ldr	r3, .L236+16
 2303 0076 1A69     		ldr	r2, [r3, #16]
 2304              	.LVL300:
 242:../Switch/core/yt/yt_port.c ****     CMM_PARAM_CHK((!(CMM_PORT_VALID(unit, port))), CMM_ERR_PORT);
 2305              		.loc 1 242 5 is_stmt 0 discriminator 3 view .LVU657
 2306 0078 0E4B     		ldr	r3, .L236+20
 2307 007a 9968     		ldr	r1, [r3, #8]
 2308              	.LVL301:
 242:../Switch/core/yt/yt_port.c ****     CMM_PARAM_CHK((!(CMM_PORT_VALID(unit, port))), CMM_ERR_PORT);
 2309              		.loc 1 242 5 discriminator 3 view .LVU658
 2310 007c 0E48     		ldr	r0, .L236+24
 2311 007e FFF7FEFF 		bl	osal_printf
 2312              	.LVL302:
 2313 0082 F5E7     		b	.L224
 2314              	.LVL303:
 2315              	.L225:
 242:../Switch/core/yt/yt_port.c ****     CMM_PARAM_CHK((!(CMM_PORT_VALID(unit, port))), CMM_ERR_PORT);
 2316              		.loc 1 242 5 discriminator 3 view .LVU659
 2317              	.LBE46:
 243:../Switch/core/yt/yt_port.c **** 
 2318              		.loc 1 243 5 is_stmt 1 discriminator 3 view .LVU660
 243:../Switch/core/yt/yt_port.c **** 
 2319              		.loc 1 243 5 discriminator 3 view .LVU661
 2320 0084 094B     		ldr	r3, .L236+12
 2321 0086 1B78     		ldrb	r3, [r3]	@ zero_extendqisi2
 2322 0088 012B     		cmp	r3, #1
 2323 008a 01D8     		bhi	.L235
 2324              	.LVL304:
 2325              	.L227:
 243:../Switch/core/yt/yt_port.c **** 
 2326              		.loc 1 243 5 discriminator 7 view .LVU662
 243:../Switch/core/yt/yt_port.c **** 
 2327              		.loc 1 243 5 discriminator 7 view .LVU663
 243:../Switch/core/yt/yt_port.c **** 
 2328              		.loc 1 243 5 discriminator 7 view .LVU664
 2329 008c 0E20     		movs	r0, #14
 2330 008e CEE7     		b	.L217
 2331              	.LVL305:
 2332              	.L235:
 243:../Switch/core/yt/yt_port.c **** 
 2333              		.loc 1 243 5 discriminator 5 view .LVU665
 2334              	.LBB47:
 243:../Switch/core/yt/yt_port.c **** 
 2335              		.loc 1 243 5 discriminator 5 view .LVU666
 2336 0090 074B     		ldr	r3, .L236+16
 2337 0092 9A6B     		ldr	r2, [r3, #56]
 2338              	.LVL306:
 243:../Switch/core/yt/yt_port.c **** 
 2339              		.loc 1 243 5 is_stmt 0 discriminator 5 view .LVU667
 2340 0094 074B     		ldr	r3, .L236+20
 2341 0096 9968     		ldr	r1, [r3, #8]
 2342              	.LVL307:
 243:../Switch/core/yt/yt_port.c **** 
 2343              		.loc 1 243 5 discriminator 5 view .LVU668
 2344 0098 0748     		ldr	r0, .L236+24
 2345 009a FFF7FEFF 		bl	osal_printf
 2346              	.LVL308:
 2347 009e F5E7     		b	.L227
 2348              	.L237:
 2349              		.align	2
 2350              	.L236:
 2351 00a0 00000000 		.word	gpfal_dispatch
 2352 00a4 00000000 		.word	gcal_inited
 2353 00a8 00000000 		.word	gpSwitchUnit
 2354 00ac 00000000 		.word	yt_debug_level
 2355 00b0 00000000 		.word	_yt_errmsg
 2356 00b4 00000000 		.word	_yt_prompt_msg
 2357 00b8 00000000 		.word	.LC0
 2358              	.LBE47:
 2359              		.cfi_endproc
 2360              	.LFE12:
 2362              		.section	.text.yt_port_pkt_gap_get,"ax",%progbits
 2363              		.align	1
 2364              		.global	yt_port_pkt_gap_get
 2365              		.syntax unified
 2366              		.thumb
 2367              		.thumb_func
 2369              	yt_port_pkt_gap_get:
 2370              	.LVL309:
 2371              	.LFB13:
 247:../Switch/core/yt/yt_port.c **** 
 248:../Switch/core/yt/yt_port.c **** /**
 249:../Switch/core/yt/yt_port.c ****  * @internal      yt_port_pkt_gap_get
 250:../Switch/core/yt/yt_port.c ****  * @endinternal
 251:../Switch/core/yt/yt_port.c ****  *
 252:../Switch/core/yt/yt_port.c ****  * @brief         Description
 253:../Switch/core/yt/yt_port.c ****  * @note          APPLICABLE DEVICES  -Tiger
 254:../Switch/core/yt/yt_port.c ****  * @param[in]     unit                -unit id
 255:../Switch/core/yt/yt_port.c ****  * @param[in]     port                -port num
 256:../Switch/core/yt/yt_port.c ****  * @param[out]    pGap                -x
 257:../Switch/core/yt/yt_port.c ****  * @retval        CMM_ERR_OK          -on success
 258:../Switch/core/yt/yt_port.c ****  * @retval        CMM_ERR_FAIL        -on fail
 259:../Switch/core/yt/yt_port.c ****  */
 260:../Switch/core/yt/yt_port.c **** yt_ret_t yt_port_pkt_gap_get(yt_unit_t unit, yt_port_t port, uint8_t *pGap)
 261:../Switch/core/yt/yt_port.c **** {
 2372              		.loc 1 261 1 is_stmt 1 view -0
 2373              		.cfi_startproc
 2374              		@ args = 0, pretend = 0, frame = 0
 2375              		@ frame_needed = 0, uses_anonymous_args = 0
 2376              		.loc 1 261 1 is_stmt 0 view .LVU670
 2377 0000 08B5     		push	{r3, lr}
 2378              		.cfi_def_cfa_offset 8
 2379              		.cfi_offset 3, -8
 2380              		.cfi_offset 14, -4
 262:../Switch/core/yt/yt_port.c ****     CMM_PARAM_CHK((YT_UNIT_NUM <= unit), CMM_ERR_INPUT);
 2381              		.loc 1 262 5 is_stmt 1 view .LVU671
 2382              		.loc 1 262 5 view .LVU672
 2383 0002 C0B9     		cbnz	r0, .L252
 2384 0004 8446     		mov	ip, r0
 2385              		.loc 1 262 5 discriminator 2 view .LVU673
 263:../Switch/core/yt/yt_port.c ****     CMM_PARAM_CHK(NULL == YT_DISPATCH(unit), CMM_ERR_NOT_INIT);
 2386              		.loc 1 263 5 discriminator 2 view .LVU674
 2387              		.loc 1 263 5 discriminator 2 view .LVU675
 2388 0006 2F4B     		ldr	r3, .L261
 2389 0008 53F82030 		ldr	r3, [r3, r0, lsl #2]
 2390 000c 0BB3     		cbz	r3, .L253
 2391              		.loc 1 263 5 discriminator 2 view .LVU676
 264:../Switch/core/yt/yt_port.c ****     CMM_PARAM_CHK((!(YT_DISPATCH(unit)->is_inited)), CMM_ERR_NOT_INIT);
 2392              		.loc 1 264 5 discriminator 2 view .LVU677
 2393              		.loc 1 264 5 discriminator 2 view .LVU678
 2394 000e 1878     		ldrb	r0, [r3]	@ zero_extendqisi2
 2395              	.LVL310:
 2396              		.loc 1 264 5 is_stmt 0 discriminator 2 view .LVU679
 2397 0010 0028     		cmp	r0, #0
 2398 0012 2CD0     		beq	.L254
 2399              		.loc 1 264 5 is_stmt 1 discriminator 2 view .LVU680
 265:../Switch/core/yt/yt_port.c ****     CMM_PARAM_CHK((!(CMM_PORT_VALID(unit, port))), CMM_ERR_PORT);
 2400              		.loc 1 265 5 discriminator 2 view .LVU681
 2401              		.loc 1 265 5 discriminator 2 view .LVU682
 2402 0014 2C48     		ldr	r0, .L261+4
 2403 0016 0078     		ldrb	r0, [r0]	@ zero_extendqisi2
 2404 0018 0028     		cmp	r0, #0
 2405 001a 36D0     		beq	.L246
 2406 001c 2B48     		ldr	r0, .L261+8
 2407 001e 50F82C00 		ldr	r0, [r0, ip, lsl #2]
 2408 0022 007D     		ldrb	r0, [r0, #20]	@ zero_extendqisi2
 2409 0024 8842     		cmp	r0, r1
 2410 0026 30D9     		bls	.L246
 2411              		.loc 1 265 5 discriminator 4 view .LVU683
 266:../Switch/core/yt/yt_port.c ****     CMM_PARAM_CHK((NULL == pGap), CMM_ERR_NULL_POINT);
 2412              		.loc 1 266 5 discriminator 4 view .LVU684
 2413              		.loc 1 266 5 discriminator 4 view .LVU685
 2414 0028 002A     		cmp	r2, #0
 2415 002a 3CD0     		beq	.L255
 2416              		.loc 1 266 5 discriminator 2 view .LVU686
 267:../Switch/core/yt/yt_port.c **** 
 268:../Switch/core/yt/yt_port.c ****     return YT_DISPATCH(unit)->port_pkt_gap_get(unit, port, pGap);
 2417              		.loc 1 268 5 discriminator 2 view .LVU687
 2418              		.loc 1 268 29 is_stmt 0 discriminator 2 view .LVU688
 2419 002c D3F87835 		ldr	r3, [r3, #1400]
 2420              		.loc 1 268 12 discriminator 2 view .LVU689
 2421 0030 6046     		mov	r0, ip
 2422 0032 9847     		blx	r3
 2423              	.LVL311:
 2424              	.L238:
 269:../Switch/core/yt/yt_port.c **** }
 2425              		.loc 1 269 1 view .LVU690
 2426 0034 08BD     		pop	{r3, pc}
 2427              	.LVL312:
 2428              	.L252:
 262:../Switch/core/yt/yt_port.c ****     CMM_PARAM_CHK(NULL == YT_DISPATCH(unit), CMM_ERR_NOT_INIT);
 2429              		.loc 1 262 5 is_stmt 1 discriminator 1 view .LVU691
 262:../Switch/core/yt/yt_port.c ****     CMM_PARAM_CHK(NULL == YT_DISPATCH(unit), CMM_ERR_NOT_INIT);
 2430              		.loc 1 262 5 discriminator 1 view .LVU692
 2431 0036 264B     		ldr	r3, .L261+12
 2432 0038 1B78     		ldrb	r3, [r3]	@ zero_extendqisi2
 2433 003a 012B     		cmp	r3, #1
 2434 003c 01D8     		bhi	.L256
 2435              	.LVL313:
 2436              	.L240:
 262:../Switch/core/yt/yt_port.c ****     CMM_PARAM_CHK(NULL == YT_DISPATCH(unit), CMM_ERR_NOT_INIT);
 2437              		.loc 1 262 5 discriminator 5 view .LVU693
 262:../Switch/core/yt/yt_port.c ****     CMM_PARAM_CHK(NULL == YT_DISPATCH(unit), CMM_ERR_NOT_INIT);
 2438              		.loc 1 262 5 discriminator 5 view .LVU694
 262:../Switch/core/yt/yt_port.c ****     CMM_PARAM_CHK(NULL == YT_DISPATCH(unit), CMM_ERR_NOT_INIT);
 2439              		.loc 1 262 5 discriminator 5 view .LVU695
 2440 003e 0520     		movs	r0, #5
 2441 0040 F8E7     		b	.L238
 2442              	.LVL314:
 2443              	.L256:
 262:../Switch/core/yt/yt_port.c ****     CMM_PARAM_CHK(NULL == YT_DISPATCH(unit), CMM_ERR_NOT_INIT);
 2444              		.loc 1 262 5 discriminator 3 view .LVU696
 2445              	.LBB48:
 262:../Switch/core/yt/yt_port.c ****     CMM_PARAM_CHK(NULL == YT_DISPATCH(unit), CMM_ERR_NOT_INIT);
 2446              		.loc 1 262 5 discriminator 3 view .LVU697
 2447 0042 244B     		ldr	r3, .L261+16
 2448 0044 5A69     		ldr	r2, [r3, #20]
 2449              	.LVL315:
 262:../Switch/core/yt/yt_port.c ****     CMM_PARAM_CHK(NULL == YT_DISPATCH(unit), CMM_ERR_NOT_INIT);
 2450              		.loc 1 262 5 is_stmt 0 discriminator 3 view .LVU698
 2451 0046 244B     		ldr	r3, .L261+20
 2452 0048 9968     		ldr	r1, [r3, #8]
 2453              	.LVL316:
 262:../Switch/core/yt/yt_port.c ****     CMM_PARAM_CHK(NULL == YT_DISPATCH(unit), CMM_ERR_NOT_INIT);
 2454              		.loc 1 262 5 discriminator 3 view .LVU699
 2455 004a 2448     		ldr	r0, .L261+24
 2456              	.LVL317:
 262:../Switch/core/yt/yt_port.c ****     CMM_PARAM_CHK(NULL == YT_DISPATCH(unit), CMM_ERR_NOT_INIT);
 2457              		.loc 1 262 5 discriminator 3 view .LVU700
 2458 004c FFF7FEFF 		bl	osal_printf
 2459              	.LVL318:
 2460 0050 F5E7     		b	.L240
 2461              	.LVL319:
 2462              	.L253:
 262:../Switch/core/yt/yt_port.c ****     CMM_PARAM_CHK(NULL == YT_DISPATCH(unit), CMM_ERR_NOT_INIT);
 2463              		.loc 1 262 5 discriminator 3 view .LVU701
 2464              	.LBE48:
 263:../Switch/core/yt/yt_port.c ****     CMM_PARAM_CHK((!(YT_DISPATCH(unit)->is_inited)), CMM_ERR_NOT_INIT);
 2465              		.loc 1 263 5 is_stmt 1 discriminator 1 view .LVU702
 263:../Switch/core/yt/yt_port.c ****     CMM_PARAM_CHK((!(YT_DISPATCH(unit)->is_inited)), CMM_ERR_NOT_INIT);
 2466              		.loc 1 263 5 discriminator 1 view .LVU703
 2467 0052 1F4B     		ldr	r3, .L261+12
 2468 0054 1B78     		ldrb	r3, [r3]	@ zero_extendqisi2
 2469 0056 012B     		cmp	r3, #1
 2470 0058 01D8     		bhi	.L257
 2471              	.LVL320:
 2472              	.L243:
 263:../Switch/core/yt/yt_port.c ****     CMM_PARAM_CHK((!(YT_DISPATCH(unit)->is_inited)), CMM_ERR_NOT_INIT);
 2473              		.loc 1 263 5 discriminator 5 view .LVU704
 263:../Switch/core/yt/yt_port.c ****     CMM_PARAM_CHK((!(YT_DISPATCH(unit)->is_inited)), CMM_ERR_NOT_INIT);
 2474              		.loc 1 263 5 discriminator 5 view .LVU705
 263:../Switch/core/yt/yt_port.c ****     CMM_PARAM_CHK((!(YT_DISPATCH(unit)->is_inited)), CMM_ERR_NOT_INIT);
 2475              		.loc 1 263 5 discriminator 5 view .LVU706
 2476 005a 0420     		movs	r0, #4
 2477 005c EAE7     		b	.L238
 2478              	.LVL321:
 2479              	.L257:
 263:../Switch/core/yt/yt_port.c ****     CMM_PARAM_CHK((!(YT_DISPATCH(unit)->is_inited)), CMM_ERR_NOT_INIT);
 2480              		.loc 1 263 5 discriminator 3 view .LVU707
 2481              	.LBB49:
 263:../Switch/core/yt/yt_port.c ****     CMM_PARAM_CHK((!(YT_DISPATCH(unit)->is_inited)), CMM_ERR_NOT_INIT);
 2482              		.loc 1 263 5 discriminator 3 view .LVU708
 2483 005e 1D4B     		ldr	r3, .L261+16
 2484 0060 1A69     		ldr	r2, [r3, #16]
 2485              	.LVL322:
 263:../Switch/core/yt/yt_port.c ****     CMM_PARAM_CHK((!(YT_DISPATCH(unit)->is_inited)), CMM_ERR_NOT_INIT);
 2486              		.loc 1 263 5 is_stmt 0 discriminator 3 view .LVU709
 2487 0062 1D4B     		ldr	r3, .L261+20
 2488 0064 9968     		ldr	r1, [r3, #8]
 2489              	.LVL323:
 263:../Switch/core/yt/yt_port.c ****     CMM_PARAM_CHK((!(YT_DISPATCH(unit)->is_inited)), CMM_ERR_NOT_INIT);
 2490              		.loc 1 263 5 discriminator 3 view .LVU710
 2491 0066 1D48     		ldr	r0, .L261+24
 2492              	.LVL324:
 263:../Switch/core/yt/yt_port.c ****     CMM_PARAM_CHK((!(YT_DISPATCH(unit)->is_inited)), CMM_ERR_NOT_INIT);
 2493              		.loc 1 263 5 discriminator 3 view .LVU711
 2494 0068 FFF7FEFF 		bl	osal_printf
 2495              	.LVL325:
 2496 006c F5E7     		b	.L243
 2497              	.LVL326:
 2498              	.L254:
 263:../Switch/core/yt/yt_port.c ****     CMM_PARAM_CHK((!(YT_DISPATCH(unit)->is_inited)), CMM_ERR_NOT_INIT);
 2499              		.loc 1 263 5 discriminator 3 view .LVU712
 2500              	.LBE49:
 264:../Switch/core/yt/yt_port.c ****     CMM_PARAM_CHK((!(CMM_PORT_VALID(unit, port))), CMM_ERR_PORT);
 2501              		.loc 1 264 5 is_stmt 1 discriminator 1 view .LVU713
 264:../Switch/core/yt/yt_port.c ****     CMM_PARAM_CHK((!(CMM_PORT_VALID(unit, port))), CMM_ERR_PORT);
 2502              		.loc 1 264 5 discriminator 1 view .LVU714
 2503 006e 184B     		ldr	r3, .L261+12
 2504 0070 1B78     		ldrb	r3, [r3]	@ zero_extendqisi2
 2505 0072 012B     		cmp	r3, #1
 2506 0074 01D8     		bhi	.L258
 2507              	.LVL327:
 2508              	.L245:
 264:../Switch/core/yt/yt_port.c ****     CMM_PARAM_CHK((!(CMM_PORT_VALID(unit, port))), CMM_ERR_PORT);
 2509              		.loc 1 264 5 discriminator 5 view .LVU715
 264:../Switch/core/yt/yt_port.c ****     CMM_PARAM_CHK((!(CMM_PORT_VALID(unit, port))), CMM_ERR_PORT);
 2510              		.loc 1 264 5 discriminator 5 view .LVU716
 264:../Switch/core/yt/yt_port.c ****     CMM_PARAM_CHK((!(CMM_PORT_VALID(unit, port))), CMM_ERR_PORT);
 2511              		.loc 1 264 5 discriminator 5 view .LVU717
 2512 0076 0420     		movs	r0, #4
 2513 0078 DCE7     		b	.L238
 2514              	.LVL328:
 2515              	.L258:
 264:../Switch/core/yt/yt_port.c ****     CMM_PARAM_CHK((!(CMM_PORT_VALID(unit, port))), CMM_ERR_PORT);
 2516              		.loc 1 264 5 discriminator 3 view .LVU718
 2517              	.LBB50:
 264:../Switch/core/yt/yt_port.c ****     CMM_PARAM_CHK((!(CMM_PORT_VALID(unit, port))), CMM_ERR_PORT);
 2518              		.loc 1 264 5 discriminator 3 view .LVU719
 2519 007a 164B     		ldr	r3, .L261+16
 2520 007c 1A69     		ldr	r2, [r3, #16]
 2521              	.LVL329:
 264:../Switch/core/yt/yt_port.c ****     CMM_PARAM_CHK((!(CMM_PORT_VALID(unit, port))), CMM_ERR_PORT);
 2522              		.loc 1 264 5 is_stmt 0 discriminator 3 view .LVU720
 2523 007e 164B     		ldr	r3, .L261+20
 2524 0080 9968     		ldr	r1, [r3, #8]
 2525              	.LVL330:
 264:../Switch/core/yt/yt_port.c ****     CMM_PARAM_CHK((!(CMM_PORT_VALID(unit, port))), CMM_ERR_PORT);
 2526              		.loc 1 264 5 discriminator 3 view .LVU721
 2527 0082 1648     		ldr	r0, .L261+24
 2528 0084 FFF7FEFF 		bl	osal_printf
 2529              	.LVL331:
 2530 0088 F5E7     		b	.L245
 2531              	.LVL332:
 2532              	.L246:
 264:../Switch/core/yt/yt_port.c ****     CMM_PARAM_CHK((!(CMM_PORT_VALID(unit, port))), CMM_ERR_PORT);
 2533              		.loc 1 264 5 discriminator 3 view .LVU722
 2534              	.LBE50:
 265:../Switch/core/yt/yt_port.c ****     CMM_PARAM_CHK((NULL == pGap), CMM_ERR_NULL_POINT);
 2535              		.loc 1 265 5 is_stmt 1 discriminator 3 view .LVU723
 265:../Switch/core/yt/yt_port.c ****     CMM_PARAM_CHK((NULL == pGap), CMM_ERR_NULL_POINT);
 2536              		.loc 1 265 5 discriminator 3 view .LVU724
 2537 008a 114B     		ldr	r3, .L261+12
 2538 008c 1B78     		ldrb	r3, [r3]	@ zero_extendqisi2
 2539 008e 012B     		cmp	r3, #1
 2540 0090 01D8     		bhi	.L259
 2541              	.LVL333:
 2542              	.L248:
 265:../Switch/core/yt/yt_port.c ****     CMM_PARAM_CHK((NULL == pGap), CMM_ERR_NULL_POINT);
 2543              		.loc 1 265 5 discriminator 7 view .LVU725
 265:../Switch/core/yt/yt_port.c ****     CMM_PARAM_CHK((NULL == pGap), CMM_ERR_NULL_POINT);
 2544              		.loc 1 265 5 discriminator 7 view .LVU726
 265:../Switch/core/yt/yt_port.c ****     CMM_PARAM_CHK((NULL == pGap), CMM_ERR_NULL_POINT);
 2545              		.loc 1 265 5 discriminator 7 view .LVU727
 2546 0092 0E20     		movs	r0, #14
 2547 0094 CEE7     		b	.L238
 2548              	.LVL334:
 2549              	.L259:
 265:../Switch/core/yt/yt_port.c ****     CMM_PARAM_CHK((NULL == pGap), CMM_ERR_NULL_POINT);
 2550              		.loc 1 265 5 discriminator 5 view .LVU728
 2551              	.LBB51:
 265:../Switch/core/yt/yt_port.c ****     CMM_PARAM_CHK((NULL == pGap), CMM_ERR_NULL_POINT);
 2552              		.loc 1 265 5 discriminator 5 view .LVU729
 2553 0096 0F4B     		ldr	r3, .L261+16
 2554 0098 9A6B     		ldr	r2, [r3, #56]
 2555              	.LVL335:
 265:../Switch/core/yt/yt_port.c ****     CMM_PARAM_CHK((NULL == pGap), CMM_ERR_NULL_POINT);
 2556              		.loc 1 265 5 is_stmt 0 discriminator 5 view .LVU730
 2557 009a 0F4B     		ldr	r3, .L261+20
 2558 009c 9968     		ldr	r1, [r3, #8]
 2559              	.LVL336:
 265:../Switch/core/yt/yt_port.c ****     CMM_PARAM_CHK((NULL == pGap), CMM_ERR_NULL_POINT);
 2560              		.loc 1 265 5 discriminator 5 view .LVU731
 2561 009e 0F48     		ldr	r0, .L261+24
 2562 00a0 FFF7FEFF 		bl	osal_printf
 2563              	.LVL337:
 2564 00a4 F5E7     		b	.L248
 2565              	.LVL338:
 2566              	.L255:
 265:../Switch/core/yt/yt_port.c ****     CMM_PARAM_CHK((NULL == pGap), CMM_ERR_NULL_POINT);
 2567              		.loc 1 265 5 discriminator 5 view .LVU732
 2568              	.LBE51:
 266:../Switch/core/yt/yt_port.c **** 
 2569              		.loc 1 266 5 is_stmt 1 discriminator 1 view .LVU733
 266:../Switch/core/yt/yt_port.c **** 
 2570              		.loc 1 266 5 discriminator 1 view .LVU734
 2571 00a6 0A4B     		ldr	r3, .L261+12
 2572 00a8 1B78     		ldrb	r3, [r3]	@ zero_extendqisi2
 2573 00aa 012B     		cmp	r3, #1
 2574 00ac 01D8     		bhi	.L260
 2575              	.LVL339:
 2576              	.L250:
 266:../Switch/core/yt/yt_port.c **** 
 2577              		.loc 1 266 5 discriminator 5 view .LVU735
 266:../Switch/core/yt/yt_port.c **** 
 2578              		.loc 1 266 5 discriminator 5 view .LVU736
 266:../Switch/core/yt/yt_port.c **** 
 2579              		.loc 1 266 5 discriminator 5 view .LVU737
 2580 00ae 0220     		movs	r0, #2
 2581 00b0 C0E7     		b	.L238
 2582              	.LVL340:
 2583              	.L260:
 266:../Switch/core/yt/yt_port.c **** 
 2584              		.loc 1 266 5 discriminator 3 view .LVU738
 2585              	.LBB52:
 266:../Switch/core/yt/yt_port.c **** 
 2586              		.loc 1 266 5 discriminator 3 view .LVU739
 2587 00b2 084B     		ldr	r3, .L261+16
 2588 00b4 9A68     		ldr	r2, [r3, #8]
 2589              	.LVL341:
 266:../Switch/core/yt/yt_port.c **** 
 2590              		.loc 1 266 5 is_stmt 0 discriminator 3 view .LVU740
 2591 00b6 084B     		ldr	r3, .L261+20
 2592 00b8 9968     		ldr	r1, [r3, #8]
 2593              	.LVL342:
 266:../Switch/core/yt/yt_port.c **** 
 2594              		.loc 1 266 5 discriminator 3 view .LVU741
 2595 00ba 0848     		ldr	r0, .L261+24
 2596 00bc FFF7FEFF 		bl	osal_printf
 2597              	.LVL343:
 2598 00c0 F5E7     		b	.L250
 2599              	.L262:
 2600 00c2 00BF     		.align	2
 2601              	.L261:
 2602 00c4 00000000 		.word	gpfal_dispatch
 2603 00c8 00000000 		.word	gcal_inited
 2604 00cc 00000000 		.word	gpSwitchUnit
 2605 00d0 00000000 		.word	yt_debug_level
 2606 00d4 00000000 		.word	_yt_errmsg
 2607 00d8 00000000 		.word	_yt_prompt_msg
 2608 00dc 00000000 		.word	.LC0
 2609              	.LBE52:
 2610              		.cfi_endproc
 2611              	.LFE13:
 2613              		.section	.text.yt_port_macAutoNeg_enable_set,"ax",%progbits
 2614              		.align	1
 2615              		.global	yt_port_macAutoNeg_enable_set
 2616              		.syntax unified
 2617              		.thumb
 2618              		.thumb_func
 2620              	yt_port_macAutoNeg_enable_set:
 2621              	.LVL344:
 2622              	.LFB14:
 270:../Switch/core/yt/yt_port.c **** 
 271:../Switch/core/yt/yt_port.c **** /**
 272:../Switch/core/yt/yt_port.c ****  * @internal      yt_port_macAutoNeg_enable_set
 273:../Switch/core/yt/yt_port.c ****  * @endinternal
 274:../Switch/core/yt/yt_port.c ****  *
 275:../Switch/core/yt/yt_port.c ****  * @brief         Description
 276:../Switch/core/yt/yt_port.c ****  * @note          APPLICABLE DEVICES  -Tiger
 277:../Switch/core/yt/yt_port.c ****  * @param[in]     unit                -unit id
 278:../Switch/core/yt/yt_port.c ****  * @param[in]     port                -port num
 279:../Switch/core/yt/yt_port.c ****  * @param[in]     enable              -enable or disable
 280:../Switch/core/yt/yt_port.c ****  * @retval        CMM_ERR_OK          -on success
 281:../Switch/core/yt/yt_port.c ****  * @retval        CMM_ERR_FAIL        -on fail
 282:../Switch/core/yt/yt_port.c ****  */
 283:../Switch/core/yt/yt_port.c **** yt_ret_t yt_port_macAutoNeg_enable_set(yt_unit_t unit, yt_port_t port, yt_enable_t enable)
 284:../Switch/core/yt/yt_port.c **** {
 2623              		.loc 1 284 1 is_stmt 1 view -0
 2624              		.cfi_startproc
 2625              		@ args = 0, pretend = 0, frame = 0
 2626              		@ frame_needed = 0, uses_anonymous_args = 0
 2627              		.loc 1 284 1 is_stmt 0 view .LVU743
 2628 0000 08B5     		push	{r3, lr}
 2629              		.cfi_def_cfa_offset 8
 2630              		.cfi_offset 3, -8
 2631              		.cfi_offset 14, -4
 285:../Switch/core/yt/yt_port.c ****     CMM_PARAM_CHK((YT_UNIT_NUM <= unit), CMM_ERR_INPUT);
 2632              		.loc 1 285 5 is_stmt 1 view .LVU744
 2633              		.loc 1 285 5 view .LVU745
 2634 0002 C0B9     		cbnz	r0, .L277
 2635 0004 8446     		mov	ip, r0
 2636              		.loc 1 285 5 discriminator 2 view .LVU746
 286:../Switch/core/yt/yt_port.c ****     CMM_PARAM_CHK(NULL == YT_DISPATCH(unit), CMM_ERR_NOT_INIT);
 2637              		.loc 1 286 5 discriminator 2 view .LVU747
 2638              		.loc 1 286 5 discriminator 2 view .LVU748
 2639 0006 2F4B     		ldr	r3, .L286
 2640 0008 53F82030 		ldr	r3, [r3, r0, lsl #2]
 2641 000c 0BB3     		cbz	r3, .L278
 2642              		.loc 1 286 5 discriminator 2 view .LVU749
 287:../Switch/core/yt/yt_port.c ****     CMM_PARAM_CHK((!(YT_DISPATCH(unit)->is_inited)), CMM_ERR_NOT_INIT);
 2643              		.loc 1 287 5 discriminator 2 view .LVU750
 2644              		.loc 1 287 5 discriminator 2 view .LVU751
 2645 000e 1878     		ldrb	r0, [r3]	@ zero_extendqisi2
 2646              	.LVL345:
 2647              		.loc 1 287 5 is_stmt 0 discriminator 2 view .LVU752
 2648 0010 0028     		cmp	r0, #0
 2649 0012 2CD0     		beq	.L279
 2650              		.loc 1 287 5 is_stmt 1 discriminator 2 view .LVU753
 288:../Switch/core/yt/yt_port.c ****     CMM_PARAM_CHK((!(CMM_PORT_VALID(unit, port))), CMM_ERR_PORT);
 2651              		.loc 1 288 5 discriminator 2 view .LVU754
 2652              		.loc 1 288 5 discriminator 2 view .LVU755
 2653 0014 2C48     		ldr	r0, .L286+4
 2654 0016 0078     		ldrb	r0, [r0]	@ zero_extendqisi2
 2655 0018 0028     		cmp	r0, #0
 2656 001a 36D0     		beq	.L271
 2657 001c 2B48     		ldr	r0, .L286+8
 2658 001e 50F82C00 		ldr	r0, [r0, ip, lsl #2]
 2659 0022 007D     		ldrb	r0, [r0, #20]	@ zero_extendqisi2
 2660 0024 8842     		cmp	r0, r1
 2661 0026 30D9     		bls	.L271
 2662              		.loc 1 288 5 discriminator 4 view .LVU756
 289:../Switch/core/yt/yt_port.c ****     CMM_PARAM_CHK((YT_ENABLE < enable || YT_DISABLE > enable), CMM_ERR_INPUT);
 2663              		.loc 1 289 5 discriminator 4 view .LVU757
 2664              		.loc 1 289 5 discriminator 4 view .LVU758
 2665 0028 012A     		cmp	r2, #1
 2666 002a 3CD8     		bhi	.L280
 2667              		.loc 1 289 5 discriminator 2 view .LVU759
 290:../Switch/core/yt/yt_port.c **** 
 291:../Switch/core/yt/yt_port.c ****     return YT_DISPATCH(unit)->port_macAutoNeg_enable_set(unit, port, enable);
 2668              		.loc 1 291 5 discriminator 2 view .LVU760
 2669              		.loc 1 291 29 is_stmt 0 discriminator 2 view .LVU761
 2670 002c D3F87C35 		ldr	r3, [r3, #1404]
 2671              		.loc 1 291 12 discriminator 2 view .LVU762
 2672 0030 6046     		mov	r0, ip
 2673 0032 9847     		blx	r3
 2674              	.LVL346:
 2675              	.L263:
 292:../Switch/core/yt/yt_port.c **** }
 2676              		.loc 1 292 1 view .LVU763
 2677 0034 08BD     		pop	{r3, pc}
 2678              	.LVL347:
 2679              	.L277:
 285:../Switch/core/yt/yt_port.c ****     CMM_PARAM_CHK(NULL == YT_DISPATCH(unit), CMM_ERR_NOT_INIT);
 2680              		.loc 1 285 5 is_stmt 1 discriminator 1 view .LVU764
 285:../Switch/core/yt/yt_port.c ****     CMM_PARAM_CHK(NULL == YT_DISPATCH(unit), CMM_ERR_NOT_INIT);
 2681              		.loc 1 285 5 discriminator 1 view .LVU765
 2682 0036 264B     		ldr	r3, .L286+12
 2683 0038 1B78     		ldrb	r3, [r3]	@ zero_extendqisi2
 2684 003a 012B     		cmp	r3, #1
 2685 003c 01D8     		bhi	.L281
 2686              	.LVL348:
 2687              	.L265:
 285:../Switch/core/yt/yt_port.c ****     CMM_PARAM_CHK(NULL == YT_DISPATCH(unit), CMM_ERR_NOT_INIT);
 2688              		.loc 1 285 5 discriminator 5 view .LVU766
 285:../Switch/core/yt/yt_port.c ****     CMM_PARAM_CHK(NULL == YT_DISPATCH(unit), CMM_ERR_NOT_INIT);
 2689              		.loc 1 285 5 discriminator 5 view .LVU767
 285:../Switch/core/yt/yt_port.c ****     CMM_PARAM_CHK(NULL == YT_DISPATCH(unit), CMM_ERR_NOT_INIT);
 2690              		.loc 1 285 5 discriminator 5 view .LVU768
 2691 003e 0520     		movs	r0, #5
 2692 0040 F8E7     		b	.L263
 2693              	.LVL349:
 2694              	.L281:
 285:../Switch/core/yt/yt_port.c ****     CMM_PARAM_CHK(NULL == YT_DISPATCH(unit), CMM_ERR_NOT_INIT);
 2695              		.loc 1 285 5 discriminator 3 view .LVU769
 2696              	.LBB53:
 285:../Switch/core/yt/yt_port.c ****     CMM_PARAM_CHK(NULL == YT_DISPATCH(unit), CMM_ERR_NOT_INIT);
 2697              		.loc 1 285 5 discriminator 3 view .LVU770
 2698 0042 244B     		ldr	r3, .L286+16
 2699 0044 5A69     		ldr	r2, [r3, #20]
 2700              	.LVL350:
 285:../Switch/core/yt/yt_port.c ****     CMM_PARAM_CHK(NULL == YT_DISPATCH(unit), CMM_ERR_NOT_INIT);
 2701              		.loc 1 285 5 is_stmt 0 discriminator 3 view .LVU771
 2702 0046 244B     		ldr	r3, .L286+20
 2703 0048 9968     		ldr	r1, [r3, #8]
 2704              	.LVL351:
 285:../Switch/core/yt/yt_port.c ****     CMM_PARAM_CHK(NULL == YT_DISPATCH(unit), CMM_ERR_NOT_INIT);
 2705              		.loc 1 285 5 discriminator 3 view .LVU772
 2706 004a 2448     		ldr	r0, .L286+24
 2707              	.LVL352:
 285:../Switch/core/yt/yt_port.c ****     CMM_PARAM_CHK(NULL == YT_DISPATCH(unit), CMM_ERR_NOT_INIT);
 2708              		.loc 1 285 5 discriminator 3 view .LVU773
 2709 004c FFF7FEFF 		bl	osal_printf
 2710              	.LVL353:
 2711 0050 F5E7     		b	.L265
 2712              	.LVL354:
 2713              	.L278:
 285:../Switch/core/yt/yt_port.c ****     CMM_PARAM_CHK(NULL == YT_DISPATCH(unit), CMM_ERR_NOT_INIT);
 2714              		.loc 1 285 5 discriminator 3 view .LVU774
 2715              	.LBE53:
 286:../Switch/core/yt/yt_port.c ****     CMM_PARAM_CHK((!(YT_DISPATCH(unit)->is_inited)), CMM_ERR_NOT_INIT);
 2716              		.loc 1 286 5 is_stmt 1 discriminator 1 view .LVU775
 286:../Switch/core/yt/yt_port.c ****     CMM_PARAM_CHK((!(YT_DISPATCH(unit)->is_inited)), CMM_ERR_NOT_INIT);
 2717              		.loc 1 286 5 discriminator 1 view .LVU776
 2718 0052 1F4B     		ldr	r3, .L286+12
 2719 0054 1B78     		ldrb	r3, [r3]	@ zero_extendqisi2
 2720 0056 012B     		cmp	r3, #1
 2721 0058 01D8     		bhi	.L282
 2722              	.LVL355:
 2723              	.L268:
 286:../Switch/core/yt/yt_port.c ****     CMM_PARAM_CHK((!(YT_DISPATCH(unit)->is_inited)), CMM_ERR_NOT_INIT);
 2724              		.loc 1 286 5 discriminator 5 view .LVU777
 286:../Switch/core/yt/yt_port.c ****     CMM_PARAM_CHK((!(YT_DISPATCH(unit)->is_inited)), CMM_ERR_NOT_INIT);
 2725              		.loc 1 286 5 discriminator 5 view .LVU778
 286:../Switch/core/yt/yt_port.c ****     CMM_PARAM_CHK((!(YT_DISPATCH(unit)->is_inited)), CMM_ERR_NOT_INIT);
 2726              		.loc 1 286 5 discriminator 5 view .LVU779
 2727 005a 0420     		movs	r0, #4
 2728 005c EAE7     		b	.L263
 2729              	.LVL356:
 2730              	.L282:
 286:../Switch/core/yt/yt_port.c ****     CMM_PARAM_CHK((!(YT_DISPATCH(unit)->is_inited)), CMM_ERR_NOT_INIT);
 2731              		.loc 1 286 5 discriminator 3 view .LVU780
 2732              	.LBB54:
 286:../Switch/core/yt/yt_port.c ****     CMM_PARAM_CHK((!(YT_DISPATCH(unit)->is_inited)), CMM_ERR_NOT_INIT);
 2733              		.loc 1 286 5 discriminator 3 view .LVU781
 2734 005e 1D4B     		ldr	r3, .L286+16
 2735 0060 1A69     		ldr	r2, [r3, #16]
 2736              	.LVL357:
 286:../Switch/core/yt/yt_port.c ****     CMM_PARAM_CHK((!(YT_DISPATCH(unit)->is_inited)), CMM_ERR_NOT_INIT);
 2737              		.loc 1 286 5 is_stmt 0 discriminator 3 view .LVU782
 2738 0062 1D4B     		ldr	r3, .L286+20
 2739 0064 9968     		ldr	r1, [r3, #8]
 2740              	.LVL358:
 286:../Switch/core/yt/yt_port.c ****     CMM_PARAM_CHK((!(YT_DISPATCH(unit)->is_inited)), CMM_ERR_NOT_INIT);
 2741              		.loc 1 286 5 discriminator 3 view .LVU783
 2742 0066 1D48     		ldr	r0, .L286+24
 2743              	.LVL359:
 286:../Switch/core/yt/yt_port.c ****     CMM_PARAM_CHK((!(YT_DISPATCH(unit)->is_inited)), CMM_ERR_NOT_INIT);
 2744              		.loc 1 286 5 discriminator 3 view .LVU784
 2745 0068 FFF7FEFF 		bl	osal_printf
 2746              	.LVL360:
 2747 006c F5E7     		b	.L268
 2748              	.LVL361:
 2749              	.L279:
 286:../Switch/core/yt/yt_port.c ****     CMM_PARAM_CHK((!(YT_DISPATCH(unit)->is_inited)), CMM_ERR_NOT_INIT);
 2750              		.loc 1 286 5 discriminator 3 view .LVU785
 2751              	.LBE54:
 287:../Switch/core/yt/yt_port.c ****     CMM_PARAM_CHK((!(CMM_PORT_VALID(unit, port))), CMM_ERR_PORT);
 2752              		.loc 1 287 5 is_stmt 1 discriminator 1 view .LVU786
 287:../Switch/core/yt/yt_port.c ****     CMM_PARAM_CHK((!(CMM_PORT_VALID(unit, port))), CMM_ERR_PORT);
 2753              		.loc 1 287 5 discriminator 1 view .LVU787
 2754 006e 184B     		ldr	r3, .L286+12
 2755 0070 1B78     		ldrb	r3, [r3]	@ zero_extendqisi2
 2756 0072 012B     		cmp	r3, #1
 2757 0074 01D8     		bhi	.L283
 2758              	.LVL362:
 2759              	.L270:
 287:../Switch/core/yt/yt_port.c ****     CMM_PARAM_CHK((!(CMM_PORT_VALID(unit, port))), CMM_ERR_PORT);
 2760              		.loc 1 287 5 discriminator 5 view .LVU788
 287:../Switch/core/yt/yt_port.c ****     CMM_PARAM_CHK((!(CMM_PORT_VALID(unit, port))), CMM_ERR_PORT);
 2761              		.loc 1 287 5 discriminator 5 view .LVU789
 287:../Switch/core/yt/yt_port.c ****     CMM_PARAM_CHK((!(CMM_PORT_VALID(unit, port))), CMM_ERR_PORT);
 2762              		.loc 1 287 5 discriminator 5 view .LVU790
 2763 0076 0420     		movs	r0, #4
 2764 0078 DCE7     		b	.L263
 2765              	.LVL363:
 2766              	.L283:
 287:../Switch/core/yt/yt_port.c ****     CMM_PARAM_CHK((!(CMM_PORT_VALID(unit, port))), CMM_ERR_PORT);
 2767              		.loc 1 287 5 discriminator 3 view .LVU791
 2768              	.LBB55:
 287:../Switch/core/yt/yt_port.c ****     CMM_PARAM_CHK((!(CMM_PORT_VALID(unit, port))), CMM_ERR_PORT);
 2769              		.loc 1 287 5 discriminator 3 view .LVU792
 2770 007a 164B     		ldr	r3, .L286+16
 2771 007c 1A69     		ldr	r2, [r3, #16]
 2772              	.LVL364:
 287:../Switch/core/yt/yt_port.c ****     CMM_PARAM_CHK((!(CMM_PORT_VALID(unit, port))), CMM_ERR_PORT);
 2773              		.loc 1 287 5 is_stmt 0 discriminator 3 view .LVU793
 2774 007e 164B     		ldr	r3, .L286+20
 2775 0080 9968     		ldr	r1, [r3, #8]
 2776              	.LVL365:
 287:../Switch/core/yt/yt_port.c ****     CMM_PARAM_CHK((!(CMM_PORT_VALID(unit, port))), CMM_ERR_PORT);
 2777              		.loc 1 287 5 discriminator 3 view .LVU794
 2778 0082 1648     		ldr	r0, .L286+24
 2779 0084 FFF7FEFF 		bl	osal_printf
 2780              	.LVL366:
 2781 0088 F5E7     		b	.L270
 2782              	.LVL367:
 2783              	.L271:
 287:../Switch/core/yt/yt_port.c ****     CMM_PARAM_CHK((!(CMM_PORT_VALID(unit, port))), CMM_ERR_PORT);
 2784              		.loc 1 287 5 discriminator 3 view .LVU795
 2785              	.LBE55:
 288:../Switch/core/yt/yt_port.c ****     CMM_PARAM_CHK((YT_ENABLE < enable || YT_DISABLE > enable), CMM_ERR_INPUT);
 2786              		.loc 1 288 5 is_stmt 1 discriminator 3 view .LVU796
 288:../Switch/core/yt/yt_port.c ****     CMM_PARAM_CHK((YT_ENABLE < enable || YT_DISABLE > enable), CMM_ERR_INPUT);
 2787              		.loc 1 288 5 discriminator 3 view .LVU797
 2788 008a 114B     		ldr	r3, .L286+12
 2789 008c 1B78     		ldrb	r3, [r3]	@ zero_extendqisi2
 2790 008e 012B     		cmp	r3, #1
 2791 0090 01D8     		bhi	.L284
 2792              	.LVL368:
 2793              	.L273:
 288:../Switch/core/yt/yt_port.c ****     CMM_PARAM_CHK((YT_ENABLE < enable || YT_DISABLE > enable), CMM_ERR_INPUT);
 2794              		.loc 1 288 5 discriminator 7 view .LVU798
 288:../Switch/core/yt/yt_port.c ****     CMM_PARAM_CHK((YT_ENABLE < enable || YT_DISABLE > enable), CMM_ERR_INPUT);
 2795              		.loc 1 288 5 discriminator 7 view .LVU799
 288:../Switch/core/yt/yt_port.c ****     CMM_PARAM_CHK((YT_ENABLE < enable || YT_DISABLE > enable), CMM_ERR_INPUT);
 2796              		.loc 1 288 5 discriminator 7 view .LVU800
 2797 0092 0E20     		movs	r0, #14
 2798 0094 CEE7     		b	.L263
 2799              	.LVL369:
 2800              	.L284:
 288:../Switch/core/yt/yt_port.c ****     CMM_PARAM_CHK((YT_ENABLE < enable || YT_DISABLE > enable), CMM_ERR_INPUT);
 2801              		.loc 1 288 5 discriminator 5 view .LVU801
 2802              	.LBB56:
 288:../Switch/core/yt/yt_port.c ****     CMM_PARAM_CHK((YT_ENABLE < enable || YT_DISABLE > enable), CMM_ERR_INPUT);
 2803              		.loc 1 288 5 discriminator 5 view .LVU802
 2804 0096 0F4B     		ldr	r3, .L286+16
 2805 0098 9A6B     		ldr	r2, [r3, #56]
 2806              	.LVL370:
 288:../Switch/core/yt/yt_port.c ****     CMM_PARAM_CHK((YT_ENABLE < enable || YT_DISABLE > enable), CMM_ERR_INPUT);
 2807              		.loc 1 288 5 is_stmt 0 discriminator 5 view .LVU803
 2808 009a 0F4B     		ldr	r3, .L286+20
 2809 009c 9968     		ldr	r1, [r3, #8]
 2810              	.LVL371:
 288:../Switch/core/yt/yt_port.c ****     CMM_PARAM_CHK((YT_ENABLE < enable || YT_DISABLE > enable), CMM_ERR_INPUT);
 2811              		.loc 1 288 5 discriminator 5 view .LVU804
 2812 009e 0F48     		ldr	r0, .L286+24
 2813 00a0 FFF7FEFF 		bl	osal_printf
 2814              	.LVL372:
 2815 00a4 F5E7     		b	.L273
 2816              	.LVL373:
 2817              	.L280:
 288:../Switch/core/yt/yt_port.c ****     CMM_PARAM_CHK((YT_ENABLE < enable || YT_DISABLE > enable), CMM_ERR_INPUT);
 2818              		.loc 1 288 5 discriminator 5 view .LVU805
 2819              	.LBE56:
 289:../Switch/core/yt/yt_port.c **** 
 2820              		.loc 1 289 5 is_stmt 1 discriminator 1 view .LVU806
 289:../Switch/core/yt/yt_port.c **** 
 2821              		.loc 1 289 5 discriminator 1 view .LVU807
 2822 00a6 0A4B     		ldr	r3, .L286+12
 2823 00a8 1B78     		ldrb	r3, [r3]	@ zero_extendqisi2
 2824 00aa 012B     		cmp	r3, #1
 2825 00ac 01D8     		bhi	.L285
 2826              	.LVL374:
 2827              	.L275:
 289:../Switch/core/yt/yt_port.c **** 
 2828              		.loc 1 289 5 discriminator 5 view .LVU808
 289:../Switch/core/yt/yt_port.c **** 
 2829              		.loc 1 289 5 discriminator 5 view .LVU809
 289:../Switch/core/yt/yt_port.c **** 
 2830              		.loc 1 289 5 discriminator 5 view .LVU810
 2831 00ae 0520     		movs	r0, #5
 2832 00b0 C0E7     		b	.L263
 2833              	.LVL375:
 2834              	.L285:
 289:../Switch/core/yt/yt_port.c **** 
 2835              		.loc 1 289 5 discriminator 3 view .LVU811
 2836              	.LBB57:
 289:../Switch/core/yt/yt_port.c **** 
 2837              		.loc 1 289 5 discriminator 3 view .LVU812
 2838 00b2 084B     		ldr	r3, .L286+16
 2839 00b4 5A69     		ldr	r2, [r3, #20]
 2840              	.LVL376:
 289:../Switch/core/yt/yt_port.c **** 
 2841              		.loc 1 289 5 is_stmt 0 discriminator 3 view .LVU813
 2842 00b6 084B     		ldr	r3, .L286+20
 2843 00b8 9968     		ldr	r1, [r3, #8]
 2844              	.LVL377:
 289:../Switch/core/yt/yt_port.c **** 
 2845              		.loc 1 289 5 discriminator 3 view .LVU814
 2846 00ba 0848     		ldr	r0, .L286+24
 2847 00bc FFF7FEFF 		bl	osal_printf
 2848              	.LVL378:
 2849 00c0 F5E7     		b	.L275
 2850              	.L287:
 2851 00c2 00BF     		.align	2
 2852              	.L286:
 2853 00c4 00000000 		.word	gpfal_dispatch
 2854 00c8 00000000 		.word	gcal_inited
 2855 00cc 00000000 		.word	gpSwitchUnit
 2856 00d0 00000000 		.word	yt_debug_level
 2857 00d4 00000000 		.word	_yt_errmsg
 2858 00d8 00000000 		.word	_yt_prompt_msg
 2859 00dc 00000000 		.word	.LC0
 2860              	.LBE57:
 2861              		.cfi_endproc
 2862              	.LFE14:
 2864              		.section	.text.yt_port_macAutoNeg_enable_get,"ax",%progbits
 2865              		.align	1
 2866              		.global	yt_port_macAutoNeg_enable_get
 2867              		.syntax unified
 2868              		.thumb
 2869              		.thumb_func
 2871              	yt_port_macAutoNeg_enable_get:
 2872              	.LVL379:
 2873              	.LFB15:
 293:../Switch/core/yt/yt_port.c **** 
 294:../Switch/core/yt/yt_port.c **** /**
 295:../Switch/core/yt/yt_port.c ****  * @internal      yt_port_macAutoNeg_enable_get
 296:../Switch/core/yt/yt_port.c ****  * @endinternal
 297:../Switch/core/yt/yt_port.c ****  *
 298:../Switch/core/yt/yt_port.c ****  * @brief         Description
 299:../Switch/core/yt/yt_port.c ****  * @note          APPLICABLE DEVICES  -Tiger
 300:../Switch/core/yt/yt_port.c ****  * @param[in]     unit                -unit id
 301:../Switch/core/yt/yt_port.c ****  * @param[in]     port                -port num
 302:../Switch/core/yt/yt_port.c ****  * @param[out]    pEnable             -enable or disable
 303:../Switch/core/yt/yt_port.c ****  * @retval        CMM_ERR_OK          -on success
 304:../Switch/core/yt/yt_port.c ****  * @retval        CMM_ERR_FAIL        -on fail
 305:../Switch/core/yt/yt_port.c ****  */
 306:../Switch/core/yt/yt_port.c **** yt_ret_t yt_port_macAutoNeg_enable_get(yt_unit_t unit, yt_port_t port, yt_enable_t *pEnable)
 307:../Switch/core/yt/yt_port.c **** {
 2874              		.loc 1 307 1 is_stmt 1 view -0
 2875              		.cfi_startproc
 2876              		@ args = 0, pretend = 0, frame = 0
 2877              		@ frame_needed = 0, uses_anonymous_args = 0
 2878              		.loc 1 307 1 is_stmt 0 view .LVU816
 2879 0000 08B5     		push	{r3, lr}
 2880              		.cfi_def_cfa_offset 8
 2881              		.cfi_offset 3, -8
 2882              		.cfi_offset 14, -4
 308:../Switch/core/yt/yt_port.c ****     CMM_PARAM_CHK((YT_UNIT_NUM <= unit), CMM_ERR_INPUT);
 2883              		.loc 1 308 5 is_stmt 1 view .LVU817
 2884              		.loc 1 308 5 view .LVU818
 2885 0002 C0B9     		cbnz	r0, .L302
 2886 0004 8446     		mov	ip, r0
 2887              		.loc 1 308 5 discriminator 2 view .LVU819
 309:../Switch/core/yt/yt_port.c ****     CMM_PARAM_CHK(NULL == YT_DISPATCH(unit), CMM_ERR_NOT_INIT);
 2888              		.loc 1 309 5 discriminator 2 view .LVU820
 2889              		.loc 1 309 5 discriminator 2 view .LVU821
 2890 0006 2F4B     		ldr	r3, .L311
 2891 0008 53F82030 		ldr	r3, [r3, r0, lsl #2]
 2892 000c 0BB3     		cbz	r3, .L303
 2893              		.loc 1 309 5 discriminator 2 view .LVU822
 310:../Switch/core/yt/yt_port.c ****     CMM_PARAM_CHK((!(YT_DISPATCH(unit)->is_inited)), CMM_ERR_NOT_INIT);
 2894              		.loc 1 310 5 discriminator 2 view .LVU823
 2895              		.loc 1 310 5 discriminator 2 view .LVU824
 2896 000e 1878     		ldrb	r0, [r3]	@ zero_extendqisi2
 2897              	.LVL380:
 2898              		.loc 1 310 5 is_stmt 0 discriminator 2 view .LVU825
 2899 0010 0028     		cmp	r0, #0
 2900 0012 2CD0     		beq	.L304
 2901              		.loc 1 310 5 is_stmt 1 discriminator 2 view .LVU826
 311:../Switch/core/yt/yt_port.c ****     CMM_PARAM_CHK((!(CMM_PORT_VALID(unit, port))), CMM_ERR_PORT);
 2902              		.loc 1 311 5 discriminator 2 view .LVU827
 2903              		.loc 1 311 5 discriminator 2 view .LVU828
 2904 0014 2C48     		ldr	r0, .L311+4
 2905 0016 0078     		ldrb	r0, [r0]	@ zero_extendqisi2
 2906 0018 0028     		cmp	r0, #0
 2907 001a 36D0     		beq	.L296
 2908 001c 2B48     		ldr	r0, .L311+8
 2909 001e 50F82C00 		ldr	r0, [r0, ip, lsl #2]
 2910 0022 007D     		ldrb	r0, [r0, #20]	@ zero_extendqisi2
 2911 0024 8842     		cmp	r0, r1
 2912 0026 30D9     		bls	.L296
 2913              		.loc 1 311 5 discriminator 4 view .LVU829
 312:../Switch/core/yt/yt_port.c ****     CMM_PARAM_CHK((NULL == pEnable), CMM_ERR_NULL_POINT);
 2914              		.loc 1 312 5 discriminator 4 view .LVU830
 2915              		.loc 1 312 5 discriminator 4 view .LVU831
 2916 0028 002A     		cmp	r2, #0
 2917 002a 3CD0     		beq	.L305
 2918              		.loc 1 312 5 discriminator 2 view .LVU832
 313:../Switch/core/yt/yt_port.c **** 
 314:../Switch/core/yt/yt_port.c ****     return YT_DISPATCH(unit)->port_macAutoNeg_enable_get(unit, port, pEnable);
 2919              		.loc 1 314 5 discriminator 2 view .LVU833
 2920              		.loc 1 314 29 is_stmt 0 discriminator 2 view .LVU834
 2921 002c D3F88035 		ldr	r3, [r3, #1408]
 2922              		.loc 1 314 12 discriminator 2 view .LVU835
 2923 0030 6046     		mov	r0, ip
 2924 0032 9847     		blx	r3
 2925              	.LVL381:
 2926              	.L288:
 315:../Switch/core/yt/yt_port.c **** }
 2927              		.loc 1 315 1 view .LVU836
 2928 0034 08BD     		pop	{r3, pc}
 2929              	.LVL382:
 2930              	.L302:
 308:../Switch/core/yt/yt_port.c ****     CMM_PARAM_CHK(NULL == YT_DISPATCH(unit), CMM_ERR_NOT_INIT);
 2931              		.loc 1 308 5 is_stmt 1 discriminator 1 view .LVU837
 308:../Switch/core/yt/yt_port.c ****     CMM_PARAM_CHK(NULL == YT_DISPATCH(unit), CMM_ERR_NOT_INIT);
 2932              		.loc 1 308 5 discriminator 1 view .LVU838
 2933 0036 264B     		ldr	r3, .L311+12
 2934 0038 1B78     		ldrb	r3, [r3]	@ zero_extendqisi2
 2935 003a 012B     		cmp	r3, #1
 2936 003c 01D8     		bhi	.L306
 2937              	.LVL383:
 2938              	.L290:
 308:../Switch/core/yt/yt_port.c ****     CMM_PARAM_CHK(NULL == YT_DISPATCH(unit), CMM_ERR_NOT_INIT);
 2939              		.loc 1 308 5 discriminator 5 view .LVU839
 308:../Switch/core/yt/yt_port.c ****     CMM_PARAM_CHK(NULL == YT_DISPATCH(unit), CMM_ERR_NOT_INIT);
 2940              		.loc 1 308 5 discriminator 5 view .LVU840
 308:../Switch/core/yt/yt_port.c ****     CMM_PARAM_CHK(NULL == YT_DISPATCH(unit), CMM_ERR_NOT_INIT);
 2941              		.loc 1 308 5 discriminator 5 view .LVU841
 2942 003e 0520     		movs	r0, #5
 2943 0040 F8E7     		b	.L288
 2944              	.LVL384:
 2945              	.L306:
 308:../Switch/core/yt/yt_port.c ****     CMM_PARAM_CHK(NULL == YT_DISPATCH(unit), CMM_ERR_NOT_INIT);
 2946              		.loc 1 308 5 discriminator 3 view .LVU842
 2947              	.LBB58:
 308:../Switch/core/yt/yt_port.c ****     CMM_PARAM_CHK(NULL == YT_DISPATCH(unit), CMM_ERR_NOT_INIT);
 2948              		.loc 1 308 5 discriminator 3 view .LVU843
 2949 0042 244B     		ldr	r3, .L311+16
 2950 0044 5A69     		ldr	r2, [r3, #20]
 2951              	.LVL385:
 308:../Switch/core/yt/yt_port.c ****     CMM_PARAM_CHK(NULL == YT_DISPATCH(unit), CMM_ERR_NOT_INIT);
 2952              		.loc 1 308 5 is_stmt 0 discriminator 3 view .LVU844
 2953 0046 244B     		ldr	r3, .L311+20
 2954 0048 9968     		ldr	r1, [r3, #8]
 2955              	.LVL386:
 308:../Switch/core/yt/yt_port.c ****     CMM_PARAM_CHK(NULL == YT_DISPATCH(unit), CMM_ERR_NOT_INIT);
 2956              		.loc 1 308 5 discriminator 3 view .LVU845
 2957 004a 2448     		ldr	r0, .L311+24
 2958              	.LVL387:
 308:../Switch/core/yt/yt_port.c ****     CMM_PARAM_CHK(NULL == YT_DISPATCH(unit), CMM_ERR_NOT_INIT);
 2959              		.loc 1 308 5 discriminator 3 view .LVU846
 2960 004c FFF7FEFF 		bl	osal_printf
 2961              	.LVL388:
 2962 0050 F5E7     		b	.L290
 2963              	.LVL389:
 2964              	.L303:
 308:../Switch/core/yt/yt_port.c ****     CMM_PARAM_CHK(NULL == YT_DISPATCH(unit), CMM_ERR_NOT_INIT);
 2965              		.loc 1 308 5 discriminator 3 view .LVU847
 2966              	.LBE58:
 309:../Switch/core/yt/yt_port.c ****     CMM_PARAM_CHK((!(YT_DISPATCH(unit)->is_inited)), CMM_ERR_NOT_INIT);
 2967              		.loc 1 309 5 is_stmt 1 discriminator 1 view .LVU848
 309:../Switch/core/yt/yt_port.c ****     CMM_PARAM_CHK((!(YT_DISPATCH(unit)->is_inited)), CMM_ERR_NOT_INIT);
 2968              		.loc 1 309 5 discriminator 1 view .LVU849
 2969 0052 1F4B     		ldr	r3, .L311+12
 2970 0054 1B78     		ldrb	r3, [r3]	@ zero_extendqisi2
 2971 0056 012B     		cmp	r3, #1
 2972 0058 01D8     		bhi	.L307
 2973              	.LVL390:
 2974              	.L293:
 309:../Switch/core/yt/yt_port.c ****     CMM_PARAM_CHK((!(YT_DISPATCH(unit)->is_inited)), CMM_ERR_NOT_INIT);
 2975              		.loc 1 309 5 discriminator 5 view .LVU850
 309:../Switch/core/yt/yt_port.c ****     CMM_PARAM_CHK((!(YT_DISPATCH(unit)->is_inited)), CMM_ERR_NOT_INIT);
 2976              		.loc 1 309 5 discriminator 5 view .LVU851
 309:../Switch/core/yt/yt_port.c ****     CMM_PARAM_CHK((!(YT_DISPATCH(unit)->is_inited)), CMM_ERR_NOT_INIT);
 2977              		.loc 1 309 5 discriminator 5 view .LVU852
 2978 005a 0420     		movs	r0, #4
 2979 005c EAE7     		b	.L288
 2980              	.LVL391:
 2981              	.L307:
 309:../Switch/core/yt/yt_port.c ****     CMM_PARAM_CHK((!(YT_DISPATCH(unit)->is_inited)), CMM_ERR_NOT_INIT);
 2982              		.loc 1 309 5 discriminator 3 view .LVU853
 2983              	.LBB59:
 309:../Switch/core/yt/yt_port.c ****     CMM_PARAM_CHK((!(YT_DISPATCH(unit)->is_inited)), CMM_ERR_NOT_INIT);
 2984              		.loc 1 309 5 discriminator 3 view .LVU854
 2985 005e 1D4B     		ldr	r3, .L311+16
 2986 0060 1A69     		ldr	r2, [r3, #16]
 2987              	.LVL392:
 309:../Switch/core/yt/yt_port.c ****     CMM_PARAM_CHK((!(YT_DISPATCH(unit)->is_inited)), CMM_ERR_NOT_INIT);
 2988              		.loc 1 309 5 is_stmt 0 discriminator 3 view .LVU855
 2989 0062 1D4B     		ldr	r3, .L311+20
 2990 0064 9968     		ldr	r1, [r3, #8]
 2991              	.LVL393:
 309:../Switch/core/yt/yt_port.c ****     CMM_PARAM_CHK((!(YT_DISPATCH(unit)->is_inited)), CMM_ERR_NOT_INIT);
 2992              		.loc 1 309 5 discriminator 3 view .LVU856
 2993 0066 1D48     		ldr	r0, .L311+24
 2994              	.LVL394:
 309:../Switch/core/yt/yt_port.c ****     CMM_PARAM_CHK((!(YT_DISPATCH(unit)->is_inited)), CMM_ERR_NOT_INIT);
 2995              		.loc 1 309 5 discriminator 3 view .LVU857
 2996 0068 FFF7FEFF 		bl	osal_printf
 2997              	.LVL395:
 2998 006c F5E7     		b	.L293
 2999              	.LVL396:
 3000              	.L304:
 309:../Switch/core/yt/yt_port.c ****     CMM_PARAM_CHK((!(YT_DISPATCH(unit)->is_inited)), CMM_ERR_NOT_INIT);
 3001              		.loc 1 309 5 discriminator 3 view .LVU858
 3002              	.LBE59:
 310:../Switch/core/yt/yt_port.c ****     CMM_PARAM_CHK((!(CMM_PORT_VALID(unit, port))), CMM_ERR_PORT);
 3003              		.loc 1 310 5 is_stmt 1 discriminator 1 view .LVU859
 310:../Switch/core/yt/yt_port.c ****     CMM_PARAM_CHK((!(CMM_PORT_VALID(unit, port))), CMM_ERR_PORT);
 3004              		.loc 1 310 5 discriminator 1 view .LVU860
 3005 006e 184B     		ldr	r3, .L311+12
 3006 0070 1B78     		ldrb	r3, [r3]	@ zero_extendqisi2
 3007 0072 012B     		cmp	r3, #1
 3008 0074 01D8     		bhi	.L308
 3009              	.LVL397:
 3010              	.L295:
 310:../Switch/core/yt/yt_port.c ****     CMM_PARAM_CHK((!(CMM_PORT_VALID(unit, port))), CMM_ERR_PORT);
 3011              		.loc 1 310 5 discriminator 5 view .LVU861
 310:../Switch/core/yt/yt_port.c ****     CMM_PARAM_CHK((!(CMM_PORT_VALID(unit, port))), CMM_ERR_PORT);
 3012              		.loc 1 310 5 discriminator 5 view .LVU862
 310:../Switch/core/yt/yt_port.c ****     CMM_PARAM_CHK((!(CMM_PORT_VALID(unit, port))), CMM_ERR_PORT);
 3013              		.loc 1 310 5 discriminator 5 view .LVU863
 3014 0076 0420     		movs	r0, #4
 3015 0078 DCE7     		b	.L288
 3016              	.LVL398:
 3017              	.L308:
 310:../Switch/core/yt/yt_port.c ****     CMM_PARAM_CHK((!(CMM_PORT_VALID(unit, port))), CMM_ERR_PORT);
 3018              		.loc 1 310 5 discriminator 3 view .LVU864
 3019              	.LBB60:
 310:../Switch/core/yt/yt_port.c ****     CMM_PARAM_CHK((!(CMM_PORT_VALID(unit, port))), CMM_ERR_PORT);
 3020              		.loc 1 310 5 discriminator 3 view .LVU865
 3021 007a 164B     		ldr	r3, .L311+16
 3022 007c 1A69     		ldr	r2, [r3, #16]
 3023              	.LVL399:
 310:../Switch/core/yt/yt_port.c ****     CMM_PARAM_CHK((!(CMM_PORT_VALID(unit, port))), CMM_ERR_PORT);
 3024              		.loc 1 310 5 is_stmt 0 discriminator 3 view .LVU866
 3025 007e 164B     		ldr	r3, .L311+20
 3026 0080 9968     		ldr	r1, [r3, #8]
 3027              	.LVL400:
 310:../Switch/core/yt/yt_port.c ****     CMM_PARAM_CHK((!(CMM_PORT_VALID(unit, port))), CMM_ERR_PORT);
 3028              		.loc 1 310 5 discriminator 3 view .LVU867
 3029 0082 1648     		ldr	r0, .L311+24
 3030 0084 FFF7FEFF 		bl	osal_printf
 3031              	.LVL401:
 3032 0088 F5E7     		b	.L295
 3033              	.LVL402:
 3034              	.L296:
 310:../Switch/core/yt/yt_port.c ****     CMM_PARAM_CHK((!(CMM_PORT_VALID(unit, port))), CMM_ERR_PORT);
 3035              		.loc 1 310 5 discriminator 3 view .LVU868
 3036              	.LBE60:
 311:../Switch/core/yt/yt_port.c ****     CMM_PARAM_CHK((NULL == pEnable), CMM_ERR_NULL_POINT);
 3037              		.loc 1 311 5 is_stmt 1 discriminator 3 view .LVU869
 311:../Switch/core/yt/yt_port.c ****     CMM_PARAM_CHK((NULL == pEnable), CMM_ERR_NULL_POINT);
 3038              		.loc 1 311 5 discriminator 3 view .LVU870
 3039 008a 114B     		ldr	r3, .L311+12
 3040 008c 1B78     		ldrb	r3, [r3]	@ zero_extendqisi2
 3041 008e 012B     		cmp	r3, #1
 3042 0090 01D8     		bhi	.L309
 3043              	.LVL403:
 3044              	.L298:
 311:../Switch/core/yt/yt_port.c ****     CMM_PARAM_CHK((NULL == pEnable), CMM_ERR_NULL_POINT);
 3045              		.loc 1 311 5 discriminator 7 view .LVU871
 311:../Switch/core/yt/yt_port.c ****     CMM_PARAM_CHK((NULL == pEnable), CMM_ERR_NULL_POINT);
 3046              		.loc 1 311 5 discriminator 7 view .LVU872
 311:../Switch/core/yt/yt_port.c ****     CMM_PARAM_CHK((NULL == pEnable), CMM_ERR_NULL_POINT);
 3047              		.loc 1 311 5 discriminator 7 view .LVU873
 3048 0092 0E20     		movs	r0, #14
 3049 0094 CEE7     		b	.L288
 3050              	.LVL404:
 3051              	.L309:
 311:../Switch/core/yt/yt_port.c ****     CMM_PARAM_CHK((NULL == pEnable), CMM_ERR_NULL_POINT);
 3052              		.loc 1 311 5 discriminator 5 view .LVU874
 3053              	.LBB61:
 311:../Switch/core/yt/yt_port.c ****     CMM_PARAM_CHK((NULL == pEnable), CMM_ERR_NULL_POINT);
 3054              		.loc 1 311 5 discriminator 5 view .LVU875
 3055 0096 0F4B     		ldr	r3, .L311+16
 3056 0098 9A6B     		ldr	r2, [r3, #56]
 3057              	.LVL405:
 311:../Switch/core/yt/yt_port.c ****     CMM_PARAM_CHK((NULL == pEnable), CMM_ERR_NULL_POINT);
 3058              		.loc 1 311 5 is_stmt 0 discriminator 5 view .LVU876
 3059 009a 0F4B     		ldr	r3, .L311+20
 3060 009c 9968     		ldr	r1, [r3, #8]
 3061              	.LVL406:
 311:../Switch/core/yt/yt_port.c ****     CMM_PARAM_CHK((NULL == pEnable), CMM_ERR_NULL_POINT);
 3062              		.loc 1 311 5 discriminator 5 view .LVU877
 3063 009e 0F48     		ldr	r0, .L311+24
 3064 00a0 FFF7FEFF 		bl	osal_printf
 3065              	.LVL407:
 3066 00a4 F5E7     		b	.L298
 3067              	.LVL408:
 3068              	.L305:
 311:../Switch/core/yt/yt_port.c ****     CMM_PARAM_CHK((NULL == pEnable), CMM_ERR_NULL_POINT);
 3069              		.loc 1 311 5 discriminator 5 view .LVU878
 3070              	.LBE61:
 312:../Switch/core/yt/yt_port.c **** 
 3071              		.loc 1 312 5 is_stmt 1 discriminator 1 view .LVU879
 312:../Switch/core/yt/yt_port.c **** 
 3072              		.loc 1 312 5 discriminator 1 view .LVU880
 3073 00a6 0A4B     		ldr	r3, .L311+12
 3074 00a8 1B78     		ldrb	r3, [r3]	@ zero_extendqisi2
 3075 00aa 012B     		cmp	r3, #1
 3076 00ac 01D8     		bhi	.L310
 3077              	.LVL409:
 3078              	.L300:
 312:../Switch/core/yt/yt_port.c **** 
 3079              		.loc 1 312 5 discriminator 5 view .LVU881
 312:../Switch/core/yt/yt_port.c **** 
 3080              		.loc 1 312 5 discriminator 5 view .LVU882
 312:../Switch/core/yt/yt_port.c **** 
 3081              		.loc 1 312 5 discriminator 5 view .LVU883
 3082 00ae 0220     		movs	r0, #2
 3083 00b0 C0E7     		b	.L288
 3084              	.LVL410:
 3085              	.L310:
 312:../Switch/core/yt/yt_port.c **** 
 3086              		.loc 1 312 5 discriminator 3 view .LVU884
 3087              	.LBB62:
 312:../Switch/core/yt/yt_port.c **** 
 3088              		.loc 1 312 5 discriminator 3 view .LVU885
 3089 00b2 084B     		ldr	r3, .L311+16
 3090 00b4 9A68     		ldr	r2, [r3, #8]
 3091              	.LVL411:
 312:../Switch/core/yt/yt_port.c **** 
 3092              		.loc 1 312 5 is_stmt 0 discriminator 3 view .LVU886
 3093 00b6 084B     		ldr	r3, .L311+20
 3094 00b8 9968     		ldr	r1, [r3, #8]
 3095              	.LVL412:
 312:../Switch/core/yt/yt_port.c **** 
 3096              		.loc 1 312 5 discriminator 3 view .LVU887
 3097 00ba 0848     		ldr	r0, .L311+24
 3098 00bc FFF7FEFF 		bl	osal_printf
 3099              	.LVL413:
 3100 00c0 F5E7     		b	.L300
 3101              	.L312:
 3102 00c2 00BF     		.align	2
 3103              	.L311:
 3104 00c4 00000000 		.word	gpfal_dispatch
 3105 00c8 00000000 		.word	gcal_inited
 3106 00cc 00000000 		.word	gpSwitchUnit
 3107 00d0 00000000 		.word	yt_debug_level
 3108 00d4 00000000 		.word	_yt_errmsg
 3109 00d8 00000000 		.word	_yt_prompt_msg
 3110 00dc 00000000 		.word	.LC0
 3111              	.LBE62:
 3112              		.cfi_endproc
 3113              	.LFE15:
 3115              		.section	.text.yt_port_mac_force_set,"ax",%progbits
 3116              		.align	1
 3117              		.global	yt_port_mac_force_set
 3118              		.syntax unified
 3119              		.thumb
 3120              		.thumb_func
 3122              	yt_port_mac_force_set:
 3123              	.LVL414:
 3124              	.LFB16:
 316:../Switch/core/yt/yt_port.c **** 
 317:../Switch/core/yt/yt_port.c **** /**
 318:../Switch/core/yt/yt_port.c ****  * @internal      yt_port_mac_force_set
 319:../Switch/core/yt/yt_port.c ****  * @endinternal
 320:../Switch/core/yt/yt_port.c ****  *
 321:../Switch/core/yt/yt_port.c ****  * @brief         Description
 322:../Switch/core/yt/yt_port.c ****  * @note          APPLICABLE DEVICES  -Tiger
 323:../Switch/core/yt/yt_port.c ****  * @param[in]     unit                -unit id
 324:../Switch/core/yt/yt_port.c ****  * @param[in]     port                -port num
 325:../Switch/core/yt/yt_port.c ****  * @param[in]     port_ctrl           -x
 326:../Switch/core/yt/yt_port.c ****  * @retval        CMM_ERR_OK          -on success
 327:../Switch/core/yt/yt_port.c ****  * @retval        CMM_ERR_FAIL        -on fail
 328:../Switch/core/yt/yt_port.c ****  */
 329:../Switch/core/yt/yt_port.c **** yt_ret_t yt_port_mac_force_set(yt_unit_t unit, yt_port_t port, yt_port_force_ctrl_t port_ctrl)
 330:../Switch/core/yt/yt_port.c **** {
 3125              		.loc 1 330 1 is_stmt 1 view -0
 3126              		.cfi_startproc
 3127              		@ args = 0, pretend = 0, frame = 8
 3128              		@ frame_needed = 0, uses_anonymous_args = 0
 3129              		.loc 1 330 1 is_stmt 0 view .LVU889
 3130 0000 00B5     		push	{lr}
 3131              		.cfi_def_cfa_offset 4
 3132              		.cfi_offset 14, -4
 3133 0002 83B0     		sub	sp, sp, #12
 3134              		.cfi_def_cfa_offset 16
 3135 0004 0192     		str	r2, [sp, #4]
 331:../Switch/core/yt/yt_port.c ****     CMM_PARAM_CHK((YT_UNIT_NUM <= unit), CMM_ERR_INPUT);
 3136              		.loc 1 331 5 is_stmt 1 view .LVU890
 3137              		.loc 1 331 5 view .LVU891
 3138 0006 B8B9     		cbnz	r0, .L325
 3139              		.loc 1 331 5 discriminator 2 view .LVU892
 332:../Switch/core/yt/yt_port.c ****     CMM_PARAM_CHK(NULL == YT_DISPATCH(unit), CMM_ERR_NOT_INIT);
 3140              		.loc 1 332 5 discriminator 2 view .LVU893
 3141              		.loc 1 332 5 discriminator 2 view .LVU894
 3142 0008 274B     		ldr	r3, .L332
 3143 000a 53F82030 		ldr	r3, [r3, r0, lsl #2]
 3144 000e 0BB3     		cbz	r3, .L326
 3145              		.loc 1 332 5 discriminator 2 view .LVU895
 333:../Switch/core/yt/yt_port.c ****     CMM_PARAM_CHK((!(YT_DISPATCH(unit)->is_inited)), CMM_ERR_NOT_INIT);
 3146              		.loc 1 333 5 discriminator 2 view .LVU896
 3147              		.loc 1 333 5 discriminator 2 view .LVU897
 3148 0010 1A78     		ldrb	r2, [r3]	@ zero_extendqisi2
 3149 0012 002A     		cmp	r2, #0
 3150 0014 2CD0     		beq	.L327
 3151              		.loc 1 333 5 discriminator 2 view .LVU898
 334:../Switch/core/yt/yt_port.c ****     CMM_PARAM_CHK((!(CMM_PORT_VALID(unit, port))), CMM_ERR_PORT);
 3152              		.loc 1 334 5 discriminator 2 view .LVU899
 3153              		.loc 1 334 5 discriminator 2 view .LVU900
 3154 0016 254A     		ldr	r2, .L332+4
 3155 0018 1278     		ldrb	r2, [r2]	@ zero_extendqisi2
 3156 001a 002A     		cmp	r2, #0
 3157 001c 36D0     		beq	.L321
 3158 001e 244A     		ldr	r2, .L332+8
 3159 0020 52F82020 		ldr	r2, [r2, r0, lsl #2]
 3160 0024 127D     		ldrb	r2, [r2, #20]	@ zero_extendqisi2
 3161 0026 8A42     		cmp	r2, r1
 3162 0028 30D9     		bls	.L321
 3163              		.loc 1 334 5 discriminator 4 view .LVU901
 335:../Switch/core/yt/yt_port.c **** 
 336:../Switch/core/yt/yt_port.c ****     return YT_DISPATCH(unit)->port_mac_force_set(unit, port, port_ctrl);
 3164              		.loc 1 336 5 discriminator 4 view .LVU902
 3165              		.loc 1 336 29 is_stmt 0 discriminator 4 view .LVU903
 3166 002a D3F88435 		ldr	r3, [r3, #1412]
 3167              		.loc 1 336 12 discriminator 4 view .LVU904
 3168 002e 019A     		ldr	r2, [sp, #4]
 3169 0030 9847     		blx	r3
 3170              	.LVL415:
 3171              	.L313:
 337:../Switch/core/yt/yt_port.c **** }
 3172              		.loc 1 337 1 view .LVU905
 3173 0032 03B0     		add	sp, sp, #12
 3174              		.cfi_remember_state
 3175              		.cfi_def_cfa_offset 4
 3176              		@ sp needed
 3177 0034 5DF804FB 		ldr	pc, [sp], #4
 3178              	.LVL416:
 3179              	.L325:
 3180              		.cfi_restore_state
 331:../Switch/core/yt/yt_port.c ****     CMM_PARAM_CHK(NULL == YT_DISPATCH(unit), CMM_ERR_NOT_INIT);
 3181              		.loc 1 331 5 is_stmt 1 discriminator 1 view .LVU906
 331:../Switch/core/yt/yt_port.c ****     CMM_PARAM_CHK(NULL == YT_DISPATCH(unit), CMM_ERR_NOT_INIT);
 3182              		.loc 1 331 5 discriminator 1 view .LVU907
 3183 0038 1E4B     		ldr	r3, .L332+12
 3184 003a 1B78     		ldrb	r3, [r3]	@ zero_extendqisi2
 3185 003c 012B     		cmp	r3, #1
 3186 003e 01D8     		bhi	.L328
 3187              	.LVL417:
 3188              	.L315:
 331:../Switch/core/yt/yt_port.c ****     CMM_PARAM_CHK(NULL == YT_DISPATCH(unit), CMM_ERR_NOT_INIT);
 3189              		.loc 1 331 5 discriminator 5 view .LVU908
 331:../Switch/core/yt/yt_port.c ****     CMM_PARAM_CHK(NULL == YT_DISPATCH(unit), CMM_ERR_NOT_INIT);
 3190              		.loc 1 331 5 discriminator 5 view .LVU909
 331:../Switch/core/yt/yt_port.c ****     CMM_PARAM_CHK(NULL == YT_DISPATCH(unit), CMM_ERR_NOT_INIT);
 3191              		.loc 1 331 5 discriminator 5 view .LVU910
 3192 0040 0520     		movs	r0, #5
 3193 0042 F6E7     		b	.L313
 3194              	.LVL418:
 3195              	.L328:
 331:../Switch/core/yt/yt_port.c ****     CMM_PARAM_CHK(NULL == YT_DISPATCH(unit), CMM_ERR_NOT_INIT);
 3196              		.loc 1 331 5 discriminator 3 view .LVU911
 3197              	.LBB63:
 331:../Switch/core/yt/yt_port.c ****     CMM_PARAM_CHK(NULL == YT_DISPATCH(unit), CMM_ERR_NOT_INIT);
 3198              		.loc 1 331 5 discriminator 3 view .LVU912
 3199 0044 1C4B     		ldr	r3, .L332+16
 3200 0046 5A69     		ldr	r2, [r3, #20]
 3201 0048 1C4B     		ldr	r3, .L332+20
 3202 004a 9968     		ldr	r1, [r3, #8]
 3203              	.LVL419:
 331:../Switch/core/yt/yt_port.c ****     CMM_PARAM_CHK(NULL == YT_DISPATCH(unit), CMM_ERR_NOT_INIT);
 3204              		.loc 1 331 5 is_stmt 0 discriminator 3 view .LVU913
 3205 004c 1C48     		ldr	r0, .L332+24
 3206              	.LVL420:
 331:../Switch/core/yt/yt_port.c ****     CMM_PARAM_CHK(NULL == YT_DISPATCH(unit), CMM_ERR_NOT_INIT);
 3207              		.loc 1 331 5 discriminator 3 view .LVU914
 3208 004e FFF7FEFF 		bl	osal_printf
 3209              	.LVL421:
 3210 0052 F5E7     		b	.L315
 3211              	.LVL422:
 3212              	.L326:
 331:../Switch/core/yt/yt_port.c ****     CMM_PARAM_CHK(NULL == YT_DISPATCH(unit), CMM_ERR_NOT_INIT);
 3213              		.loc 1 331 5 discriminator 3 view .LVU915
 3214              	.LBE63:
 332:../Switch/core/yt/yt_port.c ****     CMM_PARAM_CHK((!(YT_DISPATCH(unit)->is_inited)), CMM_ERR_NOT_INIT);
 3215              		.loc 1 332 5 is_stmt 1 discriminator 1 view .LVU916
 332:../Switch/core/yt/yt_port.c ****     CMM_PARAM_CHK((!(YT_DISPATCH(unit)->is_inited)), CMM_ERR_NOT_INIT);
 3216              		.loc 1 332 5 discriminator 1 view .LVU917
 3217 0054 174B     		ldr	r3, .L332+12
 3218 0056 1B78     		ldrb	r3, [r3]	@ zero_extendqisi2
 3219 0058 012B     		cmp	r3, #1
 3220 005a 01D8     		bhi	.L329
 3221              	.LVL423:
 3222              	.L318:
 332:../Switch/core/yt/yt_port.c ****     CMM_PARAM_CHK((!(YT_DISPATCH(unit)->is_inited)), CMM_ERR_NOT_INIT);
 3223              		.loc 1 332 5 discriminator 5 view .LVU918
 332:../Switch/core/yt/yt_port.c ****     CMM_PARAM_CHK((!(YT_DISPATCH(unit)->is_inited)), CMM_ERR_NOT_INIT);
 3224              		.loc 1 332 5 discriminator 5 view .LVU919
 332:../Switch/core/yt/yt_port.c ****     CMM_PARAM_CHK((!(YT_DISPATCH(unit)->is_inited)), CMM_ERR_NOT_INIT);
 3225              		.loc 1 332 5 discriminator 5 view .LVU920
 3226 005c 0420     		movs	r0, #4
 3227 005e E8E7     		b	.L313
 3228              	.LVL424:
 3229              	.L329:
 332:../Switch/core/yt/yt_port.c ****     CMM_PARAM_CHK((!(YT_DISPATCH(unit)->is_inited)), CMM_ERR_NOT_INIT);
 3230              		.loc 1 332 5 discriminator 3 view .LVU921
 3231              	.LBB64:
 332:../Switch/core/yt/yt_port.c ****     CMM_PARAM_CHK((!(YT_DISPATCH(unit)->is_inited)), CMM_ERR_NOT_INIT);
 3232              		.loc 1 332 5 discriminator 3 view .LVU922
 3233 0060 154B     		ldr	r3, .L332+16
 3234 0062 1A69     		ldr	r2, [r3, #16]
 3235 0064 154B     		ldr	r3, .L332+20
 3236 0066 9968     		ldr	r1, [r3, #8]
 3237              	.LVL425:
 332:../Switch/core/yt/yt_port.c ****     CMM_PARAM_CHK((!(YT_DISPATCH(unit)->is_inited)), CMM_ERR_NOT_INIT);
 3238              		.loc 1 332 5 is_stmt 0 discriminator 3 view .LVU923
 3239 0068 1548     		ldr	r0, .L332+24
 3240              	.LVL426:
 332:../Switch/core/yt/yt_port.c ****     CMM_PARAM_CHK((!(YT_DISPATCH(unit)->is_inited)), CMM_ERR_NOT_INIT);
 3241              		.loc 1 332 5 discriminator 3 view .LVU924
 3242 006a FFF7FEFF 		bl	osal_printf
 3243              	.LVL427:
 3244 006e F5E7     		b	.L318
 3245              	.LVL428:
 3246              	.L327:
 332:../Switch/core/yt/yt_port.c ****     CMM_PARAM_CHK((!(YT_DISPATCH(unit)->is_inited)), CMM_ERR_NOT_INIT);
 3247              		.loc 1 332 5 discriminator 3 view .LVU925
 3248              	.LBE64:
 333:../Switch/core/yt/yt_port.c ****     CMM_PARAM_CHK((!(CMM_PORT_VALID(unit, port))), CMM_ERR_PORT);
 3249              		.loc 1 333 5 is_stmt 1 discriminator 1 view .LVU926
 333:../Switch/core/yt/yt_port.c ****     CMM_PARAM_CHK((!(CMM_PORT_VALID(unit, port))), CMM_ERR_PORT);
 3250              		.loc 1 333 5 discriminator 1 view .LVU927
 3251 0070 104B     		ldr	r3, .L332+12
 3252 0072 1B78     		ldrb	r3, [r3]	@ zero_extendqisi2
 3253 0074 012B     		cmp	r3, #1
 3254 0076 01D8     		bhi	.L330
 3255              	.LVL429:
 3256              	.L320:
 333:../Switch/core/yt/yt_port.c ****     CMM_PARAM_CHK((!(CMM_PORT_VALID(unit, port))), CMM_ERR_PORT);
 3257              		.loc 1 333 5 discriminator 5 view .LVU928
 333:../Switch/core/yt/yt_port.c ****     CMM_PARAM_CHK((!(CMM_PORT_VALID(unit, port))), CMM_ERR_PORT);
 3258              		.loc 1 333 5 discriminator 5 view .LVU929
 333:../Switch/core/yt/yt_port.c ****     CMM_PARAM_CHK((!(CMM_PORT_VALID(unit, port))), CMM_ERR_PORT);
 3259              		.loc 1 333 5 discriminator 5 view .LVU930
 3260 0078 0420     		movs	r0, #4
 3261 007a DAE7     		b	.L313
 3262              	.LVL430:
 3263              	.L330:
 333:../Switch/core/yt/yt_port.c ****     CMM_PARAM_CHK((!(CMM_PORT_VALID(unit, port))), CMM_ERR_PORT);
 3264              		.loc 1 333 5 discriminator 3 view .LVU931
 3265              	.LBB65:
 333:../Switch/core/yt/yt_port.c ****     CMM_PARAM_CHK((!(CMM_PORT_VALID(unit, port))), CMM_ERR_PORT);
 3266              		.loc 1 333 5 discriminator 3 view .LVU932
 3267 007c 0E4B     		ldr	r3, .L332+16
 3268 007e 1A69     		ldr	r2, [r3, #16]
 3269 0080 0E4B     		ldr	r3, .L332+20
 3270 0082 9968     		ldr	r1, [r3, #8]
 3271              	.LVL431:
 333:../Switch/core/yt/yt_port.c ****     CMM_PARAM_CHK((!(CMM_PORT_VALID(unit, port))), CMM_ERR_PORT);
 3272              		.loc 1 333 5 is_stmt 0 discriminator 3 view .LVU933
 3273 0084 0E48     		ldr	r0, .L332+24
 3274              	.LVL432:
 333:../Switch/core/yt/yt_port.c ****     CMM_PARAM_CHK((!(CMM_PORT_VALID(unit, port))), CMM_ERR_PORT);
 3275              		.loc 1 333 5 discriminator 3 view .LVU934
 3276 0086 FFF7FEFF 		bl	osal_printf
 3277              	.LVL433:
 3278 008a F5E7     		b	.L320
 3279              	.LVL434:
 3280              	.L321:
 333:../Switch/core/yt/yt_port.c ****     CMM_PARAM_CHK((!(CMM_PORT_VALID(unit, port))), CMM_ERR_PORT);
 3281              		.loc 1 333 5 discriminator 3 view .LVU935
 3282              	.LBE65:
 334:../Switch/core/yt/yt_port.c **** 
 3283              		.loc 1 334 5 is_stmt 1 discriminator 3 view .LVU936
 334:../Switch/core/yt/yt_port.c **** 
 3284              		.loc 1 334 5 discriminator 3 view .LVU937
 3285 008c 094B     		ldr	r3, .L332+12
 3286 008e 1B78     		ldrb	r3, [r3]	@ zero_extendqisi2
 3287 0090 012B     		cmp	r3, #1
 3288 0092 01D8     		bhi	.L331
 3289              	.LVL435:
 3290              	.L323:
 334:../Switch/core/yt/yt_port.c **** 
 3291              		.loc 1 334 5 discriminator 7 view .LVU938
 334:../Switch/core/yt/yt_port.c **** 
 3292              		.loc 1 334 5 discriminator 7 view .LVU939
 334:../Switch/core/yt/yt_port.c **** 
 3293              		.loc 1 334 5 discriminator 7 view .LVU940
 3294 0094 0E20     		movs	r0, #14
 3295 0096 CCE7     		b	.L313
 3296              	.LVL436:
 3297              	.L331:
 334:../Switch/core/yt/yt_port.c **** 
 3298              		.loc 1 334 5 discriminator 5 view .LVU941
 3299              	.LBB66:
 334:../Switch/core/yt/yt_port.c **** 
 3300              		.loc 1 334 5 discriminator 5 view .LVU942
 3301 0098 074B     		ldr	r3, .L332+16
 3302 009a 9A6B     		ldr	r2, [r3, #56]
 3303 009c 074B     		ldr	r3, .L332+20
 3304 009e 9968     		ldr	r1, [r3, #8]
 3305              	.LVL437:
 334:../Switch/core/yt/yt_port.c **** 
 3306              		.loc 1 334 5 is_stmt 0 discriminator 5 view .LVU943
 3307 00a0 0748     		ldr	r0, .L332+24
 3308              	.LVL438:
 334:../Switch/core/yt/yt_port.c **** 
 3309              		.loc 1 334 5 discriminator 5 view .LVU944
 3310 00a2 FFF7FEFF 		bl	osal_printf
 3311              	.LVL439:
 3312 00a6 F5E7     		b	.L323
 3313              	.L333:
 3314              		.align	2
 3315              	.L332:
 3316 00a8 00000000 		.word	gpfal_dispatch
 3317 00ac 00000000 		.word	gcal_inited
 3318 00b0 00000000 		.word	gpSwitchUnit
 3319 00b4 00000000 		.word	yt_debug_level
 3320 00b8 00000000 		.word	_yt_errmsg
 3321 00bc 00000000 		.word	_yt_prompt_msg
 3322 00c0 00000000 		.word	.LC0
 3323              	.LBE66:
 3324              		.cfi_endproc
 3325              	.LFE16:
 3327              		.section	.text.yt_port_mac_force_get,"ax",%progbits
 3328              		.align	1
 3329              		.global	yt_port_mac_force_get
 3330              		.syntax unified
 3331              		.thumb
 3332              		.thumb_func
 3334              	yt_port_mac_force_get:
 3335              	.LVL440:
 3336              	.LFB17:
 338:../Switch/core/yt/yt_port.c **** 
 339:../Switch/core/yt/yt_port.c **** /**
 340:../Switch/core/yt/yt_port.c ****  * @internal      yt_port_mac_force_get
 341:../Switch/core/yt/yt_port.c ****  * @endinternal
 342:../Switch/core/yt/yt_port.c ****  *
 343:../Switch/core/yt/yt_port.c ****  * @brief         Description
 344:../Switch/core/yt/yt_port.c ****  * @note          APPLICABLE DEVICES  -Tiger
 345:../Switch/core/yt/yt_port.c ****  * @param[in]     unit                -unit id
 346:../Switch/core/yt/yt_port.c ****  * @param[in]     port                -port num
 347:../Switch/core/yt/yt_port.c ****  * @param[out]    pPort_ctrl          -x
 348:../Switch/core/yt/yt_port.c ****  * @retval        CMM_ERR_OK          -on success
 349:../Switch/core/yt/yt_port.c ****  * @retval        CMM_ERR_FAIL        -on fail
 350:../Switch/core/yt/yt_port.c ****  */
 351:../Switch/core/yt/yt_port.c **** yt_ret_t yt_port_mac_force_get(yt_unit_t unit, yt_port_t port, yt_port_force_ctrl_t *pPort_ctrl)
 352:../Switch/core/yt/yt_port.c **** {
 3337              		.loc 1 352 1 is_stmt 1 view -0
 3338              		.cfi_startproc
 3339              		@ args = 0, pretend = 0, frame = 0
 3340              		@ frame_needed = 0, uses_anonymous_args = 0
 3341              		.loc 1 352 1 is_stmt 0 view .LVU946
 3342 0000 08B5     		push	{r3, lr}
 3343              		.cfi_def_cfa_offset 8
 3344              		.cfi_offset 3, -8
 3345              		.cfi_offset 14, -4
 353:../Switch/core/yt/yt_port.c ****     CMM_PARAM_CHK((YT_UNIT_NUM <= unit), CMM_ERR_INPUT);
 3346              		.loc 1 353 5 is_stmt 1 view .LVU947
 3347              		.loc 1 353 5 view .LVU948
 3348 0002 C0B9     		cbnz	r0, .L348
 3349 0004 8446     		mov	ip, r0
 3350              		.loc 1 353 5 discriminator 2 view .LVU949
 354:../Switch/core/yt/yt_port.c ****     CMM_PARAM_CHK(NULL == YT_DISPATCH(unit), CMM_ERR_NOT_INIT);
 3351              		.loc 1 354 5 discriminator 2 view .LVU950
 3352              		.loc 1 354 5 discriminator 2 view .LVU951
 3353 0006 2F4B     		ldr	r3, .L357
 3354 0008 53F82030 		ldr	r3, [r3, r0, lsl #2]
 3355 000c 0BB3     		cbz	r3, .L349
 3356              		.loc 1 354 5 discriminator 2 view .LVU952
 355:../Switch/core/yt/yt_port.c ****     CMM_PARAM_CHK((!(YT_DISPATCH(unit)->is_inited)), CMM_ERR_NOT_INIT);
 3357              		.loc 1 355 5 discriminator 2 view .LVU953
 3358              		.loc 1 355 5 discriminator 2 view .LVU954
 3359 000e 1878     		ldrb	r0, [r3]	@ zero_extendqisi2
 3360              	.LVL441:
 3361              		.loc 1 355 5 is_stmt 0 discriminator 2 view .LVU955
 3362 0010 0028     		cmp	r0, #0
 3363 0012 2CD0     		beq	.L350
 3364              		.loc 1 355 5 is_stmt 1 discriminator 2 view .LVU956
 356:../Switch/core/yt/yt_port.c ****     CMM_PARAM_CHK((!(CMM_PORT_VALID(unit, port))), CMM_ERR_PORT);
 3365              		.loc 1 356 5 discriminator 2 view .LVU957
 3366              		.loc 1 356 5 discriminator 2 view .LVU958
 3367 0014 2C48     		ldr	r0, .L357+4
 3368 0016 0078     		ldrb	r0, [r0]	@ zero_extendqisi2
 3369 0018 0028     		cmp	r0, #0
 3370 001a 36D0     		beq	.L342
 3371 001c 2B48     		ldr	r0, .L357+8
 3372 001e 50F82C00 		ldr	r0, [r0, ip, lsl #2]
 3373 0022 007D     		ldrb	r0, [r0, #20]	@ zero_extendqisi2
 3374 0024 8842     		cmp	r0, r1
 3375 0026 30D9     		bls	.L342
 3376              		.loc 1 356 5 discriminator 4 view .LVU959
 357:../Switch/core/yt/yt_port.c ****     CMM_PARAM_CHK((NULL == pPort_ctrl), CMM_ERR_NULL_POINT);
 3377              		.loc 1 357 5 discriminator 4 view .LVU960
 3378              		.loc 1 357 5 discriminator 4 view .LVU961
 3379 0028 002A     		cmp	r2, #0
 3380 002a 3CD0     		beq	.L351
 3381              		.loc 1 357 5 discriminator 2 view .LVU962
 358:../Switch/core/yt/yt_port.c **** 
 359:../Switch/core/yt/yt_port.c ****     return YT_DISPATCH(unit)->port_mac_force_get(unit, port, pPort_ctrl);
 3382              		.loc 1 359 5 discriminator 2 view .LVU963
 3383              		.loc 1 359 29 is_stmt 0 discriminator 2 view .LVU964
 3384 002c D3F88835 		ldr	r3, [r3, #1416]
 3385              		.loc 1 359 12 discriminator 2 view .LVU965
 3386 0030 6046     		mov	r0, ip
 3387 0032 9847     		blx	r3
 3388              	.LVL442:
 3389              	.L334:
 360:../Switch/core/yt/yt_port.c **** }
 3390              		.loc 1 360 1 view .LVU966
 3391 0034 08BD     		pop	{r3, pc}
 3392              	.LVL443:
 3393              	.L348:
 353:../Switch/core/yt/yt_port.c ****     CMM_PARAM_CHK(NULL == YT_DISPATCH(unit), CMM_ERR_NOT_INIT);
 3394              		.loc 1 353 5 is_stmt 1 discriminator 1 view .LVU967
 353:../Switch/core/yt/yt_port.c ****     CMM_PARAM_CHK(NULL == YT_DISPATCH(unit), CMM_ERR_NOT_INIT);
 3395              		.loc 1 353 5 discriminator 1 view .LVU968
 3396 0036 264B     		ldr	r3, .L357+12
 3397 0038 1B78     		ldrb	r3, [r3]	@ zero_extendqisi2
 3398 003a 012B     		cmp	r3, #1
 3399 003c 01D8     		bhi	.L352
 3400              	.LVL444:
 3401              	.L336:
 353:../Switch/core/yt/yt_port.c ****     CMM_PARAM_CHK(NULL == YT_DISPATCH(unit), CMM_ERR_NOT_INIT);
 3402              		.loc 1 353 5 discriminator 5 view .LVU969
 353:../Switch/core/yt/yt_port.c ****     CMM_PARAM_CHK(NULL == YT_DISPATCH(unit), CMM_ERR_NOT_INIT);
 3403              		.loc 1 353 5 discriminator 5 view .LVU970
 353:../Switch/core/yt/yt_port.c ****     CMM_PARAM_CHK(NULL == YT_DISPATCH(unit), CMM_ERR_NOT_INIT);
 3404              		.loc 1 353 5 discriminator 5 view .LVU971
 3405 003e 0520     		movs	r0, #5
 3406 0040 F8E7     		b	.L334
 3407              	.LVL445:
 3408              	.L352:
 353:../Switch/core/yt/yt_port.c ****     CMM_PARAM_CHK(NULL == YT_DISPATCH(unit), CMM_ERR_NOT_INIT);
 3409              		.loc 1 353 5 discriminator 3 view .LVU972
 3410              	.LBB67:
 353:../Switch/core/yt/yt_port.c ****     CMM_PARAM_CHK(NULL == YT_DISPATCH(unit), CMM_ERR_NOT_INIT);
 3411              		.loc 1 353 5 discriminator 3 view .LVU973
 3412 0042 244B     		ldr	r3, .L357+16
 3413 0044 5A69     		ldr	r2, [r3, #20]
 3414              	.LVL446:
 353:../Switch/core/yt/yt_port.c ****     CMM_PARAM_CHK(NULL == YT_DISPATCH(unit), CMM_ERR_NOT_INIT);
 3415              		.loc 1 353 5 is_stmt 0 discriminator 3 view .LVU974
 3416 0046 244B     		ldr	r3, .L357+20
 3417 0048 9968     		ldr	r1, [r3, #8]
 3418              	.LVL447:
 353:../Switch/core/yt/yt_port.c ****     CMM_PARAM_CHK(NULL == YT_DISPATCH(unit), CMM_ERR_NOT_INIT);
 3419              		.loc 1 353 5 discriminator 3 view .LVU975
 3420 004a 2448     		ldr	r0, .L357+24
 3421              	.LVL448:
 353:../Switch/core/yt/yt_port.c ****     CMM_PARAM_CHK(NULL == YT_DISPATCH(unit), CMM_ERR_NOT_INIT);
 3422              		.loc 1 353 5 discriminator 3 view .LVU976
 3423 004c FFF7FEFF 		bl	osal_printf
 3424              	.LVL449:
 3425 0050 F5E7     		b	.L336
 3426              	.LVL450:
 3427              	.L349:
 353:../Switch/core/yt/yt_port.c ****     CMM_PARAM_CHK(NULL == YT_DISPATCH(unit), CMM_ERR_NOT_INIT);
 3428              		.loc 1 353 5 discriminator 3 view .LVU977
 3429              	.LBE67:
 354:../Switch/core/yt/yt_port.c ****     CMM_PARAM_CHK((!(YT_DISPATCH(unit)->is_inited)), CMM_ERR_NOT_INIT);
 3430              		.loc 1 354 5 is_stmt 1 discriminator 1 view .LVU978
 354:../Switch/core/yt/yt_port.c ****     CMM_PARAM_CHK((!(YT_DISPATCH(unit)->is_inited)), CMM_ERR_NOT_INIT);
 3431              		.loc 1 354 5 discriminator 1 view .LVU979
 3432 0052 1F4B     		ldr	r3, .L357+12
 3433 0054 1B78     		ldrb	r3, [r3]	@ zero_extendqisi2
 3434 0056 012B     		cmp	r3, #1
 3435 0058 01D8     		bhi	.L353
 3436              	.LVL451:
 3437              	.L339:
 354:../Switch/core/yt/yt_port.c ****     CMM_PARAM_CHK((!(YT_DISPATCH(unit)->is_inited)), CMM_ERR_NOT_INIT);
 3438              		.loc 1 354 5 discriminator 5 view .LVU980
 354:../Switch/core/yt/yt_port.c ****     CMM_PARAM_CHK((!(YT_DISPATCH(unit)->is_inited)), CMM_ERR_NOT_INIT);
 3439              		.loc 1 354 5 discriminator 5 view .LVU981
 354:../Switch/core/yt/yt_port.c ****     CMM_PARAM_CHK((!(YT_DISPATCH(unit)->is_inited)), CMM_ERR_NOT_INIT);
 3440              		.loc 1 354 5 discriminator 5 view .LVU982
 3441 005a 0420     		movs	r0, #4
 3442 005c EAE7     		b	.L334
 3443              	.LVL452:
 3444              	.L353:
 354:../Switch/core/yt/yt_port.c ****     CMM_PARAM_CHK((!(YT_DISPATCH(unit)->is_inited)), CMM_ERR_NOT_INIT);
 3445              		.loc 1 354 5 discriminator 3 view .LVU983
 3446              	.LBB68:
 354:../Switch/core/yt/yt_port.c ****     CMM_PARAM_CHK((!(YT_DISPATCH(unit)->is_inited)), CMM_ERR_NOT_INIT);
 3447              		.loc 1 354 5 discriminator 3 view .LVU984
 3448 005e 1D4B     		ldr	r3, .L357+16
 3449 0060 1A69     		ldr	r2, [r3, #16]
 3450              	.LVL453:
 354:../Switch/core/yt/yt_port.c ****     CMM_PARAM_CHK((!(YT_DISPATCH(unit)->is_inited)), CMM_ERR_NOT_INIT);
 3451              		.loc 1 354 5 is_stmt 0 discriminator 3 view .LVU985
 3452 0062 1D4B     		ldr	r3, .L357+20
 3453 0064 9968     		ldr	r1, [r3, #8]
 3454              	.LVL454:
 354:../Switch/core/yt/yt_port.c ****     CMM_PARAM_CHK((!(YT_DISPATCH(unit)->is_inited)), CMM_ERR_NOT_INIT);
 3455              		.loc 1 354 5 discriminator 3 view .LVU986
 3456 0066 1D48     		ldr	r0, .L357+24
 3457              	.LVL455:
 354:../Switch/core/yt/yt_port.c ****     CMM_PARAM_CHK((!(YT_DISPATCH(unit)->is_inited)), CMM_ERR_NOT_INIT);
 3458              		.loc 1 354 5 discriminator 3 view .LVU987
 3459 0068 FFF7FEFF 		bl	osal_printf
 3460              	.LVL456:
 3461 006c F5E7     		b	.L339
 3462              	.LVL457:
 3463              	.L350:
 354:../Switch/core/yt/yt_port.c ****     CMM_PARAM_CHK((!(YT_DISPATCH(unit)->is_inited)), CMM_ERR_NOT_INIT);
 3464              		.loc 1 354 5 discriminator 3 view .LVU988
 3465              	.LBE68:
 355:../Switch/core/yt/yt_port.c ****     CMM_PARAM_CHK((!(CMM_PORT_VALID(unit, port))), CMM_ERR_PORT);
 3466              		.loc 1 355 5 is_stmt 1 discriminator 1 view .LVU989
 355:../Switch/core/yt/yt_port.c ****     CMM_PARAM_CHK((!(CMM_PORT_VALID(unit, port))), CMM_ERR_PORT);
 3467              		.loc 1 355 5 discriminator 1 view .LVU990
 3468 006e 184B     		ldr	r3, .L357+12
 3469 0070 1B78     		ldrb	r3, [r3]	@ zero_extendqisi2
 3470 0072 012B     		cmp	r3, #1
 3471 0074 01D8     		bhi	.L354
 3472              	.LVL458:
 3473              	.L341:
 355:../Switch/core/yt/yt_port.c ****     CMM_PARAM_CHK((!(CMM_PORT_VALID(unit, port))), CMM_ERR_PORT);
 3474              		.loc 1 355 5 discriminator 5 view .LVU991
 355:../Switch/core/yt/yt_port.c ****     CMM_PARAM_CHK((!(CMM_PORT_VALID(unit, port))), CMM_ERR_PORT);
 3475              		.loc 1 355 5 discriminator 5 view .LVU992
 355:../Switch/core/yt/yt_port.c ****     CMM_PARAM_CHK((!(CMM_PORT_VALID(unit, port))), CMM_ERR_PORT);
 3476              		.loc 1 355 5 discriminator 5 view .LVU993
 3477 0076 0420     		movs	r0, #4
 3478 0078 DCE7     		b	.L334
 3479              	.LVL459:
 3480              	.L354:
 355:../Switch/core/yt/yt_port.c ****     CMM_PARAM_CHK((!(CMM_PORT_VALID(unit, port))), CMM_ERR_PORT);
 3481              		.loc 1 355 5 discriminator 3 view .LVU994
 3482              	.LBB69:
 355:../Switch/core/yt/yt_port.c ****     CMM_PARAM_CHK((!(CMM_PORT_VALID(unit, port))), CMM_ERR_PORT);
 3483              		.loc 1 355 5 discriminator 3 view .LVU995
 3484 007a 164B     		ldr	r3, .L357+16
 3485 007c 1A69     		ldr	r2, [r3, #16]
 3486              	.LVL460:
 355:../Switch/core/yt/yt_port.c ****     CMM_PARAM_CHK((!(CMM_PORT_VALID(unit, port))), CMM_ERR_PORT);
 3487              		.loc 1 355 5 is_stmt 0 discriminator 3 view .LVU996
 3488 007e 164B     		ldr	r3, .L357+20
 3489 0080 9968     		ldr	r1, [r3, #8]
 3490              	.LVL461:
 355:../Switch/core/yt/yt_port.c ****     CMM_PARAM_CHK((!(CMM_PORT_VALID(unit, port))), CMM_ERR_PORT);
 3491              		.loc 1 355 5 discriminator 3 view .LVU997
 3492 0082 1648     		ldr	r0, .L357+24
 3493 0084 FFF7FEFF 		bl	osal_printf
 3494              	.LVL462:
 3495 0088 F5E7     		b	.L341
 3496              	.LVL463:
 3497              	.L342:
 355:../Switch/core/yt/yt_port.c ****     CMM_PARAM_CHK((!(CMM_PORT_VALID(unit, port))), CMM_ERR_PORT);
 3498              		.loc 1 355 5 discriminator 3 view .LVU998
 3499              	.LBE69:
 356:../Switch/core/yt/yt_port.c ****     CMM_PARAM_CHK((NULL == pPort_ctrl), CMM_ERR_NULL_POINT);
 3500              		.loc 1 356 5 is_stmt 1 discriminator 3 view .LVU999
 356:../Switch/core/yt/yt_port.c ****     CMM_PARAM_CHK((NULL == pPort_ctrl), CMM_ERR_NULL_POINT);
 3501              		.loc 1 356 5 discriminator 3 view .LVU1000
 3502 008a 114B     		ldr	r3, .L357+12
 3503 008c 1B78     		ldrb	r3, [r3]	@ zero_extendqisi2
 3504 008e 012B     		cmp	r3, #1
 3505 0090 01D8     		bhi	.L355
 3506              	.LVL464:
 3507              	.L344:
 356:../Switch/core/yt/yt_port.c ****     CMM_PARAM_CHK((NULL == pPort_ctrl), CMM_ERR_NULL_POINT);
 3508              		.loc 1 356 5 discriminator 7 view .LVU1001
 356:../Switch/core/yt/yt_port.c ****     CMM_PARAM_CHK((NULL == pPort_ctrl), CMM_ERR_NULL_POINT);
 3509              		.loc 1 356 5 discriminator 7 view .LVU1002
 356:../Switch/core/yt/yt_port.c ****     CMM_PARAM_CHK((NULL == pPort_ctrl), CMM_ERR_NULL_POINT);
 3510              		.loc 1 356 5 discriminator 7 view .LVU1003
 3511 0092 0E20     		movs	r0, #14
 3512 0094 CEE7     		b	.L334
 3513              	.LVL465:
 3514              	.L355:
 356:../Switch/core/yt/yt_port.c ****     CMM_PARAM_CHK((NULL == pPort_ctrl), CMM_ERR_NULL_POINT);
 3515              		.loc 1 356 5 discriminator 5 view .LVU1004
 3516              	.LBB70:
 356:../Switch/core/yt/yt_port.c ****     CMM_PARAM_CHK((NULL == pPort_ctrl), CMM_ERR_NULL_POINT);
 3517              		.loc 1 356 5 discriminator 5 view .LVU1005
 3518 0096 0F4B     		ldr	r3, .L357+16
 3519 0098 9A6B     		ldr	r2, [r3, #56]
 3520              	.LVL466:
 356:../Switch/core/yt/yt_port.c ****     CMM_PARAM_CHK((NULL == pPort_ctrl), CMM_ERR_NULL_POINT);
 3521              		.loc 1 356 5 is_stmt 0 discriminator 5 view .LVU1006
 3522 009a 0F4B     		ldr	r3, .L357+20
 3523 009c 9968     		ldr	r1, [r3, #8]
 3524              	.LVL467:
 356:../Switch/core/yt/yt_port.c ****     CMM_PARAM_CHK((NULL == pPort_ctrl), CMM_ERR_NULL_POINT);
 3525              		.loc 1 356 5 discriminator 5 view .LVU1007
 3526 009e 0F48     		ldr	r0, .L357+24
 3527 00a0 FFF7FEFF 		bl	osal_printf
 3528              	.LVL468:
 3529 00a4 F5E7     		b	.L344
 3530              	.LVL469:
 3531              	.L351:
 356:../Switch/core/yt/yt_port.c ****     CMM_PARAM_CHK((NULL == pPort_ctrl), CMM_ERR_NULL_POINT);
 3532              		.loc 1 356 5 discriminator 5 view .LVU1008
 3533              	.LBE70:
 357:../Switch/core/yt/yt_port.c **** 
 3534              		.loc 1 357 5 is_stmt 1 discriminator 1 view .LVU1009
 357:../Switch/core/yt/yt_port.c **** 
 3535              		.loc 1 357 5 discriminator 1 view .LVU1010
 3536 00a6 0A4B     		ldr	r3, .L357+12
 3537 00a8 1B78     		ldrb	r3, [r3]	@ zero_extendqisi2
 3538 00aa 012B     		cmp	r3, #1
 3539 00ac 01D8     		bhi	.L356
 3540              	.LVL470:
 3541              	.L346:
 357:../Switch/core/yt/yt_port.c **** 
 3542              		.loc 1 357 5 discriminator 5 view .LVU1011
 357:../Switch/core/yt/yt_port.c **** 
 3543              		.loc 1 357 5 discriminator 5 view .LVU1012
 357:../Switch/core/yt/yt_port.c **** 
 3544              		.loc 1 357 5 discriminator 5 view .LVU1013
 3545 00ae 0220     		movs	r0, #2
 3546 00b0 C0E7     		b	.L334
 3547              	.LVL471:
 3548              	.L356:
 357:../Switch/core/yt/yt_port.c **** 
 3549              		.loc 1 357 5 discriminator 3 view .LVU1014
 3550              	.LBB71:
 357:../Switch/core/yt/yt_port.c **** 
 3551              		.loc 1 357 5 discriminator 3 view .LVU1015
 3552 00b2 084B     		ldr	r3, .L357+16
 3553 00b4 9A68     		ldr	r2, [r3, #8]
 3554              	.LVL472:
 357:../Switch/core/yt/yt_port.c **** 
 3555              		.loc 1 357 5 is_stmt 0 discriminator 3 view .LVU1016
 3556 00b6 084B     		ldr	r3, .L357+20
 3557 00b8 9968     		ldr	r1, [r3, #8]
 3558              	.LVL473:
 357:../Switch/core/yt/yt_port.c **** 
 3559              		.loc 1 357 5 discriminator 3 view .LVU1017
 3560 00ba 0848     		ldr	r0, .L357+24
 3561 00bc FFF7FEFF 		bl	osal_printf
 3562              	.LVL474:
 3563 00c0 F5E7     		b	.L346
 3564              	.L358:
 3565 00c2 00BF     		.align	2
 3566              	.L357:
 3567 00c4 00000000 		.word	gpfal_dispatch
 3568 00c8 00000000 		.word	gcal_inited
 3569 00cc 00000000 		.word	gpSwitchUnit
 3570 00d0 00000000 		.word	yt_debug_level
 3571 00d4 00000000 		.word	_yt_errmsg
 3572 00d8 00000000 		.word	_yt_prompt_msg
 3573 00dc 00000000 		.word	.LC0
 3574              	.LBE71:
 3575              		.cfi_endproc
 3576              	.LFE17:
 3578              		.section	.text.yt_port_mac_fc_set,"ax",%progbits
 3579              		.align	1
 3580              		.global	yt_port_mac_fc_set
 3581              		.syntax unified
 3582              		.thumb
 3583              		.thumb_func
 3585              	yt_port_mac_fc_set:
 3586              	.LVL475:
 3587              	.LFB18:
 361:../Switch/core/yt/yt_port.c **** 
 362:../Switch/core/yt/yt_port.c **** /**
 363:../Switch/core/yt/yt_port.c ****  * @internal      yt_port_mac_fc_set
 364:../Switch/core/yt/yt_port.c ****  * @endinternal
 365:../Switch/core/yt/yt_port.c ****  *
 366:../Switch/core/yt/yt_port.c ****  * @brief         Description
 367:../Switch/core/yt/yt_port.c ****  * @note          APPLICABLE DEVICES  -Tiger
 368:../Switch/core/yt/yt_port.c ****  * @param[in]     unit                -unit id
 369:../Switch/core/yt/yt_port.c ****  * @param[in]     port                -port num
 370:../Switch/core/yt/yt_port.c ****  * @param[in]     enable              -enable or disable
 371:../Switch/core/yt/yt_port.c ****  * @retval        CMM_ERR_OK          -on success
 372:../Switch/core/yt/yt_port.c ****  * @retval        CMM_ERR_FAIL        -on fail
 373:../Switch/core/yt/yt_port.c ****  */
 374:../Switch/core/yt/yt_port.c **** yt_ret_t yt_port_mac_fc_set(yt_unit_t unit, yt_port_t port, yt_enable_t enable)
 375:../Switch/core/yt/yt_port.c **** {
 3588              		.loc 1 375 1 is_stmt 1 view -0
 3589              		.cfi_startproc
 3590              		@ args = 0, pretend = 0, frame = 0
 3591              		@ frame_needed = 0, uses_anonymous_args = 0
 3592              		.loc 1 375 1 is_stmt 0 view .LVU1019
 3593 0000 08B5     		push	{r3, lr}
 3594              		.cfi_def_cfa_offset 8
 3595              		.cfi_offset 3, -8
 3596              		.cfi_offset 14, -4
 376:../Switch/core/yt/yt_port.c ****     CMM_PARAM_CHK((YT_UNIT_NUM <= unit), CMM_ERR_INPUT);
 3597              		.loc 1 376 5 is_stmt 1 view .LVU1020
 3598              		.loc 1 376 5 view .LVU1021
 3599 0002 C0B9     		cbnz	r0, .L373
 3600 0004 8446     		mov	ip, r0
 3601              		.loc 1 376 5 discriminator 2 view .LVU1022
 377:../Switch/core/yt/yt_port.c ****     CMM_PARAM_CHK(NULL == YT_DISPATCH(unit), CMM_ERR_NOT_INIT);
 3602              		.loc 1 377 5 discriminator 2 view .LVU1023
 3603              		.loc 1 377 5 discriminator 2 view .LVU1024
 3604 0006 2F4B     		ldr	r3, .L382
 3605 0008 53F82030 		ldr	r3, [r3, r0, lsl #2]
 3606 000c 0BB3     		cbz	r3, .L374
 3607              		.loc 1 377 5 discriminator 2 view .LVU1025
 378:../Switch/core/yt/yt_port.c ****     CMM_PARAM_CHK((!(YT_DISPATCH(unit)->is_inited)), CMM_ERR_NOT_INIT);
 3608              		.loc 1 378 5 discriminator 2 view .LVU1026
 3609              		.loc 1 378 5 discriminator 2 view .LVU1027
 3610 000e 1878     		ldrb	r0, [r3]	@ zero_extendqisi2
 3611              	.LVL476:
 3612              		.loc 1 378 5 is_stmt 0 discriminator 2 view .LVU1028
 3613 0010 0028     		cmp	r0, #0
 3614 0012 2CD0     		beq	.L375
 3615              		.loc 1 378 5 is_stmt 1 discriminator 2 view .LVU1029
 379:../Switch/core/yt/yt_port.c ****     CMM_PARAM_CHK((!(CMM_PORT_VALID(unit, port))), CMM_ERR_PORT);
 3616              		.loc 1 379 5 discriminator 2 view .LVU1030
 3617              		.loc 1 379 5 discriminator 2 view .LVU1031
 3618 0014 2C48     		ldr	r0, .L382+4
 3619 0016 0078     		ldrb	r0, [r0]	@ zero_extendqisi2
 3620 0018 0028     		cmp	r0, #0
 3621 001a 36D0     		beq	.L367
 3622 001c 2B48     		ldr	r0, .L382+8
 3623 001e 50F82C00 		ldr	r0, [r0, ip, lsl #2]
 3624 0022 007D     		ldrb	r0, [r0, #20]	@ zero_extendqisi2
 3625 0024 8842     		cmp	r0, r1
 3626 0026 30D9     		bls	.L367
 3627              		.loc 1 379 5 discriminator 4 view .LVU1032
 380:../Switch/core/yt/yt_port.c ****     CMM_PARAM_CHK((YT_ENABLE < enable || YT_DISABLE > enable), CMM_ERR_INPUT);
 3628              		.loc 1 380 5 discriminator 4 view .LVU1033
 3629              		.loc 1 380 5 discriminator 4 view .LVU1034
 3630 0028 012A     		cmp	r2, #1
 3631 002a 3CD8     		bhi	.L376
 3632              		.loc 1 380 5 discriminator 2 view .LVU1035
 381:../Switch/core/yt/yt_port.c **** 
 382:../Switch/core/yt/yt_port.c ****     return YT_DISPATCH(unit)->port_mac_fc_set(unit, port, enable);
 3633              		.loc 1 382 5 discriminator 2 view .LVU1036
 3634              		.loc 1 382 29 is_stmt 0 discriminator 2 view .LVU1037
 3635 002c D3F88C35 		ldr	r3, [r3, #1420]
 3636              		.loc 1 382 12 discriminator 2 view .LVU1038
 3637 0030 6046     		mov	r0, ip
 3638 0032 9847     		blx	r3
 3639              	.LVL477:
 3640              	.L359:
 383:../Switch/core/yt/yt_port.c **** }
 3641              		.loc 1 383 1 view .LVU1039
 3642 0034 08BD     		pop	{r3, pc}
 3643              	.LVL478:
 3644              	.L373:
 376:../Switch/core/yt/yt_port.c ****     CMM_PARAM_CHK(NULL == YT_DISPATCH(unit), CMM_ERR_NOT_INIT);
 3645              		.loc 1 376 5 is_stmt 1 discriminator 1 view .LVU1040
 376:../Switch/core/yt/yt_port.c ****     CMM_PARAM_CHK(NULL == YT_DISPATCH(unit), CMM_ERR_NOT_INIT);
 3646              		.loc 1 376 5 discriminator 1 view .LVU1041
 3647 0036 264B     		ldr	r3, .L382+12
 3648 0038 1B78     		ldrb	r3, [r3]	@ zero_extendqisi2
 3649 003a 012B     		cmp	r3, #1
 3650 003c 01D8     		bhi	.L377
 3651              	.LVL479:
 3652              	.L361:
 376:../Switch/core/yt/yt_port.c ****     CMM_PARAM_CHK(NULL == YT_DISPATCH(unit), CMM_ERR_NOT_INIT);
 3653              		.loc 1 376 5 discriminator 5 view .LVU1042
 376:../Switch/core/yt/yt_port.c ****     CMM_PARAM_CHK(NULL == YT_DISPATCH(unit), CMM_ERR_NOT_INIT);
 3654              		.loc 1 376 5 discriminator 5 view .LVU1043
 376:../Switch/core/yt/yt_port.c ****     CMM_PARAM_CHK(NULL == YT_DISPATCH(unit), CMM_ERR_NOT_INIT);
 3655              		.loc 1 376 5 discriminator 5 view .LVU1044
 3656 003e 0520     		movs	r0, #5
 3657 0040 F8E7     		b	.L359
 3658              	.LVL480:
 3659              	.L377:
 376:../Switch/core/yt/yt_port.c ****     CMM_PARAM_CHK(NULL == YT_DISPATCH(unit), CMM_ERR_NOT_INIT);
 3660              		.loc 1 376 5 discriminator 3 view .LVU1045
 3661              	.LBB72:
 376:../Switch/core/yt/yt_port.c ****     CMM_PARAM_CHK(NULL == YT_DISPATCH(unit), CMM_ERR_NOT_INIT);
