   1              		.cpu cortex-m3
   2              		.arch armv7-m
   3              		.fpu softvfp
   4              		.eabi_attribute 20, 1
   5              		.eabi_attribute 21, 1
   6              		.eabi_attribute 23, 3
   7              		.eabi_attribute 24, 1
   8              		.eabi_attribute 25, 1
   9              		.eabi_attribute 26, 1
  10              		.eabi_attribute 30, 1
  11              		.eabi_attribute 34, 1
  12              		.eabi_attribute 18, 4
  13              		.file	"yt_port.c"
  14              		.text
  15              	.Ltext0:
  16              		.cfi_sections	.debug_frame
  17              		.file 1 "../Switch/core/yt/yt_port.c"
  18              		.section	.rodata.yt_port_init.str1.4,"aMS",%progbits,1
  19              		.align	2
  20              	.LC0:
  21 0000 25732573 		.ascii	"%s%s\015\012\000"
  21      0D0A00
  22              		.section	.text.yt_port_init,"ax",%progbits
  23              		.align	1
  24              		.global	yt_port_init
  25              		.syntax unified
  26              		.thumb
  27              		.thumb_func
  29              	yt_port_init:
  30              	.LVL0:
  31              	.LFB3:
   1:../Switch/core/yt/yt_port.c **** /*******************************************************************************
   2:../Switch/core/yt/yt_port.c **** *                                                                              *
   3:../Switch/core/yt/yt_port.c **** *  Copyright (c), 2022, Motorcomm Electronic Technology Co.,Ltd.               *
   4:../Switch/core/yt/yt_port.c **** *  Motorcomm Confidential and Proprietary.                                     *
   5:../Switch/core/yt/yt_port.c **** *                                                                              *
   6:../Switch/core/yt/yt_port.c **** ********************************************************************************
   7:../Switch/core/yt/yt_port.c **** */
   8:../Switch/core/yt/yt_port.c **** /**
   9:../Switch/core/yt/yt_port.c **** ********************************************************************************
  10:../Switch/core/yt/yt_port.c **** * @file yt_port.c
  11:../Switch/core/yt/yt_port.c **** *
  12:../Switch/core/yt/yt_port.c **** * @brief x
  13:../Switch/core/yt/yt_port.c **** *
  14:../Switch/core/yt/yt_port.c **** ********************************************************************************
  15:../Switch/core/yt/yt_port.c **** */
  16:../Switch/core/yt/yt_port.c **** #include "yt_port.h"
  17:../Switch/core/yt/yt_port.c **** #include "fal_dispatch.h"
  18:../Switch/core/yt/yt_port.c **** 
  19:../Switch/core/yt/yt_port.c **** 
  20:../Switch/core/yt/yt_port.c **** /**
  21:../Switch/core/yt/yt_port.c ****  * @internal      yt_port_init
  22:../Switch/core/yt/yt_port.c ****  * @endinternal
  23:../Switch/core/yt/yt_port.c ****  *
  24:../Switch/core/yt/yt_port.c ****  * @brief         Description
  25:../Switch/core/yt/yt_port.c ****  * @note          APPLICABLE DEVICES  -Tiger
  26:../Switch/core/yt/yt_port.c ****  * @param[in]     unit                -unit id
  27:../Switch/core/yt/yt_port.c ****  * @retval        CMM_ERR_OK          -on success
  28:../Switch/core/yt/yt_port.c ****  * @retval        CMM_ERR_FAIL        -on fail
  29:../Switch/core/yt/yt_port.c ****  */
  30:../Switch/core/yt/yt_port.c **** yt_ret_t yt_port_init(yt_unit_t unit)
  31:../Switch/core/yt/yt_port.c **** {
  32              		.loc 1 31 1 view -0
  33              		.cfi_startproc
  34              		@ args = 0, pretend = 0, frame = 0
  35              		@ frame_needed = 0, uses_anonymous_args = 0
  36              		.loc 1 31 1 is_stmt 0 view .LVU1
  37 0000 08B5     		push	{r3, lr}
  38              		.cfi_def_cfa_offset 8
  39              		.cfi_offset 3, -8
  40              		.cfi_offset 14, -4
  32:../Switch/core/yt/yt_port.c ****     CMM_PARAM_CHK((YT_UNIT_NUM <= unit), CMM_ERR_INPUT);
  41              		.loc 1 32 5 is_stmt 1 view .LVU2
  42              		.loc 1 32 5 view .LVU3
  43 0002 48B9     		cbnz	r0, .L10
  44              		.loc 1 32 5 discriminator 2 view .LVU4
  33:../Switch/core/yt/yt_port.c ****     CMM_PARAM_CHK(NULL == YT_DISPATCH(unit), CMM_ERR_NOT_INIT);
  45              		.loc 1 33 5 discriminator 2 view .LVU5
  46              		.loc 1 33 5 discriminator 2 view .LVU6
  47 0004 194B     		ldr	r3, .L16
  48 0006 53F82030 		ldr	r3, [r3, r0, lsl #2]
  49 000a 9BB1     		cbz	r3, .L11
  50              		.loc 1 33 5 discriminator 2 view .LVU7
  34:../Switch/core/yt/yt_port.c ****     CMM_PARAM_CHK((!(YT_DISPATCH(unit)->is_inited)), CMM_ERR_NOT_INIT);
  51              		.loc 1 34 5 discriminator 2 view .LVU8
  52              		.loc 1 34 5 discriminator 2 view .LVU9
  53 000c 1978     		ldrb	r1, [r3]	@ zero_extendqisi2
  54 000e F9B1     		cbz	r1, .L12
  55              		.loc 1 34 5 discriminator 2 view .LVU10
  35:../Switch/core/yt/yt_port.c **** 
  36:../Switch/core/yt/yt_port.c ****     return YT_DISPATCH(unit)->port_init(unit);
  56              		.loc 1 36 5 discriminator 2 view .LVU11
  57              		.loc 1 36 29 is_stmt 0 discriminator 2 view .LVU12
  58 0010 D3F85035 		ldr	r3, [r3, #1360]
  59              		.loc 1 36 12 discriminator 2 view .LVU13
  60 0014 9847     		blx	r3
  61              	.LVL1:
  62              	.L1:
  37:../Switch/core/yt/yt_port.c **** }
  63              		.loc 1 37 1 view .LVU14
  64 0016 08BD     		pop	{r3, pc}
  65              	.LVL2:
  66              	.L10:
  32:../Switch/core/yt/yt_port.c ****     CMM_PARAM_CHK(NULL == YT_DISPATCH(unit), CMM_ERR_NOT_INIT);
  67              		.loc 1 32 5 is_stmt 1 discriminator 1 view .LVU15
  32:../Switch/core/yt/yt_port.c ****     CMM_PARAM_CHK(NULL == YT_DISPATCH(unit), CMM_ERR_NOT_INIT);
  68              		.loc 1 32 5 discriminator 1 view .LVU16
  69 0018 154B     		ldr	r3, .L16+4
  70 001a 1B78     		ldrb	r3, [r3]	@ zero_extendqisi2
  71 001c 012B     		cmp	r3, #1
  72 001e 01D8     		bhi	.L13
  73              	.LVL3:
  74              	.L3:
  32:../Switch/core/yt/yt_port.c ****     CMM_PARAM_CHK(NULL == YT_DISPATCH(unit), CMM_ERR_NOT_INIT);
  75              		.loc 1 32 5 discriminator 5 view .LVU17
  32:../Switch/core/yt/yt_port.c ****     CMM_PARAM_CHK(NULL == YT_DISPATCH(unit), CMM_ERR_NOT_INIT);
  76              		.loc 1 32 5 discriminator 5 view .LVU18
  32:../Switch/core/yt/yt_port.c ****     CMM_PARAM_CHK(NULL == YT_DISPATCH(unit), CMM_ERR_NOT_INIT);
  77              		.loc 1 32 5 discriminator 5 view .LVU19
  78 0020 0520     		movs	r0, #5
  79 0022 F8E7     		b	.L1
  80              	.LVL4:
  81              	.L13:
  32:../Switch/core/yt/yt_port.c ****     CMM_PARAM_CHK(NULL == YT_DISPATCH(unit), CMM_ERR_NOT_INIT);
  82              		.loc 1 32 5 discriminator 3 view .LVU20
  83              	.LBB2:
  32:../Switch/core/yt/yt_port.c ****     CMM_PARAM_CHK(NULL == YT_DISPATCH(unit), CMM_ERR_NOT_INIT);
  84              		.loc 1 32 5 discriminator 3 view .LVU21
  85 0024 134B     		ldr	r3, .L16+8
  86 0026 5A69     		ldr	r2, [r3, #20]
  87 0028 134B     		ldr	r3, .L16+12
  88 002a 9968     		ldr	r1, [r3, #8]
  89 002c 1348     		ldr	r0, .L16+16
  90              	.LVL5:
  32:../Switch/core/yt/yt_port.c ****     CMM_PARAM_CHK(NULL == YT_DISPATCH(unit), CMM_ERR_NOT_INIT);
  91              		.loc 1 32 5 is_stmt 0 discriminator 3 view .LVU22
  92 002e FFF7FEFF 		bl	osal_printf
  93              	.LVL6:
  94 0032 F5E7     		b	.L3
  95              	.LVL7:
  96              	.L11:
  32:../Switch/core/yt/yt_port.c ****     CMM_PARAM_CHK(NULL == YT_DISPATCH(unit), CMM_ERR_NOT_INIT);
  97              		.loc 1 32 5 discriminator 3 view .LVU23
  98              	.LBE2:
  33:../Switch/core/yt/yt_port.c ****     CMM_PARAM_CHK((!(YT_DISPATCH(unit)->is_inited)), CMM_ERR_NOT_INIT);
  99              		.loc 1 33 5 is_stmt 1 discriminator 1 view .LVU24
  33:../Switch/core/yt/yt_port.c ****     CMM_PARAM_CHK((!(YT_DISPATCH(unit)->is_inited)), CMM_ERR_NOT_INIT);
 100              		.loc 1 33 5 discriminator 1 view .LVU25
 101 0034 0E4B     		ldr	r3, .L16+4
 102 0036 1B78     		ldrb	r3, [r3]	@ zero_extendqisi2
 103 0038 012B     		cmp	r3, #1
 104 003a 01D8     		bhi	.L14
 105              	.LVL8:
 106              	.L6:
  33:../Switch/core/yt/yt_port.c ****     CMM_PARAM_CHK((!(YT_DISPATCH(unit)->is_inited)), CMM_ERR_NOT_INIT);
 107              		.loc 1 33 5 discriminator 5 view .LVU26
  33:../Switch/core/yt/yt_port.c ****     CMM_PARAM_CHK((!(YT_DISPATCH(unit)->is_inited)), CMM_ERR_NOT_INIT);
 108              		.loc 1 33 5 discriminator 5 view .LVU27
  33:../Switch/core/yt/yt_port.c ****     CMM_PARAM_CHK((!(YT_DISPATCH(unit)->is_inited)), CMM_ERR_NOT_INIT);
 109              		.loc 1 33 5 discriminator 5 view .LVU28
 110 003c 0420     		movs	r0, #4
 111 003e EAE7     		b	.L1
 112              	.LVL9:
 113              	.L14:
  33:../Switch/core/yt/yt_port.c ****     CMM_PARAM_CHK((!(YT_DISPATCH(unit)->is_inited)), CMM_ERR_NOT_INIT);
 114              		.loc 1 33 5 discriminator 3 view .LVU29
 115              	.LBB3:
  33:../Switch/core/yt/yt_port.c ****     CMM_PARAM_CHK((!(YT_DISPATCH(unit)->is_inited)), CMM_ERR_NOT_INIT);
 116              		.loc 1 33 5 discriminator 3 view .LVU30
 117 0040 0C4B     		ldr	r3, .L16+8
 118 0042 1A69     		ldr	r2, [r3, #16]
 119 0044 0C4B     		ldr	r3, .L16+12
 120 0046 9968     		ldr	r1, [r3, #8]
 121 0048 0C48     		ldr	r0, .L16+16
 122              	.LVL10:
  33:../Switch/core/yt/yt_port.c ****     CMM_PARAM_CHK((!(YT_DISPATCH(unit)->is_inited)), CMM_ERR_NOT_INIT);
 123              		.loc 1 33 5 is_stmt 0 discriminator 3 view .LVU31
 124 004a FFF7FEFF 		bl	osal_printf
 125              	.LVL11:
 126 004e F5E7     		b	.L6
 127              	.LVL12:
 128              	.L12:
  33:../Switch/core/yt/yt_port.c ****     CMM_PARAM_CHK((!(YT_DISPATCH(unit)->is_inited)), CMM_ERR_NOT_INIT);
 129              		.loc 1 33 5 discriminator 3 view .LVU32
 130              	.LBE3:
  34:../Switch/core/yt/yt_port.c **** 
 131              		.loc 1 34 5 is_stmt 1 discriminator 1 view .LVU33
  34:../Switch/core/yt/yt_port.c **** 
 132              		.loc 1 34 5 discriminator 1 view .LVU34
 133 0050 074B     		ldr	r3, .L16+4
 134 0052 1B78     		ldrb	r3, [r3]	@ zero_extendqisi2
 135 0054 012B     		cmp	r3, #1
 136 0056 01D8     		bhi	.L15
 137              	.LVL13:
 138              	.L8:
  34:../Switch/core/yt/yt_port.c **** 
 139              		.loc 1 34 5 discriminator 5 view .LVU35
  34:../Switch/core/yt/yt_port.c **** 
 140              		.loc 1 34 5 discriminator 5 view .LVU36
  34:../Switch/core/yt/yt_port.c **** 
 141              		.loc 1 34 5 discriminator 5 view .LVU37
 142 0058 0420     		movs	r0, #4
 143 005a DCE7     		b	.L1
 144              	.LVL14:
 145              	.L15:
  34:../Switch/core/yt/yt_port.c **** 
 146              		.loc 1 34 5 discriminator 3 view .LVU38
 147              	.LBB4:
  34:../Switch/core/yt/yt_port.c **** 
 148              		.loc 1 34 5 discriminator 3 view .LVU39
 149 005c 054B     		ldr	r3, .L16+8
 150 005e 1A69     		ldr	r2, [r3, #16]
 151 0060 054B     		ldr	r3, .L16+12
 152 0062 9968     		ldr	r1, [r3, #8]
 153 0064 0548     		ldr	r0, .L16+16
 154              	.LVL15:
  34:../Switch/core/yt/yt_port.c **** 
 155              		.loc 1 34 5 is_stmt 0 discriminator 3 view .LVU40
 156 0066 FFF7FEFF 		bl	osal_printf
 157              	.LVL16:
 158 006a F5E7     		b	.L8
 159              	.L17:
 160              		.align	2
 161              	.L16:
 162 006c 00000000 		.word	gpfal_dispatch
 163 0070 00000000 		.word	yt_debug_level
 164 0074 00000000 		.word	_yt_errmsg
 165 0078 00000000 		.word	_yt_prompt_msg
 166 007c 00000000 		.word	.LC0
 167              	.LBE4:
 168              		.cfi_endproc
 169              	.LFE3:
 171              		.section	.text.yt_port_enable_set,"ax",%progbits
 172              		.align	1
 173              		.global	yt_port_enable_set
 174              		.syntax unified
 175              		.thumb
 176              		.thumb_func
 178              	yt_port_enable_set:
 179              	.LVL17:
 180              	.LFB4:
  38:../Switch/core/yt/yt_port.c **** 
  39:../Switch/core/yt/yt_port.c **** /**
  40:../Switch/core/yt/yt_port.c ****  * @internal      yt_port_enable_set
  41:../Switch/core/yt/yt_port.c ****  * @endinternal
  42:../Switch/core/yt/yt_port.c ****  *
  43:../Switch/core/yt/yt_port.c ****  * @brief         Description
  44:../Switch/core/yt/yt_port.c ****  * @note          APPLICABLE DEVICES  -Tiger
  45:../Switch/core/yt/yt_port.c ****  * @param[in]     unit                -unit id
  46:../Switch/core/yt/yt_port.c ****  * @param[in]     port                -port num
  47:../Switch/core/yt/yt_port.c ****  * @param[in]     enable              -enable or disable
  48:../Switch/core/yt/yt_port.c ****  * @retval        CMM_ERR_OK          -on success
  49:../Switch/core/yt/yt_port.c ****  * @retval        CMM_ERR_FAIL        -on fail
  50:../Switch/core/yt/yt_port.c ****  */
  51:../Switch/core/yt/yt_port.c **** yt_ret_t yt_port_enable_set(yt_unit_t unit, yt_port_t port, yt_enable_t enable)
  52:../Switch/core/yt/yt_port.c **** {
 181              		.loc 1 52 1 is_stmt 1 view -0
 182              		.cfi_startproc
 183              		@ args = 0, pretend = 0, frame = 0
 184              		@ frame_needed = 0, uses_anonymous_args = 0
 185              		.loc 1 52 1 is_stmt 0 view .LVU42
 186 0000 08B5     		push	{r3, lr}
 187              		.cfi_def_cfa_offset 8
 188              		.cfi_offset 3, -8
 189              		.cfi_offset 14, -4
  53:../Switch/core/yt/yt_port.c ****     CMM_PARAM_CHK((YT_UNIT_NUM <= unit), CMM_ERR_INPUT);
 190              		.loc 1 53 5 is_stmt 1 view .LVU43
 191              		.loc 1 53 5 view .LVU44
 192 0002 C0B9     		cbnz	r0, .L32
 193 0004 8446     		mov	ip, r0
 194              		.loc 1 53 5 discriminator 2 view .LVU45
  54:../Switch/core/yt/yt_port.c ****     CMM_PARAM_CHK(NULL == YT_DISPATCH(unit), CMM_ERR_NOT_INIT);
 195              		.loc 1 54 5 discriminator 2 view .LVU46
 196              		.loc 1 54 5 discriminator 2 view .LVU47
 197 0006 2F4B     		ldr	r3, .L41
 198 0008 53F82030 		ldr	r3, [r3, r0, lsl #2]
 199 000c 0BB3     		cbz	r3, .L33
 200              		.loc 1 54 5 discriminator 2 view .LVU48
  55:../Switch/core/yt/yt_port.c ****     CMM_PARAM_CHK((!(YT_DISPATCH(unit)->is_inited)), CMM_ERR_NOT_INIT);
 201              		.loc 1 55 5 discriminator 2 view .LVU49
 202              		.loc 1 55 5 discriminator 2 view .LVU50
 203 000e 1878     		ldrb	r0, [r3]	@ zero_extendqisi2
 204              	.LVL18:
 205              		.loc 1 55 5 is_stmt 0 discriminator 2 view .LVU51
 206 0010 0028     		cmp	r0, #0
 207 0012 2CD0     		beq	.L34
 208              		.loc 1 55 5 is_stmt 1 discriminator 2 view .LVU52
  56:../Switch/core/yt/yt_port.c ****     CMM_PARAM_CHK((!(CMM_PORT_VALID(unit, port))), CMM_ERR_PORT);
 209              		.loc 1 56 5 discriminator 2 view .LVU53
 210              		.loc 1 56 5 discriminator 2 view .LVU54
 211 0014 2C48     		ldr	r0, .L41+4
 212 0016 0078     		ldrb	r0, [r0]	@ zero_extendqisi2
 213 0018 0028     		cmp	r0, #0
 214 001a 36D0     		beq	.L26
 215 001c 2B48     		ldr	r0, .L41+8
 216 001e 50F82C00 		ldr	r0, [r0, ip, lsl #2]
 217 0022 007D     		ldrb	r0, [r0, #20]	@ zero_extendqisi2
 218 0024 8842     		cmp	r0, r1
 219 0026 30D9     		bls	.L26
 220              		.loc 1 56 5 discriminator 4 view .LVU55
  57:../Switch/core/yt/yt_port.c ****     CMM_PARAM_CHK((YT_ENABLE < enable || YT_DISABLE > enable), CMM_ERR_INPUT);
 221              		.loc 1 57 5 discriminator 4 view .LVU56
 222              		.loc 1 57 5 discriminator 4 view .LVU57
 223 0028 012A     		cmp	r2, #1
 224 002a 3CD8     		bhi	.L35
 225              		.loc 1 57 5 discriminator 2 view .LVU58
  58:../Switch/core/yt/yt_port.c **** 
  59:../Switch/core/yt/yt_port.c ****     return YT_DISPATCH(unit)->port_enable_set(unit, port, enable);
 226              		.loc 1 59 5 discriminator 2 view .LVU59
 227              		.loc 1 59 29 is_stmt 0 discriminator 2 view .LVU60
 228 002c D3F85435 		ldr	r3, [r3, #1364]
 229              		.loc 1 59 12 discriminator 2 view .LVU61
 230 0030 6046     		mov	r0, ip
 231 0032 9847     		blx	r3
 232              	.LVL19:
 233              	.L18:
  60:../Switch/core/yt/yt_port.c **** }
 234              		.loc 1 60 1 view .LVU62
 235 0034 08BD     		pop	{r3, pc}
 236              	.LVL20:
 237              	.L32:
  53:../Switch/core/yt/yt_port.c ****     CMM_PARAM_CHK(NULL == YT_DISPATCH(unit), CMM_ERR_NOT_INIT);
 238              		.loc 1 53 5 is_stmt 1 discriminator 1 view .LVU63
  53:../Switch/core/yt/yt_port.c ****     CMM_PARAM_CHK(NULL == YT_DISPATCH(unit), CMM_ERR_NOT_INIT);
 239              		.loc 1 53 5 discriminator 1 view .LVU64
 240 0036 264B     		ldr	r3, .L41+12
 241 0038 1B78     		ldrb	r3, [r3]	@ zero_extendqisi2
 242 003a 012B     		cmp	r3, #1
 243 003c 01D8     		bhi	.L36
 244              	.LVL21:
 245              	.L20:
  53:../Switch/core/yt/yt_port.c ****     CMM_PARAM_CHK(NULL == YT_DISPATCH(unit), CMM_ERR_NOT_INIT);
 246              		.loc 1 53 5 discriminator 5 view .LVU65
  53:../Switch/core/yt/yt_port.c ****     CMM_PARAM_CHK(NULL == YT_DISPATCH(unit), CMM_ERR_NOT_INIT);
 247              		.loc 1 53 5 discriminator 5 view .LVU66
  53:../Switch/core/yt/yt_port.c ****     CMM_PARAM_CHK(NULL == YT_DISPATCH(unit), CMM_ERR_NOT_INIT);
 248              		.loc 1 53 5 discriminator 5 view .LVU67
 249 003e 0520     		movs	r0, #5
 250 0040 F8E7     		b	.L18
 251              	.LVL22:
 252              	.L36:
  53:../Switch/core/yt/yt_port.c ****     CMM_PARAM_CHK(NULL == YT_DISPATCH(unit), CMM_ERR_NOT_INIT);
 253              		.loc 1 53 5 discriminator 3 view .LVU68
 254              	.LBB5:
  53:../Switch/core/yt/yt_port.c ****     CMM_PARAM_CHK(NULL == YT_DISPATCH(unit), CMM_ERR_NOT_INIT);
 255              		.loc 1 53 5 discriminator 3 view .LVU69
 256 0042 244B     		ldr	r3, .L41+16
 257 0044 5A69     		ldr	r2, [r3, #20]
 258              	.LVL23:
  53:../Switch/core/yt/yt_port.c ****     CMM_PARAM_CHK(NULL == YT_DISPATCH(unit), CMM_ERR_NOT_INIT);
 259              		.loc 1 53 5 is_stmt 0 discriminator 3 view .LVU70
 260 0046 244B     		ldr	r3, .L41+20
 261 0048 9968     		ldr	r1, [r3, #8]
 262              	.LVL24:
  53:../Switch/core/yt/yt_port.c ****     CMM_PARAM_CHK(NULL == YT_DISPATCH(unit), CMM_ERR_NOT_INIT);
 263              		.loc 1 53 5 discriminator 3 view .LVU71
 264 004a 2448     		ldr	r0, .L41+24
 265              	.LVL25:
  53:../Switch/core/yt/yt_port.c ****     CMM_PARAM_CHK(NULL == YT_DISPATCH(unit), CMM_ERR_NOT_INIT);
 266              		.loc 1 53 5 discriminator 3 view .LVU72
 267 004c FFF7FEFF 		bl	osal_printf
 268              	.LVL26:
 269 0050 F5E7     		b	.L20
 270              	.LVL27:
 271              	.L33:
  53:../Switch/core/yt/yt_port.c ****     CMM_PARAM_CHK(NULL == YT_DISPATCH(unit), CMM_ERR_NOT_INIT);
 272              		.loc 1 53 5 discriminator 3 view .LVU73
 273              	.LBE5:
  54:../Switch/core/yt/yt_port.c ****     CMM_PARAM_CHK((!(YT_DISPATCH(unit)->is_inited)), CMM_ERR_NOT_INIT);
 274              		.loc 1 54 5 is_stmt 1 discriminator 1 view .LVU74
  54:../Switch/core/yt/yt_port.c ****     CMM_PARAM_CHK((!(YT_DISPATCH(unit)->is_inited)), CMM_ERR_NOT_INIT);
 275              		.loc 1 54 5 discriminator 1 view .LVU75
 276 0052 1F4B     		ldr	r3, .L41+12
 277 0054 1B78     		ldrb	r3, [r3]	@ zero_extendqisi2
 278 0056 012B     		cmp	r3, #1
 279 0058 01D8     		bhi	.L37
 280              	.LVL28:
 281              	.L23:
  54:../Switch/core/yt/yt_port.c ****     CMM_PARAM_CHK((!(YT_DISPATCH(unit)->is_inited)), CMM_ERR_NOT_INIT);
 282              		.loc 1 54 5 discriminator 5 view .LVU76
  54:../Switch/core/yt/yt_port.c ****     CMM_PARAM_CHK((!(YT_DISPATCH(unit)->is_inited)), CMM_ERR_NOT_INIT);
 283              		.loc 1 54 5 discriminator 5 view .LVU77
  54:../Switch/core/yt/yt_port.c ****     CMM_PARAM_CHK((!(YT_DISPATCH(unit)->is_inited)), CMM_ERR_NOT_INIT);
 284              		.loc 1 54 5 discriminator 5 view .LVU78
 285 005a 0420     		movs	r0, #4
 286 005c EAE7     		b	.L18
 287              	.LVL29:
 288              	.L37:
  54:../Switch/core/yt/yt_port.c ****     CMM_PARAM_CHK((!(YT_DISPATCH(unit)->is_inited)), CMM_ERR_NOT_INIT);
 289              		.loc 1 54 5 discriminator 3 view .LVU79
 290              	.LBB6:
  54:../Switch/core/yt/yt_port.c ****     CMM_PARAM_CHK((!(YT_DISPATCH(unit)->is_inited)), CMM_ERR_NOT_INIT);
 291              		.loc 1 54 5 discriminator 3 view .LVU80
 292 005e 1D4B     		ldr	r3, .L41+16
 293 0060 1A69     		ldr	r2, [r3, #16]
 294              	.LVL30:
  54:../Switch/core/yt/yt_port.c ****     CMM_PARAM_CHK((!(YT_DISPATCH(unit)->is_inited)), CMM_ERR_NOT_INIT);
 295              		.loc 1 54 5 is_stmt 0 discriminator 3 view .LVU81
 296 0062 1D4B     		ldr	r3, .L41+20
 297 0064 9968     		ldr	r1, [r3, #8]
 298              	.LVL31:
  54:../Switch/core/yt/yt_port.c ****     CMM_PARAM_CHK((!(YT_DISPATCH(unit)->is_inited)), CMM_ERR_NOT_INIT);
 299              		.loc 1 54 5 discriminator 3 view .LVU82
 300 0066 1D48     		ldr	r0, .L41+24
 301              	.LVL32:
  54:../Switch/core/yt/yt_port.c ****     CMM_PARAM_CHK((!(YT_DISPATCH(unit)->is_inited)), CMM_ERR_NOT_INIT);
 302              		.loc 1 54 5 discriminator 3 view .LVU83
 303 0068 FFF7FEFF 		bl	osal_printf
 304              	.LVL33:
 305 006c F5E7     		b	.L23
 306              	.LVL34:
 307              	.L34:
  54:../Switch/core/yt/yt_port.c ****     CMM_PARAM_CHK((!(YT_DISPATCH(unit)->is_inited)), CMM_ERR_NOT_INIT);
 308              		.loc 1 54 5 discriminator 3 view .LVU84
 309              	.LBE6:
  55:../Switch/core/yt/yt_port.c ****     CMM_PARAM_CHK((!(CMM_PORT_VALID(unit, port))), CMM_ERR_PORT);
 310              		.loc 1 55 5 is_stmt 1 discriminator 1 view .LVU85
  55:../Switch/core/yt/yt_port.c ****     CMM_PARAM_CHK((!(CMM_PORT_VALID(unit, port))), CMM_ERR_PORT);
 311              		.loc 1 55 5 discriminator 1 view .LVU86
 312 006e 184B     		ldr	r3, .L41+12
 313 0070 1B78     		ldrb	r3, [r3]	@ zero_extendqisi2
 314 0072 012B     		cmp	r3, #1
 315 0074 01D8     		bhi	.L38
 316              	.LVL35:
 317              	.L25:
  55:../Switch/core/yt/yt_port.c ****     CMM_PARAM_CHK((!(CMM_PORT_VALID(unit, port))), CMM_ERR_PORT);
 318              		.loc 1 55 5 discriminator 5 view .LVU87
  55:../Switch/core/yt/yt_port.c ****     CMM_PARAM_CHK((!(CMM_PORT_VALID(unit, port))), CMM_ERR_PORT);
 319              		.loc 1 55 5 discriminator 5 view .LVU88
  55:../Switch/core/yt/yt_port.c ****     CMM_PARAM_CHK((!(CMM_PORT_VALID(unit, port))), CMM_ERR_PORT);
 320              		.loc 1 55 5 discriminator 5 view .LVU89
 321 0076 0420     		movs	r0, #4
 322 0078 DCE7     		b	.L18
 323              	.LVL36:
 324              	.L38:
  55:../Switch/core/yt/yt_port.c ****     CMM_PARAM_CHK((!(CMM_PORT_VALID(unit, port))), CMM_ERR_PORT);
 325              		.loc 1 55 5 discriminator 3 view .LVU90
 326              	.LBB7:
  55:../Switch/core/yt/yt_port.c ****     CMM_PARAM_CHK((!(CMM_PORT_VALID(unit, port))), CMM_ERR_PORT);
 327              		.loc 1 55 5 discriminator 3 view .LVU91
 328 007a 164B     		ldr	r3, .L41+16
 329 007c 1A69     		ldr	r2, [r3, #16]
 330              	.LVL37:
  55:../Switch/core/yt/yt_port.c ****     CMM_PARAM_CHK((!(CMM_PORT_VALID(unit, port))), CMM_ERR_PORT);
 331              		.loc 1 55 5 is_stmt 0 discriminator 3 view .LVU92
 332 007e 164B     		ldr	r3, .L41+20
 333 0080 9968     		ldr	r1, [r3, #8]
 334              	.LVL38:
  55:../Switch/core/yt/yt_port.c ****     CMM_PARAM_CHK((!(CMM_PORT_VALID(unit, port))), CMM_ERR_PORT);
 335              		.loc 1 55 5 discriminator 3 view .LVU93
 336 0082 1648     		ldr	r0, .L41+24
 337 0084 FFF7FEFF 		bl	osal_printf
 338              	.LVL39:
 339 0088 F5E7     		b	.L25
 340              	.LVL40:
 341              	.L26:
  55:../Switch/core/yt/yt_port.c ****     CMM_PARAM_CHK((!(CMM_PORT_VALID(unit, port))), CMM_ERR_PORT);
 342              		.loc 1 55 5 discriminator 3 view .LVU94
 343              	.LBE7:
  56:../Switch/core/yt/yt_port.c ****     CMM_PARAM_CHK((YT_ENABLE < enable || YT_DISABLE > enable), CMM_ERR_INPUT);
 344              		.loc 1 56 5 is_stmt 1 discriminator 3 view .LVU95
  56:../Switch/core/yt/yt_port.c ****     CMM_PARAM_CHK((YT_ENABLE < enable || YT_DISABLE > enable), CMM_ERR_INPUT);
 345              		.loc 1 56 5 discriminator 3 view .LVU96
 346 008a 114B     		ldr	r3, .L41+12
 347 008c 1B78     		ldrb	r3, [r3]	@ zero_extendqisi2
 348 008e 012B     		cmp	r3, #1
 349 0090 01D8     		bhi	.L39
 350              	.LVL41:
 351              	.L28:
  56:../Switch/core/yt/yt_port.c ****     CMM_PARAM_CHK((YT_ENABLE < enable || YT_DISABLE > enable), CMM_ERR_INPUT);
 352              		.loc 1 56 5 discriminator 7 view .LVU97
  56:../Switch/core/yt/yt_port.c ****     CMM_PARAM_CHK((YT_ENABLE < enable || YT_DISABLE > enable), CMM_ERR_INPUT);
 353              		.loc 1 56 5 discriminator 7 view .LVU98
  56:../Switch/core/yt/yt_port.c ****     CMM_PARAM_CHK((YT_ENABLE < enable || YT_DISABLE > enable), CMM_ERR_INPUT);
 354              		.loc 1 56 5 discriminator 7 view .LVU99
 355 0092 0E20     		movs	r0, #14
 356 0094 CEE7     		b	.L18
 357              	.LVL42:
 358              	.L39:
  56:../Switch/core/yt/yt_port.c ****     CMM_PARAM_CHK((YT_ENABLE < enable || YT_DISABLE > enable), CMM_ERR_INPUT);
 359              		.loc 1 56 5 discriminator 5 view .LVU100
 360              	.LBB8:
  56:../Switch/core/yt/yt_port.c ****     CMM_PARAM_CHK((YT_ENABLE < enable || YT_DISABLE > enable), CMM_ERR_INPUT);
 361              		.loc 1 56 5 discriminator 5 view .LVU101
 362 0096 0F4B     		ldr	r3, .L41+16
 363 0098 9A6B     		ldr	r2, [r3, #56]
 364              	.LVL43:
  56:../Switch/core/yt/yt_port.c ****     CMM_PARAM_CHK((YT_ENABLE < enable || YT_DISABLE > enable), CMM_ERR_INPUT);
 365              		.loc 1 56 5 is_stmt 0 discriminator 5 view .LVU102
 366 009a 0F4B     		ldr	r3, .L41+20
 367 009c 9968     		ldr	r1, [r3, #8]
 368              	.LVL44:
  56:../Switch/core/yt/yt_port.c ****     CMM_PARAM_CHK((YT_ENABLE < enable || YT_DISABLE > enable), CMM_ERR_INPUT);
 369              		.loc 1 56 5 discriminator 5 view .LVU103
 370 009e 0F48     		ldr	r0, .L41+24
 371 00a0 FFF7FEFF 		bl	osal_printf
 372              	.LVL45:
 373 00a4 F5E7     		b	.L28
 374              	.LVL46:
 375              	.L35:
  56:../Switch/core/yt/yt_port.c ****     CMM_PARAM_CHK((YT_ENABLE < enable || YT_DISABLE > enable), CMM_ERR_INPUT);
 376              		.loc 1 56 5 discriminator 5 view .LVU104
 377              	.LBE8:
  57:../Switch/core/yt/yt_port.c **** 
 378              		.loc 1 57 5 is_stmt 1 discriminator 1 view .LVU105
  57:../Switch/core/yt/yt_port.c **** 
 379              		.loc 1 57 5 discriminator 1 view .LVU106
 380 00a6 0A4B     		ldr	r3, .L41+12
 381 00a8 1B78     		ldrb	r3, [r3]	@ zero_extendqisi2
 382 00aa 012B     		cmp	r3, #1
 383 00ac 01D8     		bhi	.L40
 384              	.LVL47:
 385              	.L30:
  57:../Switch/core/yt/yt_port.c **** 
 386              		.loc 1 57 5 discriminator 5 view .LVU107
  57:../Switch/core/yt/yt_port.c **** 
 387              		.loc 1 57 5 discriminator 5 view .LVU108
  57:../Switch/core/yt/yt_port.c **** 
 388              		.loc 1 57 5 discriminator 5 view .LVU109
 389 00ae 0520     		movs	r0, #5
 390 00b0 C0E7     		b	.L18
 391              	.LVL48:
 392              	.L40:
  57:../Switch/core/yt/yt_port.c **** 
 393              		.loc 1 57 5 discriminator 3 view .LVU110
 394              	.LBB9:
  57:../Switch/core/yt/yt_port.c **** 
 395              		.loc 1 57 5 discriminator 3 view .LVU111
 396 00b2 084B     		ldr	r3, .L41+16
 397 00b4 5A69     		ldr	r2, [r3, #20]
 398              	.LVL49:
  57:../Switch/core/yt/yt_port.c **** 
 399              		.loc 1 57 5 is_stmt 0 discriminator 3 view .LVU112
 400 00b6 084B     		ldr	r3, .L41+20
 401 00b8 9968     		ldr	r1, [r3, #8]
 402              	.LVL50:
  57:../Switch/core/yt/yt_port.c **** 
 403              		.loc 1 57 5 discriminator 3 view .LVU113
 404 00ba 0848     		ldr	r0, .L41+24
 405 00bc FFF7FEFF 		bl	osal_printf
 406              	.LVL51:
 407 00c0 F5E7     		b	.L30
 408              	.L42:
 409 00c2 00BF     		.align	2
 410              	.L41:
 411 00c4 00000000 		.word	gpfal_dispatch
 412 00c8 00000000 		.word	gcal_inited
 413 00cc 00000000 		.word	gpSwitchUnit
 414 00d0 00000000 		.word	yt_debug_level
 415 00d4 00000000 		.word	_yt_errmsg
 416 00d8 00000000 		.word	_yt_prompt_msg
 417 00dc 00000000 		.word	.LC0
 418              	.LBE9:
 419              		.cfi_endproc
 420              	.LFE4:
 422              		.section	.text.yt_port_enable_get,"ax",%progbits
 423              		.align	1
 424              		.global	yt_port_enable_get
 425              		.syntax unified
 426              		.thumb
 427              		.thumb_func
 429              	yt_port_enable_get:
 430              	.LVL52:
 431              	.LFB5:
  61:../Switch/core/yt/yt_port.c **** 
  62:../Switch/core/yt/yt_port.c **** /**
  63:../Switch/core/yt/yt_port.c ****  * @internal      yt_port_enable_get
  64:../Switch/core/yt/yt_port.c ****  * @endinternal
  65:../Switch/core/yt/yt_port.c ****  *
  66:../Switch/core/yt/yt_port.c ****  * @brief         Description
  67:../Switch/core/yt/yt_port.c ****  * @note          APPLICABLE DEVICES  -Tiger
  68:../Switch/core/yt/yt_port.c ****  * @param[in]     unit                -unit id
  69:../Switch/core/yt/yt_port.c ****  * @param[in]     port                -port num
  70:../Switch/core/yt/yt_port.c ****  * @param[out]    pEnable             -enable or disable
  71:../Switch/core/yt/yt_port.c ****  * @retval        CMM_ERR_OK          -on success
  72:../Switch/core/yt/yt_port.c ****  * @retval        CMM_ERR_FAIL        -on fail
  73:../Switch/core/yt/yt_port.c ****  */
  74:../Switch/core/yt/yt_port.c **** yt_ret_t yt_port_enable_get(yt_unit_t unit, yt_port_t port, yt_enable_t *pEnable)
  75:../Switch/core/yt/yt_port.c **** {
 432              		.loc 1 75 1 is_stmt 1 view -0
 433              		.cfi_startproc
 434              		@ args = 0, pretend = 0, frame = 0
 435              		@ frame_needed = 0, uses_anonymous_args = 0
 436              		.loc 1 75 1 is_stmt 0 view .LVU115
 437 0000 08B5     		push	{r3, lr}
 438              		.cfi_def_cfa_offset 8
 439              		.cfi_offset 3, -8
 440              		.cfi_offset 14, -4
  76:../Switch/core/yt/yt_port.c ****     CMM_PARAM_CHK((YT_UNIT_NUM <= unit), CMM_ERR_INPUT);
 441              		.loc 1 76 5 is_stmt 1 view .LVU116
 442              		.loc 1 76 5 view .LVU117
 443 0002 C0B9     		cbnz	r0, .L57
 444 0004 8446     		mov	ip, r0
 445              		.loc 1 76 5 discriminator 2 view .LVU118
  77:../Switch/core/yt/yt_port.c ****     CMM_PARAM_CHK(NULL == YT_DISPATCH(unit), CMM_ERR_NOT_INIT);
 446              		.loc 1 77 5 discriminator 2 view .LVU119
 447              		.loc 1 77 5 discriminator 2 view .LVU120
 448 0006 2F4B     		ldr	r3, .L66
 449 0008 53F82030 		ldr	r3, [r3, r0, lsl #2]
 450 000c 0BB3     		cbz	r3, .L58
 451              		.loc 1 77 5 discriminator 2 view .LVU121
  78:../Switch/core/yt/yt_port.c ****     CMM_PARAM_CHK((!(YT_DISPATCH(unit)->is_inited)), CMM_ERR_NOT_INIT);
 452              		.loc 1 78 5 discriminator 2 view .LVU122
 453              		.loc 1 78 5 discriminator 2 view .LVU123
 454 000e 1878     		ldrb	r0, [r3]	@ zero_extendqisi2
 455              	.LVL53:
 456              		.loc 1 78 5 is_stmt 0 discriminator 2 view .LVU124
 457 0010 0028     		cmp	r0, #0
 458 0012 2CD0     		beq	.L59
 459              		.loc 1 78 5 is_stmt 1 discriminator 2 view .LVU125
  79:../Switch/core/yt/yt_port.c ****     CMM_PARAM_CHK((!(CMM_PORT_VALID(unit, port))), CMM_ERR_PORT);
 460              		.loc 1 79 5 discriminator 2 view .LVU126
 461              		.loc 1 79 5 discriminator 2 view .LVU127
 462 0014 2C48     		ldr	r0, .L66+4
 463 0016 0078     		ldrb	r0, [r0]	@ zero_extendqisi2
 464 0018 0028     		cmp	r0, #0
 465 001a 36D0     		beq	.L51
 466 001c 2B48     		ldr	r0, .L66+8
 467 001e 50F82C00 		ldr	r0, [r0, ip, lsl #2]
 468 0022 007D     		ldrb	r0, [r0, #20]	@ zero_extendqisi2
 469 0024 8842     		cmp	r0, r1
 470 0026 30D9     		bls	.L51
 471              		.loc 1 79 5 discriminator 4 view .LVU128
  80:../Switch/core/yt/yt_port.c ****     CMM_PARAM_CHK((NULL == pEnable), CMM_ERR_NULL_POINT);
 472              		.loc 1 80 5 discriminator 4 view .LVU129
 473              		.loc 1 80 5 discriminator 4 view .LVU130
 474 0028 002A     		cmp	r2, #0
 475 002a 3CD0     		beq	.L60
 476              		.loc 1 80 5 discriminator 2 view .LVU131
  81:../Switch/core/yt/yt_port.c **** 
  82:../Switch/core/yt/yt_port.c ****     return YT_DISPATCH(unit)->port_enable_get(unit, port, pEnable);
 477              		.loc 1 82 5 discriminator 2 view .LVU132
 478              		.loc 1 82 29 is_stmt 0 discriminator 2 view .LVU133
 479 002c D3F85835 		ldr	r3, [r3, #1368]
 480              		.loc 1 82 12 discriminator 2 view .LVU134
 481 0030 6046     		mov	r0, ip
 482 0032 9847     		blx	r3
 483              	.LVL54:
 484              	.L43:
  83:../Switch/core/yt/yt_port.c **** }
 485              		.loc 1 83 1 view .LVU135
 486 0034 08BD     		pop	{r3, pc}
 487              	.LVL55:
 488              	.L57:
  76:../Switch/core/yt/yt_port.c ****     CMM_PARAM_CHK(NULL == YT_DISPATCH(unit), CMM_ERR_NOT_INIT);
 489              		.loc 1 76 5 is_stmt 1 discriminator 1 view .LVU136
  76:../Switch/core/yt/yt_port.c ****     CMM_PARAM_CHK(NULL == YT_DISPATCH(unit), CMM_ERR_NOT_INIT);
 490              		.loc 1 76 5 discriminator 1 view .LVU137
 491 0036 264B     		ldr	r3, .L66+12
 492 0038 1B78     		ldrb	r3, [r3]	@ zero_extendqisi2
 493 003a 012B     		cmp	r3, #1
 494 003c 01D8     		bhi	.L61
 495              	.LVL56:
 496              	.L45:
  76:../Switch/core/yt/yt_port.c ****     CMM_PARAM_CHK(NULL == YT_DISPATCH(unit), CMM_ERR_NOT_INIT);
 497              		.loc 1 76 5 discriminator 5 view .LVU138
  76:../Switch/core/yt/yt_port.c ****     CMM_PARAM_CHK(NULL == YT_DISPATCH(unit), CMM_ERR_NOT_INIT);
 498              		.loc 1 76 5 discriminator 5 view .LVU139
  76:../Switch/core/yt/yt_port.c ****     CMM_PARAM_CHK(NULL == YT_DISPATCH(unit), CMM_ERR_NOT_INIT);
 499              		.loc 1 76 5 discriminator 5 view .LVU140
 500 003e 0520     		movs	r0, #5
 501 0040 F8E7     		b	.L43
 502              	.LVL57:
 503              	.L61:
  76:../Switch/core/yt/yt_port.c ****     CMM_PARAM_CHK(NULL == YT_DISPATCH(unit), CMM_ERR_NOT_INIT);
 504              		.loc 1 76 5 discriminator 3 view .LVU141
 505              	.LBB10:
  76:../Switch/core/yt/yt_port.c ****     CMM_PARAM_CHK(NULL == YT_DISPATCH(unit), CMM_ERR_NOT_INIT);
 506              		.loc 1 76 5 discriminator 3 view .LVU142
 507 0042 244B     		ldr	r3, .L66+16
 508 0044 5A69     		ldr	r2, [r3, #20]
 509              	.LVL58:
  76:../Switch/core/yt/yt_port.c ****     CMM_PARAM_CHK(NULL == YT_DISPATCH(unit), CMM_ERR_NOT_INIT);
 510              		.loc 1 76 5 is_stmt 0 discriminator 3 view .LVU143
 511 0046 244B     		ldr	r3, .L66+20
 512 0048 9968     		ldr	r1, [r3, #8]
 513              	.LVL59:
  76:../Switch/core/yt/yt_port.c ****     CMM_PARAM_CHK(NULL == YT_DISPATCH(unit), CMM_ERR_NOT_INIT);
 514              		.loc 1 76 5 discriminator 3 view .LVU144
 515 004a 2448     		ldr	r0, .L66+24
 516              	.LVL60:
  76:../Switch/core/yt/yt_port.c ****     CMM_PARAM_CHK(NULL == YT_DISPATCH(unit), CMM_ERR_NOT_INIT);
 517              		.loc 1 76 5 discriminator 3 view .LVU145
 518 004c FFF7FEFF 		bl	osal_printf
 519              	.LVL61:
 520 0050 F5E7     		b	.L45
 521              	.LVL62:
 522              	.L58:
  76:../Switch/core/yt/yt_port.c ****     CMM_PARAM_CHK(NULL == YT_DISPATCH(unit), CMM_ERR_NOT_INIT);
 523              		.loc 1 76 5 discriminator 3 view .LVU146
 524              	.LBE10:
  77:../Switch/core/yt/yt_port.c ****     CMM_PARAM_CHK((!(YT_DISPATCH(unit)->is_inited)), CMM_ERR_NOT_INIT);
 525              		.loc 1 77 5 is_stmt 1 discriminator 1 view .LVU147
  77:../Switch/core/yt/yt_port.c ****     CMM_PARAM_CHK((!(YT_DISPATCH(unit)->is_inited)), CMM_ERR_NOT_INIT);
 526              		.loc 1 77 5 discriminator 1 view .LVU148
 527 0052 1F4B     		ldr	r3, .L66+12
 528 0054 1B78     		ldrb	r3, [r3]	@ zero_extendqisi2
 529 0056 012B     		cmp	r3, #1
 530 0058 01D8     		bhi	.L62
 531              	.LVL63:
 532              	.L48:
  77:../Switch/core/yt/yt_port.c ****     CMM_PARAM_CHK((!(YT_DISPATCH(unit)->is_inited)), CMM_ERR_NOT_INIT);
 533              		.loc 1 77 5 discriminator 5 view .LVU149
  77:../Switch/core/yt/yt_port.c ****     CMM_PARAM_CHK((!(YT_DISPATCH(unit)->is_inited)), CMM_ERR_NOT_INIT);
 534              		.loc 1 77 5 discriminator 5 view .LVU150
  77:../Switch/core/yt/yt_port.c ****     CMM_PARAM_CHK((!(YT_DISPATCH(unit)->is_inited)), CMM_ERR_NOT_INIT);
 535              		.loc 1 77 5 discriminator 5 view .LVU151
 536 005a 0420     		movs	r0, #4
 537 005c EAE7     		b	.L43
 538              	.LVL64:
 539              	.L62:
  77:../Switch/core/yt/yt_port.c ****     CMM_PARAM_CHK((!(YT_DISPATCH(unit)->is_inited)), CMM_ERR_NOT_INIT);
 540              		.loc 1 77 5 discriminator 3 view .LVU152
 541              	.LBB11:
  77:../Switch/core/yt/yt_port.c ****     CMM_PARAM_CHK((!(YT_DISPATCH(unit)->is_inited)), CMM_ERR_NOT_INIT);
 542              		.loc 1 77 5 discriminator 3 view .LVU153
 543 005e 1D4B     		ldr	r3, .L66+16
 544 0060 1A69     		ldr	r2, [r3, #16]
 545              	.LVL65:
  77:../Switch/core/yt/yt_port.c ****     CMM_PARAM_CHK((!(YT_DISPATCH(unit)->is_inited)), CMM_ERR_NOT_INIT);
 546              		.loc 1 77 5 is_stmt 0 discriminator 3 view .LVU154
 547 0062 1D4B     		ldr	r3, .L66+20
 548 0064 9968     		ldr	r1, [r3, #8]
 549              	.LVL66:
  77:../Switch/core/yt/yt_port.c ****     CMM_PARAM_CHK((!(YT_DISPATCH(unit)->is_inited)), CMM_ERR_NOT_INIT);
 550              		.loc 1 77 5 discriminator 3 view .LVU155
 551 0066 1D48     		ldr	r0, .L66+24
 552              	.LVL67:
  77:../Switch/core/yt/yt_port.c ****     CMM_PARAM_CHK((!(YT_DISPATCH(unit)->is_inited)), CMM_ERR_NOT_INIT);
 553              		.loc 1 77 5 discriminator 3 view .LVU156
 554 0068 FFF7FEFF 		bl	osal_printf
 555              	.LVL68:
 556 006c F5E7     		b	.L48
 557              	.LVL69:
 558              	.L59:
  77:../Switch/core/yt/yt_port.c ****     CMM_PARAM_CHK((!(YT_DISPATCH(unit)->is_inited)), CMM_ERR_NOT_INIT);
 559              		.loc 1 77 5 discriminator 3 view .LVU157
 560              	.LBE11:
  78:../Switch/core/yt/yt_port.c ****     CMM_PARAM_CHK((!(CMM_PORT_VALID(unit, port))), CMM_ERR_PORT);
 561              		.loc 1 78 5 is_stmt 1 discriminator 1 view .LVU158
  78:../Switch/core/yt/yt_port.c ****     CMM_PARAM_CHK((!(CMM_PORT_VALID(unit, port))), CMM_ERR_PORT);
 562              		.loc 1 78 5 discriminator 1 view .LVU159
 563 006e 184B     		ldr	r3, .L66+12
 564 0070 1B78     		ldrb	r3, [r3]	@ zero_extendqisi2
 565 0072 012B     		cmp	r3, #1
 566 0074 01D8     		bhi	.L63
 567              	.LVL70:
 568              	.L50:
  78:../Switch/core/yt/yt_port.c ****     CMM_PARAM_CHK((!(CMM_PORT_VALID(unit, port))), CMM_ERR_PORT);
 569              		.loc 1 78 5 discriminator 5 view .LVU160
  78:../Switch/core/yt/yt_port.c ****     CMM_PARAM_CHK((!(CMM_PORT_VALID(unit, port))), CMM_ERR_PORT);
 570              		.loc 1 78 5 discriminator 5 view .LVU161
  78:../Switch/core/yt/yt_port.c ****     CMM_PARAM_CHK((!(CMM_PORT_VALID(unit, port))), CMM_ERR_PORT);
 571              		.loc 1 78 5 discriminator 5 view .LVU162
 572 0076 0420     		movs	r0, #4
 573 0078 DCE7     		b	.L43
 574              	.LVL71:
 575              	.L63:
  78:../Switch/core/yt/yt_port.c ****     CMM_PARAM_CHK((!(CMM_PORT_VALID(unit, port))), CMM_ERR_PORT);
 576              		.loc 1 78 5 discriminator 3 view .LVU163
 577              	.LBB12:
  78:../Switch/core/yt/yt_port.c ****     CMM_PARAM_CHK((!(CMM_PORT_VALID(unit, port))), CMM_ERR_PORT);
 578              		.loc 1 78 5 discriminator 3 view .LVU164
 579 007a 164B     		ldr	r3, .L66+16
 580 007c 1A69     		ldr	r2, [r3, #16]
 581              	.LVL72:
  78:../Switch/core/yt/yt_port.c ****     CMM_PARAM_CHK((!(CMM_PORT_VALID(unit, port))), CMM_ERR_PORT);
 582              		.loc 1 78 5 is_stmt 0 discriminator 3 view .LVU165
 583 007e 164B     		ldr	r3, .L66+20
 584 0080 9968     		ldr	r1, [r3, #8]
 585              	.LVL73:
  78:../Switch/core/yt/yt_port.c ****     CMM_PARAM_CHK((!(CMM_PORT_VALID(unit, port))), CMM_ERR_PORT);
 586              		.loc 1 78 5 discriminator 3 view .LVU166
 587 0082 1648     		ldr	r0, .L66+24
 588 0084 FFF7FEFF 		bl	osal_printf
 589              	.LVL74:
 590 0088 F5E7     		b	.L50
 591              	.LVL75:
 592              	.L51:
  78:../Switch/core/yt/yt_port.c ****     CMM_PARAM_CHK((!(CMM_PORT_VALID(unit, port))), CMM_ERR_PORT);
 593              		.loc 1 78 5 discriminator 3 view .LVU167
 594              	.LBE12:
  79:../Switch/core/yt/yt_port.c ****     CMM_PARAM_CHK((NULL == pEnable), CMM_ERR_NULL_POINT);
 595              		.loc 1 79 5 is_stmt 1 discriminator 3 view .LVU168
  79:../Switch/core/yt/yt_port.c ****     CMM_PARAM_CHK((NULL == pEnable), CMM_ERR_NULL_POINT);
 596              		.loc 1 79 5 discriminator 3 view .LVU169
 597 008a 114B     		ldr	r3, .L66+12
 598 008c 1B78     		ldrb	r3, [r3]	@ zero_extendqisi2
 599 008e 012B     		cmp	r3, #1
 600 0090 01D8     		bhi	.L64
 601              	.LVL76:
 602              	.L53:
  79:../Switch/core/yt/yt_port.c ****     CMM_PARAM_CHK((NULL == pEnable), CMM_ERR_NULL_POINT);
 603              		.loc 1 79 5 discriminator 7 view .LVU170
  79:../Switch/core/yt/yt_port.c ****     CMM_PARAM_CHK((NULL == pEnable), CMM_ERR_NULL_POINT);
 604              		.loc 1 79 5 discriminator 7 view .LVU171
  79:../Switch/core/yt/yt_port.c ****     CMM_PARAM_CHK((NULL == pEnable), CMM_ERR_NULL_POINT);
 605              		.loc 1 79 5 discriminator 7 view .LVU172
 606 0092 0E20     		movs	r0, #14
 607 0094 CEE7     		b	.L43
 608              	.LVL77:
 609              	.L64:
  79:../Switch/core/yt/yt_port.c ****     CMM_PARAM_CHK((NULL == pEnable), CMM_ERR_NULL_POINT);
 610              		.loc 1 79 5 discriminator 5 view .LVU173
 611              	.LBB13:
  79:../Switch/core/yt/yt_port.c ****     CMM_PARAM_CHK((NULL == pEnable), CMM_ERR_NULL_POINT);
 612              		.loc 1 79 5 discriminator 5 view .LVU174
 613 0096 0F4B     		ldr	r3, .L66+16
 614 0098 9A6B     		ldr	r2, [r3, #56]
 615              	.LVL78:
  79:../Switch/core/yt/yt_port.c ****     CMM_PARAM_CHK((NULL == pEnable), CMM_ERR_NULL_POINT);
 616              		.loc 1 79 5 is_stmt 0 discriminator 5 view .LVU175
 617 009a 0F4B     		ldr	r3, .L66+20
 618 009c 9968     		ldr	r1, [r3, #8]
 619              	.LVL79:
  79:../Switch/core/yt/yt_port.c ****     CMM_PARAM_CHK((NULL == pEnable), CMM_ERR_NULL_POINT);
 620              		.loc 1 79 5 discriminator 5 view .LVU176
 621 009e 0F48     		ldr	r0, .L66+24
 622 00a0 FFF7FEFF 		bl	osal_printf
 623              	.LVL80:
 624 00a4 F5E7     		b	.L53
 625              	.LVL81:
 626              	.L60:
  79:../Switch/core/yt/yt_port.c ****     CMM_PARAM_CHK((NULL == pEnable), CMM_ERR_NULL_POINT);
 627              		.loc 1 79 5 discriminator 5 view .LVU177
 628              	.LBE13:
  80:../Switch/core/yt/yt_port.c **** 
 629              		.loc 1 80 5 is_stmt 1 discriminator 1 view .LVU178
  80:../Switch/core/yt/yt_port.c **** 
 630              		.loc 1 80 5 discriminator 1 view .LVU179
 631 00a6 0A4B     		ldr	r3, .L66+12
 632 00a8 1B78     		ldrb	r3, [r3]	@ zero_extendqisi2
 633 00aa 012B     		cmp	r3, #1
 634 00ac 01D8     		bhi	.L65
 635              	.LVL82:
 636              	.L55:
  80:../Switch/core/yt/yt_port.c **** 
 637              		.loc 1 80 5 discriminator 5 view .LVU180
  80:../Switch/core/yt/yt_port.c **** 
 638              		.loc 1 80 5 discriminator 5 view .LVU181
  80:../Switch/core/yt/yt_port.c **** 
 639              		.loc 1 80 5 discriminator 5 view .LVU182
 640 00ae 0220     		movs	r0, #2
 641 00b0 C0E7     		b	.L43
 642              	.LVL83:
 643              	.L65:
  80:../Switch/core/yt/yt_port.c **** 
 644              		.loc 1 80 5 discriminator 3 view .LVU183
 645              	.LBB14:
  80:../Switch/core/yt/yt_port.c **** 
 646              		.loc 1 80 5 discriminator 3 view .LVU184
 647 00b2 084B     		ldr	r3, .L66+16
 648 00b4 9A68     		ldr	r2, [r3, #8]
 649              	.LVL84:
  80:../Switch/core/yt/yt_port.c **** 
 650              		.loc 1 80 5 is_stmt 0 discriminator 3 view .LVU185
 651 00b6 084B     		ldr	r3, .L66+20
 652 00b8 9968     		ldr	r1, [r3, #8]
 653              	.LVL85:
  80:../Switch/core/yt/yt_port.c **** 
 654              		.loc 1 80 5 discriminator 3 view .LVU186
 655 00ba 0848     		ldr	r0, .L66+24
 656 00bc FFF7FEFF 		bl	osal_printf
 657              	.LVL86:
 658 00c0 F5E7     		b	.L55
 659              	.L67:
 660 00c2 00BF     		.align	2
 661              	.L66:
 662 00c4 00000000 		.word	gpfal_dispatch
 663 00c8 00000000 		.word	gcal_inited
 664 00cc 00000000 		.word	gpSwitchUnit
 665 00d0 00000000 		.word	yt_debug_level
 666 00d4 00000000 		.word	_yt_errmsg
 667 00d8 00000000 		.word	_yt_prompt_msg
 668 00dc 00000000 		.word	.LC0
 669              	.LBE14:
 670              		.cfi_endproc
 671              	.LFE5:
 673              		.section	.text.yt_port_link_status_get,"ax",%progbits
 674              		.align	1
 675              		.global	yt_port_link_status_get
 676              		.syntax unified
 677              		.thumb
 678              		.thumb_func
 680              	yt_port_link_status_get:
 681              	.LVL87:
 682              	.LFB6:
  84:../Switch/core/yt/yt_port.c **** 
  85:../Switch/core/yt/yt_port.c **** /**
  86:../Switch/core/yt/yt_port.c ****  * @internal      yt_port_link_status_get
  87:../Switch/core/yt/yt_port.c ****  * @endinternal
  88:../Switch/core/yt/yt_port.c ****  *
  89:../Switch/core/yt/yt_port.c ****  * @brief         Description
  90:../Switch/core/yt/yt_port.c ****  * @note          APPLICABLE DEVICES  -Tiger
  91:../Switch/core/yt/yt_port.c ****  * @param[in]     unit                -unit id
  92:../Switch/core/yt/yt_port.c ****  * @param[in]     port                -port num
  93:../Switch/core/yt/yt_port.c ****  * @param[out]    pLinkStatus         -x
  94:../Switch/core/yt/yt_port.c ****  * @retval        CMM_ERR_OK          -on success
  95:../Switch/core/yt/yt_port.c ****  * @retval        CMM_ERR_FAIL        -on fail
  96:../Switch/core/yt/yt_port.c ****  */
  97:../Switch/core/yt/yt_port.c **** yt_ret_t yt_port_link_status_get(yt_unit_t unit, yt_port_t port, yt_port_link_status_t *pLinkStatus
  98:../Switch/core/yt/yt_port.c **** {
 683              		.loc 1 98 1 is_stmt 1 view -0
 684              		.cfi_startproc
 685              		@ args = 0, pretend = 0, frame = 0
 686              		@ frame_needed = 0, uses_anonymous_args = 0
 687              		.loc 1 98 1 is_stmt 0 view .LVU188
 688 0000 08B5     		push	{r3, lr}
 689              		.cfi_def_cfa_offset 8
 690              		.cfi_offset 3, -8
 691              		.cfi_offset 14, -4
  99:../Switch/core/yt/yt_port.c ****     CMM_PARAM_CHK((YT_UNIT_NUM <= unit), CMM_ERR_INPUT);
 692              		.loc 1 99 5 is_stmt 1 view .LVU189
 693              		.loc 1 99 5 view .LVU190
 694 0002 C0B9     		cbnz	r0, .L82
 695 0004 8446     		mov	ip, r0
 696              		.loc 1 99 5 discriminator 2 view .LVU191
 100:../Switch/core/yt/yt_port.c ****     CMM_PARAM_CHK(NULL == YT_DISPATCH(unit), CMM_ERR_NOT_INIT);
 697              		.loc 1 100 5 discriminator 2 view .LVU192
 698              		.loc 1 100 5 discriminator 2 view .LVU193
 699 0006 2F4B     		ldr	r3, .L91
 700 0008 53F82030 		ldr	r3, [r3, r0, lsl #2]
 701 000c 0BB3     		cbz	r3, .L83
 702              		.loc 1 100 5 discriminator 2 view .LVU194
 101:../Switch/core/yt/yt_port.c ****     CMM_PARAM_CHK((!(YT_DISPATCH(unit)->is_inited)), CMM_ERR_NOT_INIT);
 703              		.loc 1 101 5 discriminator 2 view .LVU195
 704              		.loc 1 101 5 discriminator 2 view .LVU196
 705 000e 1878     		ldrb	r0, [r3]	@ zero_extendqisi2
 706              	.LVL88:
 707              		.loc 1 101 5 is_stmt 0 discriminator 2 view .LVU197
 708 0010 0028     		cmp	r0, #0
 709 0012 2CD0     		beq	.L84
 710              		.loc 1 101 5 is_stmt 1 discriminator 2 view .LVU198
 102:../Switch/core/yt/yt_port.c ****     CMM_PARAM_CHK((!(CMM_PORT_VALID(unit, port))), CMM_ERR_PORT);
 711              		.loc 1 102 5 discriminator 2 view .LVU199
 712              		.loc 1 102 5 discriminator 2 view .LVU200
 713 0014 2C48     		ldr	r0, .L91+4
 714 0016 0078     		ldrb	r0, [r0]	@ zero_extendqisi2
 715 0018 0028     		cmp	r0, #0
 716 001a 36D0     		beq	.L76
 717 001c 2B48     		ldr	r0, .L91+8
 718 001e 50F82C00 		ldr	r0, [r0, ip, lsl #2]
 719 0022 007D     		ldrb	r0, [r0, #20]	@ zero_extendqisi2
 720 0024 8842     		cmp	r0, r1
 721 0026 30D9     		bls	.L76
 722              		.loc 1 102 5 discriminator 4 view .LVU201
 103:../Switch/core/yt/yt_port.c ****     CMM_PARAM_CHK((NULL == pLinkStatus), CMM_ERR_NULL_POINT);
 723              		.loc 1 103 5 discriminator 4 view .LVU202
 724              		.loc 1 103 5 discriminator 4 view .LVU203
 725 0028 002A     		cmp	r2, #0
 726 002a 3CD0     		beq	.L85
 727              		.loc 1 103 5 discriminator 2 view .LVU204
 104:../Switch/core/yt/yt_port.c **** 
 105:../Switch/core/yt/yt_port.c ****     return YT_DISPATCH(unit)->port_link_status_get(unit, port, pLinkStatus);
 728              		.loc 1 105 5 discriminator 2 view .LVU205
 729              		.loc 1 105 29 is_stmt 0 discriminator 2 view .LVU206
 730 002c D3F85C35 		ldr	r3, [r3, #1372]
 731              		.loc 1 105 12 discriminator 2 view .LVU207
 732 0030 6046     		mov	r0, ip
 733 0032 9847     		blx	r3
 734              	.LVL89:
 735              	.L68:
 106:../Switch/core/yt/yt_port.c **** }
 736              		.loc 1 106 1 view .LVU208
 737 0034 08BD     		pop	{r3, pc}
 738              	.LVL90:
 739              	.L82:
  99:../Switch/core/yt/yt_port.c ****     CMM_PARAM_CHK(NULL == YT_DISPATCH(unit), CMM_ERR_NOT_INIT);
 740              		.loc 1 99 5 is_stmt 1 discriminator 1 view .LVU209
  99:../Switch/core/yt/yt_port.c ****     CMM_PARAM_CHK(NULL == YT_DISPATCH(unit), CMM_ERR_NOT_INIT);
 741              		.loc 1 99 5 discriminator 1 view .LVU210
 742 0036 264B     		ldr	r3, .L91+12
 743 0038 1B78     		ldrb	r3, [r3]	@ zero_extendqisi2
 744 003a 012B     		cmp	r3, #1
 745 003c 01D8     		bhi	.L86
 746              	.LVL91:
 747              	.L70:
  99:../Switch/core/yt/yt_port.c ****     CMM_PARAM_CHK(NULL == YT_DISPATCH(unit), CMM_ERR_NOT_INIT);
 748              		.loc 1 99 5 discriminator 5 view .LVU211
  99:../Switch/core/yt/yt_port.c ****     CMM_PARAM_CHK(NULL == YT_DISPATCH(unit), CMM_ERR_NOT_INIT);
 749              		.loc 1 99 5 discriminator 5 view .LVU212
  99:../Switch/core/yt/yt_port.c ****     CMM_PARAM_CHK(NULL == YT_DISPATCH(unit), CMM_ERR_NOT_INIT);
 750              		.loc 1 99 5 discriminator 5 view .LVU213
 751 003e 0520     		movs	r0, #5
 752 0040 F8E7     		b	.L68
 753              	.LVL92:
 754              	.L86:
  99:../Switch/core/yt/yt_port.c ****     CMM_PARAM_CHK(NULL == YT_DISPATCH(unit), CMM_ERR_NOT_INIT);
 755              		.loc 1 99 5 discriminator 3 view .LVU214
 756              	.LBB15:
  99:../Switch/core/yt/yt_port.c ****     CMM_PARAM_CHK(NULL == YT_DISPATCH(unit), CMM_ERR_NOT_INIT);
 757              		.loc 1 99 5 discriminator 3 view .LVU215
 758 0042 244B     		ldr	r3, .L91+16
 759 0044 5A69     		ldr	r2, [r3, #20]
 760              	.LVL93:
  99:../Switch/core/yt/yt_port.c ****     CMM_PARAM_CHK(NULL == YT_DISPATCH(unit), CMM_ERR_NOT_INIT);
 761              		.loc 1 99 5 is_stmt 0 discriminator 3 view .LVU216
 762 0046 244B     		ldr	r3, .L91+20
 763 0048 9968     		ldr	r1, [r3, #8]
 764              	.LVL94:
  99:../Switch/core/yt/yt_port.c ****     CMM_PARAM_CHK(NULL == YT_DISPATCH(unit), CMM_ERR_NOT_INIT);
 765              		.loc 1 99 5 discriminator 3 view .LVU217
 766 004a 2448     		ldr	r0, .L91+24
 767              	.LVL95:
  99:../Switch/core/yt/yt_port.c ****     CMM_PARAM_CHK(NULL == YT_DISPATCH(unit), CMM_ERR_NOT_INIT);
 768              		.loc 1 99 5 discriminator 3 view .LVU218
 769 004c FFF7FEFF 		bl	osal_printf
 770              	.LVL96:
 771 0050 F5E7     		b	.L70
 772              	.LVL97:
 773              	.L83:
  99:../Switch/core/yt/yt_port.c ****     CMM_PARAM_CHK(NULL == YT_DISPATCH(unit), CMM_ERR_NOT_INIT);
 774              		.loc 1 99 5 discriminator 3 view .LVU219
 775              	.LBE15:
 100:../Switch/core/yt/yt_port.c ****     CMM_PARAM_CHK((!(YT_DISPATCH(unit)->is_inited)), CMM_ERR_NOT_INIT);
 776              		.loc 1 100 5 is_stmt 1 discriminator 1 view .LVU220
 100:../Switch/core/yt/yt_port.c ****     CMM_PARAM_CHK((!(YT_DISPATCH(unit)->is_inited)), CMM_ERR_NOT_INIT);
 777              		.loc 1 100 5 discriminator 1 view .LVU221
 778 0052 1F4B     		ldr	r3, .L91+12
 779 0054 1B78     		ldrb	r3, [r3]	@ zero_extendqisi2
 780 0056 012B     		cmp	r3, #1
 781 0058 01D8     		bhi	.L87
 782              	.LVL98:
 783              	.L73:
 100:../Switch/core/yt/yt_port.c ****     CMM_PARAM_CHK((!(YT_DISPATCH(unit)->is_inited)), CMM_ERR_NOT_INIT);
 784              		.loc 1 100 5 discriminator 5 view .LVU222
 100:../Switch/core/yt/yt_port.c ****     CMM_PARAM_CHK((!(YT_DISPATCH(unit)->is_inited)), CMM_ERR_NOT_INIT);
 785              		.loc 1 100 5 discriminator 5 view .LVU223
 100:../Switch/core/yt/yt_port.c ****     CMM_PARAM_CHK((!(YT_DISPATCH(unit)->is_inited)), CMM_ERR_NOT_INIT);
 786              		.loc 1 100 5 discriminator 5 view .LVU224
 787 005a 0420     		movs	r0, #4
 788 005c EAE7     		b	.L68
 789              	.LVL99:
 790              	.L87:
 100:../Switch/core/yt/yt_port.c ****     CMM_PARAM_CHK((!(YT_DISPATCH(unit)->is_inited)), CMM_ERR_NOT_INIT);
 791              		.loc 1 100 5 discriminator 3 view .LVU225
 792              	.LBB16:
 100:../Switch/core/yt/yt_port.c ****     CMM_PARAM_CHK((!(YT_DISPATCH(unit)->is_inited)), CMM_ERR_NOT_INIT);
 793              		.loc 1 100 5 discriminator 3 view .LVU226
 794 005e 1D4B     		ldr	r3, .L91+16
 795 0060 1A69     		ldr	r2, [r3, #16]
 796              	.LVL100:
 100:../Switch/core/yt/yt_port.c ****     CMM_PARAM_CHK((!(YT_DISPATCH(unit)->is_inited)), CMM_ERR_NOT_INIT);
 797              		.loc 1 100 5 is_stmt 0 discriminator 3 view .LVU227
 798 0062 1D4B     		ldr	r3, .L91+20
 799 0064 9968     		ldr	r1, [r3, #8]
 800              	.LVL101:
 100:../Switch/core/yt/yt_port.c ****     CMM_PARAM_CHK((!(YT_DISPATCH(unit)->is_inited)), CMM_ERR_NOT_INIT);
 801              		.loc 1 100 5 discriminator 3 view .LVU228
 802 0066 1D48     		ldr	r0, .L91+24
 803              	.LVL102:
 100:../Switch/core/yt/yt_port.c ****     CMM_PARAM_CHK((!(YT_DISPATCH(unit)->is_inited)), CMM_ERR_NOT_INIT);
 804              		.loc 1 100 5 discriminator 3 view .LVU229
 805 0068 FFF7FEFF 		bl	osal_printf
 806              	.LVL103:
 807 006c F5E7     		b	.L73
 808              	.LVL104:
 809              	.L84:
 100:../Switch/core/yt/yt_port.c ****     CMM_PARAM_CHK((!(YT_DISPATCH(unit)->is_inited)), CMM_ERR_NOT_INIT);
 810              		.loc 1 100 5 discriminator 3 view .LVU230
 811              	.LBE16:
 101:../Switch/core/yt/yt_port.c ****     CMM_PARAM_CHK((!(CMM_PORT_VALID(unit, port))), CMM_ERR_PORT);
 812              		.loc 1 101 5 is_stmt 1 discriminator 1 view .LVU231
 101:../Switch/core/yt/yt_port.c ****     CMM_PARAM_CHK((!(CMM_PORT_VALID(unit, port))), CMM_ERR_PORT);
 813              		.loc 1 101 5 discriminator 1 view .LVU232
 814 006e 184B     		ldr	r3, .L91+12
 815 0070 1B78     		ldrb	r3, [r3]	@ zero_extendqisi2
 816 0072 012B     		cmp	r3, #1
 817 0074 01D8     		bhi	.L88
 818              	.LVL105:
 819              	.L75:
 101:../Switch/core/yt/yt_port.c ****     CMM_PARAM_CHK((!(CMM_PORT_VALID(unit, port))), CMM_ERR_PORT);
 820              		.loc 1 101 5 discriminator 5 view .LVU233
 101:../Switch/core/yt/yt_port.c ****     CMM_PARAM_CHK((!(CMM_PORT_VALID(unit, port))), CMM_ERR_PORT);
 821              		.loc 1 101 5 discriminator 5 view .LVU234
 101:../Switch/core/yt/yt_port.c ****     CMM_PARAM_CHK((!(CMM_PORT_VALID(unit, port))), CMM_ERR_PORT);
 822              		.loc 1 101 5 discriminator 5 view .LVU235
 823 0076 0420     		movs	r0, #4
 824 0078 DCE7     		b	.L68
 825              	.LVL106:
 826              	.L88:
 101:../Switch/core/yt/yt_port.c ****     CMM_PARAM_CHK((!(CMM_PORT_VALID(unit, port))), CMM_ERR_PORT);
 827              		.loc 1 101 5 discriminator 3 view .LVU236
 828              	.LBB17:
 101:../Switch/core/yt/yt_port.c ****     CMM_PARAM_CHK((!(CMM_PORT_VALID(unit, port))), CMM_ERR_PORT);
 829              		.loc 1 101 5 discriminator 3 view .LVU237
 830 007a 164B     		ldr	r3, .L91+16
 831 007c 1A69     		ldr	r2, [r3, #16]
 832              	.LVL107:
 101:../Switch/core/yt/yt_port.c ****     CMM_PARAM_CHK((!(CMM_PORT_VALID(unit, port))), CMM_ERR_PORT);
 833              		.loc 1 101 5 is_stmt 0 discriminator 3 view .LVU238
 834 007e 164B     		ldr	r3, .L91+20
 835 0080 9968     		ldr	r1, [r3, #8]
 836              	.LVL108:
 101:../Switch/core/yt/yt_port.c ****     CMM_PARAM_CHK((!(CMM_PORT_VALID(unit, port))), CMM_ERR_PORT);
 837              		.loc 1 101 5 discriminator 3 view .LVU239
 838 0082 1648     		ldr	r0, .L91+24
 839 0084 FFF7FEFF 		bl	osal_printf
 840              	.LVL109:
 841 0088 F5E7     		b	.L75
 842              	.LVL110:
 843              	.L76:
 101:../Switch/core/yt/yt_port.c ****     CMM_PARAM_CHK((!(CMM_PORT_VALID(unit, port))), CMM_ERR_PORT);
 844              		.loc 1 101 5 discriminator 3 view .LVU240
 845              	.LBE17:
 102:../Switch/core/yt/yt_port.c ****     CMM_PARAM_CHK((NULL == pLinkStatus), CMM_ERR_NULL_POINT);
 846              		.loc 1 102 5 is_stmt 1 discriminator 3 view .LVU241
 102:../Switch/core/yt/yt_port.c ****     CMM_PARAM_CHK((NULL == pLinkStatus), CMM_ERR_NULL_POINT);
 847              		.loc 1 102 5 discriminator 3 view .LVU242
 848 008a 114B     		ldr	r3, .L91+12
 849 008c 1B78     		ldrb	r3, [r3]	@ zero_extendqisi2
 850 008e 012B     		cmp	r3, #1
 851 0090 01D8     		bhi	.L89
 852              	.LVL111:
 853              	.L78:
 102:../Switch/core/yt/yt_port.c ****     CMM_PARAM_CHK((NULL == pLinkStatus), CMM_ERR_NULL_POINT);
 854              		.loc 1 102 5 discriminator 7 view .LVU243
 102:../Switch/core/yt/yt_port.c ****     CMM_PARAM_CHK((NULL == pLinkStatus), CMM_ERR_NULL_POINT);
 855              		.loc 1 102 5 discriminator 7 view .LVU244
 102:../Switch/core/yt/yt_port.c ****     CMM_PARAM_CHK((NULL == pLinkStatus), CMM_ERR_NULL_POINT);
 856              		.loc 1 102 5 discriminator 7 view .LVU245
 857 0092 0E20     		movs	r0, #14
 858 0094 CEE7     		b	.L68
 859              	.LVL112:
 860              	.L89:
 102:../Switch/core/yt/yt_port.c ****     CMM_PARAM_CHK((NULL == pLinkStatus), CMM_ERR_NULL_POINT);
 861              		.loc 1 102 5 discriminator 5 view .LVU246
 862              	.LBB18:
 102:../Switch/core/yt/yt_port.c ****     CMM_PARAM_CHK((NULL == pLinkStatus), CMM_ERR_NULL_POINT);
 863              		.loc 1 102 5 discriminator 5 view .LVU247
 864 0096 0F4B     		ldr	r3, .L91+16
 865 0098 9A6B     		ldr	r2, [r3, #56]
 866              	.LVL113:
 102:../Switch/core/yt/yt_port.c ****     CMM_PARAM_CHK((NULL == pLinkStatus), CMM_ERR_NULL_POINT);
 867              		.loc 1 102 5 is_stmt 0 discriminator 5 view .LVU248
 868 009a 0F4B     		ldr	r3, .L91+20
 869 009c 9968     		ldr	r1, [r3, #8]
 870              	.LVL114:
 102:../Switch/core/yt/yt_port.c ****     CMM_PARAM_CHK((NULL == pLinkStatus), CMM_ERR_NULL_POINT);
 871              		.loc 1 102 5 discriminator 5 view .LVU249
 872 009e 0F48     		ldr	r0, .L91+24
 873 00a0 FFF7FEFF 		bl	osal_printf
 874              	.LVL115:
 875 00a4 F5E7     		b	.L78
 876              	.LVL116:
 877              	.L85:
 102:../Switch/core/yt/yt_port.c ****     CMM_PARAM_CHK((NULL == pLinkStatus), CMM_ERR_NULL_POINT);
 878              		.loc 1 102 5 discriminator 5 view .LVU250
 879              	.LBE18:
 103:../Switch/core/yt/yt_port.c **** 
 880              		.loc 1 103 5 is_stmt 1 discriminator 1 view .LVU251
 103:../Switch/core/yt/yt_port.c **** 
 881              		.loc 1 103 5 discriminator 1 view .LVU252
 882 00a6 0A4B     		ldr	r3, .L91+12
 883 00a8 1B78     		ldrb	r3, [r3]	@ zero_extendqisi2
 884 00aa 012B     		cmp	r3, #1
 885 00ac 01D8     		bhi	.L90
 886              	.LVL117:
 887              	.L80:
 103:../Switch/core/yt/yt_port.c **** 
 888              		.loc 1 103 5 discriminator 5 view .LVU253
 103:../Switch/core/yt/yt_port.c **** 
 889              		.loc 1 103 5 discriminator 5 view .LVU254
 103:../Switch/core/yt/yt_port.c **** 
 890              		.loc 1 103 5 discriminator 5 view .LVU255
 891 00ae 0220     		movs	r0, #2
 892 00b0 C0E7     		b	.L68
 893              	.LVL118:
 894              	.L90:
 103:../Switch/core/yt/yt_port.c **** 
 895              		.loc 1 103 5 discriminator 3 view .LVU256
 896              	.LBB19:
 103:../Switch/core/yt/yt_port.c **** 
 897              		.loc 1 103 5 discriminator 3 view .LVU257
 898 00b2 084B     		ldr	r3, .L91+16
 899 00b4 9A68     		ldr	r2, [r3, #8]
 900              	.LVL119:
 103:../Switch/core/yt/yt_port.c **** 
 901              		.loc 1 103 5 is_stmt 0 discriminator 3 view .LVU258
 902 00b6 084B     		ldr	r3, .L91+20
 903 00b8 9968     		ldr	r1, [r3, #8]
 904              	.LVL120:
 103:../Switch/core/yt/yt_port.c **** 
 905              		.loc 1 103 5 discriminator 3 view .LVU259
 906 00ba 0848     		ldr	r0, .L91+24
 907 00bc FFF7FEFF 		bl	osal_printf
 908              	.LVL121:
 909 00c0 F5E7     		b	.L80
 910              	.L92:
 911 00c2 00BF     		.align	2
 912              	.L91:
 913 00c4 00000000 		.word	gpfal_dispatch
 914 00c8 00000000 		.word	gcal_inited
 915 00cc 00000000 		.word	gpSwitchUnit
 916 00d0 00000000 		.word	yt_debug_level
 917 00d4 00000000 		.word	_yt_errmsg
 918 00d8 00000000 		.word	_yt_prompt_msg
 919 00dc 00000000 		.word	.LC0
 920              	.LBE19:
 921              		.cfi_endproc
 922              	.LFE6:
 924              		.section	.text.yt_port_link_status_all_get,"ax",%progbits
 925              		.align	1
 926              		.global	yt_port_link_status_all_get
 927              		.syntax unified
 928              		.thumb
 929              		.thumb_func
 931              	yt_port_link_status_all_get:
 932              	.LVL122:
 933              	.LFB7:
 107:../Switch/core/yt/yt_port.c **** 
 108:../Switch/core/yt/yt_port.c **** /**
 109:../Switch/core/yt/yt_port.c ****  * @internal      yt_port_link_status_all_get
 110:../Switch/core/yt/yt_port.c ****  * @endinternal
 111:../Switch/core/yt/yt_port.c ****  *
 112:../Switch/core/yt/yt_port.c ****  * @brief         Description
 113:../Switch/core/yt/yt_port.c ****  * @note          APPLICABLE DEVICES  -Tiger
 114:../Switch/core/yt/yt_port.c ****  * @param[in]     unit                -unit id
 115:../Switch/core/yt/yt_port.c ****  * @param[in]     port                -port num
 116:../Switch/core/yt/yt_port.c ****  * @param[out]    pAllLinkStatus      -x
 117:../Switch/core/yt/yt_port.c ****  * @retval        CMM_ERR_OK          -on success
 118:../Switch/core/yt/yt_port.c ****  * @retval        CMM_ERR_FAIL        -on fail
 119:../Switch/core/yt/yt_port.c ****  */
 120:../Switch/core/yt/yt_port.c **** yt_ret_t yt_port_link_status_all_get(yt_unit_t unit, yt_port_t port, yt_port_linkStatus_all_t *pAll
 121:../Switch/core/yt/yt_port.c **** {
 934              		.loc 1 121 1 is_stmt 1 view -0
 935              		.cfi_startproc
 936              		@ args = 0, pretend = 0, frame = 0
 937              		@ frame_needed = 0, uses_anonymous_args = 0
 938              		.loc 1 121 1 is_stmt 0 view .LVU261
 939 0000 08B5     		push	{r3, lr}
 940              		.cfi_def_cfa_offset 8
 941              		.cfi_offset 3, -8
 942              		.cfi_offset 14, -4
 122:../Switch/core/yt/yt_port.c ****     CMM_PARAM_CHK((YT_UNIT_NUM <= unit), CMM_ERR_INPUT);
 943              		.loc 1 122 5 is_stmt 1 view .LVU262
 944              		.loc 1 122 5 view .LVU263
 945 0002 C0B9     		cbnz	r0, .L107
 946 0004 8446     		mov	ip, r0
 947              		.loc 1 122 5 discriminator 2 view .LVU264
 123:../Switch/core/yt/yt_port.c ****     CMM_PARAM_CHK(NULL == YT_DISPATCH(unit), CMM_ERR_NOT_INIT);
 948              		.loc 1 123 5 discriminator 2 view .LVU265
 949              		.loc 1 123 5 discriminator 2 view .LVU266
 950 0006 2F4B     		ldr	r3, .L116
 951 0008 53F82030 		ldr	r3, [r3, r0, lsl #2]
 952 000c 0BB3     		cbz	r3, .L108
 953              		.loc 1 123 5 discriminator 2 view .LVU267
 124:../Switch/core/yt/yt_port.c ****     CMM_PARAM_CHK((!(YT_DISPATCH(unit)->is_inited)), CMM_ERR_NOT_INIT);
 954              		.loc 1 124 5 discriminator 2 view .LVU268
 955              		.loc 1 124 5 discriminator 2 view .LVU269
 956 000e 1878     		ldrb	r0, [r3]	@ zero_extendqisi2
 957              	.LVL123:
 958              		.loc 1 124 5 is_stmt 0 discriminator 2 view .LVU270
 959 0010 0028     		cmp	r0, #0
 960 0012 2CD0     		beq	.L109
 961              		.loc 1 124 5 is_stmt 1 discriminator 2 view .LVU271
 125:../Switch/core/yt/yt_port.c ****     CMM_PARAM_CHK((!(CMM_PORT_VALID(unit, port))), CMM_ERR_PORT);
 962              		.loc 1 125 5 discriminator 2 view .LVU272
 963              		.loc 1 125 5 discriminator 2 view .LVU273
 964 0014 2C48     		ldr	r0, .L116+4
 965 0016 0078     		ldrb	r0, [r0]	@ zero_extendqisi2
 966 0018 0028     		cmp	r0, #0
 967 001a 36D0     		beq	.L101
 968 001c 2B48     		ldr	r0, .L116+8
 969 001e 50F82C00 		ldr	r0, [r0, ip, lsl #2]
 970 0022 007D     		ldrb	r0, [r0, #20]	@ zero_extendqisi2
 971 0024 8842     		cmp	r0, r1
 972 0026 30D9     		bls	.L101
 973              		.loc 1 125 5 discriminator 4 view .LVU274
 126:../Switch/core/yt/yt_port.c ****     CMM_PARAM_CHK((NULL == pAllLinkStatus), CMM_ERR_NULL_POINT);
 974              		.loc 1 126 5 discriminator 4 view .LVU275
 975              		.loc 1 126 5 discriminator 4 view .LVU276
 976 0028 002A     		cmp	r2, #0
 977 002a 3CD0     		beq	.L110
 978              		.loc 1 126 5 discriminator 2 view .LVU277
 127:../Switch/core/yt/yt_port.c **** 
 128:../Switch/core/yt/yt_port.c ****     return YT_DISPATCH(unit)->port_link_status_all_get(unit, port, pAllLinkStatus);
 979              		.loc 1 128 5 discriminator 2 view .LVU278
 980              		.loc 1 128 29 is_stmt 0 discriminator 2 view .LVU279
 981 002c D3F86035 		ldr	r3, [r3, #1376]
 982              		.loc 1 128 12 discriminator 2 view .LVU280
 983 0030 6046     		mov	r0, ip
 984 0032 9847     		blx	r3
 985              	.LVL124:
 986              	.L93:
 129:../Switch/core/yt/yt_port.c **** }
 987              		.loc 1 129 1 view .LVU281
 988 0034 08BD     		pop	{r3, pc}
 989              	.LVL125:
 990              	.L107:
 122:../Switch/core/yt/yt_port.c ****     CMM_PARAM_CHK(NULL == YT_DISPATCH(unit), CMM_ERR_NOT_INIT);
 991              		.loc 1 122 5 is_stmt 1 discriminator 1 view .LVU282
 122:../Switch/core/yt/yt_port.c ****     CMM_PARAM_CHK(NULL == YT_DISPATCH(unit), CMM_ERR_NOT_INIT);
 992              		.loc 1 122 5 discriminator 1 view .LVU283
 993 0036 264B     		ldr	r3, .L116+12
 994 0038 1B78     		ldrb	r3, [r3]	@ zero_extendqisi2
 995 003a 012B     		cmp	r3, #1
 996 003c 01D8     		bhi	.L111
 997              	.LVL126:
 998              	.L95:
 122:../Switch/core/yt/yt_port.c ****     CMM_PARAM_CHK(NULL == YT_DISPATCH(unit), CMM_ERR_NOT_INIT);
 999              		.loc 1 122 5 discriminator 5 view .LVU284
 122:../Switch/core/yt/yt_port.c ****     CMM_PARAM_CHK(NULL == YT_DISPATCH(unit), CMM_ERR_NOT_INIT);
 1000              		.loc 1 122 5 discriminator 5 view .LVU285
 122:../Switch/core/yt/yt_port.c ****     CMM_PARAM_CHK(NULL == YT_DISPATCH(unit), CMM_ERR_NOT_INIT);
 1001              		.loc 1 122 5 discriminator 5 view .LVU286
 1002 003e 0520     		movs	r0, #5
 1003 0040 F8E7     		b	.L93
 1004              	.LVL127:
 1005              	.L111:
 122:../Switch/core/yt/yt_port.c ****     CMM_PARAM_CHK(NULL == YT_DISPATCH(unit), CMM_ERR_NOT_INIT);
 1006              		.loc 1 122 5 discriminator 3 view .LVU287
 1007              	.LBB20:
 122:../Switch/core/yt/yt_port.c ****     CMM_PARAM_CHK(NULL == YT_DISPATCH(unit), CMM_ERR_NOT_INIT);
 1008              		.loc 1 122 5 discriminator 3 view .LVU288
 1009 0042 244B     		ldr	r3, .L116+16
 1010 0044 5A69     		ldr	r2, [r3, #20]
 1011              	.LVL128:
 122:../Switch/core/yt/yt_port.c ****     CMM_PARAM_CHK(NULL == YT_DISPATCH(unit), CMM_ERR_NOT_INIT);
 1012              		.loc 1 122 5 is_stmt 0 discriminator 3 view .LVU289
 1013 0046 244B     		ldr	r3, .L116+20
 1014 0048 9968     		ldr	r1, [r3, #8]
 1015              	.LVL129:
 122:../Switch/core/yt/yt_port.c ****     CMM_PARAM_CHK(NULL == YT_DISPATCH(unit), CMM_ERR_NOT_INIT);
 1016              		.loc 1 122 5 discriminator 3 view .LVU290
 1017 004a 2448     		ldr	r0, .L116+24
 1018              	.LVL130:
 122:../Switch/core/yt/yt_port.c ****     CMM_PARAM_CHK(NULL == YT_DISPATCH(unit), CMM_ERR_NOT_INIT);
 1019              		.loc 1 122 5 discriminator 3 view .LVU291
 1020 004c FFF7FEFF 		bl	osal_printf
 1021              	.LVL131:
 1022 0050 F5E7     		b	.L95
 1023              	.LVL132:
 1024              	.L108:
 122:../Switch/core/yt/yt_port.c ****     CMM_PARAM_CHK(NULL == YT_DISPATCH(unit), CMM_ERR_NOT_INIT);
 1025              		.loc 1 122 5 discriminator 3 view .LVU292
 1026              	.LBE20:
 123:../Switch/core/yt/yt_port.c ****     CMM_PARAM_CHK((!(YT_DISPATCH(unit)->is_inited)), CMM_ERR_NOT_INIT);
 1027              		.loc 1 123 5 is_stmt 1 discriminator 1 view .LVU293
 123:../Switch/core/yt/yt_port.c ****     CMM_PARAM_CHK((!(YT_DISPATCH(unit)->is_inited)), CMM_ERR_NOT_INIT);
 1028              		.loc 1 123 5 discriminator 1 view .LVU294
 1029 0052 1F4B     		ldr	r3, .L116+12
 1030 0054 1B78     		ldrb	r3, [r3]	@ zero_extendqisi2
 1031 0056 012B     		cmp	r3, #1
 1032 0058 01D8     		bhi	.L112
 1033              	.LVL133:
 1034              	.L98:
 123:../Switch/core/yt/yt_port.c ****     CMM_PARAM_CHK((!(YT_DISPATCH(unit)->is_inited)), CMM_ERR_NOT_INIT);
 1035              		.loc 1 123 5 discriminator 5 view .LVU295
 123:../Switch/core/yt/yt_port.c ****     CMM_PARAM_CHK((!(YT_DISPATCH(unit)->is_inited)), CMM_ERR_NOT_INIT);
 1036              		.loc 1 123 5 discriminator 5 view .LVU296
 123:../Switch/core/yt/yt_port.c ****     CMM_PARAM_CHK((!(YT_DISPATCH(unit)->is_inited)), CMM_ERR_NOT_INIT);
 1037              		.loc 1 123 5 discriminator 5 view .LVU297
 1038 005a 0420     		movs	r0, #4
 1039 005c EAE7     		b	.L93
 1040              	.LVL134:
 1041              	.L112:
 123:../Switch/core/yt/yt_port.c ****     CMM_PARAM_CHK((!(YT_DISPATCH(unit)->is_inited)), CMM_ERR_NOT_INIT);
 1042              		.loc 1 123 5 discriminator 3 view .LVU298
 1043              	.LBB21:
 123:../Switch/core/yt/yt_port.c ****     CMM_PARAM_CHK((!(YT_DISPATCH(unit)->is_inited)), CMM_ERR_NOT_INIT);
 1044              		.loc 1 123 5 discriminator 3 view .LVU299
 1045 005e 1D4B     		ldr	r3, .L116+16
 1046 0060 1A69     		ldr	r2, [r3, #16]
 1047              	.LVL135:
 123:../Switch/core/yt/yt_port.c ****     CMM_PARAM_CHK((!(YT_DISPATCH(unit)->is_inited)), CMM_ERR_NOT_INIT);
 1048              		.loc 1 123 5 is_stmt 0 discriminator 3 view .LVU300
 1049 0062 1D4B     		ldr	r3, .L116+20
 1050 0064 9968     		ldr	r1, [r3, #8]
 1051              	.LVL136:
 123:../Switch/core/yt/yt_port.c ****     CMM_PARAM_CHK((!(YT_DISPATCH(unit)->is_inited)), CMM_ERR_NOT_INIT);
 1052              		.loc 1 123 5 discriminator 3 view .LVU301
 1053 0066 1D48     		ldr	r0, .L116+24
 1054              	.LVL137:
 123:../Switch/core/yt/yt_port.c ****     CMM_PARAM_CHK((!(YT_DISPATCH(unit)->is_inited)), CMM_ERR_NOT_INIT);
 1055              		.loc 1 123 5 discriminator 3 view .LVU302
 1056 0068 FFF7FEFF 		bl	osal_printf
 1057              	.LVL138:
 1058 006c F5E7     		b	.L98
 1059              	.LVL139:
 1060              	.L109:
 123:../Switch/core/yt/yt_port.c ****     CMM_PARAM_CHK((!(YT_DISPATCH(unit)->is_inited)), CMM_ERR_NOT_INIT);
 1061              		.loc 1 123 5 discriminator 3 view .LVU303
 1062              	.LBE21:
 124:../Switch/core/yt/yt_port.c ****     CMM_PARAM_CHK((!(CMM_PORT_VALID(unit, port))), CMM_ERR_PORT);
 1063              		.loc 1 124 5 is_stmt 1 discriminator 1 view .LVU304
 124:../Switch/core/yt/yt_port.c ****     CMM_PARAM_CHK((!(CMM_PORT_VALID(unit, port))), CMM_ERR_PORT);
 1064              		.loc 1 124 5 discriminator 1 view .LVU305
 1065 006e 184B     		ldr	r3, .L116+12
 1066 0070 1B78     		ldrb	r3, [r3]	@ zero_extendqisi2
 1067 0072 012B     		cmp	r3, #1
 1068 0074 01D8     		bhi	.L113
 1069              	.LVL140:
 1070              	.L100:
 124:../Switch/core/yt/yt_port.c ****     CMM_PARAM_CHK((!(CMM_PORT_VALID(unit, port))), CMM_ERR_PORT);
 1071              		.loc 1 124 5 discriminator 5 view .LVU306
 124:../Switch/core/yt/yt_port.c ****     CMM_PARAM_CHK((!(CMM_PORT_VALID(unit, port))), CMM_ERR_PORT);
 1072              		.loc 1 124 5 discriminator 5 view .LVU307
 124:../Switch/core/yt/yt_port.c ****     CMM_PARAM_CHK((!(CMM_PORT_VALID(unit, port))), CMM_ERR_PORT);
 1073              		.loc 1 124 5 discriminator 5 view .LVU308
 1074 0076 0420     		movs	r0, #4
 1075 0078 DCE7     		b	.L93
 1076              	.LVL141:
 1077              	.L113:
 124:../Switch/core/yt/yt_port.c ****     CMM_PARAM_CHK((!(CMM_PORT_VALID(unit, port))), CMM_ERR_PORT);
 1078              		.loc 1 124 5 discriminator 3 view .LVU309
 1079              	.LBB22:
 124:../Switch/core/yt/yt_port.c ****     CMM_PARAM_CHK((!(CMM_PORT_VALID(unit, port))), CMM_ERR_PORT);
 1080              		.loc 1 124 5 discriminator 3 view .LVU310
 1081 007a 164B     		ldr	r3, .L116+16
 1082 007c 1A69     		ldr	r2, [r3, #16]
 1083              	.LVL142:
 124:../Switch/core/yt/yt_port.c ****     CMM_PARAM_CHK((!(CMM_PORT_VALID(unit, port))), CMM_ERR_PORT);
 1084              		.loc 1 124 5 is_stmt 0 discriminator 3 view .LVU311
 1085 007e 164B     		ldr	r3, .L116+20
 1086 0080 9968     		ldr	r1, [r3, #8]
 1087              	.LVL143:
 124:../Switch/core/yt/yt_port.c ****     CMM_PARAM_CHK((!(CMM_PORT_VALID(unit, port))), CMM_ERR_PORT);
 1088              		.loc 1 124 5 discriminator 3 view .LVU312
 1089 0082 1648     		ldr	r0, .L116+24
 1090 0084 FFF7FEFF 		bl	osal_printf
 1091              	.LVL144:
 1092 0088 F5E7     		b	.L100
 1093              	.LVL145:
 1094              	.L101:
 124:../Switch/core/yt/yt_port.c ****     CMM_PARAM_CHK((!(CMM_PORT_VALID(unit, port))), CMM_ERR_PORT);
 1095              		.loc 1 124 5 discriminator 3 view .LVU313
 1096              	.LBE22:
 125:../Switch/core/yt/yt_port.c ****     CMM_PARAM_CHK((NULL == pAllLinkStatus), CMM_ERR_NULL_POINT);
 1097              		.loc 1 125 5 is_stmt 1 discriminator 3 view .LVU314
 125:../Switch/core/yt/yt_port.c ****     CMM_PARAM_CHK((NULL == pAllLinkStatus), CMM_ERR_NULL_POINT);
 1098              		.loc 1 125 5 discriminator 3 view .LVU315
 1099 008a 114B     		ldr	r3, .L116+12
 1100 008c 1B78     		ldrb	r3, [r3]	@ zero_extendqisi2
 1101 008e 012B     		cmp	r3, #1
 1102 0090 01D8     		bhi	.L114
 1103              	.LVL146:
 1104              	.L103:
 125:../Switch/core/yt/yt_port.c ****     CMM_PARAM_CHK((NULL == pAllLinkStatus), CMM_ERR_NULL_POINT);
 1105              		.loc 1 125 5 discriminator 7 view .LVU316
 125:../Switch/core/yt/yt_port.c ****     CMM_PARAM_CHK((NULL == pAllLinkStatus), CMM_ERR_NULL_POINT);
 1106              		.loc 1 125 5 discriminator 7 view .LVU317
 125:../Switch/core/yt/yt_port.c ****     CMM_PARAM_CHK((NULL == pAllLinkStatus), CMM_ERR_NULL_POINT);
 1107              		.loc 1 125 5 discriminator 7 view .LVU318
 1108 0092 0E20     		movs	r0, #14
 1109 0094 CEE7     		b	.L93
 1110              	.LVL147:
 1111              	.L114:
 125:../Switch/core/yt/yt_port.c ****     CMM_PARAM_CHK((NULL == pAllLinkStatus), CMM_ERR_NULL_POINT);
 1112              		.loc 1 125 5 discriminator 5 view .LVU319
 1113              	.LBB23:
 125:../Switch/core/yt/yt_port.c ****     CMM_PARAM_CHK((NULL == pAllLinkStatus), CMM_ERR_NULL_POINT);
 1114              		.loc 1 125 5 discriminator 5 view .LVU320
 1115 0096 0F4B     		ldr	r3, .L116+16
 1116 0098 9A6B     		ldr	r2, [r3, #56]
 1117              	.LVL148:
 125:../Switch/core/yt/yt_port.c ****     CMM_PARAM_CHK((NULL == pAllLinkStatus), CMM_ERR_NULL_POINT);
 1118              		.loc 1 125 5 is_stmt 0 discriminator 5 view .LVU321
 1119 009a 0F4B     		ldr	r3, .L116+20
 1120 009c 9968     		ldr	r1, [r3, #8]
 1121              	.LVL149:
 125:../Switch/core/yt/yt_port.c ****     CMM_PARAM_CHK((NULL == pAllLinkStatus), CMM_ERR_NULL_POINT);
 1122              		.loc 1 125 5 discriminator 5 view .LVU322
 1123 009e 0F48     		ldr	r0, .L116+24
 1124 00a0 FFF7FEFF 		bl	osal_printf
 1125              	.LVL150:
 1126 00a4 F5E7     		b	.L103
 1127              	.LVL151:
 1128              	.L110:
 125:../Switch/core/yt/yt_port.c ****     CMM_PARAM_CHK((NULL == pAllLinkStatus), CMM_ERR_NULL_POINT);
 1129              		.loc 1 125 5 discriminator 5 view .LVU323
 1130              	.LBE23:
 126:../Switch/core/yt/yt_port.c **** 
 1131              		.loc 1 126 5 is_stmt 1 discriminator 1 view .LVU324
 126:../Switch/core/yt/yt_port.c **** 
 1132              		.loc 1 126 5 discriminator 1 view .LVU325
 1133 00a6 0A4B     		ldr	r3, .L116+12
 1134 00a8 1B78     		ldrb	r3, [r3]	@ zero_extendqisi2
 1135 00aa 012B     		cmp	r3, #1
 1136 00ac 01D8     		bhi	.L115
 1137              	.LVL152:
 1138              	.L105:
 126:../Switch/core/yt/yt_port.c **** 
 1139              		.loc 1 126 5 discriminator 5 view .LVU326
 126:../Switch/core/yt/yt_port.c **** 
 1140              		.loc 1 126 5 discriminator 5 view .LVU327
 126:../Switch/core/yt/yt_port.c **** 
 1141              		.loc 1 126 5 discriminator 5 view .LVU328
 1142 00ae 0220     		movs	r0, #2
 1143 00b0 C0E7     		b	.L93
 1144              	.LVL153:
 1145              	.L115:
 126:../Switch/core/yt/yt_port.c **** 
 1146              		.loc 1 126 5 discriminator 3 view .LVU329
 1147              	.LBB24:
 126:../Switch/core/yt/yt_port.c **** 
 1148              		.loc 1 126 5 discriminator 3 view .LVU330
 1149 00b2 084B     		ldr	r3, .L116+16
 1150 00b4 9A68     		ldr	r2, [r3, #8]
 1151              	.LVL154:
 126:../Switch/core/yt/yt_port.c **** 
 1152              		.loc 1 126 5 is_stmt 0 discriminator 3 view .LVU331
 1153 00b6 084B     		ldr	r3, .L116+20
 1154 00b8 9968     		ldr	r1, [r3, #8]
 1155              	.LVL155:
 126:../Switch/core/yt/yt_port.c **** 
 1156              		.loc 1 126 5 discriminator 3 view .LVU332
 1157 00ba 0848     		ldr	r0, .L116+24
 1158 00bc FFF7FEFF 		bl	osal_printf
 1159              	.LVL156:
 1160 00c0 F5E7     		b	.L105
 1161              	.L117:
 1162 00c2 00BF     		.align	2
 1163              	.L116:
 1164 00c4 00000000 		.word	gpfal_dispatch
 1165 00c8 00000000 		.word	gcal_inited
 1166 00cc 00000000 		.word	gpSwitchUnit
 1167 00d0 00000000 		.word	yt_debug_level
 1168 00d4 00000000 		.word	_yt_errmsg
 1169 00d8 00000000 		.word	_yt_prompt_msg
 1170 00dc 00000000 		.word	.LC0
 1171              	.LBE24:
 1172              		.cfi_endproc
 1173              	.LFE7:
 1175              		.section	.text.yt_port_backpress_enable_set,"ax",%progbits
 1176              		.align	1
 1177              		.global	yt_port_backpress_enable_set
 1178              		.syntax unified
 1179              		.thumb
 1180              		.thumb_func
 1182              	yt_port_backpress_enable_set:
 1183              	.LVL157:
 1184              	.LFB8:
 130:../Switch/core/yt/yt_port.c **** 
 131:../Switch/core/yt/yt_port.c **** /**
 132:../Switch/core/yt/yt_port.c ****  * @internal      yt_port_backpress_enable_set
 133:../Switch/core/yt/yt_port.c ****  * @endinternal
 134:../Switch/core/yt/yt_port.c ****  *
 135:../Switch/core/yt/yt_port.c ****  * @brief         Description
 136:../Switch/core/yt/yt_port.c ****  * @note          APPLICABLE DEVICES  -Tiger
 137:../Switch/core/yt/yt_port.c ****  * @param[in]     unit                -unit id
 138:../Switch/core/yt/yt_port.c ****  * @param[in]     port                -port num
 139:../Switch/core/yt/yt_port.c ****  * @param[in]     enable              -enable or disable
 140:../Switch/core/yt/yt_port.c ****  * @retval        CMM_ERR_OK          -on success
 141:../Switch/core/yt/yt_port.c ****  * @retval        CMM_ERR_FAIL        -on fail
 142:../Switch/core/yt/yt_port.c ****  */
 143:../Switch/core/yt/yt_port.c **** yt_ret_t yt_port_backpress_enable_set(yt_unit_t unit, yt_port_t port, yt_enable_t enable)
 144:../Switch/core/yt/yt_port.c **** {
 1185              		.loc 1 144 1 is_stmt 1 view -0
 1186              		.cfi_startproc
 1187              		@ args = 0, pretend = 0, frame = 0
 1188              		@ frame_needed = 0, uses_anonymous_args = 0
 1189              		.loc 1 144 1 is_stmt 0 view .LVU334
 1190 0000 08B5     		push	{r3, lr}
 1191              		.cfi_def_cfa_offset 8
 1192              		.cfi_offset 3, -8
 1193              		.cfi_offset 14, -4
 145:../Switch/core/yt/yt_port.c ****     CMM_PARAM_CHK((YT_UNIT_NUM <= unit), CMM_ERR_INPUT);
 1194              		.loc 1 145 5 is_stmt 1 view .LVU335
 1195              		.loc 1 145 5 view .LVU336
 1196 0002 C0B9     		cbnz	r0, .L132
 1197 0004 8446     		mov	ip, r0
 1198              		.loc 1 145 5 discriminator 2 view .LVU337
 146:../Switch/core/yt/yt_port.c ****     CMM_PARAM_CHK(NULL == YT_DISPATCH(unit), CMM_ERR_NOT_INIT);
 1199              		.loc 1 146 5 discriminator 2 view .LVU338
 1200              		.loc 1 146 5 discriminator 2 view .LVU339
 1201 0006 2F4B     		ldr	r3, .L141
 1202 0008 53F82030 		ldr	r3, [r3, r0, lsl #2]
 1203 000c 0BB3     		cbz	r3, .L133
 1204              		.loc 1 146 5 discriminator 2 view .LVU340
 147:../Switch/core/yt/yt_port.c ****     CMM_PARAM_CHK((!(YT_DISPATCH(unit)->is_inited)), CMM_ERR_NOT_INIT);
 1205              		.loc 1 147 5 discriminator 2 view .LVU341
 1206              		.loc 1 147 5 discriminator 2 view .LVU342
 1207 000e 1878     		ldrb	r0, [r3]	@ zero_extendqisi2
 1208              	.LVL158:
 1209              		.loc 1 147 5 is_stmt 0 discriminator 2 view .LVU343
 1210 0010 0028     		cmp	r0, #0
 1211 0012 2CD0     		beq	.L134
 1212              		.loc 1 147 5 is_stmt 1 discriminator 2 view .LVU344
 148:../Switch/core/yt/yt_port.c ****     CMM_PARAM_CHK((!(CMM_PORT_VALID(unit, port))), CMM_ERR_PORT);
 1213              		.loc 1 148 5 discriminator 2 view .LVU345
 1214              		.loc 1 148 5 discriminator 2 view .LVU346
 1215 0014 2C48     		ldr	r0, .L141+4
 1216 0016 0078     		ldrb	r0, [r0]	@ zero_extendqisi2
 1217 0018 0028     		cmp	r0, #0
 1218 001a 36D0     		beq	.L126
 1219 001c 2B48     		ldr	r0, .L141+8
 1220 001e 50F82C00 		ldr	r0, [r0, ip, lsl #2]
 1221 0022 007D     		ldrb	r0, [r0, #20]	@ zero_extendqisi2
 1222 0024 8842     		cmp	r0, r1
 1223 0026 30D9     		bls	.L126
 1224              		.loc 1 148 5 discriminator 4 view .LVU347
 149:../Switch/core/yt/yt_port.c ****     CMM_PARAM_CHK((YT_ENABLE < enable || YT_DISABLE > enable), CMM_ERR_INPUT);
 1225              		.loc 1 149 5 discriminator 4 view .LVU348
 1226              		.loc 1 149 5 discriminator 4 view .LVU349
 1227 0028 012A     		cmp	r2, #1
 1228 002a 3CD8     		bhi	.L135
 1229              		.loc 1 149 5 discriminator 2 view .LVU350
 150:../Switch/core/yt/yt_port.c **** 
 151:../Switch/core/yt/yt_port.c ****     return YT_DISPATCH(unit)->port_backpress_enable_set(unit, port, enable);
 1230              		.loc 1 151 5 discriminator 2 view .LVU351
 1231              		.loc 1 151 29 is_stmt 0 discriminator 2 view .LVU352
 1232 002c D3F86435 		ldr	r3, [r3, #1380]
 1233              		.loc 1 151 12 discriminator 2 view .LVU353
 1234 0030 6046     		mov	r0, ip
 1235 0032 9847     		blx	r3
 1236              	.LVL159:
 1237              	.L118:
 152:../Switch/core/yt/yt_port.c **** }
 1238              		.loc 1 152 1 view .LVU354
 1239 0034 08BD     		pop	{r3, pc}
 1240              	.LVL160:
 1241              	.L132:
 145:../Switch/core/yt/yt_port.c ****     CMM_PARAM_CHK(NULL == YT_DISPATCH(unit), CMM_ERR_NOT_INIT);
 1242              		.loc 1 145 5 is_stmt 1 discriminator 1 view .LVU355
 145:../Switch/core/yt/yt_port.c ****     CMM_PARAM_CHK(NULL == YT_DISPATCH(unit), CMM_ERR_NOT_INIT);
 1243              		.loc 1 145 5 discriminator 1 view .LVU356
 1244 0036 264B     		ldr	r3, .L141+12
 1245 0038 1B78     		ldrb	r3, [r3]	@ zero_extendqisi2
 1246 003a 012B     		cmp	r3, #1
 1247 003c 01D8     		bhi	.L136
 1248              	.LVL161:
 1249              	.L120:
 145:../Switch/core/yt/yt_port.c ****     CMM_PARAM_CHK(NULL == YT_DISPATCH(unit), CMM_ERR_NOT_INIT);
 1250              		.loc 1 145 5 discriminator 5 view .LVU357
 145:../Switch/core/yt/yt_port.c ****     CMM_PARAM_CHK(NULL == YT_DISPATCH(unit), CMM_ERR_NOT_INIT);
 1251              		.loc 1 145 5 discriminator 5 view .LVU358
 145:../Switch/core/yt/yt_port.c ****     CMM_PARAM_CHK(NULL == YT_DISPATCH(unit), CMM_ERR_NOT_INIT);
 1252              		.loc 1 145 5 discriminator 5 view .LVU359
 1253 003e 0520     		movs	r0, #5
 1254 0040 F8E7     		b	.L118
 1255              	.LVL162:
 1256              	.L136:
 145:../Switch/core/yt/yt_port.c ****     CMM_PARAM_CHK(NULL == YT_DISPATCH(unit), CMM_ERR_NOT_INIT);
 1257              		.loc 1 145 5 discriminator 3 view .LVU360
 1258              	.LBB25:
 145:../Switch/core/yt/yt_port.c ****     CMM_PARAM_CHK(NULL == YT_DISPATCH(unit), CMM_ERR_NOT_INIT);
 1259              		.loc 1 145 5 discriminator 3 view .LVU361
 1260 0042 244B     		ldr	r3, .L141+16
 1261 0044 5A69     		ldr	r2, [r3, #20]
 1262              	.LVL163:
 145:../Switch/core/yt/yt_port.c ****     CMM_PARAM_CHK(NULL == YT_DISPATCH(unit), CMM_ERR_NOT_INIT);
 1263              		.loc 1 145 5 is_stmt 0 discriminator 3 view .LVU362
 1264 0046 244B     		ldr	r3, .L141+20
 1265 0048 9968     		ldr	r1, [r3, #8]
 1266              	.LVL164:
 145:../Switch/core/yt/yt_port.c ****     CMM_PARAM_CHK(NULL == YT_DISPATCH(unit), CMM_ERR_NOT_INIT);
 1267              		.loc 1 145 5 discriminator 3 view .LVU363
 1268 004a 2448     		ldr	r0, .L141+24
 1269              	.LVL165:
 145:../Switch/core/yt/yt_port.c ****     CMM_PARAM_CHK(NULL == YT_DISPATCH(unit), CMM_ERR_NOT_INIT);
 1270              		.loc 1 145 5 discriminator 3 view .LVU364
 1271 004c FFF7FEFF 		bl	osal_printf
 1272              	.LVL166:
 1273 0050 F5E7     		b	.L120
 1274              	.LVL167:
 1275              	.L133:
 145:../Switch/core/yt/yt_port.c ****     CMM_PARAM_CHK(NULL == YT_DISPATCH(unit), CMM_ERR_NOT_INIT);
 1276              		.loc 1 145 5 discriminator 3 view .LVU365
 1277              	.LBE25:
 146:../Switch/core/yt/yt_port.c ****     CMM_PARAM_CHK((!(YT_DISPATCH(unit)->is_inited)), CMM_ERR_NOT_INIT);
 1278              		.loc 1 146 5 is_stmt 1 discriminator 1 view .LVU366
 146:../Switch/core/yt/yt_port.c ****     CMM_PARAM_CHK((!(YT_DISPATCH(unit)->is_inited)), CMM_ERR_NOT_INIT);
 1279              		.loc 1 146 5 discriminator 1 view .LVU367
 1280 0052 1F4B     		ldr	r3, .L141+12
 1281 0054 1B78     		ldrb	r3, [r3]	@ zero_extendqisi2
 1282 0056 012B     		cmp	r3, #1
 1283 0058 01D8     		bhi	.L137
 1284              	.LVL168:
 1285              	.L123:
 146:../Switch/core/yt/yt_port.c ****     CMM_PARAM_CHK((!(YT_DISPATCH(unit)->is_inited)), CMM_ERR_NOT_INIT);
 1286              		.loc 1 146 5 discriminator 5 view .LVU368
 146:../Switch/core/yt/yt_port.c ****     CMM_PARAM_CHK((!(YT_DISPATCH(unit)->is_inited)), CMM_ERR_NOT_INIT);
 1287              		.loc 1 146 5 discriminator 5 view .LVU369
 146:../Switch/core/yt/yt_port.c ****     CMM_PARAM_CHK((!(YT_DISPATCH(unit)->is_inited)), CMM_ERR_NOT_INIT);
 1288              		.loc 1 146 5 discriminator 5 view .LVU370
 1289 005a 0420     		movs	r0, #4
 1290 005c EAE7     		b	.L118
 1291              	.LVL169:
 1292              	.L137:
 146:../Switch/core/yt/yt_port.c ****     CMM_PARAM_CHK((!(YT_DISPATCH(unit)->is_inited)), CMM_ERR_NOT_INIT);
 1293              		.loc 1 146 5 discriminator 3 view .LVU371
 1294              	.LBB26:
 146:../Switch/core/yt/yt_port.c ****     CMM_PARAM_CHK((!(YT_DISPATCH(unit)->is_inited)), CMM_ERR_NOT_INIT);
 1295              		.loc 1 146 5 discriminator 3 view .LVU372
 1296 005e 1D4B     		ldr	r3, .L141+16
 1297 0060 1A69     		ldr	r2, [r3, #16]
 1298              	.LVL170:
 146:../Switch/core/yt/yt_port.c ****     CMM_PARAM_CHK((!(YT_DISPATCH(unit)->is_inited)), CMM_ERR_NOT_INIT);
 1299              		.loc 1 146 5 is_stmt 0 discriminator 3 view .LVU373
 1300 0062 1D4B     		ldr	r3, .L141+20
 1301 0064 9968     		ldr	r1, [r3, #8]
 1302              	.LVL171:
 146:../Switch/core/yt/yt_port.c ****     CMM_PARAM_CHK((!(YT_DISPATCH(unit)->is_inited)), CMM_ERR_NOT_INIT);
 1303              		.loc 1 146 5 discriminator 3 view .LVU374
 1304 0066 1D48     		ldr	r0, .L141+24
 1305              	.LVL172:
 146:../Switch/core/yt/yt_port.c ****     CMM_PARAM_CHK((!(YT_DISPATCH(unit)->is_inited)), CMM_ERR_NOT_INIT);
 1306              		.loc 1 146 5 discriminator 3 view .LVU375
 1307 0068 FFF7FEFF 		bl	osal_printf
 1308              	.LVL173:
 1309 006c F5E7     		b	.L123
 1310              	.LVL174:
 1311              	.L134:
 146:../Switch/core/yt/yt_port.c ****     CMM_PARAM_CHK((!(YT_DISPATCH(unit)->is_inited)), CMM_ERR_NOT_INIT);
 1312              		.loc 1 146 5 discriminator 3 view .LVU376
 1313              	.LBE26:
 147:../Switch/core/yt/yt_port.c ****     CMM_PARAM_CHK((!(CMM_PORT_VALID(unit, port))), CMM_ERR_PORT);
 1314              		.loc 1 147 5 is_stmt 1 discriminator 1 view .LVU377
 147:../Switch/core/yt/yt_port.c ****     CMM_PARAM_CHK((!(CMM_PORT_VALID(unit, port))), CMM_ERR_PORT);
 1315              		.loc 1 147 5 discriminator 1 view .LVU378
 1316 006e 184B     		ldr	r3, .L141+12
 1317 0070 1B78     		ldrb	r3, [r3]	@ zero_extendqisi2
 1318 0072 012B     		cmp	r3, #1
 1319 0074 01D8     		bhi	.L138
 1320              	.LVL175:
 1321              	.L125:
 147:../Switch/core/yt/yt_port.c ****     CMM_PARAM_CHK((!(CMM_PORT_VALID(unit, port))), CMM_ERR_PORT);
 1322              		.loc 1 147 5 discriminator 5 view .LVU379
 147:../Switch/core/yt/yt_port.c ****     CMM_PARAM_CHK((!(CMM_PORT_VALID(unit, port))), CMM_ERR_PORT);
 1323              		.loc 1 147 5 discriminator 5 view .LVU380
 147:../Switch/core/yt/yt_port.c ****     CMM_PARAM_CHK((!(CMM_PORT_VALID(unit, port))), CMM_ERR_PORT);
 1324              		.loc 1 147 5 discriminator 5 view .LVU381
 1325 0076 0420     		movs	r0, #4
 1326 0078 DCE7     		b	.L118
 1327              	.LVL176:
 1328              	.L138:
 147:../Switch/core/yt/yt_port.c ****     CMM_PARAM_CHK((!(CMM_PORT_VALID(unit, port))), CMM_ERR_PORT);
 1329              		.loc 1 147 5 discriminator 3 view .LVU382
 1330              	.LBB27:
 147:../Switch/core/yt/yt_port.c ****     CMM_PARAM_CHK((!(CMM_PORT_VALID(unit, port))), CMM_ERR_PORT);
 1331              		.loc 1 147 5 discriminator 3 view .LVU383
 1332 007a 164B     		ldr	r3, .L141+16
 1333 007c 1A69     		ldr	r2, [r3, #16]
 1334              	.LVL177:
 147:../Switch/core/yt/yt_port.c ****     CMM_PARAM_CHK((!(CMM_PORT_VALID(unit, port))), CMM_ERR_PORT);
 1335              		.loc 1 147 5 is_stmt 0 discriminator 3 view .LVU384
 1336 007e 164B     		ldr	r3, .L141+20
 1337 0080 9968     		ldr	r1, [r3, #8]
 1338              	.LVL178:
 147:../Switch/core/yt/yt_port.c ****     CMM_PARAM_CHK((!(CMM_PORT_VALID(unit, port))), CMM_ERR_PORT);
 1339              		.loc 1 147 5 discriminator 3 view .LVU385
 1340 0082 1648     		ldr	r0, .L141+24
 1341 0084 FFF7FEFF 		bl	osal_printf
 1342              	.LVL179:
 1343 0088 F5E7     		b	.L125
 1344              	.LVL180:
 1345              	.L126:
 147:../Switch/core/yt/yt_port.c ****     CMM_PARAM_CHK((!(CMM_PORT_VALID(unit, port))), CMM_ERR_PORT);
 1346              		.loc 1 147 5 discriminator 3 view .LVU386
 1347              	.LBE27:
 148:../Switch/core/yt/yt_port.c ****     CMM_PARAM_CHK((YT_ENABLE < enable || YT_DISABLE > enable), CMM_ERR_INPUT);
 1348              		.loc 1 148 5 is_stmt 1 discriminator 3 view .LVU387
 148:../Switch/core/yt/yt_port.c ****     CMM_PARAM_CHK((YT_ENABLE < enable || YT_DISABLE > enable), CMM_ERR_INPUT);
 1349              		.loc 1 148 5 discriminator 3 view .LVU388
 1350 008a 114B     		ldr	r3, .L141+12
 1351 008c 1B78     		ldrb	r3, [r3]	@ zero_extendqisi2
 1352 008e 012B     		cmp	r3, #1
 1353 0090 01D8     		bhi	.L139
 1354              	.LVL181:
 1355              	.L128:
 148:../Switch/core/yt/yt_port.c ****     CMM_PARAM_CHK((YT_ENABLE < enable || YT_DISABLE > enable), CMM_ERR_INPUT);
 1356              		.loc 1 148 5 discriminator 7 view .LVU389
 148:../Switch/core/yt/yt_port.c ****     CMM_PARAM_CHK((YT_ENABLE < enable || YT_DISABLE > enable), CMM_ERR_INPUT);
 1357              		.loc 1 148 5 discriminator 7 view .LVU390
 148:../Switch/core/yt/yt_port.c ****     CMM_PARAM_CHK((YT_ENABLE < enable || YT_DISABLE > enable), CMM_ERR_INPUT);
 1358              		.loc 1 148 5 discriminator 7 view .LVU391
 1359 0092 0E20     		movs	r0, #14
 1360 0094 CEE7     		b	.L118
 1361              	.LVL182:
 1362              	.L139:
 148:../Switch/core/yt/yt_port.c ****     CMM_PARAM_CHK((YT_ENABLE < enable || YT_DISABLE > enable), CMM_ERR_INPUT);
 1363              		.loc 1 148 5 discriminator 5 view .LVU392
 1364              	.LBB28:
 148:../Switch/core/yt/yt_port.c ****     CMM_PARAM_CHK((YT_ENABLE < enable || YT_DISABLE > enable), CMM_ERR_INPUT);
 1365              		.loc 1 148 5 discriminator 5 view .LVU393
 1366 0096 0F4B     		ldr	r3, .L141+16
 1367 0098 9A6B     		ldr	r2, [r3, #56]
 1368              	.LVL183:
 148:../Switch/core/yt/yt_port.c ****     CMM_PARAM_CHK((YT_ENABLE < enable || YT_DISABLE > enable), CMM_ERR_INPUT);
 1369              		.loc 1 148 5 is_stmt 0 discriminator 5 view .LVU394
 1370 009a 0F4B     		ldr	r3, .L141+20
 1371 009c 9968     		ldr	r1, [r3, #8]
 1372              	.LVL184:
 148:../Switch/core/yt/yt_port.c ****     CMM_PARAM_CHK((YT_ENABLE < enable || YT_DISABLE > enable), CMM_ERR_INPUT);
 1373              		.loc 1 148 5 discriminator 5 view .LVU395
 1374 009e 0F48     		ldr	r0, .L141+24
 1375 00a0 FFF7FEFF 		bl	osal_printf
 1376              	.LVL185:
 1377 00a4 F5E7     		b	.L128
 1378              	.LVL186:
 1379              	.L135:
 148:../Switch/core/yt/yt_port.c ****     CMM_PARAM_CHK((YT_ENABLE < enable || YT_DISABLE > enable), CMM_ERR_INPUT);
 1380              		.loc 1 148 5 discriminator 5 view .LVU396
 1381              	.LBE28:
 149:../Switch/core/yt/yt_port.c **** 
 1382              		.loc 1 149 5 is_stmt 1 discriminator 1 view .LVU397
 149:../Switch/core/yt/yt_port.c **** 
 1383              		.loc 1 149 5 discriminator 1 view .LVU398
 1384 00a6 0A4B     		ldr	r3, .L141+12
 1385 00a8 1B78     		ldrb	r3, [r3]	@ zero_extendqisi2
 1386 00aa 012B     		cmp	r3, #1
 1387 00ac 01D8     		bhi	.L140
 1388              	.LVL187:
 1389              	.L130:
 149:../Switch/core/yt/yt_port.c **** 
 1390              		.loc 1 149 5 discriminator 5 view .LVU399
 149:../Switch/core/yt/yt_port.c **** 
 1391              		.loc 1 149 5 discriminator 5 view .LVU400
 149:../Switch/core/yt/yt_port.c **** 
 1392              		.loc 1 149 5 discriminator 5 view .LVU401
 1393 00ae 0520     		movs	r0, #5
 1394 00b0 C0E7     		b	.L118
 1395              	.LVL188:
 1396              	.L140:
 149:../Switch/core/yt/yt_port.c **** 
 1397              		.loc 1 149 5 discriminator 3 view .LVU402
 1398              	.LBB29:
 149:../Switch/core/yt/yt_port.c **** 
 1399              		.loc 1 149 5 discriminator 3 view .LVU403
 1400 00b2 084B     		ldr	r3, .L141+16
 1401 00b4 5A69     		ldr	r2, [r3, #20]
 1402              	.LVL189:
 149:../Switch/core/yt/yt_port.c **** 
 1403              		.loc 1 149 5 is_stmt 0 discriminator 3 view .LVU404
 1404 00b6 084B     		ldr	r3, .L141+20
 1405 00b8 9968     		ldr	r1, [r3, #8]
 1406              	.LVL190:
 149:../Switch/core/yt/yt_port.c **** 
 1407              		.loc 1 149 5 discriminator 3 view .LVU405
 1408 00ba 0848     		ldr	r0, .L141+24
 1409 00bc FFF7FEFF 		bl	osal_printf
 1410              	.LVL191:
 1411 00c0 F5E7     		b	.L130
 1412              	.L142:
 1413 00c2 00BF     		.align	2
 1414              	.L141:
 1415 00c4 00000000 		.word	gpfal_dispatch
 1416 00c8 00000000 		.word	gcal_inited
 1417 00cc 00000000 		.word	gpSwitchUnit
 1418 00d0 00000000 		.word	yt_debug_level
 1419 00d4 00000000 		.word	_yt_errmsg
 1420 00d8 00000000 		.word	_yt_prompt_msg
 1421 00dc 00000000 		.word	.LC0
 1422              	.LBE29:
 1423              		.cfi_endproc
 1424              	.LFE8:
 1426              		.section	.text.yt_port_backpress_enable_get,"ax",%progbits
 1427              		.align	1
 1428              		.global	yt_port_backpress_enable_get
 1429              		.syntax unified
 1430              		.thumb
 1431              		.thumb_func
 1433              	yt_port_backpress_enable_get:
 1434              	.LVL192:
 1435              	.LFB9:
 153:../Switch/core/yt/yt_port.c **** 
 154:../Switch/core/yt/yt_port.c **** /**
 155:../Switch/core/yt/yt_port.c ****  * @internal      yt_port_backpress_enable_get
 156:../Switch/core/yt/yt_port.c ****  * @endinternal
 157:../Switch/core/yt/yt_port.c ****  *
 158:../Switch/core/yt/yt_port.c ****  * @brief         Description
 159:../Switch/core/yt/yt_port.c ****  * @note          APPLICABLE DEVICES  -Tiger
 160:../Switch/core/yt/yt_port.c ****  * @param[in]     unit                -unit id
 161:../Switch/core/yt/yt_port.c ****  * @param[in]     port                -port num
 162:../Switch/core/yt/yt_port.c ****  * @param[out]    pEnable             -enable or disable
 163:../Switch/core/yt/yt_port.c ****  * @retval        CMM_ERR_OK          -on success
 164:../Switch/core/yt/yt_port.c ****  * @retval        CMM_ERR_FAIL        -on fail
 165:../Switch/core/yt/yt_port.c ****  */
 166:../Switch/core/yt/yt_port.c **** yt_ret_t yt_port_backpress_enable_get(yt_unit_t unit, yt_port_t port, yt_enable_t *pEnable)
 167:../Switch/core/yt/yt_port.c **** {
 1436              		.loc 1 167 1 is_stmt 1 view -0
 1437              		.cfi_startproc
 1438              		@ args = 0, pretend = 0, frame = 0
 1439              		@ frame_needed = 0, uses_anonymous_args = 0
 1440              		.loc 1 167 1 is_stmt 0 view .LVU407
 1441 0000 08B5     		push	{r3, lr}
 1442              		.cfi_def_cfa_offset 8
 1443              		.cfi_offset 3, -8
 1444              		.cfi_offset 14, -4
 168:../Switch/core/yt/yt_port.c ****     CMM_PARAM_CHK((YT_UNIT_NUM <= unit), CMM_ERR_INPUT);
 1445              		.loc 1 168 5 is_stmt 1 view .LVU408
 1446              		.loc 1 168 5 view .LVU409
 1447 0002 C0B9     		cbnz	r0, .L157
 1448 0004 8446     		mov	ip, r0
 1449              		.loc 1 168 5 discriminator 2 view .LVU410
 169:../Switch/core/yt/yt_port.c ****     CMM_PARAM_CHK(NULL == YT_DISPATCH(unit), CMM_ERR_NOT_INIT);
 1450              		.loc 1 169 5 discriminator 2 view .LVU411
 1451              		.loc 1 169 5 discriminator 2 view .LVU412
 1452 0006 2F4B     		ldr	r3, .L166
 1453 0008 53F82030 		ldr	r3, [r3, r0, lsl #2]
 1454 000c 0BB3     		cbz	r3, .L158
 1455              		.loc 1 169 5 discriminator 2 view .LVU413
 170:../Switch/core/yt/yt_port.c ****     CMM_PARAM_CHK((!(YT_DISPATCH(unit)->is_inited)), CMM_ERR_NOT_INIT);
 1456              		.loc 1 170 5 discriminator 2 view .LVU414
 1457              		.loc 1 170 5 discriminator 2 view .LVU415
 1458 000e 1878     		ldrb	r0, [r3]	@ zero_extendqisi2
 1459              	.LVL193:
 1460              		.loc 1 170 5 is_stmt 0 discriminator 2 view .LVU416
 1461 0010 0028     		cmp	r0, #0
 1462 0012 2CD0     		beq	.L159
 1463              		.loc 1 170 5 is_stmt 1 discriminator 2 view .LVU417
 171:../Switch/core/yt/yt_port.c ****     CMM_PARAM_CHK((!(CMM_PORT_VALID(unit, port))), CMM_ERR_PORT);
 1464              		.loc 1 171 5 discriminator 2 view .LVU418
 1465              		.loc 1 171 5 discriminator 2 view .LVU419
 1466 0014 2C48     		ldr	r0, .L166+4
 1467 0016 0078     		ldrb	r0, [r0]	@ zero_extendqisi2
 1468 0018 0028     		cmp	r0, #0
 1469 001a 36D0     		beq	.L151
 1470 001c 2B48     		ldr	r0, .L166+8
 1471 001e 50F82C00 		ldr	r0, [r0, ip, lsl #2]
 1472 0022 007D     		ldrb	r0, [r0, #20]	@ zero_extendqisi2
 1473 0024 8842     		cmp	r0, r1
 1474 0026 30D9     		bls	.L151
 1475              		.loc 1 171 5 discriminator 4 view .LVU420
 172:../Switch/core/yt/yt_port.c ****     CMM_PARAM_CHK((NULL == pEnable), CMM_ERR_NULL_POINT);
 1476              		.loc 1 172 5 discriminator 4 view .LVU421
 1477              		.loc 1 172 5 discriminator 4 view .LVU422
 1478 0028 002A     		cmp	r2, #0
 1479 002a 3CD0     		beq	.L160
 1480              		.loc 1 172 5 discriminator 2 view .LVU423
 173:../Switch/core/yt/yt_port.c **** 
 174:../Switch/core/yt/yt_port.c ****     return YT_DISPATCH(unit)->port_backpress_enable_get(unit, port, pEnable);
 1481              		.loc 1 174 5 discriminator 2 view .LVU424
 1482              		.loc 1 174 29 is_stmt 0 discriminator 2 view .LVU425
 1483 002c D3F86835 		ldr	r3, [r3, #1384]
 1484              		.loc 1 174 12 discriminator 2 view .LVU426
 1485 0030 6046     		mov	r0, ip
 1486 0032 9847     		blx	r3
 1487              	.LVL194:
 1488              	.L143:
 175:../Switch/core/yt/yt_port.c **** }
 1489              		.loc 1 175 1 view .LVU427
 1490 0034 08BD     		pop	{r3, pc}
 1491              	.LVL195:
 1492              	.L157:
 168:../Switch/core/yt/yt_port.c ****     CMM_PARAM_CHK(NULL == YT_DISPATCH(unit), CMM_ERR_NOT_INIT);
 1493              		.loc 1 168 5 is_stmt 1 discriminator 1 view .LVU428
 168:../Switch/core/yt/yt_port.c ****     CMM_PARAM_CHK(NULL == YT_DISPATCH(unit), CMM_ERR_NOT_INIT);
 1494              		.loc 1 168 5 discriminator 1 view .LVU429
 1495 0036 264B     		ldr	r3, .L166+12
 1496 0038 1B78     		ldrb	r3, [r3]	@ zero_extendqisi2
 1497 003a 012B     		cmp	r3, #1
 1498 003c 01D8     		bhi	.L161
 1499              	.LVL196:
 1500              	.L145:
 168:../Switch/core/yt/yt_port.c ****     CMM_PARAM_CHK(NULL == YT_DISPATCH(unit), CMM_ERR_NOT_INIT);
 1501              		.loc 1 168 5 discriminator 5 view .LVU430
 168:../Switch/core/yt/yt_port.c ****     CMM_PARAM_CHK(NULL == YT_DISPATCH(unit), CMM_ERR_NOT_INIT);
 1502              		.loc 1 168 5 discriminator 5 view .LVU431
 168:../Switch/core/yt/yt_port.c ****     CMM_PARAM_CHK(NULL == YT_DISPATCH(unit), CMM_ERR_NOT_INIT);
 1503              		.loc 1 168 5 discriminator 5 view .LVU432
 1504 003e 0520     		movs	r0, #5
 1505 0040 F8E7     		b	.L143
 1506              	.LVL197:
 1507              	.L161:
 168:../Switch/core/yt/yt_port.c ****     CMM_PARAM_CHK(NULL == YT_DISPATCH(unit), CMM_ERR_NOT_INIT);
 1508              		.loc 1 168 5 discriminator 3 view .LVU433
 1509              	.LBB30:
 168:../Switch/core/yt/yt_port.c ****     CMM_PARAM_CHK(NULL == YT_DISPATCH(unit), CMM_ERR_NOT_INIT);
 1510              		.loc 1 168 5 discriminator 3 view .LVU434
 1511 0042 244B     		ldr	r3, .L166+16
 1512 0044 5A69     		ldr	r2, [r3, #20]
 1513              	.LVL198:
 168:../Switch/core/yt/yt_port.c ****     CMM_PARAM_CHK(NULL == YT_DISPATCH(unit), CMM_ERR_NOT_INIT);
 1514              		.loc 1 168 5 is_stmt 0 discriminator 3 view .LVU435
 1515 0046 244B     		ldr	r3, .L166+20
 1516 0048 9968     		ldr	r1, [r3, #8]
 1517              	.LVL199:
 168:../Switch/core/yt/yt_port.c ****     CMM_PARAM_CHK(NULL == YT_DISPATCH(unit), CMM_ERR_NOT_INIT);
 1518              		.loc 1 168 5 discriminator 3 view .LVU436
 1519 004a 2448     		ldr	r0, .L166+24
 1520              	.LVL200:
 168:../Switch/core/yt/yt_port.c ****     CMM_PARAM_CHK(NULL == YT_DISPATCH(unit), CMM_ERR_NOT_INIT);
 1521              		.loc 1 168 5 discriminator 3 view .LVU437
 1522 004c FFF7FEFF 		bl	osal_printf
 1523              	.LVL201:
 1524 0050 F5E7     		b	.L145
 1525              	.LVL202:
 1526              	.L158:
 168:../Switch/core/yt/yt_port.c ****     CMM_PARAM_CHK(NULL == YT_DISPATCH(unit), CMM_ERR_NOT_INIT);
 1527              		.loc 1 168 5 discriminator 3 view .LVU438
 1528              	.LBE30:
 169:../Switch/core/yt/yt_port.c ****     CMM_PARAM_CHK((!(YT_DISPATCH(unit)->is_inited)), CMM_ERR_NOT_INIT);
 1529              		.loc 1 169 5 is_stmt 1 discriminator 1 view .LVU439
 169:../Switch/core/yt/yt_port.c ****     CMM_PARAM_CHK((!(YT_DISPATCH(unit)->is_inited)), CMM_ERR_NOT_INIT);
 1530              		.loc 1 169 5 discriminator 1 view .LVU440
 1531 0052 1F4B     		ldr	r3, .L166+12
 1532 0054 1B78     		ldrb	r3, [r3]	@ zero_extendqisi2
 1533 0056 012B     		cmp	r3, #1
 1534 0058 01D8     		bhi	.L162
 1535              	.LVL203:
 1536              	.L148:
 169:../Switch/core/yt/yt_port.c ****     CMM_PARAM_CHK((!(YT_DISPATCH(unit)->is_inited)), CMM_ERR_NOT_INIT);
 1537              		.loc 1 169 5 discriminator 5 view .LVU441
 169:../Switch/core/yt/yt_port.c ****     CMM_PARAM_CHK((!(YT_DISPATCH(unit)->is_inited)), CMM_ERR_NOT_INIT);
 1538              		.loc 1 169 5 discriminator 5 view .LVU442
 169:../Switch/core/yt/yt_port.c ****     CMM_PARAM_CHK((!(YT_DISPATCH(unit)->is_inited)), CMM_ERR_NOT_INIT);
 1539              		.loc 1 169 5 discriminator 5 view .LVU443
 1540 005a 0420     		movs	r0, #4
 1541 005c EAE7     		b	.L143
 1542              	.LVL204:
 1543              	.L162:
 169:../Switch/core/yt/yt_port.c ****     CMM_PARAM_CHK((!(YT_DISPATCH(unit)->is_inited)), CMM_ERR_NOT_INIT);
 1544              		.loc 1 169 5 discriminator 3 view .LVU444
 1545              	.LBB31:
 169:../Switch/core/yt/yt_port.c ****     CMM_PARAM_CHK((!(YT_DISPATCH(unit)->is_inited)), CMM_ERR_NOT_INIT);
 1546              		.loc 1 169 5 discriminator 3 view .LVU445
 1547 005e 1D4B     		ldr	r3, .L166+16
 1548 0060 1A69     		ldr	r2, [r3, #16]
 1549              	.LVL205:
 169:../Switch/core/yt/yt_port.c ****     CMM_PARAM_CHK((!(YT_DISPATCH(unit)->is_inited)), CMM_ERR_NOT_INIT);
 1550              		.loc 1 169 5 is_stmt 0 discriminator 3 view .LVU446
 1551 0062 1D4B     		ldr	r3, .L166+20
 1552 0064 9968     		ldr	r1, [r3, #8]
 1553              	.LVL206:
 169:../Switch/core/yt/yt_port.c ****     CMM_PARAM_CHK((!(YT_DISPATCH(unit)->is_inited)), CMM_ERR_NOT_INIT);
 1554              		.loc 1 169 5 discriminator 3 view .LVU447
 1555 0066 1D48     		ldr	r0, .L166+24
 1556              	.LVL207:
 169:../Switch/core/yt/yt_port.c ****     CMM_PARAM_CHK((!(YT_DISPATCH(unit)->is_inited)), CMM_ERR_NOT_INIT);
 1557              		.loc 1 169 5 discriminator 3 view .LVU448
 1558 0068 FFF7FEFF 		bl	osal_printf
 1559              	.LVL208:
 1560 006c F5E7     		b	.L148
 1561              	.LVL209:
 1562              	.L159:
 169:../Switch/core/yt/yt_port.c ****     CMM_PARAM_CHK((!(YT_DISPATCH(unit)->is_inited)), CMM_ERR_NOT_INIT);
 1563              		.loc 1 169 5 discriminator 3 view .LVU449
 1564              	.LBE31:
 170:../Switch/core/yt/yt_port.c ****     CMM_PARAM_CHK((!(CMM_PORT_VALID(unit, port))), CMM_ERR_PORT);
 1565              		.loc 1 170 5 is_stmt 1 discriminator 1 view .LVU450
 170:../Switch/core/yt/yt_port.c ****     CMM_PARAM_CHK((!(CMM_PORT_VALID(unit, port))), CMM_ERR_PORT);
 1566              		.loc 1 170 5 discriminator 1 view .LVU451
 1567 006e 184B     		ldr	r3, .L166+12
 1568 0070 1B78     		ldrb	r3, [r3]	@ zero_extendqisi2
 1569 0072 012B     		cmp	r3, #1
 1570 0074 01D8     		bhi	.L163
 1571              	.LVL210:
 1572              	.L150:
 170:../Switch/core/yt/yt_port.c ****     CMM_PARAM_CHK((!(CMM_PORT_VALID(unit, port))), CMM_ERR_PORT);
 1573              		.loc 1 170 5 discriminator 5 view .LVU452
 170:../Switch/core/yt/yt_port.c ****     CMM_PARAM_CHK((!(CMM_PORT_VALID(unit, port))), CMM_ERR_PORT);
 1574              		.loc 1 170 5 discriminator 5 view .LVU453
 170:../Switch/core/yt/yt_port.c ****     CMM_PARAM_CHK((!(CMM_PORT_VALID(unit, port))), CMM_ERR_PORT);
 1575              		.loc 1 170 5 discriminator 5 view .LVU454
 1576 0076 0420     		movs	r0, #4
 1577 0078 DCE7     		b	.L143
 1578              	.LVL211:
 1579              	.L163:
 170:../Switch/core/yt/yt_port.c ****     CMM_PARAM_CHK((!(CMM_PORT_VALID(unit, port))), CMM_ERR_PORT);
 1580              		.loc 1 170 5 discriminator 3 view .LVU455
 1581              	.LBB32:
 170:../Switch/core/yt/yt_port.c ****     CMM_PARAM_CHK((!(CMM_PORT_VALID(unit, port))), CMM_ERR_PORT);
 1582              		.loc 1 170 5 discriminator 3 view .LVU456
 1583 007a 164B     		ldr	r3, .L166+16
 1584 007c 1A69     		ldr	r2, [r3, #16]
 1585              	.LVL212:
 170:../Switch/core/yt/yt_port.c ****     CMM_PARAM_CHK((!(CMM_PORT_VALID(unit, port))), CMM_ERR_PORT);
 1586              		.loc 1 170 5 is_stmt 0 discriminator 3 view .LVU457
 1587 007e 164B     		ldr	r3, .L166+20
 1588 0080 9968     		ldr	r1, [r3, #8]
 1589              	.LVL213:
 170:../Switch/core/yt/yt_port.c ****     CMM_PARAM_CHK((!(CMM_PORT_VALID(unit, port))), CMM_ERR_PORT);
 1590              		.loc 1 170 5 discriminator 3 view .LVU458
 1591 0082 1648     		ldr	r0, .L166+24
 1592 0084 FFF7FEFF 		bl	osal_printf
 1593              	.LVL214:
 1594 0088 F5E7     		b	.L150
 1595              	.LVL215:
 1596              	.L151:
 170:../Switch/core/yt/yt_port.c ****     CMM_PARAM_CHK((!(CMM_PORT_VALID(unit, port))), CMM_ERR_PORT);
 1597              		.loc 1 170 5 discriminator 3 view .LVU459
 1598              	.LBE32:
 171:../Switch/core/yt/yt_port.c ****     CMM_PARAM_CHK((NULL == pEnable), CMM_ERR_NULL_POINT);
 1599              		.loc 1 171 5 is_stmt 1 discriminator 3 view .LVU460
 171:../Switch/core/yt/yt_port.c ****     CMM_PARAM_CHK((NULL == pEnable), CMM_ERR_NULL_POINT);
 1600              		.loc 1 171 5 discriminator 3 view .LVU461
 1601 008a 114B     		ldr	r3, .L166+12
 1602 008c 1B78     		ldrb	r3, [r3]	@ zero_extendqisi2
 1603 008e 012B     		cmp	r3, #1
 1604 0090 01D8     		bhi	.L164
 1605              	.LVL216:
 1606              	.L153:
 171:../Switch/core/yt/yt_port.c ****     CMM_PARAM_CHK((NULL == pEnable), CMM_ERR_NULL_POINT);
 1607              		.loc 1 171 5 discriminator 7 view .LVU462
 171:../Switch/core/yt/yt_port.c ****     CMM_PARAM_CHK((NULL == pEnable), CMM_ERR_NULL_POINT);
 1608              		.loc 1 171 5 discriminator 7 view .LVU463
 171:../Switch/core/yt/yt_port.c ****     CMM_PARAM_CHK((NULL == pEnable), CMM_ERR_NULL_POINT);
 1609              		.loc 1 171 5 discriminator 7 view .LVU464
 1610 0092 0E20     		movs	r0, #14
 1611 0094 CEE7     		b	.L143
 1612              	.LVL217:
 1613              	.L164:
 171:../Switch/core/yt/yt_port.c ****     CMM_PARAM_CHK((NULL == pEnable), CMM_ERR_NULL_POINT);
 1614              		.loc 1 171 5 discriminator 5 view .LVU465
 1615              	.LBB33:
 171:../Switch/core/yt/yt_port.c ****     CMM_PARAM_CHK((NULL == pEnable), CMM_ERR_NULL_POINT);
 1616              		.loc 1 171 5 discriminator 5 view .LVU466
 1617 0096 0F4B     		ldr	r3, .L166+16
 1618 0098 9A6B     		ldr	r2, [r3, #56]
 1619              	.LVL218:
 171:../Switch/core/yt/yt_port.c ****     CMM_PARAM_CHK((NULL == pEnable), CMM_ERR_NULL_POINT);
 1620              		.loc 1 171 5 is_stmt 0 discriminator 5 view .LVU467
 1621 009a 0F4B     		ldr	r3, .L166+20
 1622 009c 9968     		ldr	r1, [r3, #8]
 1623              	.LVL219:
 171:../Switch/core/yt/yt_port.c ****     CMM_PARAM_CHK((NULL == pEnable), CMM_ERR_NULL_POINT);
 1624              		.loc 1 171 5 discriminator 5 view .LVU468
 1625 009e 0F48     		ldr	r0, .L166+24
 1626 00a0 FFF7FEFF 		bl	osal_printf
 1627              	.LVL220:
 1628 00a4 F5E7     		b	.L153
 1629              	.LVL221:
 1630              	.L160:
 171:../Switch/core/yt/yt_port.c ****     CMM_PARAM_CHK((NULL == pEnable), CMM_ERR_NULL_POINT);
 1631              		.loc 1 171 5 discriminator 5 view .LVU469
 1632              	.LBE33:
 172:../Switch/core/yt/yt_port.c **** 
 1633              		.loc 1 172 5 is_stmt 1 discriminator 1 view .LVU470
 172:../Switch/core/yt/yt_port.c **** 
 1634              		.loc 1 172 5 discriminator 1 view .LVU471
 1635 00a6 0A4B     		ldr	r3, .L166+12
 1636 00a8 1B78     		ldrb	r3, [r3]	@ zero_extendqisi2
 1637 00aa 012B     		cmp	r3, #1
 1638 00ac 01D8     		bhi	.L165
 1639              	.LVL222:
 1640              	.L155:
 172:../Switch/core/yt/yt_port.c **** 
 1641              		.loc 1 172 5 discriminator 5 view .LVU472
 172:../Switch/core/yt/yt_port.c **** 
 1642              		.loc 1 172 5 discriminator 5 view .LVU473
 172:../Switch/core/yt/yt_port.c **** 
 1643              		.loc 1 172 5 discriminator 5 view .LVU474
 1644 00ae 0220     		movs	r0, #2
 1645 00b0 C0E7     		b	.L143
 1646              	.LVL223:
 1647              	.L165:
 172:../Switch/core/yt/yt_port.c **** 
 1648              		.loc 1 172 5 discriminator 3 view .LVU475
 1649              	.LBB34:
 172:../Switch/core/yt/yt_port.c **** 
 1650              		.loc 1 172 5 discriminator 3 view .LVU476
 1651 00b2 084B     		ldr	r3, .L166+16
 1652 00b4 9A68     		ldr	r2, [r3, #8]
 1653              	.LVL224:
 172:../Switch/core/yt/yt_port.c **** 
 1654              		.loc 1 172 5 is_stmt 0 discriminator 3 view .LVU477
 1655 00b6 084B     		ldr	r3, .L166+20
 1656 00b8 9968     		ldr	r1, [r3, #8]
 1657              	.LVL225:
 172:../Switch/core/yt/yt_port.c **** 
 1658              		.loc 1 172 5 discriminator 3 view .LVU478
 1659 00ba 0848     		ldr	r0, .L166+24
 1660 00bc FFF7FEFF 		bl	osal_printf
 1661              	.LVL226:
 1662 00c0 F5E7     		b	.L155
 1663              	.L167:
 1664 00c2 00BF     		.align	2
 1665              	.L166:
 1666 00c4 00000000 		.word	gpfal_dispatch
 1667 00c8 00000000 		.word	gcal_inited
 1668 00cc 00000000 		.word	gpSwitchUnit
 1669 00d0 00000000 		.word	yt_debug_level
 1670 00d4 00000000 		.word	_yt_errmsg
 1671 00d8 00000000 		.word	_yt_prompt_msg
 1672 00dc 00000000 		.word	.LC0
 1673              	.LBE34:
 1674              		.cfi_endproc
 1675              	.LFE9:
 1677              		.section	.text.yt_port_cascade_set,"ax",%progbits
 1678              		.align	1
 1679              		.global	yt_port_cascade_set
 1680              		.syntax unified
 1681              		.thumb
 1682              		.thumb_func
 1684              	yt_port_cascade_set:
 1685              	.LVL227:
 1686              	.LFB10:
 176:../Switch/core/yt/yt_port.c **** 
 177:../Switch/core/yt/yt_port.c **** /**
 178:../Switch/core/yt/yt_port.c ****  * @internal      yt_port_cascade_set
 179:../Switch/core/yt/yt_port.c ****  * @endinternal
 180:../Switch/core/yt/yt_port.c ****  *
 181:../Switch/core/yt/yt_port.c ****  * @brief         Description
 182:../Switch/core/yt/yt_port.c ****  * @note          APPLICABLE DEVICES  -Tiger
 183:../Switch/core/yt/yt_port.c ****  * @param[in]     unit                -unit id
 184:../Switch/core/yt/yt_port.c ****  * @param[in]     cascade_info        -cascade enable status and ports configure information
 185:../Switch/core/yt/yt_port.c ****  * @retval        CMM_ERR_OK          -on success
 186:../Switch/core/yt/yt_port.c ****  * @retval        CMM_ERR_FAIL        -on fail
 187:../Switch/core/yt/yt_port.c ****  */
 188:../Switch/core/yt/yt_port.c **** yt_ret_t yt_port_cascade_set(yt_unit_t unit, yt_cascade_info_t cascade_info)
 189:../Switch/core/yt/yt_port.c **** {
 1687              		.loc 1 189 1 is_stmt 1 view -0
 1688              		.cfi_startproc
 1689              		@ args = 24, pretend = 16, frame = 0
 1690              		@ frame_needed = 0, uses_anonymous_args = 0
 1691              		.loc 1 189 1 is_stmt 0 view .LVU480
 1692 0000 84B0     		sub	sp, sp, #16
 1693              		.cfi_def_cfa_offset 16
 1694 0002 10B5     		push	{r4, lr}
 1695              		.cfi_def_cfa_offset 24
 1696              		.cfi_offset 4, -24
 1697              		.cfi_offset 14, -20
 1698 0004 82B0     		sub	sp, sp, #8
 1699              		.cfi_def_cfa_offset 32
 1700 0006 0DF1140C 		add	ip, sp, #20
 1701 000a 8CE80E00 		stm	ip, {r1, r2, r3}
 190:../Switch/core/yt/yt_port.c ****     uint32_t i;
 1702              		.loc 1 190 5 is_stmt 1 view .LVU481
 191:../Switch/core/yt/yt_port.c **** 
 192:../Switch/core/yt/yt_port.c ****     CMM_PARAM_CHK((YT_UNIT_NUM <= unit), CMM_ERR_INPUT);
 1703              		.loc 1 192 5 view .LVU482
 1704              		.loc 1 192 5 view .LVU483
 1705 000e 60B9     		cbnz	r0, .L184
 1706 0010 8446     		mov	ip, r0
 1707              		.loc 1 192 5 discriminator 2 view .LVU484
 193:../Switch/core/yt/yt_port.c ****     CMM_PARAM_CHK(NULL == YT_DISPATCH(unit), CMM_ERR_NOT_INIT);
 1708              		.loc 1 193 5 discriminator 2 view .LVU485
 1709              		.loc 1 193 5 discriminator 2 view .LVU486
 1710 0012 3C4B     		ldr	r3, .L194
 1711 0014 53F82020 		ldr	r2, [r3, r0, lsl #2]
 1712 0018 AAB1     		cbz	r2, .L185
 1713              		.loc 1 193 5 discriminator 2 view .LVU487
 194:../Switch/core/yt/yt_port.c ****     CMM_PARAM_CHK((!(YT_DISPATCH(unit)->is_inited)), CMM_ERR_NOT_INIT);
 1714              		.loc 1 194 5 discriminator 2 view .LVU488
 1715              		.loc 1 194 5 discriminator 2 view .LVU489
 1716 001a 1378     		ldrb	r3, [r2]	@ zero_extendqisi2
 1717 001c 0BB3     		cbz	r3, .L186
 1718              		.loc 1 194 5 discriminator 2 view .LVU490
 195:../Switch/core/yt/yt_port.c ****     CMM_PARAM_CHK((YT_ENABLE < cascade_info.en || YT_DISABLE > cascade_info.en), CMM_ERR_INPUT);
 1719              		.loc 1 195 5 discriminator 2 view .LVU491
 1720              		.loc 1 195 5 discriminator 2 view .LVU492
 1721 001e 9DF81430 		ldrb	r3, [sp, #20]	@ zero_extendqisi2
 1722 0022 012B     		cmp	r3, #1
 1723 0024 2BD8     		bhi	.L187
 196:../Switch/core/yt/yt_port.c ****     for (i = 0; i < YT_MAX_CASCADE_PORT_NUM; i++)
 1724              		.loc 1 196 12 is_stmt 0 view .LVU493
 1725 0026 0023     		movs	r3, #0
 1726 0028 40E0     		b	.L176
 1727              	.L184:
 192:../Switch/core/yt/yt_port.c ****     CMM_PARAM_CHK(NULL == YT_DISPATCH(unit), CMM_ERR_NOT_INIT);
 1728              		.loc 1 192 5 is_stmt 1 discriminator 1 view .LVU494
 192:../Switch/core/yt/yt_port.c ****     CMM_PARAM_CHK(NULL == YT_DISPATCH(unit), CMM_ERR_NOT_INIT);
 1729              		.loc 1 192 5 discriminator 1 view .LVU495
 1730 002a 374B     		ldr	r3, .L194+4
 1731 002c 1B78     		ldrb	r3, [r3]	@ zero_extendqisi2
 1732 002e 012B     		cmp	r3, #1
 1733 0030 01D8     		bhi	.L188
 1734              	.LVL228:
 1735              	.L170:
 192:../Switch/core/yt/yt_port.c ****     CMM_PARAM_CHK(NULL == YT_DISPATCH(unit), CMM_ERR_NOT_INIT);
 1736              		.loc 1 192 5 discriminator 5 view .LVU496
 192:../Switch/core/yt/yt_port.c ****     CMM_PARAM_CHK(NULL == YT_DISPATCH(unit), CMM_ERR_NOT_INIT);
 1737              		.loc 1 192 5 discriminator 5 view .LVU497
 192:../Switch/core/yt/yt_port.c ****     CMM_PARAM_CHK(NULL == YT_DISPATCH(unit), CMM_ERR_NOT_INIT);
 1738              		.loc 1 192 5 discriminator 5 view .LVU498
 1739 0032 0520     		movs	r0, #5
 1740 0034 60E0     		b	.L168
 1741              	.LVL229:
 1742              	.L188:
 192:../Switch/core/yt/yt_port.c ****     CMM_PARAM_CHK(NULL == YT_DISPATCH(unit), CMM_ERR_NOT_INIT);
 1743              		.loc 1 192 5 discriminator 3 view .LVU499
 1744              	.LBB35:
 192:../Switch/core/yt/yt_port.c ****     CMM_PARAM_CHK(NULL == YT_DISPATCH(unit), CMM_ERR_NOT_INIT);
 1745              		.loc 1 192 5 discriminator 3 view .LVU500
 1746 0036 354B     		ldr	r3, .L194+8
 1747 0038 5A69     		ldr	r2, [r3, #20]
 1748 003a 354B     		ldr	r3, .L194+12
 1749 003c 9968     		ldr	r1, [r3, #8]
 1750 003e 3548     		ldr	r0, .L194+16
 1751              	.LVL230:
 192:../Switch/core/yt/yt_port.c ****     CMM_PARAM_CHK(NULL == YT_DISPATCH(unit), CMM_ERR_NOT_INIT);
 1752              		.loc 1 192 5 is_stmt 0 discriminator 3 view .LVU501
 1753 0040 FFF7FEFF 		bl	osal_printf
 1754              	.LVL231:
 1755 0044 F5E7     		b	.L170
 1756              	.LVL232:
 1757              	.L185:
 192:../Switch/core/yt/yt_port.c ****     CMM_PARAM_CHK(NULL == YT_DISPATCH(unit), CMM_ERR_NOT_INIT);
 1758              		.loc 1 192 5 discriminator 3 view .LVU502
 1759              	.LBE35:
 193:../Switch/core/yt/yt_port.c ****     CMM_PARAM_CHK((!(YT_DISPATCH(unit)->is_inited)), CMM_ERR_NOT_INIT);
 1760              		.loc 1 193 5 is_stmt 1 discriminator 1 view .LVU503
 193:../Switch/core/yt/yt_port.c ****     CMM_PARAM_CHK((!(YT_DISPATCH(unit)->is_inited)), CMM_ERR_NOT_INIT);
 1761              		.loc 1 193 5 discriminator 1 view .LVU504
 1762 0046 304B     		ldr	r3, .L194+4
 1763 0048 1B78     		ldrb	r3, [r3]	@ zero_extendqisi2
 1764 004a 012B     		cmp	r3, #1
 1765 004c 01D8     		bhi	.L189
 1766              	.LVL233:
 1767              	.L173:
 193:../Switch/core/yt/yt_port.c ****     CMM_PARAM_CHK((!(YT_DISPATCH(unit)->is_inited)), CMM_ERR_NOT_INIT);
 1768              		.loc 1 193 5 discriminator 5 view .LVU505
 193:../Switch/core/yt/yt_port.c ****     CMM_PARAM_CHK((!(YT_DISPATCH(unit)->is_inited)), CMM_ERR_NOT_INIT);
 1769              		.loc 1 193 5 discriminator 5 view .LVU506
 193:../Switch/core/yt/yt_port.c ****     CMM_PARAM_CHK((!(YT_DISPATCH(unit)->is_inited)), CMM_ERR_NOT_INIT);
 1770              		.loc 1 193 5 discriminator 5 view .LVU507
 1771 004e 0420     		movs	r0, #4
 1772 0050 52E0     		b	.L168
 1773              	.LVL234:
 1774              	.L189:
 193:../Switch/core/yt/yt_port.c ****     CMM_PARAM_CHK((!(YT_DISPATCH(unit)->is_inited)), CMM_ERR_NOT_INIT);
 1775              		.loc 1 193 5 discriminator 3 view .LVU508
 1776              	.LBB36:
 193:../Switch/core/yt/yt_port.c ****     CMM_PARAM_CHK((!(YT_DISPATCH(unit)->is_inited)), CMM_ERR_NOT_INIT);
 1777              		.loc 1 193 5 discriminator 3 view .LVU509
 1778 0052 2E4B     		ldr	r3, .L194+8
 1779 0054 1A69     		ldr	r2, [r3, #16]
 1780 0056 2E4B     		ldr	r3, .L194+12
 1781 0058 9968     		ldr	r1, [r3, #8]
 1782 005a 2E48     		ldr	r0, .L194+16
 1783              	.LVL235:
 193:../Switch/core/yt/yt_port.c ****     CMM_PARAM_CHK((!(YT_DISPATCH(unit)->is_inited)), CMM_ERR_NOT_INIT);
 1784              		.loc 1 193 5 is_stmt 0 discriminator 3 view .LVU510
 1785 005c FFF7FEFF 		bl	osal_printf
 1786              	.LVL236:
 1787 0060 F5E7     		b	.L173
 1788              	.LVL237:
 1789              	.L186:
 193:../Switch/core/yt/yt_port.c ****     CMM_PARAM_CHK((!(YT_DISPATCH(unit)->is_inited)), CMM_ERR_NOT_INIT);
 1790              		.loc 1 193 5 discriminator 3 view .LVU511
 1791              	.LBE36:
 194:../Switch/core/yt/yt_port.c ****     CMM_PARAM_CHK((YT_ENABLE < cascade_info.en || YT_DISABLE > cascade_info.en), CMM_ERR_INPUT);
 1792              		.loc 1 194 5 is_stmt 1 discriminator 1 view .LVU512
 194:../Switch/core/yt/yt_port.c ****     CMM_PARAM_CHK((YT_ENABLE < cascade_info.en || YT_DISABLE > cascade_info.en), CMM_ERR_INPUT);
 1793              		.loc 1 194 5 discriminator 1 view .LVU513
 1794 0062 294B     		ldr	r3, .L194+4
 1795 0064 1B78     		ldrb	r3, [r3]	@ zero_extendqisi2
 1796 0066 012B     		cmp	r3, #1
 1797 0068 01D8     		bhi	.L190
 1798              	.LVL238:
 1799              	.L175:
 194:../Switch/core/yt/yt_port.c ****     CMM_PARAM_CHK((YT_ENABLE < cascade_info.en || YT_DISABLE > cascade_info.en), CMM_ERR_INPUT);
 1800              		.loc 1 194 5 discriminator 5 view .LVU514
 194:../Switch/core/yt/yt_port.c ****     CMM_PARAM_CHK((YT_ENABLE < cascade_info.en || YT_DISABLE > cascade_info.en), CMM_ERR_INPUT);
 1801              		.loc 1 194 5 discriminator 5 view .LVU515
 194:../Switch/core/yt/yt_port.c ****     CMM_PARAM_CHK((YT_ENABLE < cascade_info.en || YT_DISABLE > cascade_info.en), CMM_ERR_INPUT);
 1802              		.loc 1 194 5 discriminator 5 view .LVU516
 1803 006a 0420     		movs	r0, #4
 1804 006c 44E0     		b	.L168
 1805              	.LVL239:
 1806              	.L190:
 194:../Switch/core/yt/yt_port.c ****     CMM_PARAM_CHK((YT_ENABLE < cascade_info.en || YT_DISABLE > cascade_info.en), CMM_ERR_INPUT);
 1807              		.loc 1 194 5 discriminator 3 view .LVU517
 1808              	.LBB37:
 194:../Switch/core/yt/yt_port.c ****     CMM_PARAM_CHK((YT_ENABLE < cascade_info.en || YT_DISABLE > cascade_info.en), CMM_ERR_INPUT);
 1809              		.loc 1 194 5 discriminator 3 view .LVU518
 1810 006e 274B     		ldr	r3, .L194+8
 1811 0070 1A69     		ldr	r2, [r3, #16]
 1812 0072 274B     		ldr	r3, .L194+12
 1813 0074 9968     		ldr	r1, [r3, #8]
 1814 0076 2748     		ldr	r0, .L194+16
 1815              	.LVL240:
 194:../Switch/core/yt/yt_port.c ****     CMM_PARAM_CHK((YT_ENABLE < cascade_info.en || YT_DISABLE > cascade_info.en), CMM_ERR_INPUT);
 1816              		.loc 1 194 5 is_stmt 0 discriminator 3 view .LVU519
 1817 0078 FFF7FEFF 		bl	osal_printf
 1818              	.LVL241:
 1819 007c F5E7     		b	.L175
 1820              	.LVL242:
 1821              	.L187:
 194:../Switch/core/yt/yt_port.c ****     CMM_PARAM_CHK((YT_ENABLE < cascade_info.en || YT_DISABLE > cascade_info.en), CMM_ERR_INPUT);
 1822              		.loc 1 194 5 discriminator 3 view .LVU520
 1823              	.LBE37:
 195:../Switch/core/yt/yt_port.c ****     for (i = 0; i < YT_MAX_CASCADE_PORT_NUM; i++)
 1824              		.loc 1 195 5 is_stmt 1 discriminator 1 view .LVU521
 195:../Switch/core/yt/yt_port.c ****     for (i = 0; i < YT_MAX_CASCADE_PORT_NUM; i++)
 1825              		.loc 1 195 5 discriminator 1 view .LVU522
 1826 007e 224B     		ldr	r3, .L194+4
 1827 0080 1B78     		ldrb	r3, [r3]	@ zero_extendqisi2
 1828 0082 012B     		cmp	r3, #1
 1829 0084 01D8     		bhi	.L191
 1830              	.LVL243:
 1831              	.L177:
 195:../Switch/core/yt/yt_port.c ****     for (i = 0; i < YT_MAX_CASCADE_PORT_NUM; i++)
 1832              		.loc 1 195 5 discriminator 5 view .LVU523
 195:../Switch/core/yt/yt_port.c ****     for (i = 0; i < YT_MAX_CASCADE_PORT_NUM; i++)
 1833              		.loc 1 195 5 discriminator 5 view .LVU524
 195:../Switch/core/yt/yt_port.c ****     for (i = 0; i < YT_MAX_CASCADE_PORT_NUM; i++)
 1834              		.loc 1 195 5 discriminator 5 view .LVU525
 1835 0086 0520     		movs	r0, #5
 1836 0088 36E0     		b	.L168
 1837              	.LVL244:
 1838              	.L191:
 195:../Switch/core/yt/yt_port.c ****     for (i = 0; i < YT_MAX_CASCADE_PORT_NUM; i++)
 1839              		.loc 1 195 5 discriminator 3 view .LVU526
 1840              	.LBB38:
 195:../Switch/core/yt/yt_port.c ****     for (i = 0; i < YT_MAX_CASCADE_PORT_NUM; i++)
 1841              		.loc 1 195 5 discriminator 3 view .LVU527
 1842 008a 204B     		ldr	r3, .L194+8
 1843 008c 5A69     		ldr	r2, [r3, #20]
 1844 008e 204B     		ldr	r3, .L194+12
 1845 0090 9968     		ldr	r1, [r3, #8]
 1846 0092 2048     		ldr	r0, .L194+16
 1847              	.LVL245:
 195:../Switch/core/yt/yt_port.c ****     for (i = 0; i < YT_MAX_CASCADE_PORT_NUM; i++)
 1848              		.loc 1 195 5 is_stmt 0 discriminator 3 view .LVU528
 1849 0094 FFF7FEFF 		bl	osal_printf
 1850              	.LVL246:
 1851 0098 F5E7     		b	.L177
 1852              	.LVL247:
 1853              	.L193:
 195:../Switch/core/yt/yt_port.c ****     for (i = 0; i < YT_MAX_CASCADE_PORT_NUM; i++)
 1854              		.loc 1 195 5 discriminator 3 view .LVU529
 1855              	.LBE38:
 197:../Switch/core/yt/yt_port.c ****     {
 198:../Switch/core/yt/yt_port.c ****         if (cascade_info.ports[i].valid)
 199:../Switch/core/yt/yt_port.c ****             CMM_PARAM_CHK((!(CMM_PORT_VALID(unit, cascade_info.ports[i].port_num))), CMM_ERR_PORT);
 1856              		.loc 1 199 13 is_stmt 1 discriminator 5 view .LVU530
 1857              	.LBB39:
 1858              		.loc 1 199 13 discriminator 5 view .LVU531
 1859 009a 1C4B     		ldr	r3, .L194+8
 1860 009c 9A6B     		ldr	r2, [r3, #56]
 1861 009e 1C4B     		ldr	r3, .L194+12
 1862 00a0 9968     		ldr	r1, [r3, #8]
 1863 00a2 1C48     		ldr	r0, .L194+16
 1864 00a4 FFF7FEFF 		bl	osal_printf
 1865              	.LVL248:
 1866 00a8 19E0     		b	.L180
 1867              	.LVL249:
 1868              	.L178:
 1869              		.loc 1 199 13 is_stmt 0 discriminator 5 view .LVU532
 1870              	.LBE39:
 1871              		.loc 1 199 13 is_stmt 1 discriminator 4 view .LVU533
 196:../Switch/core/yt/yt_port.c ****     {
 1872              		.loc 1 196 47 discriminator 4 view .LVU534
 1873 00aa 0133     		adds	r3, r3, #1
 1874              	.LVL250:
 1875              	.L176:
 196:../Switch/core/yt/yt_port.c ****     {
 1876              		.loc 1 196 19 discriminator 2 view .LVU535
 1877 00ac 012B     		cmp	r3, #1
 1878 00ae 18D8     		bhi	.L192
 198:../Switch/core/yt/yt_port.c ****             CMM_PARAM_CHK((!(CMM_PORT_VALID(unit, cascade_info.ports[i].port_num))), CMM_ERR_PORT);
 1879              		.loc 1 198 9 view .LVU536
 198:../Switch/core/yt/yt_port.c ****             CMM_PARAM_CHK((!(CMM_PORT_VALID(unit, cascade_info.ports[i].port_num))), CMM_ERR_PORT);
 1880              		.loc 1 198 34 is_stmt 0 view .LVU537
 1881 00b0 04A9     		add	r1, sp, #16
 1882 00b2 01EBC301 		add	r1, r1, r3, lsl #3
 1883 00b6 097A     		ldrb	r1, [r1, #8]	@ zero_extendqisi2
 198:../Switch/core/yt/yt_port.c ****             CMM_PARAM_CHK((!(CMM_PORT_VALID(unit, cascade_info.ports[i].port_num))), CMM_ERR_PORT);
 1884              		.loc 1 198 12 view .LVU538
 1885 00b8 0029     		cmp	r1, #0
 1886 00ba F6D0     		beq	.L178
 1887              		.loc 1 199 13 is_stmt 1 view .LVU539
 1888              		.loc 1 199 13 view .LVU540
 1889 00bc 1649     		ldr	r1, .L194+20
 1890 00be 0978     		ldrb	r1, [r1]	@ zero_extendqisi2
 1891 00c0 49B1     		cbz	r1, .L179
 1892              		.loc 1 199 13 is_stmt 0 discriminator 2 view .LVU541
 1893 00c2 04A9     		add	r1, sp, #16
 1894 00c4 01EBC301 		add	r1, r1, r3, lsl #3
 1895 00c8 C868     		ldr	r0, [r1, #12]
 1896 00ca 1449     		ldr	r1, .L194+24
 1897 00cc 51F82C10 		ldr	r1, [r1, ip, lsl #2]
 1898 00d0 097D     		ldrb	r1, [r1, #20]	@ zero_extendqisi2
 1899 00d2 8842     		cmp	r0, r1
 1900 00d4 E9D3     		bcc	.L178
 1901              	.L179:
 1902              		.loc 1 199 13 is_stmt 1 discriminator 3 view .LVU542
 1903              		.loc 1 199 13 discriminator 3 view .LVU543
 1904 00d6 0C4B     		ldr	r3, .L194+4
 1905              	.LVL251:
 1906              		.loc 1 199 13 is_stmt 0 discriminator 3 view .LVU544
 1907 00d8 1B78     		ldrb	r3, [r3]	@ zero_extendqisi2
 1908 00da 012B     		cmp	r3, #1
 1909 00dc DDD8     		bhi	.L193
 1910              	.L180:
 1911              		.loc 1 199 13 is_stmt 1 discriminator 7 view .LVU545
 1912              		.loc 1 199 13 discriminator 7 view .LVU546
 1913              		.loc 1 199 13 discriminator 7 view .LVU547
 1914 00de 0E20     		movs	r0, #14
 1915 00e0 0AE0     		b	.L168
 1916              	.LVL252:
 1917              	.L192:
 200:../Switch/core/yt/yt_port.c ****     }
 201:../Switch/core/yt/yt_port.c **** 
 202:../Switch/core/yt/yt_port.c ****     return YT_DISPATCH(unit)->port_cascade_set(unit, cascade_info);
 1918              		.loc 1 202 5 view .LVU548
 1919              		.loc 1 202 29 is_stmt 0 view .LVU549
 1920 00e2 D2F86C45 		ldr	r4, [r2, #1388]
 1921              		.loc 1 202 12 view .LVU550
 1922 00e6 08AB     		add	r3, sp, #32
 1923              	.LVL253:
 1924              		.loc 1 202 12 view .LVU551
 1925 00e8 93E80300 		ldm	r3, {r0, r1}
 1926 00ec 8DE80300 		stm	sp, {r0, r1}
 1927 00f0 05AB     		add	r3, sp, #20
 1928 00f2 0ECB     		ldm	r3, {r1, r2, r3}
 1929 00f4 6046     		mov	r0, ip
 1930 00f6 A047     		blx	r4
 1931              	.LVL254:
 1932              	.L168:
 203:../Switch/core/yt/yt_port.c **** }
 1933              		.loc 1 203 1 view .LVU552
 1934 00f8 02B0     		add	sp, sp, #8
 1935              		.cfi_def_cfa_offset 24
 1936              		@ sp needed
 1937 00fa BDE81040 		pop	{r4, lr}
 1938              		.cfi_restore 14
 1939              		.cfi_restore 4
 1940              		.cfi_def_cfa_offset 16
 1941 00fe 04B0     		add	sp, sp, #16
 1942              		.cfi_def_cfa_offset 0
 1943 0100 7047     		bx	lr
 1944              	.L195:
 1945 0102 00BF     		.align	2
 1946              	.L194:
 1947 0104 00000000 		.word	gpfal_dispatch
 1948 0108 00000000 		.word	yt_debug_level
 1949 010c 00000000 		.word	_yt_errmsg
 1950 0110 00000000 		.word	_yt_prompt_msg
 1951 0114 00000000 		.word	.LC0
 1952 0118 00000000 		.word	gcal_inited
 1953 011c 00000000 		.word	gpSwitchUnit
 1954              		.cfi_endproc
 1955              	.LFE10:
 1957              		.section	.text.yt_port_cascade_get,"ax",%progbits
 1958              		.align	1
 1959              		.global	yt_port_cascade_get
 1960              		.syntax unified
 1961              		.thumb
 1962              		.thumb_func
 1964              	yt_port_cascade_get:
 1965              	.LVL255:
 1966              	.LFB11:
 204:../Switch/core/yt/yt_port.c **** 
 205:../Switch/core/yt/yt_port.c **** /**
 206:../Switch/core/yt/yt_port.c ****  * @internal      yt_port_cascade_get
 207:../Switch/core/yt/yt_port.c ****  * @endinternal
 208:../Switch/core/yt/yt_port.c ****  *
 209:../Switch/core/yt/yt_port.c ****  * @brief         Description
 210:../Switch/core/yt/yt_port.c ****  * @note          APPLICABLE DEVICES  -Tiger
 211:../Switch/core/yt/yt_port.c ****  * @param[in]     unit                -unit id
 212:../Switch/core/yt/yt_port.c ****  * @param[out]    pCascade_info       -cascade enable status and ports configure information
 213:../Switch/core/yt/yt_port.c ****  * @retval        CMM_ERR_OK          -on success
 214:../Switch/core/yt/yt_port.c ****  * @retval        CMM_ERR_FAIL        -on fail
 215:../Switch/core/yt/yt_port.c ****  */
 216:../Switch/core/yt/yt_port.c **** yt_ret_t yt_port_cascade_get(yt_unit_t unit, yt_cascade_info_t *pCascade_info)
 217:../Switch/core/yt/yt_port.c **** {
 1967              		.loc 1 217 1 is_stmt 1 view -0
 1968              		.cfi_startproc
 1969              		@ args = 0, pretend = 0, frame = 0
 1970              		@ frame_needed = 0, uses_anonymous_args = 0
 1971              		.loc 1 217 1 is_stmt 0 view .LVU554
 1972 0000 08B5     		push	{r3, lr}
 1973              		.cfi_def_cfa_offset 8
 1974              		.cfi_offset 3, -8
 1975              		.cfi_offset 14, -4
 218:../Switch/core/yt/yt_port.c ****     CMM_PARAM_CHK((YT_UNIT_NUM <= unit), CMM_ERR_INPUT);
 1976              		.loc 1 218 5 is_stmt 1 view .LVU555
 1977              		.loc 1 218 5 view .LVU556
 1978 0002 68B9     		cbnz	r0, .L207
 1979 0004 0246     		mov	r2, r0
 1980              		.loc 1 218 5 discriminator 2 view .LVU557
 219:../Switch/core/yt/yt_port.c ****     CMM_PARAM_CHK(NULL == YT_DISPATCH(unit), CMM_ERR_NOT_INIT);
 1981              		.loc 1 219 5 discriminator 2 view .LVU558
 1982              		.loc 1 219 5 discriminator 2 view .LVU559
 1983 0006 224B     		ldr	r3, .L215
 1984 0008 53F82030 		ldr	r3, [r3, r0, lsl #2]
 1985 000c B3B1     		cbz	r3, .L208
 1986              		.loc 1 219 5 discriminator 2 view .LVU560
 220:../Switch/core/yt/yt_port.c ****     CMM_PARAM_CHK((!(YT_DISPATCH(unit)->is_inited)), CMM_ERR_NOT_INIT);
 1987              		.loc 1 220 5 discriminator 2 view .LVU561
 1988              		.loc 1 220 5 discriminator 2 view .LVU562
 1989 000e 1878     		ldrb	r0, [r3]	@ zero_extendqisi2
 1990              	.LVL256:
 1991              		.loc 1 220 5 is_stmt 0 discriminator 2 view .LVU563
 1992 0010 10B3     		cbz	r0, .L209
 1993              		.loc 1 220 5 is_stmt 1 discriminator 2 view .LVU564
 221:../Switch/core/yt/yt_port.c ****     CMM_PARAM_CHK((NULL == pCascade_info), CMM_ERR_NULL_POINT);
 1994              		.loc 1 221 5 discriminator 2 view .LVU565
 1995              		.loc 1 221 5 discriminator 2 view .LVU566
 1996 0012 0029     		cmp	r1, #0
 1997 0014 2ED0     		beq	.L210
 1998              		.loc 1 221 5 discriminator 2 view .LVU567
 222:../Switch/core/yt/yt_port.c **** 
 223:../Switch/core/yt/yt_port.c ****     return YT_DISPATCH(unit)->port_cascade_get(unit, pCascade_info);
 1999              		.loc 1 223 5 discriminator 2 view .LVU568
 2000              		.loc 1 223 29 is_stmt 0 discriminator 2 view .LVU569
 2001 0016 D3F87035 		ldr	r3, [r3, #1392]
 2002              		.loc 1 223 12 discriminator 2 view .LVU570
 2003 001a 1046     		mov	r0, r2
 2004 001c 9847     		blx	r3
 2005              	.LVL257:
 2006              	.L196:
 224:../Switch/core/yt/yt_port.c **** }
 2007              		.loc 1 224 1 view .LVU571
 2008 001e 08BD     		pop	{r3, pc}
 2009              	.LVL258:
 2010              	.L207:
 218:../Switch/core/yt/yt_port.c ****     CMM_PARAM_CHK(NULL == YT_DISPATCH(unit), CMM_ERR_NOT_INIT);
 2011              		.loc 1 218 5 is_stmt 1 discriminator 1 view .LVU572
 218:../Switch/core/yt/yt_port.c ****     CMM_PARAM_CHK(NULL == YT_DISPATCH(unit), CMM_ERR_NOT_INIT);
 2012              		.loc 1 218 5 discriminator 1 view .LVU573
 2013 0020 1C4B     		ldr	r3, .L215+4
 2014 0022 1B78     		ldrb	r3, [r3]	@ zero_extendqisi2
 2015 0024 012B     		cmp	r3, #1
 2016 0026 01D8     		bhi	.L211
 2017              	.LVL259:
 2018              	.L198:
 218:../Switch/core/yt/yt_port.c ****     CMM_PARAM_CHK(NULL == YT_DISPATCH(unit), CMM_ERR_NOT_INIT);
 2019              		.loc 1 218 5 discriminator 5 view .LVU574
 218:../Switch/core/yt/yt_port.c ****     CMM_PARAM_CHK(NULL == YT_DISPATCH(unit), CMM_ERR_NOT_INIT);
 2020              		.loc 1 218 5 discriminator 5 view .LVU575
 218:../Switch/core/yt/yt_port.c ****     CMM_PARAM_CHK(NULL == YT_DISPATCH(unit), CMM_ERR_NOT_INIT);
 2021              		.loc 1 218 5 discriminator 5 view .LVU576
 2022 0028 0520     		movs	r0, #5
 2023 002a F8E7     		b	.L196
 2024              	.LVL260:
 2025              	.L211:
 218:../Switch/core/yt/yt_port.c ****     CMM_PARAM_CHK(NULL == YT_DISPATCH(unit), CMM_ERR_NOT_INIT);
 2026              		.loc 1 218 5 discriminator 3 view .LVU577
 2027              	.LBB40:
 218:../Switch/core/yt/yt_port.c ****     CMM_PARAM_CHK(NULL == YT_DISPATCH(unit), CMM_ERR_NOT_INIT);
 2028              		.loc 1 218 5 discriminator 3 view .LVU578
 2029 002c 1A4B     		ldr	r3, .L215+8
 2030 002e 5A69     		ldr	r2, [r3, #20]
 2031 0030 1A4B     		ldr	r3, .L215+12
 2032 0032 9968     		ldr	r1, [r3, #8]
 2033              	.LVL261:
 218:../Switch/core/yt/yt_port.c ****     CMM_PARAM_CHK(NULL == YT_DISPATCH(unit), CMM_ERR_NOT_INIT);
 2034              		.loc 1 218 5 is_stmt 0 discriminator 3 view .LVU579
 2035 0034 1A48     		ldr	r0, .L215+16
 2036              	.LVL262:
 218:../Switch/core/yt/yt_port.c ****     CMM_PARAM_CHK(NULL == YT_DISPATCH(unit), CMM_ERR_NOT_INIT);
 2037              		.loc 1 218 5 discriminator 3 view .LVU580
 2038 0036 FFF7FEFF 		bl	osal_printf
 2039              	.LVL263:
 2040 003a F5E7     		b	.L198
 2041              	.LVL264:
 2042              	.L208:
 218:../Switch/core/yt/yt_port.c ****     CMM_PARAM_CHK(NULL == YT_DISPATCH(unit), CMM_ERR_NOT_INIT);
 2043              		.loc 1 218 5 discriminator 3 view .LVU581
 2044              	.LBE40:
 219:../Switch/core/yt/yt_port.c ****     CMM_PARAM_CHK((!(YT_DISPATCH(unit)->is_inited)), CMM_ERR_NOT_INIT);
 2045              		.loc 1 219 5 is_stmt 1 discriminator 1 view .LVU582
 219:../Switch/core/yt/yt_port.c ****     CMM_PARAM_CHK((!(YT_DISPATCH(unit)->is_inited)), CMM_ERR_NOT_INIT);
 2046              		.loc 1 219 5 discriminator 1 view .LVU583
 2047 003c 154B     		ldr	r3, .L215+4
 2048 003e 1B78     		ldrb	r3, [r3]	@ zero_extendqisi2
 2049 0040 012B     		cmp	r3, #1
 2050 0042 01D8     		bhi	.L212
 2051              	.LVL265:
 2052              	.L201:
 219:../Switch/core/yt/yt_port.c ****     CMM_PARAM_CHK((!(YT_DISPATCH(unit)->is_inited)), CMM_ERR_NOT_INIT);
 2053              		.loc 1 219 5 discriminator 5 view .LVU584
 219:../Switch/core/yt/yt_port.c ****     CMM_PARAM_CHK((!(YT_DISPATCH(unit)->is_inited)), CMM_ERR_NOT_INIT);
 2054              		.loc 1 219 5 discriminator 5 view .LVU585
 219:../Switch/core/yt/yt_port.c ****     CMM_PARAM_CHK((!(YT_DISPATCH(unit)->is_inited)), CMM_ERR_NOT_INIT);
 2055              		.loc 1 219 5 discriminator 5 view .LVU586
 2056 0044 0420     		movs	r0, #4
 2057 0046 EAE7     		b	.L196
 2058              	.LVL266:
 2059              	.L212:
 219:../Switch/core/yt/yt_port.c ****     CMM_PARAM_CHK((!(YT_DISPATCH(unit)->is_inited)), CMM_ERR_NOT_INIT);
 2060              		.loc 1 219 5 discriminator 3 view .LVU587
 2061              	.LBB41:
 219:../Switch/core/yt/yt_port.c ****     CMM_PARAM_CHK((!(YT_DISPATCH(unit)->is_inited)), CMM_ERR_NOT_INIT);
 2062              		.loc 1 219 5 discriminator 3 view .LVU588
 2063 0048 134B     		ldr	r3, .L215+8
 2064 004a 1A69     		ldr	r2, [r3, #16]
 2065 004c 134B     		ldr	r3, .L215+12
 2066 004e 9968     		ldr	r1, [r3, #8]
 2067              	.LVL267:
 219:../Switch/core/yt/yt_port.c ****     CMM_PARAM_CHK((!(YT_DISPATCH(unit)->is_inited)), CMM_ERR_NOT_INIT);
 2068              		.loc 1 219 5 is_stmt 0 discriminator 3 view .LVU589
 2069 0050 1348     		ldr	r0, .L215+16
 2070              	.LVL268:
 219:../Switch/core/yt/yt_port.c ****     CMM_PARAM_CHK((!(YT_DISPATCH(unit)->is_inited)), CMM_ERR_NOT_INIT);
 2071              		.loc 1 219 5 discriminator 3 view .LVU590
 2072 0052 FFF7FEFF 		bl	osal_printf
 2073              	.LVL269:
 2074 0056 F5E7     		b	.L201
 2075              	.LVL270:
 2076              	.L209:
 219:../Switch/core/yt/yt_port.c ****     CMM_PARAM_CHK((!(YT_DISPATCH(unit)->is_inited)), CMM_ERR_NOT_INIT);
 2077              		.loc 1 219 5 discriminator 3 view .LVU591
 2078              	.LBE41:
 220:../Switch/core/yt/yt_port.c ****     CMM_PARAM_CHK((NULL == pCascade_info), CMM_ERR_NULL_POINT);
 2079              		.loc 1 220 5 is_stmt 1 discriminator 1 view .LVU592
 220:../Switch/core/yt/yt_port.c ****     CMM_PARAM_CHK((NULL == pCascade_info), CMM_ERR_NULL_POINT);
 2080              		.loc 1 220 5 discriminator 1 view .LVU593
 2081 0058 0E4B     		ldr	r3, .L215+4
 2082 005a 1B78     		ldrb	r3, [r3]	@ zero_extendqisi2
 2083 005c 012B     		cmp	r3, #1
 2084 005e 01D8     		bhi	.L213
 2085              	.LVL271:
 2086              	.L203:
 220:../Switch/core/yt/yt_port.c ****     CMM_PARAM_CHK((NULL == pCascade_info), CMM_ERR_NULL_POINT);
 2087              		.loc 1 220 5 discriminator 5 view .LVU594
 220:../Switch/core/yt/yt_port.c ****     CMM_PARAM_CHK((NULL == pCascade_info), CMM_ERR_NULL_POINT);
 2088              		.loc 1 220 5 discriminator 5 view .LVU595
 220:../Switch/core/yt/yt_port.c ****     CMM_PARAM_CHK((NULL == pCascade_info), CMM_ERR_NULL_POINT);
 2089              		.loc 1 220 5 discriminator 5 view .LVU596
 2090 0060 0420     		movs	r0, #4
 2091 0062 DCE7     		b	.L196
 2092              	.LVL272:
 2093              	.L213:
 220:../Switch/core/yt/yt_port.c ****     CMM_PARAM_CHK((NULL == pCascade_info), CMM_ERR_NULL_POINT);
 2094              		.loc 1 220 5 discriminator 3 view .LVU597
 2095              	.LBB42:
 220:../Switch/core/yt/yt_port.c ****     CMM_PARAM_CHK((NULL == pCascade_info), CMM_ERR_NULL_POINT);
 2096              		.loc 1 220 5 discriminator 3 view .LVU598
 2097 0064 0C4B     		ldr	r3, .L215+8
 2098 0066 1A69     		ldr	r2, [r3, #16]
 2099 0068 0C4B     		ldr	r3, .L215+12
 2100 006a 9968     		ldr	r1, [r3, #8]
 2101              	.LVL273:
 220:../Switch/core/yt/yt_port.c ****     CMM_PARAM_CHK((NULL == pCascade_info), CMM_ERR_NULL_POINT);
 2102              		.loc 1 220 5 is_stmt 0 discriminator 3 view .LVU599
 2103 006c 0C48     		ldr	r0, .L215+16
 2104 006e FFF7FEFF 		bl	osal_printf
 2105              	.LVL274:
 2106 0072 F5E7     		b	.L203
 2107              	.LVL275:
 2108              	.L210:
 220:../Switch/core/yt/yt_port.c ****     CMM_PARAM_CHK((NULL == pCascade_info), CMM_ERR_NULL_POINT);
 2109              		.loc 1 220 5 discriminator 3 view .LVU600
 2110              	.LBE42:
 221:../Switch/core/yt/yt_port.c **** 
 2111              		.loc 1 221 5 is_stmt 1 discriminator 1 view .LVU601
 221:../Switch/core/yt/yt_port.c **** 
 2112              		.loc 1 221 5 discriminator 1 view .LVU602
 2113 0074 074B     		ldr	r3, .L215+4
 2114 0076 1B78     		ldrb	r3, [r3]	@ zero_extendqisi2
 2115 0078 012B     		cmp	r3, #1
 2116 007a 01D8     		bhi	.L214
 2117              	.LVL276:
 2118              	.L205:
 221:../Switch/core/yt/yt_port.c **** 
 2119              		.loc 1 221 5 discriminator 5 view .LVU603
 221:../Switch/core/yt/yt_port.c **** 
 2120              		.loc 1 221 5 discriminator 5 view .LVU604
 221:../Switch/core/yt/yt_port.c **** 
 2121              		.loc 1 221 5 discriminator 5 view .LVU605
 2122 007c 0220     		movs	r0, #2
 2123 007e CEE7     		b	.L196
 2124              	.LVL277:
 2125              	.L214:
 221:../Switch/core/yt/yt_port.c **** 
 2126              		.loc 1 221 5 discriminator 3 view .LVU606
 2127              	.LBB43:
 221:../Switch/core/yt/yt_port.c **** 
 2128              		.loc 1 221 5 discriminator 3 view .LVU607
 2129 0080 054B     		ldr	r3, .L215+8
 2130 0082 9A68     		ldr	r2, [r3, #8]
 2131 0084 054B     		ldr	r3, .L215+12
 2132 0086 9968     		ldr	r1, [r3, #8]
 2133              	.LVL278:
 221:../Switch/core/yt/yt_port.c **** 
 2134              		.loc 1 221 5 is_stmt 0 discriminator 3 view .LVU608
 2135 0088 0548     		ldr	r0, .L215+16
 2136 008a FFF7FEFF 		bl	osal_printf
 2137              	.LVL279:
 2138 008e F5E7     		b	.L205
 2139              	.L216:
 2140              		.align	2
 2141              	.L215:
 2142 0090 00000000 		.word	gpfal_dispatch
 2143 0094 00000000 		.word	yt_debug_level
 2144 0098 00000000 		.word	_yt_errmsg
 2145 009c 00000000 		.word	_yt_prompt_msg
 2146 00a0 00000000 		.word	.LC0
 2147              	.LBE43:
 2148              		.cfi_endproc
 2149              	.LFE11:
 2151              		.section	.text.yt_port_pkt_gap_set,"ax",%progbits
 2152              		.align	1
 2153              		.global	yt_port_pkt_gap_set
 2154              		.syntax unified
 2155              		.thumb
 2156              		.thumb_func
 2158              	yt_port_pkt_gap_set:
 2159              	.LVL280:
 2160              	.LFB12:
 225:../Switch/core/yt/yt_port.c **** 
 226:../Switch/core/yt/yt_port.c **** /**
 227:../Switch/core/yt/yt_port.c ****  * @internal      yt_port_pkt_gap_set
 228:../Switch/core/yt/yt_port.c ****  * @endinternal
 229:../Switch/core/yt/yt_port.c ****  *
 230:../Switch/core/yt/yt_port.c ****  * @brief         Description
 231:../Switch/core/yt/yt_port.c ****  * @note          APPLICABLE DEVICES  -Tiger
 232:../Switch/core/yt/yt_port.c ****  * @param[in]     unit                -unit id
 233:../Switch/core/yt/yt_port.c ****  * @param[in]     port                -port num
 234:../Switch/core/yt/yt_port.c ****  * @param[in]     gap                 -x
 235:../Switch/core/yt/yt_port.c ****  * @retval        CMM_ERR_OK          -on success
 236:../Switch/core/yt/yt_port.c ****  * @retval        CMM_ERR_FAIL        -on fail
 237:../Switch/core/yt/yt_port.c ****  */
 238:../Switch/core/yt/yt_port.c **** yt_ret_t yt_port_pkt_gap_set(yt_unit_t unit, yt_port_t port, uint8_t gap)
 239:../Switch/core/yt/yt_port.c **** {
 2161              		.loc 1 239 1 is_stmt 1 view -0
 2162              		.cfi_startproc
 2163              		@ args = 0, pretend = 0, frame = 0
 2164              		@ frame_needed = 0, uses_anonymous_args = 0
 2165              		.loc 1 239 1 is_stmt 0 view .LVU610
 2166 0000 08B5     		push	{r3, lr}
 2167              		.cfi_def_cfa_offset 8
 2168              		.cfi_offset 3, -8
 2169              		.cfi_offset 14, -4
 240:../Switch/core/yt/yt_port.c ****     CMM_PARAM_CHK((YT_UNIT_NUM <= unit), CMM_ERR_INPUT);
 2170              		.loc 1 240 5 is_stmt 1 view .LVU611
 2171              		.loc 1 240 5 view .LVU612
 2172 0002 A8B9     		cbnz	r0, .L229
 2173 0004 8446     		mov	ip, r0
 2174              		.loc 1 240 5 discriminator 2 view .LVU613
 241:../Switch/core/yt/yt_port.c ****     CMM_PARAM_CHK(NULL == YT_DISPATCH(unit), CMM_ERR_NOT_INIT);
 2175              		.loc 1 241 5 discriminator 2 view .LVU614
 2176              		.loc 1 241 5 discriminator 2 view .LVU615
 2177 0006 264B     		ldr	r3, .L236
 2178 0008 53F82030 		ldr	r3, [r3, r0, lsl #2]
 2179 000c F3B1     		cbz	r3, .L230
 2180              		.loc 1 241 5 discriminator 2 view .LVU616
 242:../Switch/core/yt/yt_port.c ****     CMM_PARAM_CHK((!(YT_DISPATCH(unit)->is_inited)), CMM_ERR_NOT_INIT);
 2181              		.loc 1 242 5 discriminator 2 view .LVU617
 2182              		.loc 1 242 5 discriminator 2 view .LVU618
 2183 000e 1878     		ldrb	r0, [r3]	@ zero_extendqisi2
 2184              	.LVL281:
 2185              		.loc 1 242 5 is_stmt 0 discriminator 2 view .LVU619
 2186 0010 50B3     		cbz	r0, .L231
 2187              		.loc 1 242 5 is_stmt 1 discriminator 2 view .LVU620
 243:../Switch/core/yt/yt_port.c ****     CMM_PARAM_CHK((!(CMM_PORT_VALID(unit, port))), CMM_ERR_PORT);
 2188              		.loc 1 243 5 discriminator 2 view .LVU621
 2189              		.loc 1 243 5 discriminator 2 view .LVU622
 2190 0012 2448     		ldr	r0, .L236+4
 2191 0014 0078     		ldrb	r0, [r0]	@ zero_extendqisi2
 2192 0016 0028     		cmp	r0, #0
 2193 0018 34D0     		beq	.L225
 2194 001a 2348     		ldr	r0, .L236+8
 2195 001c 50F82C00 		ldr	r0, [r0, ip, lsl #2]
 2196 0020 007D     		ldrb	r0, [r0, #20]	@ zero_extendqisi2
 2197 0022 8842     		cmp	r0, r1
 2198 0024 2ED9     		bls	.L225
 2199              		.loc 1 243 5 discriminator 4 view .LVU623
 244:../Switch/core/yt/yt_port.c **** 
 245:../Switch/core/yt/yt_port.c ****     return YT_DISPATCH(unit)->port_pkt_gap_set(unit, port, gap);
 2200              		.loc 1 245 5 discriminator 4 view .LVU624
 2201              		.loc 1 245 29 is_stmt 0 discriminator 4 view .LVU625
 2202 0026 D3F87435 		ldr	r3, [r3, #1396]
 2203              		.loc 1 245 12 discriminator 4 view .LVU626
 2204 002a 6046     		mov	r0, ip
 2205 002c 9847     		blx	r3
 2206              	.LVL282:
 2207              	.L217:
 246:../Switch/core/yt/yt_port.c **** }
 2208              		.loc 1 246 1 view .LVU627
 2209 002e 08BD     		pop	{r3, pc}
 2210              	.LVL283:
 2211              	.L229:
 240:../Switch/core/yt/yt_port.c ****     CMM_PARAM_CHK(NULL == YT_DISPATCH(unit), CMM_ERR_NOT_INIT);
 2212              		.loc 1 240 5 is_stmt 1 discriminator 1 view .LVU628
 240:../Switch/core/yt/yt_port.c ****     CMM_PARAM_CHK(NULL == YT_DISPATCH(unit), CMM_ERR_NOT_INIT);
 2213              		.loc 1 240 5 discriminator 1 view .LVU629
 2214 0030 1E4B     		ldr	r3, .L236+12
 2215 0032 1B78     		ldrb	r3, [r3]	@ zero_extendqisi2
 2216 0034 012B     		cmp	r3, #1
 2217 0036 01D8     		bhi	.L232
 2218              	.LVL284:
 2219              	.L219:
 240:../Switch/core/yt/yt_port.c ****     CMM_PARAM_CHK(NULL == YT_DISPATCH(unit), CMM_ERR_NOT_INIT);
 2220              		.loc 1 240 5 discriminator 5 view .LVU630
 240:../Switch/core/yt/yt_port.c ****     CMM_PARAM_CHK(NULL == YT_DISPATCH(unit), CMM_ERR_NOT_INIT);
 2221              		.loc 1 240 5 discriminator 5 view .LVU631
 240:../Switch/core/yt/yt_port.c ****     CMM_PARAM_CHK(NULL == YT_DISPATCH(unit), CMM_ERR_NOT_INIT);
 2222              		.loc 1 240 5 discriminator 5 view .LVU632
 2223 0038 0520     		movs	r0, #5
 2224 003a F8E7     		b	.L217
 2225              	.LVL285:
 2226              	.L232:
 240:../Switch/core/yt/yt_port.c ****     CMM_PARAM_CHK(NULL == YT_DISPATCH(unit), CMM_ERR_NOT_INIT);
 2227              		.loc 1 240 5 discriminator 3 view .LVU633
 2228              	.LBB44:
 240:../Switch/core/yt/yt_port.c ****     CMM_PARAM_CHK(NULL == YT_DISPATCH(unit), CMM_ERR_NOT_INIT);
 2229              		.loc 1 240 5 discriminator 3 view .LVU634
 2230 003c 1C4B     		ldr	r3, .L236+16
 2231 003e 5A69     		ldr	r2, [r3, #20]
 2232              	.LVL286:
 240:../Switch/core/yt/yt_port.c ****     CMM_PARAM_CHK(NULL == YT_DISPATCH(unit), CMM_ERR_NOT_INIT);
 2233              		.loc 1 240 5 is_stmt 0 discriminator 3 view .LVU635
 2234 0040 1C4B     		ldr	r3, .L236+20
 2235 0042 9968     		ldr	r1, [r3, #8]
 2236              	.LVL287:
 240:../Switch/core/yt/yt_port.c ****     CMM_PARAM_CHK(NULL == YT_DISPATCH(unit), CMM_ERR_NOT_INIT);
 2237              		.loc 1 240 5 discriminator 3 view .LVU636
 2238 0044 1C48     		ldr	r0, .L236+24
 2239              	.LVL288:
 240:../Switch/core/yt/yt_port.c ****     CMM_PARAM_CHK(NULL == YT_DISPATCH(unit), CMM_ERR_NOT_INIT);
 2240              		.loc 1 240 5 discriminator 3 view .LVU637
 2241 0046 FFF7FEFF 		bl	osal_printf
 2242              	.LVL289:
 2243 004a F5E7     		b	.L219
 2244              	.LVL290:
 2245              	.L230:
 240:../Switch/core/yt/yt_port.c ****     CMM_PARAM_CHK(NULL == YT_DISPATCH(unit), CMM_ERR_NOT_INIT);
 2246              		.loc 1 240 5 discriminator 3 view .LVU638
 2247              	.LBE44:
 241:../Switch/core/yt/yt_port.c ****     CMM_PARAM_CHK((!(YT_DISPATCH(unit)->is_inited)), CMM_ERR_NOT_INIT);
 2248              		.loc 1 241 5 is_stmt 1 discriminator 1 view .LVU639
 241:../Switch/core/yt/yt_port.c ****     CMM_PARAM_CHK((!(YT_DISPATCH(unit)->is_inited)), CMM_ERR_NOT_INIT);
 2249              		.loc 1 241 5 discriminator 1 view .LVU640
 2250 004c 174B     		ldr	r3, .L236+12
 2251 004e 1B78     		ldrb	r3, [r3]	@ zero_extendqisi2
 2252 0050 012B     		cmp	r3, #1
 2253 0052 01D8     		bhi	.L233
 2254              	.LVL291:
 2255              	.L222:
 241:../Switch/core/yt/yt_port.c ****     CMM_PARAM_CHK((!(YT_DISPATCH(unit)->is_inited)), CMM_ERR_NOT_INIT);
 2256              		.loc 1 241 5 discriminator 5 view .LVU641
 241:../Switch/core/yt/yt_port.c ****     CMM_PARAM_CHK((!(YT_DISPATCH(unit)->is_inited)), CMM_ERR_NOT_INIT);
 2257              		.loc 1 241 5 discriminator 5 view .LVU642
 241:../Switch/core/yt/yt_port.c ****     CMM_PARAM_CHK((!(YT_DISPATCH(unit)->is_inited)), CMM_ERR_NOT_INIT);
 2258              		.loc 1 241 5 discriminator 5 view .LVU643
 2259 0054 0420     		movs	r0, #4
 2260 0056 EAE7     		b	.L217
 2261              	.LVL292:
 2262              	.L233:
 241:../Switch/core/yt/yt_port.c ****     CMM_PARAM_CHK((!(YT_DISPATCH(unit)->is_inited)), CMM_ERR_NOT_INIT);
 2263              		.loc 1 241 5 discriminator 3 view .LVU644
 2264              	.LBB45:
 241:../Switch/core/yt/yt_port.c ****     CMM_PARAM_CHK((!(YT_DISPATCH(unit)->is_inited)), CMM_ERR_NOT_INIT);
 2265              		.loc 1 241 5 discriminator 3 view .LVU645
 2266 0058 154B     		ldr	r3, .L236+16
 2267 005a 1A69     		ldr	r2, [r3, #16]
 2268              	.LVL293:
 241:../Switch/core/yt/yt_port.c ****     CMM_PARAM_CHK((!(YT_DISPATCH(unit)->is_inited)), CMM_ERR_NOT_INIT);
 2269              		.loc 1 241 5 is_stmt 0 discriminator 3 view .LVU646
 2270 005c 154B     		ldr	r3, .L236+20
 2271 005e 9968     		ldr	r1, [r3, #8]
 2272              	.LVL294:
 241:../Switch/core/yt/yt_port.c ****     CMM_PARAM_CHK((!(YT_DISPATCH(unit)->is_inited)), CMM_ERR_NOT_INIT);
 2273              		.loc 1 241 5 discriminator 3 view .LVU647
 2274 0060 1548     		ldr	r0, .L236+24
 2275              	.LVL295:
 241:../Switch/core/yt/yt_port.c ****     CMM_PARAM_CHK((!(YT_DISPATCH(unit)->is_inited)), CMM_ERR_NOT_INIT);
 2276              		.loc 1 241 5 discriminator 3 view .LVU648
 2277 0062 FFF7FEFF 		bl	osal_printf
 2278              	.LVL296:
 2279 0066 F5E7     		b	.L222
 2280              	.LVL297:
 2281              	.L231:
 241:../Switch/core/yt/yt_port.c ****     CMM_PARAM_CHK((!(YT_DISPATCH(unit)->is_inited)), CMM_ERR_NOT_INIT);
 2282              		.loc 1 241 5 discriminator 3 view .LVU649
 2283              	.LBE45:
 242:../Switch/core/yt/yt_port.c ****     CMM_PARAM_CHK((!(CMM_PORT_VALID(unit, port))), CMM_ERR_PORT);
 2284              		.loc 1 242 5 is_stmt 1 discriminator 1 view .LVU650
 242:../Switch/core/yt/yt_port.c ****     CMM_PARAM_CHK((!(CMM_PORT_VALID(unit, port))), CMM_ERR_PORT);
 2285              		.loc 1 242 5 discriminator 1 view .LVU651
 2286 0068 104B     		ldr	r3, .L236+12
 2287 006a 1B78     		ldrb	r3, [r3]	@ zero_extendqisi2
 2288 006c 012B     		cmp	r3, #1
 2289 006e 01D8     		bhi	.L234
 2290              	.LVL298:
 2291              	.L224:
 242:../Switch/core/yt/yt_port.c ****     CMM_PARAM_CHK((!(CMM_PORT_VALID(unit, port))), CMM_ERR_PORT);
 2292              		.loc 1 242 5 discriminator 5 view .LVU652
 242:../Switch/core/yt/yt_port.c ****     CMM_PARAM_CHK((!(CMM_PORT_VALID(unit, port))), CMM_ERR_PORT);
 2293              		.loc 1 242 5 discriminator 5 view .LVU653
 242:../Switch/core/yt/yt_port.c ****     CMM_PARAM_CHK((!(CMM_PORT_VALID(unit, port))), CMM_ERR_PORT);
 2294              		.loc 1 242 5 discriminator 5 view .LVU654
 2295 0070 0420     		movs	r0, #4
 2296 0072 DCE7     		b	.L217
 2297              	.LVL299:
 2298              	.L234:
 242:../Switch/core/yt/yt_port.c ****     CMM_PARAM_CHK((!(CMM_PORT_VALID(unit, port))), CMM_ERR_PORT);
 2299              		.loc 1 242 5 discriminator 3 view .LVU655
 2300              	.LBB46:
 242:../Switch/core/yt/yt_port.c ****     CMM_PARAM_CHK((!(CMM_PORT_VALID(unit, port))), CMM_ERR_PORT);
 2301              		.loc 1 242 5 discriminator 3 view .LVU656
 2302 0074 0E4B     		ldr	r3, .L236+16
 2303 0076 1A69     		ldr	r2, [r3, #16]
 2304              	.LVL300:
 242:../Switch/core/yt/yt_port.c ****     CMM_PARAM_CHK((!(CMM_PORT_VALID(unit, port))), CMM_ERR_PORT);
 2305              		.loc 1 242 5 is_stmt 0 discriminator 3 view .LVU657
 2306 0078 0E4B     		ldr	r3, .L236+20
 2307 007a 9968     		ldr	r1, [r3, #8]
 2308              	.LVL301:
 242:../Switch/core/yt/yt_port.c ****     CMM_PARAM_CHK((!(CMM_PORT_VALID(unit, port))), CMM_ERR_PORT);
 2309              		.loc 1 242 5 discriminator 3 view .LVU658
 2310 007c 0E48     		ldr	r0, .L236+24
 2311 007e FFF7FEFF 		bl	osal_printf
 2312              	.LVL302:
 2313 0082 F5E7     		b	.L224
 2314              	.LVL303:
 2315              	.L225:
 242:../Switch/core/yt/yt_port.c ****     CMM_PARAM_CHK((!(CMM_PORT_VALID(unit, port))), CMM_ERR_PORT);
 2316              		.loc 1 242 5 discriminator 3 view .LVU659
 2317              	.LBE46:
 243:../Switch/core/yt/yt_port.c **** 
 2318              		.loc 1 243 5 is_stmt 1 discriminator 3 view .LVU660
 243:../Switch/core/yt/yt_port.c **** 
 2319              		.loc 1 243 5 discriminator 3 view .LVU661
 2320 0084 094B     		ldr	r3, .L236+12
 2321 0086 1B78     		ldrb	r3, [r3]	@ zero_extendqisi2
 2322 0088 012B     		cmp	r3, #1
 2323 008a 01D8     		bhi	.L235
 2324              	.LVL304:
 2325              	.L227:
 243:../Switch/core/yt/yt_port.c **** 
 2326              		.loc 1 243 5 discriminator 7 view .LVU662
 243:../Switch/core/yt/yt_port.c **** 
 2327              		.loc 1 243 5 discriminator 7 view .LVU663
 243:../Switch/core/yt/yt_port.c **** 
 2328              		.loc 1 243 5 discriminator 7 view .LVU664
 2329 008c 0E20     		movs	r0, #14
 2330 008e CEE7     		b	.L217
 2331              	.LVL305:
 2332              	.L235:
 243:../Switch/core/yt/yt_port.c **** 
 2333              		.loc 1 243 5 discriminator 5 view .LVU665
 2334              	.LBB47:
 243:../Switch/core/yt/yt_port.c **** 
 2335              		.loc 1 243 5 discriminator 5 view .LVU666
 2336 0090 074B     		ldr	r3, .L236+16
 2337 0092 9A6B     		ldr	r2, [r3, #56]
 2338              	.LVL306:
 243:../Switch/core/yt/yt_port.c **** 
 2339              		.loc 1 243 5 is_stmt 0 discriminator 5 view .LVU667
 2340 0094 074B     		ldr	r3, .L236+20
 2341 0096 9968     		ldr	r1, [r3, #8]
 2342              	.LVL307:
 243:../Switch/core/yt/yt_port.c **** 
 2343              		.loc 1 243 5 discriminator 5 view .LVU668
 2344 0098 0748     		ldr	r0, .L236+24
 2345 009a FFF7FEFF 		bl	osal_printf
 2346              	.LVL308:
 2347 009e F5E7     		b	.L227
 2348              	.L237:
 2349              		.align	2
 2350              	.L236:
 2351 00a0 00000000 		.word	gpfal_dispatch
 2352 00a4 00000000 		.word	gcal_inited
 2353 00a8 00000000 		.word	gpSwitchUnit
 2354 00ac 00000000 		.word	yt_debug_level
 2355 00b0 00000000 		.word	_yt_errmsg
 2356 00b4 00000000 		.word	_yt_prompt_msg
 2357 00b8 00000000 		.word	.LC0
 2358              	.LBE47:
 2359              		.cfi_endproc
 2360              	.LFE12:
 2362              		.section	.text.yt_port_pkt_gap_get,"ax",%progbits
 2363              		.align	1
 2364              		.global	yt_port_pkt_gap_get
 2365              		.syntax unified
 2366              		.thumb
 2367              		.thumb_func
 2369              	yt_port_pkt_gap_get:
 2370              	.LVL309:
 2371              	.LFB13:
 247:../Switch/core/yt/yt_port.c **** 
 248:../Switch/core/yt/yt_port.c **** /**
 249:../Switch/core/yt/yt_port.c ****  * @internal      yt_port_pkt_gap_get
 250:../Switch/core/yt/yt_port.c ****  * @endinternal
 251:../Switch/core/yt/yt_port.c ****  *
 252:../Switch/core/yt/yt_port.c ****  * @brief         Description
 253:../Switch/core/yt/yt_port.c ****  * @note          APPLICABLE DEVICES  -Tiger
 254:../Switch/core/yt/yt_port.c ****  * @param[in]     unit                -unit id
 255:../Switch/core/yt/yt_port.c ****  * @param[in]     port                -port num
 256:../Switch/core/yt/yt_port.c ****  * @param[out]    pGap                -x
 257:../Switch/core/yt/yt_port.c ****  * @retval        CMM_ERR_OK          -on success
 258:../Switch/core/yt/yt_port.c ****  * @retval        CMM_ERR_FAIL        -on fail
 259:../Switch/core/yt/yt_port.c ****  */
 260:../Switch/core/yt/yt_port.c **** yt_ret_t yt_port_pkt_gap_get(yt_unit_t unit, yt_port_t port, uint8_t *pGap)
 261:../Switch/core/yt/yt_port.c **** {
 2372              		.loc 1 261 1 is_stmt 1 view -0
 2373              		.cfi_startproc
 2374              		@ args = 0, pretend = 0, frame = 0
 2375              		@ frame_needed = 0, uses_anonymous_args = 0
 2376              		.loc 1 261 1 is_stmt 0 view .LVU670
 2377 0000 08B5     		push	{r3, lr}
 2378              		.cfi_def_cfa_offset 8
 2379              		.cfi_offset 3, -8
 2380              		.cfi_offset 14, -4
 262:../Switch/core/yt/yt_port.c ****     CMM_PARAM_CHK((YT_UNIT_NUM <= unit), CMM_ERR_INPUT);
 2381              		.loc 1 262 5 is_stmt 1 view .LVU671
 2382              		.loc 1 262 5 view .LVU672
 2383 0002 C0B9     		cbnz	r0, .L252
 2384 0004 8446     		mov	ip, r0
 2385              		.loc 1 262 5 discriminator 2 view .LVU673
 263:../Switch/core/yt/yt_port.c ****     CMM_PARAM_CHK(NULL == YT_DISPATCH(unit), CMM_ERR_NOT_INIT);
 2386              		.loc 1 263 5 discriminator 2 view .LVU674
 2387              		.loc 1 263 5 discriminator 2 view .LVU675
 2388 0006 2F4B     		ldr	r3, .L261
 2389 0008 53F82030 		ldr	r3, [r3, r0, lsl #2]
 2390 000c 0BB3     		cbz	r3, .L253
 2391              		.loc 1 263 5 discriminator 2 view .LVU676
 264:../Switch/core/yt/yt_port.c ****     CMM_PARAM_CHK((!(YT_DISPATCH(unit)->is_inited)), CMM_ERR_NOT_INIT);
 2392              		.loc 1 264 5 discriminator 2 view .LVU677
 2393              		.loc 1 264 5 discriminator 2 view .LVU678
 2394 000e 1878     		ldrb	r0, [r3]	@ zero_extendqisi2
 2395              	.LVL310:
 2396              		.loc 1 264 5 is_stmt 0 discriminator 2 view .LVU679
 2397 0010 0028     		cmp	r0, #0
 2398 0012 2CD0     		beq	.L254
 2399              		.loc 1 264 5 is_stmt 1 discriminator 2 view .LVU680
 265:../Switch/core/yt/yt_port.c ****     CMM_PARAM_CHK((!(CMM_PORT_VALID(unit, port))), CMM_ERR_PORT);
 2400              		.loc 1 265 5 discriminator 2 view .LVU681
 2401              		.loc 1 265 5 discriminator 2 view .LVU682
 2402 0014 2C48     		ldr	r0, .L261+4
 2403 0016 0078     		ldrb	r0, [r0]	@ zero_extendqisi2
 2404 0018 0028     		cmp	r0, #0
 2405 001a 36D0     		beq	.L246
 2406 001c 2B48     		ldr	r0, .L261+8
 2407 001e 50F82C00 		ldr	r0, [r0, ip, lsl #2]
 2408 0022 007D     		ldrb	r0, [r0, #20]	@ zero_extendqisi2
 2409 0024 8842     		cmp	r0, r1
 2410 0026 30D9     		bls	.L246
 2411              		.loc 1 265 5 discriminator 4 view .LVU683
 266:../Switch/core/yt/yt_port.c ****     CMM_PARAM_CHK((NULL == pGap), CMM_ERR_NULL_POINT);
 2412              		.loc 1 266 5 discriminator 4 view .LVU684
 2413              		.loc 1 266 5 discriminator 4 view .LVU685
 2414 0028 002A     		cmp	r2, #0
 2415 002a 3CD0     		beq	.L255
 2416              		.loc 1 266 5 discriminator 2 view .LVU686
 267:../Switch/core/yt/yt_port.c **** 
 268:../Switch/core/yt/yt_port.c ****     return YT_DISPATCH(unit)->port_pkt_gap_get(unit, port, pGap);
 2417              		.loc 1 268 5 discriminator 2 view .LVU687
 2418              		.loc 1 268 29 is_stmt 0 discriminator 2 view .LVU688
 2419 002c D3F87835 		ldr	r3, [r3, #1400]
 2420              		.loc 1 268 12 discriminator 2 view .LVU689
 2421 0030 6046     		mov	r0, ip
 2422 0032 9847     		blx	r3
 2423              	.LVL311:
 2424              	.L238:
 269:../Switch/core/yt/yt_port.c **** }
 2425              		.loc 1 269 1 view .LVU690
 2426 0034 08BD     		pop	{r3, pc}
 2427              	.LVL312:
 2428              	.L252:
 262:../Switch/core/yt/yt_port.c ****     CMM_PARAM_CHK(NULL == YT_DISPATCH(unit), CMM_ERR_NOT_INIT);
 2429              		.loc 1 262 5 is_stmt 1 discriminator 1 view .LVU691
 262:../Switch/core/yt/yt_port.c ****     CMM_PARAM_CHK(NULL == YT_DISPATCH(unit), CMM_ERR_NOT_INIT);
 2430              		.loc 1 262 5 discriminator 1 view .LVU692
 2431 0036 264B     		ldr	r3, .L261+12
 2432 0038 1B78     		ldrb	r3, [r3]	@ zero_extendqisi2
 2433 003a 012B     		cmp	r3, #1
 2434 003c 01D8     		bhi	.L256
 2435              	.LVL313:
 2436              	.L240:
 262:../Switch/core/yt/yt_port.c ****     CMM_PARAM_CHK(NULL == YT_DISPATCH(unit), CMM_ERR_NOT_INIT);
 2437              		.loc 1 262 5 discriminator 5 view .LVU693
 262:../Switch/core/yt/yt_port.c ****     CMM_PARAM_CHK(NULL == YT_DISPATCH(unit), CMM_ERR_NOT_INIT);
 2438              		.loc 1 262 5 discriminator 5 view .LVU694
 262:../Switch/core/yt/yt_port.c ****     CMM_PARAM_CHK(NULL == YT_DISPATCH(unit), CMM_ERR_NOT_INIT);
 2439              		.loc 1 262 5 discriminator 5 view .LVU695
 2440 003e 0520     		movs	r0, #5
 2441 0040 F8E7     		b	.L238
 2442              	.LVL314:
 2443              	.L256:
 262:../Switch/core/yt/yt_port.c ****     CMM_PARAM_CHK(NULL == YT_DISPATCH(unit), CMM_ERR_NOT_INIT);
 2444              		.loc 1 262 5 discriminator 3 view .LVU696
 2445              	.LBB48:
 262:../Switch/core/yt/yt_port.c ****     CMM_PARAM_CHK(NULL == YT_DISPATCH(unit), CMM_ERR_NOT_INIT);
 2446              		.loc 1 262 5 discriminator 3 view .LVU697
 2447 0042 244B     		ldr	r3, .L261+16
 2448 0044 5A69     		ldr	r2, [r3, #20]
 2449              	.LVL315:
 262:../Switch/core/yt/yt_port.c ****     CMM_PARAM_CHK(NULL == YT_DISPATCH(unit), CMM_ERR_NOT_INIT);
 2450              		.loc 1 262 5 is_stmt 0 discriminator 3 view .LVU698
 2451 0046 244B     		ldr	r3, .L261+20
 2452 0048 9968     		ldr	r1, [r3, #8]
 2453              	.LVL316:
 262:../Switch/core/yt/yt_port.c ****     CMM_PARAM_CHK(NULL == YT_DISPATCH(unit), CMM_ERR_NOT_INIT);
 2454              		.loc 1 262 5 discriminator 3 view .LVU699
 2455 004a 2448     		ldr	r0, .L261+24
 2456              	.LVL317:
 262:../Switch/core/yt/yt_port.c ****     CMM_PARAM_CHK(NULL == YT_DISPATCH(unit), CMM_ERR_NOT_INIT);
 2457              		.loc 1 262 5 discriminator 3 view .LVU700
 2458 004c FFF7FEFF 		bl	osal_printf
 2459              	.LVL318:
 2460 0050 F5E7     		b	.L240
 2461              	.LVL319:
 2462              	.L253:
 262:../Switch/core/yt/yt_port.c ****     CMM_PARAM_CHK(NULL == YT_DISPATCH(unit), CMM_ERR_NOT_INIT);
 2463              		.loc 1 262 5 discriminator 3 view .LVU701
 2464              	.LBE48:
 263:../Switch/core/yt/yt_port.c ****     CMM_PARAM_CHK((!(YT_DISPATCH(unit)->is_inited)), CMM_ERR_NOT_INIT);
 2465              		.loc 1 263 5 is_stmt 1 discriminator 1 view .LVU702
 263:../Switch/core/yt/yt_port.c ****     CMM_PARAM_CHK((!(YT_DISPATCH(unit)->is_inited)), CMM_ERR_NOT_INIT);
 2466              		.loc 1 263 5 discriminator 1 view .LVU703
 2467 0052 1F4B     		ldr	r3, .L261+12
 2468 0054 1B78     		ldrb	r3, [r3]	@ zero_extendqisi2
 2469 0056 012B     		cmp	r3, #1
 2470 0058 01D8     		bhi	.L257
 2471              	.LVL320:
 2472              	.L243:
 263:../Switch/core/yt/yt_port.c ****     CMM_PARAM_CHK((!(YT_DISPATCH(unit)->is_inited)), CMM_ERR_NOT_INIT);
 2473              		.loc 1 263 5 discriminator 5 view .LVU704
 263:../Switch/core/yt/yt_port.c ****     CMM_PARAM_CHK((!(YT_DISPATCH(unit)->is_inited)), CMM_ERR_NOT_INIT);
 2474              		.loc 1 263 5 discriminator 5 view .LVU705
 263:../Switch/core/yt/yt_port.c ****     CMM_PARAM_CHK((!(YT_DISPATCH(unit)->is_inited)), CMM_ERR_NOT_INIT);
 2475              		.loc 1 263 5 discriminator 5 view .LVU706
 2476 005a 0420     		movs	r0, #4
 2477 005c EAE7     		b	.L238
 2478              	.LVL321:
 2479              	.L257:
 263:../Switch/core/yt/yt_port.c ****     CMM_PARAM_CHK((!(YT_DISPATCH(unit)->is_inited)), CMM_ERR_NOT_INIT);
 2480              		.loc 1 263 5 discriminator 3 view .LVU707
 2481              	.LBB49:
 263:../Switch/core/yt/yt_port.c ****     CMM_PARAM_CHK((!(YT_DISPATCH(unit)->is_inited)), CMM_ERR_NOT_INIT);
 2482              		.loc 1 263 5 discriminator 3 view .LVU708
 2483 005e 1D4B     		ldr	r3, .L261+16
 2484 0060 1A69     		ldr	r2, [r3, #16]
 2485              	.LVL322:
 263:../Switch/core/yt/yt_port.c ****     CMM_PARAM_CHK((!(YT_DISPATCH(unit)->is_inited)), CMM_ERR_NOT_INIT);
 2486              		.loc 1 263 5 is_stmt 0 discriminator 3 view .LVU709
 2487 0062 1D4B     		ldr	r3, .L261+20
 2488 0064 9968     		ldr	r1, [r3, #8]
 2489              	.LVL323:
 263:../Switch/core/yt/yt_port.c ****     CMM_PARAM_CHK((!(YT_DISPATCH(unit)->is_inited)), CMM_ERR_NOT_INIT);
 2490              		.loc 1 263 5 discriminator 3 view .LVU710
 2491 0066 1D48     		ldr	r0, .L261+24
 2492              	.LVL324:
 263:../Switch/core/yt/yt_port.c ****     CMM_PARAM_CHK((!(YT_DISPATCH(unit)->is_inited)), CMM_ERR_NOT_INIT);
 2493              		.loc 1 263 5 discriminator 3 view .LVU711
 2494 0068 FFF7FEFF 		bl	osal_printf
 2495              	.LVL325:
 2496 006c F5E7     		b	.L243
 2497              	.LVL326:
 2498              	.L254:
 263:../Switch/core/yt/yt_port.c ****     CMM_PARAM_CHK((!(YT_DISPATCH(unit)->is_inited)), CMM_ERR_NOT_INIT);
 2499              		.loc 1 263 5 discriminator 3 view .LVU712
 2500              	.LBE49:
 264:../Switch/core/yt/yt_port.c ****     CMM_PARAM_CHK((!(CMM_PORT_VALID(unit, port))), CMM_ERR_PORT);
 2501              		.loc 1 264 5 is_stmt 1 discriminator 1 view .LVU713
 264:../Switch/core/yt/yt_port.c ****     CMM_PARAM_CHK((!(CMM_PORT_VALID(unit, port))), CMM_ERR_PORT);
 2502              		.loc 1 264 5 discriminator 1 view .LVU714
 2503 006e 184B     		ldr	r3, .L261+12
 2504 0070 1B78     		ldrb	r3, [r3]	@ zero_extendqisi2
 2505 0072 012B     		cmp	r3, #1
 2506 0074 01D8     		bhi	.L258
 2507              	.LVL327:
 2508              	.L245:
 264:../Switch/core/yt/yt_port.c ****     CMM_PARAM_CHK((!(CMM_PORT_VALID(unit, port))), CMM_ERR_PORT);
 2509              		.loc 1 264 5 discriminator 5 view .LVU715
 264:../Switch/core/yt/yt_port.c ****     CMM_PARAM_CHK((!(CMM_PORT_VALID(unit, port))), CMM_ERR_PORT);
 2510              		.loc 1 264 5 discriminator 5 view .LVU716
 264:../Switch/core/yt/yt_port.c ****     CMM_PARAM_CHK((!(CMM_PORT_VALID(unit, port))), CMM_ERR_PORT);
 2511              		.loc 1 264 5 discriminator 5 view .LVU717
 2512 0076 0420     		movs	r0, #4
 2513 0078 DCE7     		b	.L238
 2514              	.LVL328:
 2515              	.L258:
 264:../Switch/core/yt/yt_port.c ****     CMM_PARAM_CHK((!(CMM_PORT_VALID(unit, port))), CMM_ERR_PORT);
 2516              		.loc 1 264 5 discriminator 3 view .LVU718
 2517              	.LBB50:
 264:../Switch/core/yt/yt_port.c ****     CMM_PARAM_CHK((!(CMM_PORT_VALID(unit, port))), CMM_ERR_PORT);
 2518              		.loc 1 264 5 discriminator 3 view .LVU719
 2519 007a 164B     		ldr	r3, .L261+16
 2520 007c 1A69     		ldr	r2, [r3, #16]
 2521              	.LVL329:
 264:../Switch/core/yt/yt_port.c ****     CMM_PARAM_CHK((!(CMM_PORT_VALID(unit, port))), CMM_ERR_PORT);
 2522              		.loc 1 264 5 is_stmt 0 discriminator 3 view .LVU720
 2523 007e 164B     		ldr	r3, .L261+20
 2524 0080 9968     		ldr	r1, [r3, #8]
 2525              	.LVL330:
 264:../Switch/core/yt/yt_port.c ****     CMM_PARAM_CHK((!(CMM_PORT_VALID(unit, port))), CMM_ERR_PORT);
 2526              		.loc 1 264 5 discriminator 3 view .LVU721
 2527 0082 1648     		ldr	r0, .L261+24
 2528 0084 FFF7FEFF 		bl	osal_printf
 2529              	.LVL331:
 2530 0088 F5E7     		b	.L245
 2531              	.LVL332:
 2532              	.L246:
 264:../Switch/core/yt/yt_port.c ****     CMM_PARAM_CHK((!(CMM_PORT_VALID(unit, port))), CMM_ERR_PORT);
 2533              		.loc 1 264 5 discriminator 3 view .LVU722
 2534              	.LBE50:
 265:../Switch/core/yt/yt_port.c ****     CMM_PARAM_CHK((NULL == pGap), CMM_ERR_NULL_POINT);
 2535              		.loc 1 265 5 is_stmt 1 discriminator 3 view .LVU723
 265:../Switch/core/yt/yt_port.c ****     CMM_PARAM_CHK((NULL == pGap), CMM_ERR_NULL_POINT);
 2536              		.loc 1 265 5 discriminator 3 view .LVU724
 2537 008a 114B     		ldr	r3, .L261+12
 2538 008c 1B78     		ldrb	r3, [r3]	@ zero_extendqisi2
 2539 008e 012B     		cmp	r3, #1
 2540 0090 01D8     		bhi	.L259
 2541              	.LVL333:
 2542              	.L248:
 265:../Switch/core/yt/yt_port.c ****     CMM_PARAM_CHK((NULL == pGap), CMM_ERR_NULL_POINT);
 2543              		.loc 1 265 5 discriminator 7 view .LVU725
 265:../Switch/core/yt/yt_port.c ****     CMM_PARAM_CHK((NULL == pGap), CMM_ERR_NULL_POINT);
 2544              		.loc 1 265 5 discriminator 7 view .LVU726
 265:../Switch/core/yt/yt_port.c ****     CMM_PARAM_CHK((NULL == pGap), CMM_ERR_NULL_POINT);
 2545              		.loc 1 265 5 discriminator 7 view .LVU727
 2546 0092 0E20     		movs	r0, #14
 2547 0094 CEE7     		b	.L238
 2548              	.LVL334:
 2549              	.L259:
 265:../Switch/core/yt/yt_port.c ****     CMM_PARAM_CHK((NULL == pGap), CMM_ERR_NULL_POINT);
 2550              		.loc 1 265 5 discriminator 5 view .LVU728
 2551              	.LBB51:
 265:../Switch/core/yt/yt_port.c ****     CMM_PARAM_CHK((NULL == pGap), CMM_ERR_NULL_POINT);
 2552              		.loc 1 265 5 discriminator 5 view .LVU729
 2553 0096 0F4B     		ldr	r3, .L261+16
 2554 0098 9A6B     		ldr	r2, [r3, #56]
 2555              	.LVL335:
 265:../Switch/core/yt/yt_port.c ****     CMM_PARAM_CHK((NULL == pGap), CMM_ERR_NULL_POINT);
 2556              		.loc 1 265 5 is_stmt 0 discriminator 5 view .LVU730
 2557 009a 0F4B     		ldr	r3, .L261+20
 2558 009c 9968     		ldr	r1, [r3, #8]
 2559              	.LVL336:
 265:../Switch/core/yt/yt_port.c ****     CMM_PARAM_CHK((NULL == pGap), CMM_ERR_NULL_POINT);
 2560              		.loc 1 265 5 discriminator 5 view .LVU731
 2561 009e 0F48     		ldr	r0, .L261+24
 2562 00a0 FFF7FEFF 		bl	osal_printf
 2563              	.LVL337:
 2564 00a4 F5E7     		b	.L248
 2565              	.LVL338:
 2566              	.L255:
 265:../Switch/core/yt/yt_port.c ****     CMM_PARAM_CHK((NULL == pGap), CMM_ERR_NULL_POINT);
 2567              		.loc 1 265 5 discriminator 5 view .LVU732
 2568              	.LBE51:
 266:../Switch/core/yt/yt_port.c **** 
 2569              		.loc 1 266 5 is_stmt 1 discriminator 1 view .LVU733
 266:../Switch/core/yt/yt_port.c **** 
 2570              		.loc 1 266 5 discriminator 1 view .LVU734
 2571 00a6 0A4B     		ldr	r3, .L261+12
 2572 00a8 1B78     		ldrb	r3, [r3]	@ zero_extendqisi2
 2573 00aa 012B     		cmp	r3, #1
 2574 00ac 01D8     		bhi	.L260
 2575              	.LVL339:
 2576              	.L250:
 266:../Switch/core/yt/yt_port.c **** 
 2577              		.loc 1 266 5 discriminator 5 view .LVU735
 266:../Switch/core/yt/yt_port.c **** 
 2578              		.loc 1 266 5 discriminator 5 view .LVU736
 266:../Switch/core/yt/yt_port.c **** 
 2579              		.loc 1 266 5 discriminator 5 view .LVU737
 2580 00ae 0220     		movs	r0, #2
 2581 00b0 C0E7     		b	.L238
 2582              	.LVL340:
 2583              	.L260:
 266:../Switch/core/yt/yt_port.c **** 
 2584              		.loc 1 266 5 discriminator 3 view .LVU738
 2585              	.LBB52:
 266:../Switch/core/yt/yt_port.c **** 
 2586              		.loc 1 266 5 discriminator 3 view .LVU739
 2587 00b2 084B     		ldr	r3, .L261+16
 2588 00b4 9A68     		ldr	r2, [r3, #8]
 2589              	.LVL341:
 266:../Switch/core/yt/yt_port.c **** 
 2590              		.loc 1 266 5 is_stmt 0 discriminator 3 view .LVU740
 2591 00b6 084B     		ldr	r3, .L261+20
 2592 00b8 9968     		ldr	r1, [r3, #8]
 2593              	.LVL342:
 266:../Switch/core/yt/yt_port.c **** 
 2594              		.loc 1 266 5 discriminator 3 view .LVU741
 2595 00ba 0848     		ldr	r0, .L261+24
 2596 00bc FFF7FEFF 		bl	osal_printf
 2597              	.LVL343:
 2598 00c0 F5E7     		b	.L250
 2599              	.L262:
 2600 00c2 00BF     		.align	2
 2601              	.L261:
 2602 00c4 00000000 		.word	gpfal_dispatch
 2603 00c8 00000000 		.word	gcal_inited
 2604 00cc 00000000 		.word	gpSwitchUnit
 2605 00d0 00000000 		.word	yt_debug_level
 2606 00d4 00000000 		.word	_yt_errmsg
 2607 00d8 00000000 		.word	_yt_prompt_msg
 2608 00dc 00000000 		.word	.LC0
 2609              	.LBE52:
 2610              		.cfi_endproc
 2611              	.LFE13:
 2613              		.section	.text.yt_port_macAutoNeg_enable_set,"ax",%progbits
 2614              		.align	1
 2615              		.global	yt_port_macAutoNeg_enable_set
 2616              		.syntax unified
 2617              		.thumb
 2618              		.thumb_func
 2620              	yt_port_macAutoNeg_enable_set:
 2621              	.LVL344:
 2622              	.LFB14:
 270:../Switch/core/yt/yt_port.c **** 
 271:../Switch/core/yt/yt_port.c **** /**
 272:../Switch/core/yt/yt_port.c ****  * @internal      yt_port_macAutoNeg_enable_set
 273:../Switch/core/yt/yt_port.c ****  * @endinternal
 274:../Switch/core/yt/yt_port.c ****  *
 275:../Switch/core/yt/yt_port.c ****  * @brief         Description
 276:../Switch/core/yt/yt_port.c ****  * @note          APPLICABLE DEVICES  -Tiger
 277:../Switch/core/yt/yt_port.c ****  * @param[in]     unit                -unit id
 278:../Switch/core/yt/yt_port.c ****  * @param[in]     port                -port num
 279:../Switch/core/yt/yt_port.c ****  * @param[in]     enable              -enable or disable
 280:../Switch/core/yt/yt_port.c ****  * @retval        CMM_ERR_OK          -on success
 281:../Switch/core/yt/yt_port.c ****  * @retval        CMM_ERR_FAIL        -on fail
 282:../Switch/core/yt/yt_port.c ****  */
 283:../Switch/core/yt/yt_port.c **** yt_ret_t yt_port_macAutoNeg_enable_set(yt_unit_t unit, yt_port_t port, yt_enable_t enable)
 284:../Switch/core/yt/yt_port.c **** {
 2623              		.loc 1 284 1 is_stmt 1 view -0
 2624              		.cfi_startproc
 2625              		@ args = 0, pretend = 0, frame = 0
 2626              		@ frame_needed = 0, uses_anonymous_args = 0
 2627              		.loc 1 284 1 is_stmt 0 view .LVU743
 2628 0000 08B5     		push	{r3, lr}
 2629              		.cfi_def_cfa_offset 8
 2630              		.cfi_offset 3, -8
 2631              		.cfi_offset 14, -4
 285:../Switch/core/yt/yt_port.c ****     CMM_PARAM_CHK((YT_UNIT_NUM <= unit), CMM_ERR_INPUT);
 2632              		.loc 1 285 5 is_stmt 1 view .LVU744
 2633              		.loc 1 285 5 view .LVU745
 2634 0002 C0B9     		cbnz	r0, .L277
 2635 0004 8446     		mov	ip, r0
 2636              		.loc 1 285 5 discriminator 2 view .LVU746
 286:../Switch/core/yt/yt_port.c ****     CMM_PARAM_CHK(NULL == YT_DISPATCH(unit), CMM_ERR_NOT_INIT);
 2637              		.loc 1 286 5 discriminator 2 view .LVU747
 2638              		.loc 1 286 5 discriminator 2 view .LVU748
 2639 0006 2F4B     		ldr	r3, .L286
 2640 0008 53F82030 		ldr	r3, [r3, r0, lsl #2]
 2641 000c 0BB3     		cbz	r3, .L278
 2642              		.loc 1 286 5 discriminator 2 view .LVU749
 287:../Switch/core/yt/yt_port.c ****     CMM_PARAM_CHK((!(YT_DISPATCH(unit)->is_inited)), CMM_ERR_NOT_INIT);
 2643              		.loc 1 287 5 discriminator 2 view .LVU750
 2644              		.loc 1 287 5 discriminator 2 view .LVU751
 2645 000e 1878     		ldrb	r0, [r3]	@ zero_extendqisi2
 2646              	.LVL345:
 2647              		.loc 1 287 5 is_stmt 0 discriminator 2 view .LVU752
 2648 0010 0028     		cmp	r0, #0
 2649 0012 2CD0     		beq	.L279
 2650              		.loc 1 287 5 is_stmt 1 discriminator 2 view .LVU753
 288:../Switch/core/yt/yt_port.c ****     CMM_PARAM_CHK((!(CMM_PORT_VALID(unit, port))), CMM_ERR_PORT);
 2651              		.loc 1 288 5 discriminator 2 view .LVU754
 2652              		.loc 1 288 5 discriminator 2 view .LVU755
 2653 0014 2C48     		ldr	r0, .L286+4
 2654 0016 0078     		ldrb	r0, [r0]	@ zero_extendqisi2
 2655 0018 0028     		cmp	r0, #0
 2656 001a 36D0     		beq	.L271
 2657 001c 2B48     		ldr	r0, .L286+8
 2658 001e 50F82C00 		ldr	r0, [r0, ip, lsl #2]
 2659 0022 007D     		ldrb	r0, [r0, #20]	@ zero_extendqisi2
 2660 0024 8842     		cmp	r0, r1
 2661 0026 30D9     		bls	.L271
 2662              		.loc 1 288 5 discriminator 4 view .LVU756
 289:../Switch/core/yt/yt_port.c ****     CMM_PARAM_CHK((YT_ENABLE < enable || YT_DISABLE > enable), CMM_ERR_INPUT);
 2663              		.loc 1 289 5 discriminator 4 view .LVU757
 2664              		.loc 1 289 5 discriminator 4 view .LVU758
 2665 0028 012A     		cmp	r2, #1
 2666 002a 3CD8     		bhi	.L280
 2667              		.loc 1 289 5 discriminator 2 view .LVU759
 290:../Switch/core/yt/yt_port.c **** 
 291:../Switch/core/yt/yt_port.c ****     return YT_DISPATCH(unit)->port_macAutoNeg_enable_set(unit, port, enable);
 2668              		.loc 1 291 5 discriminator 2 view .LVU760
 2669              		.loc 1 291 29 is_stmt 0 discriminator 2 view .LVU761
 2670 002c D3F87C35 		ldr	r3, [r3, #1404]
 2671              		.loc 1 291 12 discriminator 2 view .LVU762
 2672 0030 6046     		mov	r0, ip
 2673 0032 9847     		blx	r3
 2674              	.LVL346:
 2675              	.L263:
 292:../Switch/core/yt/yt_port.c **** }
 2676              		.loc 1 292 1 view .LVU763
 2677 0034 08BD     		pop	{r3, pc}
 2678              	.LVL347:
 2679              	.L277:
 285:../Switch/core/yt/yt_port.c ****     CMM_PARAM_CHK(NULL == YT_DISPATCH(unit), CMM_ERR_NOT_INIT);
 2680              		.loc 1 285 5 is_stmt 1 discriminator 1 view .LVU764
 285:../Switch/core/yt/yt_port.c ****     CMM_PARAM_CHK(NULL == YT_DISPATCH(unit), CMM_ERR_NOT_INIT);
 2681              		.loc 1 285 5 discriminator 1 view .LVU765
 2682 0036 264B     		ldr	r3, .L286+12
 2683 0038 1B78     		ldrb	r3, [r3]	@ zero_extendqisi2
 2684 003a 012B     		cmp	r3, #1
 2685 003c 01D8     		bhi	.L281
 2686              	.LVL348:
 2687              	.L265:
 285:../Switch/core/yt/yt_port.c ****     CMM_PARAM_CHK(NULL == YT_DISPATCH(unit), CMM_ERR_NOT_INIT);
 2688              		.loc 1 285 5 discriminator 5 view .LVU766
 285:../Switch/core/yt/yt_port.c ****     CMM_PARAM_CHK(NULL == YT_DISPATCH(unit), CMM_ERR_NOT_INIT);
 2689              		.loc 1 285 5 discriminator 5 view .LVU767
 285:../Switch/core/yt/yt_port.c ****     CMM_PARAM_CHK(NULL == YT_DISPATCH(unit), CMM_ERR_NOT_INIT);
 2690              		.loc 1 285 5 discriminator 5 view .LVU768
 2691 003e 0520     		movs	r0, #5
 2692 0040 F8E7     		b	.L263
 2693              	.LVL349:
 2694              	.L281:
 285:../Switch/core/yt/yt_port.c ****     CMM_PARAM_CHK(NULL == YT_DISPATCH(unit), CMM_ERR_NOT_INIT);
 2695              		.loc 1 285 5 discriminator 3 view .LVU769
 2696              	.LBB53:
 285:../Switch/core/yt/yt_port.c ****     CMM_PARAM_CHK(NULL == YT_DISPATCH(unit), CMM_ERR_NOT_INIT);
 2697              		.loc 1 285 5 discriminator 3 view .LVU770
 2698 0042 244B     		ldr	r3, .L286+16
 2699 0044 5A69     		ldr	r2, [r3, #20]
 2700              	.LVL350:
 285:../Switch/core/yt/yt_port.c ****     CMM_PARAM_CHK(NULL == YT_DISPATCH(unit), CMM_ERR_NOT_INIT);
 2701              		.loc 1 285 5 is_stmt 0 discriminator 3 view .LVU771
 2702 0046 244B     		ldr	r3, .L286+20
 2703 0048 9968     		ldr	r1, [r3, #8]
 2704              	.LVL351:
 285:../Switch/core/yt/yt_port.c ****     CMM_PARAM_CHK(NULL == YT_DISPATCH(unit), CMM_ERR_NOT_INIT);
 2705              		.loc 1 285 5 discriminator 3 view .LVU772
 2706 004a 2448     		ldr	r0, .L286+24
 2707              	.LVL352:
 285:../Switch/core/yt/yt_port.c ****     CMM_PARAM_CHK(NULL == YT_DISPATCH(unit), CMM_ERR_NOT_INIT);
 2708              		.loc 1 285 5 discriminator 3 view .LVU773
 2709 004c FFF7FEFF 		bl	osal_printf
 2710              	.LVL353:
 2711 0050 F5E7     		b	.L265
 2712              	.LVL354:
 2713              	.L278:
 285:../Switch/core/yt/yt_port.c ****     CMM_PARAM_CHK(NULL == YT_DISPATCH(unit), CMM_ERR_NOT_INIT);
 2714              		.loc 1 285 5 discriminator 3 view .LVU774
 2715              	.LBE53:
 286:../Switch/core/yt/yt_port.c ****     CMM_PARAM_CHK((!(YT_DISPATCH(unit)->is_inited)), CMM_ERR_NOT_INIT);
 2716              		.loc 1 286 5 is_stmt 1 discriminator 1 view .LVU775
 286:../Switch/core/yt/yt_port.c ****     CMM_PARAM_CHK((!(YT_DISPATCH(unit)->is_inited)), CMM_ERR_NOT_INIT);
 2717              		.loc 1 286 5 discriminator 1 view .LVU776
 2718 0052 1F4B     		ldr	r3, .L286+12
 2719 0054 1B78     		ldrb	r3, [r3]	@ zero_extendqisi2
 2720 0056 012B     		cmp	r3, #1
 2721 0058 01D8     		bhi	.L282
 2722              	.LVL355:
 2723              	.L268:
 286:../Switch/core/yt/yt_port.c ****     CMM_PARAM_CHK((!(YT_DISPATCH(unit)->is_inited)), CMM_ERR_NOT_INIT);
 2724              		.loc 1 286 5 discriminator 5 view .LVU777
 286:../Switch/core/yt/yt_port.c ****     CMM_PARAM_CHK((!(YT_DISPATCH(unit)->is_inited)), CMM_ERR_NOT_INIT);
 2725              		.loc 1 286 5 discriminator 5 view .LVU778
 286:../Switch/core/yt/yt_port.c ****     CMM_PARAM_CHK((!(YT_DISPATCH(unit)->is_inited)), CMM_ERR_NOT_INIT);
 2726              		.loc 1 286 5 discriminator 5 view .LVU779
 2727 005a 0420     		movs	r0, #4
 2728 005c EAE7     		b	.L263
 2729              	.LVL356:
 2730              	.L282:
 286:../Switch/core/yt/yt_port.c ****     CMM_PARAM_CHK((!(YT_DISPATCH(unit)->is_inited)), CMM_ERR_NOT_INIT);
 2731              		.loc 1 286 5 discriminator 3 view .LVU780
 2732              	.LBB54:
 286:../Switch/core/yt/yt_port.c ****     CMM_PARAM_CHK((!(YT_DISPATCH(unit)->is_inited)), CMM_ERR_NOT_INIT);
 2733              		.loc 1 286 5 discriminator 3 view .LVU781
 2734 005e 1D4B     		ldr	r3, .L286+16
 2735 0060 1A69     		ldr	r2, [r3, #16]
 2736              	.LVL357:
 286:../Switch/core/yt/yt_port.c ****     CMM_PARAM_CHK((!(YT_DISPATCH(unit)->is_inited)), CMM_ERR_NOT_INIT);
 2737              		.loc 1 286 5 is_stmt 0 discriminator 3 view .LVU782
 2738 0062 1D4B     		ldr	r3, .L286+20
 2739 0064 9968     		ldr	r1, [r3, #8]
 2740              	.LVL358:
 286:../Switch/core/yt/yt_port.c ****     CMM_PARAM_CHK((!(YT_DISPATCH(unit)->is_inited)), CMM_ERR_NOT_INIT);
 2741              		.loc 1 286 5 discriminator 3 view .LVU783
 2742 0066 1D48     		ldr	r0, .L286+24
 2743              	.LVL359:
 286:../Switch/core/yt/yt_port.c ****     CMM_PARAM_CHK((!(YT_DISPATCH(unit)->is_inited)), CMM_ERR_NOT_INIT);
 2744              		.loc 1 286 5 discriminator 3 view .LVU784
 2745 0068 FFF7FEFF 		bl	osal_printf
 2746              	.LVL360:
 2747 006c F5E7     		b	.L268
 2748              	.LVL361:
 2749              	.L279:
 286:../Switch/core/yt/yt_port.c ****     CMM_PARAM_CHK((!(YT_DISPATCH(unit)->is_inited)), CMM_ERR_NOT_INIT);
 2750              		.loc 1 286 5 discriminator 3 view .LVU785
 2751              	.LBE54:
 287:../Switch/core/yt/yt_port.c ****     CMM_PARAM_CHK((!(CMM_PORT_VALID(unit, port))), CMM_ERR_PORT);
 2752              		.loc 1 287 5 is_stmt 1 discriminator 1 view .LVU786
 287:../Switch/core/yt/yt_port.c ****     CMM_PARAM_CHK((!(CMM_PORT_VALID(unit, port))), CMM_ERR_PORT);
 2753              		.loc 1 287 5 discriminator 1 view .LVU787
 2754 006e 184B     		ldr	r3, .L286+12
 2755 0070 1B78     		ldrb	r3, [r3]	@ zero_extendqisi2
 2756 0072 012B     		cmp	r3, #1
 2757 0074 01D8     		bhi	.L283
 2758              	.LVL362:
 2759              	.L270:
 287:../Switch/core/yt/yt_port.c ****     CMM_PARAM_CHK((!(CMM_PORT_VALID(unit, port))), CMM_ERR_PORT);
 2760              		.loc 1 287 5 discriminator 5 view .LVU788
 287:../Switch/core/yt/yt_port.c ****     CMM_PARAM_CHK((!(CMM_PORT_VALID(unit, port))), CMM_ERR_PORT);
 2761              		.loc 1 287 5 discriminator 5 view .LVU789
 287:../Switch/core/yt/yt_port.c ****     CMM_PARAM_CHK((!(CMM_PORT_VALID(unit, port))), CMM_ERR_PORT);
 2762              		.loc 1 287 5 discriminator 5 view .LVU790
 2763 0076 0420     		movs	r0, #4
 2764 0078 DCE7     		b	.L263
 2765              	.LVL363:
 2766              	.L283:
 287:../Switch/core/yt/yt_port.c ****     CMM_PARAM_CHK((!(CMM_PORT_VALID(unit, port))), CMM_ERR_PORT);
 2767              		.loc 1 287 5 discriminator 3 view .LVU791
 2768              	.LBB55:
 287:../Switch/core/yt/yt_port.c ****     CMM_PARAM_CHK((!(CMM_PORT_VALID(unit, port))), CMM_ERR_PORT);
 2769              		.loc 1 287 5 discriminator 3 view .LVU792
 2770 007a 164B     		ldr	r3, .L286+16
 2771 007c 1A69     		ldr	r2, [r3, #16]
 2772              	.LVL364:
 287:../Switch/core/yt/yt_port.c ****     CMM_PARAM_CHK((!(CMM_PORT_VALID(unit, port))), CMM_ERR_PORT);
 2773              		.loc 1 287 5 is_stmt 0 discriminator 3 view .LVU793
 2774 007e 164B     		ldr	r3, .L286+20
 2775 0080 9968     		ldr	r1, [r3, #8]
 2776              	.LVL365:
 287:../Switch/core/yt/yt_port.c ****     CMM_PARAM_CHK((!(CMM_PORT_VALID(unit, port))), CMM_ERR_PORT);
 2777              		.loc 1 287 5 discriminator 3 view .LVU794
 2778 0082 1648     		ldr	r0, .L286+24
 2779 0084 FFF7FEFF 		bl	osal_printf
 2780              	.LVL366:
 2781 0088 F5E7     		b	.L270
 2782              	.LVL367:
 2783              	.L271:
 287:../Switch/core/yt/yt_port.c ****     CMM_PARAM_CHK((!(CMM_PORT_VALID(unit, port))), CMM_ERR_PORT);
 2784              		.loc 1 287 5 discriminator 3 view .LVU795
 2785              	.LBE55:
 288:../Switch/core/yt/yt_port.c ****     CMM_PARAM_CHK((YT_ENABLE < enable || YT_DISABLE > enable), CMM_ERR_INPUT);
 2786              		.loc 1 288 5 is_stmt 1 discriminator 3 view .LVU796
 288:../Switch/core/yt/yt_port.c ****     CMM_PARAM_CHK((YT_ENABLE < enable || YT_DISABLE > enable), CMM_ERR_INPUT);
 2787              		.loc 1 288 5 discriminator 3 view .LVU797
 2788 008a 114B     		ldr	r3, .L286+12
 2789 008c 1B78     		ldrb	r3, [r3]	@ zero_extendqisi2
 2790 008e 012B     		cmp	r3, #1
 2791 0090 01D8     		bhi	.L284
 2792              	.LVL368:
 2793              	.L273:
 288:../Switch/core/yt/yt_port.c ****     CMM_PARAM_CHK((YT_ENABLE < enable || YT_DISABLE > enable), CMM_ERR_INPUT);
 2794              		.loc 1 288 5 discriminator 7 view .LVU798
 288:../Switch/core/yt/yt_port.c ****     CMM_PARAM_CHK((YT_ENABLE < enable || YT_DISABLE > enable), CMM_ERR_INPUT);
 2795              		.loc 1 288 5 discriminator 7 view .LVU799
 288:../Switch/core/yt/yt_port.c ****     CMM_PARAM_CHK((YT_ENABLE < enable || YT_DISABLE > enable), CMM_ERR_INPUT);
 2796              		.loc 1 288 5 discriminator 7 view .LVU800
 2797 0092 0E20     		movs	r0, #14
 2798 0094 CEE7     		b	.L263
 2799              	.LVL369:
 2800              	.L284:
 288:../Switch/core/yt/yt_port.c ****     CMM_PARAM_CHK((YT_ENABLE < enable || YT_DISABLE > enable), CMM_ERR_INPUT);
 2801              		.loc 1 288 5 discriminator 5 view .LVU801
 2802              	.LBB56:
 288:../Switch/core/yt/yt_port.c ****     CMM_PARAM_CHK((YT_ENABLE < enable || YT_DISABLE > enable), CMM_ERR_INPUT);
 2803              		.loc 1 288 5 discriminator 5 view .LVU802
 2804 0096 0F4B     		ldr	r3, .L286+16
 2805 0098 9A6B     		ldr	r2, [r3, #56]
 2806              	.LVL370:
 288:../Switch/core/yt/yt_port.c ****     CMM_PARAM_CHK((YT_ENABLE < enable || YT_DISABLE > enable), CMM_ERR_INPUT);
 2807              		.loc 1 288 5 is_stmt 0 discriminator 5 view .LVU803
 2808 009a 0F4B     		ldr	r3, .L286+20
 2809 009c 9968     		ldr	r1, [r3, #8]
 2810              	.LVL371:
 288:../Switch/core/yt/yt_port.c ****     CMM_PARAM_CHK((YT_ENABLE < enable || YT_DISABLE > enable), CMM_ERR_INPUT);
 2811              		.loc 1 288 5 discriminator 5 view .LVU804
 2812 009e 0F48     		ldr	r0, .L286+24
 2813 00a0 FFF7FEFF 		bl	osal_printf
 2814              	.LVL372:
 2815 00a4 F5E7     		b	.L273
 2816              	.LVL373:
 2817              	.L280:
 288:../Switch/core/yt/yt_port.c ****     CMM_PARAM_CHK((YT_ENABLE < enable || YT_DISABLE > enable), CMM_ERR_INPUT);
 2818              		.loc 1 288 5 discriminator 5 view .LVU805
 2819              	.LBE56:
 289:../Switch/core/yt/yt_port.c **** 
 2820              		.loc 1 289 5 is_stmt 1 discriminator 1 view .LVU806
 289:../Switch/core/yt/yt_port.c **** 
 2821              		.loc 1 289 5 discriminator 1 view .LVU807
 2822 00a6 0A4B     		ldr	r3, .L286+12
 2823 00a8 1B78     		ldrb	r3, [r3]	@ zero_extendqisi2
 2824 00aa 012B     		cmp	r3, #1
 2825 00ac 01D8     		bhi	.L285
 2826              	.LVL374:
 2827              	.L275:
 289:../Switch/core/yt/yt_port.c **** 
 2828              		.loc 1 289 5 discriminator 5 view .LVU808
 289:../Switch/core/yt/yt_port.c **** 
 2829              		.loc 1 289 5 discriminator 5 view .LVU809
 289:../Switch/core/yt/yt_port.c **** 
 2830              		.loc 1 289 5 discriminator 5 view .LVU810
 2831 00ae 0520     		movs	r0, #5
 2832 00b0 C0E7     		b	.L263
 2833              	.LVL375:
 2834              	.L285:
 289:../Switch/core/yt/yt_port.c **** 
 2835              		.loc 1 289 5 discriminator 3 view .LVU811
 2836              	.LBB57:
 289:../Switch/core/yt/yt_port.c **** 
 2837              		.loc 1 289 5 discriminator 3 view .LVU812
 2838 00b2 084B     		ldr	r3, .L286+16
 2839 00b4 5A69     		ldr	r2, [r3, #20]
 2840              	.LVL376:
 289:../Switch/core/yt/yt_port.c **** 
 2841              		.loc 1 289 5 is_stmt 0 discriminator 3 view .LVU813
 2842 00b6 084B     		ldr	r3, .L286+20
 2843 00b8 9968     		ldr	r1, [r3, #8]
 2844              	.LVL377:
 289:../Switch/core/yt/yt_port.c **** 
 2845              		.loc 1 289 5 discriminator 3 view .LVU814
 2846 00ba 0848     		ldr	r0, .L286+24
 2847 00bc FFF7FEFF 		bl	osal_printf
 2848              	.LVL378:
 2849 00c0 F5E7     		b	.L275
 2850              	.L287:
 2851 00c2 00BF     		.align	2
 2852              	.L286:
 2853 00c4 00000000 		.word	gpfal_dispatch
 2854 00c8 00000000 		.word	gcal_inited
 2855 00cc 00000000 		.word	gpSwitchUnit
 2856 00d0 00000000 		.word	yt_debug_level
 2857 00d4 00000000 		.word	_yt_errmsg
 2858 00d8 00000000 		.word	_yt_prompt_msg
 2859 00dc 00000000 		.word	.LC0
 2860              	.LBE57:
 2861              		.cfi_endproc
 2862              	.LFE14:
 2864              		.section	.text.yt_port_macAutoNeg_enable_get,"ax",%progbits
 2865              		.align	1
 2866              		.global	yt_port_macAutoNeg_enable_get
 2867              		.syntax unified
 2868              		.thumb
 2869              		.thumb_func
 2871              	yt_port_macAutoNeg_enable_get:
 2872              	.LVL379:
 2873              	.LFB15:
 293:../Switch/core/yt/yt_port.c **** 
 294:../Switch/core/yt/yt_port.c **** /**
 295:../Switch/core/yt/yt_port.c ****  * @internal      yt_port_macAutoNeg_enable_get
 296:../Switch/core/yt/yt_port.c ****  * @endinternal
 297:../Switch/core/yt/yt_port.c ****  *
 298:../Switch/core/yt/yt_port.c ****  * @brief         Description
 299:../Switch/core/yt/yt_port.c ****  * @note          APPLICABLE DEVICES  -Tiger
 300:../Switch/core/yt/yt_port.c ****  * @param[in]     unit                -unit id
 301:../Switch/core/yt/yt_port.c ****  * @param[in]     port                -port num
 302:../Switch/core/yt/yt_port.c ****  * @param[out]    pEnable             -enable or disable
 303:../Switch/core/yt/yt_port.c ****  * @retval        CMM_ERR_OK          -on success
 304:../Switch/core/yt/yt_port.c ****  * @retval        CMM_ERR_FAIL        -on fail
 305:../Switch/core/yt/yt_port.c ****  */
 306:../Switch/core/yt/yt_port.c **** yt_ret_t yt_port_macAutoNeg_enable_get(yt_unit_t unit, yt_port_t port, yt_enable_t *pEnable)
 307:../Switch/core/yt/yt_port.c **** {
 2874              		.loc 1 307 1 is_stmt 1 view -0
 2875              		.cfi_startproc
 2876              		@ args = 0, pretend = 0, frame = 0
 2877              		@ frame_needed = 0, uses_anonymous_args = 0
 2878              		.loc 1 307 1 is_stmt 0 view .LVU816
 2879 0000 08B5     		push	{r3, lr}
 2880              		.cfi_def_cfa_offset 8
 2881              		.cfi_offset 3, -8
 2882              		.cfi_offset 14, -4
 308:../Switch/core/yt/yt_port.c ****     CMM_PARAM_CHK((YT_UNIT_NUM <= unit), CMM_ERR_INPUT);
 2883              		.loc 1 308 5 is_stmt 1 view .LVU817
 2884              		.loc 1 308 5 view .LVU818
 2885 0002 C0B9     		cbnz	r0, .L302
 2886 0004 8446     		mov	ip, r0
 2887              		.loc 1 308 5 discriminator 2 view .LVU819
 309:../Switch/core/yt/yt_port.c ****     CMM_PARAM_CHK(NULL == YT_DISPATCH(unit), CMM_ERR_NOT_INIT);
 2888              		.loc 1 309 5 discriminator 2 view .LVU820
 2889              		.loc 1 309 5 discriminator 2 view .LVU821
 2890 0006 2F4B     		ldr	r3, .L311
 2891 0008 53F82030 		ldr	r3, [r3, r0, lsl #2]
 2892 000c 0BB3     		cbz	r3, .L303
 2893              		.loc 1 309 5 discriminator 2 view .LVU822
 310:../Switch/core/yt/yt_port.c ****     CMM_PARAM_CHK((!(YT_DISPATCH(unit)->is_inited)), CMM_ERR_NOT_INIT);
 2894              		.loc 1 310 5 discriminator 2 view .LVU823
 2895              		.loc 1 310 5 discriminator 2 view .LVU824
 2896 000e 1878     		ldrb	r0, [r3]	@ zero_extendqisi2
 2897              	.LVL380:
 2898              		.loc 1 310 5 is_stmt 0 discriminator 2 view .LVU825
 2899 0010 0028     		cmp	r0, #0
 2900 0012 2CD0     		beq	.L304
 2901              		.loc 1 310 5 is_stmt 1 discriminator 2 view .LVU826
 311:../Switch/core/yt/yt_port.c ****     CMM_PARAM_CHK((!(CMM_PORT_VALID(unit, port))), CMM_ERR_PORT);
 2902              		.loc 1 311 5 discriminator 2 view .LVU827
 2903              		.loc 1 311 5 discriminator 2 view .LVU828
 2904 0014 2C48     		ldr	r0, .L311+4
 2905 0016 0078     		ldrb	r0, [r0]	@ zero_extendqisi2
 2906 0018 0028     		cmp	r0, #0
 2907 001a 36D0     		beq	.L296
 2908 001c 2B48     		ldr	r0, .L311+8
 2909 001e 50F82C00 		ldr	r0, [r0, ip, lsl #2]
 2910 0022 007D     		ldrb	r0, [r0, #20]	@ zero_extendqisi2
 2911 0024 8842     		cmp	r0, r1
 2912 0026 30D9     		bls	.L296
 2913              		.loc 1 311 5 discriminator 4 view .LVU829
 312:../Switch/core/yt/yt_port.c ****     CMM_PARAM_CHK((NULL == pEnable), CMM_ERR_NULL_POINT);
 2914              		.loc 1 312 5 discriminator 4 view .LVU830
 2915              		.loc 1 312 5 discriminator 4 view .LVU831
 2916 0028 002A     		cmp	r2, #0
 2917 002a 3CD0     		beq	.L305
 2918              		.loc 1 312 5 discriminator 2 view .LVU832
 313:../Switch/core/yt/yt_port.c **** 
 314:../Switch/core/yt/yt_port.c ****     return YT_DISPATCH(unit)->port_macAutoNeg_enable_get(unit, port, pEnable);
 2919              		.loc 1 314 5 discriminator 2 view .LVU833
 2920              		.loc 1 314 29 is_stmt 0 discriminator 2 view .LVU834
 2921 002c D3F88035 		ldr	r3, [r3, #1408]
 2922              		.loc 1 314 12 discriminator 2 view .LVU835
 2923 0030 6046     		mov	r0, ip
 2924 0032 9847     		blx	r3
 2925              	.LVL381:
 2926              	.L288:
 315:../Switch/core/yt/yt_port.c **** }
 2927              		.loc 1 315 1 view .LVU836
 2928 0034 08BD     		pop	{r3, pc}
 2929              	.LVL382:
 2930              	.L302:
 308:../Switch/core/yt/yt_port.c ****     CMM_PARAM_CHK(NULL == YT_DISPATCH(unit), CMM_ERR_NOT_INIT);
 2931              		.loc 1 308 5 is_stmt 1 discriminator 1 view .LVU837
 308:../Switch/core/yt/yt_port.c ****     CMM_PARAM_CHK(NULL == YT_DISPATCH(unit), CMM_ERR_NOT_INIT);
 2932              		.loc 1 308 5 discriminator 1 view .LVU838
 2933 0036 264B     		ldr	r3, .L311+12
 2934 0038 1B78     		ldrb	r3, [r3]	@ zero_extendqisi2
 2935 003a 012B     		cmp	r3, #1
 2936 003c 01D8     		bhi	.L306
 2937              	.LVL383:
 2938              	.L290:
 308:../Switch/core/yt/yt_port.c ****     CMM_PARAM_CHK(NULL == YT_DISPATCH(unit), CMM_ERR_NOT_INIT);
 2939              		.loc 1 308 5 discriminator 5 view .LVU839
 308:../Switch/core/yt/yt_port.c ****     CMM_PARAM_CHK(NULL == YT_DISPATCH(unit), CMM_ERR_NOT_INIT);
 2940              		.loc 1 308 5 discriminator 5 view .LVU840
 308:../Switch/core/yt/yt_port.c ****     CMM_PARAM_CHK(NULL == YT_DISPATCH(unit), CMM_ERR_NOT_INIT);
 2941              		.loc 1 308 5 discriminator 5 view .LVU841
 2942 003e 0520     		movs	r0, #5
 2943 0040 F8E7     		b	.L288
 2944              	.LVL384:
 2945              	.L306:
 308:../Switch/core/yt/yt_port.c ****     CMM_PARAM_CHK(NULL == YT_DISPATCH(unit), CMM_ERR_NOT_INIT);
 2946              		.loc 1 308 5 discriminator 3 view .LVU842
 2947              	.LBB58:
 308:../Switch/core/yt/yt_port.c ****     CMM_PARAM_CHK(NULL == YT_DISPATCH(unit), CMM_ERR_NOT_INIT);
 2948              		.loc 1 308 5 discriminator 3 view .LVU843
 2949 0042 244B     		ldr	r3, .L311+16
 2950 0044 5A69     		ldr	r2, [r3, #20]
 2951              	.LVL385:
 308:../Switch/core/yt/yt_port.c ****     CMM_PARAM_CHK(NULL == YT_DISPATCH(unit), CMM_ERR_NOT_INIT);
 2952              		.loc 1 308 5 is_stmt 0 discriminator 3 view .LVU844
 2953 0046 244B     		ldr	r3, .L311+20
 2954 0048 9968     		ldr	r1, [r3, #8]
 2955              	.LVL386:
 308:../Switch/core/yt/yt_port.c ****     CMM_PARAM_CHK(NULL == YT_DISPATCH(unit), CMM_ERR_NOT_INIT);
 2956              		.loc 1 308 5 discriminator 3 view .LVU845
 2957 004a 2448     		ldr	r0, .L311+24
 2958              	.LVL387:
 308:../Switch/core/yt/yt_port.c ****     CMM_PARAM_CHK(NULL == YT_DISPATCH(unit), CMM_ERR_NOT_INIT);
 2959              		.loc 1 308 5 discriminator 3 view .LVU846
 2960 004c FFF7FEFF 		bl	osal_printf
 2961              	.LVL388:
 2962 0050 F5E7     		b	.L290
 2963              	.LVL389:
 2964              	.L303:
 308:../Switch/core/yt/yt_port.c ****     CMM_PARAM_CHK(NULL == YT_DISPATCH(unit), CMM_ERR_NOT_INIT);
 2965              		.loc 1 308 5 discriminator 3 view .LVU847
 2966              	.LBE58:
 309:../Switch/core/yt/yt_port.c ****     CMM_PARAM_CHK((!(YT_DISPATCH(unit)->is_inited)), CMM_ERR_NOT_INIT);
 2967              		.loc 1 309 5 is_stmt 1 discriminator 1 view .LVU848
 309:../Switch/core/yt/yt_port.c ****     CMM_PARAM_CHK((!(YT_DISPATCH(unit)->is_inited)), CMM_ERR_NOT_INIT);
 2968              		.loc 1 309 5 discriminator 1 view .LVU849
 2969 0052 1F4B     		ldr	r3, .L311+12
 2970 0054 1B78     		ldrb	r3, [r3]	@ zero_extendqisi2
 2971 0056 012B     		cmp	r3, #1
 2972 0058 01D8     		bhi	.L307
 2973              	.LVL390:
 2974              	.L293:
 309:../Switch/core/yt/yt_port.c ****     CMM_PARAM_CHK((!(YT_DISPATCH(unit)->is_inited)), CMM_ERR_NOT_INIT);
 2975              		.loc 1 309 5 discriminator 5 view .LVU850
 309:../Switch/core/yt/yt_port.c ****     CMM_PARAM_CHK((!(YT_DISPATCH(unit)->is_inited)), CMM_ERR_NOT_INIT);
 2976              		.loc 1 309 5 discriminator 5 view .LVU851
 309:../Switch/core/yt/yt_port.c ****     CMM_PARAM_CHK((!(YT_DISPATCH(unit)->is_inited)), CMM_ERR_NOT_INIT);
 2977              		.loc 1 309 5 discriminator 5 view .LVU852
 2978 005a 0420     		movs	r0, #4
 2979 005c EAE7     		b	.L288
 2980              	.LVL391:
 2981              	.L307:
 309:../Switch/core/yt/yt_port.c ****     CMM_PARAM_CHK((!(YT_DISPATCH(unit)->is_inited)), CMM_ERR_NOT_INIT);
 2982              		.loc 1 309 5 discriminator 3 view .LVU853
 2983              	.LBB59:
 309:../Switch/core/yt/yt_port.c ****     CMM_PARAM_CHK((!(YT_DISPATCH(unit)->is_inited)), CMM_ERR_NOT_INIT);
 2984              		.loc 1 309 5 discriminator 3 view .LVU854
 2985 005e 1D4B     		ldr	r3, .L311+16
 2986 0060 1A69     		ldr	r2, [r3, #16]
 2987              	.LVL392:
 309:../Switch/core/yt/yt_port.c ****     CMM_PARAM_CHK((!(YT_DISPATCH(unit)->is_inited)), CMM_ERR_NOT_INIT);
 2988              		.loc 1 309 5 is_stmt 0 discriminator 3 view .LVU855
 2989 0062 1D4B     		ldr	r3, .L311+20
 2990 0064 9968     		ldr	r1, [r3, #8]
 2991              	.LVL393:
 309:../Switch/core/yt/yt_port.c ****     CMM_PARAM_CHK((!(YT_DISPATCH(unit)->is_inited)), CMM_ERR_NOT_INIT);
 2992              		.loc 1 309 5 discriminator 3 view .LVU856
 2993 0066 1D48     		ldr	r0, .L311+24
 2994              	.LVL394:
 309:../Switch/core/yt/yt_port.c ****     CMM_PARAM_CHK((!(YT_DISPATCH(unit)->is_inited)), CMM_ERR_NOT_INIT);
 2995              		.loc 1 309 5 discriminator 3 view .LVU857
 2996 0068 FFF7FEFF 		bl	osal_printf
 2997              	.LVL395:
 2998 006c F5E7     		b	.L293
 2999              	.LVL396:
 3000              	.L304:
 309:../Switch/core/yt/yt_port.c ****     CMM_PARAM_CHK((!(YT_DISPATCH(unit)->is_inited)), CMM_ERR_NOT_INIT);
 3001              		.loc 1 309 5 discriminator 3 view .LVU858
 3002              	.LBE59:
 310:../Switch/core/yt/yt_port.c ****     CMM_PARAM_CHK((!(CMM_PORT_VALID(unit, port))), CMM_ERR_PORT);
 3003              		.loc 1 310 5 is_stmt 1 discriminator 1 view .LVU859
 310:../Switch/core/yt/yt_port.c ****     CMM_PARAM_CHK((!(CMM_PORT_VALID(unit, port))), CMM_ERR_PORT);
 3004              		.loc 1 310 5 discriminator 1 view .LVU860
 3005 006e 184B     		ldr	r3, .L311+12
 3006 0070 1B78     		ldrb	r3, [r3]	@ zero_extendqisi2
 3007 0072 012B     		cmp	r3, #1
 3008 0074 01D8     		bhi	.L308
 3009              	.LVL397:
 3010              	.L295:
 310:../Switch/core/yt/yt_port.c ****     CMM_PARAM_CHK((!(CMM_PORT_VALID(unit, port))), CMM_ERR_PORT);
 3011              		.loc 1 310 5 discriminator 5 view .LVU861
 310:../Switch/core/yt/yt_port.c ****     CMM_PARAM_CHK((!(CMM_PORT_VALID(unit, port))), CMM_ERR_PORT);
 3012              		.loc 1 310 5 discriminator 5 view .LVU862
 310:../Switch/core/yt/yt_port.c ****     CMM_PARAM_CHK((!(CMM_PORT_VALID(unit, port))), CMM_ERR_PORT);
 3013              		.loc 1 310 5 discriminator 5 view .LVU863
 3014 0076 0420     		movs	r0, #4
 3015 0078 DCE7     		b	.L288
 3016              	.LVL398:
 3017              	.L308:
 310:../Switch/core/yt/yt_port.c ****     CMM_PARAM_CHK((!(CMM_PORT_VALID(unit, port))), CMM_ERR_PORT);
 3018              		.loc 1 310 5 discriminator 3 view .LVU864
 3019              	.LBB60:
 310:../Switch/core/yt/yt_port.c ****     CMM_PARAM_CHK((!(CMM_PORT_VALID(unit, port))), CMM_ERR_PORT);
 3020              		.loc 1 310 5 discriminator 3 view .LVU865
 3021 007a 164B     		ldr	r3, .L311+16
 3022 007c 1A69     		ldr	r2, [r3, #16]
 3023              	.LVL399:
 310:../Switch/core/yt/yt_port.c ****     CMM_PARAM_CHK((!(CMM_PORT_VALID(unit, port))), CMM_ERR_PORT);
 3024              		.loc 1 310 5 is_stmt 0 discriminator 3 view .LVU866
 3025 007e 164B     		ldr	r3, .L311+20
 3026 0080 9968     		ldr	r1, [r3, #8]
 3027              	.LVL400:
 310:../Switch/core/yt/yt_port.c ****     CMM_PARAM_CHK((!(CMM_PORT_VALID(unit, port))), CMM_ERR_PORT);
 3028              		.loc 1 310 5 discriminator 3 view .LVU867
 3029 0082 1648     		ldr	r0, .L311+24
 3030 0084 FFF7FEFF 		bl	osal_printf
 3031              	.LVL401:
 3032 0088 F5E7     		b	.L295
 3033              	.LVL402:
 3034              	.L296:
 310:../Switch/core/yt/yt_port.c ****     CMM_PARAM_CHK((!(CMM_PORT_VALID(unit, port))), CMM_ERR_PORT);
 3035              		.loc 1 310 5 discriminator 3 view .LVU868
 3036              	.LBE60:
 311:../Switch/core/yt/yt_port.c ****     CMM_PARAM_CHK((NULL == pEnable), CMM_ERR_NULL_POINT);
 3037              		.loc 1 311 5 is_stmt 1 discriminator 3 view .LVU869
 311:../Switch/core/yt/yt_port.c ****     CMM_PARAM_CHK((NULL == pEnable), CMM_ERR_NULL_POINT);
 3038              		.loc 1 311 5 discriminator 3 view .LVU870
 3039 008a 114B     		ldr	r3, .L311+12
 3040 008c 1B78     		ldrb	r3, [r3]	@ zero_extendqisi2
 3041 008e 012B     		cmp	r3, #1
 3042 0090 01D8     		bhi	.L309
 3043              	.LVL403:
 3044              	.L298:
 311:../Switch/core/yt/yt_port.c ****     CMM_PARAM_CHK((NULL == pEnable), CMM_ERR_NULL_POINT);
 3045              		.loc 1 311 5 discriminator 7 view .LVU871
 311:../Switch/core/yt/yt_port.c ****     CMM_PARAM_CHK((NULL == pEnable), CMM_ERR_NULL_POINT);
 3046              		.loc 1 311 5 discriminator 7 view .LVU872
 311:../Switch/core/yt/yt_port.c ****     CMM_PARAM_CHK((NULL == pEnable), CMM_ERR_NULL_POINT);
 3047              		.loc 1 311 5 discriminator 7 view .LVU873
 3048 0092 0E20     		movs	r0, #14
 3049 0094 CEE7     		b	.L288
 3050              	.LVL404:
 3051              	.L309:
 311:../Switch/core/yt/yt_port.c ****     CMM_PARAM_CHK((NULL == pEnable), CMM_ERR_NULL_POINT);
 3052              		.loc 1 311 5 discriminator 5 view .LVU874
 3053              	.LBB61:
 311:../Switch/core/yt/yt_port.c ****     CMM_PARAM_CHK((NULL == pEnable), CMM_ERR_NULL_POINT);
 3054              		.loc 1 311 5 discriminator 5 view .LVU875
 3055 0096 0F4B     		ldr	r3, .L311+16
 3056 0098 9A6B     		ldr	r2, [r3, #56]
 3057              	.LVL405:
 311:../Switch/core/yt/yt_port.c ****     CMM_PARAM_CHK((NULL == pEnable), CMM_ERR_NULL_POINT);
 3058              		.loc 1 311 5 is_stmt 0 discriminator 5 view .LVU876
 3059 009a 0F4B     		ldr	r3, .L311+20
 3060 009c 9968     		ldr	r1, [r3, #8]
 3061              	.LVL406:
 311:../Switch/core/yt/yt_port.c ****     CMM_PARAM_CHK((NULL == pEnable), CMM_ERR_NULL_POINT);
 3062              		.loc 1 311 5 discriminator 5 view .LVU877
 3063 009e 0F48     		ldr	r0, .L311+24
 3064 00a0 FFF7FEFF 		bl	osal_printf
 3065              	.LVL407:
 3066 00a4 F5E7     		b	.L298
 3067              	.LVL408:
 3068              	.L305:
 311:../Switch/core/yt/yt_port.c ****     CMM_PARAM_CHK((NULL == pEnable), CMM_ERR_NULL_POINT);
 3069              		.loc 1 311 5 discriminator 5 view .LVU878
 3070              	.LBE61:
 312:../Switch/core/yt/yt_port.c **** 
 3071              		.loc 1 312 5 is_stmt 1 discriminator 1 view .LVU879
 312:../Switch/core/yt/yt_port.c **** 
 3072              		.loc 1 312 5 discriminator 1 view .LVU880
 3073 00a6 0A4B     		ldr	r3, .L311+12
 3074 00a8 1B78     		ldrb	r3, [r3]	@ zero_extendqisi2
 3075 00aa 012B     		cmp	r3, #1
 3076 00ac 01D8     		bhi	.L310
 3077              	.LVL409:
 3078              	.L300:
 312:../Switch/core/yt/yt_port.c **** 
 3079              		.loc 1 312 5 discriminator 5 view .LVU881
 312:../Switch/core/yt/yt_port.c **** 
 3080              		.loc 1 312 5 discriminator 5 view .LVU882
 312:../Switch/core/yt/yt_port.c **** 
 3081              		.loc 1 312 5 discriminator 5 view .LVU883
 3082 00ae 0220     		movs	r0, #2
 3083 00b0 C0E7     		b	.L288
 3084              	.LVL410:
 3085              	.L310:
 312:../Switch/core/yt/yt_port.c **** 
 3086              		.loc 1 312 5 discriminator 3 view .LVU884
 3087              	.LBB62:
 312:../Switch/core/yt/yt_port.c **** 
 3088              		.loc 1 312 5 discriminator 3 view .LVU885
 3089 00b2 084B     		ldr	r3, .L311+16
 3090 00b4 9A68     		ldr	r2, [r3, #8]
 3091              	.LVL411:
 312:../Switch/core/yt/yt_port.c **** 
 3092              		.loc 1 312 5 is_stmt 0 discriminator 3 view .LVU886
 3093 00b6 084B     		ldr	r3, .L311+20
 3094 00b8 9968     		ldr	r1, [r3, #8]
 3095              	.LVL412:
 312:../Switch/core/yt/yt_port.c **** 
 3096              		.loc 1 312 5 discriminator 3 view .LVU887
 3097 00ba 0848     		ldr	r0, .L311+24
 3098 00bc FFF7FEFF 		bl	osal_printf
 3099              	.LVL413:
 3100 00c0 F5E7     		b	.L300
 3101              	.L312:
 3102 00c2 00BF     		.align	2
 3103              	.L311:
 3104 00c4 00000000 		.word	gpfal_dispatch
 3105 00c8 00000000 		.word	gcal_inited
 3106 00cc 00000000 		.word	gpSwitchUnit
 3107 00d0 00000000 		.word	yt_debug_level
 3108 00d4 00000000 		.word	_yt_errmsg
 3109 00d8 00000000 		.word	_yt_prompt_msg
 3110 00dc 00000000 		.word	.LC0
 3111              	.LBE62:
 3112              		.cfi_endproc
 3113              	.LFE15:
 3115              		.section	.text.yt_port_mac_force_set,"ax",%progbits
 3116              		.align	1
 3117              		.global	yt_port_mac_force_set
 3118              		.syntax unified
 3119              		.thumb
 3120              		.thumb_func
 3122              	yt_port_mac_force_set:
 3123              	.LVL414:
 3124              	.LFB16:
 316:../Switch/core/yt/yt_port.c **** 
 317:../Switch/core/yt/yt_port.c **** /**
 318:../Switch/core/yt/yt_port.c ****  * @internal      yt_port_mac_force_set
 319:../Switch/core/yt/yt_port.c ****  * @endinternal
 320:../Switch/core/yt/yt_port.c ****  *
 321:../Switch/core/yt/yt_port.c ****  * @brief         Description
 322:../Switch/core/yt/yt_port.c ****  * @note          APPLICABLE DEVICES  -Tiger
 323:../Switch/core/yt/yt_port.c ****  * @param[in]     unit                -unit id
 324:../Switch/core/yt/yt_port.c ****  * @param[in]     port                -port num
 325:../Switch/core/yt/yt_port.c ****  * @param[in]     port_ctrl           -x
 326:../Switch/core/yt/yt_port.c ****  * @retval        CMM_ERR_OK          -on success
 327:../Switch/core/yt/yt_port.c ****  * @retval        CMM_ERR_FAIL        -on fail
 328:../Switch/core/yt/yt_port.c ****  */
 329:../Switch/core/yt/yt_port.c **** yt_ret_t yt_port_mac_force_set(yt_unit_t unit, yt_port_t port, yt_port_force_ctrl_t port_ctrl)
 330:../Switch/core/yt/yt_port.c **** {
 3125              		.loc 1 330 1 is_stmt 1 view -0
 3126              		.cfi_startproc
 3127              		@ args = 0, pretend = 0, frame = 8
 3128              		@ frame_needed = 0, uses_anonymous_args = 0
 3129              		.loc 1 330 1 is_stmt 0 view .LVU889
 3130 0000 00B5     		push	{lr}
 3131              		.cfi_def_cfa_offset 4
 3132              		.cfi_offset 14, -4
 3133 0002 83B0     		sub	sp, sp, #12
 3134              		.cfi_def_cfa_offset 16
 3135 0004 0192     		str	r2, [sp, #4]
 331:../Switch/core/yt/yt_port.c ****     CMM_PARAM_CHK((YT_UNIT_NUM <= unit), CMM_ERR_INPUT);
 3136              		.loc 1 331 5 is_stmt 1 view .LVU890
 3137              		.loc 1 331 5 view .LVU891
 3138 0006 B8B9     		cbnz	r0, .L325
 3139              		.loc 1 331 5 discriminator 2 view .LVU892
 332:../Switch/core/yt/yt_port.c ****     CMM_PARAM_CHK(NULL == YT_DISPATCH(unit), CMM_ERR_NOT_INIT);
 3140              		.loc 1 332 5 discriminator 2 view .LVU893
 3141              		.loc 1 332 5 discriminator 2 view .LVU894
 3142 0008 274B     		ldr	r3, .L332
 3143 000a 53F82030 		ldr	r3, [r3, r0, lsl #2]
 3144 000e 0BB3     		cbz	r3, .L326
 3145              		.loc 1 332 5 discriminator 2 view .LVU895
 333:../Switch/core/yt/yt_port.c ****     CMM_PARAM_CHK((!(YT_DISPATCH(unit)->is_inited)), CMM_ERR_NOT_INIT);
 3146              		.loc 1 333 5 discriminator 2 view .LVU896
 3147              		.loc 1 333 5 discriminator 2 view .LVU897
 3148 0010 1A78     		ldrb	r2, [r3]	@ zero_extendqisi2
 3149 0012 002A     		cmp	r2, #0
 3150 0014 2CD0     		beq	.L327
 3151              		.loc 1 333 5 discriminator 2 view .LVU898
 334:../Switch/core/yt/yt_port.c ****     CMM_PARAM_CHK((!(CMM_PORT_VALID(unit, port))), CMM_ERR_PORT);
 3152              		.loc 1 334 5 discriminator 2 view .LVU899
 3153              		.loc 1 334 5 discriminator 2 view .LVU900
 3154 0016 254A     		ldr	r2, .L332+4
 3155 0018 1278     		ldrb	r2, [r2]	@ zero_extendqisi2
 3156 001a 002A     		cmp	r2, #0
 3157 001c 36D0     		beq	.L321
 3158 001e 244A     		ldr	r2, .L332+8
 3159 0020 52F82020 		ldr	r2, [r2, r0, lsl #2]
 3160 0024 127D     		ldrb	r2, [r2, #20]	@ zero_extendqisi2
 3161 0026 8A42     		cmp	r2, r1
 3162 0028 30D9     		bls	.L321
 3163              		.loc 1 334 5 discriminator 4 view .LVU901
 335:../Switch/core/yt/yt_port.c **** 
 336:../Switch/core/yt/yt_port.c ****     return YT_DISPATCH(unit)->port_mac_force_set(unit, port, port_ctrl);
 3164              		.loc 1 336 5 discriminator 4 view .LVU902
 3165              		.loc 1 336 29 is_stmt 0 discriminator 4 view .LVU903
 3166 002a D3F88435 		ldr	r3, [r3, #1412]
 3167              		.loc 1 336 12 discriminator 4 view .LVU904
 3168 002e 019A     		ldr	r2, [sp, #4]
 3169 0030 9847     		blx	r3
 3170              	.LVL415:
 3171              	.L313:
 337:../Switch/core/yt/yt_port.c **** }
 3172              		.loc 1 337 1 view .LVU905
 3173 0032 03B0     		add	sp, sp, #12
 3174              		.cfi_remember_state
 3175              		.cfi_def_cfa_offset 4
 3176              		@ sp needed
 3177 0034 5DF804FB 		ldr	pc, [sp], #4
 3178              	.LVL416:
 3179              	.L325:
 3180              		.cfi_restore_state
 331:../Switch/core/yt/yt_port.c ****     CMM_PARAM_CHK(NULL == YT_DISPATCH(unit), CMM_ERR_NOT_INIT);
 3181              		.loc 1 331 5 is_stmt 1 discriminator 1 view .LVU906
 331:../Switch/core/yt/yt_port.c ****     CMM_PARAM_CHK(NULL == YT_DISPATCH(unit), CMM_ERR_NOT_INIT);
 3182              		.loc 1 331 5 discriminator 1 view .LVU907
 3183 0038 1E4B     		ldr	r3, .L332+12
 3184 003a 1B78     		ldrb	r3, [r3]	@ zero_extendqisi2
 3185 003c 012B     		cmp	r3, #1
 3186 003e 01D8     		bhi	.L328
 3187              	.LVL417:
 3188              	.L315:
 331:../Switch/core/yt/yt_port.c ****     CMM_PARAM_CHK(NULL == YT_DISPATCH(unit), CMM_ERR_NOT_INIT);
 3189              		.loc 1 331 5 discriminator 5 view .LVU908
 331:../Switch/core/yt/yt_port.c ****     CMM_PARAM_CHK(NULL == YT_DISPATCH(unit), CMM_ERR_NOT_INIT);
 3190              		.loc 1 331 5 discriminator 5 view .LVU909
 331:../Switch/core/yt/yt_port.c ****     CMM_PARAM_CHK(NULL == YT_DISPATCH(unit), CMM_ERR_NOT_INIT);
 3191              		.loc 1 331 5 discriminator 5 view .LVU910
 3192 0040 0520     		movs	r0, #5
 3193 0042 F6E7     		b	.L313
 3194              	.LVL418:
 3195              	.L328:
 331:../Switch/core/yt/yt_port.c ****     CMM_PARAM_CHK(NULL == YT_DISPATCH(unit), CMM_ERR_NOT_INIT);
 3196              		.loc 1 331 5 discriminator 3 view .LVU911
 3197              	.LBB63:
 331:../Switch/core/yt/yt_port.c ****     CMM_PARAM_CHK(NULL == YT_DISPATCH(unit), CMM_ERR_NOT_INIT);
 3198              		.loc 1 331 5 discriminator 3 view .LVU912
 3199 0044 1C4B     		ldr	r3, .L332+16
 3200 0046 5A69     		ldr	r2, [r3, #20]
 3201 0048 1C4B     		ldr	r3, .L332+20
 3202 004a 9968     		ldr	r1, [r3, #8]
 3203              	.LVL419:
 331:../Switch/core/yt/yt_port.c ****     CMM_PARAM_CHK(NULL == YT_DISPATCH(unit), CMM_ERR_NOT_INIT);
 3204              		.loc 1 331 5 is_stmt 0 discriminator 3 view .LVU913
 3205 004c 1C48     		ldr	r0, .L332+24
 3206              	.LVL420:
 331:../Switch/core/yt/yt_port.c ****     CMM_PARAM_CHK(NULL == YT_DISPATCH(unit), CMM_ERR_NOT_INIT);
 3207              		.loc 1 331 5 discriminator 3 view .LVU914
 3208 004e FFF7FEFF 		bl	osal_printf
 3209              	.LVL421:
 3210 0052 F5E7     		b	.L315
 3211              	.LVL422:
 3212              	.L326:
 331:../Switch/core/yt/yt_port.c ****     CMM_PARAM_CHK(NULL == YT_DISPATCH(unit), CMM_ERR_NOT_INIT);
 3213              		.loc 1 331 5 discriminator 3 view .LVU915
 3214              	.LBE63:
 332:../Switch/core/yt/yt_port.c ****     CMM_PARAM_CHK((!(YT_DISPATCH(unit)->is_inited)), CMM_ERR_NOT_INIT);
 3215              		.loc 1 332 5 is_stmt 1 discriminator 1 view .LVU916
 332:../Switch/core/yt/yt_port.c ****     CMM_PARAM_CHK((!(YT_DISPATCH(unit)->is_inited)), CMM_ERR_NOT_INIT);
 3216              		.loc 1 332 5 discriminator 1 view .LVU917
 3217 0054 174B     		ldr	r3, .L332+12
 3218 0056 1B78     		ldrb	r3, [r3]	@ zero_extendqisi2
 3219 0058 012B     		cmp	r3, #1
 3220 005a 01D8     		bhi	.L329
 3221              	.LVL423:
 3222              	.L318:
 332:../Switch/core/yt/yt_port.c ****     CMM_PARAM_CHK((!(YT_DISPATCH(unit)->is_inited)), CMM_ERR_NOT_INIT);
 3223              		.loc 1 332 5 discriminator 5 view .LVU918
 332:../Switch/core/yt/yt_port.c ****     CMM_PARAM_CHK((!(YT_DISPATCH(unit)->is_inited)), CMM_ERR_NOT_INIT);
 3224              		.loc 1 332 5 discriminator 5 view .LVU919
 332:../Switch/core/yt/yt_port.c ****     CMM_PARAM_CHK((!(YT_DISPATCH(unit)->is_inited)), CMM_ERR_NOT_INIT);
 3225              		.loc 1 332 5 discriminator 5 view .LVU920
 3226 005c 0420     		movs	r0, #4
 3227 005e E8E7     		b	.L313
 3228              	.LVL424:
 3229              	.L329:
 332:../Switch/core/yt/yt_port.c ****     CMM_PARAM_CHK((!(YT_DISPATCH(unit)->is_inited)), CMM_ERR_NOT_INIT);
 3230              		.loc 1 332 5 discriminator 3 view .LVU921
 3231              	.LBB64:
 332:../Switch/core/yt/yt_port.c ****     CMM_PARAM_CHK((!(YT_DISPATCH(unit)->is_inited)), CMM_ERR_NOT_INIT);
 3232              		.loc 1 332 5 discriminator 3 view .LVU922
 3233 0060 154B     		ldr	r3, .L332+16
 3234 0062 1A69     		ldr	r2, [r3, #16]
 3235 0064 154B     		ldr	r3, .L332+20
 3236 0066 9968     		ldr	r1, [r3, #8]
 3237              	.LVL425:
 332:../Switch/core/yt/yt_port.c ****     CMM_PARAM_CHK((!(YT_DISPATCH(unit)->is_inited)), CMM_ERR_NOT_INIT);
 3238              		.loc 1 332 5 is_stmt 0 discriminator 3 view .LVU923
 3239 0068 1548     		ldr	r0, .L332+24
 3240              	.LVL426:
 332:../Switch/core/yt/yt_port.c ****     CMM_PARAM_CHK((!(YT_DISPATCH(unit)->is_inited)), CMM_ERR_NOT_INIT);
 3241              		.loc 1 332 5 discriminator 3 view .LVU924
 3242 006a FFF7FEFF 		bl	osal_printf
 3243              	.LVL427:
 3244 006e F5E7     		b	.L318
 3245              	.LVL428:
 3246              	.L327:
 332:../Switch/core/yt/yt_port.c ****     CMM_PARAM_CHK((!(YT_DISPATCH(unit)->is_inited)), CMM_ERR_NOT_INIT);
 3247              		.loc 1 332 5 discriminator 3 view .LVU925
 3248              	.LBE64:
 333:../Switch/core/yt/yt_port.c ****     CMM_PARAM_CHK((!(CMM_PORT_VALID(unit, port))), CMM_ERR_PORT);
 3249              		.loc 1 333 5 is_stmt 1 discriminator 1 view .LVU926
 333:../Switch/core/yt/yt_port.c ****     CMM_PARAM_CHK((!(CMM_PORT_VALID(unit, port))), CMM_ERR_PORT);
 3250              		.loc 1 333 5 discriminator 1 view .LVU927
 3251 0070 104B     		ldr	r3, .L332+12
 3252 0072 1B78     		ldrb	r3, [r3]	@ zero_extendqisi2
 3253 0074 012B     		cmp	r3, #1
 3254 0076 01D8     		bhi	.L330
 3255              	.LVL429:
 3256              	.L320:
 333:../Switch/core/yt/yt_port.c ****     CMM_PARAM_CHK((!(CMM_PORT_VALID(unit, port))), CMM_ERR_PORT);
 3257              		.loc 1 333 5 discriminator 5 view .LVU928
 333:../Switch/core/yt/yt_port.c ****     CMM_PARAM_CHK((!(CMM_PORT_VALID(unit, port))), CMM_ERR_PORT);
 3258              		.loc 1 333 5 discriminator 5 view .LVU929
 333:../Switch/core/yt/yt_port.c ****     CMM_PARAM_CHK((!(CMM_PORT_VALID(unit, port))), CMM_ERR_PORT);
 3259              		.loc 1 333 5 discriminator 5 view .LVU930
 3260 0078 0420     		movs	r0, #4
 3261 007a DAE7     		b	.L313
 3262              	.LVL430:
 3263              	.L330:
 333:../Switch/core/yt/yt_port.c ****     CMM_PARAM_CHK((!(CMM_PORT_VALID(unit, port))), CMM_ERR_PORT);
 3264              		.loc 1 333 5 discriminator 3 view .LVU931
 3265              	.LBB65:
 333:../Switch/core/yt/yt_port.c ****     CMM_PARAM_CHK((!(CMM_PORT_VALID(unit, port))), CMM_ERR_PORT);
 3266              		.loc 1 333 5 discriminator 3 view .LVU932
 3267 007c 0E4B     		ldr	r3, .L332+16
 3268 007e 1A69     		ldr	r2, [r3, #16]
 3269 0080 0E4B     		ldr	r3, .L332+20
 3270 0082 9968     		ldr	r1, [r3, #8]
 3271              	.LVL431:
 333:../Switch/core/yt/yt_port.c ****     CMM_PARAM_CHK((!(CMM_PORT_VALID(unit, port))), CMM_ERR_PORT);
 3272              		.loc 1 333 5 is_stmt 0 discriminator 3 view .LVU933
 3273 0084 0E48     		ldr	r0, .L332+24
 3274              	.LVL432:
 333:../Switch/core/yt/yt_port.c ****     CMM_PARAM_CHK((!(CMM_PORT_VALID(unit, port))), CMM_ERR_PORT);
 3275              		.loc 1 333 5 discriminator 3 view .LVU934
 3276 0086 FFF7FEFF 		bl	osal_printf
 3277              	.LVL433:
 3278 008a F5E7     		b	.L320
 3279              	.LVL434:
 3280              	.L321:
 333:../Switch/core/yt/yt_port.c ****     CMM_PARAM_CHK((!(CMM_PORT_VALID(unit, port))), CMM_ERR_PORT);
 3281              		.loc 1 333 5 discriminator 3 view .LVU935
 3282              	.LBE65:
 334:../Switch/core/yt/yt_port.c **** 
 3283              		.loc 1 334 5 is_stmt 1 discriminator 3 view .LVU936
 334:../Switch/core/yt/yt_port.c **** 
 3284              		.loc 1 334 5 discriminator 3 view .LVU937
 3285 008c 094B     		ldr	r3, .L332+12
 3286 008e 1B78     		ldrb	r3, [r3]	@ zero_extendqisi2
 3287 0090 012B     		cmp	r3, #1
 3288 0092 01D8     		bhi	.L331
 3289              	.LVL435:
 3290              	.L323:
 334:../Switch/core/yt/yt_port.c **** 
 3291              		.loc 1 334 5 discriminator 7 view .LVU938
 334:../Switch/core/yt/yt_port.c **** 
 3292              		.loc 1 334 5 discriminator 7 view .LVU939
 334:../Switch/core/yt/yt_port.c **** 
 3293              		.loc 1 334 5 discriminator 7 view .LVU940
 3294 0094 0E20     		movs	r0, #14
 3295 0096 CCE7     		b	.L313
 3296              	.LVL436:
 3297              	.L331:
 334:../Switch/core/yt/yt_port.c **** 
 3298              		.loc 1 334 5 discriminator 5 view .LVU941
 3299              	.LBB66:
 334:../Switch/core/yt/yt_port.c **** 
 3300              		.loc 1 334 5 discriminator 5 view .LVU942
 3301 0098 074B     		ldr	r3, .L332+16
 3302 009a 9A6B     		ldr	r2, [r3, #56]
 3303 009c 074B     		ldr	r3, .L332+20
 3304 009e 9968     		ldr	r1, [r3, #8]
 3305              	.LVL437:
 334:../Switch/core/yt/yt_port.c **** 
 3306              		.loc 1 334 5 is_stmt 0 discriminator 5 view .LVU943
 3307 00a0 0748     		ldr	r0, .L332+24
 3308              	.LVL438:
 334:../Switch/core/yt/yt_port.c **** 
 3309              		.loc 1 334 5 discriminator 5 view .LVU944
 3310 00a2 FFF7FEFF 		bl	osal_printf
 3311              	.LVL439:
 3312 00a6 F5E7     		b	.L323
 3313              	.L333:
 3314              		.align	2
 3315              	.L332:
 3316 00a8 00000000 		.word	gpfal_dispatch
 3317 00ac 00000000 		.word	gcal_inited
 3318 00b0 00000000 		.word	gpSwitchUnit
 3319 00b4 00000000 		.word	yt_debug_level
 3320 00b8 00000000 		.word	_yt_errmsg
 3321 00bc 00000000 		.word	_yt_prompt_msg
 3322 00c0 00000000 		.word	.LC0
 3323              	.LBE66:
 3324              		.cfi_endproc
 3325              	.LFE16:
 3327              		.section	.text.yt_port_mac_force_get,"ax",%progbits
 3328              		.align	1
 3329              		.global	yt_port_mac_force_get
 3330              		.syntax unified
 3331              		.thumb
 3332              		.thumb_func
 3334              	yt_port_mac_force_get:
 3335              	.LVL440:
 3336              	.LFB17:
 338:../Switch/core/yt/yt_port.c **** 
 339:../Switch/core/yt/yt_port.c **** /**
 340:../Switch/core/yt/yt_port.c ****  * @internal      yt_port_mac_force_get
 341:../Switch/core/yt/yt_port.c ****  * @endinternal
 342:../Switch/core/yt/yt_port.c ****  *
 343:../Switch/core/yt/yt_port.c ****  * @brief         Description
 344:../Switch/core/yt/yt_port.c ****  * @note          APPLICABLE DEVICES  -Tiger
 345:../Switch/core/yt/yt_port.c ****  * @param[in]     unit                -unit id
 346:../Switch/core/yt/yt_port.c ****  * @param[in]     port                -port num
 347:../Switch/core/yt/yt_port.c ****  * @param[out]    pPort_ctrl          -x
 348:../Switch/core/yt/yt_port.c ****  * @retval        CMM_ERR_OK          -on success
 349:../Switch/core/yt/yt_port.c ****  * @retval        CMM_ERR_FAIL        -on fail
 350:../Switch/core/yt/yt_port.c ****  */
 351:../Switch/core/yt/yt_port.c **** yt_ret_t yt_port_mac_force_get(yt_unit_t unit, yt_port_t port, yt_port_force_ctrl_t *pPort_ctrl)
 352:../Switch/core/yt/yt_port.c **** {
 3337              		.loc 1 352 1 is_stmt 1 view -0
 3338              		.cfi_startproc
 3339              		@ args = 0, pretend = 0, frame = 0
 3340              		@ frame_needed = 0, uses_anonymous_args = 0
 3341              		.loc 1 352 1 is_stmt 0 view .LVU946
 3342 0000 08B5     		push	{r3, lr}
 3343              		.cfi_def_cfa_offset 8
 3344              		.cfi_offset 3, -8
 3345              		.cfi_offset 14, -4
 353:../Switch/core/yt/yt_port.c ****     CMM_PARAM_CHK((YT_UNIT_NUM <= unit), CMM_ERR_INPUT);
 3346              		.loc 1 353 5 is_stmt 1 view .LVU947
 3347              		.loc 1 353 5 view .LVU948
 3348 0002 C0B9     		cbnz	r0, .L348
 3349 0004 8446     		mov	ip, r0
 3350              		.loc 1 353 5 discriminator 2 view .LVU949
 354:../Switch/core/yt/yt_port.c ****     CMM_PARAM_CHK(NULL == YT_DISPATCH(unit), CMM_ERR_NOT_INIT);
 3351              		.loc 1 354 5 discriminator 2 view .LVU950
 3352              		.loc 1 354 5 discriminator 2 view .LVU951
 3353 0006 2F4B     		ldr	r3, .L357
 3354 0008 53F82030 		ldr	r3, [r3, r0, lsl #2]
 3355 000c 0BB3     		cbz	r3, .L349
 3356              		.loc 1 354 5 discriminator 2 view .LVU952
 355:../Switch/core/yt/yt_port.c ****     CMM_PARAM_CHK((!(YT_DISPATCH(unit)->is_inited)), CMM_ERR_NOT_INIT);
 3357              		.loc 1 355 5 discriminator 2 view .LVU953
 3358              		.loc 1 355 5 discriminator 2 view .LVU954
 3359 000e 1878     		ldrb	r0, [r3]	@ zero_extendqisi2
 3360              	.LVL441:
 3361              		.loc 1 355 5 is_stmt 0 discriminator 2 view .LVU955
 3362 0010 0028     		cmp	r0, #0
 3363 0012 2CD0     		beq	.L350
 3364              		.loc 1 355 5 is_stmt 1 discriminator 2 view .LVU956
 356:../Switch/core/yt/yt_port.c ****     CMM_PARAM_CHK((!(CMM_PORT_VALID(unit, port))), CMM_ERR_PORT);
 3365              		.loc 1 356 5 discriminator 2 view .LVU957
 3366              		.loc 1 356 5 discriminator 2 view .LVU958
 3367 0014 2C48     		ldr	r0, .L357+4
 3368 0016 0078     		ldrb	r0, [r0]	@ zero_extendqisi2
 3369 0018 0028     		cmp	r0, #0
 3370 001a 36D0     		beq	.L342
 3371 001c 2B48     		ldr	r0, .L357+8
 3372 001e 50F82C00 		ldr	r0, [r0, ip, lsl #2]
 3373 0022 007D     		ldrb	r0, [r0, #20]	@ zero_extendqisi2
 3374 0024 8842     		cmp	r0, r1
 3375 0026 30D9     		bls	.L342
 3376              		.loc 1 356 5 discriminator 4 view .LVU959
 357:../Switch/core/yt/yt_port.c ****     CMM_PARAM_CHK((NULL == pPort_ctrl), CMM_ERR_NULL_POINT);
 3377              		.loc 1 357 5 discriminator 4 view .LVU960
 3378              		.loc 1 357 5 discriminator 4 view .LVU961
 3379 0028 002A     		cmp	r2, #0
 3380 002a 3CD0     		beq	.L351
 3381              		.loc 1 357 5 discriminator 2 view .LVU962
 358:../Switch/core/yt/yt_port.c **** 
 359:../Switch/core/yt/yt_port.c ****     return YT_DISPATCH(unit)->port_mac_force_get(unit, port, pPort_ctrl);
 3382              		.loc 1 359 5 discriminator 2 view .LVU963
 3383              		.loc 1 359 29 is_stmt 0 discriminator 2 view .LVU964
 3384 002c D3F88835 		ldr	r3, [r3, #1416]
 3385              		.loc 1 359 12 discriminator 2 view .LVU965
 3386 0030 6046     		mov	r0, ip
 3387 0032 9847     		blx	r3
 3388              	.LVL442:
 3389              	.L334:
 360:../Switch/core/yt/yt_port.c **** }
 3390              		.loc 1 360 1 view .LVU966
 3391 0034 08BD     		pop	{r3, pc}
 3392              	.LVL443:
 3393              	.L348:
 353:../Switch/core/yt/yt_port.c ****     CMM_PARAM_CHK(NULL == YT_DISPATCH(unit), CMM_ERR_NOT_INIT);
 3394              		.loc 1 353 5 is_stmt 1 discriminator 1 view .LVU967
 353:../Switch/core/yt/yt_port.c ****     CMM_PARAM_CHK(NULL == YT_DISPATCH(unit), CMM_ERR_NOT_INIT);
 3395              		.loc 1 353 5 discriminator 1 view .LVU968
 3396 0036 264B     		ldr	r3, .L357+12
 3397 0038 1B78     		ldrb	r3, [r3]	@ zero_extendqisi2
 3398 003a 012B     		cmp	r3, #1
 3399 003c 01D8     		bhi	.L352
 3400              	.LVL444:
 3401              	.L336:
 353:../Switch/core/yt/yt_port.c ****     CMM_PARAM_CHK(NULL == YT_DISPATCH(unit), CMM_ERR_NOT_INIT);
 3402              		.loc 1 353 5 discriminator 5 view .LVU969
 353:../Switch/core/yt/yt_port.c ****     CMM_PARAM_CHK(NULL == YT_DISPATCH(unit), CMM_ERR_NOT_INIT);
 3403              		.loc 1 353 5 discriminator 5 view .LVU970
 353:../Switch/core/yt/yt_port.c ****     CMM_PARAM_CHK(NULL == YT_DISPATCH(unit), CMM_ERR_NOT_INIT);
 3404              		.loc 1 353 5 discriminator 5 view .LVU971
 3405 003e 0520     		movs	r0, #5
 3406 0040 F8E7     		b	.L334
 3407              	.LVL445:
 3408              	.L352:
 353:../Switch/core/yt/yt_port.c ****     CMM_PARAM_CHK(NULL == YT_DISPATCH(unit), CMM_ERR_NOT_INIT);
 3409              		.loc 1 353 5 discriminator 3 view .LVU972
 3410              	.LBB67:
 353:../Switch/core/yt/yt_port.c ****     CMM_PARAM_CHK(NULL == YT_DISPATCH(unit), CMM_ERR_NOT_INIT);
 3411              		.loc 1 353 5 discriminator 3 view .LVU973
 3412 0042 244B     		ldr	r3, .L357+16
 3413 0044 5A69     		ldr	r2, [r3, #20]
 3414              	.LVL446:
 353:../Switch/core/yt/yt_port.c ****     CMM_PARAM_CHK(NULL == YT_DISPATCH(unit), CMM_ERR_NOT_INIT);
 3415              		.loc 1 353 5 is_stmt 0 discriminator 3 view .LVU974
 3416 0046 244B     		ldr	r3, .L357+20
 3417 0048 9968     		ldr	r1, [r3, #8]
 3418              	.LVL447:
 353:../Switch/core/yt/yt_port.c ****     CMM_PARAM_CHK(NULL == YT_DISPATCH(unit), CMM_ERR_NOT_INIT);
 3419              		.loc 1 353 5 discriminator 3 view .LVU975
 3420 004a 2448     		ldr	r0, .L357+24
 3421              	.LVL448:
 353:../Switch/core/yt/yt_port.c ****     CMM_PARAM_CHK(NULL == YT_DISPATCH(unit), CMM_ERR_NOT_INIT);
 3422              		.loc 1 353 5 discriminator 3 view .LVU976
 3423 004c FFF7FEFF 		bl	osal_printf
 3424              	.LVL449:
 3425 0050 F5E7     		b	.L336
 3426              	.LVL450:
 3427              	.L349:
 353:../Switch/core/yt/yt_port.c ****     CMM_PARAM_CHK(NULL == YT_DISPATCH(unit), CMM_ERR_NOT_INIT);
 3428              		.loc 1 353 5 discriminator 3 view .LVU977
 3429              	.LBE67:
 354:../Switch/core/yt/yt_port.c ****     CMM_PARAM_CHK((!(YT_DISPATCH(unit)->is_inited)), CMM_ERR_NOT_INIT);
 3430              		.loc 1 354 5 is_stmt 1 discriminator 1 view .LVU978
 354:../Switch/core/yt/yt_port.c ****     CMM_PARAM_CHK((!(YT_DISPATCH(unit)->is_inited)), CMM_ERR_NOT_INIT);
 3431              		.loc 1 354 5 discriminator 1 view .LVU979
 3432 0052 1F4B     		ldr	r3, .L357+12
 3433 0054 1B78     		ldrb	r3, [r3]	@ zero_extendqisi2
 3434 0056 012B     		cmp	r3, #1
 3435 0058 01D8     		bhi	.L353
 3436              	.LVL451:
 3437              	.L339:
 354:../Switch/core/yt/yt_port.c ****     CMM_PARAM_CHK((!(YT_DISPATCH(unit)->is_inited)), CMM_ERR_NOT_INIT);
 3438              		.loc 1 354 5 discriminator 5 view .LVU980
 354:../Switch/core/yt/yt_port.c ****     CMM_PARAM_CHK((!(YT_DISPATCH(unit)->is_inited)), CMM_ERR_NOT_INIT);
 3439              		.loc 1 354 5 discriminator 5 view .LVU981
 354:../Switch/core/yt/yt_port.c ****     CMM_PARAM_CHK((!(YT_DISPATCH(unit)->is_inited)), CMM_ERR_NOT_INIT);
 3440              		.loc 1 354 5 discriminator 5 view .LVU982
 3441 005a 0420     		movs	r0, #4
 3442 005c EAE7     		b	.L334
 3443              	.LVL452:
 3444              	.L353:
 354:../Switch/core/yt/yt_port.c ****     CMM_PARAM_CHK((!(YT_DISPATCH(unit)->is_inited)), CMM_ERR_NOT_INIT);
 3445              		.loc 1 354 5 discriminator 3 view .LVU983
 3446              	.LBB68:
 354:../Switch/core/yt/yt_port.c ****     CMM_PARAM_CHK((!(YT_DISPATCH(unit)->is_inited)), CMM_ERR_NOT_INIT);
 3447              		.loc 1 354 5 discriminator 3 view .LVU984
 3448 005e 1D4B     		ldr	r3, .L357+16
 3449 0060 1A69     		ldr	r2, [r3, #16]
 3450              	.LVL453:
 354:../Switch/core/yt/yt_port.c ****     CMM_PARAM_CHK((!(YT_DISPATCH(unit)->is_inited)), CMM_ERR_NOT_INIT);
 3451              		.loc 1 354 5 is_stmt 0 discriminator 3 view .LVU985
 3452 0062 1D4B     		ldr	r3, .L357+20
 3453 0064 9968     		ldr	r1, [r3, #8]
 3454              	.LVL454:
 354:../Switch/core/yt/yt_port.c ****     CMM_PARAM_CHK((!(YT_DISPATCH(unit)->is_inited)), CMM_ERR_NOT_INIT);
 3455              		.loc 1 354 5 discriminator 3 view .LVU986
 3456 0066 1D48     		ldr	r0, .L357+24
 3457              	.LVL455:
 354:../Switch/core/yt/yt_port.c ****     CMM_PARAM_CHK((!(YT_DISPATCH(unit)->is_inited)), CMM_ERR_NOT_INIT);
 3458              		.loc 1 354 5 discriminator 3 view .LVU987
 3459 0068 FFF7FEFF 		bl	osal_printf
 3460              	.LVL456:
 3461 006c F5E7     		b	.L339
 3462              	.LVL457:
 3463              	.L350:
 354:../Switch/core/yt/yt_port.c ****     CMM_PARAM_CHK((!(YT_DISPATCH(unit)->is_inited)), CMM_ERR_NOT_INIT);
 3464              		.loc 1 354 5 discriminator 3 view .LVU988
 3465              	.LBE68:
 355:../Switch/core/yt/yt_port.c ****     CMM_PARAM_CHK((!(CMM_PORT_VALID(unit, port))), CMM_ERR_PORT);
 3466              		.loc 1 355 5 is_stmt 1 discriminator 1 view .LVU989
 355:../Switch/core/yt/yt_port.c ****     CMM_PARAM_CHK((!(CMM_PORT_VALID(unit, port))), CMM_ERR_PORT);
 3467              		.loc 1 355 5 discriminator 1 view .LVU990
 3468 006e 184B     		ldr	r3, .L357+12
 3469 0070 1B78     		ldrb	r3, [r3]	@ zero_extendqisi2
 3470 0072 012B     		cmp	r3, #1
 3471 0074 01D8     		bhi	.L354
 3472              	.LVL458:
 3473              	.L341:
 355:../Switch/core/yt/yt_port.c ****     CMM_PARAM_CHK((!(CMM_PORT_VALID(unit, port))), CMM_ERR_PORT);
 3474              		.loc 1 355 5 discriminator 5 view .LVU991
 355:../Switch/core/yt/yt_port.c ****     CMM_PARAM_CHK((!(CMM_PORT_VALID(unit, port))), CMM_ERR_PORT);
 3475              		.loc 1 355 5 discriminator 5 view .LVU992
 355:../Switch/core/yt/yt_port.c ****     CMM_PARAM_CHK((!(CMM_PORT_VALID(unit, port))), CMM_ERR_PORT);
 3476              		.loc 1 355 5 discriminator 5 view .LVU993
 3477 0076 0420     		movs	r0, #4
 3478 0078 DCE7     		b	.L334
 3479              	.LVL459:
 3480              	.L354:
 355:../Switch/core/yt/yt_port.c ****     CMM_PARAM_CHK((!(CMM_PORT_VALID(unit, port))), CMM_ERR_PORT);
 3481              		.loc 1 355 5 discriminator 3 view .LVU994
 3482              	.LBB69:
 355:../Switch/core/yt/yt_port.c ****     CMM_PARAM_CHK((!(CMM_PORT_VALID(unit, port))), CMM_ERR_PORT);
 3483              		.loc 1 355 5 discriminator 3 view .LVU995
 3484 007a 164B     		ldr	r3, .L357+16
 3485 007c 1A69     		ldr	r2, [r3, #16]
 3486              	.LVL460:
 355:../Switch/core/yt/yt_port.c ****     CMM_PARAM_CHK((!(CMM_PORT_VALID(unit, port))), CMM_ERR_PORT);
 3487              		.loc 1 355 5 is_stmt 0 discriminator 3 view .LVU996
 3488 007e 164B     		ldr	r3, .L357+20
 3489 0080 9968     		ldr	r1, [r3, #8]
 3490              	.LVL461:
 355:../Switch/core/yt/yt_port.c ****     CMM_PARAM_CHK((!(CMM_PORT_VALID(unit, port))), CMM_ERR_PORT);
 3491              		.loc 1 355 5 discriminator 3 view .LVU997
 3492 0082 1648     		ldr	r0, .L357+24
 3493 0084 FFF7FEFF 		bl	osal_printf
 3494              	.LVL462:
 3495 0088 F5E7     		b	.L341
 3496              	.LVL463:
 3497              	.L342:
 355:../Switch/core/yt/yt_port.c ****     CMM_PARAM_CHK((!(CMM_PORT_VALID(unit, port))), CMM_ERR_PORT);
 3498              		.loc 1 355 5 discriminator 3 view .LVU998
 3499              	.LBE69:
 356:../Switch/core/yt/yt_port.c ****     CMM_PARAM_CHK((NULL == pPort_ctrl), CMM_ERR_NULL_POINT);
 3500              		.loc 1 356 5 is_stmt 1 discriminator 3 view .LVU999
 356:../Switch/core/yt/yt_port.c ****     CMM_PARAM_CHK((NULL == pPort_ctrl), CMM_ERR_NULL_POINT);
 3501              		.loc 1 356 5 discriminator 3 view .LVU1000
 3502 008a 114B     		ldr	r3, .L357+12
 3503 008c 1B78     		ldrb	r3, [r3]	@ zero_extendqisi2
 3504 008e 012B     		cmp	r3, #1
 3505 0090 01D8     		bhi	.L355
 3506              	.LVL464:
 3507              	.L344:
 356:../Switch/core/yt/yt_port.c ****     CMM_PARAM_CHK((NULL == pPort_ctrl), CMM_ERR_NULL_POINT);
 3508              		.loc 1 356 5 discriminator 7 view .LVU1001
 356:../Switch/core/yt/yt_port.c ****     CMM_PARAM_CHK((NULL == pPort_ctrl), CMM_ERR_NULL_POINT);
 3509              		.loc 1 356 5 discriminator 7 view .LVU1002
 356:../Switch/core/yt/yt_port.c ****     CMM_PARAM_CHK((NULL == pPort_ctrl), CMM_ERR_NULL_POINT);
 3510              		.loc 1 356 5 discriminator 7 view .LVU1003
 3511 0092 0E20     		movs	r0, #14
 3512 0094 CEE7     		b	.L334
 3513              	.LVL465:
 3514              	.L355:
 356:../Switch/core/yt/yt_port.c ****     CMM_PARAM_CHK((NULL == pPort_ctrl), CMM_ERR_NULL_POINT);
 3515              		.loc 1 356 5 discriminator 5 view .LVU1004
 3516              	.LBB70:
 356:../Switch/core/yt/yt_port.c ****     CMM_PARAM_CHK((NULL == pPort_ctrl), CMM_ERR_NULL_POINT);
 3517              		.loc 1 356 5 discriminator 5 view .LVU1005
 3518 0096 0F4B     		ldr	r3, .L357+16
 3519 0098 9A6B     		ldr	r2, [r3, #56]
 3520              	.LVL466:
 356:../Switch/core/yt/yt_port.c ****     CMM_PARAM_CHK((NULL == pPort_ctrl), CMM_ERR_NULL_POINT);
 3521              		.loc 1 356 5 is_stmt 0 discriminator 5 view .LVU1006
 3522 009a 0F4B     		ldr	r3, .L357+20
 3523 009c 9968     		ldr	r1, [r3, #8]
 3524              	.LVL467:
 356:../Switch/core/yt/yt_port.c ****     CMM_PARAM_CHK((NULL == pPort_ctrl), CMM_ERR_NULL_POINT);
 3525              		.loc 1 356 5 discriminator 5 view .LVU1007
 3526 009e 0F48     		ldr	r0, .L357+24
 3527 00a0 FFF7FEFF 		bl	osal_printf
 3528              	.LVL468:
 3529 00a4 F5E7     		b	.L344
 3530              	.LVL469:
 3531              	.L351:
 356:../Switch/core/yt/yt_port.c ****     CMM_PARAM_CHK((NULL == pPort_ctrl), CMM_ERR_NULL_POINT);
 3532              		.loc 1 356 5 discriminator 5 view .LVU1008
 3533              	.LBE70:
 357:../Switch/core/yt/yt_port.c **** 
 3534              		.loc 1 357 5 is_stmt 1 discriminator 1 view .LVU1009
 357:../Switch/core/yt/yt_port.c **** 
 3535              		.loc 1 357 5 discriminator 1 view .LVU1010
 3536 00a6 0A4B     		ldr	r3, .L357+12
 3537 00a8 1B78     		ldrb	r3, [r3]	@ zero_extendqisi2
 3538 00aa 012B     		cmp	r3, #1
 3539 00ac 01D8     		bhi	.L356
 3540              	.LVL470:
 3541              	.L346:
 357:../Switch/core/yt/yt_port.c **** 
 3542              		.loc 1 357 5 discriminator 5 view .LVU1011
 357:../Switch/core/yt/yt_port.c **** 
 3543              		.loc 1 357 5 discriminator 5 view .LVU1012
 357:../Switch/core/yt/yt_port.c **** 
 3544              		.loc 1 357 5 discriminator 5 view .LVU1013
 3545 00ae 0220     		movs	r0, #2
 3546 00b0 C0E7     		b	.L334
 3547              	.LVL471:
 3548              	.L356:
 357:../Switch/core/yt/yt_port.c **** 
 3549              		.loc 1 357 5 discriminator 3 view .LVU1014
 3550              	.LBB71:
 357:../Switch/core/yt/yt_port.c **** 
 3551              		.loc 1 357 5 discriminator 3 view .LVU1015
 3552 00b2 084B     		ldr	r3, .L357+16
 3553 00b4 9A68     		ldr	r2, [r3, #8]
 3554              	.LVL472:
 357:../Switch/core/yt/yt_port.c **** 
 3555              		.loc 1 357 5 is_stmt 0 discriminator 3 view .LVU1016
 3556 00b6 084B     		ldr	r3, .L357+20
 3557 00b8 9968     		ldr	r1, [r3, #8]
 3558              	.LVL473:
 357:../Switch/core/yt/yt_port.c **** 
 3559              		.loc 1 357 5 discriminator 3 view .LVU1017
 3560 00ba 0848     		ldr	r0, .L357+24
 3561 00bc FFF7FEFF 		bl	osal_printf
 3562              	.LVL474:
 3563 00c0 F5E7     		b	.L346
 3564              	.L358:
 3565 00c2 00BF     		.align	2
 3566              	.L357:
 3567 00c4 00000000 		.word	gpfal_dispatch
 3568 00c8 00000000 		.word	gcal_inited
 3569 00cc 00000000 		.word	gpSwitchUnit
 3570 00d0 00000000 		.word	yt_debug_level
 3571 00d4 00000000 		.word	_yt_errmsg
 3572 00d8 00000000 		.word	_yt_prompt_msg
 3573 00dc 00000000 		.word	.LC0
 3574              	.LBE71:
 3575              		.cfi_endproc
 3576              	.LFE17:
 3578              		.section	.text.yt_port_mac_fc_set,"ax",%progbits
 3579              		.align	1
 3580              		.global	yt_port_mac_fc_set
 3581              		.syntax unified
 3582              		.thumb
 3583              		.thumb_func
 3585              	yt_port_mac_fc_set:
 3586              	.LVL475:
 3587              	.LFB18:
 361:../Switch/core/yt/yt_port.c **** 
 362:../Switch/core/yt/yt_port.c **** /**
 363:../Switch/core/yt/yt_port.c ****  * @internal      yt_port_mac_fc_set
 364:../Switch/core/yt/yt_port.c ****  * @endinternal
 365:../Switch/core/yt/yt_port.c ****  *
 366:../Switch/core/yt/yt_port.c ****  * @brief         Description
 367:../Switch/core/yt/yt_port.c ****  * @note          APPLICABLE DEVICES  -Tiger
 368:../Switch/core/yt/yt_port.c ****  * @param[in]     unit                -unit id
 369:../Switch/core/yt/yt_port.c ****  * @param[in]     port                -port num
 370:../Switch/core/yt/yt_port.c ****  * @param[in]     enable              -enable or disable
 371:../Switch/core/yt/yt_port.c ****  * @retval        CMM_ERR_OK          -on success
 372:../Switch/core/yt/yt_port.c ****  * @retval        CMM_ERR_FAIL        -on fail
 373:../Switch/core/yt/yt_port.c ****  */
 374:../Switch/core/yt/yt_port.c **** yt_ret_t yt_port_mac_fc_set(yt_unit_t unit, yt_port_t port, yt_enable_t enable)
 375:../Switch/core/yt/yt_port.c **** {
 3588              		.loc 1 375 1 is_stmt 1 view -0
 3589              		.cfi_startproc
 3590              		@ args = 0, pretend = 0, frame = 0
 3591              		@ frame_needed = 0, uses_anonymous_args = 0
 3592              		.loc 1 375 1 is_stmt 0 view .LVU1019
 3593 0000 08B5     		push	{r3, lr}
 3594              		.cfi_def_cfa_offset 8
 3595              		.cfi_offset 3, -8
 3596              		.cfi_offset 14, -4
 376:../Switch/core/yt/yt_port.c ****     CMM_PARAM_CHK((YT_UNIT_NUM <= unit), CMM_ERR_INPUT);
 3597              		.loc 1 376 5 is_stmt 1 view .LVU1020
 3598              		.loc 1 376 5 view .LVU1021
 3599 0002 C0B9     		cbnz	r0, .L373
 3600 0004 8446     		mov	ip, r0
 3601              		.loc 1 376 5 discriminator 2 view .LVU1022
 377:../Switch/core/yt/yt_port.c ****     CMM_PARAM_CHK(NULL == YT_DISPATCH(unit), CMM_ERR_NOT_INIT);
 3602              		.loc 1 377 5 discriminator 2 view .LVU1023
 3603              		.loc 1 377 5 discriminator 2 view .LVU1024
 3604 0006 2F4B     		ldr	r3, .L382
 3605 0008 53F82030 		ldr	r3, [r3, r0, lsl #2]
 3606 000c 0BB3     		cbz	r3, .L374
 3607              		.loc 1 377 5 discriminator 2 view .LVU1025
 378:../Switch/core/yt/yt_port.c ****     CMM_PARAM_CHK((!(YT_DISPATCH(unit)->is_inited)), CMM_ERR_NOT_INIT);
 3608              		.loc 1 378 5 discriminator 2 view .LVU1026
 3609              		.loc 1 378 5 discriminator 2 view .LVU1027
 3610 000e 1878     		ldrb	r0, [r3]	@ zero_extendqisi2
 3611              	.LVL476:
 3612              		.loc 1 378 5 is_stmt 0 discriminator 2 view .LVU1028
 3613 0010 0028     		cmp	r0, #0
 3614 0012 2CD0     		beq	.L375
 3615              		.loc 1 378 5 is_stmt 1 discriminator 2 view .LVU1029
 379:../Switch/core/yt/yt_port.c ****     CMM_PARAM_CHK((!(CMM_PORT_VALID(unit, port))), CMM_ERR_PORT);
 3616              		.loc 1 379 5 discriminator 2 view .LVU1030
 3617              		.loc 1 379 5 discriminator 2 view .LVU1031
 3618 0014 2C48     		ldr	r0, .L382+4
 3619 0016 0078     		ldrb	r0, [r0]	@ zero_extendqisi2
 3620 0018 0028     		cmp	r0, #0
 3621 001a 36D0     		beq	.L367
 3622 001c 2B48     		ldr	r0, .L382+8
 3623 001e 50F82C00 		ldr	r0, [r0, ip, lsl #2]
 3624 0022 007D     		ldrb	r0, [r0, #20]	@ zero_extendqisi2
 3625 0024 8842     		cmp	r0, r1
 3626 0026 30D9     		bls	.L367
 3627              		.loc 1 379 5 discriminator 4 view .LVU1032
 380:../Switch/core/yt/yt_port.c ****     CMM_PARAM_CHK((YT_ENABLE < enable || YT_DISABLE > enable), CMM_ERR_INPUT);
 3628              		.loc 1 380 5 discriminator 4 view .LVU1033
 3629              		.loc 1 380 5 discriminator 4 view .LVU1034
 3630 0028 012A     		cmp	r2, #1
 3631 002a 3CD8     		bhi	.L376
 3632              		.loc 1 380 5 discriminator 2 view .LVU1035
 381:../Switch/core/yt/yt_port.c **** 
 382:../Switch/core/yt/yt_port.c ****     return YT_DISPATCH(unit)->port_mac_fc_set(unit, port, enable);
 3633              		.loc 1 382 5 discriminator 2 view .LVU1036
 3634              		.loc 1 382 29 is_stmt 0 discriminator 2 view .LVU1037
 3635 002c D3F88C35 		ldr	r3, [r3, #1420]
 3636              		.loc 1 382 12 discriminator 2 view .LVU1038
 3637 0030 6046     		mov	r0, ip
 3638 0032 9847     		blx	r3
 3639              	.LVL477:
 3640              	.L359:
 383:../Switch/core/yt/yt_port.c **** }
 3641              		.loc 1 383 1 view .LVU1039
 3642 0034 08BD     		pop	{r3, pc}
 3643              	.LVL478:
 3644              	.L373:
 376:../Switch/core/yt/yt_port.c ****     CMM_PARAM_CHK(NULL == YT_DISPATCH(unit), CMM_ERR_NOT_INIT);
 3645              		.loc 1 376 5 is_stmt 1 discriminator 1 view .LVU1040
 376:../Switch/core/yt/yt_port.c ****     CMM_PARAM_CHK(NULL == YT_DISPATCH(unit), CMM_ERR_NOT_INIT);
 3646              		.loc 1 376 5 discriminator 1 view .LVU1041
 3647 0036 264B     		ldr	r3, .L382+12
 3648 0038 1B78     		ldrb	r3, [r3]	@ zero_extendqisi2
 3649 003a 012B     		cmp	r3, #1
 3650 003c 01D8     		bhi	.L377
 3651              	.LVL479:
 3652              	.L361:
 376:../Switch/core/yt/yt_port.c ****     CMM_PARAM_CHK(NULL == YT_DISPATCH(unit), CMM_ERR_NOT_INIT);
 3653              		.loc 1 376 5 discriminator 5 view .LVU1042
 376:../Switch/core/yt/yt_port.c ****     CMM_PARAM_CHK(NULL == YT_DISPATCH(unit), CMM_ERR_NOT_INIT);
 3654              		.loc 1 376 5 discriminator 5 view .LVU1043
 376:../Switch/core/yt/yt_port.c ****     CMM_PARAM_CHK(NULL == YT_DISPATCH(unit), CMM_ERR_NOT_INIT);
 3655              		.loc 1 376 5 discriminator 5 view .LVU1044
 3656 003e 0520     		movs	r0, #5
 3657 0040 F8E7     		b	.L359
 3658              	.LVL480:
 3659              	.L377:
 376:../Switch/core/yt/yt_port.c ****     CMM_PARAM_CHK(NULL == YT_DISPATCH(unit), CMM_ERR_NOT_INIT);
 3660              		.loc 1 376 5 discriminator 3 view .LVU1045
 3661              	.LBB72:
 376:../Switch/core/yt/yt_port.c ****     CMM_PARAM_CHK(NULL == YT_DISPATCH(unit), CMM_ERR_NOT_INIT);
 3662              		.loc 1 376 5 discriminator 3 view .LVU1046
 3663 0042 244B     		ldr	r3, .L382+16
 3664 0044 5A69     		ldr	r2, [r3, #20]
 3665              	.LVL481:
 376:../Switch/core/yt/yt_port.c ****     CMM_PARAM_CHK(NULL == YT_DISPATCH(unit), CMM_ERR_NOT_INIT);
 3666              		.loc 1 376 5 is_stmt 0 discriminator 3 view .LVU1047
 3667 0046 244B     		ldr	r3, .L382+20
 3668 0048 9968     		ldr	r1, [r3, #8]
 3669              	.LVL482:
 376:../Switch/core/yt/yt_port.c ****     CMM_PARAM_CHK(NULL == YT_DISPATCH(unit), CMM_ERR_NOT_INIT);
 3670              		.loc 1 376 5 discriminator 3 view .LVU1048
 3671 004a 2448     		ldr	r0, .L382+24
 3672              	.LVL483:
 376:../Switch/core/yt/yt_port.c ****     CMM_PARAM_CHK(NULL == YT_DISPATCH(unit), CMM_ERR_NOT_INIT);
 3673              		.loc 1 376 5 discriminator 3 view .LVU1049
 3674 004c FFF7FEFF 		bl	osal_printf
 3675              	.LVL484:
 3676 0050 F5E7     		b	.L361
 3677              	.LVL485:
 3678              	.L374:
 376:../Switch/core/yt/yt_port.c ****     CMM_PARAM_CHK(NULL == YT_DISPATCH(unit), CMM_ERR_NOT_INIT);
 3679              		.loc 1 376 5 discriminator 3 view .LVU1050
 3680              	.LBE72:
 377:../Switch/core/yt/yt_port.c ****     CMM_PARAM_CHK((!(YT_DISPATCH(unit)->is_inited)), CMM_ERR_NOT_INIT);
 3681              		.loc 1 377 5 is_stmt 1 discriminator 1 view .LVU1051
 377:../Switch/core/yt/yt_port.c ****     CMM_PARAM_CHK((!(YT_DISPATCH(unit)->is_inited)), CMM_ERR_NOT_INIT);
 3682              		.loc 1 377 5 discriminator 1 view .LVU1052
 3683 0052 1F4B     		ldr	r3, .L382+12
 3684 0054 1B78     		ldrb	r3, [r3]	@ zero_extendqisi2
 3685 0056 012B     		cmp	r3, #1
 3686 0058 01D8     		bhi	.L378
 3687              	.LVL486:
 3688              	.L364:
 377:../Switch/core/yt/yt_port.c ****     CMM_PARAM_CHK((!(YT_DISPATCH(unit)->is_inited)), CMM_ERR_NOT_INIT);
 3689              		.loc 1 377 5 discriminator 5 view .LVU1053
 377:../Switch/core/yt/yt_port.c ****     CMM_PARAM_CHK((!(YT_DISPATCH(unit)->is_inited)), CMM_ERR_NOT_INIT);
 3690              		.loc 1 377 5 discriminator 5 view .LVU1054
 377:../Switch/core/yt/yt_port.c ****     CMM_PARAM_CHK((!(YT_DISPATCH(unit)->is_inited)), CMM_ERR_NOT_INIT);
 3691              		.loc 1 377 5 discriminator 5 view .LVU1055
 3692 005a 0420     		movs	r0, #4
 3693 005c EAE7     		b	.L359
 3694              	.LVL487:
 3695              	.L378:
 377:../Switch/core/yt/yt_port.c ****     CMM_PARAM_CHK((!(YT_DISPATCH(unit)->is_inited)), CMM_ERR_NOT_INIT);
 3696              		.loc 1 377 5 discriminator 3 view .LVU1056
 3697              	.LBB73:
 377:../Switch/core/yt/yt_port.c ****     CMM_PARAM_CHK((!(YT_DISPATCH(unit)->is_inited)), CMM_ERR_NOT_INIT);
 3698              		.loc 1 377 5 discriminator 3 view .LVU1057
 3699 005e 1D4B     		ldr	r3, .L382+16
 3700 0060 1A69     		ldr	r2, [r3, #16]
 3701              	.LVL488:
 377:../Switch/core/yt/yt_port.c ****     CMM_PARAM_CHK((!(YT_DISPATCH(unit)->is_inited)), CMM_ERR_NOT_INIT);
 3702              		.loc 1 377 5 is_stmt 0 discriminator 3 view .LVU1058
 3703 0062 1D4B     		ldr	r3, .L382+20
 3704 0064 9968     		ldr	r1, [r3, #8]
 3705              	.LVL489:
 377:../Switch/core/yt/yt_port.c ****     CMM_PARAM_CHK((!(YT_DISPATCH(unit)->is_inited)), CMM_ERR_NOT_INIT);
 3706              		.loc 1 377 5 discriminator 3 view .LVU1059
 3707 0066 1D48     		ldr	r0, .L382+24
 3708              	.LVL490:
 377:../Switch/core/yt/yt_port.c ****     CMM_PARAM_CHK((!(YT_DISPATCH(unit)->is_inited)), CMM_ERR_NOT_INIT);
 3709              		.loc 1 377 5 discriminator 3 view .LVU1060
 3710 0068 FFF7FEFF 		bl	osal_printf
 3711              	.LVL491:
 3712 006c F5E7     		b	.L364
 3713              	.LVL492:
 3714              	.L375:
 377:../Switch/core/yt/yt_port.c ****     CMM_PARAM_CHK((!(YT_DISPATCH(unit)->is_inited)), CMM_ERR_NOT_INIT);
 3715              		.loc 1 377 5 discriminator 3 view .LVU1061
 3716              	.LBE73:
 378:../Switch/core/yt/yt_port.c ****     CMM_PARAM_CHK((!(CMM_PORT_VALID(unit, port))), CMM_ERR_PORT);
 3717              		.loc 1 378 5 is_stmt 1 discriminator 1 view .LVU1062
 378:../Switch/core/yt/yt_port.c ****     CMM_PARAM_CHK((!(CMM_PORT_VALID(unit, port))), CMM_ERR_PORT);
 3718              		.loc 1 378 5 discriminator 1 view .LVU1063
 3719 006e 184B     		ldr	r3, .L382+12
 3720 0070 1B78     		ldrb	r3, [r3]	@ zero_extendqisi2
 3721 0072 012B     		cmp	r3, #1
 3722 0074 01D8     		bhi	.L379
 3723              	.LVL493:
 3724              	.L366:
 378:../Switch/core/yt/yt_port.c ****     CMM_PARAM_CHK((!(CMM_PORT_VALID(unit, port))), CMM_ERR_PORT);
 3725              		.loc 1 378 5 discriminator 5 view .LVU1064
 378:../Switch/core/yt/yt_port.c ****     CMM_PARAM_CHK((!(CMM_PORT_VALID(unit, port))), CMM_ERR_PORT);
 3726              		.loc 1 378 5 discriminator 5 view .LVU1065
 378:../Switch/core/yt/yt_port.c ****     CMM_PARAM_CHK((!(CMM_PORT_VALID(unit, port))), CMM_ERR_PORT);
 3727              		.loc 1 378 5 discriminator 5 view .LVU1066
 3728 0076 0420     		movs	r0, #4
 3729 0078 DCE7     		b	.L359
 3730              	.LVL494:
 3731              	.L379:
 378:../Switch/core/yt/yt_port.c ****     CMM_PARAM_CHK((!(CMM_PORT_VALID(unit, port))), CMM_ERR_PORT);
 3732              		.loc 1 378 5 discriminator 3 view .LVU1067
 3733              	.LBB74:
 378:../Switch/core/yt/yt_port.c ****     CMM_PARAM_CHK((!(CMM_PORT_VALID(unit, port))), CMM_ERR_PORT);
 3734              		.loc 1 378 5 discriminator 3 view .LVU1068
 3735 007a 164B     		ldr	r3, .L382+16
 3736 007c 1A69     		ldr	r2, [r3, #16]
 3737              	.LVL495:
 378:../Switch/core/yt/yt_port.c ****     CMM_PARAM_CHK((!(CMM_PORT_VALID(unit, port))), CMM_ERR_PORT);
 3738              		.loc 1 378 5 is_stmt 0 discriminator 3 view .LVU1069
 3739 007e 164B     		ldr	r3, .L382+20
 3740 0080 9968     		ldr	r1, [r3, #8]
 3741              	.LVL496:
 378:../Switch/core/yt/yt_port.c ****     CMM_PARAM_CHK((!(CMM_PORT_VALID(unit, port))), CMM_ERR_PORT);
 3742              		.loc 1 378 5 discriminator 3 view .LVU1070
 3743 0082 1648     		ldr	r0, .L382+24
 3744 0084 FFF7FEFF 		bl	osal_printf
 3745              	.LVL497:
 3746 0088 F5E7     		b	.L366
 3747              	.LVL498:
 3748              	.L367:
 378:../Switch/core/yt/yt_port.c ****     CMM_PARAM_CHK((!(CMM_PORT_VALID(unit, port))), CMM_ERR_PORT);
 3749              		.loc 1 378 5 discriminator 3 view .LVU1071
 3750              	.LBE74:
 379:../Switch/core/yt/yt_port.c ****     CMM_PARAM_CHK((YT_ENABLE < enable || YT_DISABLE > enable), CMM_ERR_INPUT);
 3751              		.loc 1 379 5 is_stmt 1 discriminator 3 view .LVU1072
 379:../Switch/core/yt/yt_port.c ****     CMM_PARAM_CHK((YT_ENABLE < enable || YT_DISABLE > enable), CMM_ERR_INPUT);
 3752              		.loc 1 379 5 discriminator 3 view .LVU1073
 3753 008a 114B     		ldr	r3, .L382+12
 3754 008c 1B78     		ldrb	r3, [r3]	@ zero_extendqisi2
 3755 008e 012B     		cmp	r3, #1
 3756 0090 01D8     		bhi	.L380
 3757              	.LVL499:
 3758              	.L369:
 379:../Switch/core/yt/yt_port.c ****     CMM_PARAM_CHK((YT_ENABLE < enable || YT_DISABLE > enable), CMM_ERR_INPUT);
 3759              		.loc 1 379 5 discriminator 7 view .LVU1074
 379:../Switch/core/yt/yt_port.c ****     CMM_PARAM_CHK((YT_ENABLE < enable || YT_DISABLE > enable), CMM_ERR_INPUT);
 3760              		.loc 1 379 5 discriminator 7 view .LVU1075
 379:../Switch/core/yt/yt_port.c ****     CMM_PARAM_CHK((YT_ENABLE < enable || YT_DISABLE > enable), CMM_ERR_INPUT);
 3761              		.loc 1 379 5 discriminator 7 view .LVU1076
 3762 0092 0E20     		movs	r0, #14
 3763 0094 CEE7     		b	.L359
 3764              	.LVL500:
 3765              	.L380:
 379:../Switch/core/yt/yt_port.c ****     CMM_PARAM_CHK((YT_ENABLE < enable || YT_DISABLE > enable), CMM_ERR_INPUT);
 3766              		.loc 1 379 5 discriminator 5 view .LVU1077
 3767              	.LBB75:
 379:../Switch/core/yt/yt_port.c ****     CMM_PARAM_CHK((YT_ENABLE < enable || YT_DISABLE > enable), CMM_ERR_INPUT);
 3768              		.loc 1 379 5 discriminator 5 view .LVU1078
 3769 0096 0F4B     		ldr	r3, .L382+16
 3770 0098 9A6B     		ldr	r2, [r3, #56]
 3771              	.LVL501:
 379:../Switch/core/yt/yt_port.c ****     CMM_PARAM_CHK((YT_ENABLE < enable || YT_DISABLE > enable), CMM_ERR_INPUT);
 3772              		.loc 1 379 5 is_stmt 0 discriminator 5 view .LVU1079
 3773 009a 0F4B     		ldr	r3, .L382+20
 3774 009c 9968     		ldr	r1, [r3, #8]
 3775              	.LVL502:
 379:../Switch/core/yt/yt_port.c ****     CMM_PARAM_CHK((YT_ENABLE < enable || YT_DISABLE > enable), CMM_ERR_INPUT);
 3776              		.loc 1 379 5 discriminator 5 view .LVU1080
 3777 009e 0F48     		ldr	r0, .L382+24
 3778 00a0 FFF7FEFF 		bl	osal_printf
 3779              	.LVL503:
 3780 00a4 F5E7     		b	.L369
 3781              	.LVL504:
 3782              	.L376:
 379:../Switch/core/yt/yt_port.c ****     CMM_PARAM_CHK((YT_ENABLE < enable || YT_DISABLE > enable), CMM_ERR_INPUT);
 3783              		.loc 1 379 5 discriminator 5 view .LVU1081
 3784              	.LBE75:
 380:../Switch/core/yt/yt_port.c **** 
 3785              		.loc 1 380 5 is_stmt 1 discriminator 1 view .LVU1082
 380:../Switch/core/yt/yt_port.c **** 
 3786              		.loc 1 380 5 discriminator 1 view .LVU1083
 3787 00a6 0A4B     		ldr	r3, .L382+12
 3788 00a8 1B78     		ldrb	r3, [r3]	@ zero_extendqisi2
 3789 00aa 012B     		cmp	r3, #1
 3790 00ac 01D8     		bhi	.L381
 3791              	.LVL505:
 3792              	.L371:
 380:../Switch/core/yt/yt_port.c **** 
 3793              		.loc 1 380 5 discriminator 5 view .LVU1084
 380:../Switch/core/yt/yt_port.c **** 
 3794              		.loc 1 380 5 discriminator 5 view .LVU1085
 380:../Switch/core/yt/yt_port.c **** 
 3795              		.loc 1 380 5 discriminator 5 view .LVU1086
 3796 00ae 0520     		movs	r0, #5
 3797 00b0 C0E7     		b	.L359
 3798              	.LVL506:
 3799              	.L381:
 380:../Switch/core/yt/yt_port.c **** 
 3800              		.loc 1 380 5 discriminator 3 view .LVU1087
 3801              	.LBB76:
 380:../Switch/core/yt/yt_port.c **** 
 3802              		.loc 1 380 5 discriminator 3 view .LVU1088
 3803 00b2 084B     		ldr	r3, .L382+16
 3804 00b4 5A69     		ldr	r2, [r3, #20]
 3805              	.LVL507:
 380:../Switch/core/yt/yt_port.c **** 
 3806              		.loc 1 380 5 is_stmt 0 discriminator 3 view .LVU1089
 3807 00b6 084B     		ldr	r3, .L382+20
 3808 00b8 9968     		ldr	r1, [r3, #8]
 3809              	.LVL508:
 380:../Switch/core/yt/yt_port.c **** 
 3810              		.loc 1 380 5 discriminator 3 view .LVU1090
 3811 00ba 0848     		ldr	r0, .L382+24
 3812 00bc FFF7FEFF 		bl	osal_printf
 3813              	.LVL509:
 3814 00c0 F5E7     		b	.L371
 3815              	.L383:
 3816 00c2 00BF     		.align	2
 3817              	.L382:
 3818 00c4 00000000 		.word	gpfal_dispatch
 3819 00c8 00000000 		.word	gcal_inited
 3820 00cc 00000000 		.word	gpSwitchUnit
 3821 00d0 00000000 		.word	yt_debug_level
 3822 00d4 00000000 		.word	_yt_errmsg
 3823 00d8 00000000 		.word	_yt_prompt_msg
 3824 00dc 00000000 		.word	.LC0
 3825              	.LBE76:
 3826              		.cfi_endproc
 3827              	.LFE18:
 3829              		.section	.text.yt_port_mac_fc_get,"ax",%progbits
 3830              		.align	1
 3831              		.global	yt_port_mac_fc_get
 3832              		.syntax unified
 3833              		.thumb
 3834              		.thumb_func
 3836              	yt_port_mac_fc_get:
 3837              	.LVL510:
 3838              	.LFB19:
 384:../Switch/core/yt/yt_port.c **** 
 385:../Switch/core/yt/yt_port.c **** /**
 386:../Switch/core/yt/yt_port.c ****  * @internal      yt_port_mac_fc_get
 387:../Switch/core/yt/yt_port.c ****  * @endinternal
 388:../Switch/core/yt/yt_port.c ****  *
 389:../Switch/core/yt/yt_port.c ****  * @brief         Description
 390:../Switch/core/yt/yt_port.c ****  * @note          APPLICABLE DEVICES  -Tiger
 391:../Switch/core/yt/yt_port.c ****  * @param[in]     unit                -unit id
 392:../Switch/core/yt/yt_port.c ****  * @param[in]     port                -port num
 393:../Switch/core/yt/yt_port.c ****  * @param[out]    pEnable             -enable or disable
 394:../Switch/core/yt/yt_port.c ****  * @retval        CMM_ERR_OK          -on success
 395:../Switch/core/yt/yt_port.c ****  * @retval        CMM_ERR_FAIL        -on fail
 396:../Switch/core/yt/yt_port.c ****  */
 397:../Switch/core/yt/yt_port.c **** yt_ret_t yt_port_mac_fc_get(yt_unit_t unit, yt_port_t port, yt_enable_t *pEnable)
 398:../Switch/core/yt/yt_port.c **** {
 3839              		.loc 1 398 1 is_stmt 1 view -0
 3840              		.cfi_startproc
 3841              		@ args = 0, pretend = 0, frame = 0
 3842              		@ frame_needed = 0, uses_anonymous_args = 0
 3843              		.loc 1 398 1 is_stmt 0 view .LVU1092
 3844 0000 08B5     		push	{r3, lr}
 3845              		.cfi_def_cfa_offset 8
 3846              		.cfi_offset 3, -8
 3847              		.cfi_offset 14, -4
 399:../Switch/core/yt/yt_port.c ****     CMM_PARAM_CHK((YT_UNIT_NUM <= unit), CMM_ERR_INPUT);
 3848              		.loc 1 399 5 is_stmt 1 view .LVU1093
 3849              		.loc 1 399 5 view .LVU1094
 3850 0002 C0B9     		cbnz	r0, .L398
 3851 0004 8446     		mov	ip, r0
 3852              		.loc 1 399 5 discriminator 2 view .LVU1095
 400:../Switch/core/yt/yt_port.c ****     CMM_PARAM_CHK(NULL == YT_DISPATCH(unit), CMM_ERR_NOT_INIT);
 3853              		.loc 1 400 5 discriminator 2 view .LVU1096
 3854              		.loc 1 400 5 discriminator 2 view .LVU1097
 3855 0006 2F4B     		ldr	r3, .L407
 3856 0008 53F82030 		ldr	r3, [r3, r0, lsl #2]
 3857 000c 0BB3     		cbz	r3, .L399
 3858              		.loc 1 400 5 discriminator 2 view .LVU1098
 401:../Switch/core/yt/yt_port.c ****     CMM_PARAM_CHK((!(YT_DISPATCH(unit)->is_inited)), CMM_ERR_NOT_INIT);
 3859              		.loc 1 401 5 discriminator 2 view .LVU1099
 3860              		.loc 1 401 5 discriminator 2 view .LVU1100
 3861 000e 1878     		ldrb	r0, [r3]	@ zero_extendqisi2
 3862              	.LVL511:
 3863              		.loc 1 401 5 is_stmt 0 discriminator 2 view .LVU1101
 3864 0010 0028     		cmp	r0, #0
 3865 0012 2CD0     		beq	.L400
 3866              		.loc 1 401 5 is_stmt 1 discriminator 2 view .LVU1102
 402:../Switch/core/yt/yt_port.c ****     CMM_PARAM_CHK((!(CMM_PORT_VALID(unit, port))), CMM_ERR_PORT);
 3867              		.loc 1 402 5 discriminator 2 view .LVU1103
 3868              		.loc 1 402 5 discriminator 2 view .LVU1104
 3869 0014 2C48     		ldr	r0, .L407+4
 3870 0016 0078     		ldrb	r0, [r0]	@ zero_extendqisi2
 3871 0018 0028     		cmp	r0, #0
 3872 001a 36D0     		beq	.L392
 3873 001c 2B48     		ldr	r0, .L407+8
 3874 001e 50F82C00 		ldr	r0, [r0, ip, lsl #2]
 3875 0022 007D     		ldrb	r0, [r0, #20]	@ zero_extendqisi2
 3876 0024 8842     		cmp	r0, r1
 3877 0026 30D9     		bls	.L392
 3878              		.loc 1 402 5 discriminator 4 view .LVU1105
 403:../Switch/core/yt/yt_port.c ****     CMM_PARAM_CHK((NULL == pEnable), CMM_ERR_NULL_POINT);
 3879              		.loc 1 403 5 discriminator 4 view .LVU1106
 3880              		.loc 1 403 5 discriminator 4 view .LVU1107
 3881 0028 002A     		cmp	r2, #0
 3882 002a 3CD0     		beq	.L401
 3883              		.loc 1 403 5 discriminator 2 view .LVU1108
 404:../Switch/core/yt/yt_port.c **** 
 405:../Switch/core/yt/yt_port.c ****     return YT_DISPATCH(unit)->port_mac_fc_get(unit, port, pEnable);
 3884              		.loc 1 405 5 discriminator 2 view .LVU1109
 3885              		.loc 1 405 29 is_stmt 0 discriminator 2 view .LVU1110
 3886 002c D3F89035 		ldr	r3, [r3, #1424]
 3887              		.loc 1 405 12 discriminator 2 view .LVU1111
 3888 0030 6046     		mov	r0, ip
 3889 0032 9847     		blx	r3
 3890              	.LVL512:
 3891              	.L384:
 406:../Switch/core/yt/yt_port.c **** }
 3892              		.loc 1 406 1 view .LVU1112
 3893 0034 08BD     		pop	{r3, pc}
 3894              	.LVL513:
 3895              	.L398:
 399:../Switch/core/yt/yt_port.c ****     CMM_PARAM_CHK(NULL == YT_DISPATCH(unit), CMM_ERR_NOT_INIT);
 3896              		.loc 1 399 5 is_stmt 1 discriminator 1 view .LVU1113
 399:../Switch/core/yt/yt_port.c ****     CMM_PARAM_CHK(NULL == YT_DISPATCH(unit), CMM_ERR_NOT_INIT);
 3897              		.loc 1 399 5 discriminator 1 view .LVU1114
 3898 0036 264B     		ldr	r3, .L407+12
 3899 0038 1B78     		ldrb	r3, [r3]	@ zero_extendqisi2
 3900 003a 012B     		cmp	r3, #1
 3901 003c 01D8     		bhi	.L402
 3902              	.LVL514:
 3903              	.L386:
 399:../Switch/core/yt/yt_port.c ****     CMM_PARAM_CHK(NULL == YT_DISPATCH(unit), CMM_ERR_NOT_INIT);
 3904              		.loc 1 399 5 discriminator 5 view .LVU1115
 399:../Switch/core/yt/yt_port.c ****     CMM_PARAM_CHK(NULL == YT_DISPATCH(unit), CMM_ERR_NOT_INIT);
 3905              		.loc 1 399 5 discriminator 5 view .LVU1116
 399:../Switch/core/yt/yt_port.c ****     CMM_PARAM_CHK(NULL == YT_DISPATCH(unit), CMM_ERR_NOT_INIT);
 3906              		.loc 1 399 5 discriminator 5 view .LVU1117
 3907 003e 0520     		movs	r0, #5
 3908 0040 F8E7     		b	.L384
 3909              	.LVL515:
 3910              	.L402:
 399:../Switch/core/yt/yt_port.c ****     CMM_PARAM_CHK(NULL == YT_DISPATCH(unit), CMM_ERR_NOT_INIT);
 3911              		.loc 1 399 5 discriminator 3 view .LVU1118
 3912              	.LBB77:
 399:../Switch/core/yt/yt_port.c ****     CMM_PARAM_CHK(NULL == YT_DISPATCH(unit), CMM_ERR_NOT_INIT);
 3913              		.loc 1 399 5 discriminator 3 view .LVU1119
 3914 0042 244B     		ldr	r3, .L407+16
 3915 0044 5A69     		ldr	r2, [r3, #20]
 3916              	.LVL516:
 399:../Switch/core/yt/yt_port.c ****     CMM_PARAM_CHK(NULL == YT_DISPATCH(unit), CMM_ERR_NOT_INIT);
 3917              		.loc 1 399 5 is_stmt 0 discriminator 3 view .LVU1120
 3918 0046 244B     		ldr	r3, .L407+20
 3919 0048 9968     		ldr	r1, [r3, #8]
 3920              	.LVL517:
 399:../Switch/core/yt/yt_port.c ****     CMM_PARAM_CHK(NULL == YT_DISPATCH(unit), CMM_ERR_NOT_INIT);
 3921              		.loc 1 399 5 discriminator 3 view .LVU1121
 3922 004a 2448     		ldr	r0, .L407+24
 3923              	.LVL518:
 399:../Switch/core/yt/yt_port.c ****     CMM_PARAM_CHK(NULL == YT_DISPATCH(unit), CMM_ERR_NOT_INIT);
 3924              		.loc 1 399 5 discriminator 3 view .LVU1122
 3925 004c FFF7FEFF 		bl	osal_printf
 3926              	.LVL519:
 3927 0050 F5E7     		b	.L386
 3928              	.LVL520:
 3929              	.L399:
 399:../Switch/core/yt/yt_port.c ****     CMM_PARAM_CHK(NULL == YT_DISPATCH(unit), CMM_ERR_NOT_INIT);
 3930              		.loc 1 399 5 discriminator 3 view .LVU1123
 3931              	.LBE77:
 400:../Switch/core/yt/yt_port.c ****     CMM_PARAM_CHK((!(YT_DISPATCH(unit)->is_inited)), CMM_ERR_NOT_INIT);
 3932              		.loc 1 400 5 is_stmt 1 discriminator 1 view .LVU1124
 400:../Switch/core/yt/yt_port.c ****     CMM_PARAM_CHK((!(YT_DISPATCH(unit)->is_inited)), CMM_ERR_NOT_INIT);
 3933              		.loc 1 400 5 discriminator 1 view .LVU1125
 3934 0052 1F4B     		ldr	r3, .L407+12
 3935 0054 1B78     		ldrb	r3, [r3]	@ zero_extendqisi2
 3936 0056 012B     		cmp	r3, #1
 3937 0058 01D8     		bhi	.L403
 3938              	.LVL521:
 3939              	.L389:
 400:../Switch/core/yt/yt_port.c ****     CMM_PARAM_CHK((!(YT_DISPATCH(unit)->is_inited)), CMM_ERR_NOT_INIT);
 3940              		.loc 1 400 5 discriminator 5 view .LVU1126
 400:../Switch/core/yt/yt_port.c ****     CMM_PARAM_CHK((!(YT_DISPATCH(unit)->is_inited)), CMM_ERR_NOT_INIT);
 3941              		.loc 1 400 5 discriminator 5 view .LVU1127
 400:../Switch/core/yt/yt_port.c ****     CMM_PARAM_CHK((!(YT_DISPATCH(unit)->is_inited)), CMM_ERR_NOT_INIT);
 3942              		.loc 1 400 5 discriminator 5 view .LVU1128
 3943 005a 0420     		movs	r0, #4
 3944 005c EAE7     		b	.L384
 3945              	.LVL522:
 3946              	.L403:
 400:../Switch/core/yt/yt_port.c ****     CMM_PARAM_CHK((!(YT_DISPATCH(unit)->is_inited)), CMM_ERR_NOT_INIT);
 3947              		.loc 1 400 5 discriminator 3 view .LVU1129
 3948              	.LBB78:
 400:../Switch/core/yt/yt_port.c ****     CMM_PARAM_CHK((!(YT_DISPATCH(unit)->is_inited)), CMM_ERR_NOT_INIT);
 3949              		.loc 1 400 5 discriminator 3 view .LVU1130
 3950 005e 1D4B     		ldr	r3, .L407+16
 3951 0060 1A69     		ldr	r2, [r3, #16]
 3952              	.LVL523:
 400:../Switch/core/yt/yt_port.c ****     CMM_PARAM_CHK((!(YT_DISPATCH(unit)->is_inited)), CMM_ERR_NOT_INIT);
 3953              		.loc 1 400 5 is_stmt 0 discriminator 3 view .LVU1131
 3954 0062 1D4B     		ldr	r3, .L407+20
 3955 0064 9968     		ldr	r1, [r3, #8]
 3956              	.LVL524:
 400:../Switch/core/yt/yt_port.c ****     CMM_PARAM_CHK((!(YT_DISPATCH(unit)->is_inited)), CMM_ERR_NOT_INIT);
 3957              		.loc 1 400 5 discriminator 3 view .LVU1132
 3958 0066 1D48     		ldr	r0, .L407+24
 3959              	.LVL525:
 400:../Switch/core/yt/yt_port.c ****     CMM_PARAM_CHK((!(YT_DISPATCH(unit)->is_inited)), CMM_ERR_NOT_INIT);
 3960              		.loc 1 400 5 discriminator 3 view .LVU1133
 3961 0068 FFF7FEFF 		bl	osal_printf
 3962              	.LVL526:
 3963 006c F5E7     		b	.L389
 3964              	.LVL527:
 3965              	.L400:
 400:../Switch/core/yt/yt_port.c ****     CMM_PARAM_CHK((!(YT_DISPATCH(unit)->is_inited)), CMM_ERR_NOT_INIT);
 3966              		.loc 1 400 5 discriminator 3 view .LVU1134
 3967              	.LBE78:
 401:../Switch/core/yt/yt_port.c ****     CMM_PARAM_CHK((!(CMM_PORT_VALID(unit, port))), CMM_ERR_PORT);
 3968              		.loc 1 401 5 is_stmt 1 discriminator 1 view .LVU1135
 401:../Switch/core/yt/yt_port.c ****     CMM_PARAM_CHK((!(CMM_PORT_VALID(unit, port))), CMM_ERR_PORT);
 3969              		.loc 1 401 5 discriminator 1 view .LVU1136
 3970 006e 184B     		ldr	r3, .L407+12
 3971 0070 1B78     		ldrb	r3, [r3]	@ zero_extendqisi2
 3972 0072 012B     		cmp	r3, #1
 3973 0074 01D8     		bhi	.L404
 3974              	.LVL528:
 3975              	.L391:
 401:../Switch/core/yt/yt_port.c ****     CMM_PARAM_CHK((!(CMM_PORT_VALID(unit, port))), CMM_ERR_PORT);
 3976              		.loc 1 401 5 discriminator 5 view .LVU1137
 401:../Switch/core/yt/yt_port.c ****     CMM_PARAM_CHK((!(CMM_PORT_VALID(unit, port))), CMM_ERR_PORT);
 3977              		.loc 1 401 5 discriminator 5 view .LVU1138
 401:../Switch/core/yt/yt_port.c ****     CMM_PARAM_CHK((!(CMM_PORT_VALID(unit, port))), CMM_ERR_PORT);
 3978              		.loc 1 401 5 discriminator 5 view .LVU1139
 3979 0076 0420     		movs	r0, #4
 3980 0078 DCE7     		b	.L384
 3981              	.LVL529:
 3982              	.L404:
 401:../Switch/core/yt/yt_port.c ****     CMM_PARAM_CHK((!(CMM_PORT_VALID(unit, port))), CMM_ERR_PORT);
 3983              		.loc 1 401 5 discriminator 3 view .LVU1140
 3984              	.LBB79:
 401:../Switch/core/yt/yt_port.c ****     CMM_PARAM_CHK((!(CMM_PORT_VALID(unit, port))), CMM_ERR_PORT);
 3985              		.loc 1 401 5 discriminator 3 view .LVU1141
 3986 007a 164B     		ldr	r3, .L407+16
 3987 007c 1A69     		ldr	r2, [r3, #16]
 3988              	.LVL530:
 401:../Switch/core/yt/yt_port.c ****     CMM_PARAM_CHK((!(CMM_PORT_VALID(unit, port))), CMM_ERR_PORT);
 3989              		.loc 1 401 5 is_stmt 0 discriminator 3 view .LVU1142
 3990 007e 164B     		ldr	r3, .L407+20
 3991 0080 9968     		ldr	r1, [r3, #8]
 3992              	.LVL531:
 401:../Switch/core/yt/yt_port.c ****     CMM_PARAM_CHK((!(CMM_PORT_VALID(unit, port))), CMM_ERR_PORT);
 3993              		.loc 1 401 5 discriminator 3 view .LVU1143
 3994 0082 1648     		ldr	r0, .L407+24
 3995 0084 FFF7FEFF 		bl	osal_printf
 3996              	.LVL532:
 3997 0088 F5E7     		b	.L391
 3998              	.LVL533:
 3999              	.L392:
 401:../Switch/core/yt/yt_port.c ****     CMM_PARAM_CHK((!(CMM_PORT_VALID(unit, port))), CMM_ERR_PORT);
 4000              		.loc 1 401 5 discriminator 3 view .LVU1144
 4001              	.LBE79:
 402:../Switch/core/yt/yt_port.c ****     CMM_PARAM_CHK((NULL == pEnable), CMM_ERR_NULL_POINT);
 4002              		.loc 1 402 5 is_stmt 1 discriminator 3 view .LVU1145
 402:../Switch/core/yt/yt_port.c ****     CMM_PARAM_CHK((NULL == pEnable), CMM_ERR_NULL_POINT);
 4003              		.loc 1 402 5 discriminator 3 view .LVU1146
 4004 008a 114B     		ldr	r3, .L407+12
 4005 008c 1B78     		ldrb	r3, [r3]	@ zero_extendqisi2
 4006 008e 012B     		cmp	r3, #1
 4007 0090 01D8     		bhi	.L405
 4008              	.LVL534:
 4009              	.L394:
 402:../Switch/core/yt/yt_port.c ****     CMM_PARAM_CHK((NULL == pEnable), CMM_ERR_NULL_POINT);
 4010              		.loc 1 402 5 discriminator 7 view .LVU1147
 402:../Switch/core/yt/yt_port.c ****     CMM_PARAM_CHK((NULL == pEnable), CMM_ERR_NULL_POINT);
 4011              		.loc 1 402 5 discriminator 7 view .LVU1148
 402:../Switch/core/yt/yt_port.c ****     CMM_PARAM_CHK((NULL == pEnable), CMM_ERR_NULL_POINT);
 4012              		.loc 1 402 5 discriminator 7 view .LVU1149
 4013 0092 0E20     		movs	r0, #14
 4014 0094 CEE7     		b	.L384
 4015              	.LVL535:
 4016              	.L405:
 402:../Switch/core/yt/yt_port.c ****     CMM_PARAM_CHK((NULL == pEnable), CMM_ERR_NULL_POINT);
 4017              		.loc 1 402 5 discriminator 5 view .LVU1150
 4018              	.LBB80:
 402:../Switch/core/yt/yt_port.c ****     CMM_PARAM_CHK((NULL == pEnable), CMM_ERR_NULL_POINT);
 4019              		.loc 1 402 5 discriminator 5 view .LVU1151
 4020 0096 0F4B     		ldr	r3, .L407+16
 4021 0098 9A6B     		ldr	r2, [r3, #56]
 4022              	.LVL536:
 402:../Switch/core/yt/yt_port.c ****     CMM_PARAM_CHK((NULL == pEnable), CMM_ERR_NULL_POINT);
 4023              		.loc 1 402 5 is_stmt 0 discriminator 5 view .LVU1152
 4024 009a 0F4B     		ldr	r3, .L407+20
 4025 009c 9968     		ldr	r1, [r3, #8]
 4026              	.LVL537:
 402:../Switch/core/yt/yt_port.c ****     CMM_PARAM_CHK((NULL == pEnable), CMM_ERR_NULL_POINT);
 4027              		.loc 1 402 5 discriminator 5 view .LVU1153
 4028 009e 0F48     		ldr	r0, .L407+24
 4029 00a0 FFF7FEFF 		bl	osal_printf
 4030              	.LVL538:
 4031 00a4 F5E7     		b	.L394
 4032              	.LVL539:
 4033              	.L401:
 402:../Switch/core/yt/yt_port.c ****     CMM_PARAM_CHK((NULL == pEnable), CMM_ERR_NULL_POINT);
 4034              		.loc 1 402 5 discriminator 5 view .LVU1154
 4035              	.LBE80:
 403:../Switch/core/yt/yt_port.c **** 
 4036              		.loc 1 403 5 is_stmt 1 discriminator 1 view .LVU1155
 403:../Switch/core/yt/yt_port.c **** 
 4037              		.loc 1 403 5 discriminator 1 view .LVU1156
 4038 00a6 0A4B     		ldr	r3, .L407+12
 4039 00a8 1B78     		ldrb	r3, [r3]	@ zero_extendqisi2
 4040 00aa 012B     		cmp	r3, #1
 4041 00ac 01D8     		bhi	.L406
 4042              	.LVL540:
 4043              	.L396:
 403:../Switch/core/yt/yt_port.c **** 
 4044              		.loc 1 403 5 discriminator 5 view .LVU1157
 403:../Switch/core/yt/yt_port.c **** 
 4045              		.loc 1 403 5 discriminator 5 view .LVU1158
 403:../Switch/core/yt/yt_port.c **** 
 4046              		.loc 1 403 5 discriminator 5 view .LVU1159
 4047 00ae 0220     		movs	r0, #2
 4048 00b0 C0E7     		b	.L384
 4049              	.LVL541:
 4050              	.L406:
 403:../Switch/core/yt/yt_port.c **** 
 4051              		.loc 1 403 5 discriminator 3 view .LVU1160
 4052              	.LBB81:
 403:../Switch/core/yt/yt_port.c **** 
 4053              		.loc 1 403 5 discriminator 3 view .LVU1161
 4054 00b2 084B     		ldr	r3, .L407+16
 4055 00b4 9A68     		ldr	r2, [r3, #8]
 4056              	.LVL542:
 403:../Switch/core/yt/yt_port.c **** 
 4057              		.loc 1 403 5 is_stmt 0 discriminator 3 view .LVU1162
 4058 00b6 084B     		ldr	r3, .L407+20
 4059 00b8 9968     		ldr	r1, [r3, #8]
 4060              	.LVL543:
 403:../Switch/core/yt/yt_port.c **** 
 4061              		.loc 1 403 5 discriminator 3 view .LVU1163
 4062 00ba 0848     		ldr	r0, .L407+24
 4063 00bc FFF7FEFF 		bl	osal_printf
 4064              	.LVL544:
 4065 00c0 F5E7     		b	.L396
 4066              	.L408:
 4067 00c2 00BF     		.align	2
 4068              	.L407:
 4069 00c4 00000000 		.word	gpfal_dispatch
 4070 00c8 00000000 		.word	gcal_inited
 4071 00cc 00000000 		.word	gpSwitchUnit
 4072 00d0 00000000 		.word	yt_debug_level
 4073 00d4 00000000 		.word	_yt_errmsg
 4074 00d8 00000000 		.word	_yt_prompt_msg
 4075 00dc 00000000 		.word	.LC0
 4076              	.LBE81:
 4077              		.cfi_endproc
 4078              	.LFE19:
 4080              		.section	.text.yt_port_extif_mode_set,"ax",%progbits
 4081              		.align	1
 4082              		.global	yt_port_extif_mode_set
 4083              		.syntax unified
 4084              		.thumb
 4085              		.thumb_func
 4087              	yt_port_extif_mode_set:
 4088              	.LVL545:
 4089              	.LFB20:
 407:../Switch/core/yt/yt_port.c **** 
 408:../Switch/core/yt/yt_port.c **** /**
 409:../Switch/core/yt/yt_port.c ****  * @internal      yt_port_extif_mode_set
 410:../Switch/core/yt/yt_port.c ****  * @endinternal
 411:../Switch/core/yt/yt_port.c ****  *
 412:../Switch/core/yt/yt_port.c ****  * @brief         Description
 413:../Switch/core/yt/yt_port.c ****  * @note          APPLICABLE DEVICES  -Tiger
 414:../Switch/core/yt/yt_port.c ****  * @param[in]     unit                -unit id
 415:../Switch/core/yt/yt_port.c ****  * @param[in]     port                -port num
 416:../Switch/core/yt/yt_port.c ****  * @param[in]     mode                -x
 417:../Switch/core/yt/yt_port.c ****  * @retval        CMM_ERR_OK          -on success
 418:../Switch/core/yt/yt_port.c ****  * @retval        CMM_ERR_FAIL        -on fail
 419:../Switch/core/yt/yt_port.c ****  */
 420:../Switch/core/yt/yt_port.c **** yt_ret_t yt_port_extif_mode_set(yt_unit_t unit, yt_port_t port, yt_extif_mode_t mode)
 421:../Switch/core/yt/yt_port.c **** {
 4090              		.loc 1 421 1 is_stmt 1 view -0
 4091              		.cfi_startproc
 4092              		@ args = 0, pretend = 0, frame = 0
 4093              		@ frame_needed = 0, uses_anonymous_args = 0
 4094              		.loc 1 421 1 is_stmt 0 view .LVU1165
 4095 0000 08B5     		push	{r3, lr}
 4096              		.cfi_def_cfa_offset 8
 4097              		.cfi_offset 3, -8
 4098              		.cfi_offset 14, -4
 422:../Switch/core/yt/yt_port.c ****     CMM_PARAM_CHK((YT_UNIT_NUM <= unit), CMM_ERR_INPUT);
 4099              		.loc 1 422 5 is_stmt 1 view .LVU1166
 4100              		.loc 1 422 5 view .LVU1167
 4101 0002 C0B9     		cbnz	r0, .L423
 4102 0004 8446     		mov	ip, r0
 4103              		.loc 1 422 5 discriminator 2 view .LVU1168
 423:../Switch/core/yt/yt_port.c ****     CMM_PARAM_CHK(NULL == YT_DISPATCH(unit), CMM_ERR_NOT_INIT);
 4104              		.loc 1 423 5 discriminator 2 view .LVU1169
 4105              		.loc 1 423 5 discriminator 2 view .LVU1170
 4106 0006 2F4B     		ldr	r3, .L432
 4107 0008 53F82030 		ldr	r3, [r3, r0, lsl #2]
 4108 000c 0BB3     		cbz	r3, .L424
 4109              		.loc 1 423 5 discriminator 2 view .LVU1171
 424:../Switch/core/yt/yt_port.c ****     CMM_PARAM_CHK((!(YT_DISPATCH(unit)->is_inited)), CMM_ERR_NOT_INIT);
 4110              		.loc 1 424 5 discriminator 2 view .LVU1172
 4111              		.loc 1 424 5 discriminator 2 view .LVU1173
 4112 000e 1878     		ldrb	r0, [r3]	@ zero_extendqisi2
 4113              	.LVL546:
 4114              		.loc 1 424 5 is_stmt 0 discriminator 2 view .LVU1174
 4115 0010 0028     		cmp	r0, #0
 4116 0012 2CD0     		beq	.L425
 4117              		.loc 1 424 5 is_stmt 1 discriminator 2 view .LVU1175
 425:../Switch/core/yt/yt_port.c ****     CMM_PARAM_CHK((!(CMM_PORT_VALID(unit, port))), CMM_ERR_PORT);
 4118              		.loc 1 425 5 discriminator 2 view .LVU1176
 4119              		.loc 1 425 5 discriminator 2 view .LVU1177
 4120 0014 2C48     		ldr	r0, .L432+4
 4121 0016 0078     		ldrb	r0, [r0]	@ zero_extendqisi2
 4122 0018 0028     		cmp	r0, #0
 4123 001a 36D0     		beq	.L417
 4124 001c 2B48     		ldr	r0, .L432+8
 4125 001e 50F82C00 		ldr	r0, [r0, ip, lsl #2]
 4126 0022 007D     		ldrb	r0, [r0, #20]	@ zero_extendqisi2
 4127 0024 8842     		cmp	r0, r1
 4128 0026 30D9     		bls	.L417
 4129              		.loc 1 425 5 discriminator 4 view .LVU1178
 426:../Switch/core/yt/yt_port.c ****     CMM_PARAM_CHK((YT_EXTIF_MODE_SGFIB_AS < mode || YT_EXTIF_MODE_MII > mode), CMM_ERR_INPUT);
 4130              		.loc 1 426 5 discriminator 4 view .LVU1179
 4131              		.loc 1 426 5 discriminator 4 view .LVU1180
 4132 0028 0B2A     		cmp	r2, #11
 4133 002a 3CD8     		bhi	.L426
 4134              		.loc 1 426 5 discriminator 2 view .LVU1181
 427:../Switch/core/yt/yt_port.c **** 
 428:../Switch/core/yt/yt_port.c ****     return YT_DISPATCH(unit)->port_extif_mode_set(unit, port, mode);
 4135              		.loc 1 428 5 discriminator 2 view .LVU1182
 4136              		.loc 1 428 29 is_stmt 0 discriminator 2 view .LVU1183
 4137 002c D3F89435 		ldr	r3, [r3, #1428]
 4138              		.loc 1 428 12 discriminator 2 view .LVU1184
 4139 0030 6046     		mov	r0, ip
 4140 0032 9847     		blx	r3
 4141              	.LVL547:
 4142              	.L409:
 429:../Switch/core/yt/yt_port.c **** }
 4143              		.loc 1 429 1 view .LVU1185
 4144 0034 08BD     		pop	{r3, pc}
 4145              	.LVL548:
 4146              	.L423:
 422:../Switch/core/yt/yt_port.c ****     CMM_PARAM_CHK(NULL == YT_DISPATCH(unit), CMM_ERR_NOT_INIT);
 4147              		.loc 1 422 5 is_stmt 1 discriminator 1 view .LVU1186
 422:../Switch/core/yt/yt_port.c ****     CMM_PARAM_CHK(NULL == YT_DISPATCH(unit), CMM_ERR_NOT_INIT);
 4148              		.loc 1 422 5 discriminator 1 view .LVU1187
 4149 0036 264B     		ldr	r3, .L432+12
 4150 0038 1B78     		ldrb	r3, [r3]	@ zero_extendqisi2
 4151 003a 012B     		cmp	r3, #1
 4152 003c 01D8     		bhi	.L427
 4153              	.LVL549:
 4154              	.L411:
 422:../Switch/core/yt/yt_port.c ****     CMM_PARAM_CHK(NULL == YT_DISPATCH(unit), CMM_ERR_NOT_INIT);
 4155              		.loc 1 422 5 discriminator 5 view .LVU1188
 422:../Switch/core/yt/yt_port.c ****     CMM_PARAM_CHK(NULL == YT_DISPATCH(unit), CMM_ERR_NOT_INIT);
 4156              		.loc 1 422 5 discriminator 5 view .LVU1189
 422:../Switch/core/yt/yt_port.c ****     CMM_PARAM_CHK(NULL == YT_DISPATCH(unit), CMM_ERR_NOT_INIT);
 4157              		.loc 1 422 5 discriminator 5 view .LVU1190
 4158 003e 0520     		movs	r0, #5
 4159 0040 F8E7     		b	.L409
 4160              	.LVL550:
 4161              	.L427:
 422:../Switch/core/yt/yt_port.c ****     CMM_PARAM_CHK(NULL == YT_DISPATCH(unit), CMM_ERR_NOT_INIT);
 4162              		.loc 1 422 5 discriminator 3 view .LVU1191
 4163              	.LBB82:
 422:../Switch/core/yt/yt_port.c ****     CMM_PARAM_CHK(NULL == YT_DISPATCH(unit), CMM_ERR_NOT_INIT);
 4164              		.loc 1 422 5 discriminator 3 view .LVU1192
 4165 0042 244B     		ldr	r3, .L432+16
 4166 0044 5A69     		ldr	r2, [r3, #20]
 4167              	.LVL551:
 422:../Switch/core/yt/yt_port.c ****     CMM_PARAM_CHK(NULL == YT_DISPATCH(unit), CMM_ERR_NOT_INIT);
 4168              		.loc 1 422 5 is_stmt 0 discriminator 3 view .LVU1193
 4169 0046 244B     		ldr	r3, .L432+20
 4170 0048 9968     		ldr	r1, [r3, #8]
 4171              	.LVL552:
 422:../Switch/core/yt/yt_port.c ****     CMM_PARAM_CHK(NULL == YT_DISPATCH(unit), CMM_ERR_NOT_INIT);
 4172              		.loc 1 422 5 discriminator 3 view .LVU1194
 4173 004a 2448     		ldr	r0, .L432+24
 4174              	.LVL553:
 422:../Switch/core/yt/yt_port.c ****     CMM_PARAM_CHK(NULL == YT_DISPATCH(unit), CMM_ERR_NOT_INIT);
 4175              		.loc 1 422 5 discriminator 3 view .LVU1195
 4176 004c FFF7FEFF 		bl	osal_printf
 4177              	.LVL554:
 4178 0050 F5E7     		b	.L411
 4179              	.LVL555:
 4180              	.L424:
 422:../Switch/core/yt/yt_port.c ****     CMM_PARAM_CHK(NULL == YT_DISPATCH(unit), CMM_ERR_NOT_INIT);
 4181              		.loc 1 422 5 discriminator 3 view .LVU1196
 4182              	.LBE82:
 423:../Switch/core/yt/yt_port.c ****     CMM_PARAM_CHK((!(YT_DISPATCH(unit)->is_inited)), CMM_ERR_NOT_INIT);
 4183              		.loc 1 423 5 is_stmt 1 discriminator 1 view .LVU1197
 423:../Switch/core/yt/yt_port.c ****     CMM_PARAM_CHK((!(YT_DISPATCH(unit)->is_inited)), CMM_ERR_NOT_INIT);
 4184              		.loc 1 423 5 discriminator 1 view .LVU1198
 4185 0052 1F4B     		ldr	r3, .L432+12
 4186 0054 1B78     		ldrb	r3, [r3]	@ zero_extendqisi2
 4187 0056 012B     		cmp	r3, #1
 4188 0058 01D8     		bhi	.L428
 4189              	.LVL556:
 4190              	.L414:
 423:../Switch/core/yt/yt_port.c ****     CMM_PARAM_CHK((!(YT_DISPATCH(unit)->is_inited)), CMM_ERR_NOT_INIT);
 4191              		.loc 1 423 5 discriminator 5 view .LVU1199
 423:../Switch/core/yt/yt_port.c ****     CMM_PARAM_CHK((!(YT_DISPATCH(unit)->is_inited)), CMM_ERR_NOT_INIT);
 4192              		.loc 1 423 5 discriminator 5 view .LVU1200
 423:../Switch/core/yt/yt_port.c ****     CMM_PARAM_CHK((!(YT_DISPATCH(unit)->is_inited)), CMM_ERR_NOT_INIT);
 4193              		.loc 1 423 5 discriminator 5 view .LVU1201
 4194 005a 0420     		movs	r0, #4
 4195 005c EAE7     		b	.L409
 4196              	.LVL557:
 4197              	.L428:
 423:../Switch/core/yt/yt_port.c ****     CMM_PARAM_CHK((!(YT_DISPATCH(unit)->is_inited)), CMM_ERR_NOT_INIT);
 4198              		.loc 1 423 5 discriminator 3 view .LVU1202
 4199              	.LBB83:
 423:../Switch/core/yt/yt_port.c ****     CMM_PARAM_CHK((!(YT_DISPATCH(unit)->is_inited)), CMM_ERR_NOT_INIT);
 4200              		.loc 1 423 5 discriminator 3 view .LVU1203
 4201 005e 1D4B     		ldr	r3, .L432+16
 4202 0060 1A69     		ldr	r2, [r3, #16]
 4203              	.LVL558:
 423:../Switch/core/yt/yt_port.c ****     CMM_PARAM_CHK((!(YT_DISPATCH(unit)->is_inited)), CMM_ERR_NOT_INIT);
 4204              		.loc 1 423 5 is_stmt 0 discriminator 3 view .LVU1204
 4205 0062 1D4B     		ldr	r3, .L432+20
 4206 0064 9968     		ldr	r1, [r3, #8]
 4207              	.LVL559:
 423:../Switch/core/yt/yt_port.c ****     CMM_PARAM_CHK((!(YT_DISPATCH(unit)->is_inited)), CMM_ERR_NOT_INIT);
 4208              		.loc 1 423 5 discriminator 3 view .LVU1205
 4209 0066 1D48     		ldr	r0, .L432+24
 4210              	.LVL560:
 423:../Switch/core/yt/yt_port.c ****     CMM_PARAM_CHK((!(YT_DISPATCH(unit)->is_inited)), CMM_ERR_NOT_INIT);
 4211              		.loc 1 423 5 discriminator 3 view .LVU1206
 4212 0068 FFF7FEFF 		bl	osal_printf
 4213              	.LVL561:
 4214 006c F5E7     		b	.L414
 4215              	.LVL562:
 4216              	.L425:
 423:../Switch/core/yt/yt_port.c ****     CMM_PARAM_CHK((!(YT_DISPATCH(unit)->is_inited)), CMM_ERR_NOT_INIT);
 4217              		.loc 1 423 5 discriminator 3 view .LVU1207
 4218              	.LBE83:
 424:../Switch/core/yt/yt_port.c ****     CMM_PARAM_CHK((!(CMM_PORT_VALID(unit, port))), CMM_ERR_PORT);
 4219              		.loc 1 424 5 is_stmt 1 discriminator 1 view .LVU1208
 424:../Switch/core/yt/yt_port.c ****     CMM_PARAM_CHK((!(CMM_PORT_VALID(unit, port))), CMM_ERR_PORT);
 4220              		.loc 1 424 5 discriminator 1 view .LVU1209
 4221 006e 184B     		ldr	r3, .L432+12
 4222 0070 1B78     		ldrb	r3, [r3]	@ zero_extendqisi2
 4223 0072 012B     		cmp	r3, #1
 4224 0074 01D8     		bhi	.L429
 4225              	.LVL563:
 4226              	.L416:
 424:../Switch/core/yt/yt_port.c ****     CMM_PARAM_CHK((!(CMM_PORT_VALID(unit, port))), CMM_ERR_PORT);
 4227              		.loc 1 424 5 discriminator 5 view .LVU1210
 424:../Switch/core/yt/yt_port.c ****     CMM_PARAM_CHK((!(CMM_PORT_VALID(unit, port))), CMM_ERR_PORT);
 4228              		.loc 1 424 5 discriminator 5 view .LVU1211
 424:../Switch/core/yt/yt_port.c ****     CMM_PARAM_CHK((!(CMM_PORT_VALID(unit, port))), CMM_ERR_PORT);
 4229              		.loc 1 424 5 discriminator 5 view .LVU1212
 4230 0076 0420     		movs	r0, #4
 4231 0078 DCE7     		b	.L409
 4232              	.LVL564:
 4233              	.L429:
 424:../Switch/core/yt/yt_port.c ****     CMM_PARAM_CHK((!(CMM_PORT_VALID(unit, port))), CMM_ERR_PORT);
 4234              		.loc 1 424 5 discriminator 3 view .LVU1213
 4235              	.LBB84:
 424:../Switch/core/yt/yt_port.c ****     CMM_PARAM_CHK((!(CMM_PORT_VALID(unit, port))), CMM_ERR_PORT);
 4236              		.loc 1 424 5 discriminator 3 view .LVU1214
 4237 007a 164B     		ldr	r3, .L432+16
 4238 007c 1A69     		ldr	r2, [r3, #16]
 4239              	.LVL565:
 424:../Switch/core/yt/yt_port.c ****     CMM_PARAM_CHK((!(CMM_PORT_VALID(unit, port))), CMM_ERR_PORT);
 4240              		.loc 1 424 5 is_stmt 0 discriminator 3 view .LVU1215
 4241 007e 164B     		ldr	r3, .L432+20
 4242 0080 9968     		ldr	r1, [r3, #8]
 4243              	.LVL566:
 424:../Switch/core/yt/yt_port.c ****     CMM_PARAM_CHK((!(CMM_PORT_VALID(unit, port))), CMM_ERR_PORT);
 4244              		.loc 1 424 5 discriminator 3 view .LVU1216
 4245 0082 1648     		ldr	r0, .L432+24
 4246 0084 FFF7FEFF 		bl	osal_printf
 4247              	.LVL567:
 4248 0088 F5E7     		b	.L416
 4249              	.LVL568:
 4250              	.L417:
 424:../Switch/core/yt/yt_port.c ****     CMM_PARAM_CHK((!(CMM_PORT_VALID(unit, port))), CMM_ERR_PORT);
 4251              		.loc 1 424 5 discriminator 3 view .LVU1217
 4252              	.LBE84:
 425:../Switch/core/yt/yt_port.c ****     CMM_PARAM_CHK((YT_EXTIF_MODE_SGFIB_AS < mode || YT_EXTIF_MODE_MII > mode), CMM_ERR_INPUT);
 4253              		.loc 1 425 5 is_stmt 1 discriminator 3 view .LVU1218
 425:../Switch/core/yt/yt_port.c ****     CMM_PARAM_CHK((YT_EXTIF_MODE_SGFIB_AS < mode || YT_EXTIF_MODE_MII > mode), CMM_ERR_INPUT);
 4254              		.loc 1 425 5 discriminator 3 view .LVU1219
 4255 008a 114B     		ldr	r3, .L432+12
 4256 008c 1B78     		ldrb	r3, [r3]	@ zero_extendqisi2
 4257 008e 012B     		cmp	r3, #1
 4258 0090 01D8     		bhi	.L430
 4259              	.LVL569:
 4260              	.L419:
 425:../Switch/core/yt/yt_port.c ****     CMM_PARAM_CHK((YT_EXTIF_MODE_SGFIB_AS < mode || YT_EXTIF_MODE_MII > mode), CMM_ERR_INPUT);
 4261              		.loc 1 425 5 discriminator 7 view .LVU1220
 425:../Switch/core/yt/yt_port.c ****     CMM_PARAM_CHK((YT_EXTIF_MODE_SGFIB_AS < mode || YT_EXTIF_MODE_MII > mode), CMM_ERR_INPUT);
 4262              		.loc 1 425 5 discriminator 7 view .LVU1221
 425:../Switch/core/yt/yt_port.c ****     CMM_PARAM_CHK((YT_EXTIF_MODE_SGFIB_AS < mode || YT_EXTIF_MODE_MII > mode), CMM_ERR_INPUT);
 4263              		.loc 1 425 5 discriminator 7 view .LVU1222
 4264 0092 0E20     		movs	r0, #14
 4265 0094 CEE7     		b	.L409
 4266              	.LVL570:
 4267              	.L430:
 425:../Switch/core/yt/yt_port.c ****     CMM_PARAM_CHK((YT_EXTIF_MODE_SGFIB_AS < mode || YT_EXTIF_MODE_MII > mode), CMM_ERR_INPUT);
 4268              		.loc 1 425 5 discriminator 5 view .LVU1223
 4269              	.LBB85:
 425:../Switch/core/yt/yt_port.c ****     CMM_PARAM_CHK((YT_EXTIF_MODE_SGFIB_AS < mode || YT_EXTIF_MODE_MII > mode), CMM_ERR_INPUT);
 4270              		.loc 1 425 5 discriminator 5 view .LVU1224
 4271 0096 0F4B     		ldr	r3, .L432+16
 4272 0098 9A6B     		ldr	r2, [r3, #56]
 4273              	.LVL571:
 425:../Switch/core/yt/yt_port.c ****     CMM_PARAM_CHK((YT_EXTIF_MODE_SGFIB_AS < mode || YT_EXTIF_MODE_MII > mode), CMM_ERR_INPUT);
 4274              		.loc 1 425 5 is_stmt 0 discriminator 5 view .LVU1225
 4275 009a 0F4B     		ldr	r3, .L432+20
 4276 009c 9968     		ldr	r1, [r3, #8]
 4277              	.LVL572:
 425:../Switch/core/yt/yt_port.c ****     CMM_PARAM_CHK((YT_EXTIF_MODE_SGFIB_AS < mode || YT_EXTIF_MODE_MII > mode), CMM_ERR_INPUT);
 4278              		.loc 1 425 5 discriminator 5 view .LVU1226
 4279 009e 0F48     		ldr	r0, .L432+24
 4280 00a0 FFF7FEFF 		bl	osal_printf
 4281              	.LVL573:
 4282 00a4 F5E7     		b	.L419
 4283              	.LVL574:
 4284              	.L426:
 425:../Switch/core/yt/yt_port.c ****     CMM_PARAM_CHK((YT_EXTIF_MODE_SGFIB_AS < mode || YT_EXTIF_MODE_MII > mode), CMM_ERR_INPUT);
 4285              		.loc 1 425 5 discriminator 5 view .LVU1227
 4286              	.LBE85:
 426:../Switch/core/yt/yt_port.c **** 
 4287              		.loc 1 426 5 is_stmt 1 discriminator 1 view .LVU1228
 426:../Switch/core/yt/yt_port.c **** 
 4288              		.loc 1 426 5 discriminator 1 view .LVU1229
 4289 00a6 0A4B     		ldr	r3, .L432+12
 4290 00a8 1B78     		ldrb	r3, [r3]	@ zero_extendqisi2
 4291 00aa 012B     		cmp	r3, #1
 4292 00ac 01D8     		bhi	.L431
 4293              	.LVL575:
 4294              	.L421:
 426:../Switch/core/yt/yt_port.c **** 
 4295              		.loc 1 426 5 discriminator 5 view .LVU1230
 426:../Switch/core/yt/yt_port.c **** 
 4296              		.loc 1 426 5 discriminator 5 view .LVU1231
 426:../Switch/core/yt/yt_port.c **** 
 4297              		.loc 1 426 5 discriminator 5 view .LVU1232
 4298 00ae 0520     		movs	r0, #5
 4299 00b0 C0E7     		b	.L409
 4300              	.LVL576:
 4301              	.L431:
 426:../Switch/core/yt/yt_port.c **** 
 4302              		.loc 1 426 5 discriminator 3 view .LVU1233
 4303              	.LBB86:
 426:../Switch/core/yt/yt_port.c **** 
 4304              		.loc 1 426 5 discriminator 3 view .LVU1234
 4305 00b2 084B     		ldr	r3, .L432+16
 4306 00b4 5A69     		ldr	r2, [r3, #20]
 4307              	.LVL577:
 426:../Switch/core/yt/yt_port.c **** 
 4308              		.loc 1 426 5 is_stmt 0 discriminator 3 view .LVU1235
 4309 00b6 084B     		ldr	r3, .L432+20
 4310 00b8 9968     		ldr	r1, [r3, #8]
 4311              	.LVL578:
 426:../Switch/core/yt/yt_port.c **** 
 4312              		.loc 1 426 5 discriminator 3 view .LVU1236
 4313 00ba 0848     		ldr	r0, .L432+24
 4314 00bc FFF7FEFF 		bl	osal_printf
 4315              	.LVL579:
 4316 00c0 F5E7     		b	.L421
 4317              	.L433:
 4318 00c2 00BF     		.align	2
 4319              	.L432:
 4320 00c4 00000000 		.word	gpfal_dispatch
 4321 00c8 00000000 		.word	gcal_inited
 4322 00cc 00000000 		.word	gpSwitchUnit
 4323 00d0 00000000 		.word	yt_debug_level
 4324 00d4 00000000 		.word	_yt_errmsg
 4325 00d8 00000000 		.word	_yt_prompt_msg
 4326 00dc 00000000 		.word	.LC0
 4327              	.LBE86:
 4328              		.cfi_endproc
 4329              	.LFE20:
 4331              		.section	.text.yt_port_extif_mode_get,"ax",%progbits
 4332              		.align	1
 4333              		.global	yt_port_extif_mode_get
 4334              		.syntax unified
 4335              		.thumb
 4336              		.thumb_func
 4338              	yt_port_extif_mode_get:
 4339              	.LVL580:
 4340              	.LFB21:
 430:../Switch/core/yt/yt_port.c **** 
 431:../Switch/core/yt/yt_port.c **** /**
 432:../Switch/core/yt/yt_port.c ****  * @internal      yt_port_extif_mode_get
 433:../Switch/core/yt/yt_port.c ****  * @endinternal
 434:../Switch/core/yt/yt_port.c ****  *
 435:../Switch/core/yt/yt_port.c ****  * @brief         Description
 436:../Switch/core/yt/yt_port.c ****  * @note          APPLICABLE DEVICES  -Tiger
 437:../Switch/core/yt/yt_port.c ****  * @param[in]     unit                -unit id
 438:../Switch/core/yt/yt_port.c ****  * @param[in]     port                -port num
 439:../Switch/core/yt/yt_port.c ****  * @param[out]    pMode               -x
 440:../Switch/core/yt/yt_port.c ****  * @retval        CMM_ERR_OK          -on success
 441:../Switch/core/yt/yt_port.c ****  * @retval        CMM_ERR_FAIL        -on fail
 442:../Switch/core/yt/yt_port.c ****  */
 443:../Switch/core/yt/yt_port.c **** yt_ret_t yt_port_extif_mode_get(yt_unit_t unit, yt_port_t port, yt_extif_mode_t *pMode)
 444:../Switch/core/yt/yt_port.c **** {
 4341              		.loc 1 444 1 is_stmt 1 view -0
 4342              		.cfi_startproc
 4343              		@ args = 0, pretend = 0, frame = 0
 4344              		@ frame_needed = 0, uses_anonymous_args = 0
 4345              		.loc 1 444 1 is_stmt 0 view .LVU1238
 4346 0000 08B5     		push	{r3, lr}
 4347              		.cfi_def_cfa_offset 8
 4348              		.cfi_offset 3, -8
 4349              		.cfi_offset 14, -4
 445:../Switch/core/yt/yt_port.c ****     CMM_PARAM_CHK((YT_UNIT_NUM <= unit), CMM_ERR_INPUT);
 4350              		.loc 1 445 5 is_stmt 1 view .LVU1239
 4351              		.loc 1 445 5 view .LVU1240
 4352 0002 C0B9     		cbnz	r0, .L448
 4353 0004 8446     		mov	ip, r0
 4354              		.loc 1 445 5 discriminator 2 view .LVU1241
 446:../Switch/core/yt/yt_port.c ****     CMM_PARAM_CHK(NULL == YT_DISPATCH(unit), CMM_ERR_NOT_INIT);
 4355              		.loc 1 446 5 discriminator 2 view .LVU1242
 4356              		.loc 1 446 5 discriminator 2 view .LVU1243
 4357 0006 2F4B     		ldr	r3, .L457
 4358 0008 53F82030 		ldr	r3, [r3, r0, lsl #2]
 4359 000c 0BB3     		cbz	r3, .L449
 4360              		.loc 1 446 5 discriminator 2 view .LVU1244
 447:../Switch/core/yt/yt_port.c ****     CMM_PARAM_CHK((!(YT_DISPATCH(unit)->is_inited)), CMM_ERR_NOT_INIT);
 4361              		.loc 1 447 5 discriminator 2 view .LVU1245
 4362              		.loc 1 447 5 discriminator 2 view .LVU1246
 4363 000e 1878     		ldrb	r0, [r3]	@ zero_extendqisi2
 4364              	.LVL581:
 4365              		.loc 1 447 5 is_stmt 0 discriminator 2 view .LVU1247
 4366 0010 0028     		cmp	r0, #0
 4367 0012 2CD0     		beq	.L450
 4368              		.loc 1 447 5 is_stmt 1 discriminator 2 view .LVU1248
 448:../Switch/core/yt/yt_port.c ****     CMM_PARAM_CHK((!(CMM_PORT_VALID(unit, port))), CMM_ERR_PORT);
 4369              		.loc 1 448 5 discriminator 2 view .LVU1249
 4370              		.loc 1 448 5 discriminator 2 view .LVU1250
 4371 0014 2C48     		ldr	r0, .L457+4
 4372 0016 0078     		ldrb	r0, [r0]	@ zero_extendqisi2
 4373 0018 0028     		cmp	r0, #0
 4374 001a 36D0     		beq	.L442
 4375 001c 2B48     		ldr	r0, .L457+8
 4376 001e 50F82C00 		ldr	r0, [r0, ip, lsl #2]
 4377 0022 007D     		ldrb	r0, [r0, #20]	@ zero_extendqisi2
 4378 0024 8842     		cmp	r0, r1
 4379 0026 30D9     		bls	.L442
 4380              		.loc 1 448 5 discriminator 4 view .LVU1251
 449:../Switch/core/yt/yt_port.c ****     CMM_PARAM_CHK((NULL == pMode), CMM_ERR_NULL_POINT);
 4381              		.loc 1 449 5 discriminator 4 view .LVU1252
 4382              		.loc 1 449 5 discriminator 4 view .LVU1253
 4383 0028 002A     		cmp	r2, #0
 4384 002a 3CD0     		beq	.L451
 4385              		.loc 1 449 5 discriminator 2 view .LVU1254
 450:../Switch/core/yt/yt_port.c **** 
 451:../Switch/core/yt/yt_port.c ****     return YT_DISPATCH(unit)->port_extif_mode_get(unit, port, pMode);
 4386              		.loc 1 451 5 discriminator 2 view .LVU1255
 4387              		.loc 1 451 29 is_stmt 0 discriminator 2 view .LVU1256
 4388 002c D3F89835 		ldr	r3, [r3, #1432]
 4389              		.loc 1 451 12 discriminator 2 view .LVU1257
 4390 0030 6046     		mov	r0, ip
 4391 0032 9847     		blx	r3
 4392              	.LVL582:
 4393              	.L434:
 452:../Switch/core/yt/yt_port.c **** }
 4394              		.loc 1 452 1 view .LVU1258
 4395 0034 08BD     		pop	{r3, pc}
 4396              	.LVL583:
 4397              	.L448:
 445:../Switch/core/yt/yt_port.c ****     CMM_PARAM_CHK(NULL == YT_DISPATCH(unit), CMM_ERR_NOT_INIT);
 4398              		.loc 1 445 5 is_stmt 1 discriminator 1 view .LVU1259
 445:../Switch/core/yt/yt_port.c ****     CMM_PARAM_CHK(NULL == YT_DISPATCH(unit), CMM_ERR_NOT_INIT);
 4399              		.loc 1 445 5 discriminator 1 view .LVU1260
 4400 0036 264B     		ldr	r3, .L457+12
 4401 0038 1B78     		ldrb	r3, [r3]	@ zero_extendqisi2
 4402 003a 012B     		cmp	r3, #1
 4403 003c 01D8     		bhi	.L452
 4404              	.LVL584:
 4405              	.L436:
 445:../Switch/core/yt/yt_port.c ****     CMM_PARAM_CHK(NULL == YT_DISPATCH(unit), CMM_ERR_NOT_INIT);
 4406              		.loc 1 445 5 discriminator 5 view .LVU1261
 445:../Switch/core/yt/yt_port.c ****     CMM_PARAM_CHK(NULL == YT_DISPATCH(unit), CMM_ERR_NOT_INIT);
 4407              		.loc 1 445 5 discriminator 5 view .LVU1262
 445:../Switch/core/yt/yt_port.c ****     CMM_PARAM_CHK(NULL == YT_DISPATCH(unit), CMM_ERR_NOT_INIT);
 4408              		.loc 1 445 5 discriminator 5 view .LVU1263
 4409 003e 0520     		movs	r0, #5
 4410 0040 F8E7     		b	.L434
 4411              	.LVL585:
 4412              	.L452:
 445:../Switch/core/yt/yt_port.c ****     CMM_PARAM_CHK(NULL == YT_DISPATCH(unit), CMM_ERR_NOT_INIT);
 4413              		.loc 1 445 5 discriminator 3 view .LVU1264
 4414              	.LBB87:
 445:../Switch/core/yt/yt_port.c ****     CMM_PARAM_CHK(NULL == YT_DISPATCH(unit), CMM_ERR_NOT_INIT);
 4415              		.loc 1 445 5 discriminator 3 view .LVU1265
 4416 0042 244B     		ldr	r3, .L457+16
 4417 0044 5A69     		ldr	r2, [r3, #20]
 4418              	.LVL586:
 445:../Switch/core/yt/yt_port.c ****     CMM_PARAM_CHK(NULL == YT_DISPATCH(unit), CMM_ERR_NOT_INIT);
 4419              		.loc 1 445 5 is_stmt 0 discriminator 3 view .LVU1266
 4420 0046 244B     		ldr	r3, .L457+20
 4421 0048 9968     		ldr	r1, [r3, #8]
 4422              	.LVL587:
 445:../Switch/core/yt/yt_port.c ****     CMM_PARAM_CHK(NULL == YT_DISPATCH(unit), CMM_ERR_NOT_INIT);
 4423              		.loc 1 445 5 discriminator 3 view .LVU1267
 4424 004a 2448     		ldr	r0, .L457+24
 4425              	.LVL588:
 445:../Switch/core/yt/yt_port.c ****     CMM_PARAM_CHK(NULL == YT_DISPATCH(unit), CMM_ERR_NOT_INIT);
 4426              		.loc 1 445 5 discriminator 3 view .LVU1268
 4427 004c FFF7FEFF 		bl	osal_printf
 4428              	.LVL589:
 4429 0050 F5E7     		b	.L436
 4430              	.LVL590:
 4431              	.L449:
 445:../Switch/core/yt/yt_port.c ****     CMM_PARAM_CHK(NULL == YT_DISPATCH(unit), CMM_ERR_NOT_INIT);
 4432              		.loc 1 445 5 discriminator 3 view .LVU1269
 4433              	.LBE87:
 446:../Switch/core/yt/yt_port.c ****     CMM_PARAM_CHK((!(YT_DISPATCH(unit)->is_inited)), CMM_ERR_NOT_INIT);
 4434              		.loc 1 446 5 is_stmt 1 discriminator 1 view .LVU1270
 446:../Switch/core/yt/yt_port.c ****     CMM_PARAM_CHK((!(YT_DISPATCH(unit)->is_inited)), CMM_ERR_NOT_INIT);
 4435              		.loc 1 446 5 discriminator 1 view .LVU1271
 4436 0052 1F4B     		ldr	r3, .L457+12
 4437 0054 1B78     		ldrb	r3, [r3]	@ zero_extendqisi2
 4438 0056 012B     		cmp	r3, #1
 4439 0058 01D8     		bhi	.L453
 4440              	.LVL591:
 4441              	.L439:
 446:../Switch/core/yt/yt_port.c ****     CMM_PARAM_CHK((!(YT_DISPATCH(unit)->is_inited)), CMM_ERR_NOT_INIT);
 4442              		.loc 1 446 5 discriminator 5 view .LVU1272
 446:../Switch/core/yt/yt_port.c ****     CMM_PARAM_CHK((!(YT_DISPATCH(unit)->is_inited)), CMM_ERR_NOT_INIT);
 4443              		.loc 1 446 5 discriminator 5 view .LVU1273
 446:../Switch/core/yt/yt_port.c ****     CMM_PARAM_CHK((!(YT_DISPATCH(unit)->is_inited)), CMM_ERR_NOT_INIT);
 4444              		.loc 1 446 5 discriminator 5 view .LVU1274
 4445 005a 0420     		movs	r0, #4
 4446 005c EAE7     		b	.L434
 4447              	.LVL592:
 4448              	.L453:
 446:../Switch/core/yt/yt_port.c ****     CMM_PARAM_CHK((!(YT_DISPATCH(unit)->is_inited)), CMM_ERR_NOT_INIT);
 4449              		.loc 1 446 5 discriminator 3 view .LVU1275
 4450              	.LBB88:
 446:../Switch/core/yt/yt_port.c ****     CMM_PARAM_CHK((!(YT_DISPATCH(unit)->is_inited)), CMM_ERR_NOT_INIT);
 4451              		.loc 1 446 5 discriminator 3 view .LVU1276
 4452 005e 1D4B     		ldr	r3, .L457+16
 4453 0060 1A69     		ldr	r2, [r3, #16]
 4454              	.LVL593:
 446:../Switch/core/yt/yt_port.c ****     CMM_PARAM_CHK((!(YT_DISPATCH(unit)->is_inited)), CMM_ERR_NOT_INIT);
 4455              		.loc 1 446 5 is_stmt 0 discriminator 3 view .LVU1277
 4456 0062 1D4B     		ldr	r3, .L457+20
 4457 0064 9968     		ldr	r1, [r3, #8]
 4458              	.LVL594:
 446:../Switch/core/yt/yt_port.c ****     CMM_PARAM_CHK((!(YT_DISPATCH(unit)->is_inited)), CMM_ERR_NOT_INIT);
 4459              		.loc 1 446 5 discriminator 3 view .LVU1278
 4460 0066 1D48     		ldr	r0, .L457+24
 4461              	.LVL595:
 446:../Switch/core/yt/yt_port.c ****     CMM_PARAM_CHK((!(YT_DISPATCH(unit)->is_inited)), CMM_ERR_NOT_INIT);
 4462              		.loc 1 446 5 discriminator 3 view .LVU1279
 4463 0068 FFF7FEFF 		bl	osal_printf
 4464              	.LVL596:
 4465 006c F5E7     		b	.L439
 4466              	.LVL597:
 4467              	.L450:
 446:../Switch/core/yt/yt_port.c ****     CMM_PARAM_CHK((!(YT_DISPATCH(unit)->is_inited)), CMM_ERR_NOT_INIT);
 4468              		.loc 1 446 5 discriminator 3 view .LVU1280
 4469              	.LBE88:
 447:../Switch/core/yt/yt_port.c ****     CMM_PARAM_CHK((!(CMM_PORT_VALID(unit, port))), CMM_ERR_PORT);
 4470              		.loc 1 447 5 is_stmt 1 discriminator 1 view .LVU1281
 447:../Switch/core/yt/yt_port.c ****     CMM_PARAM_CHK((!(CMM_PORT_VALID(unit, port))), CMM_ERR_PORT);
 4471              		.loc 1 447 5 discriminator 1 view .LVU1282
 4472 006e 184B     		ldr	r3, .L457+12
 4473 0070 1B78     		ldrb	r3, [r3]	@ zero_extendqisi2
 4474 0072 012B     		cmp	r3, #1
 4475 0074 01D8     		bhi	.L454
 4476              	.LVL598:
 4477              	.L441:
 447:../Switch/core/yt/yt_port.c ****     CMM_PARAM_CHK((!(CMM_PORT_VALID(unit, port))), CMM_ERR_PORT);
 4478              		.loc 1 447 5 discriminator 5 view .LVU1283
 447:../Switch/core/yt/yt_port.c ****     CMM_PARAM_CHK((!(CMM_PORT_VALID(unit, port))), CMM_ERR_PORT);
 4479              		.loc 1 447 5 discriminator 5 view .LVU1284
 447:../Switch/core/yt/yt_port.c ****     CMM_PARAM_CHK((!(CMM_PORT_VALID(unit, port))), CMM_ERR_PORT);
 4480              		.loc 1 447 5 discriminator 5 view .LVU1285
 4481 0076 0420     		movs	r0, #4
 4482 0078 DCE7     		b	.L434
 4483              	.LVL599:
 4484              	.L454:
 447:../Switch/core/yt/yt_port.c ****     CMM_PARAM_CHK((!(CMM_PORT_VALID(unit, port))), CMM_ERR_PORT);
 4485              		.loc 1 447 5 discriminator 3 view .LVU1286
 4486              	.LBB89:
 447:../Switch/core/yt/yt_port.c ****     CMM_PARAM_CHK((!(CMM_PORT_VALID(unit, port))), CMM_ERR_PORT);
 4487              		.loc 1 447 5 discriminator 3 view .LVU1287
 4488 007a 164B     		ldr	r3, .L457+16
 4489 007c 1A69     		ldr	r2, [r3, #16]
 4490              	.LVL600:
 447:../Switch/core/yt/yt_port.c ****     CMM_PARAM_CHK((!(CMM_PORT_VALID(unit, port))), CMM_ERR_PORT);
 4491              		.loc 1 447 5 is_stmt 0 discriminator 3 view .LVU1288
 4492 007e 164B     		ldr	r3, .L457+20
 4493 0080 9968     		ldr	r1, [r3, #8]
 4494              	.LVL601:
 447:../Switch/core/yt/yt_port.c ****     CMM_PARAM_CHK((!(CMM_PORT_VALID(unit, port))), CMM_ERR_PORT);
 4495              		.loc 1 447 5 discriminator 3 view .LVU1289
 4496 0082 1648     		ldr	r0, .L457+24
 4497 0084 FFF7FEFF 		bl	osal_printf
 4498              	.LVL602:
 4499 0088 F5E7     		b	.L441
 4500              	.LVL603:
 4501              	.L442:
 447:../Switch/core/yt/yt_port.c ****     CMM_PARAM_CHK((!(CMM_PORT_VALID(unit, port))), CMM_ERR_PORT);
 4502              		.loc 1 447 5 discriminator 3 view .LVU1290
 4503              	.LBE89:
 448:../Switch/core/yt/yt_port.c ****     CMM_PARAM_CHK((NULL == pMode), CMM_ERR_NULL_POINT);
 4504              		.loc 1 448 5 is_stmt 1 discriminator 3 view .LVU1291
 448:../Switch/core/yt/yt_port.c ****     CMM_PARAM_CHK((NULL == pMode), CMM_ERR_NULL_POINT);
 4505              		.loc 1 448 5 discriminator 3 view .LVU1292
 4506 008a 114B     		ldr	r3, .L457+12
 4507 008c 1B78     		ldrb	r3, [r3]	@ zero_extendqisi2
 4508 008e 012B     		cmp	r3, #1
 4509 0090 01D8     		bhi	.L455
 4510              	.LVL604:
 4511              	.L444:
 448:../Switch/core/yt/yt_port.c ****     CMM_PARAM_CHK((NULL == pMode), CMM_ERR_NULL_POINT);
 4512              		.loc 1 448 5 discriminator 7 view .LVU1293
 448:../Switch/core/yt/yt_port.c ****     CMM_PARAM_CHK((NULL == pMode), CMM_ERR_NULL_POINT);
 4513              		.loc 1 448 5 discriminator 7 view .LVU1294
 448:../Switch/core/yt/yt_port.c ****     CMM_PARAM_CHK((NULL == pMode), CMM_ERR_NULL_POINT);
 4514              		.loc 1 448 5 discriminator 7 view .LVU1295
 4515 0092 0E20     		movs	r0, #14
 4516 0094 CEE7     		b	.L434
 4517              	.LVL605:
 4518              	.L455:
 448:../Switch/core/yt/yt_port.c ****     CMM_PARAM_CHK((NULL == pMode), CMM_ERR_NULL_POINT);
 4519              		.loc 1 448 5 discriminator 5 view .LVU1296
 4520              	.LBB90:
 448:../Switch/core/yt/yt_port.c ****     CMM_PARAM_CHK((NULL == pMode), CMM_ERR_NULL_POINT);
 4521              		.loc 1 448 5 discriminator 5 view .LVU1297
 4522 0096 0F4B     		ldr	r3, .L457+16
 4523 0098 9A6B     		ldr	r2, [r3, #56]
 4524              	.LVL606:
 448:../Switch/core/yt/yt_port.c ****     CMM_PARAM_CHK((NULL == pMode), CMM_ERR_NULL_POINT);
 4525              		.loc 1 448 5 is_stmt 0 discriminator 5 view .LVU1298
 4526 009a 0F4B     		ldr	r3, .L457+20
 4527 009c 9968     		ldr	r1, [r3, #8]
 4528              	.LVL607:
 448:../Switch/core/yt/yt_port.c ****     CMM_PARAM_CHK((NULL == pMode), CMM_ERR_NULL_POINT);
 4529              		.loc 1 448 5 discriminator 5 view .LVU1299
 4530 009e 0F48     		ldr	r0, .L457+24
 4531 00a0 FFF7FEFF 		bl	osal_printf
 4532              	.LVL608:
 4533 00a4 F5E7     		b	.L444
 4534              	.LVL609:
 4535              	.L451:
 448:../Switch/core/yt/yt_port.c ****     CMM_PARAM_CHK((NULL == pMode), CMM_ERR_NULL_POINT);
 4536              		.loc 1 448 5 discriminator 5 view .LVU1300
 4537              	.LBE90:
 449:../Switch/core/yt/yt_port.c **** 
 4538              		.loc 1 449 5 is_stmt 1 discriminator 1 view .LVU1301
 449:../Switch/core/yt/yt_port.c **** 
 4539              		.loc 1 449 5 discriminator 1 view .LVU1302
 4540 00a6 0A4B     		ldr	r3, .L457+12
 4541 00a8 1B78     		ldrb	r3, [r3]	@ zero_extendqisi2
 4542 00aa 012B     		cmp	r3, #1
 4543 00ac 01D8     		bhi	.L456
 4544              	.LVL610:
 4545              	.L446:
 449:../Switch/core/yt/yt_port.c **** 
 4546              		.loc 1 449 5 discriminator 5 view .LVU1303
 449:../Switch/core/yt/yt_port.c **** 
 4547              		.loc 1 449 5 discriminator 5 view .LVU1304
 449:../Switch/core/yt/yt_port.c **** 
 4548              		.loc 1 449 5 discriminator 5 view .LVU1305
 4549 00ae 0220     		movs	r0, #2
 4550 00b0 C0E7     		b	.L434
 4551              	.LVL611:
 4552              	.L456:
 449:../Switch/core/yt/yt_port.c **** 
 4553              		.loc 1 449 5 discriminator 3 view .LVU1306
 4554              	.LBB91:
 449:../Switch/core/yt/yt_port.c **** 
 4555              		.loc 1 449 5 discriminator 3 view .LVU1307
 4556 00b2 084B     		ldr	r3, .L457+16
 4557 00b4 9A68     		ldr	r2, [r3, #8]
 4558              	.LVL612:
 449:../Switch/core/yt/yt_port.c **** 
 4559              		.loc 1 449 5 is_stmt 0 discriminator 3 view .LVU1308
 4560 00b6 084B     		ldr	r3, .L457+20
 4561 00b8 9968     		ldr	r1, [r3, #8]
 4562              	.LVL613:
 449:../Switch/core/yt/yt_port.c **** 
 4563              		.loc 1 449 5 discriminator 3 view .LVU1309
 4564 00ba 0848     		ldr	r0, .L457+24
 4565 00bc FFF7FEFF 		bl	osal_printf
 4566              	.LVL614:
 4567 00c0 F5E7     		b	.L446
 4568              	.L458:
 4569 00c2 00BF     		.align	2
 4570              	.L457:
 4571 00c4 00000000 		.word	gpfal_dispatch
 4572 00c8 00000000 		.word	gcal_inited
 4573 00cc 00000000 		.word	gpSwitchUnit
 4574 00d0 00000000 		.word	yt_debug_level
 4575 00d4 00000000 		.word	_yt_errmsg
 4576 00d8 00000000 		.word	_yt_prompt_msg
 4577 00dc 00000000 		.word	.LC0
 4578              	.LBE91:
 4579              		.cfi_endproc
 4580              	.LFE21:
 4582              		.section	.text.yt_port_extif_rgmii_delay_set,"ax",%progbits
 4583              		.align	1
 4584              		.global	yt_port_extif_rgmii_delay_set
 4585              		.syntax unified
 4586              		.thumb
 4587              		.thumb_func
 4589              	yt_port_extif_rgmii_delay_set:
 4590              	.LVL615:
 4591              	.LFB22:
 453:../Switch/core/yt/yt_port.c **** 
 454:../Switch/core/yt/yt_port.c **** /**
 455:../Switch/core/yt/yt_port.c ****  * @internal      yt_port_extif_rgmii_delay_set
 456:../Switch/core/yt/yt_port.c ****  * @endinternal
 457:../Switch/core/yt/yt_port.c ****  *
 458:../Switch/core/yt/yt_port.c ****  * @brief         Description
 459:../Switch/core/yt/yt_port.c ****  * @note          APPLICABLE DEVICES  -Tiger
 460:../Switch/core/yt/yt_port.c ****  * @param[in]     unit                -unit id
 461:../Switch/core/yt/yt_port.c ****  * @param[in]     port                -port num
 462:../Switch/core/yt/yt_port.c ****  * @param[in]     rxc_delay           -x
 463:../Switch/core/yt/yt_port.c ****  * @param[in]     txc_delay           -x
 464:../Switch/core/yt/yt_port.c ****  * @param[in]     txc_2ns_en          -enable or disable
 465:../Switch/core/yt/yt_port.c ****  * @retval        CMM_ERR_OK          -on success
 466:../Switch/core/yt/yt_port.c ****  * @retval        CMM_ERR_FAIL        -on fail
 467:../Switch/core/yt/yt_port.c ****  */
 468:../Switch/core/yt/yt_port.c **** yt_ret_t yt_port_extif_rgmii_delay_set(yt_unit_t unit, yt_port_t port, uint8_t rxc_delay, uint8_t t
 469:../Switch/core/yt/yt_port.c **** {
 4592              		.loc 1 469 1 is_stmt 1 view -0
 4593              		.cfi_startproc
 4594              		@ args = 4, pretend = 0, frame = 0
 4595              		@ frame_needed = 0, uses_anonymous_args = 0
 4596              		.loc 1 469 1 is_stmt 0 view .LVU1311
 4597 0000 30B5     		push	{r4, r5, lr}
 4598              		.cfi_def_cfa_offset 12
 4599              		.cfi_offset 4, -12
 4600              		.cfi_offset 5, -8
 4601              		.cfi_offset 14, -4
 4602 0002 83B0     		sub	sp, sp, #12
 4603              		.cfi_def_cfa_offset 24
 4604 0004 9DF81850 		ldrb	r5, [sp, #24]	@ zero_extendqisi2
 470:../Switch/core/yt/yt_port.c ****     CMM_PARAM_CHK((YT_UNIT_NUM <= unit), CMM_ERR_INPUT);
 4605              		.loc 1 470 5 is_stmt 1 view .LVU1312
 4606              		.loc 1 470 5 view .LVU1313
 4607 0008 D0B9     		cbnz	r0, .L473
 4608 000a 8446     		mov	ip, r0
 4609              		.loc 1 470 5 discriminator 2 view .LVU1314
 471:../Switch/core/yt/yt_port.c ****     CMM_PARAM_CHK(NULL == YT_DISPATCH(unit), CMM_ERR_NOT_INIT);
 4610              		.loc 1 471 5 discriminator 2 view .LVU1315
 4611              		.loc 1 471 5 discriminator 2 view .LVU1316
 4612 000c 2F48     		ldr	r0, .L482
 4613              	.LVL616:
 4614              		.loc 1 471 5 is_stmt 0 discriminator 2 view .LVU1317
 4615 000e 50F82C40 		ldr	r4, [r0, ip, lsl #2]
 4616 0012 1CB3     		cbz	r4, .L474
 4617              		.loc 1 471 5 is_stmt 1 discriminator 2 view .LVU1318
 472:../Switch/core/yt/yt_port.c ****     CMM_PARAM_CHK((!(YT_DISPATCH(unit)->is_inited)), CMM_ERR_NOT_INIT);
 4618              		.loc 1 472 5 discriminator 2 view .LVU1319
 4619              		.loc 1 472 5 discriminator 2 view .LVU1320
 4620 0014 2078     		ldrb	r0, [r4]	@ zero_extendqisi2
 4621 0016 0028     		cmp	r0, #0
 4622 0018 2ED0     		beq	.L475
 4623              		.loc 1 472 5 discriminator 2 view .LVU1321
 473:../Switch/core/yt/yt_port.c ****     CMM_PARAM_CHK((!(CMM_PORT_VALID(unit, port))), CMM_ERR_PORT);
 4624              		.loc 1 473 5 discriminator 2 view .LVU1322
 4625              		.loc 1 473 5 discriminator 2 view .LVU1323
 4626 001a 2D48     		ldr	r0, .L482+4
 4627 001c 0078     		ldrb	r0, [r0]	@ zero_extendqisi2
 4628 001e 0028     		cmp	r0, #0
 4629 0020 38D0     		beq	.L467
 4630 0022 2C48     		ldr	r0, .L482+8
 4631 0024 50F82C00 		ldr	r0, [r0, ip, lsl #2]
 4632 0028 007D     		ldrb	r0, [r0, #20]	@ zero_extendqisi2
 4633 002a 8842     		cmp	r0, r1
 4634 002c 32D9     		bls	.L467
 4635              		.loc 1 473 5 discriminator 4 view .LVU1324
 474:../Switch/core/yt/yt_port.c ****     CMM_PARAM_CHK((YT_ENABLE < txc_2ns_en || YT_DISABLE > txc_2ns_en), CMM_ERR_INPUT);
 4636              		.loc 1 474 5 discriminator 4 view .LVU1325
 4637              		.loc 1 474 5 discriminator 4 view .LVU1326
 4638 002e 012D     		cmp	r5, #1
 4639 0030 3ED8     		bhi	.L476
 4640              		.loc 1 474 5 discriminator 2 view .LVU1327
 475:../Switch/core/yt/yt_port.c **** 
 476:../Switch/core/yt/yt_port.c ****     return YT_DISPATCH(unit)->port_extif_rgmii_delay_set(unit, port, rxc_delay, txc_delay, txc_2ns_
 4641              		.loc 1 476 5 discriminator 2 view .LVU1328
 4642              		.loc 1 476 29 is_stmt 0 discriminator 2 view .LVU1329
 4643 0032 D4F8A445 		ldr	r4, [r4, #1444]
 4644              		.loc 1 476 12 discriminator 2 view .LVU1330
 4645 0036 0095     		str	r5, [sp]
 4646 0038 6046     		mov	r0, ip
 4647 003a A047     		blx	r4
 4648              	.LVL617:
 4649              	.L459:
 477:../Switch/core/yt/yt_port.c **** }
 4650              		.loc 1 477 1 view .LVU1331
 4651 003c 03B0     		add	sp, sp, #12
 4652              		.cfi_remember_state
 4653              		.cfi_def_cfa_offset 12
 4654              		@ sp needed
 4655 003e 30BD     		pop	{r4, r5, pc}
 4656              	.LVL618:
 4657              	.L473:
 4658              		.cfi_restore_state
 470:../Switch/core/yt/yt_port.c ****     CMM_PARAM_CHK(NULL == YT_DISPATCH(unit), CMM_ERR_NOT_INIT);
 4659              		.loc 1 470 5 is_stmt 1 discriminator 1 view .LVU1332
 470:../Switch/core/yt/yt_port.c ****     CMM_PARAM_CHK(NULL == YT_DISPATCH(unit), CMM_ERR_NOT_INIT);
 4660              		.loc 1 470 5 discriminator 1 view .LVU1333
 4661 0040 254B     		ldr	r3, .L482+12
 4662              	.LVL619:
 470:../Switch/core/yt/yt_port.c ****     CMM_PARAM_CHK(NULL == YT_DISPATCH(unit), CMM_ERR_NOT_INIT);
 4663              		.loc 1 470 5 is_stmt 0 discriminator 1 view .LVU1334
 4664 0042 1B78     		ldrb	r3, [r3]	@ zero_extendqisi2
 4665 0044 012B     		cmp	r3, #1
 4666 0046 01D8     		bhi	.L477
 4667              	.LVL620:
 4668              	.L461:
 470:../Switch/core/yt/yt_port.c ****     CMM_PARAM_CHK(NULL == YT_DISPATCH(unit), CMM_ERR_NOT_INIT);
 4669              		.loc 1 470 5 is_stmt 1 discriminator 5 view .LVU1335
 470:../Switch/core/yt/yt_port.c ****     CMM_PARAM_CHK(NULL == YT_DISPATCH(unit), CMM_ERR_NOT_INIT);
 4670              		.loc 1 470 5 discriminator 5 view .LVU1336
 470:../Switch/core/yt/yt_port.c ****     CMM_PARAM_CHK(NULL == YT_DISPATCH(unit), CMM_ERR_NOT_INIT);
 4671              		.loc 1 470 5 discriminator 5 view .LVU1337
 4672 0048 0520     		movs	r0, #5
 4673 004a F7E7     		b	.L459
 4674              	.LVL621:
 4675              	.L477:
 470:../Switch/core/yt/yt_port.c ****     CMM_PARAM_CHK(NULL == YT_DISPATCH(unit), CMM_ERR_NOT_INIT);
 4676              		.loc 1 470 5 discriminator 3 view .LVU1338
 4677              	.LBB92:
 470:../Switch/core/yt/yt_port.c ****     CMM_PARAM_CHK(NULL == YT_DISPATCH(unit), CMM_ERR_NOT_INIT);
 4678              		.loc 1 470 5 discriminator 3 view .LVU1339
 4679 004c 234B     		ldr	r3, .L482+16
 4680 004e 5A69     		ldr	r2, [r3, #20]
 4681              	.LVL622:
 470:../Switch/core/yt/yt_port.c ****     CMM_PARAM_CHK(NULL == YT_DISPATCH(unit), CMM_ERR_NOT_INIT);
 4682              		.loc 1 470 5 is_stmt 0 discriminator 3 view .LVU1340
 4683 0050 234B     		ldr	r3, .L482+20
 4684 0052 9968     		ldr	r1, [r3, #8]
 4685              	.LVL623:
 470:../Switch/core/yt/yt_port.c ****     CMM_PARAM_CHK(NULL == YT_DISPATCH(unit), CMM_ERR_NOT_INIT);
 4686              		.loc 1 470 5 discriminator 3 view .LVU1341
 4687 0054 2348     		ldr	r0, .L482+24
 4688              	.LVL624:
 470:../Switch/core/yt/yt_port.c ****     CMM_PARAM_CHK(NULL == YT_DISPATCH(unit), CMM_ERR_NOT_INIT);
 4689              		.loc 1 470 5 discriminator 3 view .LVU1342
 4690 0056 FFF7FEFF 		bl	osal_printf
 4691              	.LVL625:
 4692 005a F5E7     		b	.L461
 4693              	.LVL626:
 4694              	.L474:
 470:../Switch/core/yt/yt_port.c ****     CMM_PARAM_CHK(NULL == YT_DISPATCH(unit), CMM_ERR_NOT_INIT);
 4695              		.loc 1 470 5 discriminator 3 view .LVU1343
 4696              	.LBE92:
 471:../Switch/core/yt/yt_port.c ****     CMM_PARAM_CHK((!(YT_DISPATCH(unit)->is_inited)), CMM_ERR_NOT_INIT);
 4697              		.loc 1 471 5 is_stmt 1 discriminator 1 view .LVU1344
 471:../Switch/core/yt/yt_port.c ****     CMM_PARAM_CHK((!(YT_DISPATCH(unit)->is_inited)), CMM_ERR_NOT_INIT);
 4698              		.loc 1 471 5 discriminator 1 view .LVU1345
 4699 005c 1E4B     		ldr	r3, .L482+12
 4700              	.LVL627:
 471:../Switch/core/yt/yt_port.c ****     CMM_PARAM_CHK((!(YT_DISPATCH(unit)->is_inited)), CMM_ERR_NOT_INIT);
 4701              		.loc 1 471 5 is_stmt 0 discriminator 1 view .LVU1346
 4702 005e 1B78     		ldrb	r3, [r3]	@ zero_extendqisi2
 4703 0060 012B     		cmp	r3, #1
 4704 0062 01D8     		bhi	.L478
 4705              	.LVL628:
 4706              	.L464:
 471:../Switch/core/yt/yt_port.c ****     CMM_PARAM_CHK((!(YT_DISPATCH(unit)->is_inited)), CMM_ERR_NOT_INIT);
 4707              		.loc 1 471 5 is_stmt 1 discriminator 5 view .LVU1347
 471:../Switch/core/yt/yt_port.c ****     CMM_PARAM_CHK((!(YT_DISPATCH(unit)->is_inited)), CMM_ERR_NOT_INIT);
 4708              		.loc 1 471 5 discriminator 5 view .LVU1348
 471:../Switch/core/yt/yt_port.c ****     CMM_PARAM_CHK((!(YT_DISPATCH(unit)->is_inited)), CMM_ERR_NOT_INIT);
 4709              		.loc 1 471 5 discriminator 5 view .LVU1349
 4710 0064 0420     		movs	r0, #4
 4711 0066 E9E7     		b	.L459
 4712              	.LVL629:
 4713              	.L478:
 471:../Switch/core/yt/yt_port.c ****     CMM_PARAM_CHK((!(YT_DISPATCH(unit)->is_inited)), CMM_ERR_NOT_INIT);
 4714              		.loc 1 471 5 discriminator 3 view .LVU1350
 4715              	.LBB93:
 471:../Switch/core/yt/yt_port.c ****     CMM_PARAM_CHK((!(YT_DISPATCH(unit)->is_inited)), CMM_ERR_NOT_INIT);
 4716              		.loc 1 471 5 discriminator 3 view .LVU1351
 4717 0068 1C4B     		ldr	r3, .L482+16
 4718 006a 1A69     		ldr	r2, [r3, #16]
 4719              	.LVL630:
 471:../Switch/core/yt/yt_port.c ****     CMM_PARAM_CHK((!(YT_DISPATCH(unit)->is_inited)), CMM_ERR_NOT_INIT);
 4720              		.loc 1 471 5 is_stmt 0 discriminator 3 view .LVU1352
 4721 006c 1C4B     		ldr	r3, .L482+20
 4722 006e 9968     		ldr	r1, [r3, #8]
 4723              	.LVL631:
 471:../Switch/core/yt/yt_port.c ****     CMM_PARAM_CHK((!(YT_DISPATCH(unit)->is_inited)), CMM_ERR_NOT_INIT);
 4724              		.loc 1 471 5 discriminator 3 view .LVU1353
 4725 0070 1C48     		ldr	r0, .L482+24
 4726 0072 FFF7FEFF 		bl	osal_printf
 4727              	.LVL632:
 4728 0076 F5E7     		b	.L464
 4729              	.LVL633:
 4730              	.L475:
 471:../Switch/core/yt/yt_port.c ****     CMM_PARAM_CHK((!(YT_DISPATCH(unit)->is_inited)), CMM_ERR_NOT_INIT);
 4731              		.loc 1 471 5 discriminator 3 view .LVU1354
 4732              	.LBE93:
 472:../Switch/core/yt/yt_port.c ****     CMM_PARAM_CHK((!(CMM_PORT_VALID(unit, port))), CMM_ERR_PORT);
 4733              		.loc 1 472 5 is_stmt 1 discriminator 1 view .LVU1355
 472:../Switch/core/yt/yt_port.c ****     CMM_PARAM_CHK((!(CMM_PORT_VALID(unit, port))), CMM_ERR_PORT);
 4734              		.loc 1 472 5 discriminator 1 view .LVU1356
 4735 0078 174B     		ldr	r3, .L482+12
 4736              	.LVL634:
 472:../Switch/core/yt/yt_port.c ****     CMM_PARAM_CHK((!(CMM_PORT_VALID(unit, port))), CMM_ERR_PORT);
 4737              		.loc 1 472 5 is_stmt 0 discriminator 1 view .LVU1357
 4738 007a 1B78     		ldrb	r3, [r3]	@ zero_extendqisi2
 4739 007c 012B     		cmp	r3, #1
 4740 007e 01D8     		bhi	.L479
 4741              	.LVL635:
 4742              	.L466:
 472:../Switch/core/yt/yt_port.c ****     CMM_PARAM_CHK((!(CMM_PORT_VALID(unit, port))), CMM_ERR_PORT);
 4743              		.loc 1 472 5 is_stmt 1 discriminator 5 view .LVU1358
 472:../Switch/core/yt/yt_port.c ****     CMM_PARAM_CHK((!(CMM_PORT_VALID(unit, port))), CMM_ERR_PORT);
 4744              		.loc 1 472 5 discriminator 5 view .LVU1359
 472:../Switch/core/yt/yt_port.c ****     CMM_PARAM_CHK((!(CMM_PORT_VALID(unit, port))), CMM_ERR_PORT);
 4745              		.loc 1 472 5 discriminator 5 view .LVU1360
 4746 0080 0420     		movs	r0, #4
 4747 0082 DBE7     		b	.L459
 4748              	.LVL636:
 4749              	.L479:
 472:../Switch/core/yt/yt_port.c ****     CMM_PARAM_CHK((!(CMM_PORT_VALID(unit, port))), CMM_ERR_PORT);
 4750              		.loc 1 472 5 discriminator 3 view .LVU1361
 4751              	.LBB94:
 472:../Switch/core/yt/yt_port.c ****     CMM_PARAM_CHK((!(CMM_PORT_VALID(unit, port))), CMM_ERR_PORT);
 4752              		.loc 1 472 5 discriminator 3 view .LVU1362
 4753 0084 154B     		ldr	r3, .L482+16
 4754 0086 1A69     		ldr	r2, [r3, #16]
 4755              	.LVL637:
 472:../Switch/core/yt/yt_port.c ****     CMM_PARAM_CHK((!(CMM_PORT_VALID(unit, port))), CMM_ERR_PORT);
 4756              		.loc 1 472 5 is_stmt 0 discriminator 3 view .LVU1363
 4757 0088 154B     		ldr	r3, .L482+20
 4758 008a 9968     		ldr	r1, [r3, #8]
 4759              	.LVL638:
 472:../Switch/core/yt/yt_port.c ****     CMM_PARAM_CHK((!(CMM_PORT_VALID(unit, port))), CMM_ERR_PORT);
 4760              		.loc 1 472 5 discriminator 3 view .LVU1364
 4761 008c 1548     		ldr	r0, .L482+24
 4762 008e FFF7FEFF 		bl	osal_printf
 4763              	.LVL639:
 4764 0092 F5E7     		b	.L466
 4765              	.LVL640:
 4766              	.L467:
 472:../Switch/core/yt/yt_port.c ****     CMM_PARAM_CHK((!(CMM_PORT_VALID(unit, port))), CMM_ERR_PORT);
 4767              		.loc 1 472 5 discriminator 3 view .LVU1365
 4768              	.LBE94:
 473:../Switch/core/yt/yt_port.c ****     CMM_PARAM_CHK((YT_ENABLE < txc_2ns_en || YT_DISABLE > txc_2ns_en), CMM_ERR_INPUT);
 4769              		.loc 1 473 5 is_stmt 1 discriminator 3 view .LVU1366
 473:../Switch/core/yt/yt_port.c ****     CMM_PARAM_CHK((YT_ENABLE < txc_2ns_en || YT_DISABLE > txc_2ns_en), CMM_ERR_INPUT);
 4770              		.loc 1 473 5 discriminator 3 view .LVU1367
 4771 0094 104B     		ldr	r3, .L482+12
 4772              	.LVL641:
 473:../Switch/core/yt/yt_port.c ****     CMM_PARAM_CHK((YT_ENABLE < txc_2ns_en || YT_DISABLE > txc_2ns_en), CMM_ERR_INPUT);
 4773              		.loc 1 473 5 is_stmt 0 discriminator 3 view .LVU1368
 4774 0096 1B78     		ldrb	r3, [r3]	@ zero_extendqisi2
 4775 0098 012B     		cmp	r3, #1
 4776 009a 01D8     		bhi	.L480
 4777              	.LVL642:
 4778              	.L469:
 473:../Switch/core/yt/yt_port.c ****     CMM_PARAM_CHK((YT_ENABLE < txc_2ns_en || YT_DISABLE > txc_2ns_en), CMM_ERR_INPUT);
 4779              		.loc 1 473 5 is_stmt 1 discriminator 7 view .LVU1369
 473:../Switch/core/yt/yt_port.c ****     CMM_PARAM_CHK((YT_ENABLE < txc_2ns_en || YT_DISABLE > txc_2ns_en), CMM_ERR_INPUT);
 4780              		.loc 1 473 5 discriminator 7 view .LVU1370
 473:../Switch/core/yt/yt_port.c ****     CMM_PARAM_CHK((YT_ENABLE < txc_2ns_en || YT_DISABLE > txc_2ns_en), CMM_ERR_INPUT);
 4781              		.loc 1 473 5 discriminator 7 view .LVU1371
 4782 009c 0E20     		movs	r0, #14
 4783 009e CDE7     		b	.L459
 4784              	.LVL643:
 4785              	.L480:
 473:../Switch/core/yt/yt_port.c ****     CMM_PARAM_CHK((YT_ENABLE < txc_2ns_en || YT_DISABLE > txc_2ns_en), CMM_ERR_INPUT);
 4786              		.loc 1 473 5 discriminator 5 view .LVU1372
 4787              	.LBB95:
 473:../Switch/core/yt/yt_port.c ****     CMM_PARAM_CHK((YT_ENABLE < txc_2ns_en || YT_DISABLE > txc_2ns_en), CMM_ERR_INPUT);
 4788              		.loc 1 473 5 discriminator 5 view .LVU1373
 4789 00a0 0E4B     		ldr	r3, .L482+16
 4790 00a2 9A6B     		ldr	r2, [r3, #56]
 4791              	.LVL644:
 473:../Switch/core/yt/yt_port.c ****     CMM_PARAM_CHK((YT_ENABLE < txc_2ns_en || YT_DISABLE > txc_2ns_en), CMM_ERR_INPUT);
 4792              		.loc 1 473 5 is_stmt 0 discriminator 5 view .LVU1374
 4793 00a4 0E4B     		ldr	r3, .L482+20
 4794 00a6 9968     		ldr	r1, [r3, #8]
 4795              	.LVL645:
 473:../Switch/core/yt/yt_port.c ****     CMM_PARAM_CHK((YT_ENABLE < txc_2ns_en || YT_DISABLE > txc_2ns_en), CMM_ERR_INPUT);
 4796              		.loc 1 473 5 discriminator 5 view .LVU1375
 4797 00a8 0E48     		ldr	r0, .L482+24
 4798 00aa FFF7FEFF 		bl	osal_printf
 4799              	.LVL646:
 4800 00ae F5E7     		b	.L469
 4801              	.LVL647:
 4802              	.L476:
 473:../Switch/core/yt/yt_port.c ****     CMM_PARAM_CHK((YT_ENABLE < txc_2ns_en || YT_DISABLE > txc_2ns_en), CMM_ERR_INPUT);
 4803              		.loc 1 473 5 discriminator 5 view .LVU1376
 4804              	.LBE95:
 474:../Switch/core/yt/yt_port.c **** 
 4805              		.loc 1 474 5 is_stmt 1 discriminator 1 view .LVU1377
 474:../Switch/core/yt/yt_port.c **** 
 4806              		.loc 1 474 5 discriminator 1 view .LVU1378
 4807 00b0 094B     		ldr	r3, .L482+12
 4808              	.LVL648:
 474:../Switch/core/yt/yt_port.c **** 
 4809              		.loc 1 474 5 is_stmt 0 discriminator 1 view .LVU1379
 4810 00b2 1B78     		ldrb	r3, [r3]	@ zero_extendqisi2
 4811 00b4 012B     		cmp	r3, #1
 4812 00b6 01D8     		bhi	.L481
 4813              	.LVL649:
 4814              	.L471:
 474:../Switch/core/yt/yt_port.c **** 
 4815              		.loc 1 474 5 is_stmt 1 discriminator 5 view .LVU1380
 474:../Switch/core/yt/yt_port.c **** 
 4816              		.loc 1 474 5 discriminator 5 view .LVU1381
 474:../Switch/core/yt/yt_port.c **** 
 4817              		.loc 1 474 5 discriminator 5 view .LVU1382
 4818 00b8 0520     		movs	r0, #5
 4819 00ba BFE7     		b	.L459
 4820              	.LVL650:
 4821              	.L481:
 474:../Switch/core/yt/yt_port.c **** 
 4822              		.loc 1 474 5 discriminator 3 view .LVU1383
 4823              	.LBB96:
 474:../Switch/core/yt/yt_port.c **** 
 4824              		.loc 1 474 5 discriminator 3 view .LVU1384
 4825 00bc 074B     		ldr	r3, .L482+16
 4826 00be 5A69     		ldr	r2, [r3, #20]
 4827              	.LVL651:
 474:../Switch/core/yt/yt_port.c **** 
 4828              		.loc 1 474 5 is_stmt 0 discriminator 3 view .LVU1385
 4829 00c0 074B     		ldr	r3, .L482+20
 4830 00c2 9968     		ldr	r1, [r3, #8]
 4831              	.LVL652:
 474:../Switch/core/yt/yt_port.c **** 
 4832              		.loc 1 474 5 discriminator 3 view .LVU1386
 4833 00c4 0748     		ldr	r0, .L482+24
 4834 00c6 FFF7FEFF 		bl	osal_printf
 4835              	.LVL653:
 4836 00ca F5E7     		b	.L471
 4837              	.L483:
 4838              		.align	2
 4839              	.L482:
 4840 00cc 00000000 		.word	gpfal_dispatch
 4841 00d0 00000000 		.word	gcal_inited
 4842 00d4 00000000 		.word	gpSwitchUnit
 4843 00d8 00000000 		.word	yt_debug_level
 4844 00dc 00000000 		.word	_yt_errmsg
 4845 00e0 00000000 		.word	_yt_prompt_msg
 4846 00e4 00000000 		.word	.LC0
 4847              	.LBE96:
 4848              		.cfi_endproc
 4849              	.LFE22:
 4851              		.section	.text.yt_port_extif_rgmii_delay_get,"ax",%progbits
 4852              		.align	1
 4853              		.global	yt_port_extif_rgmii_delay_get
 4854              		.syntax unified
 4855              		.thumb
 4856              		.thumb_func
 4858              	yt_port_extif_rgmii_delay_get:
 4859              	.LVL654:
 4860              	.LFB23:
 478:../Switch/core/yt/yt_port.c **** 
 479:../Switch/core/yt/yt_port.c **** /**
 480:../Switch/core/yt/yt_port.c ****  * @internal      yt_port_extif_rgmii_delay_get
 481:../Switch/core/yt/yt_port.c ****  * @endinternal
 482:../Switch/core/yt/yt_port.c ****  *
 483:../Switch/core/yt/yt_port.c ****  * @brief         Description
 484:../Switch/core/yt/yt_port.c ****  * @note          APPLICABLE DEVICES  -Tiger
 485:../Switch/core/yt/yt_port.c ****  * @param[in]     unit                -unit id
 486:../Switch/core/yt/yt_port.c ****  * @param[in]     port                -port num
 487:../Switch/core/yt/yt_port.c ****  * @param[out]    pRxc_delay          -x
 488:../Switch/core/yt/yt_port.c ****  * @param[out]    pTxc_delay          -x
 489:../Switch/core/yt/yt_port.c ****  * @param[out]    pTxc_2ns_en         -enable or disable
 490:../Switch/core/yt/yt_port.c ****  * @retval        CMM_ERR_OK          -on success
 491:../Switch/core/yt/yt_port.c ****  * @retval        CMM_ERR_FAIL        -on fail
 492:../Switch/core/yt/yt_port.c ****  */
 493:../Switch/core/yt/yt_port.c **** yt_ret_t yt_port_extif_rgmii_delay_get(yt_unit_t unit, yt_port_t port, uint8_t *pRxc_delay, uint8_t
 494:../Switch/core/yt/yt_port.c **** {
 4861              		.loc 1 494 1 is_stmt 1 view -0
 4862              		.cfi_startproc
 4863              		@ args = 4, pretend = 0, frame = 0
 4864              		@ frame_needed = 0, uses_anonymous_args = 0
 4865              		.loc 1 494 1 is_stmt 0 view .LVU1388
 4866 0000 10B5     		push	{r4, lr}
 4867              		.cfi_def_cfa_offset 8
 4868              		.cfi_offset 4, -8
 4869              		.cfi_offset 14, -4
 4870 0002 82B0     		sub	sp, sp, #8
 4871              		.cfi_def_cfa_offset 16
 495:../Switch/core/yt/yt_port.c ****     CMM_PARAM_CHK((YT_UNIT_NUM <= unit), CMM_ERR_INPUT);
 4872              		.loc 1 495 5 is_stmt 1 view .LVU1389
 4873              		.loc 1 495 5 view .LVU1390
 4874 0004 08BB     		cbnz	r0, .L502
 4875 0006 8446     		mov	ip, r0
 4876              		.loc 1 495 5 discriminator 2 view .LVU1391
 496:../Switch/core/yt/yt_port.c ****     CMM_PARAM_CHK(NULL == YT_DISPATCH(unit), CMM_ERR_NOT_INIT);
 4877              		.loc 1 496 5 discriminator 2 view .LVU1392
 4878              		.loc 1 496 5 discriminator 2 view .LVU1393
 4879 0008 4148     		ldr	r0, .L515
 4880              	.LVL655:
 4881              		.loc 1 496 5 is_stmt 0 discriminator 2 view .LVU1394
 4882 000a 50F82C40 		ldr	r4, [r0, ip, lsl #2]
 4883 000e 002C     		cmp	r4, #0
 4884 0010 29D0     		beq	.L503
 4885              		.loc 1 496 5 is_stmt 1 discriminator 2 view .LVU1395
 497:../Switch/core/yt/yt_port.c ****     CMM_PARAM_CHK((!(YT_DISPATCH(unit)->is_inited)), CMM_ERR_NOT_INIT);
 4886              		.loc 1 497 5 discriminator 2 view .LVU1396
 4887              		.loc 1 497 5 discriminator 2 view .LVU1397
 4888 0012 2078     		ldrb	r0, [r4]	@ zero_extendqisi2
 4889 0014 0028     		cmp	r0, #0
 4890 0016 34D0     		beq	.L504
 4891              		.loc 1 497 5 discriminator 2 view .LVU1398
 498:../Switch/core/yt/yt_port.c ****     CMM_PARAM_CHK((!(CMM_PORT_VALID(unit, port))), CMM_ERR_PORT);
 4892              		.loc 1 498 5 discriminator 2 view .LVU1399
 4893              		.loc 1 498 5 discriminator 2 view .LVU1400
 4894 0018 3E48     		ldr	r0, .L515+4
 4895 001a 0078     		ldrb	r0, [r0]	@ zero_extendqisi2
 4896 001c 0028     		cmp	r0, #0
 4897 001e 3ED0     		beq	.L492
 4898 0020 3D48     		ldr	r0, .L515+8
 4899 0022 50F82C00 		ldr	r0, [r0, ip, lsl #2]
 4900 0026 007D     		ldrb	r0, [r0, #20]	@ zero_extendqisi2
 4901 0028 8842     		cmp	r0, r1
 4902 002a 38D9     		bls	.L492
 4903              		.loc 1 498 5 discriminator 4 view .LVU1401
 499:../Switch/core/yt/yt_port.c ****     CMM_PARAM_CHK((NULL == pRxc_delay), CMM_ERR_NULL_POINT);
 4904              		.loc 1 499 5 discriminator 4 view .LVU1402
 4905              		.loc 1 499 5 discriminator 4 view .LVU1403
 4906 002c 002A     		cmp	r2, #0
 4907 002e 44D0     		beq	.L505
 4908              		.loc 1 499 5 discriminator 2 view .LVU1404
 500:../Switch/core/yt/yt_port.c ****     CMM_PARAM_CHK((NULL == pTxc_delay), CMM_ERR_NULL_POINT);
 4909              		.loc 1 500 5 discriminator 2 view .LVU1405
 4910              		.loc 1 500 5 discriminator 2 view .LVU1406
 4911 0030 002B     		cmp	r3, #0
 4912 0032 50D0     		beq	.L506
 4913              		.loc 1 500 5 discriminator 2 view .LVU1407
 501:../Switch/core/yt/yt_port.c ****     CMM_PARAM_CHK((NULL == pTxc_2ns_en), CMM_ERR_NULL_POINT);
 4914              		.loc 1 501 5 discriminator 2 view .LVU1408
 4915              		.loc 1 501 5 discriminator 2 view .LVU1409
 4916 0034 0498     		ldr	r0, [sp, #16]
 4917 0036 0028     		cmp	r0, #0
 4918 0038 5BD0     		beq	.L507
 4919              		.loc 1 501 5 discriminator 2 view .LVU1410
 502:../Switch/core/yt/yt_port.c **** 
 503:../Switch/core/yt/yt_port.c ****     return YT_DISPATCH(unit)->port_extif_rgmii_delay_get(unit, port, pRxc_delay, pTxc_delay, pTxc_2
 4920              		.loc 1 503 5 discriminator 2 view .LVU1411
 4921              		.loc 1 503 29 is_stmt 0 discriminator 2 view .LVU1412
 4922 003a D4F8A845 		ldr	r4, [r4, #1448]
 4923              		.loc 1 503 12 discriminator 2 view .LVU1413
 4924 003e 0498     		ldr	r0, [sp, #16]
 4925 0040 0090     		str	r0, [sp]
 4926 0042 6046     		mov	r0, ip
 4927 0044 A047     		blx	r4
 4928              	.LVL656:
 4929              	.L484:
 504:../Switch/core/yt/yt_port.c **** }
 4930              		.loc 1 504 1 view .LVU1414
 4931 0046 02B0     		add	sp, sp, #8
 4932              		.cfi_remember_state
 4933              		.cfi_def_cfa_offset 8
 4934              		@ sp needed
 4935 0048 10BD     		pop	{r4, pc}
 4936              	.LVL657:
 4937              	.L502:
 4938              		.cfi_restore_state
 495:../Switch/core/yt/yt_port.c ****     CMM_PARAM_CHK(NULL == YT_DISPATCH(unit), CMM_ERR_NOT_INIT);
 4939              		.loc 1 495 5 is_stmt 1 discriminator 1 view .LVU1415
 495:../Switch/core/yt/yt_port.c ****     CMM_PARAM_CHK(NULL == YT_DISPATCH(unit), CMM_ERR_NOT_INIT);
 4940              		.loc 1 495 5 discriminator 1 view .LVU1416
 4941 004a 344B     		ldr	r3, .L515+12
 4942              	.LVL658:
 495:../Switch/core/yt/yt_port.c ****     CMM_PARAM_CHK(NULL == YT_DISPATCH(unit), CMM_ERR_NOT_INIT);
 4943              		.loc 1 495 5 is_stmt 0 discriminator 1 view .LVU1417
 4944 004c 1B78     		ldrb	r3, [r3]	@ zero_extendqisi2
 4945 004e 012B     		cmp	r3, #1
 4946 0050 01D8     		bhi	.L508
 4947              	.LVL659:
 4948              	.L486:
 495:../Switch/core/yt/yt_port.c ****     CMM_PARAM_CHK(NULL == YT_DISPATCH(unit), CMM_ERR_NOT_INIT);
 4949              		.loc 1 495 5 is_stmt 1 discriminator 5 view .LVU1418
 495:../Switch/core/yt/yt_port.c ****     CMM_PARAM_CHK(NULL == YT_DISPATCH(unit), CMM_ERR_NOT_INIT);
 4950              		.loc 1 495 5 discriminator 5 view .LVU1419
 495:../Switch/core/yt/yt_port.c ****     CMM_PARAM_CHK(NULL == YT_DISPATCH(unit), CMM_ERR_NOT_INIT);
 4951              		.loc 1 495 5 discriminator 5 view .LVU1420
 4952 0052 0520     		movs	r0, #5
 4953 0054 F7E7     		b	.L484
 4954              	.LVL660:
 4955              	.L508:
 495:../Switch/core/yt/yt_port.c ****     CMM_PARAM_CHK(NULL == YT_DISPATCH(unit), CMM_ERR_NOT_INIT);
 4956              		.loc 1 495 5 discriminator 3 view .LVU1421
 4957              	.LBB97:
 495:../Switch/core/yt/yt_port.c ****     CMM_PARAM_CHK(NULL == YT_DISPATCH(unit), CMM_ERR_NOT_INIT);
 4958              		.loc 1 495 5 discriminator 3 view .LVU1422
 4959 0056 324B     		ldr	r3, .L515+16
 4960 0058 5A69     		ldr	r2, [r3, #20]
 4961              	.LVL661:
 495:../Switch/core/yt/yt_port.c ****     CMM_PARAM_CHK(NULL == YT_DISPATCH(unit), CMM_ERR_NOT_INIT);
 4962              		.loc 1 495 5 is_stmt 0 discriminator 3 view .LVU1423
 4963 005a 324B     		ldr	r3, .L515+20
 4964 005c 9968     		ldr	r1, [r3, #8]
 4965              	.LVL662:
 495:../Switch/core/yt/yt_port.c ****     CMM_PARAM_CHK(NULL == YT_DISPATCH(unit), CMM_ERR_NOT_INIT);
 4966              		.loc 1 495 5 discriminator 3 view .LVU1424
 4967 005e 3248     		ldr	r0, .L515+24
 4968              	.LVL663:
 495:../Switch/core/yt/yt_port.c ****     CMM_PARAM_CHK(NULL == YT_DISPATCH(unit), CMM_ERR_NOT_INIT);
 4969              		.loc 1 495 5 discriminator 3 view .LVU1425
 4970 0060 FFF7FEFF 		bl	osal_printf
 4971              	.LVL664:
 4972 0064 F5E7     		b	.L486
 4973              	.LVL665:
 4974              	.L503:
 495:../Switch/core/yt/yt_port.c ****     CMM_PARAM_CHK(NULL == YT_DISPATCH(unit), CMM_ERR_NOT_INIT);
 4975              		.loc 1 495 5 discriminator 3 view .LVU1426
 4976              	.LBE97:
 496:../Switch/core/yt/yt_port.c ****     CMM_PARAM_CHK((!(YT_DISPATCH(unit)->is_inited)), CMM_ERR_NOT_INIT);
 4977              		.loc 1 496 5 is_stmt 1 discriminator 1 view .LVU1427
 496:../Switch/core/yt/yt_port.c ****     CMM_PARAM_CHK((!(YT_DISPATCH(unit)->is_inited)), CMM_ERR_NOT_INIT);
 4978              		.loc 1 496 5 discriminator 1 view .LVU1428
 4979 0066 2D4B     		ldr	r3, .L515+12
 4980              	.LVL666:
 496:../Switch/core/yt/yt_port.c ****     CMM_PARAM_CHK((!(YT_DISPATCH(unit)->is_inited)), CMM_ERR_NOT_INIT);
 4981              		.loc 1 496 5 is_stmt 0 discriminator 1 view .LVU1429
 4982 0068 1B78     		ldrb	r3, [r3]	@ zero_extendqisi2
 4983 006a 012B     		cmp	r3, #1
 4984 006c 01D8     		bhi	.L509
 4985              	.LVL667:
 4986              	.L489:
 496:../Switch/core/yt/yt_port.c ****     CMM_PARAM_CHK((!(YT_DISPATCH(unit)->is_inited)), CMM_ERR_NOT_INIT);
 4987              		.loc 1 496 5 is_stmt 1 discriminator 5 view .LVU1430
 496:../Switch/core/yt/yt_port.c ****     CMM_PARAM_CHK((!(YT_DISPATCH(unit)->is_inited)), CMM_ERR_NOT_INIT);
 4988              		.loc 1 496 5 discriminator 5 view .LVU1431
 496:../Switch/core/yt/yt_port.c ****     CMM_PARAM_CHK((!(YT_DISPATCH(unit)->is_inited)), CMM_ERR_NOT_INIT);
 4989              		.loc 1 496 5 discriminator 5 view .LVU1432
 4990 006e 0420     		movs	r0, #4
 4991 0070 E9E7     		b	.L484
 4992              	.LVL668:
 4993              	.L509:
 496:../Switch/core/yt/yt_port.c ****     CMM_PARAM_CHK((!(YT_DISPATCH(unit)->is_inited)), CMM_ERR_NOT_INIT);
 4994              		.loc 1 496 5 discriminator 3 view .LVU1433
 4995              	.LBB98:
 496:../Switch/core/yt/yt_port.c ****     CMM_PARAM_CHK((!(YT_DISPATCH(unit)->is_inited)), CMM_ERR_NOT_INIT);
 4996              		.loc 1 496 5 discriminator 3 view .LVU1434
 4997 0072 2B4B     		ldr	r3, .L515+16
 4998 0074 1A69     		ldr	r2, [r3, #16]
 4999              	.LVL669:
 496:../Switch/core/yt/yt_port.c ****     CMM_PARAM_CHK((!(YT_DISPATCH(unit)->is_inited)), CMM_ERR_NOT_INIT);
 5000              		.loc 1 496 5 is_stmt 0 discriminator 3 view .LVU1435
 5001 0076 2B4B     		ldr	r3, .L515+20
 5002 0078 9968     		ldr	r1, [r3, #8]
 5003              	.LVL670:
 496:../Switch/core/yt/yt_port.c ****     CMM_PARAM_CHK((!(YT_DISPATCH(unit)->is_inited)), CMM_ERR_NOT_INIT);
 5004              		.loc 1 496 5 discriminator 3 view .LVU1436
 5005 007a 2B48     		ldr	r0, .L515+24
 5006 007c FFF7FEFF 		bl	osal_printf
 5007              	.LVL671:
 5008 0080 F5E7     		b	.L489
 5009              	.LVL672:
 5010              	.L504:
 496:../Switch/core/yt/yt_port.c ****     CMM_PARAM_CHK((!(YT_DISPATCH(unit)->is_inited)), CMM_ERR_NOT_INIT);
 5011              		.loc 1 496 5 discriminator 3 view .LVU1437
 5012              	.LBE98:
 497:../Switch/core/yt/yt_port.c ****     CMM_PARAM_CHK((!(CMM_PORT_VALID(unit, port))), CMM_ERR_PORT);
 5013              		.loc 1 497 5 is_stmt 1 discriminator 1 view .LVU1438
 497:../Switch/core/yt/yt_port.c ****     CMM_PARAM_CHK((!(CMM_PORT_VALID(unit, port))), CMM_ERR_PORT);
 5014              		.loc 1 497 5 discriminator 1 view .LVU1439
 5015 0082 264B     		ldr	r3, .L515+12
 5016              	.LVL673:
 497:../Switch/core/yt/yt_port.c ****     CMM_PARAM_CHK((!(CMM_PORT_VALID(unit, port))), CMM_ERR_PORT);
 5017              		.loc 1 497 5 is_stmt 0 discriminator 1 view .LVU1440
 5018 0084 1B78     		ldrb	r3, [r3]	@ zero_extendqisi2
 5019 0086 012B     		cmp	r3, #1
 5020 0088 01D8     		bhi	.L510
 5021              	.LVL674:
 5022              	.L491:
 497:../Switch/core/yt/yt_port.c ****     CMM_PARAM_CHK((!(CMM_PORT_VALID(unit, port))), CMM_ERR_PORT);
 5023              		.loc 1 497 5 is_stmt 1 discriminator 5 view .LVU1441
 497:../Switch/core/yt/yt_port.c ****     CMM_PARAM_CHK((!(CMM_PORT_VALID(unit, port))), CMM_ERR_PORT);
 5024              		.loc 1 497 5 discriminator 5 view .LVU1442
 497:../Switch/core/yt/yt_port.c ****     CMM_PARAM_CHK((!(CMM_PORT_VALID(unit, port))), CMM_ERR_PORT);
 5025              		.loc 1 497 5 discriminator 5 view .LVU1443
 5026 008a 0420     		movs	r0, #4
 5027 008c DBE7     		b	.L484
 5028              	.LVL675:
 5029              	.L510:
 497:../Switch/core/yt/yt_port.c ****     CMM_PARAM_CHK((!(CMM_PORT_VALID(unit, port))), CMM_ERR_PORT);
 5030              		.loc 1 497 5 discriminator 3 view .LVU1444
 5031              	.LBB99:
 497:../Switch/core/yt/yt_port.c ****     CMM_PARAM_CHK((!(CMM_PORT_VALID(unit, port))), CMM_ERR_PORT);
 5032              		.loc 1 497 5 discriminator 3 view .LVU1445
 5033 008e 244B     		ldr	r3, .L515+16
 5034 0090 1A69     		ldr	r2, [r3, #16]
 5035              	.LVL676:
 497:../Switch/core/yt/yt_port.c ****     CMM_PARAM_CHK((!(CMM_PORT_VALID(unit, port))), CMM_ERR_PORT);
 5036              		.loc 1 497 5 is_stmt 0 discriminator 3 view .LVU1446
 5037 0092 244B     		ldr	r3, .L515+20
 5038 0094 9968     		ldr	r1, [r3, #8]
 5039              	.LVL677:
 497:../Switch/core/yt/yt_port.c ****     CMM_PARAM_CHK((!(CMM_PORT_VALID(unit, port))), CMM_ERR_PORT);
 5040              		.loc 1 497 5 discriminator 3 view .LVU1447
 5041 0096 2448     		ldr	r0, .L515+24
 5042 0098 FFF7FEFF 		bl	osal_printf
 5043              	.LVL678:
 5044 009c F5E7     		b	.L491
 5045              	.LVL679:
 5046              	.L492:
 497:../Switch/core/yt/yt_port.c ****     CMM_PARAM_CHK((!(CMM_PORT_VALID(unit, port))), CMM_ERR_PORT);
 5047              		.loc 1 497 5 discriminator 3 view .LVU1448
 5048              	.LBE99:
 498:../Switch/core/yt/yt_port.c ****     CMM_PARAM_CHK((NULL == pRxc_delay), CMM_ERR_NULL_POINT);
 5049              		.loc 1 498 5 is_stmt 1 discriminator 3 view .LVU1449
 498:../Switch/core/yt/yt_port.c ****     CMM_PARAM_CHK((NULL == pRxc_delay), CMM_ERR_NULL_POINT);
 5050              		.loc 1 498 5 discriminator 3 view .LVU1450
 5051 009e 1F4B     		ldr	r3, .L515+12
 5052              	.LVL680:
 498:../Switch/core/yt/yt_port.c ****     CMM_PARAM_CHK((NULL == pRxc_delay), CMM_ERR_NULL_POINT);
 5053              		.loc 1 498 5 is_stmt 0 discriminator 3 view .LVU1451
 5054 00a0 1B78     		ldrb	r3, [r3]	@ zero_extendqisi2
 5055 00a2 012B     		cmp	r3, #1
 5056 00a4 01D8     		bhi	.L511
 5057              	.LVL681:
 5058              	.L494:
 498:../Switch/core/yt/yt_port.c ****     CMM_PARAM_CHK((NULL == pRxc_delay), CMM_ERR_NULL_POINT);
 5059              		.loc 1 498 5 is_stmt 1 discriminator 7 view .LVU1452
 498:../Switch/core/yt/yt_port.c ****     CMM_PARAM_CHK((NULL == pRxc_delay), CMM_ERR_NULL_POINT);
 5060              		.loc 1 498 5 discriminator 7 view .LVU1453
 498:../Switch/core/yt/yt_port.c ****     CMM_PARAM_CHK((NULL == pRxc_delay), CMM_ERR_NULL_POINT);
 5061              		.loc 1 498 5 discriminator 7 view .LVU1454
 5062 00a6 0E20     		movs	r0, #14
 5063 00a8 CDE7     		b	.L484
 5064              	.LVL682:
 5065              	.L511:
 498:../Switch/core/yt/yt_port.c ****     CMM_PARAM_CHK((NULL == pRxc_delay), CMM_ERR_NULL_POINT);
 5066              		.loc 1 498 5 discriminator 5 view .LVU1455
 5067              	.LBB100:
 498:../Switch/core/yt/yt_port.c ****     CMM_PARAM_CHK((NULL == pRxc_delay), CMM_ERR_NULL_POINT);
 5068              		.loc 1 498 5 discriminator 5 view .LVU1456
 5069 00aa 1D4B     		ldr	r3, .L515+16
 5070 00ac 9A6B     		ldr	r2, [r3, #56]
 5071              	.LVL683:
 498:../Switch/core/yt/yt_port.c ****     CMM_PARAM_CHK((NULL == pRxc_delay), CMM_ERR_NULL_POINT);
 5072              		.loc 1 498 5 is_stmt 0 discriminator 5 view .LVU1457
 5073 00ae 1D4B     		ldr	r3, .L515+20
 5074 00b0 9968     		ldr	r1, [r3, #8]
 5075              	.LVL684:
 498:../Switch/core/yt/yt_port.c ****     CMM_PARAM_CHK((NULL == pRxc_delay), CMM_ERR_NULL_POINT);
 5076              		.loc 1 498 5 discriminator 5 view .LVU1458
 5077 00b2 1D48     		ldr	r0, .L515+24
 5078 00b4 FFF7FEFF 		bl	osal_printf
 5079              	.LVL685:
 5080 00b8 F5E7     		b	.L494
 5081              	.LVL686:
 5082              	.L505:
 498:../Switch/core/yt/yt_port.c ****     CMM_PARAM_CHK((NULL == pRxc_delay), CMM_ERR_NULL_POINT);
 5083              		.loc 1 498 5 discriminator 5 view .LVU1459
 5084              	.LBE100:
 499:../Switch/core/yt/yt_port.c ****     CMM_PARAM_CHK((NULL == pTxc_delay), CMM_ERR_NULL_POINT);
 5085              		.loc 1 499 5 is_stmt 1 discriminator 1 view .LVU1460
 499:../Switch/core/yt/yt_port.c ****     CMM_PARAM_CHK((NULL == pTxc_delay), CMM_ERR_NULL_POINT);
 5086              		.loc 1 499 5 discriminator 1 view .LVU1461
 5087 00ba 184B     		ldr	r3, .L515+12
 5088              	.LVL687:
 499:../Switch/core/yt/yt_port.c ****     CMM_PARAM_CHK((NULL == pTxc_delay), CMM_ERR_NULL_POINT);
 5089              		.loc 1 499 5 is_stmt 0 discriminator 1 view .LVU1462
 5090 00bc 1B78     		ldrb	r3, [r3]	@ zero_extendqisi2
 5091 00be 012B     		cmp	r3, #1
 5092 00c0 01D8     		bhi	.L512
 5093              	.LVL688:
 5094              	.L496:
 499:../Switch/core/yt/yt_port.c ****     CMM_PARAM_CHK((NULL == pTxc_delay), CMM_ERR_NULL_POINT);
 5095              		.loc 1 499 5 is_stmt 1 discriminator 5 view .LVU1463
 499:../Switch/core/yt/yt_port.c ****     CMM_PARAM_CHK((NULL == pTxc_delay), CMM_ERR_NULL_POINT);
 5096              		.loc 1 499 5 discriminator 5 view .LVU1464
 499:../Switch/core/yt/yt_port.c ****     CMM_PARAM_CHK((NULL == pTxc_delay), CMM_ERR_NULL_POINT);
 5097              		.loc 1 499 5 discriminator 5 view .LVU1465
 5098 00c2 0220     		movs	r0, #2
 5099 00c4 BFE7     		b	.L484
 5100              	.LVL689:
 5101              	.L512:
 499:../Switch/core/yt/yt_port.c ****     CMM_PARAM_CHK((NULL == pTxc_delay), CMM_ERR_NULL_POINT);
 5102              		.loc 1 499 5 discriminator 3 view .LVU1466
 5103              	.LBB101:
 499:../Switch/core/yt/yt_port.c ****     CMM_PARAM_CHK((NULL == pTxc_delay), CMM_ERR_NULL_POINT);
 5104              		.loc 1 499 5 discriminator 3 view .LVU1467
 5105 00c6 164B     		ldr	r3, .L515+16
 5106 00c8 9A68     		ldr	r2, [r3, #8]
 5107              	.LVL690:
 499:../Switch/core/yt/yt_port.c ****     CMM_PARAM_CHK((NULL == pTxc_delay), CMM_ERR_NULL_POINT);
 5108              		.loc 1 499 5 is_stmt 0 discriminator 3 view .LVU1468
 5109 00ca 164B     		ldr	r3, .L515+20
 5110 00cc 9968     		ldr	r1, [r3, #8]
 5111              	.LVL691:
 499:../Switch/core/yt/yt_port.c ****     CMM_PARAM_CHK((NULL == pTxc_delay), CMM_ERR_NULL_POINT);
 5112              		.loc 1 499 5 discriminator 3 view .LVU1469
 5113 00ce 1648     		ldr	r0, .L515+24
 5114 00d0 FFF7FEFF 		bl	osal_printf
 5115              	.LVL692:
 5116 00d4 F5E7     		b	.L496
 5117              	.LVL693:
 5118              	.L506:
 499:../Switch/core/yt/yt_port.c ****     CMM_PARAM_CHK((NULL == pTxc_delay), CMM_ERR_NULL_POINT);
 5119              		.loc 1 499 5 discriminator 3 view .LVU1470
 5120              	.LBE101:
 500:../Switch/core/yt/yt_port.c ****     CMM_PARAM_CHK((NULL == pTxc_2ns_en), CMM_ERR_NULL_POINT);
 5121              		.loc 1 500 5 is_stmt 1 discriminator 1 view .LVU1471
 500:../Switch/core/yt/yt_port.c ****     CMM_PARAM_CHK((NULL == pTxc_2ns_en), CMM_ERR_NULL_POINT);
 5122              		.loc 1 500 5 discriminator 1 view .LVU1472
 5123 00d6 114B     		ldr	r3, .L515+12
 5124              	.LVL694:
 500:../Switch/core/yt/yt_port.c ****     CMM_PARAM_CHK((NULL == pTxc_2ns_en), CMM_ERR_NULL_POINT);
 5125              		.loc 1 500 5 is_stmt 0 discriminator 1 view .LVU1473
 5126 00d8 1B78     		ldrb	r3, [r3]	@ zero_extendqisi2
 5127 00da 012B     		cmp	r3, #1
 5128 00dc 01D8     		bhi	.L513
 5129              	.LVL695:
 5130              	.L498:
 500:../Switch/core/yt/yt_port.c ****     CMM_PARAM_CHK((NULL == pTxc_2ns_en), CMM_ERR_NULL_POINT);
 5131              		.loc 1 500 5 is_stmt 1 discriminator 5 view .LVU1474
 500:../Switch/core/yt/yt_port.c ****     CMM_PARAM_CHK((NULL == pTxc_2ns_en), CMM_ERR_NULL_POINT);
 5132              		.loc 1 500 5 discriminator 5 view .LVU1475
 500:../Switch/core/yt/yt_port.c ****     CMM_PARAM_CHK((NULL == pTxc_2ns_en), CMM_ERR_NULL_POINT);
 5133              		.loc 1 500 5 discriminator 5 view .LVU1476
 5134 00de 0220     		movs	r0, #2
 5135 00e0 B1E7     		b	.L484
 5136              	.LVL696:
 5137              	.L513:
 500:../Switch/core/yt/yt_port.c ****     CMM_PARAM_CHK((NULL == pTxc_2ns_en), CMM_ERR_NULL_POINT);
 5138              		.loc 1 500 5 discriminator 3 view .LVU1477
 5139              	.LBB102:
 500:../Switch/core/yt/yt_port.c ****     CMM_PARAM_CHK((NULL == pTxc_2ns_en), CMM_ERR_NULL_POINT);
 5140              		.loc 1 500 5 discriminator 3 view .LVU1478
 5141 00e2 0F4B     		ldr	r3, .L515+16
 5142 00e4 9A68     		ldr	r2, [r3, #8]
 5143              	.LVL697:
 500:../Switch/core/yt/yt_port.c ****     CMM_PARAM_CHK((NULL == pTxc_2ns_en), CMM_ERR_NULL_POINT);
 5144              		.loc 1 500 5 is_stmt 0 discriminator 3 view .LVU1479
 5145 00e6 0F4B     		ldr	r3, .L515+20
 5146 00e8 9968     		ldr	r1, [r3, #8]
 5147              	.LVL698:
 500:../Switch/core/yt/yt_port.c ****     CMM_PARAM_CHK((NULL == pTxc_2ns_en), CMM_ERR_NULL_POINT);
 5148              		.loc 1 500 5 discriminator 3 view .LVU1480
 5149 00ea 0F48     		ldr	r0, .L515+24
 5150 00ec FFF7FEFF 		bl	osal_printf
 5151              	.LVL699:
 5152 00f0 F5E7     		b	.L498
 5153              	.LVL700:
 5154              	.L507:
 500:../Switch/core/yt/yt_port.c ****     CMM_PARAM_CHK((NULL == pTxc_2ns_en), CMM_ERR_NULL_POINT);
 5155              		.loc 1 500 5 discriminator 3 view .LVU1481
 5156              	.LBE102:
 501:../Switch/core/yt/yt_port.c **** 
 5157              		.loc 1 501 5 is_stmt 1 discriminator 1 view .LVU1482
 501:../Switch/core/yt/yt_port.c **** 
 5158              		.loc 1 501 5 discriminator 1 view .LVU1483
 5159 00f2 0A4B     		ldr	r3, .L515+12
 5160              	.LVL701:
 501:../Switch/core/yt/yt_port.c **** 
 5161              		.loc 1 501 5 is_stmt 0 discriminator 1 view .LVU1484
 5162 00f4 1B78     		ldrb	r3, [r3]	@ zero_extendqisi2
 5163 00f6 012B     		cmp	r3, #1
 5164 00f8 01D8     		bhi	.L514
 5165              	.LVL702:
 5166              	.L500:
 501:../Switch/core/yt/yt_port.c **** 
 5167              		.loc 1 501 5 is_stmt 1 discriminator 5 view .LVU1485
 501:../Switch/core/yt/yt_port.c **** 
 5168              		.loc 1 501 5 discriminator 5 view .LVU1486
 501:../Switch/core/yt/yt_port.c **** 
 5169              		.loc 1 501 5 discriminator 5 view .LVU1487
 5170 00fa 0220     		movs	r0, #2
 5171 00fc A3E7     		b	.L484
 5172              	.LVL703:
 5173              	.L514:
 501:../Switch/core/yt/yt_port.c **** 
 5174              		.loc 1 501 5 discriminator 3 view .LVU1488
 5175              	.LBB103:
 501:../Switch/core/yt/yt_port.c **** 
 5176              		.loc 1 501 5 discriminator 3 view .LVU1489
 5177 00fe 084B     		ldr	r3, .L515+16
 5178 0100 9A68     		ldr	r2, [r3, #8]
 5179              	.LVL704:
 501:../Switch/core/yt/yt_port.c **** 
 5180              		.loc 1 501 5 is_stmt 0 discriminator 3 view .LVU1490
 5181 0102 084B     		ldr	r3, .L515+20
 5182 0104 9968     		ldr	r1, [r3, #8]
 5183              	.LVL705:
 501:../Switch/core/yt/yt_port.c **** 
 5184              		.loc 1 501 5 discriminator 3 view .LVU1491
 5185 0106 0848     		ldr	r0, .L515+24
 5186 0108 FFF7FEFF 		bl	osal_printf
 5187              	.LVL706:
 5188 010c F5E7     		b	.L500
 5189              	.L516:
 5190 010e 00BF     		.align	2
 5191              	.L515:
 5192 0110 00000000 		.word	gpfal_dispatch
 5193 0114 00000000 		.word	gcal_inited
 5194 0118 00000000 		.word	gpSwitchUnit
 5195 011c 00000000 		.word	yt_debug_level
 5196 0120 00000000 		.word	_yt_errmsg
 5197 0124 00000000 		.word	_yt_prompt_msg
 5198 0128 00000000 		.word	.LC0
 5199              	.LBE103:
 5200              		.cfi_endproc
 5201              	.LFE23:
 5203              		.section	.text.yt_port_phyAutoNeg_enable_set,"ax",%progbits
 5204              		.align	1
 5205              		.global	yt_port_phyAutoNeg_enable_set
 5206              		.syntax unified
 5207              		.thumb
 5208              		.thumb_func
 5210              	yt_port_phyAutoNeg_enable_set:
 5211              	.LVL707:
 5212              	.LFB24:
 505:../Switch/core/yt/yt_port.c **** 
 506:../Switch/core/yt/yt_port.c **** /**
 507:../Switch/core/yt/yt_port.c ****  * @internal      yt_port_phyAutoNeg_enable_set
 508:../Switch/core/yt/yt_port.c ****  * @endinternal
 509:../Switch/core/yt/yt_port.c ****  *
 510:../Switch/core/yt/yt_port.c ****  * @brief         Description
 511:../Switch/core/yt/yt_port.c ****  * @note          APPLICABLE DEVICES  -Tiger
 512:../Switch/core/yt/yt_port.c ****  * @param[in]     unit                -unit id
 513:../Switch/core/yt/yt_port.c ****  * @param[in]     port                -port num
 514:../Switch/core/yt/yt_port.c ****  * @param[in]     enable              -enable or disable
 515:../Switch/core/yt/yt_port.c ****  * @retval        CMM_ERR_OK          -on success
 516:../Switch/core/yt/yt_port.c ****  * @retval        CMM_ERR_FAIL        -on fail
 517:../Switch/core/yt/yt_port.c ****  */
 518:../Switch/core/yt/yt_port.c **** yt_ret_t yt_port_phyAutoNeg_enable_set(yt_unit_t unit, yt_port_t port, yt_enable_t enable)
 519:../Switch/core/yt/yt_port.c **** {
 5213              		.loc 1 519 1 is_stmt 1 view -0
 5214              		.cfi_startproc
 5215              		@ args = 0, pretend = 0, frame = 0
 5216              		@ frame_needed = 0, uses_anonymous_args = 0
 5217              		.loc 1 519 1 is_stmt 0 view .LVU1493
 5218 0000 08B5     		push	{r3, lr}
 5219              		.cfi_def_cfa_offset 8
 5220              		.cfi_offset 3, -8
 5221              		.cfi_offset 14, -4
 520:../Switch/core/yt/yt_port.c ****     CMM_PARAM_CHK((YT_UNIT_NUM <= unit), CMM_ERR_INPUT);
 5222              		.loc 1 520 5 is_stmt 1 view .LVU1494
 5223              		.loc 1 520 5 view .LVU1495
 5224 0002 C0B9     		cbnz	r0, .L531
 5225 0004 8446     		mov	ip, r0
 5226              		.loc 1 520 5 discriminator 2 view .LVU1496
 521:../Switch/core/yt/yt_port.c ****     CMM_PARAM_CHK(NULL == YT_DISPATCH(unit), CMM_ERR_NOT_INIT);
 5227              		.loc 1 521 5 discriminator 2 view .LVU1497
 5228              		.loc 1 521 5 discriminator 2 view .LVU1498
 5229 0006 2F4B     		ldr	r3, .L540
 5230 0008 53F82030 		ldr	r3, [r3, r0, lsl #2]
 5231 000c 0BB3     		cbz	r3, .L532
 5232              		.loc 1 521 5 discriminator 2 view .LVU1499
 522:../Switch/core/yt/yt_port.c ****     CMM_PARAM_CHK((!(YT_DISPATCH(unit)->is_inited)), CMM_ERR_NOT_INIT);
 5233              		.loc 1 522 5 discriminator 2 view .LVU1500
 5234              		.loc 1 522 5 discriminator 2 view .LVU1501
 5235 000e 1878     		ldrb	r0, [r3]	@ zero_extendqisi2
 5236              	.LVL708:
 5237              		.loc 1 522 5 is_stmt 0 discriminator 2 view .LVU1502
 5238 0010 0028     		cmp	r0, #0
 5239 0012 2CD0     		beq	.L533
 5240              		.loc 1 522 5 is_stmt 1 discriminator 2 view .LVU1503
 523:../Switch/core/yt/yt_port.c ****     CMM_PARAM_CHK((!(CMM_PORT_VALID(unit, port))), CMM_ERR_PORT);
 5241              		.loc 1 523 5 discriminator 2 view .LVU1504
 5242              		.loc 1 523 5 discriminator 2 view .LVU1505
 5243 0014 2C48     		ldr	r0, .L540+4
 5244 0016 0078     		ldrb	r0, [r0]	@ zero_extendqisi2
 5245 0018 0028     		cmp	r0, #0
 5246 001a 36D0     		beq	.L525
 5247 001c 2B48     		ldr	r0, .L540+8
 5248 001e 50F82C00 		ldr	r0, [r0, ip, lsl #2]
 5249 0022 007D     		ldrb	r0, [r0, #20]	@ zero_extendqisi2
 5250 0024 8842     		cmp	r0, r1
 5251 0026 30D9     		bls	.L525
 5252              		.loc 1 523 5 discriminator 4 view .LVU1506
 524:../Switch/core/yt/yt_port.c ****     CMM_PARAM_CHK((YT_ENABLE < enable || YT_DISABLE > enable), CMM_ERR_INPUT);
 5253              		.loc 1 524 5 discriminator 4 view .LVU1507
 5254              		.loc 1 524 5 discriminator 4 view .LVU1508
 5255 0028 012A     		cmp	r2, #1
 5256 002a 3CD8     		bhi	.L534
 5257              		.loc 1 524 5 discriminator 2 view .LVU1509
 525:../Switch/core/yt/yt_port.c **** 
 526:../Switch/core/yt/yt_port.c ****     return YT_DISPATCH(unit)->port_phyAutoNeg_enable_set(unit, port, enable);
 5258              		.loc 1 526 5 discriminator 2 view .LVU1510
 5259              		.loc 1 526 29 is_stmt 0 discriminator 2 view .LVU1511
 5260 002c D3F8AC35 		ldr	r3, [r3, #1452]
 5261              		.loc 1 526 12 discriminator 2 view .LVU1512
 5262 0030 6046     		mov	r0, ip
 5263 0032 9847     		blx	r3
 5264              	.LVL709:
 5265              	.L517:
 527:../Switch/core/yt/yt_port.c **** }
 5266              		.loc 1 527 1 view .LVU1513
 5267 0034 08BD     		pop	{r3, pc}
 5268              	.LVL710:
 5269              	.L531:
 520:../Switch/core/yt/yt_port.c ****     CMM_PARAM_CHK(NULL == YT_DISPATCH(unit), CMM_ERR_NOT_INIT);
 5270              		.loc 1 520 5 is_stmt 1 discriminator 1 view .LVU1514
 520:../Switch/core/yt/yt_port.c ****     CMM_PARAM_CHK(NULL == YT_DISPATCH(unit), CMM_ERR_NOT_INIT);
 5271              		.loc 1 520 5 discriminator 1 view .LVU1515
 5272 0036 264B     		ldr	r3, .L540+12
 5273 0038 1B78     		ldrb	r3, [r3]	@ zero_extendqisi2
 5274 003a 012B     		cmp	r3, #1
 5275 003c 01D8     		bhi	.L535
 5276              	.LVL711:
 5277              	.L519:
 520:../Switch/core/yt/yt_port.c ****     CMM_PARAM_CHK(NULL == YT_DISPATCH(unit), CMM_ERR_NOT_INIT);
 5278              		.loc 1 520 5 discriminator 5 view .LVU1516
 520:../Switch/core/yt/yt_port.c ****     CMM_PARAM_CHK(NULL == YT_DISPATCH(unit), CMM_ERR_NOT_INIT);
 5279              		.loc 1 520 5 discriminator 5 view .LVU1517
 520:../Switch/core/yt/yt_port.c ****     CMM_PARAM_CHK(NULL == YT_DISPATCH(unit), CMM_ERR_NOT_INIT);
 5280              		.loc 1 520 5 discriminator 5 view .LVU1518
 5281 003e 0520     		movs	r0, #5
 5282 0040 F8E7     		b	.L517
 5283              	.LVL712:
 5284              	.L535:
 520:../Switch/core/yt/yt_port.c ****     CMM_PARAM_CHK(NULL == YT_DISPATCH(unit), CMM_ERR_NOT_INIT);
 5285              		.loc 1 520 5 discriminator 3 view .LVU1519
 5286              	.LBB104:
 520:../Switch/core/yt/yt_port.c ****     CMM_PARAM_CHK(NULL == YT_DISPATCH(unit), CMM_ERR_NOT_INIT);
 5287              		.loc 1 520 5 discriminator 3 view .LVU1520
 5288 0042 244B     		ldr	r3, .L540+16
 5289 0044 5A69     		ldr	r2, [r3, #20]
 5290              	.LVL713:
 520:../Switch/core/yt/yt_port.c ****     CMM_PARAM_CHK(NULL == YT_DISPATCH(unit), CMM_ERR_NOT_INIT);
 5291              		.loc 1 520 5 is_stmt 0 discriminator 3 view .LVU1521
 5292 0046 244B     		ldr	r3, .L540+20
 5293 0048 9968     		ldr	r1, [r3, #8]
 5294              	.LVL714:
 520:../Switch/core/yt/yt_port.c ****     CMM_PARAM_CHK(NULL == YT_DISPATCH(unit), CMM_ERR_NOT_INIT);
 5295              		.loc 1 520 5 discriminator 3 view .LVU1522
 5296 004a 2448     		ldr	r0, .L540+24
 5297              	.LVL715:
 520:../Switch/core/yt/yt_port.c ****     CMM_PARAM_CHK(NULL == YT_DISPATCH(unit), CMM_ERR_NOT_INIT);
 5298              		.loc 1 520 5 discriminator 3 view .LVU1523
 5299 004c FFF7FEFF 		bl	osal_printf
 5300              	.LVL716:
 5301 0050 F5E7     		b	.L519
 5302              	.LVL717:
 5303              	.L532:
 520:../Switch/core/yt/yt_port.c ****     CMM_PARAM_CHK(NULL == YT_DISPATCH(unit), CMM_ERR_NOT_INIT);
 5304              		.loc 1 520 5 discriminator 3 view .LVU1524
 5305              	.LBE104:
 521:../Switch/core/yt/yt_port.c ****     CMM_PARAM_CHK((!(YT_DISPATCH(unit)->is_inited)), CMM_ERR_NOT_INIT);
 5306              		.loc 1 521 5 is_stmt 1 discriminator 1 view .LVU1525
 521:../Switch/core/yt/yt_port.c ****     CMM_PARAM_CHK((!(YT_DISPATCH(unit)->is_inited)), CMM_ERR_NOT_INIT);
 5307              		.loc 1 521 5 discriminator 1 view .LVU1526
 5308 0052 1F4B     		ldr	r3, .L540+12
 5309 0054 1B78     		ldrb	r3, [r3]	@ zero_extendqisi2
 5310 0056 012B     		cmp	r3, #1
 5311 0058 01D8     		bhi	.L536
 5312              	.LVL718:
 5313              	.L522:
 521:../Switch/core/yt/yt_port.c ****     CMM_PARAM_CHK((!(YT_DISPATCH(unit)->is_inited)), CMM_ERR_NOT_INIT);
 5314              		.loc 1 521 5 discriminator 5 view .LVU1527
 521:../Switch/core/yt/yt_port.c ****     CMM_PARAM_CHK((!(YT_DISPATCH(unit)->is_inited)), CMM_ERR_NOT_INIT);
 5315              		.loc 1 521 5 discriminator 5 view .LVU1528
 521:../Switch/core/yt/yt_port.c ****     CMM_PARAM_CHK((!(YT_DISPATCH(unit)->is_inited)), CMM_ERR_NOT_INIT);
 5316              		.loc 1 521 5 discriminator 5 view .LVU1529
 5317 005a 0420     		movs	r0, #4
 5318 005c EAE7     		b	.L517
 5319              	.LVL719:
 5320              	.L536:
 521:../Switch/core/yt/yt_port.c ****     CMM_PARAM_CHK((!(YT_DISPATCH(unit)->is_inited)), CMM_ERR_NOT_INIT);
 5321              		.loc 1 521 5 discriminator 3 view .LVU1530
 5322              	.LBB105:
 521:../Switch/core/yt/yt_port.c ****     CMM_PARAM_CHK((!(YT_DISPATCH(unit)->is_inited)), CMM_ERR_NOT_INIT);
 5323              		.loc 1 521 5 discriminator 3 view .LVU1531
 5324 005e 1D4B     		ldr	r3, .L540+16
 5325 0060 1A69     		ldr	r2, [r3, #16]
 5326              	.LVL720:
 521:../Switch/core/yt/yt_port.c ****     CMM_PARAM_CHK((!(YT_DISPATCH(unit)->is_inited)), CMM_ERR_NOT_INIT);
 5327              		.loc 1 521 5 is_stmt 0 discriminator 3 view .LVU1532
 5328 0062 1D4B     		ldr	r3, .L540+20
 5329 0064 9968     		ldr	r1, [r3, #8]
 5330              	.LVL721:
 521:../Switch/core/yt/yt_port.c ****     CMM_PARAM_CHK((!(YT_DISPATCH(unit)->is_inited)), CMM_ERR_NOT_INIT);
 5331              		.loc 1 521 5 discriminator 3 view .LVU1533
 5332 0066 1D48     		ldr	r0, .L540+24
 5333              	.LVL722:
 521:../Switch/core/yt/yt_port.c ****     CMM_PARAM_CHK((!(YT_DISPATCH(unit)->is_inited)), CMM_ERR_NOT_INIT);
 5334              		.loc 1 521 5 discriminator 3 view .LVU1534
 5335 0068 FFF7FEFF 		bl	osal_printf
 5336              	.LVL723:
 5337 006c F5E7     		b	.L522
 5338              	.LVL724:
 5339              	.L533:
 521:../Switch/core/yt/yt_port.c ****     CMM_PARAM_CHK((!(YT_DISPATCH(unit)->is_inited)), CMM_ERR_NOT_INIT);
 5340              		.loc 1 521 5 discriminator 3 view .LVU1535
 5341              	.LBE105:
 522:../Switch/core/yt/yt_port.c ****     CMM_PARAM_CHK((!(CMM_PORT_VALID(unit, port))), CMM_ERR_PORT);
 5342              		.loc 1 522 5 is_stmt 1 discriminator 1 view .LVU1536
 522:../Switch/core/yt/yt_port.c ****     CMM_PARAM_CHK((!(CMM_PORT_VALID(unit, port))), CMM_ERR_PORT);
 5343              		.loc 1 522 5 discriminator 1 view .LVU1537
 5344 006e 184B     		ldr	r3, .L540+12
 5345 0070 1B78     		ldrb	r3, [r3]	@ zero_extendqisi2
 5346 0072 012B     		cmp	r3, #1
 5347 0074 01D8     		bhi	.L537
 5348              	.LVL725:
 5349              	.L524:
 522:../Switch/core/yt/yt_port.c ****     CMM_PARAM_CHK((!(CMM_PORT_VALID(unit, port))), CMM_ERR_PORT);
 5350              		.loc 1 522 5 discriminator 5 view .LVU1538
 522:../Switch/core/yt/yt_port.c ****     CMM_PARAM_CHK((!(CMM_PORT_VALID(unit, port))), CMM_ERR_PORT);
 5351              		.loc 1 522 5 discriminator 5 view .LVU1539
 522:../Switch/core/yt/yt_port.c ****     CMM_PARAM_CHK((!(CMM_PORT_VALID(unit, port))), CMM_ERR_PORT);
 5352              		.loc 1 522 5 discriminator 5 view .LVU1540
 5353 0076 0420     		movs	r0, #4
 5354 0078 DCE7     		b	.L517
 5355              	.LVL726:
 5356              	.L537:
 522:../Switch/core/yt/yt_port.c ****     CMM_PARAM_CHK((!(CMM_PORT_VALID(unit, port))), CMM_ERR_PORT);
 5357              		.loc 1 522 5 discriminator 3 view .LVU1541
 5358              	.LBB106:
 522:../Switch/core/yt/yt_port.c ****     CMM_PARAM_CHK((!(CMM_PORT_VALID(unit, port))), CMM_ERR_PORT);
 5359              		.loc 1 522 5 discriminator 3 view .LVU1542
 5360 007a 164B     		ldr	r3, .L540+16
 5361 007c 1A69     		ldr	r2, [r3, #16]
 5362              	.LVL727:
 522:../Switch/core/yt/yt_port.c ****     CMM_PARAM_CHK((!(CMM_PORT_VALID(unit, port))), CMM_ERR_PORT);
 5363              		.loc 1 522 5 is_stmt 0 discriminator 3 view .LVU1543
 5364 007e 164B     		ldr	r3, .L540+20
 5365 0080 9968     		ldr	r1, [r3, #8]
 5366              	.LVL728:
 522:../Switch/core/yt/yt_port.c ****     CMM_PARAM_CHK((!(CMM_PORT_VALID(unit, port))), CMM_ERR_PORT);
 5367              		.loc 1 522 5 discriminator 3 view .LVU1544
 5368 0082 1648     		ldr	r0, .L540+24
 5369 0084 FFF7FEFF 		bl	osal_printf
 5370              	.LVL729:
 5371 0088 F5E7     		b	.L524
 5372              	.LVL730:
 5373              	.L525:
 522:../Switch/core/yt/yt_port.c ****     CMM_PARAM_CHK((!(CMM_PORT_VALID(unit, port))), CMM_ERR_PORT);
 5374              		.loc 1 522 5 discriminator 3 view .LVU1545
 5375              	.LBE106:
 523:../Switch/core/yt/yt_port.c ****     CMM_PARAM_CHK((YT_ENABLE < enable || YT_DISABLE > enable), CMM_ERR_INPUT);
 5376              		.loc 1 523 5 is_stmt 1 discriminator 3 view .LVU1546
 523:../Switch/core/yt/yt_port.c ****     CMM_PARAM_CHK((YT_ENABLE < enable || YT_DISABLE > enable), CMM_ERR_INPUT);
 5377              		.loc 1 523 5 discriminator 3 view .LVU1547
 5378 008a 114B     		ldr	r3, .L540+12
 5379 008c 1B78     		ldrb	r3, [r3]	@ zero_extendqisi2
 5380 008e 012B     		cmp	r3, #1
 5381 0090 01D8     		bhi	.L538
 5382              	.LVL731:
 5383              	.L527:
 523:../Switch/core/yt/yt_port.c ****     CMM_PARAM_CHK((YT_ENABLE < enable || YT_DISABLE > enable), CMM_ERR_INPUT);
 5384              		.loc 1 523 5 discriminator 7 view .LVU1548
 523:../Switch/core/yt/yt_port.c ****     CMM_PARAM_CHK((YT_ENABLE < enable || YT_DISABLE > enable), CMM_ERR_INPUT);
 5385              		.loc 1 523 5 discriminator 7 view .LVU1549
 523:../Switch/core/yt/yt_port.c ****     CMM_PARAM_CHK((YT_ENABLE < enable || YT_DISABLE > enable), CMM_ERR_INPUT);
 5386              		.loc 1 523 5 discriminator 7 view .LVU1550
 5387 0092 0E20     		movs	r0, #14
 5388 0094 CEE7     		b	.L517
 5389              	.LVL732:
 5390              	.L538:
 523:../Switch/core/yt/yt_port.c ****     CMM_PARAM_CHK((YT_ENABLE < enable || YT_DISABLE > enable), CMM_ERR_INPUT);
 5391              		.loc 1 523 5 discriminator 5 view .LVU1551
 5392              	.LBB107:
 523:../Switch/core/yt/yt_port.c ****     CMM_PARAM_CHK((YT_ENABLE < enable || YT_DISABLE > enable), CMM_ERR_INPUT);
 5393              		.loc 1 523 5 discriminator 5 view .LVU1552
 5394 0096 0F4B     		ldr	r3, .L540+16
 5395 0098 9A6B     		ldr	r2, [r3, #56]
 5396              	.LVL733:
 523:../Switch/core/yt/yt_port.c ****     CMM_PARAM_CHK((YT_ENABLE < enable || YT_DISABLE > enable), CMM_ERR_INPUT);
 5397              		.loc 1 523 5 is_stmt 0 discriminator 5 view .LVU1553
 5398 009a 0F4B     		ldr	r3, .L540+20
 5399 009c 9968     		ldr	r1, [r3, #8]
 5400              	.LVL734:
 523:../Switch/core/yt/yt_port.c ****     CMM_PARAM_CHK((YT_ENABLE < enable || YT_DISABLE > enable), CMM_ERR_INPUT);
 5401              		.loc 1 523 5 discriminator 5 view .LVU1554
 5402 009e 0F48     		ldr	r0, .L540+24
 5403 00a0 FFF7FEFF 		bl	osal_printf
 5404              	.LVL735:
 5405 00a4 F5E7     		b	.L527
 5406              	.LVL736:
 5407              	.L534:
 523:../Switch/core/yt/yt_port.c ****     CMM_PARAM_CHK((YT_ENABLE < enable || YT_DISABLE > enable), CMM_ERR_INPUT);
 5408              		.loc 1 523 5 discriminator 5 view .LVU1555
 5409              	.LBE107:
 524:../Switch/core/yt/yt_port.c **** 
 5410              		.loc 1 524 5 is_stmt 1 discriminator 1 view .LVU1556
 524:../Switch/core/yt/yt_port.c **** 
 5411              		.loc 1 524 5 discriminator 1 view .LVU1557
 5412 00a6 0A4B     		ldr	r3, .L540+12
 5413 00a8 1B78     		ldrb	r3, [r3]	@ zero_extendqisi2
 5414 00aa 012B     		cmp	r3, #1
 5415 00ac 01D8     		bhi	.L539
 5416              	.LVL737:
 5417              	.L529:
 524:../Switch/core/yt/yt_port.c **** 
 5418              		.loc 1 524 5 discriminator 5 view .LVU1558
 524:../Switch/core/yt/yt_port.c **** 
 5419              		.loc 1 524 5 discriminator 5 view .LVU1559
 524:../Switch/core/yt/yt_port.c **** 
 5420              		.loc 1 524 5 discriminator 5 view .LVU1560
 5421 00ae 0520     		movs	r0, #5
 5422 00b0 C0E7     		b	.L517
 5423              	.LVL738:
 5424              	.L539:
 524:../Switch/core/yt/yt_port.c **** 
 5425              		.loc 1 524 5 discriminator 3 view .LVU1561
 5426              	.LBB108:
 524:../Switch/core/yt/yt_port.c **** 
 5427              		.loc 1 524 5 discriminator 3 view .LVU1562
 5428 00b2 084B     		ldr	r3, .L540+16
 5429 00b4 5A69     		ldr	r2, [r3, #20]
 5430              	.LVL739:
 524:../Switch/core/yt/yt_port.c **** 
 5431              		.loc 1 524 5 is_stmt 0 discriminator 3 view .LVU1563
 5432 00b6 084B     		ldr	r3, .L540+20
 5433 00b8 9968     		ldr	r1, [r3, #8]
 5434              	.LVL740:
 524:../Switch/core/yt/yt_port.c **** 
 5435              		.loc 1 524 5 discriminator 3 view .LVU1564
 5436 00ba 0848     		ldr	r0, .L540+24
 5437 00bc FFF7FEFF 		bl	osal_printf
 5438              	.LVL741:
 5439 00c0 F5E7     		b	.L529
 5440              	.L541:
 5441 00c2 00BF     		.align	2
 5442              	.L540:
 5443 00c4 00000000 		.word	gpfal_dispatch
 5444 00c8 00000000 		.word	gcal_inited
 5445 00cc 00000000 		.word	gpSwitchUnit
 5446 00d0 00000000 		.word	yt_debug_level
 5447 00d4 00000000 		.word	_yt_errmsg
 5448 00d8 00000000 		.word	_yt_prompt_msg
 5449 00dc 00000000 		.word	.LC0
 5450              	.LBE108:
 5451              		.cfi_endproc
 5452              	.LFE24:
 5454              		.section	.text.yt_port_phyAutoNeg_enable_get,"ax",%progbits
 5455              		.align	1
 5456              		.global	yt_port_phyAutoNeg_enable_get
 5457              		.syntax unified
 5458              		.thumb
 5459              		.thumb_func
 5461              	yt_port_phyAutoNeg_enable_get:
 5462              	.LVL742:
 5463              	.LFB25:
 528:../Switch/core/yt/yt_port.c **** 
 529:../Switch/core/yt/yt_port.c **** /**
 530:../Switch/core/yt/yt_port.c ****  * @internal      yt_port_phyAutoNeg_enable_get
 531:../Switch/core/yt/yt_port.c ****  * @endinternal
 532:../Switch/core/yt/yt_port.c ****  *
 533:../Switch/core/yt/yt_port.c ****  * @brief         Description
 534:../Switch/core/yt/yt_port.c ****  * @note          APPLICABLE DEVICES  -Tiger
 535:../Switch/core/yt/yt_port.c ****  * @param[in]     unit                -unit id
 536:../Switch/core/yt/yt_port.c ****  * @param[in]     port                -port num
 537:../Switch/core/yt/yt_port.c ****  * @param[out]    pEnable             -enable or disable
 538:../Switch/core/yt/yt_port.c ****  * @retval        CMM_ERR_OK          -on success
 539:../Switch/core/yt/yt_port.c ****  * @retval        CMM_ERR_FAIL        -on fail
 540:../Switch/core/yt/yt_port.c ****  */
 541:../Switch/core/yt/yt_port.c **** yt_ret_t yt_port_phyAutoNeg_enable_get(yt_unit_t unit, yt_port_t port, yt_enable_t *pEnable)
 542:../Switch/core/yt/yt_port.c **** {
 5464              		.loc 1 542 1 is_stmt 1 view -0
 5465              		.cfi_startproc
 5466              		@ args = 0, pretend = 0, frame = 0
 5467              		@ frame_needed = 0, uses_anonymous_args = 0
 5468              		.loc 1 542 1 is_stmt 0 view .LVU1566
 5469 0000 08B5     		push	{r3, lr}
 5470              		.cfi_def_cfa_offset 8
 5471              		.cfi_offset 3, -8
 5472              		.cfi_offset 14, -4
 543:../Switch/core/yt/yt_port.c ****     CMM_PARAM_CHK((YT_UNIT_NUM <= unit), CMM_ERR_INPUT);
 5473              		.loc 1 543 5 is_stmt 1 view .LVU1567
 5474              		.loc 1 543 5 view .LVU1568
 5475 0002 C0B9     		cbnz	r0, .L556
 5476 0004 8446     		mov	ip, r0
 5477              		.loc 1 543 5 discriminator 2 view .LVU1569
 544:../Switch/core/yt/yt_port.c ****     CMM_PARAM_CHK(NULL == YT_DISPATCH(unit), CMM_ERR_NOT_INIT);
 5478              		.loc 1 544 5 discriminator 2 view .LVU1570
 5479              		.loc 1 544 5 discriminator 2 view .LVU1571
 5480 0006 2F4B     		ldr	r3, .L565
 5481 0008 53F82030 		ldr	r3, [r3, r0, lsl #2]
 5482 000c 0BB3     		cbz	r3, .L557
 5483              		.loc 1 544 5 discriminator 2 view .LVU1572
 545:../Switch/core/yt/yt_port.c ****     CMM_PARAM_CHK((!(YT_DISPATCH(unit)->is_inited)), CMM_ERR_NOT_INIT);
 5484              		.loc 1 545 5 discriminator 2 view .LVU1573
 5485              		.loc 1 545 5 discriminator 2 view .LVU1574
 5486 000e 1878     		ldrb	r0, [r3]	@ zero_extendqisi2
 5487              	.LVL743:
 5488              		.loc 1 545 5 is_stmt 0 discriminator 2 view .LVU1575
 5489 0010 0028     		cmp	r0, #0
 5490 0012 2CD0     		beq	.L558
 5491              		.loc 1 545 5 is_stmt 1 discriminator 2 view .LVU1576
 546:../Switch/core/yt/yt_port.c ****     CMM_PARAM_CHK((!(CMM_PORT_VALID(unit, port))), CMM_ERR_PORT);
 5492              		.loc 1 546 5 discriminator 2 view .LVU1577
 5493              		.loc 1 546 5 discriminator 2 view .LVU1578
 5494 0014 2C48     		ldr	r0, .L565+4
 5495 0016 0078     		ldrb	r0, [r0]	@ zero_extendqisi2
 5496 0018 0028     		cmp	r0, #0
 5497 001a 36D0     		beq	.L550
 5498 001c 2B48     		ldr	r0, .L565+8
 5499 001e 50F82C00 		ldr	r0, [r0, ip, lsl #2]
 5500 0022 007D     		ldrb	r0, [r0, #20]	@ zero_extendqisi2
 5501 0024 8842     		cmp	r0, r1
 5502 0026 30D9     		bls	.L550
 5503              		.loc 1 546 5 discriminator 4 view .LVU1579
 547:../Switch/core/yt/yt_port.c ****     CMM_PARAM_CHK((NULL == pEnable), CMM_ERR_NULL_POINT);
 5504              		.loc 1 547 5 discriminator 4 view .LVU1580
 5505              		.loc 1 547 5 discriminator 4 view .LVU1581
 5506 0028 002A     		cmp	r2, #0
 5507 002a 3CD0     		beq	.L559
 5508              		.loc 1 547 5 discriminator 2 view .LVU1582
 548:../Switch/core/yt/yt_port.c **** 
 549:../Switch/core/yt/yt_port.c ****     return YT_DISPATCH(unit)->port_phyAutoNeg_enable_get(unit, port, pEnable);
 5509              		.loc 1 549 5 discriminator 2 view .LVU1583
 5510              		.loc 1 549 29 is_stmt 0 discriminator 2 view .LVU1584
 5511 002c D3F8B035 		ldr	r3, [r3, #1456]
 5512              		.loc 1 549 12 discriminator 2 view .LVU1585
 5513 0030 6046     		mov	r0, ip
 5514 0032 9847     		blx	r3
 5515              	.LVL744:
 5516              	.L542:
 550:../Switch/core/yt/yt_port.c **** }
 5517              		.loc 1 550 1 view .LVU1586
 5518 0034 08BD     		pop	{r3, pc}
 5519              	.LVL745:
 5520              	.L556:
 543:../Switch/core/yt/yt_port.c ****     CMM_PARAM_CHK(NULL == YT_DISPATCH(unit), CMM_ERR_NOT_INIT);
 5521              		.loc 1 543 5 is_stmt 1 discriminator 1 view .LVU1587
 543:../Switch/core/yt/yt_port.c ****     CMM_PARAM_CHK(NULL == YT_DISPATCH(unit), CMM_ERR_NOT_INIT);
 5522              		.loc 1 543 5 discriminator 1 view .LVU1588
 5523 0036 264B     		ldr	r3, .L565+12
 5524 0038 1B78     		ldrb	r3, [r3]	@ zero_extendqisi2
 5525 003a 012B     		cmp	r3, #1
 5526 003c 01D8     		bhi	.L560
 5527              	.LVL746:
 5528              	.L544:
 543:../Switch/core/yt/yt_port.c ****     CMM_PARAM_CHK(NULL == YT_DISPATCH(unit), CMM_ERR_NOT_INIT);
 5529              		.loc 1 543 5 discriminator 5 view .LVU1589
 543:../Switch/core/yt/yt_port.c ****     CMM_PARAM_CHK(NULL == YT_DISPATCH(unit), CMM_ERR_NOT_INIT);
 5530              		.loc 1 543 5 discriminator 5 view .LVU1590
 543:../Switch/core/yt/yt_port.c ****     CMM_PARAM_CHK(NULL == YT_DISPATCH(unit), CMM_ERR_NOT_INIT);
 5531              		.loc 1 543 5 discriminator 5 view .LVU1591
 5532 003e 0520     		movs	r0, #5
 5533 0040 F8E7     		b	.L542
 5534              	.LVL747:
 5535              	.L560:
 543:../Switch/core/yt/yt_port.c ****     CMM_PARAM_CHK(NULL == YT_DISPATCH(unit), CMM_ERR_NOT_INIT);
 5536              		.loc 1 543 5 discriminator 3 view .LVU1592
 5537              	.LBB109:
 543:../Switch/core/yt/yt_port.c ****     CMM_PARAM_CHK(NULL == YT_DISPATCH(unit), CMM_ERR_NOT_INIT);
 5538              		.loc 1 543 5 discriminator 3 view .LVU1593
 5539 0042 244B     		ldr	r3, .L565+16
 5540 0044 5A69     		ldr	r2, [r3, #20]
 5541              	.LVL748:
 543:../Switch/core/yt/yt_port.c ****     CMM_PARAM_CHK(NULL == YT_DISPATCH(unit), CMM_ERR_NOT_INIT);
 5542              		.loc 1 543 5 is_stmt 0 discriminator 3 view .LVU1594
 5543 0046 244B     		ldr	r3, .L565+20
 5544 0048 9968     		ldr	r1, [r3, #8]
 5545              	.LVL749:
 543:../Switch/core/yt/yt_port.c ****     CMM_PARAM_CHK(NULL == YT_DISPATCH(unit), CMM_ERR_NOT_INIT);
 5546              		.loc 1 543 5 discriminator 3 view .LVU1595
 5547 004a 2448     		ldr	r0, .L565+24
 5548              	.LVL750:
 543:../Switch/core/yt/yt_port.c ****     CMM_PARAM_CHK(NULL == YT_DISPATCH(unit), CMM_ERR_NOT_INIT);
 5549              		.loc 1 543 5 discriminator 3 view .LVU1596
 5550 004c FFF7FEFF 		bl	osal_printf
 5551              	.LVL751:
 5552 0050 F5E7     		b	.L544
 5553              	.LVL752:
 5554              	.L557:
 543:../Switch/core/yt/yt_port.c ****     CMM_PARAM_CHK(NULL == YT_DISPATCH(unit), CMM_ERR_NOT_INIT);
 5555              		.loc 1 543 5 discriminator 3 view .LVU1597
 5556              	.LBE109:
 544:../Switch/core/yt/yt_port.c ****     CMM_PARAM_CHK((!(YT_DISPATCH(unit)->is_inited)), CMM_ERR_NOT_INIT);
 5557              		.loc 1 544 5 is_stmt 1 discriminator 1 view .LVU1598
 544:../Switch/core/yt/yt_port.c ****     CMM_PARAM_CHK((!(YT_DISPATCH(unit)->is_inited)), CMM_ERR_NOT_INIT);
 5558              		.loc 1 544 5 discriminator 1 view .LVU1599
 5559 0052 1F4B     		ldr	r3, .L565+12
 5560 0054 1B78     		ldrb	r3, [r3]	@ zero_extendqisi2
 5561 0056 012B     		cmp	r3, #1
 5562 0058 01D8     		bhi	.L561
 5563              	.LVL753:
 5564              	.L547:
 544:../Switch/core/yt/yt_port.c ****     CMM_PARAM_CHK((!(YT_DISPATCH(unit)->is_inited)), CMM_ERR_NOT_INIT);
 5565              		.loc 1 544 5 discriminator 5 view .LVU1600
 544:../Switch/core/yt/yt_port.c ****     CMM_PARAM_CHK((!(YT_DISPATCH(unit)->is_inited)), CMM_ERR_NOT_INIT);
 5566              		.loc 1 544 5 discriminator 5 view .LVU1601
 544:../Switch/core/yt/yt_port.c ****     CMM_PARAM_CHK((!(YT_DISPATCH(unit)->is_inited)), CMM_ERR_NOT_INIT);
 5567              		.loc 1 544 5 discriminator 5 view .LVU1602
 5568 005a 0420     		movs	r0, #4
 5569 005c EAE7     		b	.L542
 5570              	.LVL754:
 5571              	.L561:
 544:../Switch/core/yt/yt_port.c ****     CMM_PARAM_CHK((!(YT_DISPATCH(unit)->is_inited)), CMM_ERR_NOT_INIT);
 5572              		.loc 1 544 5 discriminator 3 view .LVU1603
 5573              	.LBB110:
 544:../Switch/core/yt/yt_port.c ****     CMM_PARAM_CHK((!(YT_DISPATCH(unit)->is_inited)), CMM_ERR_NOT_INIT);
 5574              		.loc 1 544 5 discriminator 3 view .LVU1604
 5575 005e 1D4B     		ldr	r3, .L565+16
 5576 0060 1A69     		ldr	r2, [r3, #16]
 5577              	.LVL755:
 544:../Switch/core/yt/yt_port.c ****     CMM_PARAM_CHK((!(YT_DISPATCH(unit)->is_inited)), CMM_ERR_NOT_INIT);
 5578              		.loc 1 544 5 is_stmt 0 discriminator 3 view .LVU1605
 5579 0062 1D4B     		ldr	r3, .L565+20
 5580 0064 9968     		ldr	r1, [r3, #8]
 5581              	.LVL756:
 544:../Switch/core/yt/yt_port.c ****     CMM_PARAM_CHK((!(YT_DISPATCH(unit)->is_inited)), CMM_ERR_NOT_INIT);
 5582              		.loc 1 544 5 discriminator 3 view .LVU1606
 5583 0066 1D48     		ldr	r0, .L565+24
 5584              	.LVL757:
 544:../Switch/core/yt/yt_port.c ****     CMM_PARAM_CHK((!(YT_DISPATCH(unit)->is_inited)), CMM_ERR_NOT_INIT);
 5585              		.loc 1 544 5 discriminator 3 view .LVU1607
 5586 0068 FFF7FEFF 		bl	osal_printf
 5587              	.LVL758:
 5588 006c F5E7     		b	.L547
 5589              	.LVL759:
 5590              	.L558:
 544:../Switch/core/yt/yt_port.c ****     CMM_PARAM_CHK((!(YT_DISPATCH(unit)->is_inited)), CMM_ERR_NOT_INIT);
 5591              		.loc 1 544 5 discriminator 3 view .LVU1608
 5592              	.LBE110:
 545:../Switch/core/yt/yt_port.c ****     CMM_PARAM_CHK((!(CMM_PORT_VALID(unit, port))), CMM_ERR_PORT);
 5593              		.loc 1 545 5 is_stmt 1 discriminator 1 view .LVU1609
 545:../Switch/core/yt/yt_port.c ****     CMM_PARAM_CHK((!(CMM_PORT_VALID(unit, port))), CMM_ERR_PORT);
 5594              		.loc 1 545 5 discriminator 1 view .LVU1610
 5595 006e 184B     		ldr	r3, .L565+12
 5596 0070 1B78     		ldrb	r3, [r3]	@ zero_extendqisi2
 5597 0072 012B     		cmp	r3, #1
 5598 0074 01D8     		bhi	.L562
 5599              	.LVL760:
 5600              	.L549:
 545:../Switch/core/yt/yt_port.c ****     CMM_PARAM_CHK((!(CMM_PORT_VALID(unit, port))), CMM_ERR_PORT);
 5601              		.loc 1 545 5 discriminator 5 view .LVU1611
 545:../Switch/core/yt/yt_port.c ****     CMM_PARAM_CHK((!(CMM_PORT_VALID(unit, port))), CMM_ERR_PORT);
 5602              		.loc 1 545 5 discriminator 5 view .LVU1612
 545:../Switch/core/yt/yt_port.c ****     CMM_PARAM_CHK((!(CMM_PORT_VALID(unit, port))), CMM_ERR_PORT);
 5603              		.loc 1 545 5 discriminator 5 view .LVU1613
 5604 0076 0420     		movs	r0, #4
 5605 0078 DCE7     		b	.L542
 5606              	.LVL761:
 5607              	.L562:
 545:../Switch/core/yt/yt_port.c ****     CMM_PARAM_CHK((!(CMM_PORT_VALID(unit, port))), CMM_ERR_PORT);
 5608              		.loc 1 545 5 discriminator 3 view .LVU1614
 5609              	.LBB111:
 545:../Switch/core/yt/yt_port.c ****     CMM_PARAM_CHK((!(CMM_PORT_VALID(unit, port))), CMM_ERR_PORT);
 5610              		.loc 1 545 5 discriminator 3 view .LVU1615
 5611 007a 164B     		ldr	r3, .L565+16
 5612 007c 1A69     		ldr	r2, [r3, #16]
 5613              	.LVL762:
 545:../Switch/core/yt/yt_port.c ****     CMM_PARAM_CHK((!(CMM_PORT_VALID(unit, port))), CMM_ERR_PORT);
 5614              		.loc 1 545 5 is_stmt 0 discriminator 3 view .LVU1616
 5615 007e 164B     		ldr	r3, .L565+20
 5616 0080 9968     		ldr	r1, [r3, #8]
 5617              	.LVL763:
 545:../Switch/core/yt/yt_port.c ****     CMM_PARAM_CHK((!(CMM_PORT_VALID(unit, port))), CMM_ERR_PORT);
 5618              		.loc 1 545 5 discriminator 3 view .LVU1617
 5619 0082 1648     		ldr	r0, .L565+24
 5620 0084 FFF7FEFF 		bl	osal_printf
 5621              	.LVL764:
 5622 0088 F5E7     		b	.L549
 5623              	.LVL765:
 5624              	.L550:
 545:../Switch/core/yt/yt_port.c ****     CMM_PARAM_CHK((!(CMM_PORT_VALID(unit, port))), CMM_ERR_PORT);
 5625              		.loc 1 545 5 discriminator 3 view .LVU1618
 5626              	.LBE111:
 546:../Switch/core/yt/yt_port.c ****     CMM_PARAM_CHK((NULL == pEnable), CMM_ERR_NULL_POINT);
 5627              		.loc 1 546 5 is_stmt 1 discriminator 3 view .LVU1619
 546:../Switch/core/yt/yt_port.c ****     CMM_PARAM_CHK((NULL == pEnable), CMM_ERR_NULL_POINT);
 5628              		.loc 1 546 5 discriminator 3 view .LVU1620
 5629 008a 114B     		ldr	r3, .L565+12
 5630 008c 1B78     		ldrb	r3, [r3]	@ zero_extendqisi2
 5631 008e 012B     		cmp	r3, #1
 5632 0090 01D8     		bhi	.L563
 5633              	.LVL766:
 5634              	.L552:
 546:../Switch/core/yt/yt_port.c ****     CMM_PARAM_CHK((NULL == pEnable), CMM_ERR_NULL_POINT);
 5635              		.loc 1 546 5 discriminator 7 view .LVU1621
 546:../Switch/core/yt/yt_port.c ****     CMM_PARAM_CHK((NULL == pEnable), CMM_ERR_NULL_POINT);
 5636              		.loc 1 546 5 discriminator 7 view .LVU1622
 546:../Switch/core/yt/yt_port.c ****     CMM_PARAM_CHK((NULL == pEnable), CMM_ERR_NULL_POINT);
 5637              		.loc 1 546 5 discriminator 7 view .LVU1623
 5638 0092 0E20     		movs	r0, #14
 5639 0094 CEE7     		b	.L542
 5640              	.LVL767:
 5641              	.L563:
 546:../Switch/core/yt/yt_port.c ****     CMM_PARAM_CHK((NULL == pEnable), CMM_ERR_NULL_POINT);
 5642              		.loc 1 546 5 discriminator 5 view .LVU1624
 5643              	.LBB112:
 546:../Switch/core/yt/yt_port.c ****     CMM_PARAM_CHK((NULL == pEnable), CMM_ERR_NULL_POINT);
 5644              		.loc 1 546 5 discriminator 5 view .LVU1625
 5645 0096 0F4B     		ldr	r3, .L565+16
 5646 0098 9A6B     		ldr	r2, [r3, #56]
 5647              	.LVL768:
 546:../Switch/core/yt/yt_port.c ****     CMM_PARAM_CHK((NULL == pEnable), CMM_ERR_NULL_POINT);
 5648              		.loc 1 546 5 is_stmt 0 discriminator 5 view .LVU1626
 5649 009a 0F4B     		ldr	r3, .L565+20
 5650 009c 9968     		ldr	r1, [r3, #8]
 5651              	.LVL769:
 546:../Switch/core/yt/yt_port.c ****     CMM_PARAM_CHK((NULL == pEnable), CMM_ERR_NULL_POINT);
 5652              		.loc 1 546 5 discriminator 5 view .LVU1627
 5653 009e 0F48     		ldr	r0, .L565+24
 5654 00a0 FFF7FEFF 		bl	osal_printf
 5655              	.LVL770:
 5656 00a4 F5E7     		b	.L552
 5657              	.LVL771:
 5658              	.L559:
 546:../Switch/core/yt/yt_port.c ****     CMM_PARAM_CHK((NULL == pEnable), CMM_ERR_NULL_POINT);
 5659              		.loc 1 546 5 discriminator 5 view .LVU1628
 5660              	.LBE112:
 547:../Switch/core/yt/yt_port.c **** 
 5661              		.loc 1 547 5 is_stmt 1 discriminator 1 view .LVU1629
 547:../Switch/core/yt/yt_port.c **** 
 5662              		.loc 1 547 5 discriminator 1 view .LVU1630
 5663 00a6 0A4B     		ldr	r3, .L565+12
 5664 00a8 1B78     		ldrb	r3, [r3]	@ zero_extendqisi2
 5665 00aa 012B     		cmp	r3, #1
 5666 00ac 01D8     		bhi	.L564
 5667              	.LVL772:
 5668              	.L554:
 547:../Switch/core/yt/yt_port.c **** 
 5669              		.loc 1 547 5 discriminator 5 view .LVU1631
 547:../Switch/core/yt/yt_port.c **** 
 5670              		.loc 1 547 5 discriminator 5 view .LVU1632
 547:../Switch/core/yt/yt_port.c **** 
 5671              		.loc 1 547 5 discriminator 5 view .LVU1633
 5672 00ae 0220     		movs	r0, #2
 5673 00b0 C0E7     		b	.L542
 5674              	.LVL773:
 5675              	.L564:
 547:../Switch/core/yt/yt_port.c **** 
 5676              		.loc 1 547 5 discriminator 3 view .LVU1634
 5677              	.LBB113:
 547:../Switch/core/yt/yt_port.c **** 
 5678              		.loc 1 547 5 discriminator 3 view .LVU1635
 5679 00b2 084B     		ldr	r3, .L565+16
 5680 00b4 9A68     		ldr	r2, [r3, #8]
 5681              	.LVL774:
 547:../Switch/core/yt/yt_port.c **** 
 5682              		.loc 1 547 5 is_stmt 0 discriminator 3 view .LVU1636
 5683 00b6 084B     		ldr	r3, .L565+20
 5684 00b8 9968     		ldr	r1, [r3, #8]
 5685              	.LVL775:
 547:../Switch/core/yt/yt_port.c **** 
 5686              		.loc 1 547 5 discriminator 3 view .LVU1637
 5687 00ba 0848     		ldr	r0, .L565+24
 5688 00bc FFF7FEFF 		bl	osal_printf
 5689              	.LVL776:
 5690 00c0 F5E7     		b	.L554
 5691              	.L566:
 5692 00c2 00BF     		.align	2
 5693              	.L565:
 5694 00c4 00000000 		.word	gpfal_dispatch
 5695 00c8 00000000 		.word	gcal_inited
 5696 00cc 00000000 		.word	gpSwitchUnit
 5697 00d0 00000000 		.word	yt_debug_level
 5698 00d4 00000000 		.word	_yt_errmsg
 5699 00d8 00000000 		.word	_yt_prompt_msg
 5700 00dc 00000000 		.word	.LC0
 5701              	.LBE113:
 5702              		.cfi_endproc
 5703              	.LFE25:
 5705              		.section	.text.yt_port_phyAutoNeg_ability_set,"ax",%progbits
 5706              		.align	1
 5707              		.global	yt_port_phyAutoNeg_ability_set
 5708              		.syntax unified
 5709              		.thumb
 5710              		.thumb_func
 5712              	yt_port_phyAutoNeg_ability_set:
 5713              	.LVL777:
 5714              	.LFB26:
 551:../Switch/core/yt/yt_port.c **** 
 552:../Switch/core/yt/yt_port.c **** /**
 553:../Switch/core/yt/yt_port.c ****  * @internal      yt_port_phyAutoNeg_ability_set
 554:../Switch/core/yt/yt_port.c ****  * @endinternal
 555:../Switch/core/yt/yt_port.c ****  *
 556:../Switch/core/yt/yt_port.c ****  * @brief         Description
 557:../Switch/core/yt/yt_port.c ****  * @note          APPLICABLE DEVICES  -Tiger
 558:../Switch/core/yt/yt_port.c ****  * @param[in]     unit                -unit id
 559:../Switch/core/yt/yt_port.c ****  * @param[in]     port                -port num
 560:../Switch/core/yt/yt_port.c ****  * @param[in]     ability             -x
 561:../Switch/core/yt/yt_port.c ****  * @retval        CMM_ERR_OK          -on success
 562:../Switch/core/yt/yt_port.c ****  * @retval        CMM_ERR_FAIL        -on fail
 563:../Switch/core/yt/yt_port.c ****  */
 564:../Switch/core/yt/yt_port.c **** yt_ret_t yt_port_phyAutoNeg_ability_set(yt_unit_t unit, yt_port_t port, yt_port_an_ability_t abilit
 565:../Switch/core/yt/yt_port.c **** {
 5715              		.loc 1 565 1 is_stmt 1 view -0
 5716              		.cfi_startproc
 5717              		@ args = 0, pretend = 0, frame = 8
 5718              		@ frame_needed = 0, uses_anonymous_args = 0
 5719              		.loc 1 565 1 is_stmt 0 view .LVU1639
 5720 0000 10B5     		push	{r4, lr}
 5721              		.cfi_def_cfa_offset 8
 5722              		.cfi_offset 4, -8
 5723              		.cfi_offset 14, -4
 5724 0002 82B0     		sub	sp, sp, #8
 5725              		.cfi_def_cfa_offset 16
 5726 0004 02AC     		add	r4, sp, #8
 5727 0006 04E90C00 		stmdb	r4, {r2, r3}
 566:../Switch/core/yt/yt_port.c ****     CMM_PARAM_CHK((YT_UNIT_NUM <= unit), CMM_ERR_INPUT);
 5728              		.loc 1 566 5 is_stmt 1 view .LVU1640
 5729              		.loc 1 566 5 view .LVU1641
 5730 000a C0B9     		cbnz	r0, .L579
 5731              		.loc 1 566 5 discriminator 2 view .LVU1642
 567:../Switch/core/yt/yt_port.c ****     CMM_PARAM_CHK(NULL == YT_DISPATCH(unit), CMM_ERR_NOT_INIT);
 5732              		.loc 1 567 5 discriminator 2 view .LVU1643
 5733              		.loc 1 567 5 discriminator 2 view .LVU1644
 5734 000c 284B     		ldr	r3, .L586
 5735 000e 53F82030 		ldr	r3, [r3, r0, lsl #2]
 5736 0012 13B3     		cbz	r3, .L580
 5737              		.loc 1 567 5 discriminator 2 view .LVU1645
 568:../Switch/core/yt/yt_port.c ****     CMM_PARAM_CHK((!(YT_DISPATCH(unit)->is_inited)), CMM_ERR_NOT_INIT);
 5738              		.loc 1 568 5 discriminator 2 view .LVU1646
 5739              		.loc 1 568 5 discriminator 2 view .LVU1647
 5740 0014 1A78     		ldrb	r2, [r3]	@ zero_extendqisi2
 5741 0016 002A     		cmp	r2, #0
 5742 0018 2DD0     		beq	.L581
 5743              		.loc 1 568 5 discriminator 2 view .LVU1648
 569:../Switch/core/yt/yt_port.c ****     CMM_PARAM_CHK((!(CMM_PORT_VALID(unit, port))), CMM_ERR_PORT);
 5744              		.loc 1 569 5 discriminator 2 view .LVU1649
 5745              		.loc 1 569 5 discriminator 2 view .LVU1650
 5746 001a 264A     		ldr	r2, .L586+4
 5747 001c 1278     		ldrb	r2, [r2]	@ zero_extendqisi2
 5748 001e 002A     		cmp	r2, #0
 5749 0020 37D0     		beq	.L575
 5750 0022 254A     		ldr	r2, .L586+8
 5751 0024 52F82020 		ldr	r2, [r2, r0, lsl #2]
 5752 0028 127D     		ldrb	r2, [r2, #20]	@ zero_extendqisi2
 5753 002a 8A42     		cmp	r2, r1
 5754 002c 31D9     		bls	.L575
 5755              		.loc 1 569 5 discriminator 4 view .LVU1651
 570:../Switch/core/yt/yt_port.c **** 
 571:../Switch/core/yt/yt_port.c ****     return YT_DISPATCH(unit)->port_phyAutoNeg_ability_set(unit, port, ability);
 5756              		.loc 1 571 5 discriminator 4 view .LVU1652
 5757              		.loc 1 571 29 is_stmt 0 discriminator 4 view .LVU1653
 5758 002e D3F8B445 		ldr	r4, [r3, #1460]
 5759              		.loc 1 571 12 discriminator 4 view .LVU1654
 5760 0032 02AB     		add	r3, sp, #8
 5761 0034 13E90C00 		ldmdb	r3, {r2, r3}
 5762 0038 A047     		blx	r4
 5763              	.LVL778:
 5764              	.L567:
 572:../Switch/core/yt/yt_port.c **** }
 5765              		.loc 1 572 1 view .LVU1655
 5766 003a 02B0     		add	sp, sp, #8
 5767              		.cfi_remember_state
 5768              		.cfi_def_cfa_offset 8
 5769              		@ sp needed
 5770 003c 10BD     		pop	{r4, pc}
 5771              	.LVL779:
 5772              	.L579:
 5773              		.cfi_restore_state
 566:../Switch/core/yt/yt_port.c ****     CMM_PARAM_CHK(NULL == YT_DISPATCH(unit), CMM_ERR_NOT_INIT);
 5774              		.loc 1 566 5 is_stmt 1 discriminator 1 view .LVU1656
 566:../Switch/core/yt/yt_port.c ****     CMM_PARAM_CHK(NULL == YT_DISPATCH(unit), CMM_ERR_NOT_INIT);
 5775              		.loc 1 566 5 discriminator 1 view .LVU1657
 5776 003e 1F4B     		ldr	r3, .L586+12
 5777 0040 1B78     		ldrb	r3, [r3]	@ zero_extendqisi2
 5778 0042 012B     		cmp	r3, #1
 5779 0044 01D8     		bhi	.L582
 5780              	.LVL780:
 5781              	.L569:
 566:../Switch/core/yt/yt_port.c ****     CMM_PARAM_CHK(NULL == YT_DISPATCH(unit), CMM_ERR_NOT_INIT);
 5782              		.loc 1 566 5 discriminator 5 view .LVU1658
 566:../Switch/core/yt/yt_port.c ****     CMM_PARAM_CHK(NULL == YT_DISPATCH(unit), CMM_ERR_NOT_INIT);
 5783              		.loc 1 566 5 discriminator 5 view .LVU1659
 566:../Switch/core/yt/yt_port.c ****     CMM_PARAM_CHK(NULL == YT_DISPATCH(unit), CMM_ERR_NOT_INIT);
 5784              		.loc 1 566 5 discriminator 5 view .LVU1660
 5785 0046 0520     		movs	r0, #5
 5786 0048 F7E7     		b	.L567
 5787              	.LVL781:
 5788              	.L582:
 566:../Switch/core/yt/yt_port.c ****     CMM_PARAM_CHK(NULL == YT_DISPATCH(unit), CMM_ERR_NOT_INIT);
 5789              		.loc 1 566 5 discriminator 3 view .LVU1661
 5790              	.LBB114:
 566:../Switch/core/yt/yt_port.c ****     CMM_PARAM_CHK(NULL == YT_DISPATCH(unit), CMM_ERR_NOT_INIT);
 5791              		.loc 1 566 5 discriminator 3 view .LVU1662
 5792 004a 1D4B     		ldr	r3, .L586+16
 5793 004c 5A69     		ldr	r2, [r3, #20]
 5794 004e 1D4B     		ldr	r3, .L586+20
 5795 0050 9968     		ldr	r1, [r3, #8]
 5796              	.LVL782:
 566:../Switch/core/yt/yt_port.c ****     CMM_PARAM_CHK(NULL == YT_DISPATCH(unit), CMM_ERR_NOT_INIT);
 5797              		.loc 1 566 5 is_stmt 0 discriminator 3 view .LVU1663
 5798 0052 1D48     		ldr	r0, .L586+24
 5799              	.LVL783:
 566:../Switch/core/yt/yt_port.c ****     CMM_PARAM_CHK(NULL == YT_DISPATCH(unit), CMM_ERR_NOT_INIT);
 5800              		.loc 1 566 5 discriminator 3 view .LVU1664
 5801 0054 FFF7FEFF 		bl	osal_printf
 5802              	.LVL784:
 5803 0058 F5E7     		b	.L569
 5804              	.LVL785:
 5805              	.L580:
 566:../Switch/core/yt/yt_port.c ****     CMM_PARAM_CHK(NULL == YT_DISPATCH(unit), CMM_ERR_NOT_INIT);
 5806              		.loc 1 566 5 discriminator 3 view .LVU1665
 5807              	.LBE114:
 567:../Switch/core/yt/yt_port.c ****     CMM_PARAM_CHK((!(YT_DISPATCH(unit)->is_inited)), CMM_ERR_NOT_INIT);
 5808              		.loc 1 567 5 is_stmt 1 discriminator 1 view .LVU1666
 567:../Switch/core/yt/yt_port.c ****     CMM_PARAM_CHK((!(YT_DISPATCH(unit)->is_inited)), CMM_ERR_NOT_INIT);
 5809              		.loc 1 567 5 discriminator 1 view .LVU1667
 5810 005a 184B     		ldr	r3, .L586+12
 5811 005c 1B78     		ldrb	r3, [r3]	@ zero_extendqisi2
 5812 005e 012B     		cmp	r3, #1
 5813 0060 01D8     		bhi	.L583
 5814              	.LVL786:
 5815              	.L572:
 567:../Switch/core/yt/yt_port.c ****     CMM_PARAM_CHK((!(YT_DISPATCH(unit)->is_inited)), CMM_ERR_NOT_INIT);
 5816              		.loc 1 567 5 discriminator 5 view .LVU1668
 567:../Switch/core/yt/yt_port.c ****     CMM_PARAM_CHK((!(YT_DISPATCH(unit)->is_inited)), CMM_ERR_NOT_INIT);
 5817              		.loc 1 567 5 discriminator 5 view .LVU1669
 567:../Switch/core/yt/yt_port.c ****     CMM_PARAM_CHK((!(YT_DISPATCH(unit)->is_inited)), CMM_ERR_NOT_INIT);
 5818              		.loc 1 567 5 discriminator 5 view .LVU1670
 5819 0062 0420     		movs	r0, #4
 5820 0064 E9E7     		b	.L567
 5821              	.LVL787:
 5822              	.L583:
 567:../Switch/core/yt/yt_port.c ****     CMM_PARAM_CHK((!(YT_DISPATCH(unit)->is_inited)), CMM_ERR_NOT_INIT);
 5823              		.loc 1 567 5 discriminator 3 view .LVU1671
 5824              	.LBB115:
 567:../Switch/core/yt/yt_port.c ****     CMM_PARAM_CHK((!(YT_DISPATCH(unit)->is_inited)), CMM_ERR_NOT_INIT);
 5825              		.loc 1 567 5 discriminator 3 view .LVU1672
 5826 0066 164B     		ldr	r3, .L586+16
 5827 0068 1A69     		ldr	r2, [r3, #16]
 5828 006a 164B     		ldr	r3, .L586+20
 5829 006c 9968     		ldr	r1, [r3, #8]
 5830              	.LVL788:
 567:../Switch/core/yt/yt_port.c ****     CMM_PARAM_CHK((!(YT_DISPATCH(unit)->is_inited)), CMM_ERR_NOT_INIT);
 5831              		.loc 1 567 5 is_stmt 0 discriminator 3 view .LVU1673
 5832 006e 1648     		ldr	r0, .L586+24
 5833              	.LVL789:
 567:../Switch/core/yt/yt_port.c ****     CMM_PARAM_CHK((!(YT_DISPATCH(unit)->is_inited)), CMM_ERR_NOT_INIT);
 5834              		.loc 1 567 5 discriminator 3 view .LVU1674
 5835 0070 FFF7FEFF 		bl	osal_printf
 5836              	.LVL790:
 5837 0074 F5E7     		b	.L572
 5838              	.LVL791:
 5839              	.L581:
 567:../Switch/core/yt/yt_port.c ****     CMM_PARAM_CHK((!(YT_DISPATCH(unit)->is_inited)), CMM_ERR_NOT_INIT);
 5840              		.loc 1 567 5 discriminator 3 view .LVU1675
 5841              	.LBE115:
 568:../Switch/core/yt/yt_port.c ****     CMM_PARAM_CHK((!(CMM_PORT_VALID(unit, port))), CMM_ERR_PORT);
 5842              		.loc 1 568 5 is_stmt 1 discriminator 1 view .LVU1676
 568:../Switch/core/yt/yt_port.c ****     CMM_PARAM_CHK((!(CMM_PORT_VALID(unit, port))), CMM_ERR_PORT);
 5843              		.loc 1 568 5 discriminator 1 view .LVU1677
 5844 0076 114B     		ldr	r3, .L586+12
 5845 0078 1B78     		ldrb	r3, [r3]	@ zero_extendqisi2
 5846 007a 012B     		cmp	r3, #1
 5847 007c 01D8     		bhi	.L584
 5848              	.LVL792:
 5849              	.L574:
 568:../Switch/core/yt/yt_port.c ****     CMM_PARAM_CHK((!(CMM_PORT_VALID(unit, port))), CMM_ERR_PORT);
 5850              		.loc 1 568 5 discriminator 5 view .LVU1678
 568:../Switch/core/yt/yt_port.c ****     CMM_PARAM_CHK((!(CMM_PORT_VALID(unit, port))), CMM_ERR_PORT);
 5851              		.loc 1 568 5 discriminator 5 view .LVU1679
 568:../Switch/core/yt/yt_port.c ****     CMM_PARAM_CHK((!(CMM_PORT_VALID(unit, port))), CMM_ERR_PORT);
 5852              		.loc 1 568 5 discriminator 5 view .LVU1680
 5853 007e 0420     		movs	r0, #4
 5854 0080 DBE7     		b	.L567
 5855              	.LVL793:
 5856              	.L584:
 568:../Switch/core/yt/yt_port.c ****     CMM_PARAM_CHK((!(CMM_PORT_VALID(unit, port))), CMM_ERR_PORT);
 5857              		.loc 1 568 5 discriminator 3 view .LVU1681
 5858              	.LBB116:
 568:../Switch/core/yt/yt_port.c ****     CMM_PARAM_CHK((!(CMM_PORT_VALID(unit, port))), CMM_ERR_PORT);
 5859              		.loc 1 568 5 discriminator 3 view .LVU1682
 5860 0082 0F4B     		ldr	r3, .L586+16
 5861 0084 1A69     		ldr	r2, [r3, #16]
 5862 0086 0F4B     		ldr	r3, .L586+20
 5863 0088 9968     		ldr	r1, [r3, #8]
 5864              	.LVL794:
 568:../Switch/core/yt/yt_port.c ****     CMM_PARAM_CHK((!(CMM_PORT_VALID(unit, port))), CMM_ERR_PORT);
 5865              		.loc 1 568 5 is_stmt 0 discriminator 3 view .LVU1683
 5866 008a 0F48     		ldr	r0, .L586+24
 5867              	.LVL795:
 568:../Switch/core/yt/yt_port.c ****     CMM_PARAM_CHK((!(CMM_PORT_VALID(unit, port))), CMM_ERR_PORT);
 5868              		.loc 1 568 5 discriminator 3 view .LVU1684
 5869 008c FFF7FEFF 		bl	osal_printf
 5870              	.LVL796:
 5871 0090 F5E7     		b	.L574
 5872              	.LVL797:
 5873              	.L575:
 568:../Switch/core/yt/yt_port.c ****     CMM_PARAM_CHK((!(CMM_PORT_VALID(unit, port))), CMM_ERR_PORT);
 5874              		.loc 1 568 5 discriminator 3 view .LVU1685
 5875              	.LBE116:
 569:../Switch/core/yt/yt_port.c **** 
 5876              		.loc 1 569 5 is_stmt 1 discriminator 3 view .LVU1686
 569:../Switch/core/yt/yt_port.c **** 
 5877              		.loc 1 569 5 discriminator 3 view .LVU1687
 5878 0092 0A4B     		ldr	r3, .L586+12
 5879 0094 1B78     		ldrb	r3, [r3]	@ zero_extendqisi2
 5880 0096 012B     		cmp	r3, #1
 5881 0098 01D8     		bhi	.L585
 5882              	.LVL798:
 5883              	.L577:
 569:../Switch/core/yt/yt_port.c **** 
 5884              		.loc 1 569 5 discriminator 7 view .LVU1688
 569:../Switch/core/yt/yt_port.c **** 
 5885              		.loc 1 569 5 discriminator 7 view .LVU1689
 569:../Switch/core/yt/yt_port.c **** 
 5886              		.loc 1 569 5 discriminator 7 view .LVU1690
 5887 009a 0E20     		movs	r0, #14
 5888 009c CDE7     		b	.L567
 5889              	.LVL799:
 5890              	.L585:
 569:../Switch/core/yt/yt_port.c **** 
 5891              		.loc 1 569 5 discriminator 5 view .LVU1691
 5892              	.LBB117:
 569:../Switch/core/yt/yt_port.c **** 
 5893              		.loc 1 569 5 discriminator 5 view .LVU1692
 5894 009e 084B     		ldr	r3, .L586+16
 5895 00a0 9A6B     		ldr	r2, [r3, #56]
 5896 00a2 084B     		ldr	r3, .L586+20
 5897 00a4 9968     		ldr	r1, [r3, #8]
 5898              	.LVL800:
 569:../Switch/core/yt/yt_port.c **** 
 5899              		.loc 1 569 5 is_stmt 0 discriminator 5 view .LVU1693
 5900 00a6 0848     		ldr	r0, .L586+24
 5901              	.LVL801:
 569:../Switch/core/yt/yt_port.c **** 
 5902              		.loc 1 569 5 discriminator 5 view .LVU1694
 5903 00a8 FFF7FEFF 		bl	osal_printf
 5904              	.LVL802:
 5905 00ac F5E7     		b	.L577
 5906              	.L587:
 5907 00ae 00BF     		.align	2
 5908              	.L586:
 5909 00b0 00000000 		.word	gpfal_dispatch
 5910 00b4 00000000 		.word	gcal_inited
 5911 00b8 00000000 		.word	gpSwitchUnit
 5912 00bc 00000000 		.word	yt_debug_level
 5913 00c0 00000000 		.word	_yt_errmsg
 5914 00c4 00000000 		.word	_yt_prompt_msg
 5915 00c8 00000000 		.word	.LC0
 5916              	.LBE117:
 5917              		.cfi_endproc
 5918              	.LFE26:
 5920              		.section	.text.yt_port_phyAutoNeg_ability_get,"ax",%progbits
 5921              		.align	1
 5922              		.global	yt_port_phyAutoNeg_ability_get
 5923              		.syntax unified
 5924              		.thumb
 5925              		.thumb_func
 5927              	yt_port_phyAutoNeg_ability_get:
 5928              	.LVL803:
 5929              	.LFB27:
 573:../Switch/core/yt/yt_port.c **** 
 574:../Switch/core/yt/yt_port.c **** /**
 575:../Switch/core/yt/yt_port.c ****  * @internal      yt_port_phyAutoNeg_ability_get
 576:../Switch/core/yt/yt_port.c ****  * @endinternal
 577:../Switch/core/yt/yt_port.c ****  *
 578:../Switch/core/yt/yt_port.c ****  * @brief         Description
 579:../Switch/core/yt/yt_port.c ****  * @note          APPLICABLE DEVICES  -Tiger
 580:../Switch/core/yt/yt_port.c ****  * @param[in]     unit                -unit id
 581:../Switch/core/yt/yt_port.c ****  * @param[in]     port                -port num
 582:../Switch/core/yt/yt_port.c ****  * @param[out]    pAbility            -x
 583:../Switch/core/yt/yt_port.c ****  * @retval        CMM_ERR_OK          -on success
 584:../Switch/core/yt/yt_port.c ****  * @retval        CMM_ERR_FAIL        -on fail
 585:../Switch/core/yt/yt_port.c ****  */
 586:../Switch/core/yt/yt_port.c **** yt_ret_t yt_port_phyAutoNeg_ability_get(yt_unit_t unit, yt_port_t port, yt_port_an_ability_t *pAbil
 587:../Switch/core/yt/yt_port.c **** {
 5930              		.loc 1 587 1 is_stmt 1 view -0
 5931              		.cfi_startproc
 5932              		@ args = 0, pretend = 0, frame = 0
 5933              		@ frame_needed = 0, uses_anonymous_args = 0
 5934              		.loc 1 587 1 is_stmt 0 view .LVU1696
 5935 0000 08B5     		push	{r3, lr}
 5936              		.cfi_def_cfa_offset 8
 5937              		.cfi_offset 3, -8
 5938              		.cfi_offset 14, -4
 588:../Switch/core/yt/yt_port.c ****     CMM_PARAM_CHK((YT_UNIT_NUM <= unit), CMM_ERR_INPUT);
 5939              		.loc 1 588 5 is_stmt 1 view .LVU1697
 5940              		.loc 1 588 5 view .LVU1698
 5941 0002 C0B9     		cbnz	r0, .L602
 5942 0004 8446     		mov	ip, r0
 5943              		.loc 1 588 5 discriminator 2 view .LVU1699
 589:../Switch/core/yt/yt_port.c ****     CMM_PARAM_CHK(NULL == YT_DISPATCH(unit), CMM_ERR_NOT_INIT);
 5944              		.loc 1 589 5 discriminator 2 view .LVU1700
 5945              		.loc 1 589 5 discriminator 2 view .LVU1701
 5946 0006 2F4B     		ldr	r3, .L611
 5947 0008 53F82030 		ldr	r3, [r3, r0, lsl #2]
 5948 000c 0BB3     		cbz	r3, .L603
 5949              		.loc 1 589 5 discriminator 2 view .LVU1702
 590:../Switch/core/yt/yt_port.c ****     CMM_PARAM_CHK((!(YT_DISPATCH(unit)->is_inited)), CMM_ERR_NOT_INIT);
 5950              		.loc 1 590 5 discriminator 2 view .LVU1703
 5951              		.loc 1 590 5 discriminator 2 view .LVU1704
 5952 000e 1878     		ldrb	r0, [r3]	@ zero_extendqisi2
 5953              	.LVL804:
 5954              		.loc 1 590 5 is_stmt 0 discriminator 2 view .LVU1705
 5955 0010 0028     		cmp	r0, #0
 5956 0012 2CD0     		beq	.L604
 5957              		.loc 1 590 5 is_stmt 1 discriminator 2 view .LVU1706
 591:../Switch/core/yt/yt_port.c ****     CMM_PARAM_CHK((!(CMM_PORT_VALID(unit, port))), CMM_ERR_PORT);
 5958              		.loc 1 591 5 discriminator 2 view .LVU1707
 5959              		.loc 1 591 5 discriminator 2 view .LVU1708
 5960 0014 2C48     		ldr	r0, .L611+4
 5961 0016 0078     		ldrb	r0, [r0]	@ zero_extendqisi2
 5962 0018 0028     		cmp	r0, #0
 5963 001a 36D0     		beq	.L596
 5964 001c 2B48     		ldr	r0, .L611+8
 5965 001e 50F82C00 		ldr	r0, [r0, ip, lsl #2]
 5966 0022 007D     		ldrb	r0, [r0, #20]	@ zero_extendqisi2
 5967 0024 8842     		cmp	r0, r1
 5968 0026 30D9     		bls	.L596
 5969              		.loc 1 591 5 discriminator 4 view .LVU1709
 592:../Switch/core/yt/yt_port.c ****     CMM_PARAM_CHK((NULL == pAbility), CMM_ERR_NULL_POINT);
 5970              		.loc 1 592 5 discriminator 4 view .LVU1710
 5971              		.loc 1 592 5 discriminator 4 view .LVU1711
 5972 0028 002A     		cmp	r2, #0
 5973 002a 3CD0     		beq	.L605
 5974              		.loc 1 592 5 discriminator 2 view .LVU1712
 593:../Switch/core/yt/yt_port.c **** 
 594:../Switch/core/yt/yt_port.c ****     return YT_DISPATCH(unit)->port_phyAutoNeg_ability_get(unit, port, pAbility);
 5975              		.loc 1 594 5 discriminator 2 view .LVU1713
 5976              		.loc 1 594 29 is_stmt 0 discriminator 2 view .LVU1714
 5977 002c D3F8B835 		ldr	r3, [r3, #1464]
 5978              		.loc 1 594 12 discriminator 2 view .LVU1715
 5979 0030 6046     		mov	r0, ip
 5980 0032 9847     		blx	r3
 5981              	.LVL805:
 5982              	.L588:
 595:../Switch/core/yt/yt_port.c **** }
 5983              		.loc 1 595 1 view .LVU1716
 5984 0034 08BD     		pop	{r3, pc}
 5985              	.LVL806:
 5986              	.L602:
 588:../Switch/core/yt/yt_port.c ****     CMM_PARAM_CHK(NULL == YT_DISPATCH(unit), CMM_ERR_NOT_INIT);
 5987              		.loc 1 588 5 is_stmt 1 discriminator 1 view .LVU1717
 588:../Switch/core/yt/yt_port.c ****     CMM_PARAM_CHK(NULL == YT_DISPATCH(unit), CMM_ERR_NOT_INIT);
 5988              		.loc 1 588 5 discriminator 1 view .LVU1718
 5989 0036 264B     		ldr	r3, .L611+12
 5990 0038 1B78     		ldrb	r3, [r3]	@ zero_extendqisi2
 5991 003a 012B     		cmp	r3, #1
 5992 003c 01D8     		bhi	.L606
 5993              	.LVL807:
 5994              	.L590:
 588:../Switch/core/yt/yt_port.c ****     CMM_PARAM_CHK(NULL == YT_DISPATCH(unit), CMM_ERR_NOT_INIT);
 5995              		.loc 1 588 5 discriminator 5 view .LVU1719
 588:../Switch/core/yt/yt_port.c ****     CMM_PARAM_CHK(NULL == YT_DISPATCH(unit), CMM_ERR_NOT_INIT);
 5996              		.loc 1 588 5 discriminator 5 view .LVU1720
 588:../Switch/core/yt/yt_port.c ****     CMM_PARAM_CHK(NULL == YT_DISPATCH(unit), CMM_ERR_NOT_INIT);
 5997              		.loc 1 588 5 discriminator 5 view .LVU1721
 5998 003e 0520     		movs	r0, #5
 5999 0040 F8E7     		b	.L588
 6000              	.LVL808:
 6001              	.L606:
 588:../Switch/core/yt/yt_port.c ****     CMM_PARAM_CHK(NULL == YT_DISPATCH(unit), CMM_ERR_NOT_INIT);
 6002              		.loc 1 588 5 discriminator 3 view .LVU1722
 6003              	.LBB118:
 588:../Switch/core/yt/yt_port.c ****     CMM_PARAM_CHK(NULL == YT_DISPATCH(unit), CMM_ERR_NOT_INIT);
 6004              		.loc 1 588 5 discriminator 3 view .LVU1723
 6005 0042 244B     		ldr	r3, .L611+16
 6006 0044 5A69     		ldr	r2, [r3, #20]
 6007              	.LVL809:
 588:../Switch/core/yt/yt_port.c ****     CMM_PARAM_CHK(NULL == YT_DISPATCH(unit), CMM_ERR_NOT_INIT);
 6008              		.loc 1 588 5 is_stmt 0 discriminator 3 view .LVU1724
 6009 0046 244B     		ldr	r3, .L611+20
 6010 0048 9968     		ldr	r1, [r3, #8]
 6011              	.LVL810:
 588:../Switch/core/yt/yt_port.c ****     CMM_PARAM_CHK(NULL == YT_DISPATCH(unit), CMM_ERR_NOT_INIT);
 6012              		.loc 1 588 5 discriminator 3 view .LVU1725
 6013 004a 2448     		ldr	r0, .L611+24
 6014              	.LVL811:
 588:../Switch/core/yt/yt_port.c ****     CMM_PARAM_CHK(NULL == YT_DISPATCH(unit), CMM_ERR_NOT_INIT);
 6015              		.loc 1 588 5 discriminator 3 view .LVU1726
 6016 004c FFF7FEFF 		bl	osal_printf
 6017              	.LVL812:
 6018 0050 F5E7     		b	.L590
 6019              	.LVL813:
 6020              	.L603:
 588:../Switch/core/yt/yt_port.c ****     CMM_PARAM_CHK(NULL == YT_DISPATCH(unit), CMM_ERR_NOT_INIT);
 6021              		.loc 1 588 5 discriminator 3 view .LVU1727
 6022              	.LBE118:
 589:../Switch/core/yt/yt_port.c ****     CMM_PARAM_CHK((!(YT_DISPATCH(unit)->is_inited)), CMM_ERR_NOT_INIT);
 6023              		.loc 1 589 5 is_stmt 1 discriminator 1 view .LVU1728
 589:../Switch/core/yt/yt_port.c ****     CMM_PARAM_CHK((!(YT_DISPATCH(unit)->is_inited)), CMM_ERR_NOT_INIT);
 6024              		.loc 1 589 5 discriminator 1 view .LVU1729
 6025 0052 1F4B     		ldr	r3, .L611+12
 6026 0054 1B78     		ldrb	r3, [r3]	@ zero_extendqisi2
 6027 0056 012B     		cmp	r3, #1
 6028 0058 01D8     		bhi	.L607
 6029              	.LVL814:
 6030              	.L593:
 589:../Switch/core/yt/yt_port.c ****     CMM_PARAM_CHK((!(YT_DISPATCH(unit)->is_inited)), CMM_ERR_NOT_INIT);
 6031              		.loc 1 589 5 discriminator 5 view .LVU1730
 589:../Switch/core/yt/yt_port.c ****     CMM_PARAM_CHK((!(YT_DISPATCH(unit)->is_inited)), CMM_ERR_NOT_INIT);
 6032              		.loc 1 589 5 discriminator 5 view .LVU1731
 589:../Switch/core/yt/yt_port.c ****     CMM_PARAM_CHK((!(YT_DISPATCH(unit)->is_inited)), CMM_ERR_NOT_INIT);
 6033              		.loc 1 589 5 discriminator 5 view .LVU1732
 6034 005a 0420     		movs	r0, #4
 6035 005c EAE7     		b	.L588
 6036              	.LVL815:
 6037              	.L607:
 589:../Switch/core/yt/yt_port.c ****     CMM_PARAM_CHK((!(YT_DISPATCH(unit)->is_inited)), CMM_ERR_NOT_INIT);
 6038              		.loc 1 589 5 discriminator 3 view .LVU1733
 6039              	.LBB119:
 589:../Switch/core/yt/yt_port.c ****     CMM_PARAM_CHK((!(YT_DISPATCH(unit)->is_inited)), CMM_ERR_NOT_INIT);
 6040              		.loc 1 589 5 discriminator 3 view .LVU1734
 6041 005e 1D4B     		ldr	r3, .L611+16
 6042 0060 1A69     		ldr	r2, [r3, #16]
 6043              	.LVL816:
 589:../Switch/core/yt/yt_port.c ****     CMM_PARAM_CHK((!(YT_DISPATCH(unit)->is_inited)), CMM_ERR_NOT_INIT);
 6044              		.loc 1 589 5 is_stmt 0 discriminator 3 view .LVU1735
 6045 0062 1D4B     		ldr	r3, .L611+20
 6046 0064 9968     		ldr	r1, [r3, #8]
 6047              	.LVL817:
 589:../Switch/core/yt/yt_port.c ****     CMM_PARAM_CHK((!(YT_DISPATCH(unit)->is_inited)), CMM_ERR_NOT_INIT);
 6048              		.loc 1 589 5 discriminator 3 view .LVU1736
 6049 0066 1D48     		ldr	r0, .L611+24
 6050              	.LVL818:
 589:../Switch/core/yt/yt_port.c ****     CMM_PARAM_CHK((!(YT_DISPATCH(unit)->is_inited)), CMM_ERR_NOT_INIT);
 6051              		.loc 1 589 5 discriminator 3 view .LVU1737
 6052 0068 FFF7FEFF 		bl	osal_printf
 6053              	.LVL819:
 6054 006c F5E7     		b	.L593
 6055              	.LVL820:
 6056              	.L604:
 589:../Switch/core/yt/yt_port.c ****     CMM_PARAM_CHK((!(YT_DISPATCH(unit)->is_inited)), CMM_ERR_NOT_INIT);
 6057              		.loc 1 589 5 discriminator 3 view .LVU1738
 6058              	.LBE119:
 590:../Switch/core/yt/yt_port.c ****     CMM_PARAM_CHK((!(CMM_PORT_VALID(unit, port))), CMM_ERR_PORT);
 6059              		.loc 1 590 5 is_stmt 1 discriminator 1 view .LVU1739
 590:../Switch/core/yt/yt_port.c ****     CMM_PARAM_CHK((!(CMM_PORT_VALID(unit, port))), CMM_ERR_PORT);
 6060              		.loc 1 590 5 discriminator 1 view .LVU1740
 6061 006e 184B     		ldr	r3, .L611+12
 6062 0070 1B78     		ldrb	r3, [r3]	@ zero_extendqisi2
 6063 0072 012B     		cmp	r3, #1
 6064 0074 01D8     		bhi	.L608
 6065              	.LVL821:
 6066              	.L595:
 590:../Switch/core/yt/yt_port.c ****     CMM_PARAM_CHK((!(CMM_PORT_VALID(unit, port))), CMM_ERR_PORT);
 6067              		.loc 1 590 5 discriminator 5 view .LVU1741
 590:../Switch/core/yt/yt_port.c ****     CMM_PARAM_CHK((!(CMM_PORT_VALID(unit, port))), CMM_ERR_PORT);
 6068              		.loc 1 590 5 discriminator 5 view .LVU1742
 590:../Switch/core/yt/yt_port.c ****     CMM_PARAM_CHK((!(CMM_PORT_VALID(unit, port))), CMM_ERR_PORT);
 6069              		.loc 1 590 5 discriminator 5 view .LVU1743
 6070 0076 0420     		movs	r0, #4
 6071 0078 DCE7     		b	.L588
 6072              	.LVL822:
 6073              	.L608:
 590:../Switch/core/yt/yt_port.c ****     CMM_PARAM_CHK((!(CMM_PORT_VALID(unit, port))), CMM_ERR_PORT);
 6074              		.loc 1 590 5 discriminator 3 view .LVU1744
 6075              	.LBB120:
 590:../Switch/core/yt/yt_port.c ****     CMM_PARAM_CHK((!(CMM_PORT_VALID(unit, port))), CMM_ERR_PORT);
 6076              		.loc 1 590 5 discriminator 3 view .LVU1745
 6077 007a 164B     		ldr	r3, .L611+16
 6078 007c 1A69     		ldr	r2, [r3, #16]
 6079              	.LVL823:
 590:../Switch/core/yt/yt_port.c ****     CMM_PARAM_CHK((!(CMM_PORT_VALID(unit, port))), CMM_ERR_PORT);
 6080              		.loc 1 590 5 is_stmt 0 discriminator 3 view .LVU1746
 6081 007e 164B     		ldr	r3, .L611+20
 6082 0080 9968     		ldr	r1, [r3, #8]
 6083              	.LVL824:
 590:../Switch/core/yt/yt_port.c ****     CMM_PARAM_CHK((!(CMM_PORT_VALID(unit, port))), CMM_ERR_PORT);
 6084              		.loc 1 590 5 discriminator 3 view .LVU1747
 6085 0082 1648     		ldr	r0, .L611+24
 6086 0084 FFF7FEFF 		bl	osal_printf
 6087              	.LVL825:
 6088 0088 F5E7     		b	.L595
 6089              	.LVL826:
 6090              	.L596:
 590:../Switch/core/yt/yt_port.c ****     CMM_PARAM_CHK((!(CMM_PORT_VALID(unit, port))), CMM_ERR_PORT);
 6091              		.loc 1 590 5 discriminator 3 view .LVU1748
 6092              	.LBE120:
 591:../Switch/core/yt/yt_port.c ****     CMM_PARAM_CHK((NULL == pAbility), CMM_ERR_NULL_POINT);
 6093              		.loc 1 591 5 is_stmt 1 discriminator 3 view .LVU1749
 591:../Switch/core/yt/yt_port.c ****     CMM_PARAM_CHK((NULL == pAbility), CMM_ERR_NULL_POINT);
 6094              		.loc 1 591 5 discriminator 3 view .LVU1750
 6095 008a 114B     		ldr	r3, .L611+12
 6096 008c 1B78     		ldrb	r3, [r3]	@ zero_extendqisi2
 6097 008e 012B     		cmp	r3, #1
 6098 0090 01D8     		bhi	.L609
 6099              	.LVL827:
 6100              	.L598:
 591:../Switch/core/yt/yt_port.c ****     CMM_PARAM_CHK((NULL == pAbility), CMM_ERR_NULL_POINT);
 6101              		.loc 1 591 5 discriminator 7 view .LVU1751
 591:../Switch/core/yt/yt_port.c ****     CMM_PARAM_CHK((NULL == pAbility), CMM_ERR_NULL_POINT);
 6102              		.loc 1 591 5 discriminator 7 view .LVU1752
 591:../Switch/core/yt/yt_port.c ****     CMM_PARAM_CHK((NULL == pAbility), CMM_ERR_NULL_POINT);
 6103              		.loc 1 591 5 discriminator 7 view .LVU1753
 6104 0092 0E20     		movs	r0, #14
 6105 0094 CEE7     		b	.L588
 6106              	.LVL828:
 6107              	.L609:
 591:../Switch/core/yt/yt_port.c ****     CMM_PARAM_CHK((NULL == pAbility), CMM_ERR_NULL_POINT);
 6108              		.loc 1 591 5 discriminator 5 view .LVU1754
 6109              	.LBB121:
 591:../Switch/core/yt/yt_port.c ****     CMM_PARAM_CHK((NULL == pAbility), CMM_ERR_NULL_POINT);
 6110              		.loc 1 591 5 discriminator 5 view .LVU1755
 6111 0096 0F4B     		ldr	r3, .L611+16
 6112 0098 9A6B     		ldr	r2, [r3, #56]
 6113              	.LVL829:
 591:../Switch/core/yt/yt_port.c ****     CMM_PARAM_CHK((NULL == pAbility), CMM_ERR_NULL_POINT);
 6114              		.loc 1 591 5 is_stmt 0 discriminator 5 view .LVU1756
 6115 009a 0F4B     		ldr	r3, .L611+20
 6116 009c 9968     		ldr	r1, [r3, #8]
 6117              	.LVL830:
 591:../Switch/core/yt/yt_port.c ****     CMM_PARAM_CHK((NULL == pAbility), CMM_ERR_NULL_POINT);
 6118              		.loc 1 591 5 discriminator 5 view .LVU1757
 6119 009e 0F48     		ldr	r0, .L611+24
 6120 00a0 FFF7FEFF 		bl	osal_printf
 6121              	.LVL831:
 6122 00a4 F5E7     		b	.L598
 6123              	.LVL832:
 6124              	.L605:
 591:../Switch/core/yt/yt_port.c ****     CMM_PARAM_CHK((NULL == pAbility), CMM_ERR_NULL_POINT);
 6125              		.loc 1 591 5 discriminator 5 view .LVU1758
 6126              	.LBE121:
 592:../Switch/core/yt/yt_port.c **** 
 6127              		.loc 1 592 5 is_stmt 1 discriminator 1 view .LVU1759
 592:../Switch/core/yt/yt_port.c **** 
 6128              		.loc 1 592 5 discriminator 1 view .LVU1760
 6129 00a6 0A4B     		ldr	r3, .L611+12
 6130 00a8 1B78     		ldrb	r3, [r3]	@ zero_extendqisi2
 6131 00aa 012B     		cmp	r3, #1
 6132 00ac 01D8     		bhi	.L610
 6133              	.LVL833:
 6134              	.L600:
 592:../Switch/core/yt/yt_port.c **** 
 6135              		.loc 1 592 5 discriminator 5 view .LVU1761
 592:../Switch/core/yt/yt_port.c **** 
 6136              		.loc 1 592 5 discriminator 5 view .LVU1762
 592:../Switch/core/yt/yt_port.c **** 
 6137              		.loc 1 592 5 discriminator 5 view .LVU1763
 6138 00ae 0220     		movs	r0, #2
 6139 00b0 C0E7     		b	.L588
 6140              	.LVL834:
 6141              	.L610:
 592:../Switch/core/yt/yt_port.c **** 
 6142              		.loc 1 592 5 discriminator 3 view .LVU1764
 6143              	.LBB122:
 592:../Switch/core/yt/yt_port.c **** 
 6144              		.loc 1 592 5 discriminator 3 view .LVU1765
 6145 00b2 084B     		ldr	r3, .L611+16
 6146 00b4 9A68     		ldr	r2, [r3, #8]
 6147              	.LVL835:
 592:../Switch/core/yt/yt_port.c **** 
 6148              		.loc 1 592 5 is_stmt 0 discriminator 3 view .LVU1766
 6149 00b6 084B     		ldr	r3, .L611+20
 6150 00b8 9968     		ldr	r1, [r3, #8]
 6151              	.LVL836:
 592:../Switch/core/yt/yt_port.c **** 
 6152              		.loc 1 592 5 discriminator 3 view .LVU1767
 6153 00ba 0848     		ldr	r0, .L611+24
 6154 00bc FFF7FEFF 		bl	osal_printf
 6155              	.LVL837:
 6156 00c0 F5E7     		b	.L600
 6157              	.L612:
 6158 00c2 00BF     		.align	2
 6159              	.L611:
 6160 00c4 00000000 		.word	gpfal_dispatch
 6161 00c8 00000000 		.word	gcal_inited
 6162 00cc 00000000 		.word	gpSwitchUnit
 6163 00d0 00000000 		.word	yt_debug_level
 6164 00d4 00000000 		.word	_yt_errmsg
 6165 00d8 00000000 		.word	_yt_prompt_msg
 6166 00dc 00000000 		.word	.LC0
 6167              	.LBE122:
 6168              		.cfi_endproc
 6169              	.LFE27:
 6171              		.section	.text.yt_port_phy_force_set,"ax",%progbits
 6172              		.align	1
 6173              		.global	yt_port_phy_force_set
 6174              		.syntax unified
 6175              		.thumb
 6176              		.thumb_func
 6178              	yt_port_phy_force_set:
 6179              	.LVL838:
 6180              	.LFB28:
 596:../Switch/core/yt/yt_port.c **** 
 597:../Switch/core/yt/yt_port.c **** /**
 598:../Switch/core/yt/yt_port.c ****  * @internal      yt_port_phy_force_set
 599:../Switch/core/yt/yt_port.c ****  * @endinternal
 600:../Switch/core/yt/yt_port.c ****  *
 601:../Switch/core/yt/yt_port.c ****  * @brief         Description
 602:../Switch/core/yt/yt_port.c ****  * @note          APPLICABLE DEVICES  -Tiger
 603:../Switch/core/yt/yt_port.c ****  * @param[in]     unit                -unit id
 604:../Switch/core/yt/yt_port.c ****  * @param[in]     port                -port num
 605:../Switch/core/yt/yt_port.c ****  * @param[in]     speed_dup           -x
 606:../Switch/core/yt/yt_port.c ****  * @retval        CMM_ERR_OK          -on success
 607:../Switch/core/yt/yt_port.c ****  * @retval        CMM_ERR_FAIL        -on fail
 608:../Switch/core/yt/yt_port.c ****  */
 609:../Switch/core/yt/yt_port.c **** yt_ret_t yt_port_phy_force_set(yt_unit_t unit, yt_port_t port, yt_port_speed_duplex_t speed_dup)
 610:../Switch/core/yt/yt_port.c **** {
 6181              		.loc 1 610 1 is_stmt 1 view -0
 6182              		.cfi_startproc
 6183              		@ args = 0, pretend = 0, frame = 0
 6184              		@ frame_needed = 0, uses_anonymous_args = 0
 6185              		.loc 1 610 1 is_stmt 0 view .LVU1769
 6186 0000 08B5     		push	{r3, lr}
 6187              		.cfi_def_cfa_offset 8
 6188              		.cfi_offset 3, -8
 6189              		.cfi_offset 14, -4
 611:../Switch/core/yt/yt_port.c ****     CMM_PARAM_CHK((YT_UNIT_NUM <= unit), CMM_ERR_INPUT);
 6190              		.loc 1 611 5 is_stmt 1 view .LVU1770
 6191              		.loc 1 611 5 view .LVU1771
 6192 0002 C0B9     		cbnz	r0, .L627
 6193 0004 8446     		mov	ip, r0
 6194              		.loc 1 611 5 discriminator 2 view .LVU1772
 612:../Switch/core/yt/yt_port.c ****     CMM_PARAM_CHK(NULL == YT_DISPATCH(unit), CMM_ERR_NOT_INIT);
 6195              		.loc 1 612 5 discriminator 2 view .LVU1773
 6196              		.loc 1 612 5 discriminator 2 view .LVU1774
 6197 0006 2F4B     		ldr	r3, .L636
 6198 0008 53F82030 		ldr	r3, [r3, r0, lsl #2]
 6199 000c 0BB3     		cbz	r3, .L628
 6200              		.loc 1 612 5 discriminator 2 view .LVU1775
 613:../Switch/core/yt/yt_port.c ****     CMM_PARAM_CHK((!(YT_DISPATCH(unit)->is_inited)), CMM_ERR_NOT_INIT);
 6201              		.loc 1 613 5 discriminator 2 view .LVU1776
 6202              		.loc 1 613 5 discriminator 2 view .LVU1777
 6203 000e 1878     		ldrb	r0, [r3]	@ zero_extendqisi2
 6204              	.LVL839:
 6205              		.loc 1 613 5 is_stmt 0 discriminator 2 view .LVU1778
 6206 0010 0028     		cmp	r0, #0
 6207 0012 2CD0     		beq	.L629
 6208              		.loc 1 613 5 is_stmt 1 discriminator 2 view .LVU1779
 614:../Switch/core/yt/yt_port.c ****     CMM_PARAM_CHK((!(CMM_PORT_VALID(unit, port))), CMM_ERR_PORT);
 6209              		.loc 1 614 5 discriminator 2 view .LVU1780
 6210              		.loc 1 614 5 discriminator 2 view .LVU1781
 6211 0014 2C48     		ldr	r0, .L636+4
 6212 0016 0078     		ldrb	r0, [r0]	@ zero_extendqisi2
 6213 0018 0028     		cmp	r0, #0
 6214 001a 36D0     		beq	.L621
 6215 001c 2B48     		ldr	r0, .L636+8
 6216 001e 50F82C00 		ldr	r0, [r0, ip, lsl #2]
 6217 0022 007D     		ldrb	r0, [r0, #20]	@ zero_extendqisi2
 6218 0024 8842     		cmp	r0, r1
 6219 0026 30D9     		bls	.L621
 6220              		.loc 1 614 5 discriminator 4 view .LVU1782
 615:../Switch/core/yt/yt_port.c ****     CMM_PARAM_CHK((PORT_SPEED_DUP_1000FULL <= speed_dup || PORT_SPEED_DUP_10HALF > speed_dup), CMM_
 6221              		.loc 1 615 5 discriminator 4 view .LVU1783
 6222              		.loc 1 615 5 discriminator 4 view .LVU1784
 6223 0028 032A     		cmp	r2, #3
 6224 002a 3CD8     		bhi	.L630
 6225              		.loc 1 615 5 discriminator 2 view .LVU1785
 616:../Switch/core/yt/yt_port.c **** 
 617:../Switch/core/yt/yt_port.c ****     return YT_DISPATCH(unit)->port_phy_force_set(unit, port, speed_dup);
 6226              		.loc 1 617 5 discriminator 2 view .LVU1786
 6227              		.loc 1 617 29 is_stmt 0 discriminator 2 view .LVU1787
 6228 002c D3F8BC35 		ldr	r3, [r3, #1468]
 6229              		.loc 1 617 12 discriminator 2 view .LVU1788
 6230 0030 6046     		mov	r0, ip
 6231 0032 9847     		blx	r3
 6232              	.LVL840:
 6233              	.L613:
 618:../Switch/core/yt/yt_port.c **** }
 6234              		.loc 1 618 1 view .LVU1789
 6235 0034 08BD     		pop	{r3, pc}
 6236              	.LVL841:
 6237              	.L627:
 611:../Switch/core/yt/yt_port.c ****     CMM_PARAM_CHK(NULL == YT_DISPATCH(unit), CMM_ERR_NOT_INIT);
 6238              		.loc 1 611 5 is_stmt 1 discriminator 1 view .LVU1790
 611:../Switch/core/yt/yt_port.c ****     CMM_PARAM_CHK(NULL == YT_DISPATCH(unit), CMM_ERR_NOT_INIT);
 6239              		.loc 1 611 5 discriminator 1 view .LVU1791
 6240 0036 264B     		ldr	r3, .L636+12
 6241 0038 1B78     		ldrb	r3, [r3]	@ zero_extendqisi2
 6242 003a 012B     		cmp	r3, #1
 6243 003c 01D8     		bhi	.L631
 6244              	.LVL842:
 6245              	.L615:
 611:../Switch/core/yt/yt_port.c ****     CMM_PARAM_CHK(NULL == YT_DISPATCH(unit), CMM_ERR_NOT_INIT);
 6246              		.loc 1 611 5 discriminator 5 view .LVU1792
 611:../Switch/core/yt/yt_port.c ****     CMM_PARAM_CHK(NULL == YT_DISPATCH(unit), CMM_ERR_NOT_INIT);
 6247              		.loc 1 611 5 discriminator 5 view .LVU1793
 611:../Switch/core/yt/yt_port.c ****     CMM_PARAM_CHK(NULL == YT_DISPATCH(unit), CMM_ERR_NOT_INIT);
 6248              		.loc 1 611 5 discriminator 5 view .LVU1794
 6249 003e 0520     		movs	r0, #5
 6250 0040 F8E7     		b	.L613
 6251              	.LVL843:
 6252              	.L631:
 611:../Switch/core/yt/yt_port.c ****     CMM_PARAM_CHK(NULL == YT_DISPATCH(unit), CMM_ERR_NOT_INIT);
 6253              		.loc 1 611 5 discriminator 3 view .LVU1795
 6254              	.LBB123:
 611:../Switch/core/yt/yt_port.c ****     CMM_PARAM_CHK(NULL == YT_DISPATCH(unit), CMM_ERR_NOT_INIT);
 6255              		.loc 1 611 5 discriminator 3 view .LVU1796
 6256 0042 244B     		ldr	r3, .L636+16
 6257 0044 5A69     		ldr	r2, [r3, #20]
 6258              	.LVL844:
 611:../Switch/core/yt/yt_port.c ****     CMM_PARAM_CHK(NULL == YT_DISPATCH(unit), CMM_ERR_NOT_INIT);
 6259              		.loc 1 611 5 is_stmt 0 discriminator 3 view .LVU1797
 6260 0046 244B     		ldr	r3, .L636+20
 6261 0048 9968     		ldr	r1, [r3, #8]
 6262              	.LVL845:
 611:../Switch/core/yt/yt_port.c ****     CMM_PARAM_CHK(NULL == YT_DISPATCH(unit), CMM_ERR_NOT_INIT);
 6263              		.loc 1 611 5 discriminator 3 view .LVU1798
 6264 004a 2448     		ldr	r0, .L636+24
 6265              	.LVL846:
 611:../Switch/core/yt/yt_port.c ****     CMM_PARAM_CHK(NULL == YT_DISPATCH(unit), CMM_ERR_NOT_INIT);
 6266              		.loc 1 611 5 discriminator 3 view .LVU1799
 6267 004c FFF7FEFF 		bl	osal_printf
 6268              	.LVL847:
 6269 0050 F5E7     		b	.L615
 6270              	.LVL848:
 6271              	.L628:
 611:../Switch/core/yt/yt_port.c ****     CMM_PARAM_CHK(NULL == YT_DISPATCH(unit), CMM_ERR_NOT_INIT);
 6272              		.loc 1 611 5 discriminator 3 view .LVU1800
 6273              	.LBE123:
 612:../Switch/core/yt/yt_port.c ****     CMM_PARAM_CHK((!(YT_DISPATCH(unit)->is_inited)), CMM_ERR_NOT_INIT);
 6274              		.loc 1 612 5 is_stmt 1 discriminator 1 view .LVU1801
 612:../Switch/core/yt/yt_port.c ****     CMM_PARAM_CHK((!(YT_DISPATCH(unit)->is_inited)), CMM_ERR_NOT_INIT);
 6275              		.loc 1 612 5 discriminator 1 view .LVU1802
 6276 0052 1F4B     		ldr	r3, .L636+12
 6277 0054 1B78     		ldrb	r3, [r3]	@ zero_extendqisi2
 6278 0056 012B     		cmp	r3, #1
 6279 0058 01D8     		bhi	.L632
 6280              	.LVL849:
 6281              	.L618:
 612:../Switch/core/yt/yt_port.c ****     CMM_PARAM_CHK((!(YT_DISPATCH(unit)->is_inited)), CMM_ERR_NOT_INIT);
 6282              		.loc 1 612 5 discriminator 5 view .LVU1803
 612:../Switch/core/yt/yt_port.c ****     CMM_PARAM_CHK((!(YT_DISPATCH(unit)->is_inited)), CMM_ERR_NOT_INIT);
 6283              		.loc 1 612 5 discriminator 5 view .LVU1804
 612:../Switch/core/yt/yt_port.c ****     CMM_PARAM_CHK((!(YT_DISPATCH(unit)->is_inited)), CMM_ERR_NOT_INIT);
 6284              		.loc 1 612 5 discriminator 5 view .LVU1805
 6285 005a 0420     		movs	r0, #4
 6286 005c EAE7     		b	.L613
 6287              	.LVL850:
 6288              	.L632:
 612:../Switch/core/yt/yt_port.c ****     CMM_PARAM_CHK((!(YT_DISPATCH(unit)->is_inited)), CMM_ERR_NOT_INIT);
 6289              		.loc 1 612 5 discriminator 3 view .LVU1806
 6290              	.LBB124:
 612:../Switch/core/yt/yt_port.c ****     CMM_PARAM_CHK((!(YT_DISPATCH(unit)->is_inited)), CMM_ERR_NOT_INIT);
 6291              		.loc 1 612 5 discriminator 3 view .LVU1807
 6292 005e 1D4B     		ldr	r3, .L636+16
 6293 0060 1A69     		ldr	r2, [r3, #16]
 6294              	.LVL851:
 612:../Switch/core/yt/yt_port.c ****     CMM_PARAM_CHK((!(YT_DISPATCH(unit)->is_inited)), CMM_ERR_NOT_INIT);
 6295              		.loc 1 612 5 is_stmt 0 discriminator 3 view .LVU1808
 6296 0062 1D4B     		ldr	r3, .L636+20
 6297 0064 9968     		ldr	r1, [r3, #8]
 6298              	.LVL852:
 612:../Switch/core/yt/yt_port.c ****     CMM_PARAM_CHK((!(YT_DISPATCH(unit)->is_inited)), CMM_ERR_NOT_INIT);
 6299              		.loc 1 612 5 discriminator 3 view .LVU1809
 6300 0066 1D48     		ldr	r0, .L636+24
 6301              	.LVL853:
 612:../Switch/core/yt/yt_port.c ****     CMM_PARAM_CHK((!(YT_DISPATCH(unit)->is_inited)), CMM_ERR_NOT_INIT);
 6302              		.loc 1 612 5 discriminator 3 view .LVU1810
 6303 0068 FFF7FEFF 		bl	osal_printf
 6304              	.LVL854:
 6305 006c F5E7     		b	.L618
 6306              	.LVL855:
 6307              	.L629:
 612:../Switch/core/yt/yt_port.c ****     CMM_PARAM_CHK((!(YT_DISPATCH(unit)->is_inited)), CMM_ERR_NOT_INIT);
 6308              		.loc 1 612 5 discriminator 3 view .LVU1811
 6309              	.LBE124:
 613:../Switch/core/yt/yt_port.c ****     CMM_PARAM_CHK((!(CMM_PORT_VALID(unit, port))), CMM_ERR_PORT);
 6310              		.loc 1 613 5 is_stmt 1 discriminator 1 view .LVU1812
 613:../Switch/core/yt/yt_port.c ****     CMM_PARAM_CHK((!(CMM_PORT_VALID(unit, port))), CMM_ERR_PORT);
 6311              		.loc 1 613 5 discriminator 1 view .LVU1813
 6312 006e 184B     		ldr	r3, .L636+12
 6313 0070 1B78     		ldrb	r3, [r3]	@ zero_extendqisi2
 6314 0072 012B     		cmp	r3, #1
 6315 0074 01D8     		bhi	.L633
 6316              	.LVL856:
 6317              	.L620:
 613:../Switch/core/yt/yt_port.c ****     CMM_PARAM_CHK((!(CMM_PORT_VALID(unit, port))), CMM_ERR_PORT);
 6318              		.loc 1 613 5 discriminator 5 view .LVU1814
 613:../Switch/core/yt/yt_port.c ****     CMM_PARAM_CHK((!(CMM_PORT_VALID(unit, port))), CMM_ERR_PORT);
 6319              		.loc 1 613 5 discriminator 5 view .LVU1815
 613:../Switch/core/yt/yt_port.c ****     CMM_PARAM_CHK((!(CMM_PORT_VALID(unit, port))), CMM_ERR_PORT);
 6320              		.loc 1 613 5 discriminator 5 view .LVU1816
 6321 0076 0420     		movs	r0, #4
 6322 0078 DCE7     		b	.L613
 6323              	.LVL857:
 6324              	.L633:
 613:../Switch/core/yt/yt_port.c ****     CMM_PARAM_CHK((!(CMM_PORT_VALID(unit, port))), CMM_ERR_PORT);
 6325              		.loc 1 613 5 discriminator 3 view .LVU1817
 6326              	.LBB125:
 613:../Switch/core/yt/yt_port.c ****     CMM_PARAM_CHK((!(CMM_PORT_VALID(unit, port))), CMM_ERR_PORT);
 6327              		.loc 1 613 5 discriminator 3 view .LVU1818
 6328 007a 164B     		ldr	r3, .L636+16
 6329 007c 1A69     		ldr	r2, [r3, #16]
 6330              	.LVL858:
 613:../Switch/core/yt/yt_port.c ****     CMM_PARAM_CHK((!(CMM_PORT_VALID(unit, port))), CMM_ERR_PORT);
 6331              		.loc 1 613 5 is_stmt 0 discriminator 3 view .LVU1819
 6332 007e 164B     		ldr	r3, .L636+20
 6333 0080 9968     		ldr	r1, [r3, #8]
 6334              	.LVL859:
 613:../Switch/core/yt/yt_port.c ****     CMM_PARAM_CHK((!(CMM_PORT_VALID(unit, port))), CMM_ERR_PORT);
 6335              		.loc 1 613 5 discriminator 3 view .LVU1820
 6336 0082 1648     		ldr	r0, .L636+24
 6337 0084 FFF7FEFF 		bl	osal_printf
 6338              	.LVL860:
 6339 0088 F5E7     		b	.L620
 6340              	.LVL861:
 6341              	.L621:
 613:../Switch/core/yt/yt_port.c ****     CMM_PARAM_CHK((!(CMM_PORT_VALID(unit, port))), CMM_ERR_PORT);
 6342              		.loc 1 613 5 discriminator 3 view .LVU1821
 6343              	.LBE125:
 614:../Switch/core/yt/yt_port.c ****     CMM_PARAM_CHK((PORT_SPEED_DUP_1000FULL <= speed_dup || PORT_SPEED_DUP_10HALF > speed_dup), CMM_
 6344              		.loc 1 614 5 is_stmt 1 discriminator 3 view .LVU1822
 614:../Switch/core/yt/yt_port.c ****     CMM_PARAM_CHK((PORT_SPEED_DUP_1000FULL <= speed_dup || PORT_SPEED_DUP_10HALF > speed_dup), CMM_
 6345              		.loc 1 614 5 discriminator 3 view .LVU1823
 6346 008a 114B     		ldr	r3, .L636+12
 6347 008c 1B78     		ldrb	r3, [r3]	@ zero_extendqisi2
 6348 008e 012B     		cmp	r3, #1
 6349 0090 01D8     		bhi	.L634
 6350              	.LVL862:
 6351              	.L623:
 614:../Switch/core/yt/yt_port.c ****     CMM_PARAM_CHK((PORT_SPEED_DUP_1000FULL <= speed_dup || PORT_SPEED_DUP_10HALF > speed_dup), CMM_
 6352              		.loc 1 614 5 discriminator 7 view .LVU1824
 614:../Switch/core/yt/yt_port.c ****     CMM_PARAM_CHK((PORT_SPEED_DUP_1000FULL <= speed_dup || PORT_SPEED_DUP_10HALF > speed_dup), CMM_
 6353              		.loc 1 614 5 discriminator 7 view .LVU1825
 614:../Switch/core/yt/yt_port.c ****     CMM_PARAM_CHK((PORT_SPEED_DUP_1000FULL <= speed_dup || PORT_SPEED_DUP_10HALF > speed_dup), CMM_
 6354              		.loc 1 614 5 discriminator 7 view .LVU1826
 6355 0092 0E20     		movs	r0, #14
 6356 0094 CEE7     		b	.L613
 6357              	.LVL863:
 6358              	.L634:
 614:../Switch/core/yt/yt_port.c ****     CMM_PARAM_CHK((PORT_SPEED_DUP_1000FULL <= speed_dup || PORT_SPEED_DUP_10HALF > speed_dup), CMM_
 6359              		.loc 1 614 5 discriminator 5 view .LVU1827
 6360              	.LBB126:
 614:../Switch/core/yt/yt_port.c ****     CMM_PARAM_CHK((PORT_SPEED_DUP_1000FULL <= speed_dup || PORT_SPEED_DUP_10HALF > speed_dup), CMM_
 6361              		.loc 1 614 5 discriminator 5 view .LVU1828
 6362 0096 0F4B     		ldr	r3, .L636+16
 6363 0098 9A6B     		ldr	r2, [r3, #56]
 6364              	.LVL864:
 614:../Switch/core/yt/yt_port.c ****     CMM_PARAM_CHK((PORT_SPEED_DUP_1000FULL <= speed_dup || PORT_SPEED_DUP_10HALF > speed_dup), CMM_
 6365              		.loc 1 614 5 is_stmt 0 discriminator 5 view .LVU1829
 6366 009a 0F4B     		ldr	r3, .L636+20
 6367 009c 9968     		ldr	r1, [r3, #8]
 6368              	.LVL865:
 614:../Switch/core/yt/yt_port.c ****     CMM_PARAM_CHK((PORT_SPEED_DUP_1000FULL <= speed_dup || PORT_SPEED_DUP_10HALF > speed_dup), CMM_
 6369              		.loc 1 614 5 discriminator 5 view .LVU1830
 6370 009e 0F48     		ldr	r0, .L636+24
 6371 00a0 FFF7FEFF 		bl	osal_printf
 6372              	.LVL866:
 6373 00a4 F5E7     		b	.L623
 6374              	.LVL867:
 6375              	.L630:
 614:../Switch/core/yt/yt_port.c ****     CMM_PARAM_CHK((PORT_SPEED_DUP_1000FULL <= speed_dup || PORT_SPEED_DUP_10HALF > speed_dup), CMM_
 6376              		.loc 1 614 5 discriminator 5 view .LVU1831
 6377              	.LBE126:
 615:../Switch/core/yt/yt_port.c **** 
 6378              		.loc 1 615 5 is_stmt 1 discriminator 1 view .LVU1832
 615:../Switch/core/yt/yt_port.c **** 
 6379              		.loc 1 615 5 discriminator 1 view .LVU1833
 6380 00a6 0A4B     		ldr	r3, .L636+12
 6381 00a8 1B78     		ldrb	r3, [r3]	@ zero_extendqisi2
 6382 00aa 012B     		cmp	r3, #1
 6383 00ac 01D8     		bhi	.L635
 6384              	.LVL868:
 6385              	.L625:
 615:../Switch/core/yt/yt_port.c **** 
 6386              		.loc 1 615 5 discriminator 5 view .LVU1834
 615:../Switch/core/yt/yt_port.c **** 
 6387              		.loc 1 615 5 discriminator 5 view .LVU1835
 615:../Switch/core/yt/yt_port.c **** 
 6388              		.loc 1 615 5 discriminator 5 view .LVU1836
 6389 00ae 0520     		movs	r0, #5
 6390 00b0 C0E7     		b	.L613
 6391              	.LVL869:
 6392              	.L635:
 615:../Switch/core/yt/yt_port.c **** 
 6393              		.loc 1 615 5 discriminator 3 view .LVU1837
 6394              	.LBB127:
 615:../Switch/core/yt/yt_port.c **** 
 6395              		.loc 1 615 5 discriminator 3 view .LVU1838
 6396 00b2 084B     		ldr	r3, .L636+16
 6397 00b4 5A69     		ldr	r2, [r3, #20]
 6398              	.LVL870:
 615:../Switch/core/yt/yt_port.c **** 
 6399              		.loc 1 615 5 is_stmt 0 discriminator 3 view .LVU1839
 6400 00b6 084B     		ldr	r3, .L636+20
 6401 00b8 9968     		ldr	r1, [r3, #8]
 6402              	.LVL871:
 615:../Switch/core/yt/yt_port.c **** 
 6403              		.loc 1 615 5 discriminator 3 view .LVU1840
 6404 00ba 0848     		ldr	r0, .L636+24
 6405 00bc FFF7FEFF 		bl	osal_printf
 6406              	.LVL872:
 6407 00c0 F5E7     		b	.L625
 6408              	.L637:
 6409 00c2 00BF     		.align	2
 6410              	.L636:
 6411 00c4 00000000 		.word	gpfal_dispatch
 6412 00c8 00000000 		.word	gcal_inited
 6413 00cc 00000000 		.word	gpSwitchUnit
 6414 00d0 00000000 		.word	yt_debug_level
 6415 00d4 00000000 		.word	_yt_errmsg
 6416 00d8 00000000 		.word	_yt_prompt_msg
 6417 00dc 00000000 		.word	.LC0
 6418              	.LBE127:
 6419              		.cfi_endproc
 6420              	.LFE28:
 6422              		.section	.text.yt_port_phy_force_get,"ax",%progbits
 6423              		.align	1
 6424              		.global	yt_port_phy_force_get
 6425              		.syntax unified
 6426              		.thumb
 6427              		.thumb_func
 6429              	yt_port_phy_force_get:
 6430              	.LVL873:
 6431              	.LFB29:
 619:../Switch/core/yt/yt_port.c **** 
 620:../Switch/core/yt/yt_port.c **** /**
 621:../Switch/core/yt/yt_port.c ****  * @internal      yt_port_phy_force_get
 622:../Switch/core/yt/yt_port.c ****  * @endinternal
 623:../Switch/core/yt/yt_port.c ****  *
 624:../Switch/core/yt/yt_port.c ****  * @brief         Description
 625:../Switch/core/yt/yt_port.c ****  * @note          APPLICABLE DEVICES  -Tiger
 626:../Switch/core/yt/yt_port.c ****  * @param[in]     unit                -unit id
 627:../Switch/core/yt/yt_port.c ****  * @param[in]     port                -port num
 628:../Switch/core/yt/yt_port.c ****  * @param[out]    pSpeedDup           -x
 629:../Switch/core/yt/yt_port.c ****  * @retval        CMM_ERR_OK          -on success
 630:../Switch/core/yt/yt_port.c ****  * @retval        CMM_ERR_FAIL        -on fail
 631:../Switch/core/yt/yt_port.c ****  */
 632:../Switch/core/yt/yt_port.c **** yt_ret_t yt_port_phy_force_get(yt_unit_t unit, yt_port_t port, yt_port_speed_duplex_t *pSpeedDup)
 633:../Switch/core/yt/yt_port.c **** {
 6432              		.loc 1 633 1 is_stmt 1 view -0
 6433              		.cfi_startproc
 6434              		@ args = 0, pretend = 0, frame = 0
 6435              		@ frame_needed = 0, uses_anonymous_args = 0
 6436              		.loc 1 633 1 is_stmt 0 view .LVU1842
 6437 0000 08B5     		push	{r3, lr}
 6438              		.cfi_def_cfa_offset 8
 6439              		.cfi_offset 3, -8
 6440              		.cfi_offset 14, -4
 634:../Switch/core/yt/yt_port.c ****     CMM_PARAM_CHK((YT_UNIT_NUM <= unit), CMM_ERR_INPUT);
 6441              		.loc 1 634 5 is_stmt 1 view .LVU1843
 6442              		.loc 1 634 5 view .LVU1844
 6443 0002 C0B9     		cbnz	r0, .L652
 6444 0004 8446     		mov	ip, r0
 6445              		.loc 1 634 5 discriminator 2 view .LVU1845
 635:../Switch/core/yt/yt_port.c ****     CMM_PARAM_CHK(NULL == YT_DISPATCH(unit), CMM_ERR_NOT_INIT);
 6446              		.loc 1 635 5 discriminator 2 view .LVU1846
 6447              		.loc 1 635 5 discriminator 2 view .LVU1847
 6448 0006 2F4B     		ldr	r3, .L661
 6449 0008 53F82030 		ldr	r3, [r3, r0, lsl #2]
 6450 000c 0BB3     		cbz	r3, .L653
 6451              		.loc 1 635 5 discriminator 2 view .LVU1848
 636:../Switch/core/yt/yt_port.c ****     CMM_PARAM_CHK((!(YT_DISPATCH(unit)->is_inited)), CMM_ERR_NOT_INIT);
 6452              		.loc 1 636 5 discriminator 2 view .LVU1849
 6453              		.loc 1 636 5 discriminator 2 view .LVU1850
 6454 000e 1878     		ldrb	r0, [r3]	@ zero_extendqisi2
 6455              	.LVL874:
 6456              		.loc 1 636 5 is_stmt 0 discriminator 2 view .LVU1851
 6457 0010 0028     		cmp	r0, #0
 6458 0012 2CD0     		beq	.L654
 6459              		.loc 1 636 5 is_stmt 1 discriminator 2 view .LVU1852
 637:../Switch/core/yt/yt_port.c ****     CMM_PARAM_CHK((!(CMM_PORT_VALID(unit, port))), CMM_ERR_PORT);
 6460              		.loc 1 637 5 discriminator 2 view .LVU1853
 6461              		.loc 1 637 5 discriminator 2 view .LVU1854
 6462 0014 2C48     		ldr	r0, .L661+4
 6463 0016 0078     		ldrb	r0, [r0]	@ zero_extendqisi2
 6464 0018 0028     		cmp	r0, #0
 6465 001a 36D0     		beq	.L646
 6466 001c 2B48     		ldr	r0, .L661+8
 6467 001e 50F82C00 		ldr	r0, [r0, ip, lsl #2]
 6468 0022 007D     		ldrb	r0, [r0, #20]	@ zero_extendqisi2
 6469 0024 8842     		cmp	r0, r1
 6470 0026 30D9     		bls	.L646
 6471              		.loc 1 637 5 discriminator 4 view .LVU1855
 638:../Switch/core/yt/yt_port.c ****     CMM_PARAM_CHK((NULL == pSpeedDup), CMM_ERR_NULL_POINT);
 6472              		.loc 1 638 5 discriminator 4 view .LVU1856
 6473              		.loc 1 638 5 discriminator 4 view .LVU1857
 6474 0028 002A     		cmp	r2, #0
 6475 002a 3CD0     		beq	.L655
 6476              		.loc 1 638 5 discriminator 2 view .LVU1858
 639:../Switch/core/yt/yt_port.c **** 
 640:../Switch/core/yt/yt_port.c ****     return YT_DISPATCH(unit)->port_phy_force_get(unit, port, pSpeedDup);
 6477              		.loc 1 640 5 discriminator 2 view .LVU1859
 6478              		.loc 1 640 29 is_stmt 0 discriminator 2 view .LVU1860
 6479 002c D3F8C035 		ldr	r3, [r3, #1472]
 6480              		.loc 1 640 12 discriminator 2 view .LVU1861
 6481 0030 6046     		mov	r0, ip
 6482 0032 9847     		blx	r3
 6483              	.LVL875:
 6484              	.L638:
 641:../Switch/core/yt/yt_port.c **** }
 6485              		.loc 1 641 1 view .LVU1862
 6486 0034 08BD     		pop	{r3, pc}
 6487              	.LVL876:
 6488              	.L652:
 634:../Switch/core/yt/yt_port.c ****     CMM_PARAM_CHK(NULL == YT_DISPATCH(unit), CMM_ERR_NOT_INIT);
 6489              		.loc 1 634 5 is_stmt 1 discriminator 1 view .LVU1863
 634:../Switch/core/yt/yt_port.c ****     CMM_PARAM_CHK(NULL == YT_DISPATCH(unit), CMM_ERR_NOT_INIT);
 6490              		.loc 1 634 5 discriminator 1 view .LVU1864
 6491 0036 264B     		ldr	r3, .L661+12
 6492 0038 1B78     		ldrb	r3, [r3]	@ zero_extendqisi2
 6493 003a 012B     		cmp	r3, #1
 6494 003c 01D8     		bhi	.L656
 6495              	.LVL877:
 6496              	.L640:
 634:../Switch/core/yt/yt_port.c ****     CMM_PARAM_CHK(NULL == YT_DISPATCH(unit), CMM_ERR_NOT_INIT);
 6497              		.loc 1 634 5 discriminator 5 view .LVU1865
 634:../Switch/core/yt/yt_port.c ****     CMM_PARAM_CHK(NULL == YT_DISPATCH(unit), CMM_ERR_NOT_INIT);
 6498              		.loc 1 634 5 discriminator 5 view .LVU1866
 634:../Switch/core/yt/yt_port.c ****     CMM_PARAM_CHK(NULL == YT_DISPATCH(unit), CMM_ERR_NOT_INIT);
 6499              		.loc 1 634 5 discriminator 5 view .LVU1867
 6500 003e 0520     		movs	r0, #5
 6501 0040 F8E7     		b	.L638
 6502              	.LVL878:
 6503              	.L656:
 634:../Switch/core/yt/yt_port.c ****     CMM_PARAM_CHK(NULL == YT_DISPATCH(unit), CMM_ERR_NOT_INIT);
 6504              		.loc 1 634 5 discriminator 3 view .LVU1868
 6505              	.LBB128:
 634:../Switch/core/yt/yt_port.c ****     CMM_PARAM_CHK(NULL == YT_DISPATCH(unit), CMM_ERR_NOT_INIT);
 6506              		.loc 1 634 5 discriminator 3 view .LVU1869
 6507 0042 244B     		ldr	r3, .L661+16
 6508 0044 5A69     		ldr	r2, [r3, #20]
 6509              	.LVL879:
 634:../Switch/core/yt/yt_port.c ****     CMM_PARAM_CHK(NULL == YT_DISPATCH(unit), CMM_ERR_NOT_INIT);
 6510              		.loc 1 634 5 is_stmt 0 discriminator 3 view .LVU1870
 6511 0046 244B     		ldr	r3, .L661+20
 6512 0048 9968     		ldr	r1, [r3, #8]
 6513              	.LVL880:
 634:../Switch/core/yt/yt_port.c ****     CMM_PARAM_CHK(NULL == YT_DISPATCH(unit), CMM_ERR_NOT_INIT);
 6514              		.loc 1 634 5 discriminator 3 view .LVU1871
 6515 004a 2448     		ldr	r0, .L661+24
 6516              	.LVL881:
 634:../Switch/core/yt/yt_port.c ****     CMM_PARAM_CHK(NULL == YT_DISPATCH(unit), CMM_ERR_NOT_INIT);
 6517              		.loc 1 634 5 discriminator 3 view .LVU1872
 6518 004c FFF7FEFF 		bl	osal_printf
 6519              	.LVL882:
 6520 0050 F5E7     		b	.L640
 6521              	.LVL883:
 6522              	.L653:
 634:../Switch/core/yt/yt_port.c ****     CMM_PARAM_CHK(NULL == YT_DISPATCH(unit), CMM_ERR_NOT_INIT);
 6523              		.loc 1 634 5 discriminator 3 view .LVU1873
 6524              	.LBE128:
 635:../Switch/core/yt/yt_port.c ****     CMM_PARAM_CHK((!(YT_DISPATCH(unit)->is_inited)), CMM_ERR_NOT_INIT);
 6525              		.loc 1 635 5 is_stmt 1 discriminator 1 view .LVU1874
 635:../Switch/core/yt/yt_port.c ****     CMM_PARAM_CHK((!(YT_DISPATCH(unit)->is_inited)), CMM_ERR_NOT_INIT);
 6526              		.loc 1 635 5 discriminator 1 view .LVU1875
 6527 0052 1F4B     		ldr	r3, .L661+12
 6528 0054 1B78     		ldrb	r3, [r3]	@ zero_extendqisi2
 6529 0056 012B     		cmp	r3, #1
 6530 0058 01D8     		bhi	.L657
 6531              	.LVL884:
 6532              	.L643:
 635:../Switch/core/yt/yt_port.c ****     CMM_PARAM_CHK((!(YT_DISPATCH(unit)->is_inited)), CMM_ERR_NOT_INIT);
 6533              		.loc 1 635 5 discriminator 5 view .LVU1876
 635:../Switch/core/yt/yt_port.c ****     CMM_PARAM_CHK((!(YT_DISPATCH(unit)->is_inited)), CMM_ERR_NOT_INIT);
 6534              		.loc 1 635 5 discriminator 5 view .LVU1877
 635:../Switch/core/yt/yt_port.c ****     CMM_PARAM_CHK((!(YT_DISPATCH(unit)->is_inited)), CMM_ERR_NOT_INIT);
 6535              		.loc 1 635 5 discriminator 5 view .LVU1878
 6536 005a 0420     		movs	r0, #4
 6537 005c EAE7     		b	.L638
 6538              	.LVL885:
 6539              	.L657:
 635:../Switch/core/yt/yt_port.c ****     CMM_PARAM_CHK((!(YT_DISPATCH(unit)->is_inited)), CMM_ERR_NOT_INIT);
 6540              		.loc 1 635 5 discriminator 3 view .LVU1879
 6541              	.LBB129:
 635:../Switch/core/yt/yt_port.c ****     CMM_PARAM_CHK((!(YT_DISPATCH(unit)->is_inited)), CMM_ERR_NOT_INIT);
 6542              		.loc 1 635 5 discriminator 3 view .LVU1880
 6543 005e 1D4B     		ldr	r3, .L661+16
 6544 0060 1A69     		ldr	r2, [r3, #16]
 6545              	.LVL886:
 635:../Switch/core/yt/yt_port.c ****     CMM_PARAM_CHK((!(YT_DISPATCH(unit)->is_inited)), CMM_ERR_NOT_INIT);
 6546              		.loc 1 635 5 is_stmt 0 discriminator 3 view .LVU1881
 6547 0062 1D4B     		ldr	r3, .L661+20
 6548 0064 9968     		ldr	r1, [r3, #8]
 6549              	.LVL887:
 635:../Switch/core/yt/yt_port.c ****     CMM_PARAM_CHK((!(YT_DISPATCH(unit)->is_inited)), CMM_ERR_NOT_INIT);
 6550              		.loc 1 635 5 discriminator 3 view .LVU1882
 6551 0066 1D48     		ldr	r0, .L661+24
 6552              	.LVL888:
 635:../Switch/core/yt/yt_port.c ****     CMM_PARAM_CHK((!(YT_DISPATCH(unit)->is_inited)), CMM_ERR_NOT_INIT);
 6553              		.loc 1 635 5 discriminator 3 view .LVU1883
 6554 0068 FFF7FEFF 		bl	osal_printf
 6555              	.LVL889:
 6556 006c F5E7     		b	.L643
 6557              	.LVL890:
 6558              	.L654:
 635:../Switch/core/yt/yt_port.c ****     CMM_PARAM_CHK((!(YT_DISPATCH(unit)->is_inited)), CMM_ERR_NOT_INIT);
 6559              		.loc 1 635 5 discriminator 3 view .LVU1884
 6560              	.LBE129:
 636:../Switch/core/yt/yt_port.c ****     CMM_PARAM_CHK((!(CMM_PORT_VALID(unit, port))), CMM_ERR_PORT);
 6561              		.loc 1 636 5 is_stmt 1 discriminator 1 view .LVU1885
 636:../Switch/core/yt/yt_port.c ****     CMM_PARAM_CHK((!(CMM_PORT_VALID(unit, port))), CMM_ERR_PORT);
 6562              		.loc 1 636 5 discriminator 1 view .LVU1886
 6563 006e 184B     		ldr	r3, .L661+12
 6564 0070 1B78     		ldrb	r3, [r3]	@ zero_extendqisi2
 6565 0072 012B     		cmp	r3, #1
 6566 0074 01D8     		bhi	.L658
 6567              	.LVL891:
 6568              	.L645:
 636:../Switch/core/yt/yt_port.c ****     CMM_PARAM_CHK((!(CMM_PORT_VALID(unit, port))), CMM_ERR_PORT);
 6569              		.loc 1 636 5 discriminator 5 view .LVU1887
 636:../Switch/core/yt/yt_port.c ****     CMM_PARAM_CHK((!(CMM_PORT_VALID(unit, port))), CMM_ERR_PORT);
 6570              		.loc 1 636 5 discriminator 5 view .LVU1888
 636:../Switch/core/yt/yt_port.c ****     CMM_PARAM_CHK((!(CMM_PORT_VALID(unit, port))), CMM_ERR_PORT);
 6571              		.loc 1 636 5 discriminator 5 view .LVU1889
 6572 0076 0420     		movs	r0, #4
 6573 0078 DCE7     		b	.L638
 6574              	.LVL892:
 6575              	.L658:
 636:../Switch/core/yt/yt_port.c ****     CMM_PARAM_CHK((!(CMM_PORT_VALID(unit, port))), CMM_ERR_PORT);
 6576              		.loc 1 636 5 discriminator 3 view .LVU1890
 6577              	.LBB130:
 636:../Switch/core/yt/yt_port.c ****     CMM_PARAM_CHK((!(CMM_PORT_VALID(unit, port))), CMM_ERR_PORT);
 6578              		.loc 1 636 5 discriminator 3 view .LVU1891
 6579 007a 164B     		ldr	r3, .L661+16
 6580 007c 1A69     		ldr	r2, [r3, #16]
 6581              	.LVL893:
 636:../Switch/core/yt/yt_port.c ****     CMM_PARAM_CHK((!(CMM_PORT_VALID(unit, port))), CMM_ERR_PORT);
 6582              		.loc 1 636 5 is_stmt 0 discriminator 3 view .LVU1892
 6583 007e 164B     		ldr	r3, .L661+20
 6584 0080 9968     		ldr	r1, [r3, #8]
 6585              	.LVL894:
 636:../Switch/core/yt/yt_port.c ****     CMM_PARAM_CHK((!(CMM_PORT_VALID(unit, port))), CMM_ERR_PORT);
 6586              		.loc 1 636 5 discriminator 3 view .LVU1893
 6587 0082 1648     		ldr	r0, .L661+24
 6588 0084 FFF7FEFF 		bl	osal_printf
 6589              	.LVL895:
 6590 0088 F5E7     		b	.L645
 6591              	.LVL896:
 6592              	.L646:
 636:../Switch/core/yt/yt_port.c ****     CMM_PARAM_CHK((!(CMM_PORT_VALID(unit, port))), CMM_ERR_PORT);
 6593              		.loc 1 636 5 discriminator 3 view .LVU1894
 6594              	.LBE130:
 637:../Switch/core/yt/yt_port.c ****     CMM_PARAM_CHK((NULL == pSpeedDup), CMM_ERR_NULL_POINT);
 6595              		.loc 1 637 5 is_stmt 1 discriminator 3 view .LVU1895
 637:../Switch/core/yt/yt_port.c ****     CMM_PARAM_CHK((NULL == pSpeedDup), CMM_ERR_NULL_POINT);
 6596              		.loc 1 637 5 discriminator 3 view .LVU1896
 6597 008a 114B     		ldr	r3, .L661+12
 6598 008c 1B78     		ldrb	r3, [r3]	@ zero_extendqisi2
 6599 008e 012B     		cmp	r3, #1
 6600 0090 01D8     		bhi	.L659
 6601              	.LVL897:
 6602              	.L648:
 637:../Switch/core/yt/yt_port.c ****     CMM_PARAM_CHK((NULL == pSpeedDup), CMM_ERR_NULL_POINT);
 6603              		.loc 1 637 5 discriminator 7 view .LVU1897
 637:../Switch/core/yt/yt_port.c ****     CMM_PARAM_CHK((NULL == pSpeedDup), CMM_ERR_NULL_POINT);
 6604              		.loc 1 637 5 discriminator 7 view .LVU1898
 637:../Switch/core/yt/yt_port.c ****     CMM_PARAM_CHK((NULL == pSpeedDup), CMM_ERR_NULL_POINT);
 6605              		.loc 1 637 5 discriminator 7 view .LVU1899
 6606 0092 0E20     		movs	r0, #14
 6607 0094 CEE7     		b	.L638
 6608              	.LVL898:
 6609              	.L659:
 637:../Switch/core/yt/yt_port.c ****     CMM_PARAM_CHK((NULL == pSpeedDup), CMM_ERR_NULL_POINT);
 6610              		.loc 1 637 5 discriminator 5 view .LVU1900
 6611              	.LBB131:
 637:../Switch/core/yt/yt_port.c ****     CMM_PARAM_CHK((NULL == pSpeedDup), CMM_ERR_NULL_POINT);
 6612              		.loc 1 637 5 discriminator 5 view .LVU1901
 6613 0096 0F4B     		ldr	r3, .L661+16
 6614 0098 9A6B     		ldr	r2, [r3, #56]
 6615              	.LVL899:
 637:../Switch/core/yt/yt_port.c ****     CMM_PARAM_CHK((NULL == pSpeedDup), CMM_ERR_NULL_POINT);
 6616              		.loc 1 637 5 is_stmt 0 discriminator 5 view .LVU1902
 6617 009a 0F4B     		ldr	r3, .L661+20
 6618 009c 9968     		ldr	r1, [r3, #8]
 6619              	.LVL900:
 637:../Switch/core/yt/yt_port.c ****     CMM_PARAM_CHK((NULL == pSpeedDup), CMM_ERR_NULL_POINT);
 6620              		.loc 1 637 5 discriminator 5 view .LVU1903
 6621 009e 0F48     		ldr	r0, .L661+24
 6622 00a0 FFF7FEFF 		bl	osal_printf
 6623              	.LVL901:
 6624 00a4 F5E7     		b	.L648
 6625              	.LVL902:
 6626              	.L655:
 637:../Switch/core/yt/yt_port.c ****     CMM_PARAM_CHK((NULL == pSpeedDup), CMM_ERR_NULL_POINT);
 6627              		.loc 1 637 5 discriminator 5 view .LVU1904
 6628              	.LBE131:
 638:../Switch/core/yt/yt_port.c **** 
 6629              		.loc 1 638 5 is_stmt 1 discriminator 1 view .LVU1905
 638:../Switch/core/yt/yt_port.c **** 
 6630              		.loc 1 638 5 discriminator 1 view .LVU1906
 6631 00a6 0A4B     		ldr	r3, .L661+12
 6632 00a8 1B78     		ldrb	r3, [r3]	@ zero_extendqisi2
 6633 00aa 012B     		cmp	r3, #1
 6634 00ac 01D8     		bhi	.L660
 6635              	.LVL903:
 6636              	.L650:
 638:../Switch/core/yt/yt_port.c **** 
 6637              		.loc 1 638 5 discriminator 5 view .LVU1907
 638:../Switch/core/yt/yt_port.c **** 
 6638              		.loc 1 638 5 discriminator 5 view .LVU1908
 638:../Switch/core/yt/yt_port.c **** 
 6639              		.loc 1 638 5 discriminator 5 view .LVU1909
 6640 00ae 0220     		movs	r0, #2
 6641 00b0 C0E7     		b	.L638
 6642              	.LVL904:
 6643              	.L660:
 638:../Switch/core/yt/yt_port.c **** 
 6644              		.loc 1 638 5 discriminator 3 view .LVU1910
 6645              	.LBB132:
 638:../Switch/core/yt/yt_port.c **** 
 6646              		.loc 1 638 5 discriminator 3 view .LVU1911
 6647 00b2 084B     		ldr	r3, .L661+16
 6648 00b4 9A68     		ldr	r2, [r3, #8]
 6649              	.LVL905:
 638:../Switch/core/yt/yt_port.c **** 
 6650              		.loc 1 638 5 is_stmt 0 discriminator 3 view .LVU1912
 6651 00b6 084B     		ldr	r3, .L661+20
 6652 00b8 9968     		ldr	r1, [r3, #8]
 6653              	.LVL906:
 638:../Switch/core/yt/yt_port.c **** 
 6654              		.loc 1 638 5 discriminator 3 view .LVU1913
 6655 00ba 0848     		ldr	r0, .L661+24
 6656 00bc FFF7FEFF 		bl	osal_printf
 6657              	.LVL907:
 6658 00c0 F5E7     		b	.L650
 6659              	.L662:
 6660 00c2 00BF     		.align	2
 6661              	.L661:
 6662 00c4 00000000 		.word	gpfal_dispatch
 6663 00c8 00000000 		.word	gcal_inited
 6664 00cc 00000000 		.word	gpSwitchUnit
 6665 00d0 00000000 		.word	yt_debug_level
 6666 00d4 00000000 		.word	_yt_errmsg
 6667 00d8 00000000 		.word	_yt_prompt_msg
 6668 00dc 00000000 		.word	.LC0
 6669              	.LBE132:
 6670              		.cfi_endproc
 6671              	.LFE29:
 6673              		.section	.text.yt_port_phy_linkstatus_get,"ax",%progbits
 6674              		.align	1
 6675              		.global	yt_port_phy_linkstatus_get
 6676              		.syntax unified
 6677              		.thumb
 6678              		.thumb_func
 6680              	yt_port_phy_linkstatus_get:
 6681              	.LVL908:
 6682              	.LFB30:
 642:../Switch/core/yt/yt_port.c **** 
 643:../Switch/core/yt/yt_port.c **** /**
 644:../Switch/core/yt/yt_port.c ****  * @internal      yt_port_phy_linkstatus_get
 645:../Switch/core/yt/yt_port.c ****  * @endinternal
 646:../Switch/core/yt/yt_port.c ****  *
 647:../Switch/core/yt/yt_port.c ****  * @brief         Description
 648:../Switch/core/yt/yt_port.c ****  * @note          APPLICABLE DEVICES  -Tiger
 649:../Switch/core/yt/yt_port.c ****  * @param[in]     unit                -unit id
 650:../Switch/core/yt/yt_port.c ****  * @param[in]     port                -port num
 651:../Switch/core/yt/yt_port.c ****  * @param[out]    pLinkStatus         -x
 652:../Switch/core/yt/yt_port.c ****  * @retval        CMM_ERR_OK          -on success
 653:../Switch/core/yt/yt_port.c ****  * @retval        CMM_ERR_FAIL        -on fail
 654:../Switch/core/yt/yt_port.c ****  */
 655:../Switch/core/yt/yt_port.c **** yt_ret_t yt_port_phy_linkstatus_get(yt_unit_t unit, yt_port_t port, yt_port_linkStatus_all_t *pLink
 656:../Switch/core/yt/yt_port.c **** {
 6683              		.loc 1 656 1 is_stmt 1 view -0
 6684              		.cfi_startproc
 6685              		@ args = 0, pretend = 0, frame = 0
 6686              		@ frame_needed = 0, uses_anonymous_args = 0
 6687              		.loc 1 656 1 is_stmt 0 view .LVU1915
 6688 0000 08B5     		push	{r3, lr}
 6689              		.cfi_def_cfa_offset 8
 6690              		.cfi_offset 3, -8
 6691              		.cfi_offset 14, -4
 657:../Switch/core/yt/yt_port.c ****     CMM_PARAM_CHK((YT_UNIT_NUM <= unit), CMM_ERR_INPUT);
 6692              		.loc 1 657 5 is_stmt 1 view .LVU1916
 6693              		.loc 1 657 5 view .LVU1917
 6694 0002 C0B9     		cbnz	r0, .L677
 6695 0004 8446     		mov	ip, r0
 6696              		.loc 1 657 5 discriminator 2 view .LVU1918
 658:../Switch/core/yt/yt_port.c ****     CMM_PARAM_CHK(NULL == YT_DISPATCH(unit), CMM_ERR_NOT_INIT);
 6697              		.loc 1 658 5 discriminator 2 view .LVU1919
 6698              		.loc 1 658 5 discriminator 2 view .LVU1920
 6699 0006 2F4B     		ldr	r3, .L686
 6700 0008 53F82030 		ldr	r3, [r3, r0, lsl #2]
 6701 000c 0BB3     		cbz	r3, .L678
 6702              		.loc 1 658 5 discriminator 2 view .LVU1921
 659:../Switch/core/yt/yt_port.c ****     CMM_PARAM_CHK((!(YT_DISPATCH(unit)->is_inited)), CMM_ERR_NOT_INIT);
 6703              		.loc 1 659 5 discriminator 2 view .LVU1922
 6704              		.loc 1 659 5 discriminator 2 view .LVU1923
 6705 000e 1878     		ldrb	r0, [r3]	@ zero_extendqisi2
 6706              	.LVL909:
 6707              		.loc 1 659 5 is_stmt 0 discriminator 2 view .LVU1924
 6708 0010 0028     		cmp	r0, #0
 6709 0012 2CD0     		beq	.L679
 6710              		.loc 1 659 5 is_stmt 1 discriminator 2 view .LVU1925
 660:../Switch/core/yt/yt_port.c ****     CMM_PARAM_CHK((!(CMM_PORT_VALID(unit, port))), CMM_ERR_PORT);
 6711              		.loc 1 660 5 discriminator 2 view .LVU1926
 6712              		.loc 1 660 5 discriminator 2 view .LVU1927
 6713 0014 2C48     		ldr	r0, .L686+4
 6714 0016 0078     		ldrb	r0, [r0]	@ zero_extendqisi2
 6715 0018 0028     		cmp	r0, #0
 6716 001a 36D0     		beq	.L671
 6717 001c 2B48     		ldr	r0, .L686+8
 6718 001e 50F82C00 		ldr	r0, [r0, ip, lsl #2]
 6719 0022 007D     		ldrb	r0, [r0, #20]	@ zero_extendqisi2
 6720 0024 8842     		cmp	r0, r1
 6721 0026 30D9     		bls	.L671
 6722              		.loc 1 660 5 discriminator 4 view .LVU1928
 661:../Switch/core/yt/yt_port.c ****     CMM_PARAM_CHK((NULL == pLinkStatus), CMM_ERR_NULL_POINT);
 6723              		.loc 1 661 5 discriminator 4 view .LVU1929
 6724              		.loc 1 661 5 discriminator 4 view .LVU1930
 6725 0028 002A     		cmp	r2, #0
 6726 002a 3CD0     		beq	.L680
 6727              		.loc 1 661 5 discriminator 2 view .LVU1931
 662:../Switch/core/yt/yt_port.c **** 
 663:../Switch/core/yt/yt_port.c ****     return YT_DISPATCH(unit)->port_phy_linkstatus_get(unit, port, pLinkStatus);
 6728              		.loc 1 663 5 discriminator 2 view .LVU1932
 6729              		.loc 1 663 29 is_stmt 0 discriminator 2 view .LVU1933
 6730 002c D3F8C435 		ldr	r3, [r3, #1476]
 6731              		.loc 1 663 12 discriminator 2 view .LVU1934
 6732 0030 6046     		mov	r0, ip
 6733 0032 9847     		blx	r3
 6734              	.LVL910:
 6735              	.L663:
 664:../Switch/core/yt/yt_port.c **** }
 6736              		.loc 1 664 1 view .LVU1935
 6737 0034 08BD     		pop	{r3, pc}
 6738              	.LVL911:
 6739              	.L677:
 657:../Switch/core/yt/yt_port.c ****     CMM_PARAM_CHK(NULL == YT_DISPATCH(unit), CMM_ERR_NOT_INIT);
 6740              		.loc 1 657 5 is_stmt 1 discriminator 1 view .LVU1936
 657:../Switch/core/yt/yt_port.c ****     CMM_PARAM_CHK(NULL == YT_DISPATCH(unit), CMM_ERR_NOT_INIT);
 6741              		.loc 1 657 5 discriminator 1 view .LVU1937
 6742 0036 264B     		ldr	r3, .L686+12
 6743 0038 1B78     		ldrb	r3, [r3]	@ zero_extendqisi2
 6744 003a 012B     		cmp	r3, #1
 6745 003c 01D8     		bhi	.L681
 6746              	.LVL912:
 6747              	.L665:
 657:../Switch/core/yt/yt_port.c ****     CMM_PARAM_CHK(NULL == YT_DISPATCH(unit), CMM_ERR_NOT_INIT);
 6748              		.loc 1 657 5 discriminator 5 view .LVU1938
 657:../Switch/core/yt/yt_port.c ****     CMM_PARAM_CHK(NULL == YT_DISPATCH(unit), CMM_ERR_NOT_INIT);
 6749              		.loc 1 657 5 discriminator 5 view .LVU1939
 657:../Switch/core/yt/yt_port.c ****     CMM_PARAM_CHK(NULL == YT_DISPATCH(unit), CMM_ERR_NOT_INIT);
 6750              		.loc 1 657 5 discriminator 5 view .LVU1940
 6751 003e 0520     		movs	r0, #5
 6752 0040 F8E7     		b	.L663
 6753              	.LVL913:
 6754              	.L681:
 657:../Switch/core/yt/yt_port.c ****     CMM_PARAM_CHK(NULL == YT_DISPATCH(unit), CMM_ERR_NOT_INIT);
 6755              		.loc 1 657 5 discriminator 3 view .LVU1941
 6756              	.LBB133:
 657:../Switch/core/yt/yt_port.c ****     CMM_PARAM_CHK(NULL == YT_DISPATCH(unit), CMM_ERR_NOT_INIT);
 6757              		.loc 1 657 5 discriminator 3 view .LVU1942
 6758 0042 244B     		ldr	r3, .L686+16
 6759 0044 5A69     		ldr	r2, [r3, #20]
 6760              	.LVL914:
 657:../Switch/core/yt/yt_port.c ****     CMM_PARAM_CHK(NULL == YT_DISPATCH(unit), CMM_ERR_NOT_INIT);
 6761              		.loc 1 657 5 is_stmt 0 discriminator 3 view .LVU1943
 6762 0046 244B     		ldr	r3, .L686+20
 6763 0048 9968     		ldr	r1, [r3, #8]
 6764              	.LVL915:
 657:../Switch/core/yt/yt_port.c ****     CMM_PARAM_CHK(NULL == YT_DISPATCH(unit), CMM_ERR_NOT_INIT);
 6765              		.loc 1 657 5 discriminator 3 view .LVU1944
 6766 004a 2448     		ldr	r0, .L686+24
 6767              	.LVL916:
 657:../Switch/core/yt/yt_port.c ****     CMM_PARAM_CHK(NULL == YT_DISPATCH(unit), CMM_ERR_NOT_INIT);
 6768              		.loc 1 657 5 discriminator 3 view .LVU1945
 6769 004c FFF7FEFF 		bl	osal_printf
 6770              	.LVL917:
 6771 0050 F5E7     		b	.L665
 6772              	.LVL918:
 6773              	.L678:
 657:../Switch/core/yt/yt_port.c ****     CMM_PARAM_CHK(NULL == YT_DISPATCH(unit), CMM_ERR_NOT_INIT);
 6774              		.loc 1 657 5 discriminator 3 view .LVU1946
 6775              	.LBE133:
 658:../Switch/core/yt/yt_port.c ****     CMM_PARAM_CHK((!(YT_DISPATCH(unit)->is_inited)), CMM_ERR_NOT_INIT);
 6776              		.loc 1 658 5 is_stmt 1 discriminator 1 view .LVU1947
 658:../Switch/core/yt/yt_port.c ****     CMM_PARAM_CHK((!(YT_DISPATCH(unit)->is_inited)), CMM_ERR_NOT_INIT);
 6777              		.loc 1 658 5 discriminator 1 view .LVU1948
 6778 0052 1F4B     		ldr	r3, .L686+12
 6779 0054 1B78     		ldrb	r3, [r3]	@ zero_extendqisi2
 6780 0056 012B     		cmp	r3, #1
 6781 0058 01D8     		bhi	.L682
 6782              	.LVL919:
 6783              	.L668:
 658:../Switch/core/yt/yt_port.c ****     CMM_PARAM_CHK((!(YT_DISPATCH(unit)->is_inited)), CMM_ERR_NOT_INIT);
 6784              		.loc 1 658 5 discriminator 5 view .LVU1949
 658:../Switch/core/yt/yt_port.c ****     CMM_PARAM_CHK((!(YT_DISPATCH(unit)->is_inited)), CMM_ERR_NOT_INIT);
 6785              		.loc 1 658 5 discriminator 5 view .LVU1950
 658:../Switch/core/yt/yt_port.c ****     CMM_PARAM_CHK((!(YT_DISPATCH(unit)->is_inited)), CMM_ERR_NOT_INIT);
 6786              		.loc 1 658 5 discriminator 5 view .LVU1951
 6787 005a 0420     		movs	r0, #4
 6788 005c EAE7     		b	.L663
 6789              	.LVL920:
 6790              	.L682:
 658:../Switch/core/yt/yt_port.c ****     CMM_PARAM_CHK((!(YT_DISPATCH(unit)->is_inited)), CMM_ERR_NOT_INIT);
 6791              		.loc 1 658 5 discriminator 3 view .LVU1952
 6792              	.LBB134:
 658:../Switch/core/yt/yt_port.c ****     CMM_PARAM_CHK((!(YT_DISPATCH(unit)->is_inited)), CMM_ERR_NOT_INIT);
 6793              		.loc 1 658 5 discriminator 3 view .LVU1953
 6794 005e 1D4B     		ldr	r3, .L686+16
 6795 0060 1A69     		ldr	r2, [r3, #16]
 6796              	.LVL921:
 658:../Switch/core/yt/yt_port.c ****     CMM_PARAM_CHK((!(YT_DISPATCH(unit)->is_inited)), CMM_ERR_NOT_INIT);
 6797              		.loc 1 658 5 is_stmt 0 discriminator 3 view .LVU1954
 6798 0062 1D4B     		ldr	r3, .L686+20
 6799 0064 9968     		ldr	r1, [r3, #8]
 6800              	.LVL922:
 658:../Switch/core/yt/yt_port.c ****     CMM_PARAM_CHK((!(YT_DISPATCH(unit)->is_inited)), CMM_ERR_NOT_INIT);
 6801              		.loc 1 658 5 discriminator 3 view .LVU1955
 6802 0066 1D48     		ldr	r0, .L686+24
 6803              	.LVL923:
 658:../Switch/core/yt/yt_port.c ****     CMM_PARAM_CHK((!(YT_DISPATCH(unit)->is_inited)), CMM_ERR_NOT_INIT);
 6804              		.loc 1 658 5 discriminator 3 view .LVU1956
 6805 0068 FFF7FEFF 		bl	osal_printf
 6806              	.LVL924:
 6807 006c F5E7     		b	.L668
 6808              	.LVL925:
 6809              	.L679:
 658:../Switch/core/yt/yt_port.c ****     CMM_PARAM_CHK((!(YT_DISPATCH(unit)->is_inited)), CMM_ERR_NOT_INIT);
 6810              		.loc 1 658 5 discriminator 3 view .LVU1957
 6811              	.LBE134:
 659:../Switch/core/yt/yt_port.c ****     CMM_PARAM_CHK((!(CMM_PORT_VALID(unit, port))), CMM_ERR_PORT);
 6812              		.loc 1 659 5 is_stmt 1 discriminator 1 view .LVU1958
 659:../Switch/core/yt/yt_port.c ****     CMM_PARAM_CHK((!(CMM_PORT_VALID(unit, port))), CMM_ERR_PORT);
 6813              		.loc 1 659 5 discriminator 1 view .LVU1959
 6814 006e 184B     		ldr	r3, .L686+12
 6815 0070 1B78     		ldrb	r3, [r3]	@ zero_extendqisi2
 6816 0072 012B     		cmp	r3, #1
 6817 0074 01D8     		bhi	.L683
 6818              	.LVL926:
 6819              	.L670:
 659:../Switch/core/yt/yt_port.c ****     CMM_PARAM_CHK((!(CMM_PORT_VALID(unit, port))), CMM_ERR_PORT);
 6820              		.loc 1 659 5 discriminator 5 view .LVU1960
 659:../Switch/core/yt/yt_port.c ****     CMM_PARAM_CHK((!(CMM_PORT_VALID(unit, port))), CMM_ERR_PORT);
 6821              		.loc 1 659 5 discriminator 5 view .LVU1961
 659:../Switch/core/yt/yt_port.c ****     CMM_PARAM_CHK((!(CMM_PORT_VALID(unit, port))), CMM_ERR_PORT);
 6822              		.loc 1 659 5 discriminator 5 view .LVU1962
 6823 0076 0420     		movs	r0, #4
 6824 0078 DCE7     		b	.L663
 6825              	.LVL927:
 6826              	.L683:
 659:../Switch/core/yt/yt_port.c ****     CMM_PARAM_CHK((!(CMM_PORT_VALID(unit, port))), CMM_ERR_PORT);
 6827              		.loc 1 659 5 discriminator 3 view .LVU1963
 6828              	.LBB135:
 659:../Switch/core/yt/yt_port.c ****     CMM_PARAM_CHK((!(CMM_PORT_VALID(unit, port))), CMM_ERR_PORT);
 6829              		.loc 1 659 5 discriminator 3 view .LVU1964
 6830 007a 164B     		ldr	r3, .L686+16
 6831 007c 1A69     		ldr	r2, [r3, #16]
 6832              	.LVL928:
 659:../Switch/core/yt/yt_port.c ****     CMM_PARAM_CHK((!(CMM_PORT_VALID(unit, port))), CMM_ERR_PORT);
 6833              		.loc 1 659 5 is_stmt 0 discriminator 3 view .LVU1965
 6834 007e 164B     		ldr	r3, .L686+20
 6835 0080 9968     		ldr	r1, [r3, #8]
 6836              	.LVL929:
 659:../Switch/core/yt/yt_port.c ****     CMM_PARAM_CHK((!(CMM_PORT_VALID(unit, port))), CMM_ERR_PORT);
 6837              		.loc 1 659 5 discriminator 3 view .LVU1966
 6838 0082 1648     		ldr	r0, .L686+24
 6839 0084 FFF7FEFF 		bl	osal_printf
 6840              	.LVL930:
 6841 0088 F5E7     		b	.L670
 6842              	.LVL931:
 6843              	.L671:
 659:../Switch/core/yt/yt_port.c ****     CMM_PARAM_CHK((!(CMM_PORT_VALID(unit, port))), CMM_ERR_PORT);
 6844              		.loc 1 659 5 discriminator 3 view .LVU1967
 6845              	.LBE135:
 660:../Switch/core/yt/yt_port.c ****     CMM_PARAM_CHK((NULL == pLinkStatus), CMM_ERR_NULL_POINT);
 6846              		.loc 1 660 5 is_stmt 1 discriminator 3 view .LVU1968
 660:../Switch/core/yt/yt_port.c ****     CMM_PARAM_CHK((NULL == pLinkStatus), CMM_ERR_NULL_POINT);
 6847              		.loc 1 660 5 discriminator 3 view .LVU1969
 6848 008a 114B     		ldr	r3, .L686+12
 6849 008c 1B78     		ldrb	r3, [r3]	@ zero_extendqisi2
 6850 008e 012B     		cmp	r3, #1
 6851 0090 01D8     		bhi	.L684
 6852              	.LVL932:
 6853              	.L673:
 660:../Switch/core/yt/yt_port.c ****     CMM_PARAM_CHK((NULL == pLinkStatus), CMM_ERR_NULL_POINT);
 6854              		.loc 1 660 5 discriminator 7 view .LVU1970
 660:../Switch/core/yt/yt_port.c ****     CMM_PARAM_CHK((NULL == pLinkStatus), CMM_ERR_NULL_POINT);
 6855              		.loc 1 660 5 discriminator 7 view .LVU1971
 660:../Switch/core/yt/yt_port.c ****     CMM_PARAM_CHK((NULL == pLinkStatus), CMM_ERR_NULL_POINT);
 6856              		.loc 1 660 5 discriminator 7 view .LVU1972
 6857 0092 0E20     		movs	r0, #14
 6858 0094 CEE7     		b	.L663
 6859              	.LVL933:
 6860              	.L684:
 660:../Switch/core/yt/yt_port.c ****     CMM_PARAM_CHK((NULL == pLinkStatus), CMM_ERR_NULL_POINT);
 6861              		.loc 1 660 5 discriminator 5 view .LVU1973
 6862              	.LBB136:
 660:../Switch/core/yt/yt_port.c ****     CMM_PARAM_CHK((NULL == pLinkStatus), CMM_ERR_NULL_POINT);
 6863              		.loc 1 660 5 discriminator 5 view .LVU1974
 6864 0096 0F4B     		ldr	r3, .L686+16
 6865 0098 9A6B     		ldr	r2, [r3, #56]
 6866              	.LVL934:
 660:../Switch/core/yt/yt_port.c ****     CMM_PARAM_CHK((NULL == pLinkStatus), CMM_ERR_NULL_POINT);
 6867              		.loc 1 660 5 is_stmt 0 discriminator 5 view .LVU1975
 6868 009a 0F4B     		ldr	r3, .L686+20
 6869 009c 9968     		ldr	r1, [r3, #8]
 6870              	.LVL935:
 660:../Switch/core/yt/yt_port.c ****     CMM_PARAM_CHK((NULL == pLinkStatus), CMM_ERR_NULL_POINT);
 6871              		.loc 1 660 5 discriminator 5 view .LVU1976
 6872 009e 0F48     		ldr	r0, .L686+24
 6873 00a0 FFF7FEFF 		bl	osal_printf
 6874              	.LVL936:
 6875 00a4 F5E7     		b	.L673
 6876              	.LVL937:
 6877              	.L680:
 660:../Switch/core/yt/yt_port.c ****     CMM_PARAM_CHK((NULL == pLinkStatus), CMM_ERR_NULL_POINT);
 6878              		.loc 1 660 5 discriminator 5 view .LVU1977
 6879              	.LBE136:
 661:../Switch/core/yt/yt_port.c **** 
 6880              		.loc 1 661 5 is_stmt 1 discriminator 1 view .LVU1978
 661:../Switch/core/yt/yt_port.c **** 
 6881              		.loc 1 661 5 discriminator 1 view .LVU1979
 6882 00a6 0A4B     		ldr	r3, .L686+12
 6883 00a8 1B78     		ldrb	r3, [r3]	@ zero_extendqisi2
 6884 00aa 012B     		cmp	r3, #1
 6885 00ac 01D8     		bhi	.L685
 6886              	.LVL938:
 6887              	.L675:
 661:../Switch/core/yt/yt_port.c **** 
 6888              		.loc 1 661 5 discriminator 5 view .LVU1980
 661:../Switch/core/yt/yt_port.c **** 
 6889              		.loc 1 661 5 discriminator 5 view .LVU1981
 661:../Switch/core/yt/yt_port.c **** 
 6890              		.loc 1 661 5 discriminator 5 view .LVU1982
 6891 00ae 0220     		movs	r0, #2
 6892 00b0 C0E7     		b	.L663
 6893              	.LVL939:
 6894              	.L685:
 661:../Switch/core/yt/yt_port.c **** 
 6895              		.loc 1 661 5 discriminator 3 view .LVU1983
 6896              	.LBB137:
 661:../Switch/core/yt/yt_port.c **** 
 6897              		.loc 1 661 5 discriminator 3 view .LVU1984
 6898 00b2 084B     		ldr	r3, .L686+16
 6899 00b4 9A68     		ldr	r2, [r3, #8]
 6900              	.LVL940:
 661:../Switch/core/yt/yt_port.c **** 
 6901              		.loc 1 661 5 is_stmt 0 discriminator 3 view .LVU1985
 6902 00b6 084B     		ldr	r3, .L686+20
 6903 00b8 9968     		ldr	r1, [r3, #8]
 6904              	.LVL941:
 661:../Switch/core/yt/yt_port.c **** 
 6905              		.loc 1 661 5 discriminator 3 view .LVU1986
 6906 00ba 0848     		ldr	r0, .L686+24
 6907 00bc FFF7FEFF 		bl	osal_printf
 6908              	.LVL942:
 6909 00c0 F5E7     		b	.L675
 6910              	.L687:
 6911 00c2 00BF     		.align	2
 6912              	.L686:
 6913 00c4 00000000 		.word	gpfal_dispatch
 6914 00c8 00000000 		.word	gcal_inited
 6915 00cc 00000000 		.word	gpSwitchUnit
 6916 00d0 00000000 		.word	yt_debug_level
 6917 00d4 00000000 		.word	_yt_errmsg
 6918 00d8 00000000 		.word	_yt_prompt_msg
 6919 00dc 00000000 		.word	.LC0
 6920              	.LBE137:
 6921              		.cfi_endproc
 6922              	.LFE30:
 6924              		.section	.text.yt_port_phy_reg_set,"ax",%progbits
 6925              		.align	1
 6926              		.global	yt_port_phy_reg_set
 6927              		.syntax unified
 6928              		.thumb
 6929              		.thumb_func
 6931              	yt_port_phy_reg_set:
 6932              	.LVL943:
 6933              	.LFB31:
 665:../Switch/core/yt/yt_port.c **** 
 666:../Switch/core/yt/yt_port.c **** /**
 667:../Switch/core/yt/yt_port.c ****  * @internal      yt_port_phy_reg_set
 668:../Switch/core/yt/yt_port.c ****  * @endinternal
 669:../Switch/core/yt/yt_port.c ****  *
 670:../Switch/core/yt/yt_port.c ****  * @brief         Description
 671:../Switch/core/yt/yt_port.c ****  * @note          APPLICABLE DEVICES  -Tiger
 672:../Switch/core/yt/yt_port.c ****  * @param[in]     unit                -unit id
 673:../Switch/core/yt/yt_port.c ****  * @param[in]     port                -port num
 674:../Switch/core/yt/yt_port.c ****  * @param[in]     regAddr             -x
 675:../Switch/core/yt/yt_port.c ****  * @param[in]     data                -x
 676:../Switch/core/yt/yt_port.c ****  * @param[in]     type                -phy type, internal or external phy
 677:../Switch/core/yt/yt_port.c ****  * @retval        CMM_ERR_OK          -on success
 678:../Switch/core/yt/yt_port.c ****  * @retval        CMM_ERR_FAIL        -on fail
 679:../Switch/core/yt/yt_port.c ****  */
 680:../Switch/core/yt/yt_port.c **** yt_ret_t yt_port_phy_reg_set(yt_unit_t unit, yt_port_t port, uint32_t regAddr, uint16_t data, yt_ph
 681:../Switch/core/yt/yt_port.c **** {
 6934              		.loc 1 681 1 is_stmt 1 view -0
 6935              		.cfi_startproc
 6936              		@ args = 4, pretend = 0, frame = 0
 6937              		@ frame_needed = 0, uses_anonymous_args = 0
 6938              		.loc 1 681 1 is_stmt 0 view .LVU1988
 6939 0000 30B5     		push	{r4, r5, lr}
 6940              		.cfi_def_cfa_offset 12
 6941              		.cfi_offset 4, -12
 6942              		.cfi_offset 5, -8
 6943              		.cfi_offset 14, -4
 6944 0002 83B0     		sub	sp, sp, #12
 6945              		.cfi_def_cfa_offset 24
 6946 0004 9DF81850 		ldrb	r5, [sp, #24]	@ zero_extendqisi2
 682:../Switch/core/yt/yt_port.c ****     CMM_PARAM_CHK((YT_UNIT_NUM <= unit), CMM_ERR_INPUT);
 6947              		.loc 1 682 5 is_stmt 1 view .LVU1989
 6948              		.loc 1 682 5 view .LVU1990
 6949 0008 D0B9     		cbnz	r0, .L702
 6950 000a 8446     		mov	ip, r0
 6951              		.loc 1 682 5 discriminator 2 view .LVU1991
 683:../Switch/core/yt/yt_port.c ****     CMM_PARAM_CHK(NULL == YT_DISPATCH(unit), CMM_ERR_NOT_INIT);
 6952              		.loc 1 683 5 discriminator 2 view .LVU1992
 6953              		.loc 1 683 5 discriminator 2 view .LVU1993
 6954 000c 2F48     		ldr	r0, .L711
 6955              	.LVL944:
 6956              		.loc 1 683 5 is_stmt 0 discriminator 2 view .LVU1994
 6957 000e 50F82C40 		ldr	r4, [r0, ip, lsl #2]
 6958 0012 1CB3     		cbz	r4, .L703
 6959              		.loc 1 683 5 is_stmt 1 discriminator 2 view .LVU1995
 684:../Switch/core/yt/yt_port.c ****     CMM_PARAM_CHK((!(YT_DISPATCH(unit)->is_inited)), CMM_ERR_NOT_INIT);
 6960              		.loc 1 684 5 discriminator 2 view .LVU1996
 6961              		.loc 1 684 5 discriminator 2 view .LVU1997
 6962 0014 2078     		ldrb	r0, [r4]	@ zero_extendqisi2
 6963 0016 0028     		cmp	r0, #0
 6964 0018 2ED0     		beq	.L704
 6965              		.loc 1 684 5 discriminator 2 view .LVU1998
 685:../Switch/core/yt/yt_port.c ****     CMM_PARAM_CHK((!(CMM_PORT_VALID(unit, port))), CMM_ERR_PORT);
 6966              		.loc 1 685 5 discriminator 2 view .LVU1999
 6967              		.loc 1 685 5 discriminator 2 view .LVU2000
 6968 001a 2D48     		ldr	r0, .L711+4
 6969 001c 0078     		ldrb	r0, [r0]	@ zero_extendqisi2
 6970 001e 0028     		cmp	r0, #0
 6971 0020 38D0     		beq	.L696
 6972 0022 2C48     		ldr	r0, .L711+8
 6973 0024 50F82C00 		ldr	r0, [r0, ip, lsl #2]
 6974 0028 007D     		ldrb	r0, [r0, #20]	@ zero_extendqisi2
 6975 002a 8842     		cmp	r0, r1
 6976 002c 32D9     		bls	.L696
 6977              		.loc 1 685 5 discriminator 4 view .LVU2001
 686:../Switch/core/yt/yt_port.c ****     CMM_PARAM_CHK((PHY_EXTERNAL < type || PHY_INTERNAL > type), CMM_ERR_INPUT);
 6978              		.loc 1 686 5 discriminator 4 view .LVU2002
 6979              		.loc 1 686 5 discriminator 4 view .LVU2003
 6980 002e 012D     		cmp	r5, #1
 6981 0030 3ED8     		bhi	.L705
 6982              		.loc 1 686 5 discriminator 2 view .LVU2004
 687:../Switch/core/yt/yt_port.c **** 
 688:../Switch/core/yt/yt_port.c ****     return YT_DISPATCH(unit)->port_phy_reg_set(unit, port, regAddr, data, type);
 6983              		.loc 1 688 5 discriminator 2 view .LVU2005
 6984              		.loc 1 688 29 is_stmt 0 discriminator 2 view .LVU2006
 6985 0032 D4F8C845 		ldr	r4, [r4, #1480]
 6986              		.loc 1 688 12 discriminator 2 view .LVU2007
 6987 0036 0095     		str	r5, [sp]
 6988 0038 6046     		mov	r0, ip
 6989 003a A047     		blx	r4
 6990              	.LVL945:
 6991              	.L688:
 689:../Switch/core/yt/yt_port.c **** }
 6992              		.loc 1 689 1 view .LVU2008
 6993 003c 03B0     		add	sp, sp, #12
 6994              		.cfi_remember_state
 6995              		.cfi_def_cfa_offset 12
 6996              		@ sp needed
 6997 003e 30BD     		pop	{r4, r5, pc}
 6998              	.LVL946:
 6999              	.L702:
 7000              		.cfi_restore_state
 682:../Switch/core/yt/yt_port.c ****     CMM_PARAM_CHK(NULL == YT_DISPATCH(unit), CMM_ERR_NOT_INIT);
 7001              		.loc 1 682 5 is_stmt 1 discriminator 1 view .LVU2009
 682:../Switch/core/yt/yt_port.c ****     CMM_PARAM_CHK(NULL == YT_DISPATCH(unit), CMM_ERR_NOT_INIT);
 7002              		.loc 1 682 5 discriminator 1 view .LVU2010
 7003 0040 254B     		ldr	r3, .L711+12
 7004              	.LVL947:
 682:../Switch/core/yt/yt_port.c ****     CMM_PARAM_CHK(NULL == YT_DISPATCH(unit), CMM_ERR_NOT_INIT);
 7005              		.loc 1 682 5 is_stmt 0 discriminator 1 view .LVU2011
 7006 0042 1B78     		ldrb	r3, [r3]	@ zero_extendqisi2
 7007 0044 012B     		cmp	r3, #1
 7008 0046 01D8     		bhi	.L706
 7009              	.LVL948:
 7010              	.L690:
 682:../Switch/core/yt/yt_port.c ****     CMM_PARAM_CHK(NULL == YT_DISPATCH(unit), CMM_ERR_NOT_INIT);
 7011              		.loc 1 682 5 is_stmt 1 discriminator 5 view .LVU2012
 682:../Switch/core/yt/yt_port.c ****     CMM_PARAM_CHK(NULL == YT_DISPATCH(unit), CMM_ERR_NOT_INIT);
 7012              		.loc 1 682 5 discriminator 5 view .LVU2013
 682:../Switch/core/yt/yt_port.c ****     CMM_PARAM_CHK(NULL == YT_DISPATCH(unit), CMM_ERR_NOT_INIT);
 7013              		.loc 1 682 5 discriminator 5 view .LVU2014
 7014 0048 0520     		movs	r0, #5
 7015 004a F7E7     		b	.L688
 7016              	.LVL949:
 7017              	.L706:
 682:../Switch/core/yt/yt_port.c ****     CMM_PARAM_CHK(NULL == YT_DISPATCH(unit), CMM_ERR_NOT_INIT);
 7018              		.loc 1 682 5 discriminator 3 view .LVU2015
 7019              	.LBB138:
 682:../Switch/core/yt/yt_port.c ****     CMM_PARAM_CHK(NULL == YT_DISPATCH(unit), CMM_ERR_NOT_INIT);
 7020              		.loc 1 682 5 discriminator 3 view .LVU2016
 7021 004c 234B     		ldr	r3, .L711+16
 7022 004e 5A69     		ldr	r2, [r3, #20]
 7023              	.LVL950:
 682:../Switch/core/yt/yt_port.c ****     CMM_PARAM_CHK(NULL == YT_DISPATCH(unit), CMM_ERR_NOT_INIT);
 7024              		.loc 1 682 5 is_stmt 0 discriminator 3 view .LVU2017
 7025 0050 234B     		ldr	r3, .L711+20
 7026 0052 9968     		ldr	r1, [r3, #8]
 7027              	.LVL951:
 682:../Switch/core/yt/yt_port.c ****     CMM_PARAM_CHK(NULL == YT_DISPATCH(unit), CMM_ERR_NOT_INIT);
 7028              		.loc 1 682 5 discriminator 3 view .LVU2018
 7029 0054 2348     		ldr	r0, .L711+24
 7030              	.LVL952:
 682:../Switch/core/yt/yt_port.c ****     CMM_PARAM_CHK(NULL == YT_DISPATCH(unit), CMM_ERR_NOT_INIT);
 7031              		.loc 1 682 5 discriminator 3 view .LVU2019
 7032 0056 FFF7FEFF 		bl	osal_printf
 7033              	.LVL953:
 7034 005a F5E7     		b	.L690
 7035              	.LVL954:
 7036              	.L703:
 682:../Switch/core/yt/yt_port.c ****     CMM_PARAM_CHK(NULL == YT_DISPATCH(unit), CMM_ERR_NOT_INIT);
 7037              		.loc 1 682 5 discriminator 3 view .LVU2020
 7038              	.LBE138:
 683:../Switch/core/yt/yt_port.c ****     CMM_PARAM_CHK((!(YT_DISPATCH(unit)->is_inited)), CMM_ERR_NOT_INIT);
 7039              		.loc 1 683 5 is_stmt 1 discriminator 1 view .LVU2021
 683:../Switch/core/yt/yt_port.c ****     CMM_PARAM_CHK((!(YT_DISPATCH(unit)->is_inited)), CMM_ERR_NOT_INIT);
 7040              		.loc 1 683 5 discriminator 1 view .LVU2022
 7041 005c 1E4B     		ldr	r3, .L711+12
 7042              	.LVL955:
 683:../Switch/core/yt/yt_port.c ****     CMM_PARAM_CHK((!(YT_DISPATCH(unit)->is_inited)), CMM_ERR_NOT_INIT);
 7043              		.loc 1 683 5 is_stmt 0 discriminator 1 view .LVU2023
 7044 005e 1B78     		ldrb	r3, [r3]	@ zero_extendqisi2
 7045 0060 012B     		cmp	r3, #1
 7046 0062 01D8     		bhi	.L707
 7047              	.LVL956:
 7048              	.L693:
 683:../Switch/core/yt/yt_port.c ****     CMM_PARAM_CHK((!(YT_DISPATCH(unit)->is_inited)), CMM_ERR_NOT_INIT);
 7049              		.loc 1 683 5 is_stmt 1 discriminator 5 view .LVU2024
 683:../Switch/core/yt/yt_port.c ****     CMM_PARAM_CHK((!(YT_DISPATCH(unit)->is_inited)), CMM_ERR_NOT_INIT);
 7050              		.loc 1 683 5 discriminator 5 view .LVU2025
 683:../Switch/core/yt/yt_port.c ****     CMM_PARAM_CHK((!(YT_DISPATCH(unit)->is_inited)), CMM_ERR_NOT_INIT);
 7051              		.loc 1 683 5 discriminator 5 view .LVU2026
 7052 0064 0420     		movs	r0, #4
 7053 0066 E9E7     		b	.L688
 7054              	.LVL957:
 7055              	.L707:
 683:../Switch/core/yt/yt_port.c ****     CMM_PARAM_CHK((!(YT_DISPATCH(unit)->is_inited)), CMM_ERR_NOT_INIT);
 7056              		.loc 1 683 5 discriminator 3 view .LVU2027
 7057              	.LBB139:
 683:../Switch/core/yt/yt_port.c ****     CMM_PARAM_CHK((!(YT_DISPATCH(unit)->is_inited)), CMM_ERR_NOT_INIT);
 7058              		.loc 1 683 5 discriminator 3 view .LVU2028
 7059 0068 1C4B     		ldr	r3, .L711+16
 7060 006a 1A69     		ldr	r2, [r3, #16]
 7061              	.LVL958:
 683:../Switch/core/yt/yt_port.c ****     CMM_PARAM_CHK((!(YT_DISPATCH(unit)->is_inited)), CMM_ERR_NOT_INIT);
 7062              		.loc 1 683 5 is_stmt 0 discriminator 3 view .LVU2029
 7063 006c 1C4B     		ldr	r3, .L711+20
 7064 006e 9968     		ldr	r1, [r3, #8]
 7065              	.LVL959:
 683:../Switch/core/yt/yt_port.c ****     CMM_PARAM_CHK((!(YT_DISPATCH(unit)->is_inited)), CMM_ERR_NOT_INIT);
 7066              		.loc 1 683 5 discriminator 3 view .LVU2030
 7067 0070 1C48     		ldr	r0, .L711+24
 7068 0072 FFF7FEFF 		bl	osal_printf
 7069              	.LVL960:
 7070 0076 F5E7     		b	.L693
 7071              	.LVL961:
 7072              	.L704:
 683:../Switch/core/yt/yt_port.c ****     CMM_PARAM_CHK((!(YT_DISPATCH(unit)->is_inited)), CMM_ERR_NOT_INIT);
 7073              		.loc 1 683 5 discriminator 3 view .LVU2031
 7074              	.LBE139:
 684:../Switch/core/yt/yt_port.c ****     CMM_PARAM_CHK((!(CMM_PORT_VALID(unit, port))), CMM_ERR_PORT);
 7075              		.loc 1 684 5 is_stmt 1 discriminator 1 view .LVU2032
 684:../Switch/core/yt/yt_port.c ****     CMM_PARAM_CHK((!(CMM_PORT_VALID(unit, port))), CMM_ERR_PORT);
 7076              		.loc 1 684 5 discriminator 1 view .LVU2033
 7077 0078 174B     		ldr	r3, .L711+12
 7078              	.LVL962:
 684:../Switch/core/yt/yt_port.c ****     CMM_PARAM_CHK((!(CMM_PORT_VALID(unit, port))), CMM_ERR_PORT);
 7079              		.loc 1 684 5 is_stmt 0 discriminator 1 view .LVU2034
 7080 007a 1B78     		ldrb	r3, [r3]	@ zero_extendqisi2
 7081 007c 012B     		cmp	r3, #1
 7082 007e 01D8     		bhi	.L708
 7083              	.LVL963:
 7084              	.L695:
 684:../Switch/core/yt/yt_port.c ****     CMM_PARAM_CHK((!(CMM_PORT_VALID(unit, port))), CMM_ERR_PORT);
 7085              		.loc 1 684 5 is_stmt 1 discriminator 5 view .LVU2035
 684:../Switch/core/yt/yt_port.c ****     CMM_PARAM_CHK((!(CMM_PORT_VALID(unit, port))), CMM_ERR_PORT);
 7086              		.loc 1 684 5 discriminator 5 view .LVU2036
 684:../Switch/core/yt/yt_port.c ****     CMM_PARAM_CHK((!(CMM_PORT_VALID(unit, port))), CMM_ERR_PORT);
 7087              		.loc 1 684 5 discriminator 5 view .LVU2037
 7088 0080 0420     		movs	r0, #4
 7089 0082 DBE7     		b	.L688
 7090              	.LVL964:
 7091              	.L708:
 684:../Switch/core/yt/yt_port.c ****     CMM_PARAM_CHK((!(CMM_PORT_VALID(unit, port))), CMM_ERR_PORT);
 7092              		.loc 1 684 5 discriminator 3 view .LVU2038
 7093              	.LBB140:
 684:../Switch/core/yt/yt_port.c ****     CMM_PARAM_CHK((!(CMM_PORT_VALID(unit, port))), CMM_ERR_PORT);
 7094              		.loc 1 684 5 discriminator 3 view .LVU2039
 7095 0084 154B     		ldr	r3, .L711+16
 7096 0086 1A69     		ldr	r2, [r3, #16]
 7097              	.LVL965:
 684:../Switch/core/yt/yt_port.c ****     CMM_PARAM_CHK((!(CMM_PORT_VALID(unit, port))), CMM_ERR_PORT);
 7098              		.loc 1 684 5 is_stmt 0 discriminator 3 view .LVU2040
 7099 0088 154B     		ldr	r3, .L711+20
 7100 008a 9968     		ldr	r1, [r3, #8]
 7101              	.LVL966:
 684:../Switch/core/yt/yt_port.c ****     CMM_PARAM_CHK((!(CMM_PORT_VALID(unit, port))), CMM_ERR_PORT);
 7102              		.loc 1 684 5 discriminator 3 view .LVU2041
 7103 008c 1548     		ldr	r0, .L711+24
 7104 008e FFF7FEFF 		bl	osal_printf
 7105              	.LVL967:
 7106 0092 F5E7     		b	.L695
 7107              	.LVL968:
 7108              	.L696:
 684:../Switch/core/yt/yt_port.c ****     CMM_PARAM_CHK((!(CMM_PORT_VALID(unit, port))), CMM_ERR_PORT);
 7109              		.loc 1 684 5 discriminator 3 view .LVU2042
 7110              	.LBE140:
 685:../Switch/core/yt/yt_port.c ****     CMM_PARAM_CHK((PHY_EXTERNAL < type || PHY_INTERNAL > type), CMM_ERR_INPUT);
 7111              		.loc 1 685 5 is_stmt 1 discriminator 3 view .LVU2043
 685:../Switch/core/yt/yt_port.c ****     CMM_PARAM_CHK((PHY_EXTERNAL < type || PHY_INTERNAL > type), CMM_ERR_INPUT);
 7112              		.loc 1 685 5 discriminator 3 view .LVU2044
 7113 0094 104B     		ldr	r3, .L711+12
 7114              	.LVL969:
 685:../Switch/core/yt/yt_port.c ****     CMM_PARAM_CHK((PHY_EXTERNAL < type || PHY_INTERNAL > type), CMM_ERR_INPUT);
 7115              		.loc 1 685 5 is_stmt 0 discriminator 3 view .LVU2045
 7116 0096 1B78     		ldrb	r3, [r3]	@ zero_extendqisi2
 7117 0098 012B     		cmp	r3, #1
 7118 009a 01D8     		bhi	.L709
 7119              	.LVL970:
 7120              	.L698:
 685:../Switch/core/yt/yt_port.c ****     CMM_PARAM_CHK((PHY_EXTERNAL < type || PHY_INTERNAL > type), CMM_ERR_INPUT);
 7121              		.loc 1 685 5 is_stmt 1 discriminator 7 view .LVU2046
 685:../Switch/core/yt/yt_port.c ****     CMM_PARAM_CHK((PHY_EXTERNAL < type || PHY_INTERNAL > type), CMM_ERR_INPUT);
 7122              		.loc 1 685 5 discriminator 7 view .LVU2047
 685:../Switch/core/yt/yt_port.c ****     CMM_PARAM_CHK((PHY_EXTERNAL < type || PHY_INTERNAL > type), CMM_ERR_INPUT);
 7123              		.loc 1 685 5 discriminator 7 view .LVU2048
 7124 009c 0E20     		movs	r0, #14
 7125 009e CDE7     		b	.L688
 7126              	.LVL971:
 7127              	.L709:
 685:../Switch/core/yt/yt_port.c ****     CMM_PARAM_CHK((PHY_EXTERNAL < type || PHY_INTERNAL > type), CMM_ERR_INPUT);
 7128              		.loc 1 685 5 discriminator 5 view .LVU2049
 7129              	.LBB141:
 685:../Switch/core/yt/yt_port.c ****     CMM_PARAM_CHK((PHY_EXTERNAL < type || PHY_INTERNAL > type), CMM_ERR_INPUT);
 7130              		.loc 1 685 5 discriminator 5 view .LVU2050
 7131 00a0 0E4B     		ldr	r3, .L711+16
 7132 00a2 9A6B     		ldr	r2, [r3, #56]
 7133              	.LVL972:
 685:../Switch/core/yt/yt_port.c ****     CMM_PARAM_CHK((PHY_EXTERNAL < type || PHY_INTERNAL > type), CMM_ERR_INPUT);
 7134              		.loc 1 685 5 is_stmt 0 discriminator 5 view .LVU2051
 7135 00a4 0E4B     		ldr	r3, .L711+20
 7136 00a6 9968     		ldr	r1, [r3, #8]
 7137              	.LVL973:
 685:../Switch/core/yt/yt_port.c ****     CMM_PARAM_CHK((PHY_EXTERNAL < type || PHY_INTERNAL > type), CMM_ERR_INPUT);
 7138              		.loc 1 685 5 discriminator 5 view .LVU2052
 7139 00a8 0E48     		ldr	r0, .L711+24
 7140 00aa FFF7FEFF 		bl	osal_printf
 7141              	.LVL974:
 7142 00ae F5E7     		b	.L698
 7143              	.LVL975:
 7144              	.L705:
 685:../Switch/core/yt/yt_port.c ****     CMM_PARAM_CHK((PHY_EXTERNAL < type || PHY_INTERNAL > type), CMM_ERR_INPUT);
 7145              		.loc 1 685 5 discriminator 5 view .LVU2053
 7146              	.LBE141:
 686:../Switch/core/yt/yt_port.c **** 
 7147              		.loc 1 686 5 is_stmt 1 discriminator 1 view .LVU2054
 686:../Switch/core/yt/yt_port.c **** 
 7148              		.loc 1 686 5 discriminator 1 view .LVU2055
 7149 00b0 094B     		ldr	r3, .L711+12
 7150              	.LVL976:
 686:../Switch/core/yt/yt_port.c **** 
 7151              		.loc 1 686 5 is_stmt 0 discriminator 1 view .LVU2056
 7152 00b2 1B78     		ldrb	r3, [r3]	@ zero_extendqisi2
 7153 00b4 012B     		cmp	r3, #1
 7154 00b6 01D8     		bhi	.L710
 7155              	.LVL977:
 7156              	.L700:
 686:../Switch/core/yt/yt_port.c **** 
 7157              		.loc 1 686 5 is_stmt 1 discriminator 5 view .LVU2057
 686:../Switch/core/yt/yt_port.c **** 
 7158              		.loc 1 686 5 discriminator 5 view .LVU2058
 686:../Switch/core/yt/yt_port.c **** 
 7159              		.loc 1 686 5 discriminator 5 view .LVU2059
 7160 00b8 0520     		movs	r0, #5
 7161 00ba BFE7     		b	.L688
 7162              	.LVL978:
 7163              	.L710:
 686:../Switch/core/yt/yt_port.c **** 
 7164              		.loc 1 686 5 discriminator 3 view .LVU2060
 7165              	.LBB142:
 686:../Switch/core/yt/yt_port.c **** 
 7166              		.loc 1 686 5 discriminator 3 view .LVU2061
 7167 00bc 074B     		ldr	r3, .L711+16
 7168 00be 5A69     		ldr	r2, [r3, #20]
 7169              	.LVL979:
 686:../Switch/core/yt/yt_port.c **** 
 7170              		.loc 1 686 5 is_stmt 0 discriminator 3 view .LVU2062
 7171 00c0 074B     		ldr	r3, .L711+20
 7172 00c2 9968     		ldr	r1, [r3, #8]
 7173              	.LVL980:
 686:../Switch/core/yt/yt_port.c **** 
 7174              		.loc 1 686 5 discriminator 3 view .LVU2063
 7175 00c4 0748     		ldr	r0, .L711+24
 7176 00c6 FFF7FEFF 		bl	osal_printf
 7177              	.LVL981:
 7178 00ca F5E7     		b	.L700
 7179              	.L712:
 7180              		.align	2
 7181              	.L711:
 7182 00cc 00000000 		.word	gpfal_dispatch
 7183 00d0 00000000 		.word	gcal_inited
 7184 00d4 00000000 		.word	gpSwitchUnit
 7185 00d8 00000000 		.word	yt_debug_level
 7186 00dc 00000000 		.word	_yt_errmsg
 7187 00e0 00000000 		.word	_yt_prompt_msg
 7188 00e4 00000000 		.word	.LC0
 7189              	.LBE142:
 7190              		.cfi_endproc
 7191              	.LFE31:
 7193              		.section	.text.yt_port_phy_reg_get,"ax",%progbits
 7194              		.align	1
 7195              		.global	yt_port_phy_reg_get
 7196              		.syntax unified
 7197              		.thumb
 7198              		.thumb_func
 7200              	yt_port_phy_reg_get:
 7201              	.LVL982:
 7202              	.LFB32:
 690:../Switch/core/yt/yt_port.c **** 
 691:../Switch/core/yt/yt_port.c **** /**
 692:../Switch/core/yt/yt_port.c ****  * @internal      yt_port_phy_reg_get
 693:../Switch/core/yt/yt_port.c ****  * @endinternal
 694:../Switch/core/yt/yt_port.c ****  *
 695:../Switch/core/yt/yt_port.c ****  * @brief         Description
 696:../Switch/core/yt/yt_port.c ****  * @note          APPLICABLE DEVICES  -Tiger
 697:../Switch/core/yt/yt_port.c ****  * @param[in]     unit                -unit id
 698:../Switch/core/yt/yt_port.c ****  * @param[in]     port                -port num
 699:../Switch/core/yt/yt_port.c ****  * @param[in]     regAddr             -x
 700:../Switch/core/yt/yt_port.c ****  * @param[out]    pData               -x
 701:../Switch/core/yt/yt_port.c ****  * @param[in]     type                -phy type, internal or external phy
 702:../Switch/core/yt/yt_port.c ****  * @retval        CMM_ERR_OK          -on success
 703:../Switch/core/yt/yt_port.c ****  * @retval        CMM_ERR_FAIL        -on fail
 704:../Switch/core/yt/yt_port.c ****  */
 705:../Switch/core/yt/yt_port.c **** yt_ret_t yt_port_phy_reg_get(yt_unit_t unit, yt_port_t port, uint32_t regAddr, uint16_t *pData, yt_
 706:../Switch/core/yt/yt_port.c **** {
 7203              		.loc 1 706 1 is_stmt 1 view -0
 7204              		.cfi_startproc
 7205              		@ args = 4, pretend = 0, frame = 0
 7206              		@ frame_needed = 0, uses_anonymous_args = 0
 7207              		.loc 1 706 1 is_stmt 0 view .LVU2065
 7208 0000 30B5     		push	{r4, r5, lr}
 7209              		.cfi_def_cfa_offset 12
 7210              		.cfi_offset 4, -12
 7211              		.cfi_offset 5, -8
 7212              		.cfi_offset 14, -4
 7213 0002 83B0     		sub	sp, sp, #12
 7214              		.cfi_def_cfa_offset 24
 7215 0004 9DF81850 		ldrb	r5, [sp, #24]	@ zero_extendqisi2
 707:../Switch/core/yt/yt_port.c ****     CMM_PARAM_CHK((YT_UNIT_NUM <= unit), CMM_ERR_INPUT);
 7216              		.loc 1 707 5 is_stmt 1 view .LVU2066
 7217              		.loc 1 707 5 view .LVU2067
 7218 0008 D8B9     		cbnz	r0, .L729
 7219 000a 8446     		mov	ip, r0
 7220              		.loc 1 707 5 discriminator 2 view .LVU2068
 708:../Switch/core/yt/yt_port.c ****     CMM_PARAM_CHK(NULL == YT_DISPATCH(unit), CMM_ERR_NOT_INIT);
 7221              		.loc 1 708 5 discriminator 2 view .LVU2069
 7222              		.loc 1 708 5 discriminator 2 view .LVU2070
 7223 000c 3748     		ldr	r0, .L740
 7224              	.LVL983:
 7225              		.loc 1 708 5 is_stmt 0 discriminator 2 view .LVU2071
 7226 000e 50F82C40 		ldr	r4, [r0, ip, lsl #2]
 7227 0012 2CB3     		cbz	r4, .L730
 7228              		.loc 1 708 5 is_stmt 1 discriminator 2 view .LVU2072
 709:../Switch/core/yt/yt_port.c ****     CMM_PARAM_CHK((!(YT_DISPATCH(unit)->is_inited)), CMM_ERR_NOT_INIT);
 7229              		.loc 1 709 5 discriminator 2 view .LVU2073
 7230              		.loc 1 709 5 discriminator 2 view .LVU2074
 7231 0014 2078     		ldrb	r0, [r4]	@ zero_extendqisi2
 7232 0016 0028     		cmp	r0, #0
 7233 0018 30D0     		beq	.L731
 7234              		.loc 1 709 5 discriminator 2 view .LVU2075
 710:../Switch/core/yt/yt_port.c ****     CMM_PARAM_CHK((!(CMM_PORT_VALID(unit, port))), CMM_ERR_PORT);
 7235              		.loc 1 710 5 discriminator 2 view .LVU2076
 7236              		.loc 1 710 5 discriminator 2 view .LVU2077
 7237 001a 3548     		ldr	r0, .L740+4
 7238 001c 0078     		ldrb	r0, [r0]	@ zero_extendqisi2
 7239 001e 0028     		cmp	r0, #0
 7240 0020 3AD0     		beq	.L721
 7241 0022 3448     		ldr	r0, .L740+8
 7242 0024 50F82C00 		ldr	r0, [r0, ip, lsl #2]
 7243 0028 007D     		ldrb	r0, [r0, #20]	@ zero_extendqisi2
 7244 002a 8842     		cmp	r0, r1
 7245 002c 34D9     		bls	.L721
 7246              		.loc 1 710 5 discriminator 4 view .LVU2078
 711:../Switch/core/yt/yt_port.c ****     CMM_PARAM_CHK((NULL == pData), CMM_ERR_NULL_POINT);
 7247              		.loc 1 711 5 discriminator 4 view .LVU2079
 7248              		.loc 1 711 5 discriminator 4 view .LVU2080
 7249 002e 002B     		cmp	r3, #0
 7250 0030 40D0     		beq	.L732
 7251              		.loc 1 711 5 discriminator 2 view .LVU2081
 712:../Switch/core/yt/yt_port.c ****     CMM_PARAM_CHK((PHY_EXTERNAL < type || PHY_INTERNAL > type), CMM_ERR_INPUT);
 7252              		.loc 1 712 5 discriminator 2 view .LVU2082
 7253              		.loc 1 712 5 discriminator 2 view .LVU2083
 7254 0032 012D     		cmp	r5, #1
 7255 0034 4CD8     		bhi	.L733
 7256              		.loc 1 712 5 discriminator 2 view .LVU2084
 713:../Switch/core/yt/yt_port.c **** 
 714:../Switch/core/yt/yt_port.c ****     return YT_DISPATCH(unit)->port_phy_reg_get(unit, port, regAddr, pData, type);
 7257              		.loc 1 714 5 discriminator 2 view .LVU2085
 7258              		.loc 1 714 29 is_stmt 0 discriminator 2 view .LVU2086
 7259 0036 D4F8CC45 		ldr	r4, [r4, #1484]
 7260              		.loc 1 714 12 discriminator 2 view .LVU2087
 7261 003a 0095     		str	r5, [sp]
 7262 003c 6046     		mov	r0, ip
 7263 003e A047     		blx	r4
 7264              	.LVL984:
 7265              		.loc 1 714 12 discriminator 2 view .LVU2088
 7266 0040 04E0     		b	.L713
 7267              	.LVL985:
 7268              	.L729:
 707:../Switch/core/yt/yt_port.c ****     CMM_PARAM_CHK(NULL == YT_DISPATCH(unit), CMM_ERR_NOT_INIT);
 7269              		.loc 1 707 5 is_stmt 1 discriminator 1 view .LVU2089
 707:../Switch/core/yt/yt_port.c ****     CMM_PARAM_CHK(NULL == YT_DISPATCH(unit), CMM_ERR_NOT_INIT);
 7270              		.loc 1 707 5 discriminator 1 view .LVU2090
 7271 0042 2D4B     		ldr	r3, .L740+12
 7272              	.LVL986:
 707:../Switch/core/yt/yt_port.c ****     CMM_PARAM_CHK(NULL == YT_DISPATCH(unit), CMM_ERR_NOT_INIT);
 7273              		.loc 1 707 5 is_stmt 0 discriminator 1 view .LVU2091
 7274 0044 1B78     		ldrb	r3, [r3]	@ zero_extendqisi2
 7275 0046 012B     		cmp	r3, #1
 7276 0048 02D8     		bhi	.L734
 7277              	.LVL987:
 7278              	.L715:
 707:../Switch/core/yt/yt_port.c ****     CMM_PARAM_CHK(NULL == YT_DISPATCH(unit), CMM_ERR_NOT_INIT);
 7279              		.loc 1 707 5 is_stmt 1 discriminator 5 view .LVU2092
 707:../Switch/core/yt/yt_port.c ****     CMM_PARAM_CHK(NULL == YT_DISPATCH(unit), CMM_ERR_NOT_INIT);
 7280              		.loc 1 707 5 discriminator 5 view .LVU2093
 707:../Switch/core/yt/yt_port.c ****     CMM_PARAM_CHK(NULL == YT_DISPATCH(unit), CMM_ERR_NOT_INIT);
 7281              		.loc 1 707 5 discriminator 5 view .LVU2094
 7282 004a 0520     		movs	r0, #5
 7283              	.L713:
 715:../Switch/core/yt/yt_port.c **** }
 7284              		.loc 1 715 1 is_stmt 0 view .LVU2095
 7285 004c 03B0     		add	sp, sp, #12
 7286              		.cfi_remember_state
 7287              		.cfi_def_cfa_offset 12
 7288              		@ sp needed
 7289 004e 30BD     		pop	{r4, r5, pc}
 7290              	.LVL988:
 7291              	.L734:
 7292              		.cfi_restore_state
 707:../Switch/core/yt/yt_port.c ****     CMM_PARAM_CHK(NULL == YT_DISPATCH(unit), CMM_ERR_NOT_INIT);
 7293              		.loc 1 707 5 is_stmt 1 discriminator 3 view .LVU2096
 7294              	.LBB143:
 707:../Switch/core/yt/yt_port.c ****     CMM_PARAM_CHK(NULL == YT_DISPATCH(unit), CMM_ERR_NOT_INIT);
 7295              		.loc 1 707 5 discriminator 3 view .LVU2097
 7296 0050 2A4B     		ldr	r3, .L740+16
 7297 0052 5A69     		ldr	r2, [r3, #20]
 7298              	.LVL989:
 707:../Switch/core/yt/yt_port.c ****     CMM_PARAM_CHK(NULL == YT_DISPATCH(unit), CMM_ERR_NOT_INIT);
 7299              		.loc 1 707 5 is_stmt 0 discriminator 3 view .LVU2098
 7300 0054 2A4B     		ldr	r3, .L740+20
 7301 0056 9968     		ldr	r1, [r3, #8]
 7302              	.LVL990:
 707:../Switch/core/yt/yt_port.c ****     CMM_PARAM_CHK(NULL == YT_DISPATCH(unit), CMM_ERR_NOT_INIT);
 7303              		.loc 1 707 5 discriminator 3 view .LVU2099
 7304 0058 2A48     		ldr	r0, .L740+24
 7305              	.LVL991:
 707:../Switch/core/yt/yt_port.c ****     CMM_PARAM_CHK(NULL == YT_DISPATCH(unit), CMM_ERR_NOT_INIT);
 7306              		.loc 1 707 5 discriminator 3 view .LVU2100
 7307 005a FFF7FEFF 		bl	osal_printf
 7308              	.LVL992:
 7309 005e F4E7     		b	.L715
 7310              	.LVL993:
 7311              	.L730:
 707:../Switch/core/yt/yt_port.c ****     CMM_PARAM_CHK(NULL == YT_DISPATCH(unit), CMM_ERR_NOT_INIT);
 7312              		.loc 1 707 5 discriminator 3 view .LVU2101
 7313              	.LBE143:
 708:../Switch/core/yt/yt_port.c ****     CMM_PARAM_CHK((!(YT_DISPATCH(unit)->is_inited)), CMM_ERR_NOT_INIT);
 7314              		.loc 1 708 5 is_stmt 1 discriminator 1 view .LVU2102
 708:../Switch/core/yt/yt_port.c ****     CMM_PARAM_CHK((!(YT_DISPATCH(unit)->is_inited)), CMM_ERR_NOT_INIT);
 7315              		.loc 1 708 5 discriminator 1 view .LVU2103
 7316 0060 254B     		ldr	r3, .L740+12
 7317              	.LVL994:
 708:../Switch/core/yt/yt_port.c ****     CMM_PARAM_CHK((!(YT_DISPATCH(unit)->is_inited)), CMM_ERR_NOT_INIT);
 7318              		.loc 1 708 5 is_stmt 0 discriminator 1 view .LVU2104
 7319 0062 1B78     		ldrb	r3, [r3]	@ zero_extendqisi2
 7320 0064 012B     		cmp	r3, #1
 7321 0066 01D8     		bhi	.L735
 7322              	.LVL995:
 7323              	.L718:
 708:../Switch/core/yt/yt_port.c ****     CMM_PARAM_CHK((!(YT_DISPATCH(unit)->is_inited)), CMM_ERR_NOT_INIT);
 7324              		.loc 1 708 5 is_stmt 1 discriminator 5 view .LVU2105
 708:../Switch/core/yt/yt_port.c ****     CMM_PARAM_CHK((!(YT_DISPATCH(unit)->is_inited)), CMM_ERR_NOT_INIT);
 7325              		.loc 1 708 5 discriminator 5 view .LVU2106
 708:../Switch/core/yt/yt_port.c ****     CMM_PARAM_CHK((!(YT_DISPATCH(unit)->is_inited)), CMM_ERR_NOT_INIT);
 7326              		.loc 1 708 5 discriminator 5 view .LVU2107
 7327 0068 0420     		movs	r0, #4
 7328 006a EFE7     		b	.L713
 7329              	.LVL996:
 7330              	.L735:
 708:../Switch/core/yt/yt_port.c ****     CMM_PARAM_CHK((!(YT_DISPATCH(unit)->is_inited)), CMM_ERR_NOT_INIT);
 7331              		.loc 1 708 5 discriminator 3 view .LVU2108
 7332              	.LBB144:
 708:../Switch/core/yt/yt_port.c ****     CMM_PARAM_CHK((!(YT_DISPATCH(unit)->is_inited)), CMM_ERR_NOT_INIT);
 7333              		.loc 1 708 5 discriminator 3 view .LVU2109
 7334 006c 234B     		ldr	r3, .L740+16
 7335 006e 1A69     		ldr	r2, [r3, #16]
 7336              	.LVL997:
 708:../Switch/core/yt/yt_port.c ****     CMM_PARAM_CHK((!(YT_DISPATCH(unit)->is_inited)), CMM_ERR_NOT_INIT);
 7337              		.loc 1 708 5 is_stmt 0 discriminator 3 view .LVU2110
 7338 0070 234B     		ldr	r3, .L740+20
 7339 0072 9968     		ldr	r1, [r3, #8]
 7340              	.LVL998:
 708:../Switch/core/yt/yt_port.c ****     CMM_PARAM_CHK((!(YT_DISPATCH(unit)->is_inited)), CMM_ERR_NOT_INIT);
 7341              		.loc 1 708 5 discriminator 3 view .LVU2111
 7342 0074 2348     		ldr	r0, .L740+24
 7343 0076 FFF7FEFF 		bl	osal_printf
 7344              	.LVL999:
 7345 007a F5E7     		b	.L718
 7346              	.LVL1000:
 7347              	.L731:
 708:../Switch/core/yt/yt_port.c ****     CMM_PARAM_CHK((!(YT_DISPATCH(unit)->is_inited)), CMM_ERR_NOT_INIT);
 7348              		.loc 1 708 5 discriminator 3 view .LVU2112
 7349              	.LBE144:
 709:../Switch/core/yt/yt_port.c ****     CMM_PARAM_CHK((!(CMM_PORT_VALID(unit, port))), CMM_ERR_PORT);
 7350              		.loc 1 709 5 is_stmt 1 discriminator 1 view .LVU2113
 709:../Switch/core/yt/yt_port.c ****     CMM_PARAM_CHK((!(CMM_PORT_VALID(unit, port))), CMM_ERR_PORT);
 7351              		.loc 1 709 5 discriminator 1 view .LVU2114
 7352 007c 1E4B     		ldr	r3, .L740+12
 7353              	.LVL1001:
 709:../Switch/core/yt/yt_port.c ****     CMM_PARAM_CHK((!(CMM_PORT_VALID(unit, port))), CMM_ERR_PORT);
 7354              		.loc 1 709 5 is_stmt 0 discriminator 1 view .LVU2115
 7355 007e 1B78     		ldrb	r3, [r3]	@ zero_extendqisi2
 7356 0080 012B     		cmp	r3, #1
 7357 0082 01D8     		bhi	.L736
 7358              	.LVL1002:
 7359              	.L720:
 709:../Switch/core/yt/yt_port.c ****     CMM_PARAM_CHK((!(CMM_PORT_VALID(unit, port))), CMM_ERR_PORT);
 7360              		.loc 1 709 5 is_stmt 1 discriminator 5 view .LVU2116
 709:../Switch/core/yt/yt_port.c ****     CMM_PARAM_CHK((!(CMM_PORT_VALID(unit, port))), CMM_ERR_PORT);
 7361              		.loc 1 709 5 discriminator 5 view .LVU2117
 709:../Switch/core/yt/yt_port.c ****     CMM_PARAM_CHK((!(CMM_PORT_VALID(unit, port))), CMM_ERR_PORT);
 7362              		.loc 1 709 5 discriminator 5 view .LVU2118
 7363 0084 0420     		movs	r0, #4
 7364 0086 E1E7     		b	.L713
 7365              	.LVL1003:
 7366              	.L736:
 709:../Switch/core/yt/yt_port.c ****     CMM_PARAM_CHK((!(CMM_PORT_VALID(unit, port))), CMM_ERR_PORT);
 7367              		.loc 1 709 5 discriminator 3 view .LVU2119
 7368              	.LBB145:
 709:../Switch/core/yt/yt_port.c ****     CMM_PARAM_CHK((!(CMM_PORT_VALID(unit, port))), CMM_ERR_PORT);
 7369              		.loc 1 709 5 discriminator 3 view .LVU2120
 7370 0088 1C4B     		ldr	r3, .L740+16
 7371 008a 1A69     		ldr	r2, [r3, #16]
 7372              	.LVL1004:
 709:../Switch/core/yt/yt_port.c ****     CMM_PARAM_CHK((!(CMM_PORT_VALID(unit, port))), CMM_ERR_PORT);
 7373              		.loc 1 709 5 is_stmt 0 discriminator 3 view .LVU2121
 7374 008c 1C4B     		ldr	r3, .L740+20
 7375 008e 9968     		ldr	r1, [r3, #8]
 7376              	.LVL1005:
 709:../Switch/core/yt/yt_port.c ****     CMM_PARAM_CHK((!(CMM_PORT_VALID(unit, port))), CMM_ERR_PORT);
 7377              		.loc 1 709 5 discriminator 3 view .LVU2122
 7378 0090 1C48     		ldr	r0, .L740+24
 7379 0092 FFF7FEFF 		bl	osal_printf
 7380              	.LVL1006:
 7381 0096 F5E7     		b	.L720
 7382              	.LVL1007:
 7383              	.L721:
 709:../Switch/core/yt/yt_port.c ****     CMM_PARAM_CHK((!(CMM_PORT_VALID(unit, port))), CMM_ERR_PORT);
 7384              		.loc 1 709 5 discriminator 3 view .LVU2123
 7385              	.LBE145:
 710:../Switch/core/yt/yt_port.c ****     CMM_PARAM_CHK((NULL == pData), CMM_ERR_NULL_POINT);
 7386              		.loc 1 710 5 is_stmt 1 discriminator 3 view .LVU2124
 710:../Switch/core/yt/yt_port.c ****     CMM_PARAM_CHK((NULL == pData), CMM_ERR_NULL_POINT);
 7387              		.loc 1 710 5 discriminator 3 view .LVU2125
 7388 0098 174B     		ldr	r3, .L740+12
 7389              	.LVL1008:
 710:../Switch/core/yt/yt_port.c ****     CMM_PARAM_CHK((NULL == pData), CMM_ERR_NULL_POINT);
 7390              		.loc 1 710 5 is_stmt 0 discriminator 3 view .LVU2126
 7391 009a 1B78     		ldrb	r3, [r3]	@ zero_extendqisi2
 7392 009c 012B     		cmp	r3, #1
 7393 009e 01D8     		bhi	.L737
 7394              	.LVL1009:
 7395              	.L723:
 710:../Switch/core/yt/yt_port.c ****     CMM_PARAM_CHK((NULL == pData), CMM_ERR_NULL_POINT);
 7396              		.loc 1 710 5 is_stmt 1 discriminator 7 view .LVU2127
 710:../Switch/core/yt/yt_port.c ****     CMM_PARAM_CHK((NULL == pData), CMM_ERR_NULL_POINT);
 7397              		.loc 1 710 5 discriminator 7 view .LVU2128
 710:../Switch/core/yt/yt_port.c ****     CMM_PARAM_CHK((NULL == pData), CMM_ERR_NULL_POINT);
 7398              		.loc 1 710 5 discriminator 7 view .LVU2129
 7399 00a0 0E20     		movs	r0, #14
 7400 00a2 D3E7     		b	.L713
 7401              	.LVL1010:
 7402              	.L737:
 710:../Switch/core/yt/yt_port.c ****     CMM_PARAM_CHK((NULL == pData), CMM_ERR_NULL_POINT);
 7403              		.loc 1 710 5 discriminator 5 view .LVU2130
 7404              	.LBB146:
 710:../Switch/core/yt/yt_port.c ****     CMM_PARAM_CHK((NULL == pData), CMM_ERR_NULL_POINT);
 7405              		.loc 1 710 5 discriminator 5 view .LVU2131
 7406 00a4 154B     		ldr	r3, .L740+16
 7407 00a6 9A6B     		ldr	r2, [r3, #56]
 7408              	.LVL1011:
 710:../Switch/core/yt/yt_port.c ****     CMM_PARAM_CHK((NULL == pData), CMM_ERR_NULL_POINT);
 7409              		.loc 1 710 5 is_stmt 0 discriminator 5 view .LVU2132
 7410 00a8 154B     		ldr	r3, .L740+20
 7411 00aa 9968     		ldr	r1, [r3, #8]
 7412              	.LVL1012:
 710:../Switch/core/yt/yt_port.c ****     CMM_PARAM_CHK((NULL == pData), CMM_ERR_NULL_POINT);
 7413              		.loc 1 710 5 discriminator 5 view .LVU2133
 7414 00ac 1548     		ldr	r0, .L740+24
 7415 00ae FFF7FEFF 		bl	osal_printf
 7416              	.LVL1013:
 7417 00b2 F5E7     		b	.L723
 7418              	.LVL1014:
 7419              	.L732:
 710:../Switch/core/yt/yt_port.c ****     CMM_PARAM_CHK((NULL == pData), CMM_ERR_NULL_POINT);
 7420              		.loc 1 710 5 discriminator 5 view .LVU2134
 7421              	.LBE146:
 711:../Switch/core/yt/yt_port.c ****     CMM_PARAM_CHK((PHY_EXTERNAL < type || PHY_INTERNAL > type), CMM_ERR_INPUT);
 7422              		.loc 1 711 5 is_stmt 1 discriminator 1 view .LVU2135
 711:../Switch/core/yt/yt_port.c ****     CMM_PARAM_CHK((PHY_EXTERNAL < type || PHY_INTERNAL > type), CMM_ERR_INPUT);
 7423              		.loc 1 711 5 discriminator 1 view .LVU2136
 7424 00b4 104B     		ldr	r3, .L740+12
 7425              	.LVL1015:
 711:../Switch/core/yt/yt_port.c ****     CMM_PARAM_CHK((PHY_EXTERNAL < type || PHY_INTERNAL > type), CMM_ERR_INPUT);
 7426              		.loc 1 711 5 is_stmt 0 discriminator 1 view .LVU2137
 7427 00b6 1B78     		ldrb	r3, [r3]	@ zero_extendqisi2
 7428 00b8 012B     		cmp	r3, #1
 7429 00ba 01D8     		bhi	.L738
 7430              	.LVL1016:
 7431              	.L725:
 711:../Switch/core/yt/yt_port.c ****     CMM_PARAM_CHK((PHY_EXTERNAL < type || PHY_INTERNAL > type), CMM_ERR_INPUT);
 7432              		.loc 1 711 5 is_stmt 1 discriminator 5 view .LVU2138
 711:../Switch/core/yt/yt_port.c ****     CMM_PARAM_CHK((PHY_EXTERNAL < type || PHY_INTERNAL > type), CMM_ERR_INPUT);
 7433              		.loc 1 711 5 discriminator 5 view .LVU2139
 711:../Switch/core/yt/yt_port.c ****     CMM_PARAM_CHK((PHY_EXTERNAL < type || PHY_INTERNAL > type), CMM_ERR_INPUT);
 7434              		.loc 1 711 5 discriminator 5 view .LVU2140
 7435 00bc 0220     		movs	r0, #2
 7436 00be C5E7     		b	.L713
 7437              	.LVL1017:
 7438              	.L738:
 711:../Switch/core/yt/yt_port.c ****     CMM_PARAM_CHK((PHY_EXTERNAL < type || PHY_INTERNAL > type), CMM_ERR_INPUT);
 7439              		.loc 1 711 5 discriminator 3 view .LVU2141
 7440              	.LBB147:
 711:../Switch/core/yt/yt_port.c ****     CMM_PARAM_CHK((PHY_EXTERNAL < type || PHY_INTERNAL > type), CMM_ERR_INPUT);
 7441              		.loc 1 711 5 discriminator 3 view .LVU2142
 7442 00c0 0E4B     		ldr	r3, .L740+16
 7443 00c2 9A68     		ldr	r2, [r3, #8]
 7444              	.LVL1018:
 711:../Switch/core/yt/yt_port.c ****     CMM_PARAM_CHK((PHY_EXTERNAL < type || PHY_INTERNAL > type), CMM_ERR_INPUT);
 7445              		.loc 1 711 5 is_stmt 0 discriminator 3 view .LVU2143
 7446 00c4 0E4B     		ldr	r3, .L740+20
 7447 00c6 9968     		ldr	r1, [r3, #8]
 7448              	.LVL1019:
 711:../Switch/core/yt/yt_port.c ****     CMM_PARAM_CHK((PHY_EXTERNAL < type || PHY_INTERNAL > type), CMM_ERR_INPUT);
 7449              		.loc 1 711 5 discriminator 3 view .LVU2144
 7450 00c8 0E48     		ldr	r0, .L740+24
 7451 00ca FFF7FEFF 		bl	osal_printf
 7452              	.LVL1020:
 7453 00ce F5E7     		b	.L725
 7454              	.LVL1021:
 7455              	.L733:
 711:../Switch/core/yt/yt_port.c ****     CMM_PARAM_CHK((PHY_EXTERNAL < type || PHY_INTERNAL > type), CMM_ERR_INPUT);
 7456              		.loc 1 711 5 discriminator 3 view .LVU2145
 7457              	.LBE147:
 712:../Switch/core/yt/yt_port.c **** 
 7458              		.loc 1 712 5 is_stmt 1 discriminator 1 view .LVU2146
 712:../Switch/core/yt/yt_port.c **** 
 7459              		.loc 1 712 5 discriminator 1 view .LVU2147
 7460 00d0 094B     		ldr	r3, .L740+12
 7461              	.LVL1022:
 712:../Switch/core/yt/yt_port.c **** 
 7462              		.loc 1 712 5 is_stmt 0 discriminator 1 view .LVU2148
 7463 00d2 1B78     		ldrb	r3, [r3]	@ zero_extendqisi2
 7464 00d4 012B     		cmp	r3, #1
 7465 00d6 01D8     		bhi	.L739
 7466              	.LVL1023:
 7467              	.L727:
 712:../Switch/core/yt/yt_port.c **** 
 7468              		.loc 1 712 5 is_stmt 1 discriminator 5 view .LVU2149
 712:../Switch/core/yt/yt_port.c **** 
 7469              		.loc 1 712 5 discriminator 5 view .LVU2150
 712:../Switch/core/yt/yt_port.c **** 
 7470              		.loc 1 712 5 discriminator 5 view .LVU2151
 7471 00d8 0520     		movs	r0, #5
 7472 00da B7E7     		b	.L713
 7473              	.LVL1024:
 7474              	.L739:
 712:../Switch/core/yt/yt_port.c **** 
 7475              		.loc 1 712 5 discriminator 3 view .LVU2152
 7476              	.LBB148:
 712:../Switch/core/yt/yt_port.c **** 
 7477              		.loc 1 712 5 discriminator 3 view .LVU2153
 7478 00dc 074B     		ldr	r3, .L740+16
 7479 00de 5A69     		ldr	r2, [r3, #20]
 7480              	.LVL1025:
 712:../Switch/core/yt/yt_port.c **** 
 7481              		.loc 1 712 5 is_stmt 0 discriminator 3 view .LVU2154
 7482 00e0 074B     		ldr	r3, .L740+20
 7483 00e2 9968     		ldr	r1, [r3, #8]
 7484              	.LVL1026:
 712:../Switch/core/yt/yt_port.c **** 
 7485              		.loc 1 712 5 discriminator 3 view .LVU2155
 7486 00e4 0748     		ldr	r0, .L740+24
 7487 00e6 FFF7FEFF 		bl	osal_printf
 7488              	.LVL1027:
 7489 00ea F5E7     		b	.L727
 7490              	.L741:
 7491              		.align	2
 7492              	.L740:
 7493 00ec 00000000 		.word	gpfal_dispatch
 7494 00f0 00000000 		.word	gcal_inited
 7495 00f4 00000000 		.word	gpSwitchUnit
 7496 00f8 00000000 		.word	yt_debug_level
 7497 00fc 00000000 		.word	_yt_errmsg
 7498 0100 00000000 		.word	_yt_prompt_msg
 7499 0104 00000000 		.word	.LC0
 7500              	.LBE148:
 7501              		.cfi_endproc
 7502              	.LFE32:
 7504              		.section	.text.yt_port_eee_enable_set,"ax",%progbits
 7505              		.align	1
 7506              		.global	yt_port_eee_enable_set
 7507              		.syntax unified
 7508              		.thumb
 7509              		.thumb_func
 7511              	yt_port_eee_enable_set:
 7512              	.LVL1028:
 7513              	.LFB33:
 716:../Switch/core/yt/yt_port.c **** /**
 717:../Switch/core/yt/yt_port.c ****  * @internal      yt_port_eee_enable_set
 718:../Switch/core/yt/yt_port.c ****  * @endinternal
 719:../Switch/core/yt/yt_port.c ****  *
 720:../Switch/core/yt/yt_port.c ****  * @brief         Description
 721:../Switch/core/yt/yt_port.c ****  * @note          APPLICABLE DEVICES  -Tiger
 722:../Switch/core/yt/yt_port.c ****  * @param[in]     unit                -unit id
 723:../Switch/core/yt/yt_port.c ****  * @param[in]     port                -port num
 724:../Switch/core/yt/yt_port.c ****  * @param[in]     enable              -enable or disable
 725:../Switch/core/yt/yt_port.c ****  * @retval        CMM_ERR_OK          -on success
 726:../Switch/core/yt/yt_port.c ****  * @retval        CMM_ERR_FAIL        -on fail
 727:../Switch/core/yt/yt_port.c ****  */
 728:../Switch/core/yt/yt_port.c **** yt_ret_t yt_port_eee_enable_set(yt_unit_t unit, yt_port_t port, yt_enable_t enable)
 729:../Switch/core/yt/yt_port.c **** {
 7514              		.loc 1 729 1 is_stmt 1 view -0
 7515              		.cfi_startproc
 7516              		@ args = 0, pretend = 0, frame = 0
 7517              		@ frame_needed = 0, uses_anonymous_args = 0
 7518              		.loc 1 729 1 is_stmt 0 view .LVU2157
 7519 0000 08B5     		push	{r3, lr}
 7520              		.cfi_def_cfa_offset 8
 7521              		.cfi_offset 3, -8
 7522              		.cfi_offset 14, -4
 730:../Switch/core/yt/yt_port.c ****     CMM_PARAM_CHK((YT_UNIT_NUM <= unit), CMM_ERR_INPUT);
 7523              		.loc 1 730 5 is_stmt 1 view .LVU2158
 7524              		.loc 1 730 5 view .LVU2159
 7525 0002 C0B9     		cbnz	r0, .L756
 7526 0004 8446     		mov	ip, r0
 7527              		.loc 1 730 5 discriminator 2 view .LVU2160
 731:../Switch/core/yt/yt_port.c ****     CMM_PARAM_CHK(NULL == YT_DISPATCH(unit), CMM_ERR_NOT_INIT);
 7528              		.loc 1 731 5 discriminator 2 view .LVU2161
 7529              		.loc 1 731 5 discriminator 2 view .LVU2162
 7530 0006 2F4B     		ldr	r3, .L765
 7531 0008 53F82030 		ldr	r3, [r3, r0, lsl #2]
 7532 000c 0BB3     		cbz	r3, .L757
 7533              		.loc 1 731 5 discriminator 2 view .LVU2163
 732:../Switch/core/yt/yt_port.c ****     CMM_PARAM_CHK((!(YT_DISPATCH(unit)->is_inited)), CMM_ERR_NOT_INIT);
 7534              		.loc 1 732 5 discriminator 2 view .LVU2164
 7535              		.loc 1 732 5 discriminator 2 view .LVU2165
 7536 000e 1878     		ldrb	r0, [r3]	@ zero_extendqisi2
 7537              	.LVL1029:
 7538              		.loc 1 732 5 is_stmt 0 discriminator 2 view .LVU2166
 7539 0010 0028     		cmp	r0, #0
 7540 0012 2CD0     		beq	.L758
 7541              		.loc 1 732 5 is_stmt 1 discriminator 2 view .LVU2167
 733:../Switch/core/yt/yt_port.c ****     CMM_PARAM_CHK((!(CMM_PORT_VALID(unit, port))), CMM_ERR_PORT);
 7542              		.loc 1 733 5 discriminator 2 view .LVU2168
 7543              		.loc 1 733 5 discriminator 2 view .LVU2169
 7544 0014 2C48     		ldr	r0, .L765+4
 7545 0016 0078     		ldrb	r0, [r0]	@ zero_extendqisi2
 7546 0018 0028     		cmp	r0, #0
 7547 001a 36D0     		beq	.L750
 7548 001c 2B48     		ldr	r0, .L765+8
 7549 001e 50F82C00 		ldr	r0, [r0, ip, lsl #2]
 7550 0022 007D     		ldrb	r0, [r0, #20]	@ zero_extendqisi2
 7551 0024 8842     		cmp	r0, r1
 7552 0026 30D9     		bls	.L750
 7553              		.loc 1 733 5 discriminator 4 view .LVU2170
 734:../Switch/core/yt/yt_port.c ****     CMM_PARAM_CHK((YT_ENABLE < enable || YT_DISABLE > enable), CMM_ERR_INPUT);
 7554              		.loc 1 734 5 discriminator 4 view .LVU2171
 7555              		.loc 1 734 5 discriminator 4 view .LVU2172
 7556 0028 012A     		cmp	r2, #1
 7557 002a 3CD8     		bhi	.L759
 7558              		.loc 1 734 5 discriminator 2 view .LVU2173
 735:../Switch/core/yt/yt_port.c **** 
 736:../Switch/core/yt/yt_port.c ****     return YT_DISPATCH(unit)->port_eee_enable_set(unit, port, enable);
 7559              		.loc 1 736 5 discriminator 2 view .LVU2174
 7560              		.loc 1 736 29 is_stmt 0 discriminator 2 view .LVU2175
 7561 002c D3F8D035 		ldr	r3, [r3, #1488]
 7562              		.loc 1 736 12 discriminator 2 view .LVU2176
 7563 0030 6046     		mov	r0, ip
 7564 0032 9847     		blx	r3
 7565              	.LVL1030:
 7566              	.L742:
 737:../Switch/core/yt/yt_port.c **** }
 7567              		.loc 1 737 1 view .LVU2177
 7568 0034 08BD     		pop	{r3, pc}
 7569              	.LVL1031:
 7570              	.L756:
 730:../Switch/core/yt/yt_port.c ****     CMM_PARAM_CHK(NULL == YT_DISPATCH(unit), CMM_ERR_NOT_INIT);
 7571              		.loc 1 730 5 is_stmt 1 discriminator 1 view .LVU2178
 730:../Switch/core/yt/yt_port.c ****     CMM_PARAM_CHK(NULL == YT_DISPATCH(unit), CMM_ERR_NOT_INIT);
 7572              		.loc 1 730 5 discriminator 1 view .LVU2179
 7573 0036 264B     		ldr	r3, .L765+12
 7574 0038 1B78     		ldrb	r3, [r3]	@ zero_extendqisi2
 7575 003a 012B     		cmp	r3, #1
 7576 003c 01D8     		bhi	.L760
 7577              	.LVL1032:
 7578              	.L744:
 730:../Switch/core/yt/yt_port.c ****     CMM_PARAM_CHK(NULL == YT_DISPATCH(unit), CMM_ERR_NOT_INIT);
 7579              		.loc 1 730 5 discriminator 5 view .LVU2180
 730:../Switch/core/yt/yt_port.c ****     CMM_PARAM_CHK(NULL == YT_DISPATCH(unit), CMM_ERR_NOT_INIT);
 7580              		.loc 1 730 5 discriminator 5 view .LVU2181
 730:../Switch/core/yt/yt_port.c ****     CMM_PARAM_CHK(NULL == YT_DISPATCH(unit), CMM_ERR_NOT_INIT);
 7581              		.loc 1 730 5 discriminator 5 view .LVU2182
 7582 003e 0520     		movs	r0, #5
 7583 0040 F8E7     		b	.L742
 7584              	.LVL1033:
 7585              	.L760:
 730:../Switch/core/yt/yt_port.c ****     CMM_PARAM_CHK(NULL == YT_DISPATCH(unit), CMM_ERR_NOT_INIT);
 7586              		.loc 1 730 5 discriminator 3 view .LVU2183
 7587              	.LBB149:
 730:../Switch/core/yt/yt_port.c ****     CMM_PARAM_CHK(NULL == YT_DISPATCH(unit), CMM_ERR_NOT_INIT);
 7588              		.loc 1 730 5 discriminator 3 view .LVU2184
 7589 0042 244B     		ldr	r3, .L765+16
 7590 0044 5A69     		ldr	r2, [r3, #20]
 7591              	.LVL1034:
 730:../Switch/core/yt/yt_port.c ****     CMM_PARAM_CHK(NULL == YT_DISPATCH(unit), CMM_ERR_NOT_INIT);
 7592              		.loc 1 730 5 is_stmt 0 discriminator 3 view .LVU2185
 7593 0046 244B     		ldr	r3, .L765+20
 7594 0048 9968     		ldr	r1, [r3, #8]
 7595              	.LVL1035:
 730:../Switch/core/yt/yt_port.c ****     CMM_PARAM_CHK(NULL == YT_DISPATCH(unit), CMM_ERR_NOT_INIT);
 7596              		.loc 1 730 5 discriminator 3 view .LVU2186
 7597 004a 2448     		ldr	r0, .L765+24
 7598              	.LVL1036:
 730:../Switch/core/yt/yt_port.c ****     CMM_PARAM_CHK(NULL == YT_DISPATCH(unit), CMM_ERR_NOT_INIT);
 7599              		.loc 1 730 5 discriminator 3 view .LVU2187
 7600 004c FFF7FEFF 		bl	osal_printf
 7601              	.LVL1037:
 7602 0050 F5E7     		b	.L744
 7603              	.LVL1038:
 7604              	.L757:
 730:../Switch/core/yt/yt_port.c ****     CMM_PARAM_CHK(NULL == YT_DISPATCH(unit), CMM_ERR_NOT_INIT);
 7605              		.loc 1 730 5 discriminator 3 view .LVU2188
 7606              	.LBE149:
 731:../Switch/core/yt/yt_port.c ****     CMM_PARAM_CHK((!(YT_DISPATCH(unit)->is_inited)), CMM_ERR_NOT_INIT);
 7607              		.loc 1 731 5 is_stmt 1 discriminator 1 view .LVU2189
 731:../Switch/core/yt/yt_port.c ****     CMM_PARAM_CHK((!(YT_DISPATCH(unit)->is_inited)), CMM_ERR_NOT_INIT);
 7608              		.loc 1 731 5 discriminator 1 view .LVU2190
 7609 0052 1F4B     		ldr	r3, .L765+12
 7610 0054 1B78     		ldrb	r3, [r3]	@ zero_extendqisi2
 7611 0056 012B     		cmp	r3, #1
 7612 0058 01D8     		bhi	.L761
 7613              	.LVL1039:
 7614              	.L747:
 731:../Switch/core/yt/yt_port.c ****     CMM_PARAM_CHK((!(YT_DISPATCH(unit)->is_inited)), CMM_ERR_NOT_INIT);
 7615              		.loc 1 731 5 discriminator 5 view .LVU2191
 731:../Switch/core/yt/yt_port.c ****     CMM_PARAM_CHK((!(YT_DISPATCH(unit)->is_inited)), CMM_ERR_NOT_INIT);
 7616              		.loc 1 731 5 discriminator 5 view .LVU2192
 731:../Switch/core/yt/yt_port.c ****     CMM_PARAM_CHK((!(YT_DISPATCH(unit)->is_inited)), CMM_ERR_NOT_INIT);
 7617              		.loc 1 731 5 discriminator 5 view .LVU2193
 7618 005a 0420     		movs	r0, #4
 7619 005c EAE7     		b	.L742
 7620              	.LVL1040:
 7621              	.L761:
 731:../Switch/core/yt/yt_port.c ****     CMM_PARAM_CHK((!(YT_DISPATCH(unit)->is_inited)), CMM_ERR_NOT_INIT);
 7622              		.loc 1 731 5 discriminator 3 view .LVU2194
 7623              	.LBB150:
 731:../Switch/core/yt/yt_port.c ****     CMM_PARAM_CHK((!(YT_DISPATCH(unit)->is_inited)), CMM_ERR_NOT_INIT);
 7624              		.loc 1 731 5 discriminator 3 view .LVU2195
 7625 005e 1D4B     		ldr	r3, .L765+16
 7626 0060 1A69     		ldr	r2, [r3, #16]
 7627              	.LVL1041:
 731:../Switch/core/yt/yt_port.c ****     CMM_PARAM_CHK((!(YT_DISPATCH(unit)->is_inited)), CMM_ERR_NOT_INIT);
 7628              		.loc 1 731 5 is_stmt 0 discriminator 3 view .LVU2196
 7629 0062 1D4B     		ldr	r3, .L765+20
 7630 0064 9968     		ldr	r1, [r3, #8]
 7631              	.LVL1042:
 731:../Switch/core/yt/yt_port.c ****     CMM_PARAM_CHK((!(YT_DISPATCH(unit)->is_inited)), CMM_ERR_NOT_INIT);
 7632              		.loc 1 731 5 discriminator 3 view .LVU2197
 7633 0066 1D48     		ldr	r0, .L765+24
 7634              	.LVL1043:
 731:../Switch/core/yt/yt_port.c ****     CMM_PARAM_CHK((!(YT_DISPATCH(unit)->is_inited)), CMM_ERR_NOT_INIT);
 7635              		.loc 1 731 5 discriminator 3 view .LVU2198
 7636 0068 FFF7FEFF 		bl	osal_printf
 7637              	.LVL1044:
 7638 006c F5E7     		b	.L747
 7639              	.LVL1045:
 7640              	.L758:
 731:../Switch/core/yt/yt_port.c ****     CMM_PARAM_CHK((!(YT_DISPATCH(unit)->is_inited)), CMM_ERR_NOT_INIT);
 7641              		.loc 1 731 5 discriminator 3 view .LVU2199
 7642              	.LBE150:
 732:../Switch/core/yt/yt_port.c ****     CMM_PARAM_CHK((!(CMM_PORT_VALID(unit, port))), CMM_ERR_PORT);
 7643              		.loc 1 732 5 is_stmt 1 discriminator 1 view .LVU2200
 732:../Switch/core/yt/yt_port.c ****     CMM_PARAM_CHK((!(CMM_PORT_VALID(unit, port))), CMM_ERR_PORT);
 7644              		.loc 1 732 5 discriminator 1 view .LVU2201
 7645 006e 184B     		ldr	r3, .L765+12
 7646 0070 1B78     		ldrb	r3, [r3]	@ zero_extendqisi2
 7647 0072 012B     		cmp	r3, #1
 7648 0074 01D8     		bhi	.L762
 7649              	.LVL1046:
 7650              	.L749:
 732:../Switch/core/yt/yt_port.c ****     CMM_PARAM_CHK((!(CMM_PORT_VALID(unit, port))), CMM_ERR_PORT);
 7651              		.loc 1 732 5 discriminator 5 view .LVU2202
 732:../Switch/core/yt/yt_port.c ****     CMM_PARAM_CHK((!(CMM_PORT_VALID(unit, port))), CMM_ERR_PORT);
 7652              		.loc 1 732 5 discriminator 5 view .LVU2203
 732:../Switch/core/yt/yt_port.c ****     CMM_PARAM_CHK((!(CMM_PORT_VALID(unit, port))), CMM_ERR_PORT);
 7653              		.loc 1 732 5 discriminator 5 view .LVU2204
 7654 0076 0420     		movs	r0, #4
 7655 0078 DCE7     		b	.L742
 7656              	.LVL1047:
 7657              	.L762:
 732:../Switch/core/yt/yt_port.c ****     CMM_PARAM_CHK((!(CMM_PORT_VALID(unit, port))), CMM_ERR_PORT);
 7658              		.loc 1 732 5 discriminator 3 view .LVU2205
 7659              	.LBB151:
 732:../Switch/core/yt/yt_port.c ****     CMM_PARAM_CHK((!(CMM_PORT_VALID(unit, port))), CMM_ERR_PORT);
 7660              		.loc 1 732 5 discriminator 3 view .LVU2206
 7661 007a 164B     		ldr	r3, .L765+16
 7662 007c 1A69     		ldr	r2, [r3, #16]
 7663              	.LVL1048:
 732:../Switch/core/yt/yt_port.c ****     CMM_PARAM_CHK((!(CMM_PORT_VALID(unit, port))), CMM_ERR_PORT);
 7664              		.loc 1 732 5 is_stmt 0 discriminator 3 view .LVU2207
 7665 007e 164B     		ldr	r3, .L765+20
 7666 0080 9968     		ldr	r1, [r3, #8]
 7667              	.LVL1049:
 732:../Switch/core/yt/yt_port.c ****     CMM_PARAM_CHK((!(CMM_PORT_VALID(unit, port))), CMM_ERR_PORT);
 7668              		.loc 1 732 5 discriminator 3 view .LVU2208
 7669 0082 1648     		ldr	r0, .L765+24
 7670 0084 FFF7FEFF 		bl	osal_printf
 7671              	.LVL1050:
 7672 0088 F5E7     		b	.L749
 7673              	.LVL1051:
 7674              	.L750:
 732:../Switch/core/yt/yt_port.c ****     CMM_PARAM_CHK((!(CMM_PORT_VALID(unit, port))), CMM_ERR_PORT);
 7675              		.loc 1 732 5 discriminator 3 view .LVU2209
 7676              	.LBE151:
 733:../Switch/core/yt/yt_port.c ****     CMM_PARAM_CHK((YT_ENABLE < enable || YT_DISABLE > enable), CMM_ERR_INPUT);
 7677              		.loc 1 733 5 is_stmt 1 discriminator 3 view .LVU2210
 733:../Switch/core/yt/yt_port.c ****     CMM_PARAM_CHK((YT_ENABLE < enable || YT_DISABLE > enable), CMM_ERR_INPUT);
 7678              		.loc 1 733 5 discriminator 3 view .LVU2211
 7679 008a 114B     		ldr	r3, .L765+12
 7680 008c 1B78     		ldrb	r3, [r3]	@ zero_extendqisi2
 7681 008e 012B     		cmp	r3, #1
 7682 0090 01D8     		bhi	.L763
 7683              	.LVL1052:
 7684              	.L752:
 733:../Switch/core/yt/yt_port.c ****     CMM_PARAM_CHK((YT_ENABLE < enable || YT_DISABLE > enable), CMM_ERR_INPUT);
 7685              		.loc 1 733 5 discriminator 7 view .LVU2212
 733:../Switch/core/yt/yt_port.c ****     CMM_PARAM_CHK((YT_ENABLE < enable || YT_DISABLE > enable), CMM_ERR_INPUT);
 7686              		.loc 1 733 5 discriminator 7 view .LVU2213
 733:../Switch/core/yt/yt_port.c ****     CMM_PARAM_CHK((YT_ENABLE < enable || YT_DISABLE > enable), CMM_ERR_INPUT);
 7687              		.loc 1 733 5 discriminator 7 view .LVU2214
 7688 0092 0E20     		movs	r0, #14
 7689 0094 CEE7     		b	.L742
 7690              	.LVL1053:
 7691              	.L763:
 733:../Switch/core/yt/yt_port.c ****     CMM_PARAM_CHK((YT_ENABLE < enable || YT_DISABLE > enable), CMM_ERR_INPUT);
 7692              		.loc 1 733 5 discriminator 5 view .LVU2215
 7693              	.LBB152:
 733:../Switch/core/yt/yt_port.c ****     CMM_PARAM_CHK((YT_ENABLE < enable || YT_DISABLE > enable), CMM_ERR_INPUT);
 7694              		.loc 1 733 5 discriminator 5 view .LVU2216
 7695 0096 0F4B     		ldr	r3, .L765+16
 7696 0098 9A6B     		ldr	r2, [r3, #56]
 7697              	.LVL1054:
 733:../Switch/core/yt/yt_port.c ****     CMM_PARAM_CHK((YT_ENABLE < enable || YT_DISABLE > enable), CMM_ERR_INPUT);
 7698              		.loc 1 733 5 is_stmt 0 discriminator 5 view .LVU2217
 7699 009a 0F4B     		ldr	r3, .L765+20
 7700 009c 9968     		ldr	r1, [r3, #8]
 7701              	.LVL1055:
 733:../Switch/core/yt/yt_port.c ****     CMM_PARAM_CHK((YT_ENABLE < enable || YT_DISABLE > enable), CMM_ERR_INPUT);
 7702              		.loc 1 733 5 discriminator 5 view .LVU2218
 7703 009e 0F48     		ldr	r0, .L765+24
 7704 00a0 FFF7FEFF 		bl	osal_printf
 7705              	.LVL1056:
 7706 00a4 F5E7     		b	.L752
 7707              	.LVL1057:
 7708              	.L759:
 733:../Switch/core/yt/yt_port.c ****     CMM_PARAM_CHK((YT_ENABLE < enable || YT_DISABLE > enable), CMM_ERR_INPUT);
 7709              		.loc 1 733 5 discriminator 5 view .LVU2219
 7710              	.LBE152:
 734:../Switch/core/yt/yt_port.c **** 
 7711              		.loc 1 734 5 is_stmt 1 discriminator 1 view .LVU2220
 734:../Switch/core/yt/yt_port.c **** 
 7712              		.loc 1 734 5 discriminator 1 view .LVU2221
 7713 00a6 0A4B     		ldr	r3, .L765+12
 7714 00a8 1B78     		ldrb	r3, [r3]	@ zero_extendqisi2
 7715 00aa 012B     		cmp	r3, #1
 7716 00ac 01D8     		bhi	.L764
 7717              	.LVL1058:
 7718              	.L754:
 734:../Switch/core/yt/yt_port.c **** 
 7719              		.loc 1 734 5 discriminator 5 view .LVU2222
 734:../Switch/core/yt/yt_port.c **** 
 7720              		.loc 1 734 5 discriminator 5 view .LVU2223
 734:../Switch/core/yt/yt_port.c **** 
 7721              		.loc 1 734 5 discriminator 5 view .LVU2224
 7722 00ae 0520     		movs	r0, #5
 7723 00b0 C0E7     		b	.L742
 7724              	.LVL1059:
 7725              	.L764:
 734:../Switch/core/yt/yt_port.c **** 
 7726              		.loc 1 734 5 discriminator 3 view .LVU2225
 7727              	.LBB153:
 734:../Switch/core/yt/yt_port.c **** 
 7728              		.loc 1 734 5 discriminator 3 view .LVU2226
 7729 00b2 084B     		ldr	r3, .L765+16
 7730 00b4 5A69     		ldr	r2, [r3, #20]
 7731              	.LVL1060:
 734:../Switch/core/yt/yt_port.c **** 
 7732              		.loc 1 734 5 is_stmt 0 discriminator 3 view .LVU2227
 7733 00b6 084B     		ldr	r3, .L765+20
 7734 00b8 9968     		ldr	r1, [r3, #8]
 7735              	.LVL1061:
 734:../Switch/core/yt/yt_port.c **** 
 7736              		.loc 1 734 5 discriminator 3 view .LVU2228
 7737 00ba 0848     		ldr	r0, .L765+24
 7738 00bc FFF7FEFF 		bl	osal_printf
 7739              	.LVL1062:
 7740 00c0 F5E7     		b	.L754
 7741              	.L766:
 7742 00c2 00BF     		.align	2
 7743              	.L765:
 7744 00c4 00000000 		.word	gpfal_dispatch
 7745 00c8 00000000 		.word	gcal_inited
 7746 00cc 00000000 		.word	gpSwitchUnit
 7747 00d0 00000000 		.word	yt_debug_level
 7748 00d4 00000000 		.word	_yt_errmsg
 7749 00d8 00000000 		.word	_yt_prompt_msg
 7750 00dc 00000000 		.word	.LC0
 7751              	.LBE153:
 7752              		.cfi_endproc
 7753              	.LFE33:
 7755              		.section	.text.yt_port_eee_enable_get,"ax",%progbits
 7756              		.align	1
 7757              		.global	yt_port_eee_enable_get
 7758              		.syntax unified
 7759              		.thumb
 7760              		.thumb_func
 7762              	yt_port_eee_enable_get:
 7763              	.LVL1063:
 7764              	.LFB34:
 738:../Switch/core/yt/yt_port.c **** 
 739:../Switch/core/yt/yt_port.c **** /**
 740:../Switch/core/yt/yt_port.c ****  * @internal      yt_port_eee_enable_get
 741:../Switch/core/yt/yt_port.c ****  * @endinternal
 742:../Switch/core/yt/yt_port.c ****  *
 743:../Switch/core/yt/yt_port.c ****  * @brief         Description
 744:../Switch/core/yt/yt_port.c ****  * @note          APPLICABLE DEVICES  -Tiger
 745:../Switch/core/yt/yt_port.c ****  * @param[in]     unit                -unit id
 746:../Switch/core/yt/yt_port.c ****  * @param[in]     port                -port num
 747:../Switch/core/yt/yt_port.c ****  * @param[out]    pEnable             -enable or disable
 748:../Switch/core/yt/yt_port.c ****  * @retval        CMM_ERR_OK          -on success
 749:../Switch/core/yt/yt_port.c ****  * @retval        CMM_ERR_FAIL        -on fail
 750:../Switch/core/yt/yt_port.c ****  */
 751:../Switch/core/yt/yt_port.c **** yt_ret_t yt_port_eee_enable_get(yt_unit_t unit, yt_port_t port, yt_enable_t *pEnable)
 752:../Switch/core/yt/yt_port.c **** {
 7765              		.loc 1 752 1 is_stmt 1 view -0
 7766              		.cfi_startproc
 7767              		@ args = 0, pretend = 0, frame = 0
 7768              		@ frame_needed = 0, uses_anonymous_args = 0
 7769              		.loc 1 752 1 is_stmt 0 view .LVU2230
 7770 0000 08B5     		push	{r3, lr}
 7771              		.cfi_def_cfa_offset 8
 7772              		.cfi_offset 3, -8
 7773              		.cfi_offset 14, -4
 753:../Switch/core/yt/yt_port.c ****     CMM_PARAM_CHK((YT_UNIT_NUM <= unit), CMM_ERR_INPUT);
 7774              		.loc 1 753 5 is_stmt 1 view .LVU2231
 7775              		.loc 1 753 5 view .LVU2232
 7776 0002 C0B9     		cbnz	r0, .L781
 7777 0004 8446     		mov	ip, r0
 7778              		.loc 1 753 5 discriminator 2 view .LVU2233
 754:../Switch/core/yt/yt_port.c ****     CMM_PARAM_CHK(NULL == YT_DISPATCH(unit), CMM_ERR_NOT_INIT);
 7779              		.loc 1 754 5 discriminator 2 view .LVU2234
 7780              		.loc 1 754 5 discriminator 2 view .LVU2235
 7781 0006 2F4B     		ldr	r3, .L790
 7782 0008 53F82030 		ldr	r3, [r3, r0, lsl #2]
 7783 000c 0BB3     		cbz	r3, .L782
 7784              		.loc 1 754 5 discriminator 2 view .LVU2236
 755:../Switch/core/yt/yt_port.c ****     CMM_PARAM_CHK((!(YT_DISPATCH(unit)->is_inited)), CMM_ERR_NOT_INIT);
 7785              		.loc 1 755 5 discriminator 2 view .LVU2237
 7786              		.loc 1 755 5 discriminator 2 view .LVU2238
 7787 000e 1878     		ldrb	r0, [r3]	@ zero_extendqisi2
 7788              	.LVL1064:
 7789              		.loc 1 755 5 is_stmt 0 discriminator 2 view .LVU2239
 7790 0010 0028     		cmp	r0, #0
 7791 0012 2CD0     		beq	.L783
 7792              		.loc 1 755 5 is_stmt 1 discriminator 2 view .LVU2240
 756:../Switch/core/yt/yt_port.c ****     CMM_PARAM_CHK((!(CMM_PORT_VALID(unit, port))), CMM_ERR_PORT);
 7793              		.loc 1 756 5 discriminator 2 view .LVU2241
 7794              		.loc 1 756 5 discriminator 2 view .LVU2242
 7795 0014 2C48     		ldr	r0, .L790+4
 7796 0016 0078     		ldrb	r0, [r0]	@ zero_extendqisi2
 7797 0018 0028     		cmp	r0, #0
 7798 001a 36D0     		beq	.L775
 7799 001c 2B48     		ldr	r0, .L790+8
 7800 001e 50F82C00 		ldr	r0, [r0, ip, lsl #2]
 7801 0022 007D     		ldrb	r0, [r0, #20]	@ zero_extendqisi2
 7802 0024 8842     		cmp	r0, r1
 7803 0026 30D9     		bls	.L775
 7804              		.loc 1 756 5 discriminator 4 view .LVU2243
 757:../Switch/core/yt/yt_port.c ****     CMM_PARAM_CHK((NULL == pEnable), CMM_ERR_NULL_POINT);
 7805              		.loc 1 757 5 discriminator 4 view .LVU2244
 7806              		.loc 1 757 5 discriminator 4 view .LVU2245
 7807 0028 002A     		cmp	r2, #0
 7808 002a 3CD0     		beq	.L784
 7809              		.loc 1 757 5 discriminator 2 view .LVU2246
 758:../Switch/core/yt/yt_port.c **** 
 759:../Switch/core/yt/yt_port.c ****     return YT_DISPATCH(unit)->port_eee_enable_get(unit, port, pEnable);
 7810              		.loc 1 759 5 discriminator 2 view .LVU2247
 7811              		.loc 1 759 29 is_stmt 0 discriminator 2 view .LVU2248
 7812 002c D3F8D435 		ldr	r3, [r3, #1492]
 7813              		.loc 1 759 12 discriminator 2 view .LVU2249
 7814 0030 6046     		mov	r0, ip
 7815 0032 9847     		blx	r3
 7816              	.LVL1065:
 7817              	.L767:
 760:../Switch/core/yt/yt_port.c **** }
 7818              		.loc 1 760 1 view .LVU2250
 7819 0034 08BD     		pop	{r3, pc}
 7820              	.LVL1066:
 7821              	.L781:
 753:../Switch/core/yt/yt_port.c ****     CMM_PARAM_CHK(NULL == YT_DISPATCH(unit), CMM_ERR_NOT_INIT);
 7822              		.loc 1 753 5 is_stmt 1 discriminator 1 view .LVU2251
 753:../Switch/core/yt/yt_port.c ****     CMM_PARAM_CHK(NULL == YT_DISPATCH(unit), CMM_ERR_NOT_INIT);
 7823              		.loc 1 753 5 discriminator 1 view .LVU2252
 7824 0036 264B     		ldr	r3, .L790+12
 7825 0038 1B78     		ldrb	r3, [r3]	@ zero_extendqisi2
 7826 003a 012B     		cmp	r3, #1
 7827 003c 01D8     		bhi	.L785
 7828              	.LVL1067:
 7829              	.L769:
 753:../Switch/core/yt/yt_port.c ****     CMM_PARAM_CHK(NULL == YT_DISPATCH(unit), CMM_ERR_NOT_INIT);
 7830              		.loc 1 753 5 discriminator 5 view .LVU2253
 753:../Switch/core/yt/yt_port.c ****     CMM_PARAM_CHK(NULL == YT_DISPATCH(unit), CMM_ERR_NOT_INIT);
 7831              		.loc 1 753 5 discriminator 5 view .LVU2254
 753:../Switch/core/yt/yt_port.c ****     CMM_PARAM_CHK(NULL == YT_DISPATCH(unit), CMM_ERR_NOT_INIT);
 7832              		.loc 1 753 5 discriminator 5 view .LVU2255
 7833 003e 0520     		movs	r0, #5
 7834 0040 F8E7     		b	.L767
 7835              	.LVL1068:
 7836              	.L785:
 753:../Switch/core/yt/yt_port.c ****     CMM_PARAM_CHK(NULL == YT_DISPATCH(unit), CMM_ERR_NOT_INIT);
 7837              		.loc 1 753 5 discriminator 3 view .LVU2256
 7838              	.LBB154:
 753:../Switch/core/yt/yt_port.c ****     CMM_PARAM_CHK(NULL == YT_DISPATCH(unit), CMM_ERR_NOT_INIT);
 7839              		.loc 1 753 5 discriminator 3 view .LVU2257
 7840 0042 244B     		ldr	r3, .L790+16
 7841 0044 5A69     		ldr	r2, [r3, #20]
 7842              	.LVL1069:
 753:../Switch/core/yt/yt_port.c ****     CMM_PARAM_CHK(NULL == YT_DISPATCH(unit), CMM_ERR_NOT_INIT);
 7843              		.loc 1 753 5 is_stmt 0 discriminator 3 view .LVU2258
 7844 0046 244B     		ldr	r3, .L790+20
 7845 0048 9968     		ldr	r1, [r3, #8]
 7846              	.LVL1070:
 753:../Switch/core/yt/yt_port.c ****     CMM_PARAM_CHK(NULL == YT_DISPATCH(unit), CMM_ERR_NOT_INIT);
 7847              		.loc 1 753 5 discriminator 3 view .LVU2259
 7848 004a 2448     		ldr	r0, .L790+24
 7849              	.LVL1071:
 753:../Switch/core/yt/yt_port.c ****     CMM_PARAM_CHK(NULL == YT_DISPATCH(unit), CMM_ERR_NOT_INIT);
 7850              		.loc 1 753 5 discriminator 3 view .LVU2260
 7851 004c FFF7FEFF 		bl	osal_printf
 7852              	.LVL1072:
 7853 0050 F5E7     		b	.L769
 7854              	.LVL1073:
 7855              	.L782:
 753:../Switch/core/yt/yt_port.c ****     CMM_PARAM_CHK(NULL == YT_DISPATCH(unit), CMM_ERR_NOT_INIT);
 7856              		.loc 1 753 5 discriminator 3 view .LVU2261
 7857              	.LBE154:
 754:../Switch/core/yt/yt_port.c ****     CMM_PARAM_CHK((!(YT_DISPATCH(unit)->is_inited)), CMM_ERR_NOT_INIT);
 7858              		.loc 1 754 5 is_stmt 1 discriminator 1 view .LVU2262
 754:../Switch/core/yt/yt_port.c ****     CMM_PARAM_CHK((!(YT_DISPATCH(unit)->is_inited)), CMM_ERR_NOT_INIT);
 7859              		.loc 1 754 5 discriminator 1 view .LVU2263
 7860 0052 1F4B     		ldr	r3, .L790+12
 7861 0054 1B78     		ldrb	r3, [r3]	@ zero_extendqisi2
 7862 0056 012B     		cmp	r3, #1
 7863 0058 01D8     		bhi	.L786
 7864              	.LVL1074:
 7865              	.L772:
 754:../Switch/core/yt/yt_port.c ****     CMM_PARAM_CHK((!(YT_DISPATCH(unit)->is_inited)), CMM_ERR_NOT_INIT);
 7866              		.loc 1 754 5 discriminator 5 view .LVU2264
 754:../Switch/core/yt/yt_port.c ****     CMM_PARAM_CHK((!(YT_DISPATCH(unit)->is_inited)), CMM_ERR_NOT_INIT);
 7867              		.loc 1 754 5 discriminator 5 view .LVU2265
 754:../Switch/core/yt/yt_port.c ****     CMM_PARAM_CHK((!(YT_DISPATCH(unit)->is_inited)), CMM_ERR_NOT_INIT);
 7868              		.loc 1 754 5 discriminator 5 view .LVU2266
 7869 005a 0420     		movs	r0, #4
 7870 005c EAE7     		b	.L767
 7871              	.LVL1075:
 7872              	.L786:
 754:../Switch/core/yt/yt_port.c ****     CMM_PARAM_CHK((!(YT_DISPATCH(unit)->is_inited)), CMM_ERR_NOT_INIT);
 7873              		.loc 1 754 5 discriminator 3 view .LVU2267
 7874              	.LBB155:
 754:../Switch/core/yt/yt_port.c ****     CMM_PARAM_CHK((!(YT_DISPATCH(unit)->is_inited)), CMM_ERR_NOT_INIT);
 7875              		.loc 1 754 5 discriminator 3 view .LVU2268
 7876 005e 1D4B     		ldr	r3, .L790+16
 7877 0060 1A69     		ldr	r2, [r3, #16]
 7878              	.LVL1076:
 754:../Switch/core/yt/yt_port.c ****     CMM_PARAM_CHK((!(YT_DISPATCH(unit)->is_inited)), CMM_ERR_NOT_INIT);
 7879              		.loc 1 754 5 is_stmt 0 discriminator 3 view .LVU2269
 7880 0062 1D4B     		ldr	r3, .L790+20
 7881 0064 9968     		ldr	r1, [r3, #8]
 7882              	.LVL1077:
 754:../Switch/core/yt/yt_port.c ****     CMM_PARAM_CHK((!(YT_DISPATCH(unit)->is_inited)), CMM_ERR_NOT_INIT);
 7883              		.loc 1 754 5 discriminator 3 view .LVU2270
 7884 0066 1D48     		ldr	r0, .L790+24
 7885              	.LVL1078:
 754:../Switch/core/yt/yt_port.c ****     CMM_PARAM_CHK((!(YT_DISPATCH(unit)->is_inited)), CMM_ERR_NOT_INIT);
 7886              		.loc 1 754 5 discriminator 3 view .LVU2271
 7887 0068 FFF7FEFF 		bl	osal_printf
 7888              	.LVL1079:
 7889 006c F5E7     		b	.L772
 7890              	.LVL1080:
 7891              	.L783:
 754:../Switch/core/yt/yt_port.c ****     CMM_PARAM_CHK((!(YT_DISPATCH(unit)->is_inited)), CMM_ERR_NOT_INIT);
 7892              		.loc 1 754 5 discriminator 3 view .LVU2272
 7893              	.LBE155:
 755:../Switch/core/yt/yt_port.c ****     CMM_PARAM_CHK((!(CMM_PORT_VALID(unit, port))), CMM_ERR_PORT);
 7894              		.loc 1 755 5 is_stmt 1 discriminator 1 view .LVU2273
 755:../Switch/core/yt/yt_port.c ****     CMM_PARAM_CHK((!(CMM_PORT_VALID(unit, port))), CMM_ERR_PORT);
 7895              		.loc 1 755 5 discriminator 1 view .LVU2274
 7896 006e 184B     		ldr	r3, .L790+12
 7897 0070 1B78     		ldrb	r3, [r3]	@ zero_extendqisi2
 7898 0072 012B     		cmp	r3, #1
 7899 0074 01D8     		bhi	.L787
 7900              	.LVL1081:
 7901              	.L774:
 755:../Switch/core/yt/yt_port.c ****     CMM_PARAM_CHK((!(CMM_PORT_VALID(unit, port))), CMM_ERR_PORT);
 7902              		.loc 1 755 5 discriminator 5 view .LVU2275
 755:../Switch/core/yt/yt_port.c ****     CMM_PARAM_CHK((!(CMM_PORT_VALID(unit, port))), CMM_ERR_PORT);
 7903              		.loc 1 755 5 discriminator 5 view .LVU2276
 755:../Switch/core/yt/yt_port.c ****     CMM_PARAM_CHK((!(CMM_PORT_VALID(unit, port))), CMM_ERR_PORT);
 7904              		.loc 1 755 5 discriminator 5 view .LVU2277
 7905 0076 0420     		movs	r0, #4
 7906 0078 DCE7     		b	.L767
 7907              	.LVL1082:
 7908              	.L787:
 755:../Switch/core/yt/yt_port.c ****     CMM_PARAM_CHK((!(CMM_PORT_VALID(unit, port))), CMM_ERR_PORT);
 7909              		.loc 1 755 5 discriminator 3 view .LVU2278
 7910              	.LBB156:
 755:../Switch/core/yt/yt_port.c ****     CMM_PARAM_CHK((!(CMM_PORT_VALID(unit, port))), CMM_ERR_PORT);
 7911              		.loc 1 755 5 discriminator 3 view .LVU2279
 7912 007a 164B     		ldr	r3, .L790+16
 7913 007c 1A69     		ldr	r2, [r3, #16]
 7914              	.LVL1083:
 755:../Switch/core/yt/yt_port.c ****     CMM_PARAM_CHK((!(CMM_PORT_VALID(unit, port))), CMM_ERR_PORT);
 7915              		.loc 1 755 5 is_stmt 0 discriminator 3 view .LVU2280
 7916 007e 164B     		ldr	r3, .L790+20
 7917 0080 9968     		ldr	r1, [r3, #8]
 7918              	.LVL1084:
 755:../Switch/core/yt/yt_port.c ****     CMM_PARAM_CHK((!(CMM_PORT_VALID(unit, port))), CMM_ERR_PORT);
 7919              		.loc 1 755 5 discriminator 3 view .LVU2281
 7920 0082 1648     		ldr	r0, .L790+24
 7921 0084 FFF7FEFF 		bl	osal_printf
 7922              	.LVL1085:
 7923 0088 F5E7     		b	.L774
 7924              	.LVL1086:
 7925              	.L775:
 755:../Switch/core/yt/yt_port.c ****     CMM_PARAM_CHK((!(CMM_PORT_VALID(unit, port))), CMM_ERR_PORT);
 7926              		.loc 1 755 5 discriminator 3 view .LVU2282
 7927              	.LBE156:
 756:../Switch/core/yt/yt_port.c ****     CMM_PARAM_CHK((NULL == pEnable), CMM_ERR_NULL_POINT);
 7928              		.loc 1 756 5 is_stmt 1 discriminator 3 view .LVU2283
 756:../Switch/core/yt/yt_port.c ****     CMM_PARAM_CHK((NULL == pEnable), CMM_ERR_NULL_POINT);
 7929              		.loc 1 756 5 discriminator 3 view .LVU2284
 7930 008a 114B     		ldr	r3, .L790+12
 7931 008c 1B78     		ldrb	r3, [r3]	@ zero_extendqisi2
 7932 008e 012B     		cmp	r3, #1
 7933 0090 01D8     		bhi	.L788
 7934              	.LVL1087:
 7935              	.L777:
 756:../Switch/core/yt/yt_port.c ****     CMM_PARAM_CHK((NULL == pEnable), CMM_ERR_NULL_POINT);
 7936              		.loc 1 756 5 discriminator 7 view .LVU2285
 756:../Switch/core/yt/yt_port.c ****     CMM_PARAM_CHK((NULL == pEnable), CMM_ERR_NULL_POINT);
 7937              		.loc 1 756 5 discriminator 7 view .LVU2286
 756:../Switch/core/yt/yt_port.c ****     CMM_PARAM_CHK((NULL == pEnable), CMM_ERR_NULL_POINT);
 7938              		.loc 1 756 5 discriminator 7 view .LVU2287
 7939 0092 0E20     		movs	r0, #14
 7940 0094 CEE7     		b	.L767
 7941              	.LVL1088:
 7942              	.L788:
 756:../Switch/core/yt/yt_port.c ****     CMM_PARAM_CHK((NULL == pEnable), CMM_ERR_NULL_POINT);
 7943              		.loc 1 756 5 discriminator 5 view .LVU2288
 7944              	.LBB157:
 756:../Switch/core/yt/yt_port.c ****     CMM_PARAM_CHK((NULL == pEnable), CMM_ERR_NULL_POINT);
 7945              		.loc 1 756 5 discriminator 5 view .LVU2289
 7946 0096 0F4B     		ldr	r3, .L790+16
 7947 0098 9A6B     		ldr	r2, [r3, #56]
 7948              	.LVL1089:
 756:../Switch/core/yt/yt_port.c ****     CMM_PARAM_CHK((NULL == pEnable), CMM_ERR_NULL_POINT);
 7949              		.loc 1 756 5 is_stmt 0 discriminator 5 view .LVU2290
 7950 009a 0F4B     		ldr	r3, .L790+20
 7951 009c 9968     		ldr	r1, [r3, #8]
 7952              	.LVL1090:
 756:../Switch/core/yt/yt_port.c ****     CMM_PARAM_CHK((NULL == pEnable), CMM_ERR_NULL_POINT);
 7953              		.loc 1 756 5 discriminator 5 view .LVU2291
 7954 009e 0F48     		ldr	r0, .L790+24
 7955 00a0 FFF7FEFF 		bl	osal_printf
 7956              	.LVL1091:
 7957 00a4 F5E7     		b	.L777
 7958              	.LVL1092:
 7959              	.L784:
 756:../Switch/core/yt/yt_port.c ****     CMM_PARAM_CHK((NULL == pEnable), CMM_ERR_NULL_POINT);
 7960              		.loc 1 756 5 discriminator 5 view .LVU2292
 7961              	.LBE157:
 757:../Switch/core/yt/yt_port.c **** 
 7962              		.loc 1 757 5 is_stmt 1 discriminator 1 view .LVU2293
 757:../Switch/core/yt/yt_port.c **** 
 7963              		.loc 1 757 5 discriminator 1 view .LVU2294
 7964 00a6 0A4B     		ldr	r3, .L790+12
 7965 00a8 1B78     		ldrb	r3, [r3]	@ zero_extendqisi2
 7966 00aa 012B     		cmp	r3, #1
 7967 00ac 01D8     		bhi	.L789
 7968              	.LVL1093:
 7969              	.L779:
 757:../Switch/core/yt/yt_port.c **** 
 7970              		.loc 1 757 5 discriminator 5 view .LVU2295
 757:../Switch/core/yt/yt_port.c **** 
 7971              		.loc 1 757 5 discriminator 5 view .LVU2296
 757:../Switch/core/yt/yt_port.c **** 
 7972              		.loc 1 757 5 discriminator 5 view .LVU2297
 7973 00ae 0220     		movs	r0, #2
 7974 00b0 C0E7     		b	.L767
 7975              	.LVL1094:
 7976              	.L789:
 757:../Switch/core/yt/yt_port.c **** 
 7977              		.loc 1 757 5 discriminator 3 view .LVU2298
 7978              	.LBB158:
 757:../Switch/core/yt/yt_port.c **** 
 7979              		.loc 1 757 5 discriminator 3 view .LVU2299
 7980 00b2 084B     		ldr	r3, .L790+16
 7981 00b4 9A68     		ldr	r2, [r3, #8]
 7982              	.LVL1095:
 757:../Switch/core/yt/yt_port.c **** 
 7983              		.loc 1 757 5 is_stmt 0 discriminator 3 view .LVU2300
 7984 00b6 084B     		ldr	r3, .L790+20
 7985 00b8 9968     		ldr	r1, [r3, #8]
 7986              	.LVL1096:
 757:../Switch/core/yt/yt_port.c **** 
 7987              		.loc 1 757 5 discriminator 3 view .LVU2301
 7988 00ba 0848     		ldr	r0, .L790+24
 7989 00bc FFF7FEFF 		bl	osal_printf
 7990              	.LVL1097:
 7991 00c0 F5E7     		b	.L779
 7992              	.L791:
 7993 00c2 00BF     		.align	2
 7994              	.L790:
 7995 00c4 00000000 		.word	gpfal_dispatch
 7996 00c8 00000000 		.word	gcal_inited
 7997 00cc 00000000 		.word	gpSwitchUnit
 7998 00d0 00000000 		.word	yt_debug_level
 7999 00d4 00000000 		.word	_yt_errmsg
 8000 00d8 00000000 		.word	_yt_prompt_msg
 8001 00dc 00000000 		.word	.LC0
 8002              	.LBE158:
 8003              		.cfi_endproc
 8004              	.LFE34:
 8006              		.section	.text.yt_port_jumbo_enable_set,"ax",%progbits
 8007              		.align	1
 8008              		.global	yt_port_jumbo_enable_set
 8009              		.syntax unified
 8010              		.thumb
 8011              		.thumb_func
 8013              	yt_port_jumbo_enable_set:
 8014              	.LVL1098:
 8015              	.LFB35:
 761:../Switch/core/yt/yt_port.c **** 
 762:../Switch/core/yt/yt_port.c **** /**
 763:../Switch/core/yt/yt_port.c ****  * @internal      yt_port_jumbo_enable_set
 764:../Switch/core/yt/yt_port.c ****  * @endinternal
 765:../Switch/core/yt/yt_port.c ****  *
 766:../Switch/core/yt/yt_port.c ****  * @brief         Description
 767:../Switch/core/yt/yt_port.c ****  * @note          APPLICABLE DEVICES  -Tiger
 768:../Switch/core/yt/yt_port.c ****  * @param[in]     unit                -unit id
 769:../Switch/core/yt/yt_port.c ****  * @param[in]     port                -port num
 770:../Switch/core/yt/yt_port.c ****  * @param[in]     enable              -enable or disable
 771:../Switch/core/yt/yt_port.c ****  * @retval        CMM_ERR_OK          -on success
 772:../Switch/core/yt/yt_port.c ****  * @retval        CMM_ERR_FAIL        -on fail
 773:../Switch/core/yt/yt_port.c ****  */
 774:../Switch/core/yt/yt_port.c **** yt_ret_t yt_port_jumbo_enable_set(yt_unit_t unit, yt_port_t port, yt_enable_t enable)
 775:../Switch/core/yt/yt_port.c **** {
 8016              		.loc 1 775 1 is_stmt 1 view -0
 8017              		.cfi_startproc
 8018              		@ args = 0, pretend = 0, frame = 0
 8019              		@ frame_needed = 0, uses_anonymous_args = 0
 8020              		.loc 1 775 1 is_stmt 0 view .LVU2303
 8021 0000 08B5     		push	{r3, lr}
 8022              		.cfi_def_cfa_offset 8
 8023              		.cfi_offset 3, -8
 8024              		.cfi_offset 14, -4
 776:../Switch/core/yt/yt_port.c ****     CMM_PARAM_CHK((YT_UNIT_NUM <= unit), CMM_ERR_INPUT);
 8025              		.loc 1 776 5 is_stmt 1 view .LVU2304
 8026              		.loc 1 776 5 view .LVU2305
 8027 0002 C0B9     		cbnz	r0, .L806
 8028 0004 8446     		mov	ip, r0
 8029              		.loc 1 776 5 discriminator 2 view .LVU2306
 777:../Switch/core/yt/yt_port.c ****     CMM_PARAM_CHK(NULL == YT_DISPATCH(unit), CMM_ERR_NOT_INIT);
 8030              		.loc 1 777 5 discriminator 2 view .LVU2307
 8031              		.loc 1 777 5 discriminator 2 view .LVU2308
 8032 0006 2F4B     		ldr	r3, .L815
 8033 0008 53F82030 		ldr	r3, [r3, r0, lsl #2]
 8034 000c 0BB3     		cbz	r3, .L807
 8035              		.loc 1 777 5 discriminator 2 view .LVU2309
 778:../Switch/core/yt/yt_port.c ****     CMM_PARAM_CHK((!(YT_DISPATCH(unit)->is_inited)), CMM_ERR_NOT_INIT);
 8036              		.loc 1 778 5 discriminator 2 view .LVU2310
 8037              		.loc 1 778 5 discriminator 2 view .LVU2311
 8038 000e 1878     		ldrb	r0, [r3]	@ zero_extendqisi2
 8039              	.LVL1099:
 8040              		.loc 1 778 5 is_stmt 0 discriminator 2 view .LVU2312
 8041 0010 0028     		cmp	r0, #0
 8042 0012 2CD0     		beq	.L808
 8043              		.loc 1 778 5 is_stmt 1 discriminator 2 view .LVU2313
 779:../Switch/core/yt/yt_port.c ****     CMM_PARAM_CHK((!(CMM_PORT_VALID(unit, port))), CMM_ERR_PORT);
 8044              		.loc 1 779 5 discriminator 2 view .LVU2314
 8045              		.loc 1 779 5 discriminator 2 view .LVU2315
 8046 0014 2C48     		ldr	r0, .L815+4
 8047 0016 0078     		ldrb	r0, [r0]	@ zero_extendqisi2
 8048 0018 0028     		cmp	r0, #0
 8049 001a 36D0     		beq	.L800
 8050 001c 2B48     		ldr	r0, .L815+8
 8051 001e 50F82C00 		ldr	r0, [r0, ip, lsl #2]
 8052 0022 007D     		ldrb	r0, [r0, #20]	@ zero_extendqisi2
 8053 0024 8842     		cmp	r0, r1
 8054 0026 30D9     		bls	.L800
 8055              		.loc 1 779 5 discriminator 4 view .LVU2316
 780:../Switch/core/yt/yt_port.c ****     CMM_PARAM_CHK((YT_ENABLE < enable || YT_DISABLE > enable), CMM_ERR_INPUT);
 8056              		.loc 1 780 5 discriminator 4 view .LVU2317
 8057              		.loc 1 780 5 discriminator 4 view .LVU2318
 8058 0028 012A     		cmp	r2, #1
 8059 002a 3CD8     		bhi	.L809
 8060              		.loc 1 780 5 discriminator 2 view .LVU2319
 781:../Switch/core/yt/yt_port.c **** 
 782:../Switch/core/yt/yt_port.c ****     return YT_DISPATCH(unit)->port_jumbo_enable_set(unit, port, enable);
 8061              		.loc 1 782 5 discriminator 2 view .LVU2320
 8062              		.loc 1 782 29 is_stmt 0 discriminator 2 view .LVU2321
 8063 002c D3F8D835 		ldr	r3, [r3, #1496]
 8064              		.loc 1 782 12 discriminator 2 view .LVU2322
 8065 0030 6046     		mov	r0, ip
 8066 0032 9847     		blx	r3
 8067              	.LVL1100:
 8068              	.L792:
 783:../Switch/core/yt/yt_port.c **** }
 8069              		.loc 1 783 1 view .LVU2323
 8070 0034 08BD     		pop	{r3, pc}
 8071              	.LVL1101:
 8072              	.L806:
 776:../Switch/core/yt/yt_port.c ****     CMM_PARAM_CHK(NULL == YT_DISPATCH(unit), CMM_ERR_NOT_INIT);
 8073              		.loc 1 776 5 is_stmt 1 discriminator 1 view .LVU2324
 776:../Switch/core/yt/yt_port.c ****     CMM_PARAM_CHK(NULL == YT_DISPATCH(unit), CMM_ERR_NOT_INIT);
 8074              		.loc 1 776 5 discriminator 1 view .LVU2325
 8075 0036 264B     		ldr	r3, .L815+12
 8076 0038 1B78     		ldrb	r3, [r3]	@ zero_extendqisi2
 8077 003a 012B     		cmp	r3, #1
 8078 003c 01D8     		bhi	.L810
 8079              	.LVL1102:
 8080              	.L794:
 776:../Switch/core/yt/yt_port.c ****     CMM_PARAM_CHK(NULL == YT_DISPATCH(unit), CMM_ERR_NOT_INIT);
 8081              		.loc 1 776 5 discriminator 5 view .LVU2326
 776:../Switch/core/yt/yt_port.c ****     CMM_PARAM_CHK(NULL == YT_DISPATCH(unit), CMM_ERR_NOT_INIT);
 8082              		.loc 1 776 5 discriminator 5 view .LVU2327
 776:../Switch/core/yt/yt_port.c ****     CMM_PARAM_CHK(NULL == YT_DISPATCH(unit), CMM_ERR_NOT_INIT);
 8083              		.loc 1 776 5 discriminator 5 view .LVU2328
 8084 003e 0520     		movs	r0, #5
 8085 0040 F8E7     		b	.L792
 8086              	.LVL1103:
 8087              	.L810:
 776:../Switch/core/yt/yt_port.c ****     CMM_PARAM_CHK(NULL == YT_DISPATCH(unit), CMM_ERR_NOT_INIT);
 8088              		.loc 1 776 5 discriminator 3 view .LVU2329
 8089              	.LBB159:
 776:../Switch/core/yt/yt_port.c ****     CMM_PARAM_CHK(NULL == YT_DISPATCH(unit), CMM_ERR_NOT_INIT);
 8090              		.loc 1 776 5 discriminator 3 view .LVU2330
 8091 0042 244B     		ldr	r3, .L815+16
 8092 0044 5A69     		ldr	r2, [r3, #20]
 8093              	.LVL1104:
 776:../Switch/core/yt/yt_port.c ****     CMM_PARAM_CHK(NULL == YT_DISPATCH(unit), CMM_ERR_NOT_INIT);
 8094              		.loc 1 776 5 is_stmt 0 discriminator 3 view .LVU2331
 8095 0046 244B     		ldr	r3, .L815+20
 8096 0048 9968     		ldr	r1, [r3, #8]
 8097              	.LVL1105:
 776:../Switch/core/yt/yt_port.c ****     CMM_PARAM_CHK(NULL == YT_DISPATCH(unit), CMM_ERR_NOT_INIT);
 8098              		.loc 1 776 5 discriminator 3 view .LVU2332
 8099 004a 2448     		ldr	r0, .L815+24
 8100              	.LVL1106:
 776:../Switch/core/yt/yt_port.c ****     CMM_PARAM_CHK(NULL == YT_DISPATCH(unit), CMM_ERR_NOT_INIT);
 8101              		.loc 1 776 5 discriminator 3 view .LVU2333
 8102 004c FFF7FEFF 		bl	osal_printf
 8103              	.LVL1107:
 8104 0050 F5E7     		b	.L794
 8105              	.LVL1108:
 8106              	.L807:
 776:../Switch/core/yt/yt_port.c ****     CMM_PARAM_CHK(NULL == YT_DISPATCH(unit), CMM_ERR_NOT_INIT);
 8107              		.loc 1 776 5 discriminator 3 view .LVU2334
 8108              	.LBE159:
 777:../Switch/core/yt/yt_port.c ****     CMM_PARAM_CHK((!(YT_DISPATCH(unit)->is_inited)), CMM_ERR_NOT_INIT);
 8109              		.loc 1 777 5 is_stmt 1 discriminator 1 view .LVU2335
 777:../Switch/core/yt/yt_port.c ****     CMM_PARAM_CHK((!(YT_DISPATCH(unit)->is_inited)), CMM_ERR_NOT_INIT);
 8110              		.loc 1 777 5 discriminator 1 view .LVU2336
 8111 0052 1F4B     		ldr	r3, .L815+12
 8112 0054 1B78     		ldrb	r3, [r3]	@ zero_extendqisi2
 8113 0056 012B     		cmp	r3, #1
 8114 0058 01D8     		bhi	.L811
 8115              	.LVL1109:
 8116              	.L797:
 777:../Switch/core/yt/yt_port.c ****     CMM_PARAM_CHK((!(YT_DISPATCH(unit)->is_inited)), CMM_ERR_NOT_INIT);
 8117              		.loc 1 777 5 discriminator 5 view .LVU2337
 777:../Switch/core/yt/yt_port.c ****     CMM_PARAM_CHK((!(YT_DISPATCH(unit)->is_inited)), CMM_ERR_NOT_INIT);
 8118              		.loc 1 777 5 discriminator 5 view .LVU2338
 777:../Switch/core/yt/yt_port.c ****     CMM_PARAM_CHK((!(YT_DISPATCH(unit)->is_inited)), CMM_ERR_NOT_INIT);
 8119              		.loc 1 777 5 discriminator 5 view .LVU2339
 8120 005a 0420     		movs	r0, #4
 8121 005c EAE7     		b	.L792
 8122              	.LVL1110:
 8123              	.L811:
 777:../Switch/core/yt/yt_port.c ****     CMM_PARAM_CHK((!(YT_DISPATCH(unit)->is_inited)), CMM_ERR_NOT_INIT);
 8124              		.loc 1 777 5 discriminator 3 view .LVU2340
 8125              	.LBB160:
 777:../Switch/core/yt/yt_port.c ****     CMM_PARAM_CHK((!(YT_DISPATCH(unit)->is_inited)), CMM_ERR_NOT_INIT);
 8126              		.loc 1 777 5 discriminator 3 view .LVU2341
 8127 005e 1D4B     		ldr	r3, .L815+16
 8128 0060 1A69     		ldr	r2, [r3, #16]
 8129              	.LVL1111:
 777:../Switch/core/yt/yt_port.c ****     CMM_PARAM_CHK((!(YT_DISPATCH(unit)->is_inited)), CMM_ERR_NOT_INIT);
 8130              		.loc 1 777 5 is_stmt 0 discriminator 3 view .LVU2342
 8131 0062 1D4B     		ldr	r3, .L815+20
 8132 0064 9968     		ldr	r1, [r3, #8]
 8133              	.LVL1112:
 777:../Switch/core/yt/yt_port.c ****     CMM_PARAM_CHK((!(YT_DISPATCH(unit)->is_inited)), CMM_ERR_NOT_INIT);
 8134              		.loc 1 777 5 discriminator 3 view .LVU2343
 8135 0066 1D48     		ldr	r0, .L815+24
 8136              	.LVL1113:
 777:../Switch/core/yt/yt_port.c ****     CMM_PARAM_CHK((!(YT_DISPATCH(unit)->is_inited)), CMM_ERR_NOT_INIT);
 8137              		.loc 1 777 5 discriminator 3 view .LVU2344
 8138 0068 FFF7FEFF 		bl	osal_printf
 8139              	.LVL1114:
 8140 006c F5E7     		b	.L797
 8141              	.LVL1115:
 8142              	.L808:
 777:../Switch/core/yt/yt_port.c ****     CMM_PARAM_CHK((!(YT_DISPATCH(unit)->is_inited)), CMM_ERR_NOT_INIT);
 8143              		.loc 1 777 5 discriminator 3 view .LVU2345
 8144              	.LBE160:
 778:../Switch/core/yt/yt_port.c ****     CMM_PARAM_CHK((!(CMM_PORT_VALID(unit, port))), CMM_ERR_PORT);
 8145              		.loc 1 778 5 is_stmt 1 discriminator 1 view .LVU2346
 778:../Switch/core/yt/yt_port.c ****     CMM_PARAM_CHK((!(CMM_PORT_VALID(unit, port))), CMM_ERR_PORT);
 8146              		.loc 1 778 5 discriminator 1 view .LVU2347
 8147 006e 184B     		ldr	r3, .L815+12
 8148 0070 1B78     		ldrb	r3, [r3]	@ zero_extendqisi2
 8149 0072 012B     		cmp	r3, #1
 8150 0074 01D8     		bhi	.L812
 8151              	.LVL1116:
 8152              	.L799:
 778:../Switch/core/yt/yt_port.c ****     CMM_PARAM_CHK((!(CMM_PORT_VALID(unit, port))), CMM_ERR_PORT);
 8153              		.loc 1 778 5 discriminator 5 view .LVU2348
 778:../Switch/core/yt/yt_port.c ****     CMM_PARAM_CHK((!(CMM_PORT_VALID(unit, port))), CMM_ERR_PORT);
 8154              		.loc 1 778 5 discriminator 5 view .LVU2349
 778:../Switch/core/yt/yt_port.c ****     CMM_PARAM_CHK((!(CMM_PORT_VALID(unit, port))), CMM_ERR_PORT);
 8155              		.loc 1 778 5 discriminator 5 view .LVU2350
 8156 0076 0420     		movs	r0, #4
 8157 0078 DCE7     		b	.L792
 8158              	.LVL1117:
 8159              	.L812:
 778:../Switch/core/yt/yt_port.c ****     CMM_PARAM_CHK((!(CMM_PORT_VALID(unit, port))), CMM_ERR_PORT);
 8160              		.loc 1 778 5 discriminator 3 view .LVU2351
 8161              	.LBB161:
 778:../Switch/core/yt/yt_port.c ****     CMM_PARAM_CHK((!(CMM_PORT_VALID(unit, port))), CMM_ERR_PORT);
 8162              		.loc 1 778 5 discriminator 3 view .LVU2352
 8163 007a 164B     		ldr	r3, .L815+16
 8164 007c 1A69     		ldr	r2, [r3, #16]
 8165              	.LVL1118:
 778:../Switch/core/yt/yt_port.c ****     CMM_PARAM_CHK((!(CMM_PORT_VALID(unit, port))), CMM_ERR_PORT);
 8166              		.loc 1 778 5 is_stmt 0 discriminator 3 view .LVU2353
 8167 007e 164B     		ldr	r3, .L815+20
 8168 0080 9968     		ldr	r1, [r3, #8]
 8169              	.LVL1119:
 778:../Switch/core/yt/yt_port.c ****     CMM_PARAM_CHK((!(CMM_PORT_VALID(unit, port))), CMM_ERR_PORT);
 8170              		.loc 1 778 5 discriminator 3 view .LVU2354
 8171 0082 1648     		ldr	r0, .L815+24
 8172 0084 FFF7FEFF 		bl	osal_printf
 8173              	.LVL1120:
 8174 0088 F5E7     		b	.L799
 8175              	.LVL1121:
 8176              	.L800:
 778:../Switch/core/yt/yt_port.c ****     CMM_PARAM_CHK((!(CMM_PORT_VALID(unit, port))), CMM_ERR_PORT);
 8177              		.loc 1 778 5 discriminator 3 view .LVU2355
 8178              	.LBE161:
 779:../Switch/core/yt/yt_port.c ****     CMM_PARAM_CHK((YT_ENABLE < enable || YT_DISABLE > enable), CMM_ERR_INPUT);
 8179              		.loc 1 779 5 is_stmt 1 discriminator 3 view .LVU2356
 779:../Switch/core/yt/yt_port.c ****     CMM_PARAM_CHK((YT_ENABLE < enable || YT_DISABLE > enable), CMM_ERR_INPUT);
 8180              		.loc 1 779 5 discriminator 3 view .LVU2357
 8181 008a 114B     		ldr	r3, .L815+12
 8182 008c 1B78     		ldrb	r3, [r3]	@ zero_extendqisi2
 8183 008e 012B     		cmp	r3, #1
 8184 0090 01D8     		bhi	.L813
 8185              	.LVL1122:
 8186              	.L802:
 779:../Switch/core/yt/yt_port.c ****     CMM_PARAM_CHK((YT_ENABLE < enable || YT_DISABLE > enable), CMM_ERR_INPUT);
 8187              		.loc 1 779 5 discriminator 7 view .LVU2358
 779:../Switch/core/yt/yt_port.c ****     CMM_PARAM_CHK((YT_ENABLE < enable || YT_DISABLE > enable), CMM_ERR_INPUT);
 8188              		.loc 1 779 5 discriminator 7 view .LVU2359
 779:../Switch/core/yt/yt_port.c ****     CMM_PARAM_CHK((YT_ENABLE < enable || YT_DISABLE > enable), CMM_ERR_INPUT);
 8189              		.loc 1 779 5 discriminator 7 view .LVU2360
 8190 0092 0E20     		movs	r0, #14
 8191 0094 CEE7     		b	.L792
 8192              	.LVL1123:
 8193              	.L813:
 779:../Switch/core/yt/yt_port.c ****     CMM_PARAM_CHK((YT_ENABLE < enable || YT_DISABLE > enable), CMM_ERR_INPUT);
 8194              		.loc 1 779 5 discriminator 5 view .LVU2361
 8195              	.LBB162:
 779:../Switch/core/yt/yt_port.c ****     CMM_PARAM_CHK((YT_ENABLE < enable || YT_DISABLE > enable), CMM_ERR_INPUT);
 8196              		.loc 1 779 5 discriminator 5 view .LVU2362
 8197 0096 0F4B     		ldr	r3, .L815+16
 8198 0098 9A6B     		ldr	r2, [r3, #56]
 8199              	.LVL1124:
 779:../Switch/core/yt/yt_port.c ****     CMM_PARAM_CHK((YT_ENABLE < enable || YT_DISABLE > enable), CMM_ERR_INPUT);
 8200              		.loc 1 779 5 is_stmt 0 discriminator 5 view .LVU2363
 8201 009a 0F4B     		ldr	r3, .L815+20
 8202 009c 9968     		ldr	r1, [r3, #8]
 8203              	.LVL1125:
 779:../Switch/core/yt/yt_port.c ****     CMM_PARAM_CHK((YT_ENABLE < enable || YT_DISABLE > enable), CMM_ERR_INPUT);
 8204              		.loc 1 779 5 discriminator 5 view .LVU2364
 8205 009e 0F48     		ldr	r0, .L815+24
 8206 00a0 FFF7FEFF 		bl	osal_printf
 8207              	.LVL1126:
 8208 00a4 F5E7     		b	.L802
 8209              	.LVL1127:
 8210              	.L809:
 779:../Switch/core/yt/yt_port.c ****     CMM_PARAM_CHK((YT_ENABLE < enable || YT_DISABLE > enable), CMM_ERR_INPUT);
 8211              		.loc 1 779 5 discriminator 5 view .LVU2365
 8212              	.LBE162:
 780:../Switch/core/yt/yt_port.c **** 
 8213              		.loc 1 780 5 is_stmt 1 discriminator 1 view .LVU2366
 780:../Switch/core/yt/yt_port.c **** 
 8214              		.loc 1 780 5 discriminator 1 view .LVU2367
 8215 00a6 0A4B     		ldr	r3, .L815+12
 8216 00a8 1B78     		ldrb	r3, [r3]	@ zero_extendqisi2
 8217 00aa 012B     		cmp	r3, #1
 8218 00ac 01D8     		bhi	.L814
 8219              	.LVL1128:
 8220              	.L804:
 780:../Switch/core/yt/yt_port.c **** 
 8221              		.loc 1 780 5 discriminator 5 view .LVU2368
 780:../Switch/core/yt/yt_port.c **** 
 8222              		.loc 1 780 5 discriminator 5 view .LVU2369
 780:../Switch/core/yt/yt_port.c **** 
 8223              		.loc 1 780 5 discriminator 5 view .LVU2370
 8224 00ae 0520     		movs	r0, #5
 8225 00b0 C0E7     		b	.L792
 8226              	.LVL1129:
 8227              	.L814:
 780:../Switch/core/yt/yt_port.c **** 
 8228              		.loc 1 780 5 discriminator 3 view .LVU2371
 8229              	.LBB163:
 780:../Switch/core/yt/yt_port.c **** 
 8230              		.loc 1 780 5 discriminator 3 view .LVU2372
 8231 00b2 084B     		ldr	r3, .L815+16
 8232 00b4 5A69     		ldr	r2, [r3, #20]
 8233              	.LVL1130:
 780:../Switch/core/yt/yt_port.c **** 
 8234              		.loc 1 780 5 is_stmt 0 discriminator 3 view .LVU2373
 8235 00b6 084B     		ldr	r3, .L815+20
 8236 00b8 9968     		ldr	r1, [r3, #8]
 8237              	.LVL1131:
 780:../Switch/core/yt/yt_port.c **** 
 8238              		.loc 1 780 5 discriminator 3 view .LVU2374
 8239 00ba 0848     		ldr	r0, .L815+24
 8240 00bc FFF7FEFF 		bl	osal_printf
 8241              	.LVL1132:
 8242 00c0 F5E7     		b	.L804
 8243              	.L816:
 8244 00c2 00BF     		.align	2
 8245              	.L815:
 8246 00c4 00000000 		.word	gpfal_dispatch
 8247 00c8 00000000 		.word	gcal_inited
 8248 00cc 00000000 		.word	gpSwitchUnit
 8249 00d0 00000000 		.word	yt_debug_level
 8250 00d4 00000000 		.word	_yt_errmsg
 8251 00d8 00000000 		.word	_yt_prompt_msg
 8252 00dc 00000000 		.word	.LC0
 8253              	.LBE163:
 8254              		.cfi_endproc
 8255              	.LFE35:
 8257              		.section	.text.yt_port_jumbo_enable_get,"ax",%progbits
 8258              		.align	1
 8259              		.global	yt_port_jumbo_enable_get
 8260              		.syntax unified
 8261              		.thumb
 8262              		.thumb_func
 8264              	yt_port_jumbo_enable_get:
 8265              	.LVL1133:
 8266              	.LFB36:
 784:../Switch/core/yt/yt_port.c **** 
 785:../Switch/core/yt/yt_port.c **** /**
 786:../Switch/core/yt/yt_port.c ****  * @internal      yt_port_jumbo_enable_get
 787:../Switch/core/yt/yt_port.c ****  * @endinternal
 788:../Switch/core/yt/yt_port.c ****  *
 789:../Switch/core/yt/yt_port.c ****  * @brief         Description
 790:../Switch/core/yt/yt_port.c ****  * @note          APPLICABLE DEVICES  -Tiger
 791:../Switch/core/yt/yt_port.c ****  * @param[in]     unit                -unit id
 792:../Switch/core/yt/yt_port.c ****  * @param[in]     port                -port num
 793:../Switch/core/yt/yt_port.c ****  * @param[out]    pEnable             -enable or disable
 794:../Switch/core/yt/yt_port.c ****  * @retval        CMM_ERR_OK          -on success
 795:../Switch/core/yt/yt_port.c ****  * @retval        CMM_ERR_FAIL        -on fail
 796:../Switch/core/yt/yt_port.c ****  */
 797:../Switch/core/yt/yt_port.c **** yt_ret_t yt_port_jumbo_enable_get(yt_unit_t unit, yt_port_t port, yt_enable_t *pEnable)
 798:../Switch/core/yt/yt_port.c **** {
 8267              		.loc 1 798 1 is_stmt 1 view -0
 8268              		.cfi_startproc
 8269              		@ args = 0, pretend = 0, frame = 0
 8270              		@ frame_needed = 0, uses_anonymous_args = 0
 8271              		.loc 1 798 1 is_stmt 0 view .LVU2376
 8272 0000 08B5     		push	{r3, lr}
 8273              		.cfi_def_cfa_offset 8
 8274              		.cfi_offset 3, -8
 8275              		.cfi_offset 14, -4
 799:../Switch/core/yt/yt_port.c ****     CMM_PARAM_CHK((YT_UNIT_NUM <= unit), CMM_ERR_INPUT);
 8276              		.loc 1 799 5 is_stmt 1 view .LVU2377
 8277              		.loc 1 799 5 view .LVU2378
 8278 0002 C0B9     		cbnz	r0, .L831
 8279 0004 8446     		mov	ip, r0
 8280              		.loc 1 799 5 discriminator 2 view .LVU2379
 800:../Switch/core/yt/yt_port.c ****     CMM_PARAM_CHK(NULL == YT_DISPATCH(unit), CMM_ERR_NOT_INIT);
 8281              		.loc 1 800 5 discriminator 2 view .LVU2380
 8282              		.loc 1 800 5 discriminator 2 view .LVU2381
 8283 0006 2F4B     		ldr	r3, .L840
 8284 0008 53F82030 		ldr	r3, [r3, r0, lsl #2]
 8285 000c 0BB3     		cbz	r3, .L832
 8286              		.loc 1 800 5 discriminator 2 view .LVU2382
 801:../Switch/core/yt/yt_port.c ****     CMM_PARAM_CHK((!(YT_DISPATCH(unit)->is_inited)), CMM_ERR_NOT_INIT);
 8287              		.loc 1 801 5 discriminator 2 view .LVU2383
 8288              		.loc 1 801 5 discriminator 2 view .LVU2384
 8289 000e 1878     		ldrb	r0, [r3]	@ zero_extendqisi2
 8290              	.LVL1134:
 8291              		.loc 1 801 5 is_stmt 0 discriminator 2 view .LVU2385
 8292 0010 0028     		cmp	r0, #0
 8293 0012 2CD0     		beq	.L833
 8294              		.loc 1 801 5 is_stmt 1 discriminator 2 view .LVU2386
 802:../Switch/core/yt/yt_port.c ****     CMM_PARAM_CHK((!(CMM_PORT_VALID(unit, port))), CMM_ERR_PORT);
 8295              		.loc 1 802 5 discriminator 2 view .LVU2387
 8296              		.loc 1 802 5 discriminator 2 view .LVU2388
 8297 0014 2C48     		ldr	r0, .L840+4
 8298 0016 0078     		ldrb	r0, [r0]	@ zero_extendqisi2
 8299 0018 0028     		cmp	r0, #0
 8300 001a 36D0     		beq	.L825
 8301 001c 2B48     		ldr	r0, .L840+8
 8302 001e 50F82C00 		ldr	r0, [r0, ip, lsl #2]
 8303 0022 007D     		ldrb	r0, [r0, #20]	@ zero_extendqisi2
 8304 0024 8842     		cmp	r0, r1
 8305 0026 30D9     		bls	.L825
 8306              		.loc 1 802 5 discriminator 4 view .LVU2389
 803:../Switch/core/yt/yt_port.c ****     CMM_PARAM_CHK((NULL == pEnable), CMM_ERR_NULL_POINT);
 8307              		.loc 1 803 5 discriminator 4 view .LVU2390
 8308              		.loc 1 803 5 discriminator 4 view .LVU2391
 8309 0028 002A     		cmp	r2, #0
 8310 002a 3CD0     		beq	.L834
 8311              		.loc 1 803 5 discriminator 2 view .LVU2392
 804:../Switch/core/yt/yt_port.c **** 
 805:../Switch/core/yt/yt_port.c ****     return YT_DISPATCH(unit)->port_jumbo_enable_get(unit, port, pEnable);
 8312              		.loc 1 805 5 discriminator 2 view .LVU2393
 8313              		.loc 1 805 29 is_stmt 0 discriminator 2 view .LVU2394
 8314 002c D3F8DC35 		ldr	r3, [r3, #1500]
 8315              		.loc 1 805 12 discriminator 2 view .LVU2395
 8316 0030 6046     		mov	r0, ip
 8317 0032 9847     		blx	r3
 8318              	.LVL1135:
 8319              	.L817:
 806:../Switch/core/yt/yt_port.c **** }
 8320              		.loc 1 806 1 view .LVU2396
 8321 0034 08BD     		pop	{r3, pc}
 8322              	.LVL1136:
 8323              	.L831:
 799:../Switch/core/yt/yt_port.c ****     CMM_PARAM_CHK(NULL == YT_DISPATCH(unit), CMM_ERR_NOT_INIT);
 8324              		.loc 1 799 5 is_stmt 1 discriminator 1 view .LVU2397
 799:../Switch/core/yt/yt_port.c ****     CMM_PARAM_CHK(NULL == YT_DISPATCH(unit), CMM_ERR_NOT_INIT);
 8325              		.loc 1 799 5 discriminator 1 view .LVU2398
 8326 0036 264B     		ldr	r3, .L840+12
 8327 0038 1B78     		ldrb	r3, [r3]	@ zero_extendqisi2
 8328 003a 012B     		cmp	r3, #1
 8329 003c 01D8     		bhi	.L835
 8330              	.LVL1137:
 8331              	.L819:
 799:../Switch/core/yt/yt_port.c ****     CMM_PARAM_CHK(NULL == YT_DISPATCH(unit), CMM_ERR_NOT_INIT);
 8332              		.loc 1 799 5 discriminator 5 view .LVU2399
 799:../Switch/core/yt/yt_port.c ****     CMM_PARAM_CHK(NULL == YT_DISPATCH(unit), CMM_ERR_NOT_INIT);
 8333              		.loc 1 799 5 discriminator 5 view .LVU2400
 799:../Switch/core/yt/yt_port.c ****     CMM_PARAM_CHK(NULL == YT_DISPATCH(unit), CMM_ERR_NOT_INIT);
 8334              		.loc 1 799 5 discriminator 5 view .LVU2401
 8335 003e 0520     		movs	r0, #5
 8336 0040 F8E7     		b	.L817
 8337              	.LVL1138:
 8338              	.L835:
 799:../Switch/core/yt/yt_port.c ****     CMM_PARAM_CHK(NULL == YT_DISPATCH(unit), CMM_ERR_NOT_INIT);
 8339              		.loc 1 799 5 discriminator 3 view .LVU2402
 8340              	.LBB164:
 799:../Switch/core/yt/yt_port.c ****     CMM_PARAM_CHK(NULL == YT_DISPATCH(unit), CMM_ERR_NOT_INIT);
 8341              		.loc 1 799 5 discriminator 3 view .LVU2403
 8342 0042 244B     		ldr	r3, .L840+16
 8343 0044 5A69     		ldr	r2, [r3, #20]
 8344              	.LVL1139:
 799:../Switch/core/yt/yt_port.c ****     CMM_PARAM_CHK(NULL == YT_DISPATCH(unit), CMM_ERR_NOT_INIT);
 8345              		.loc 1 799 5 is_stmt 0 discriminator 3 view .LVU2404
 8346 0046 244B     		ldr	r3, .L840+20
 8347 0048 9968     		ldr	r1, [r3, #8]
 8348              	.LVL1140:
 799:../Switch/core/yt/yt_port.c ****     CMM_PARAM_CHK(NULL == YT_DISPATCH(unit), CMM_ERR_NOT_INIT);
 8349              		.loc 1 799 5 discriminator 3 view .LVU2405
 8350 004a 2448     		ldr	r0, .L840+24
 8351              	.LVL1141:
 799:../Switch/core/yt/yt_port.c ****     CMM_PARAM_CHK(NULL == YT_DISPATCH(unit), CMM_ERR_NOT_INIT);
 8352              		.loc 1 799 5 discriminator 3 view .LVU2406
 8353 004c FFF7FEFF 		bl	osal_printf
 8354              	.LVL1142:
 8355 0050 F5E7     		b	.L819
 8356              	.LVL1143:
 8357              	.L832:
 799:../Switch/core/yt/yt_port.c ****     CMM_PARAM_CHK(NULL == YT_DISPATCH(unit), CMM_ERR_NOT_INIT);
 8358              		.loc 1 799 5 discriminator 3 view .LVU2407
 8359              	.LBE164:
 800:../Switch/core/yt/yt_port.c ****     CMM_PARAM_CHK((!(YT_DISPATCH(unit)->is_inited)), CMM_ERR_NOT_INIT);
 8360              		.loc 1 800 5 is_stmt 1 discriminator 1 view .LVU2408
 800:../Switch/core/yt/yt_port.c ****     CMM_PARAM_CHK((!(YT_DISPATCH(unit)->is_inited)), CMM_ERR_NOT_INIT);
 8361              		.loc 1 800 5 discriminator 1 view .LVU2409
 8362 0052 1F4B     		ldr	r3, .L840+12
 8363 0054 1B78     		ldrb	r3, [r3]	@ zero_extendqisi2
 8364 0056 012B     		cmp	r3, #1
 8365 0058 01D8     		bhi	.L836
 8366              	.LVL1144:
 8367              	.L822:
 800:../Switch/core/yt/yt_port.c ****     CMM_PARAM_CHK((!(YT_DISPATCH(unit)->is_inited)), CMM_ERR_NOT_INIT);
 8368              		.loc 1 800 5 discriminator 5 view .LVU2410
 800:../Switch/core/yt/yt_port.c ****     CMM_PARAM_CHK((!(YT_DISPATCH(unit)->is_inited)), CMM_ERR_NOT_INIT);
 8369              		.loc 1 800 5 discriminator 5 view .LVU2411
 800:../Switch/core/yt/yt_port.c ****     CMM_PARAM_CHK((!(YT_DISPATCH(unit)->is_inited)), CMM_ERR_NOT_INIT);
 8370              		.loc 1 800 5 discriminator 5 view .LVU2412
 8371 005a 0420     		movs	r0, #4
 8372 005c EAE7     		b	.L817
 8373              	.LVL1145:
 8374              	.L836:
 800:../Switch/core/yt/yt_port.c ****     CMM_PARAM_CHK((!(YT_DISPATCH(unit)->is_inited)), CMM_ERR_NOT_INIT);
 8375              		.loc 1 800 5 discriminator 3 view .LVU2413
 8376              	.LBB165:
 800:../Switch/core/yt/yt_port.c ****     CMM_PARAM_CHK((!(YT_DISPATCH(unit)->is_inited)), CMM_ERR_NOT_INIT);
 8377              		.loc 1 800 5 discriminator 3 view .LVU2414
 8378 005e 1D4B     		ldr	r3, .L840+16
 8379 0060 1A69     		ldr	r2, [r3, #16]
 8380              	.LVL1146:
 800:../Switch/core/yt/yt_port.c ****     CMM_PARAM_CHK((!(YT_DISPATCH(unit)->is_inited)), CMM_ERR_NOT_INIT);
 8381              		.loc 1 800 5 is_stmt 0 discriminator 3 view .LVU2415
 8382 0062 1D4B     		ldr	r3, .L840+20
 8383 0064 9968     		ldr	r1, [r3, #8]
 8384              	.LVL1147:
 800:../Switch/core/yt/yt_port.c ****     CMM_PARAM_CHK((!(YT_DISPATCH(unit)->is_inited)), CMM_ERR_NOT_INIT);
 8385              		.loc 1 800 5 discriminator 3 view .LVU2416
 8386 0066 1D48     		ldr	r0, .L840+24
 8387              	.LVL1148:
 800:../Switch/core/yt/yt_port.c ****     CMM_PARAM_CHK((!(YT_DISPATCH(unit)->is_inited)), CMM_ERR_NOT_INIT);
 8388              		.loc 1 800 5 discriminator 3 view .LVU2417
 8389 0068 FFF7FEFF 		bl	osal_printf
 8390              	.LVL1149:
 8391 006c F5E7     		b	.L822
 8392              	.LVL1150:
 8393              	.L833:
 800:../Switch/core/yt/yt_port.c ****     CMM_PARAM_CHK((!(YT_DISPATCH(unit)->is_inited)), CMM_ERR_NOT_INIT);
 8394              		.loc 1 800 5 discriminator 3 view .LVU2418
 8395              	.LBE165:
 801:../Switch/core/yt/yt_port.c ****     CMM_PARAM_CHK((!(CMM_PORT_VALID(unit, port))), CMM_ERR_PORT);
 8396              		.loc 1 801 5 is_stmt 1 discriminator 1 view .LVU2419
 801:../Switch/core/yt/yt_port.c ****     CMM_PARAM_CHK((!(CMM_PORT_VALID(unit, port))), CMM_ERR_PORT);
 8397              		.loc 1 801 5 discriminator 1 view .LVU2420
 8398 006e 184B     		ldr	r3, .L840+12
 8399 0070 1B78     		ldrb	r3, [r3]	@ zero_extendqisi2
 8400 0072 012B     		cmp	r3, #1
 8401 0074 01D8     		bhi	.L837
 8402              	.LVL1151:
 8403              	.L824:
 801:../Switch/core/yt/yt_port.c ****     CMM_PARAM_CHK((!(CMM_PORT_VALID(unit, port))), CMM_ERR_PORT);
 8404              		.loc 1 801 5 discriminator 5 view .LVU2421
 801:../Switch/core/yt/yt_port.c ****     CMM_PARAM_CHK((!(CMM_PORT_VALID(unit, port))), CMM_ERR_PORT);
 8405              		.loc 1 801 5 discriminator 5 view .LVU2422
 801:../Switch/core/yt/yt_port.c ****     CMM_PARAM_CHK((!(CMM_PORT_VALID(unit, port))), CMM_ERR_PORT);
 8406              		.loc 1 801 5 discriminator 5 view .LVU2423
 8407 0076 0420     		movs	r0, #4
 8408 0078 DCE7     		b	.L817
 8409              	.LVL1152:
 8410              	.L837:
 801:../Switch/core/yt/yt_port.c ****     CMM_PARAM_CHK((!(CMM_PORT_VALID(unit, port))), CMM_ERR_PORT);
 8411              		.loc 1 801 5 discriminator 3 view .LVU2424
 8412              	.LBB166:
 801:../Switch/core/yt/yt_port.c ****     CMM_PARAM_CHK((!(CMM_PORT_VALID(unit, port))), CMM_ERR_PORT);
 8413              		.loc 1 801 5 discriminator 3 view .LVU2425
 8414 007a 164B     		ldr	r3, .L840+16
 8415 007c 1A69     		ldr	r2, [r3, #16]
 8416              	.LVL1153:
 801:../Switch/core/yt/yt_port.c ****     CMM_PARAM_CHK((!(CMM_PORT_VALID(unit, port))), CMM_ERR_PORT);
 8417              		.loc 1 801 5 is_stmt 0 discriminator 3 view .LVU2426
 8418 007e 164B     		ldr	r3, .L840+20
 8419 0080 9968     		ldr	r1, [r3, #8]
 8420              	.LVL1154:
 801:../Switch/core/yt/yt_port.c ****     CMM_PARAM_CHK((!(CMM_PORT_VALID(unit, port))), CMM_ERR_PORT);
 8421              		.loc 1 801 5 discriminator 3 view .LVU2427
 8422 0082 1648     		ldr	r0, .L840+24
 8423 0084 FFF7FEFF 		bl	osal_printf
 8424              	.LVL1155:
 8425 0088 F5E7     		b	.L824
 8426              	.LVL1156:
 8427              	.L825:
 801:../Switch/core/yt/yt_port.c ****     CMM_PARAM_CHK((!(CMM_PORT_VALID(unit, port))), CMM_ERR_PORT);
 8428              		.loc 1 801 5 discriminator 3 view .LVU2428
 8429              	.LBE166:
 802:../Switch/core/yt/yt_port.c ****     CMM_PARAM_CHK((NULL == pEnable), CMM_ERR_NULL_POINT);
 8430              		.loc 1 802 5 is_stmt 1 discriminator 3 view .LVU2429
 802:../Switch/core/yt/yt_port.c ****     CMM_PARAM_CHK((NULL == pEnable), CMM_ERR_NULL_POINT);
 8431              		.loc 1 802 5 discriminator 3 view .LVU2430
 8432 008a 114B     		ldr	r3, .L840+12
 8433 008c 1B78     		ldrb	r3, [r3]	@ zero_extendqisi2
 8434 008e 012B     		cmp	r3, #1
 8435 0090 01D8     		bhi	.L838
 8436              	.LVL1157:
 8437              	.L827:
 802:../Switch/core/yt/yt_port.c ****     CMM_PARAM_CHK((NULL == pEnable), CMM_ERR_NULL_POINT);
 8438              		.loc 1 802 5 discriminator 7 view .LVU2431
 802:../Switch/core/yt/yt_port.c ****     CMM_PARAM_CHK((NULL == pEnable), CMM_ERR_NULL_POINT);
 8439              		.loc 1 802 5 discriminator 7 view .LVU2432
 802:../Switch/core/yt/yt_port.c ****     CMM_PARAM_CHK((NULL == pEnable), CMM_ERR_NULL_POINT);
 8440              		.loc 1 802 5 discriminator 7 view .LVU2433
 8441 0092 0E20     		movs	r0, #14
 8442 0094 CEE7     		b	.L817
 8443              	.LVL1158:
 8444              	.L838:
 802:../Switch/core/yt/yt_port.c ****     CMM_PARAM_CHK((NULL == pEnable), CMM_ERR_NULL_POINT);
 8445              		.loc 1 802 5 discriminator 5 view .LVU2434
 8446              	.LBB167:
 802:../Switch/core/yt/yt_port.c ****     CMM_PARAM_CHK((NULL == pEnable), CMM_ERR_NULL_POINT);
 8447              		.loc 1 802 5 discriminator 5 view .LVU2435
 8448 0096 0F4B     		ldr	r3, .L840+16
 8449 0098 9A6B     		ldr	r2, [r3, #56]
 8450              	.LVL1159:
 802:../Switch/core/yt/yt_port.c ****     CMM_PARAM_CHK((NULL == pEnable), CMM_ERR_NULL_POINT);
 8451              		.loc 1 802 5 is_stmt 0 discriminator 5 view .LVU2436
 8452 009a 0F4B     		ldr	r3, .L840+20
 8453 009c 9968     		ldr	r1, [r3, #8]
 8454              	.LVL1160:
 802:../Switch/core/yt/yt_port.c ****     CMM_PARAM_CHK((NULL == pEnable), CMM_ERR_NULL_POINT);
 8455              		.loc 1 802 5 discriminator 5 view .LVU2437
 8456 009e 0F48     		ldr	r0, .L840+24
 8457 00a0 FFF7FEFF 		bl	osal_printf
 8458              	.LVL1161:
 8459 00a4 F5E7     		b	.L827
 8460              	.LVL1162:
 8461              	.L834:
 802:../Switch/core/yt/yt_port.c ****     CMM_PARAM_CHK((NULL == pEnable), CMM_ERR_NULL_POINT);
 8462              		.loc 1 802 5 discriminator 5 view .LVU2438
 8463              	.LBE167:
 803:../Switch/core/yt/yt_port.c **** 
 8464              		.loc 1 803 5 is_stmt 1 discriminator 1 view .LVU2439
 803:../Switch/core/yt/yt_port.c **** 
 8465              		.loc 1 803 5 discriminator 1 view .LVU2440
 8466 00a6 0A4B     		ldr	r3, .L840+12
 8467 00a8 1B78     		ldrb	r3, [r3]	@ zero_extendqisi2
 8468 00aa 012B     		cmp	r3, #1
 8469 00ac 01D8     		bhi	.L839
 8470              	.LVL1163:
 8471              	.L829:
 803:../Switch/core/yt/yt_port.c **** 
 8472              		.loc 1 803 5 discriminator 5 view .LVU2441
 803:../Switch/core/yt/yt_port.c **** 
 8473              		.loc 1 803 5 discriminator 5 view .LVU2442
 803:../Switch/core/yt/yt_port.c **** 
 8474              		.loc 1 803 5 discriminator 5 view .LVU2443
 8475 00ae 0220     		movs	r0, #2
 8476 00b0 C0E7     		b	.L817
 8477              	.LVL1164:
 8478              	.L839:
 803:../Switch/core/yt/yt_port.c **** 
 8479              		.loc 1 803 5 discriminator 3 view .LVU2444
 8480              	.LBB168:
 803:../Switch/core/yt/yt_port.c **** 
 8481              		.loc 1 803 5 discriminator 3 view .LVU2445
 8482 00b2 084B     		ldr	r3, .L840+16
 8483 00b4 9A68     		ldr	r2, [r3, #8]
 8484              	.LVL1165:
 803:../Switch/core/yt/yt_port.c **** 
 8485              		.loc 1 803 5 is_stmt 0 discriminator 3 view .LVU2446
 8486 00b6 084B     		ldr	r3, .L840+20
 8487 00b8 9968     		ldr	r1, [r3, #8]
 8488              	.LVL1166:
 803:../Switch/core/yt/yt_port.c **** 
 8489              		.loc 1 803 5 discriminator 3 view .LVU2447
 8490 00ba 0848     		ldr	r0, .L840+24
 8491 00bc FFF7FEFF 		bl	osal_printf
 8492              	.LVL1167:
 8493 00c0 F5E7     		b	.L829
 8494              	.L841:
 8495 00c2 00BF     		.align	2
 8496              	.L840:
 8497 00c4 00000000 		.word	gpfal_dispatch
 8498 00c8 00000000 		.word	gcal_inited
 8499 00cc 00000000 		.word	gpSwitchUnit
 8500 00d0 00000000 		.word	yt_debug_level
 8501 00d4 00000000 		.word	_yt_errmsg
 8502 00d8 00000000 		.word	_yt_prompt_msg
 8503 00dc 00000000 		.word	.LC0
 8504              	.LBE168:
 8505              		.cfi_endproc
 8506              	.LFE36:
 8508              		.section	.text.yt_port_jumbo_size_set,"ax",%progbits
 8509              		.align	1
 8510              		.global	yt_port_jumbo_size_set
 8511              		.syntax unified
 8512              		.thumb
 8513              		.thumb_func
 8515              	yt_port_jumbo_size_set:
 8516              	.LVL1168:
 8517              	.LFB37:
 807:../Switch/core/yt/yt_port.c **** 
 808:../Switch/core/yt/yt_port.c **** /**
 809:../Switch/core/yt/yt_port.c ****  * @internal      yt_port_jumbo_size_set
 810:../Switch/core/yt/yt_port.c ****  * @endinternal
 811:../Switch/core/yt/yt_port.c ****  *
 812:../Switch/core/yt/yt_port.c ****  * @brief         Description
 813:../Switch/core/yt/yt_port.c ****  * @note          APPLICABLE DEVICES  -Tiger
 814:../Switch/core/yt/yt_port.c ****  * @param[in]     unit                -unit id
 815:../Switch/core/yt/yt_port.c ****  * @param[in]     port                -port num
 816:../Switch/core/yt/yt_port.c ****  * @param[in]     size              -jumbo frame size
 817:../Switch/core/yt/yt_port.c ****  * @retval        CMM_ERR_OK          -on success
 818:../Switch/core/yt/yt_port.c ****  * @retval        CMM_ERR_FAIL        -on fail
 819:../Switch/core/yt/yt_port.c ****  */
 820:../Switch/core/yt/yt_port.c **** yt_ret_t yt_port_jumbo_size_set(yt_unit_t unit, yt_port_t port, uint32_t size)
 821:../Switch/core/yt/yt_port.c **** {
 8518              		.loc 1 821 1 is_stmt 1 view -0
 8519              		.cfi_startproc
 8520              		@ args = 0, pretend = 0, frame = 0
 8521              		@ frame_needed = 0, uses_anonymous_args = 0
 8522              		.loc 1 821 1 is_stmt 0 view .LVU2449
 8523 0000 08B5     		push	{r3, lr}
 8524              		.cfi_def_cfa_offset 8
 8525              		.cfi_offset 3, -8
 8526              		.cfi_offset 14, -4
 822:../Switch/core/yt/yt_port.c ****     CMM_PARAM_CHK((YT_UNIT_NUM <= unit), CMM_ERR_INPUT);
 8527              		.loc 1 822 5 is_stmt 1 view .LVU2450
 8528              		.loc 1 822 5 view .LVU2451
 8529 0002 E0B9     		cbnz	r0, .L856
 8530 0004 8446     		mov	ip, r0
 8531              		.loc 1 822 5 discriminator 2 view .LVU2452
 823:../Switch/core/yt/yt_port.c ****     CMM_PARAM_CHK(NULL == YT_DISPATCH(unit), CMM_ERR_NOT_INIT);
 8532              		.loc 1 823 5 discriminator 2 view .LVU2453
 8533              		.loc 1 823 5 discriminator 2 view .LVU2454
 8534 0006 314B     		ldr	r3, .L865
 8535 0008 53F82030 		ldr	r3, [r3, r0, lsl #2]
 8536 000c 2BB3     		cbz	r3, .L857
 8537              		.loc 1 823 5 discriminator 2 view .LVU2455
 824:../Switch/core/yt/yt_port.c ****     CMM_PARAM_CHK((!(YT_DISPATCH(unit)->is_inited)), CMM_ERR_NOT_INIT);
 8538              		.loc 1 824 5 discriminator 2 view .LVU2456
 8539              		.loc 1 824 5 discriminator 2 view .LVU2457
 8540 000e 1878     		ldrb	r0, [r3]	@ zero_extendqisi2
 8541              	.LVL1169:
 8542              		.loc 1 824 5 is_stmt 0 discriminator 2 view .LVU2458
 8543 0010 0028     		cmp	r0, #0
 8544 0012 30D0     		beq	.L858
 8545              		.loc 1 824 5 is_stmt 1 discriminator 2 view .LVU2459
 825:../Switch/core/yt/yt_port.c ****     CMM_PARAM_CHK((!(CMM_PORT_VALID(unit, port))), CMM_ERR_PORT);
 8546              		.loc 1 825 5 discriminator 2 view .LVU2460
 8547              		.loc 1 825 5 discriminator 2 view .LVU2461
 8548 0014 2E48     		ldr	r0, .L865+4
 8549 0016 0078     		ldrb	r0, [r0]	@ zero_extendqisi2
 8550 0018 0028     		cmp	r0, #0
 8551 001a 3AD0     		beq	.L850
 8552 001c 2D48     		ldr	r0, .L865+8
 8553 001e 50F82C00 		ldr	r0, [r0, ip, lsl #2]
 8554 0022 007D     		ldrb	r0, [r0, #20]	@ zero_extendqisi2
 8555 0024 8842     		cmp	r0, r1
 8556 0026 34D9     		bls	.L850
 8557              		.loc 1 825 5 discriminator 4 view .LVU2462
 826:../Switch/core/yt/yt_port.c ****     CMM_PARAM_CHK((YT_JUMBO_SIZE_MAX < size || size < YT_JUMBO_SIZE_MIN), CMM_ERR_EXCEED_RANGE);
 8558              		.loc 1 826 5 discriminator 4 view .LVU2463
 8559              		.loc 1 826 5 discriminator 4 view .LVU2464
 8560 0028 A2F2EE5E 		subw	lr, r2, #1518
 8561 002c 41F61260 		movw	r0, #7698
 8562 0030 8645     		cmp	lr, r0
 8563 0032 3CD8     		bhi	.L859
 8564              		.loc 1 826 5 discriminator 2 view .LVU2465
 827:../Switch/core/yt/yt_port.c **** 
 828:../Switch/core/yt/yt_port.c ****     return YT_DISPATCH(unit)->port_jumbo_size_set(unit, port, size);
 8565              		.loc 1 828 5 discriminator 2 view .LVU2466
 8566              		.loc 1 828 29 is_stmt 0 discriminator 2 view .LVU2467
 8567 0034 D3F8E035 		ldr	r3, [r3, #1504]
 8568              		.loc 1 828 12 discriminator 2 view .LVU2468
 8569 0038 6046     		mov	r0, ip
 8570 003a 9847     		blx	r3
 8571              	.LVL1170:
 8572              	.L842:
 829:../Switch/core/yt/yt_port.c **** }
 8573              		.loc 1 829 1 view .LVU2469
 8574 003c 08BD     		pop	{r3, pc}
 8575              	.LVL1171:
 8576              	.L856:
 822:../Switch/core/yt/yt_port.c ****     CMM_PARAM_CHK(NULL == YT_DISPATCH(unit), CMM_ERR_NOT_INIT);
 8577              		.loc 1 822 5 is_stmt 1 discriminator 1 view .LVU2470
 822:../Switch/core/yt/yt_port.c ****     CMM_PARAM_CHK(NULL == YT_DISPATCH(unit), CMM_ERR_NOT_INIT);
 8578              		.loc 1 822 5 discriminator 1 view .LVU2471
 8579 003e 264B     		ldr	r3, .L865+12
 8580 0040 1B78     		ldrb	r3, [r3]	@ zero_extendqisi2
 8581 0042 012B     		cmp	r3, #1
 8582 0044 01D8     		bhi	.L860
 8583              	.LVL1172:
 8584              	.L844:
 822:../Switch/core/yt/yt_port.c ****     CMM_PARAM_CHK(NULL == YT_DISPATCH(unit), CMM_ERR_NOT_INIT);
 8585              		.loc 1 822 5 discriminator 5 view .LVU2472
 822:../Switch/core/yt/yt_port.c ****     CMM_PARAM_CHK(NULL == YT_DISPATCH(unit), CMM_ERR_NOT_INIT);
 8586              		.loc 1 822 5 discriminator 5 view .LVU2473
 822:../Switch/core/yt/yt_port.c ****     CMM_PARAM_CHK(NULL == YT_DISPATCH(unit), CMM_ERR_NOT_INIT);
 8587              		.loc 1 822 5 discriminator 5 view .LVU2474
 8588 0046 0520     		movs	r0, #5
 8589 0048 F8E7     		b	.L842
 8590              	.LVL1173:
 8591              	.L860:
 822:../Switch/core/yt/yt_port.c ****     CMM_PARAM_CHK(NULL == YT_DISPATCH(unit), CMM_ERR_NOT_INIT);
 8592              		.loc 1 822 5 discriminator 3 view .LVU2475
 8593              	.LBB169:
 822:../Switch/core/yt/yt_port.c ****     CMM_PARAM_CHK(NULL == YT_DISPATCH(unit), CMM_ERR_NOT_INIT);
 8594              		.loc 1 822 5 discriminator 3 view .LVU2476
 8595 004a 244B     		ldr	r3, .L865+16
 8596 004c 5A69     		ldr	r2, [r3, #20]
 8597              	.LVL1174:
 822:../Switch/core/yt/yt_port.c ****     CMM_PARAM_CHK(NULL == YT_DISPATCH(unit), CMM_ERR_NOT_INIT);
 8598              		.loc 1 822 5 is_stmt 0 discriminator 3 view .LVU2477
 8599 004e 244B     		ldr	r3, .L865+20
 8600 0050 9968     		ldr	r1, [r3, #8]
 8601              	.LVL1175:
 822:../Switch/core/yt/yt_port.c ****     CMM_PARAM_CHK(NULL == YT_DISPATCH(unit), CMM_ERR_NOT_INIT);
 8602              		.loc 1 822 5 discriminator 3 view .LVU2478
 8603 0052 2448     		ldr	r0, .L865+24
 8604              	.LVL1176:
 822:../Switch/core/yt/yt_port.c ****     CMM_PARAM_CHK(NULL == YT_DISPATCH(unit), CMM_ERR_NOT_INIT);
 8605              		.loc 1 822 5 discriminator 3 view .LVU2479
 8606 0054 FFF7FEFF 		bl	osal_printf
 8607              	.LVL1177:
 8608 0058 F5E7     		b	.L844
 8609              	.LVL1178:
 8610              	.L857:
 822:../Switch/core/yt/yt_port.c ****     CMM_PARAM_CHK(NULL == YT_DISPATCH(unit), CMM_ERR_NOT_INIT);
 8611              		.loc 1 822 5 discriminator 3 view .LVU2480
 8612              	.LBE169:
 823:../Switch/core/yt/yt_port.c ****     CMM_PARAM_CHK((!(YT_DISPATCH(unit)->is_inited)), CMM_ERR_NOT_INIT);
 8613              		.loc 1 823 5 is_stmt 1 discriminator 1 view .LVU2481
 823:../Switch/core/yt/yt_port.c ****     CMM_PARAM_CHK((!(YT_DISPATCH(unit)->is_inited)), CMM_ERR_NOT_INIT);
 8614              		.loc 1 823 5 discriminator 1 view .LVU2482
 8615 005a 1F4B     		ldr	r3, .L865+12
 8616 005c 1B78     		ldrb	r3, [r3]	@ zero_extendqisi2
 8617 005e 012B     		cmp	r3, #1
 8618 0060 01D8     		bhi	.L861
 8619              	.LVL1179:
 8620              	.L847:
 823:../Switch/core/yt/yt_port.c ****     CMM_PARAM_CHK((!(YT_DISPATCH(unit)->is_inited)), CMM_ERR_NOT_INIT);
 8621              		.loc 1 823 5 discriminator 5 view .LVU2483
 823:../Switch/core/yt/yt_port.c ****     CMM_PARAM_CHK((!(YT_DISPATCH(unit)->is_inited)), CMM_ERR_NOT_INIT);
 8622              		.loc 1 823 5 discriminator 5 view .LVU2484
 823:../Switch/core/yt/yt_port.c ****     CMM_PARAM_CHK((!(YT_DISPATCH(unit)->is_inited)), CMM_ERR_NOT_INIT);
 8623              		.loc 1 823 5 discriminator 5 view .LVU2485
 8624 0062 0420     		movs	r0, #4
 8625 0064 EAE7     		b	.L842
 8626              	.LVL1180:
 8627              	.L861:
 823:../Switch/core/yt/yt_port.c ****     CMM_PARAM_CHK((!(YT_DISPATCH(unit)->is_inited)), CMM_ERR_NOT_INIT);
 8628              		.loc 1 823 5 discriminator 3 view .LVU2486
 8629              	.LBB170:
 823:../Switch/core/yt/yt_port.c ****     CMM_PARAM_CHK((!(YT_DISPATCH(unit)->is_inited)), CMM_ERR_NOT_INIT);
 8630              		.loc 1 823 5 discriminator 3 view .LVU2487
 8631 0066 1D4B     		ldr	r3, .L865+16
 8632 0068 1A69     		ldr	r2, [r3, #16]
 8633              	.LVL1181:
 823:../Switch/core/yt/yt_port.c ****     CMM_PARAM_CHK((!(YT_DISPATCH(unit)->is_inited)), CMM_ERR_NOT_INIT);
 8634              		.loc 1 823 5 is_stmt 0 discriminator 3 view .LVU2488
 8635 006a 1D4B     		ldr	r3, .L865+20
 8636 006c 9968     		ldr	r1, [r3, #8]
 8637              	.LVL1182:
 823:../Switch/core/yt/yt_port.c ****     CMM_PARAM_CHK((!(YT_DISPATCH(unit)->is_inited)), CMM_ERR_NOT_INIT);
 8638              		.loc 1 823 5 discriminator 3 view .LVU2489
 8639 006e 1D48     		ldr	r0, .L865+24
 8640              	.LVL1183:
 823:../Switch/core/yt/yt_port.c ****     CMM_PARAM_CHK((!(YT_DISPATCH(unit)->is_inited)), CMM_ERR_NOT_INIT);
 8641              		.loc 1 823 5 discriminator 3 view .LVU2490
 8642 0070 FFF7FEFF 		bl	osal_printf
 8643              	.LVL1184:
 8644 0074 F5E7     		b	.L847
 8645              	.LVL1185:
 8646              	.L858:
 823:../Switch/core/yt/yt_port.c ****     CMM_PARAM_CHK((!(YT_DISPATCH(unit)->is_inited)), CMM_ERR_NOT_INIT);
 8647              		.loc 1 823 5 discriminator 3 view .LVU2491
 8648              	.LBE170:
 824:../Switch/core/yt/yt_port.c ****     CMM_PARAM_CHK((!(CMM_PORT_VALID(unit, port))), CMM_ERR_PORT);
 8649              		.loc 1 824 5 is_stmt 1 discriminator 1 view .LVU2492
 824:../Switch/core/yt/yt_port.c ****     CMM_PARAM_CHK((!(CMM_PORT_VALID(unit, port))), CMM_ERR_PORT);
 8650              		.loc 1 824 5 discriminator 1 view .LVU2493
 8651 0076 184B     		ldr	r3, .L865+12
 8652 0078 1B78     		ldrb	r3, [r3]	@ zero_extendqisi2
 8653 007a 012B     		cmp	r3, #1
 8654 007c 01D8     		bhi	.L862
 8655              	.LVL1186:
 8656              	.L849:
 824:../Switch/core/yt/yt_port.c ****     CMM_PARAM_CHK((!(CMM_PORT_VALID(unit, port))), CMM_ERR_PORT);
 8657              		.loc 1 824 5 discriminator 5 view .LVU2494
 824:../Switch/core/yt/yt_port.c ****     CMM_PARAM_CHK((!(CMM_PORT_VALID(unit, port))), CMM_ERR_PORT);
 8658              		.loc 1 824 5 discriminator 5 view .LVU2495
 824:../Switch/core/yt/yt_port.c ****     CMM_PARAM_CHK((!(CMM_PORT_VALID(unit, port))), CMM_ERR_PORT);
 8659              		.loc 1 824 5 discriminator 5 view .LVU2496
 8660 007e 0420     		movs	r0, #4
 8661 0080 DCE7     		b	.L842
 8662              	.LVL1187:
 8663              	.L862:
 824:../Switch/core/yt/yt_port.c ****     CMM_PARAM_CHK((!(CMM_PORT_VALID(unit, port))), CMM_ERR_PORT);
 8664              		.loc 1 824 5 discriminator 3 view .LVU2497
 8665              	.LBB171:
 824:../Switch/core/yt/yt_port.c ****     CMM_PARAM_CHK((!(CMM_PORT_VALID(unit, port))), CMM_ERR_PORT);
 8666              		.loc 1 824 5 discriminator 3 view .LVU2498
 8667 0082 164B     		ldr	r3, .L865+16
 8668 0084 1A69     		ldr	r2, [r3, #16]
 8669              	.LVL1188:
 824:../Switch/core/yt/yt_port.c ****     CMM_PARAM_CHK((!(CMM_PORT_VALID(unit, port))), CMM_ERR_PORT);
 8670              		.loc 1 824 5 is_stmt 0 discriminator 3 view .LVU2499
 8671 0086 164B     		ldr	r3, .L865+20
 8672 0088 9968     		ldr	r1, [r3, #8]
 8673              	.LVL1189:
 824:../Switch/core/yt/yt_port.c ****     CMM_PARAM_CHK((!(CMM_PORT_VALID(unit, port))), CMM_ERR_PORT);
 8674              		.loc 1 824 5 discriminator 3 view .LVU2500
 8675 008a 1648     		ldr	r0, .L865+24
 8676 008c FFF7FEFF 		bl	osal_printf
 8677              	.LVL1190:
 8678 0090 F5E7     		b	.L849
 8679              	.LVL1191:
 8680              	.L850:
 824:../Switch/core/yt/yt_port.c ****     CMM_PARAM_CHK((!(CMM_PORT_VALID(unit, port))), CMM_ERR_PORT);
 8681              		.loc 1 824 5 discriminator 3 view .LVU2501
 8682              	.LBE171:
 825:../Switch/core/yt/yt_port.c ****     CMM_PARAM_CHK((YT_JUMBO_SIZE_MAX < size || size < YT_JUMBO_SIZE_MIN), CMM_ERR_EXCEED_RANGE);
 8683              		.loc 1 825 5 is_stmt 1 discriminator 3 view .LVU2502
 825:../Switch/core/yt/yt_port.c ****     CMM_PARAM_CHK((YT_JUMBO_SIZE_MAX < size || size < YT_JUMBO_SIZE_MIN), CMM_ERR_EXCEED_RANGE);
 8684              		.loc 1 825 5 discriminator 3 view .LVU2503
 8685 0092 114B     		ldr	r3, .L865+12
 8686 0094 1B78     		ldrb	r3, [r3]	@ zero_extendqisi2
 8687 0096 012B     		cmp	r3, #1
 8688 0098 01D8     		bhi	.L863
 8689              	.LVL1192:
 8690              	.L852:
 825:../Switch/core/yt/yt_port.c ****     CMM_PARAM_CHK((YT_JUMBO_SIZE_MAX < size || size < YT_JUMBO_SIZE_MIN), CMM_ERR_EXCEED_RANGE);
 8691              		.loc 1 825 5 discriminator 7 view .LVU2504
 825:../Switch/core/yt/yt_port.c ****     CMM_PARAM_CHK((YT_JUMBO_SIZE_MAX < size || size < YT_JUMBO_SIZE_MIN), CMM_ERR_EXCEED_RANGE);
 8692              		.loc 1 825 5 discriminator 7 view .LVU2505
 825:../Switch/core/yt/yt_port.c ****     CMM_PARAM_CHK((YT_JUMBO_SIZE_MAX < size || size < YT_JUMBO_SIZE_MIN), CMM_ERR_EXCEED_RANGE);
 8693              		.loc 1 825 5 discriminator 7 view .LVU2506
 8694 009a 0E20     		movs	r0, #14
 8695 009c CEE7     		b	.L842
 8696              	.LVL1193:
 8697              	.L863:
 825:../Switch/core/yt/yt_port.c ****     CMM_PARAM_CHK((YT_JUMBO_SIZE_MAX < size || size < YT_JUMBO_SIZE_MIN), CMM_ERR_EXCEED_RANGE);
 8698              		.loc 1 825 5 discriminator 5 view .LVU2507
 8699              	.LBB172:
 825:../Switch/core/yt/yt_port.c ****     CMM_PARAM_CHK((YT_JUMBO_SIZE_MAX < size || size < YT_JUMBO_SIZE_MIN), CMM_ERR_EXCEED_RANGE);
 8700              		.loc 1 825 5 discriminator 5 view .LVU2508
 8701 009e 0F4B     		ldr	r3, .L865+16
 8702 00a0 9A6B     		ldr	r2, [r3, #56]
 8703              	.LVL1194:
 825:../Switch/core/yt/yt_port.c ****     CMM_PARAM_CHK((YT_JUMBO_SIZE_MAX < size || size < YT_JUMBO_SIZE_MIN), CMM_ERR_EXCEED_RANGE);
 8704              		.loc 1 825 5 is_stmt 0 discriminator 5 view .LVU2509
 8705 00a2 0F4B     		ldr	r3, .L865+20
 8706 00a4 9968     		ldr	r1, [r3, #8]
 8707              	.LVL1195:
 825:../Switch/core/yt/yt_port.c ****     CMM_PARAM_CHK((YT_JUMBO_SIZE_MAX < size || size < YT_JUMBO_SIZE_MIN), CMM_ERR_EXCEED_RANGE);
 8708              		.loc 1 825 5 discriminator 5 view .LVU2510
 8709 00a6 0F48     		ldr	r0, .L865+24
 8710 00a8 FFF7FEFF 		bl	osal_printf
 8711              	.LVL1196:
 8712 00ac F5E7     		b	.L852
 8713              	.LVL1197:
 8714              	.L859:
 825:../Switch/core/yt/yt_port.c ****     CMM_PARAM_CHK((YT_JUMBO_SIZE_MAX < size || size < YT_JUMBO_SIZE_MIN), CMM_ERR_EXCEED_RANGE);
 8715              		.loc 1 825 5 discriminator 5 view .LVU2511
 8716              	.LBE172:
 826:../Switch/core/yt/yt_port.c **** 
 8717              		.loc 1 826 5 is_stmt 1 discriminator 1 view .LVU2512
 826:../Switch/core/yt/yt_port.c **** 
 8718              		.loc 1 826 5 discriminator 1 view .LVU2513
 8719 00ae 0A4B     		ldr	r3, .L865+12
 8720 00b0 1B78     		ldrb	r3, [r3]	@ zero_extendqisi2
 8721 00b2 012B     		cmp	r3, #1
 8722 00b4 01D8     		bhi	.L864
 8723              	.LVL1198:
 8724              	.L854:
 826:../Switch/core/yt/yt_port.c **** 
 8725              		.loc 1 826 5 discriminator 5 view .LVU2514
 826:../Switch/core/yt/yt_port.c **** 
 8726              		.loc 1 826 5 discriminator 5 view .LVU2515
 826:../Switch/core/yt/yt_port.c **** 
 8727              		.loc 1 826 5 discriminator 5 view .LVU2516
 8728 00b6 1120     		movs	r0, #17
 8729 00b8 C0E7     		b	.L842
 8730              	.LVL1199:
 8731              	.L864:
 826:../Switch/core/yt/yt_port.c **** 
 8732              		.loc 1 826 5 discriminator 3 view .LVU2517
 8733              	.LBB173:
 826:../Switch/core/yt/yt_port.c **** 
 8734              		.loc 1 826 5 discriminator 3 view .LVU2518
 8735 00ba 084B     		ldr	r3, .L865+16
 8736 00bc 5A6C     		ldr	r2, [r3, #68]
 8737              	.LVL1200:
 826:../Switch/core/yt/yt_port.c **** 
 8738              		.loc 1 826 5 is_stmt 0 discriminator 3 view .LVU2519
 8739 00be 084B     		ldr	r3, .L865+20
 8740 00c0 9968     		ldr	r1, [r3, #8]
 8741              	.LVL1201:
 826:../Switch/core/yt/yt_port.c **** 
 8742              		.loc 1 826 5 discriminator 3 view .LVU2520
 8743 00c2 0848     		ldr	r0, .L865+24
 8744 00c4 FFF7FEFF 		bl	osal_printf
 8745              	.LVL1202:
 826:../Switch/core/yt/yt_port.c **** 
 8746              		.loc 1 826 5 discriminator 3 view .LVU2521
 8747 00c8 F5E7     		b	.L854
 8748              	.L866:
 8749 00ca 00BF     		.align	2
 8750              	.L865:
 8751 00cc 00000000 		.word	gpfal_dispatch
 8752 00d0 00000000 		.word	gcal_inited
 8753 00d4 00000000 		.word	gpSwitchUnit
 8754 00d8 00000000 		.word	yt_debug_level
 8755 00dc 00000000 		.word	_yt_errmsg
 8756 00e0 00000000 		.word	_yt_prompt_msg
 8757 00e4 00000000 		.word	.LC0
 8758              	.LBE173:
 8759              		.cfi_endproc
 8760              	.LFE37:
 8762              		.section	.text.yt_port_jumbo_size_get,"ax",%progbits
 8763              		.align	1
 8764              		.global	yt_port_jumbo_size_get
 8765              		.syntax unified
 8766              		.thumb
 8767              		.thumb_func
 8769              	yt_port_jumbo_size_get:
 8770              	.LVL1203:
 8771              	.LFB38:
 830:../Switch/core/yt/yt_port.c **** 
 831:../Switch/core/yt/yt_port.c **** /**
 832:../Switch/core/yt/yt_port.c ****  * @internal      yt_port_jumbo_size_get
 833:../Switch/core/yt/yt_port.c ****  * @endinternal
 834:../Switch/core/yt/yt_port.c ****  *
 835:../Switch/core/yt/yt_port.c ****  * @brief         Description
 836:../Switch/core/yt/yt_port.c ****  * @note          APPLICABLE DEVICES  -Tiger
 837:../Switch/core/yt/yt_port.c ****  * @param[in]     unit                -unit id
 838:../Switch/core/yt/yt_port.c ****  * @param[in]     port                -port num
 839:../Switch/core/yt/yt_port.c ****  * @param[out]    pSize             -jumbo frame size
 840:../Switch/core/yt/yt_port.c ****  * @retval        CMM_ERR_OK          -on success
 841:../Switch/core/yt/yt_port.c ****  * @retval        CMM_ERR_FAIL        -on fail
 842:../Switch/core/yt/yt_port.c ****  */
 843:../Switch/core/yt/yt_port.c **** yt_ret_t yt_port_jumbo_size_get(yt_unit_t unit, yt_port_t port, uint32_t *pSize)
 844:../Switch/core/yt/yt_port.c **** {
 8772              		.loc 1 844 1 is_stmt 1 view -0
 8773              		.cfi_startproc
 8774              		@ args = 0, pretend = 0, frame = 0
 8775              		@ frame_needed = 0, uses_anonymous_args = 0
 8776              		.loc 1 844 1 is_stmt 0 view .LVU2523
 8777 0000 08B5     		push	{r3, lr}
 8778              		.cfi_def_cfa_offset 8
 8779              		.cfi_offset 3, -8
 8780              		.cfi_offset 14, -4
 845:../Switch/core/yt/yt_port.c ****     CMM_PARAM_CHK((YT_UNIT_NUM <= unit), CMM_ERR_INPUT);
 8781              		.loc 1 845 5 is_stmt 1 view .LVU2524
 8782              		.loc 1 845 5 view .LVU2525
 8783 0002 C0B9     		cbnz	r0, .L881
 8784 0004 8446     		mov	ip, r0
 8785              		.loc 1 845 5 discriminator 2 view .LVU2526
 846:../Switch/core/yt/yt_port.c ****     CMM_PARAM_CHK(NULL == YT_DISPATCH(unit), CMM_ERR_NOT_INIT);
 8786              		.loc 1 846 5 discriminator 2 view .LVU2527
 8787              		.loc 1 846 5 discriminator 2 view .LVU2528
 8788 0006 2F4B     		ldr	r3, .L890
 8789 0008 53F82030 		ldr	r3, [r3, r0, lsl #2]
 8790 000c 0BB3     		cbz	r3, .L882
 8791              		.loc 1 846 5 discriminator 2 view .LVU2529
 847:../Switch/core/yt/yt_port.c ****     CMM_PARAM_CHK((!(YT_DISPATCH(unit)->is_inited)), CMM_ERR_NOT_INIT);
 8792              		.loc 1 847 5 discriminator 2 view .LVU2530
 8793              		.loc 1 847 5 discriminator 2 view .LVU2531
 8794 000e 1878     		ldrb	r0, [r3]	@ zero_extendqisi2
 8795              	.LVL1204:
 8796              		.loc 1 847 5 is_stmt 0 discriminator 2 view .LVU2532
 8797 0010 0028     		cmp	r0, #0
 8798 0012 2CD0     		beq	.L883
 8799              		.loc 1 847 5 is_stmt 1 discriminator 2 view .LVU2533
 848:../Switch/core/yt/yt_port.c ****     CMM_PARAM_CHK((!(CMM_PORT_VALID(unit, port))), CMM_ERR_PORT);
 8800              		.loc 1 848 5 discriminator 2 view .LVU2534
 8801              		.loc 1 848 5 discriminator 2 view .LVU2535
 8802 0014 2C48     		ldr	r0, .L890+4
 8803 0016 0078     		ldrb	r0, [r0]	@ zero_extendqisi2
 8804 0018 0028     		cmp	r0, #0
 8805 001a 36D0     		beq	.L875
 8806 001c 2B48     		ldr	r0, .L890+8
 8807 001e 50F82C00 		ldr	r0, [r0, ip, lsl #2]
 8808 0022 007D     		ldrb	r0, [r0, #20]	@ zero_extendqisi2
 8809 0024 8842     		cmp	r0, r1
 8810 0026 30D9     		bls	.L875
 8811              		.loc 1 848 5 discriminator 4 view .LVU2536
 849:../Switch/core/yt/yt_port.c ****     CMM_PARAM_CHK((NULL == pSize), CMM_ERR_NULL_POINT);
 8812              		.loc 1 849 5 discriminator 4 view .LVU2537
 8813              		.loc 1 849 5 discriminator 4 view .LVU2538
 8814 0028 002A     		cmp	r2, #0
 8815 002a 3CD0     		beq	.L884
 8816              		.loc 1 849 5 discriminator 2 view .LVU2539
 850:../Switch/core/yt/yt_port.c **** 
 851:../Switch/core/yt/yt_port.c ****     return YT_DISPATCH(unit)->port_jumbo_size_get(unit, port, pSize);
 8817              		.loc 1 851 5 discriminator 2 view .LVU2540
 8818              		.loc 1 851 29 is_stmt 0 discriminator 2 view .LVU2541
 8819 002c D3F8E435 		ldr	r3, [r3, #1508]
 8820              		.loc 1 851 12 discriminator 2 view .LVU2542
 8821 0030 6046     		mov	r0, ip
 8822 0032 9847     		blx	r3
 8823              	.LVL1205:
 8824              	.L867:
 852:../Switch/core/yt/yt_port.c **** }
 8825              		.loc 1 852 1 view .LVU2543
 8826 0034 08BD     		pop	{r3, pc}
 8827              	.LVL1206:
 8828              	.L881:
 845:../Switch/core/yt/yt_port.c ****     CMM_PARAM_CHK(NULL == YT_DISPATCH(unit), CMM_ERR_NOT_INIT);
 8829              		.loc 1 845 5 is_stmt 1 discriminator 1 view .LVU2544
 845:../Switch/core/yt/yt_port.c ****     CMM_PARAM_CHK(NULL == YT_DISPATCH(unit), CMM_ERR_NOT_INIT);
 8830              		.loc 1 845 5 discriminator 1 view .LVU2545
 8831 0036 264B     		ldr	r3, .L890+12
 8832 0038 1B78     		ldrb	r3, [r3]	@ zero_extendqisi2
 8833 003a 012B     		cmp	r3, #1
 8834 003c 01D8     		bhi	.L885
 8835              	.LVL1207:
 8836              	.L869:
 845:../Switch/core/yt/yt_port.c ****     CMM_PARAM_CHK(NULL == YT_DISPATCH(unit), CMM_ERR_NOT_INIT);
 8837              		.loc 1 845 5 discriminator 5 view .LVU2546
 845:../Switch/core/yt/yt_port.c ****     CMM_PARAM_CHK(NULL == YT_DISPATCH(unit), CMM_ERR_NOT_INIT);
 8838              		.loc 1 845 5 discriminator 5 view .LVU2547
 845:../Switch/core/yt/yt_port.c ****     CMM_PARAM_CHK(NULL == YT_DISPATCH(unit), CMM_ERR_NOT_INIT);
 8839              		.loc 1 845 5 discriminator 5 view .LVU2548
 8840 003e 0520     		movs	r0, #5
 8841 0040 F8E7     		b	.L867
 8842              	.LVL1208:
 8843              	.L885:
 845:../Switch/core/yt/yt_port.c ****     CMM_PARAM_CHK(NULL == YT_DISPATCH(unit), CMM_ERR_NOT_INIT);
 8844              		.loc 1 845 5 discriminator 3 view .LVU2549
 8845              	.LBB174:
 845:../Switch/core/yt/yt_port.c ****     CMM_PARAM_CHK(NULL == YT_DISPATCH(unit), CMM_ERR_NOT_INIT);
 8846              		.loc 1 845 5 discriminator 3 view .LVU2550
 8847 0042 244B     		ldr	r3, .L890+16
 8848 0044 5A69     		ldr	r2, [r3, #20]
 8849              	.LVL1209:
 845:../Switch/core/yt/yt_port.c ****     CMM_PARAM_CHK(NULL == YT_DISPATCH(unit), CMM_ERR_NOT_INIT);
 8850              		.loc 1 845 5 is_stmt 0 discriminator 3 view .LVU2551
 8851 0046 244B     		ldr	r3, .L890+20
 8852 0048 9968     		ldr	r1, [r3, #8]
 8853              	.LVL1210:
 845:../Switch/core/yt/yt_port.c ****     CMM_PARAM_CHK(NULL == YT_DISPATCH(unit), CMM_ERR_NOT_INIT);
 8854              		.loc 1 845 5 discriminator 3 view .LVU2552
 8855 004a 2448     		ldr	r0, .L890+24
 8856              	.LVL1211:
 845:../Switch/core/yt/yt_port.c ****     CMM_PARAM_CHK(NULL == YT_DISPATCH(unit), CMM_ERR_NOT_INIT);
 8857              		.loc 1 845 5 discriminator 3 view .LVU2553
 8858 004c FFF7FEFF 		bl	osal_printf
 8859              	.LVL1212:
 8860 0050 F5E7     		b	.L869
 8861              	.LVL1213:
 8862              	.L882:
 845:../Switch/core/yt/yt_port.c ****     CMM_PARAM_CHK(NULL == YT_DISPATCH(unit), CMM_ERR_NOT_INIT);
 8863              		.loc 1 845 5 discriminator 3 view .LVU2554
 8864              	.LBE174:
 846:../Switch/core/yt/yt_port.c ****     CMM_PARAM_CHK((!(YT_DISPATCH(unit)->is_inited)), CMM_ERR_NOT_INIT);
 8865              		.loc 1 846 5 is_stmt 1 discriminator 1 view .LVU2555
 846:../Switch/core/yt/yt_port.c ****     CMM_PARAM_CHK((!(YT_DISPATCH(unit)->is_inited)), CMM_ERR_NOT_INIT);
 8866              		.loc 1 846 5 discriminator 1 view .LVU2556
 8867 0052 1F4B     		ldr	r3, .L890+12
 8868 0054 1B78     		ldrb	r3, [r3]	@ zero_extendqisi2
 8869 0056 012B     		cmp	r3, #1
 8870 0058 01D8     		bhi	.L886
 8871              	.LVL1214:
 8872              	.L872:
 846:../Switch/core/yt/yt_port.c ****     CMM_PARAM_CHK((!(YT_DISPATCH(unit)->is_inited)), CMM_ERR_NOT_INIT);
 8873              		.loc 1 846 5 discriminator 5 view .LVU2557
 846:../Switch/core/yt/yt_port.c ****     CMM_PARAM_CHK((!(YT_DISPATCH(unit)->is_inited)), CMM_ERR_NOT_INIT);
 8874              		.loc 1 846 5 discriminator 5 view .LVU2558
 846:../Switch/core/yt/yt_port.c ****     CMM_PARAM_CHK((!(YT_DISPATCH(unit)->is_inited)), CMM_ERR_NOT_INIT);
 8875              		.loc 1 846 5 discriminator 5 view .LVU2559
 8876 005a 0420     		movs	r0, #4
 8877 005c EAE7     		b	.L867
 8878              	.LVL1215:
 8879              	.L886:
 846:../Switch/core/yt/yt_port.c ****     CMM_PARAM_CHK((!(YT_DISPATCH(unit)->is_inited)), CMM_ERR_NOT_INIT);
 8880              		.loc 1 846 5 discriminator 3 view .LVU2560
 8881              	.LBB175:
 846:../Switch/core/yt/yt_port.c ****     CMM_PARAM_CHK((!(YT_DISPATCH(unit)->is_inited)), CMM_ERR_NOT_INIT);
 8882              		.loc 1 846 5 discriminator 3 view .LVU2561
 8883 005e 1D4B     		ldr	r3, .L890+16
 8884 0060 1A69     		ldr	r2, [r3, #16]
 8885              	.LVL1216:
 846:../Switch/core/yt/yt_port.c ****     CMM_PARAM_CHK((!(YT_DISPATCH(unit)->is_inited)), CMM_ERR_NOT_INIT);
 8886              		.loc 1 846 5 is_stmt 0 discriminator 3 view .LVU2562
 8887 0062 1D4B     		ldr	r3, .L890+20
 8888 0064 9968     		ldr	r1, [r3, #8]
 8889              	.LVL1217:
 846:../Switch/core/yt/yt_port.c ****     CMM_PARAM_CHK((!(YT_DISPATCH(unit)->is_inited)), CMM_ERR_NOT_INIT);
 8890              		.loc 1 846 5 discriminator 3 view .LVU2563
 8891 0066 1D48     		ldr	r0, .L890+24
 8892              	.LVL1218:
 846:../Switch/core/yt/yt_port.c ****     CMM_PARAM_CHK((!(YT_DISPATCH(unit)->is_inited)), CMM_ERR_NOT_INIT);
 8893              		.loc 1 846 5 discriminator 3 view .LVU2564
 8894 0068 FFF7FEFF 		bl	osal_printf
 8895              	.LVL1219:
 8896 006c F5E7     		b	.L872
 8897              	.LVL1220:
 8898              	.L883:
 846:../Switch/core/yt/yt_port.c ****     CMM_PARAM_CHK((!(YT_DISPATCH(unit)->is_inited)), CMM_ERR_NOT_INIT);
 8899              		.loc 1 846 5 discriminator 3 view .LVU2565
 8900              	.LBE175:
 847:../Switch/core/yt/yt_port.c ****     CMM_PARAM_CHK((!(CMM_PORT_VALID(unit, port))), CMM_ERR_PORT);
 8901              		.loc 1 847 5 is_stmt 1 discriminator 1 view .LVU2566
 847:../Switch/core/yt/yt_port.c ****     CMM_PARAM_CHK((!(CMM_PORT_VALID(unit, port))), CMM_ERR_PORT);
 8902              		.loc 1 847 5 discriminator 1 view .LVU2567
 8903 006e 184B     		ldr	r3, .L890+12
 8904 0070 1B78     		ldrb	r3, [r3]	@ zero_extendqisi2
 8905 0072 012B     		cmp	r3, #1
 8906 0074 01D8     		bhi	.L887
 8907              	.LVL1221:
 8908              	.L874:
 847:../Switch/core/yt/yt_port.c ****     CMM_PARAM_CHK((!(CMM_PORT_VALID(unit, port))), CMM_ERR_PORT);
 8909              		.loc 1 847 5 discriminator 5 view .LVU2568
 847:../Switch/core/yt/yt_port.c ****     CMM_PARAM_CHK((!(CMM_PORT_VALID(unit, port))), CMM_ERR_PORT);
 8910              		.loc 1 847 5 discriminator 5 view .LVU2569
 847:../Switch/core/yt/yt_port.c ****     CMM_PARAM_CHK((!(CMM_PORT_VALID(unit, port))), CMM_ERR_PORT);
 8911              		.loc 1 847 5 discriminator 5 view .LVU2570
 8912 0076 0420     		movs	r0, #4
 8913 0078 DCE7     		b	.L867
 8914              	.LVL1222:
 8915              	.L887:
 847:../Switch/core/yt/yt_port.c ****     CMM_PARAM_CHK((!(CMM_PORT_VALID(unit, port))), CMM_ERR_PORT);
 8916              		.loc 1 847 5 discriminator 3 view .LVU2571
 8917              	.LBB176:
 847:../Switch/core/yt/yt_port.c ****     CMM_PARAM_CHK((!(CMM_PORT_VALID(unit, port))), CMM_ERR_PORT);
 8918              		.loc 1 847 5 discriminator 3 view .LVU2572
 8919 007a 164B     		ldr	r3, .L890+16
 8920 007c 1A69     		ldr	r2, [r3, #16]
 8921              	.LVL1223:
 847:../Switch/core/yt/yt_port.c ****     CMM_PARAM_CHK((!(CMM_PORT_VALID(unit, port))), CMM_ERR_PORT);
 8922              		.loc 1 847 5 is_stmt 0 discriminator 3 view .LVU2573
 8923 007e 164B     		ldr	r3, .L890+20
 8924 0080 9968     		ldr	r1, [r3, #8]
 8925              	.LVL1224:
 847:../Switch/core/yt/yt_port.c ****     CMM_PARAM_CHK((!(CMM_PORT_VALID(unit, port))), CMM_ERR_PORT);
 8926              		.loc 1 847 5 discriminator 3 view .LVU2574
 8927 0082 1648     		ldr	r0, .L890+24
 8928 0084 FFF7FEFF 		bl	osal_printf
 8929              	.LVL1225:
 8930 0088 F5E7     		b	.L874
 8931              	.LVL1226:
 8932              	.L875:
 847:../Switch/core/yt/yt_port.c ****     CMM_PARAM_CHK((!(CMM_PORT_VALID(unit, port))), CMM_ERR_PORT);
 8933              		.loc 1 847 5 discriminator 3 view .LVU2575
 8934              	.LBE176:
 848:../Switch/core/yt/yt_port.c ****     CMM_PARAM_CHK((NULL == pSize), CMM_ERR_NULL_POINT);
 8935              		.loc 1 848 5 is_stmt 1 discriminator 3 view .LVU2576
 848:../Switch/core/yt/yt_port.c ****     CMM_PARAM_CHK((NULL == pSize), CMM_ERR_NULL_POINT);
 8936              		.loc 1 848 5 discriminator 3 view .LVU2577
 8937 008a 114B     		ldr	r3, .L890+12
 8938 008c 1B78     		ldrb	r3, [r3]	@ zero_extendqisi2
 8939 008e 012B     		cmp	r3, #1
 8940 0090 01D8     		bhi	.L888
 8941              	.LVL1227:
 8942              	.L877:
 848:../Switch/core/yt/yt_port.c ****     CMM_PARAM_CHK((NULL == pSize), CMM_ERR_NULL_POINT);
 8943              		.loc 1 848 5 discriminator 7 view .LVU2578
 848:../Switch/core/yt/yt_port.c ****     CMM_PARAM_CHK((NULL == pSize), CMM_ERR_NULL_POINT);
 8944              		.loc 1 848 5 discriminator 7 view .LVU2579
 848:../Switch/core/yt/yt_port.c ****     CMM_PARAM_CHK((NULL == pSize), CMM_ERR_NULL_POINT);
 8945              		.loc 1 848 5 discriminator 7 view .LVU2580
 8946 0092 0E20     		movs	r0, #14
 8947 0094 CEE7     		b	.L867
 8948              	.LVL1228:
 8949              	.L888:
 848:../Switch/core/yt/yt_port.c ****     CMM_PARAM_CHK((NULL == pSize), CMM_ERR_NULL_POINT);
 8950              		.loc 1 848 5 discriminator 5 view .LVU2581
 8951              	.LBB177:
 848:../Switch/core/yt/yt_port.c ****     CMM_PARAM_CHK((NULL == pSize), CMM_ERR_NULL_POINT);
 8952              		.loc 1 848 5 discriminator 5 view .LVU2582
 8953 0096 0F4B     		ldr	r3, .L890+16
 8954 0098 9A6B     		ldr	r2, [r3, #56]
 8955              	.LVL1229:
 848:../Switch/core/yt/yt_port.c ****     CMM_PARAM_CHK((NULL == pSize), CMM_ERR_NULL_POINT);
 8956              		.loc 1 848 5 is_stmt 0 discriminator 5 view .LVU2583
 8957 009a 0F4B     		ldr	r3, .L890+20
 8958 009c 9968     		ldr	r1, [r3, #8]
 8959              	.LVL1230:
 848:../Switch/core/yt/yt_port.c ****     CMM_PARAM_CHK((NULL == pSize), CMM_ERR_NULL_POINT);
 8960              		.loc 1 848 5 discriminator 5 view .LVU2584
 8961 009e 0F48     		ldr	r0, .L890+24
 8962 00a0 FFF7FEFF 		bl	osal_printf
 8963              	.LVL1231:
 8964 00a4 F5E7     		b	.L877
 8965              	.LVL1232:
 8966              	.L884:
 848:../Switch/core/yt/yt_port.c ****     CMM_PARAM_CHK((NULL == pSize), CMM_ERR_NULL_POINT);
 8967              		.loc 1 848 5 discriminator 5 view .LVU2585
 8968              	.LBE177:
 849:../Switch/core/yt/yt_port.c **** 
 8969              		.loc 1 849 5 is_stmt 1 discriminator 1 view .LVU2586
 849:../Switch/core/yt/yt_port.c **** 
 8970              		.loc 1 849 5 discriminator 1 view .LVU2587
 8971 00a6 0A4B     		ldr	r3, .L890+12
 8972 00a8 1B78     		ldrb	r3, [r3]	@ zero_extendqisi2
 8973 00aa 012B     		cmp	r3, #1
 8974 00ac 01D8     		bhi	.L889
 8975              	.LVL1233:
 8976              	.L879:
 849:../Switch/core/yt/yt_port.c **** 
 8977              		.loc 1 849 5 discriminator 5 view .LVU2588
 849:../Switch/core/yt/yt_port.c **** 
 8978              		.loc 1 849 5 discriminator 5 view .LVU2589
 849:../Switch/core/yt/yt_port.c **** 
 8979              		.loc 1 849 5 discriminator 5 view .LVU2590
 8980 00ae 0220     		movs	r0, #2
 8981 00b0 C0E7     		b	.L867
 8982              	.LVL1234:
 8983              	.L889:
 849:../Switch/core/yt/yt_port.c **** 
 8984              		.loc 1 849 5 discriminator 3 view .LVU2591
 8985              	.LBB178:
 849:../Switch/core/yt/yt_port.c **** 
 8986              		.loc 1 849 5 discriminator 3 view .LVU2592
 8987 00b2 084B     		ldr	r3, .L890+16
 8988 00b4 9A68     		ldr	r2, [r3, #8]
 8989              	.LVL1235:
 849:../Switch/core/yt/yt_port.c **** 
 8990              		.loc 1 849 5 is_stmt 0 discriminator 3 view .LVU2593
 8991 00b6 084B     		ldr	r3, .L890+20
 8992 00b8 9968     		ldr	r1, [r3, #8]
 8993              	.LVL1236:
 849:../Switch/core/yt/yt_port.c **** 
 8994              		.loc 1 849 5 discriminator 3 view .LVU2594
 8995 00ba 0848     		ldr	r0, .L890+24
 8996 00bc FFF7FEFF 		bl	osal_printf
 8997              	.LVL1237:
 8998 00c0 F5E7     		b	.L879
 8999              	.L891:
 9000 00c2 00BF     		.align	2
 9001              	.L890:
 9002 00c4 00000000 		.word	gpfal_dispatch
 9003 00c8 00000000 		.word	gcal_inited
 9004 00cc 00000000 		.word	gpSwitchUnit
 9005 00d0 00000000 		.word	yt_debug_level
 9006 00d4 00000000 		.word	_yt_errmsg
 9007 00d8 00000000 		.word	_yt_prompt_msg
 9008 00dc 00000000 		.word	.LC0
 9009              	.LBE178:
 9010              		.cfi_endproc
 9011              	.LFE38:
 9013              		.section	.text.yt_port_cable_diag,"ax",%progbits
 9014              		.align	1
 9015              		.global	yt_port_cable_diag
 9016              		.syntax unified
 9017              		.thumb
 9018              		.thumb_func
 9020              	yt_port_cable_diag:
 9021              	.LVL1238:
 9022              	.LFB39:
 853:../Switch/core/yt/yt_port.c **** 
 854:../Switch/core/yt/yt_port.c **** /**
 855:../Switch/core/yt/yt_port.c ****  * @internal      yt_port_cable_diag
 856:../Switch/core/yt/yt_port.c ****  * @endinternal
 857:../Switch/core/yt/yt_port.c ****  *
 858:../Switch/core/yt/yt_port.c ****  * @brief         Description
 859:../Switch/core/yt/yt_port.c ****  * @note          APPLICABLE DEVICES  -Tiger
 860:../Switch/core/yt/yt_port.c ****  * @param[in]     unit                -unit id
 861:../Switch/core/yt/yt_port.c ****  * @param[in]     port                -port num
 862:../Switch/core/yt/yt_port.c ****  * @param[out]    pCableStatus        -x
 863:../Switch/core/yt/yt_port.c ****  * @retval        CMM_ERR_OK          -on success
 864:../Switch/core/yt/yt_port.c ****  * @retval        CMM_ERR_FAIL        -on fail
 865:../Switch/core/yt/yt_port.c ****  */
 866:../Switch/core/yt/yt_port.c **** yt_ret_t yt_port_cable_diag(yt_unit_t unit, yt_port_t port, yt_port_cableDiag_t *pCableStatus)
 867:../Switch/core/yt/yt_port.c **** {
 9023              		.loc 1 867 1 is_stmt 1 view -0
 9024              		.cfi_startproc
 9025              		@ args = 0, pretend = 0, frame = 0
 9026              		@ frame_needed = 0, uses_anonymous_args = 0
 9027              		.loc 1 867 1 is_stmt 0 view .LVU2596
 9028 0000 08B5     		push	{r3, lr}
 9029              		.cfi_def_cfa_offset 8
 9030              		.cfi_offset 3, -8
 9031              		.cfi_offset 14, -4
 868:../Switch/core/yt/yt_port.c ****     CMM_PARAM_CHK((YT_UNIT_NUM <= unit), CMM_ERR_INPUT);
 9032              		.loc 1 868 5 is_stmt 1 view .LVU2597
 9033              		.loc 1 868 5 view .LVU2598
 9034 0002 C0B9     		cbnz	r0, .L906
 9035 0004 8446     		mov	ip, r0
 9036              		.loc 1 868 5 discriminator 2 view .LVU2599
 869:../Switch/core/yt/yt_port.c ****     CMM_PARAM_CHK(NULL == YT_DISPATCH(unit), CMM_ERR_NOT_INIT);
 9037              		.loc 1 869 5 discriminator 2 view .LVU2600
 9038              		.loc 1 869 5 discriminator 2 view .LVU2601
 9039 0006 2F4B     		ldr	r3, .L915
 9040 0008 53F82030 		ldr	r3, [r3, r0, lsl #2]
 9041 000c 0BB3     		cbz	r3, .L907
 9042              		.loc 1 869 5 discriminator 2 view .LVU2602
 870:../Switch/core/yt/yt_port.c ****     CMM_PARAM_CHK((!(YT_DISPATCH(unit)->is_inited)), CMM_ERR_NOT_INIT);
 9043              		.loc 1 870 5 discriminator 2 view .LVU2603
 9044              		.loc 1 870 5 discriminator 2 view .LVU2604
 9045 000e 1878     		ldrb	r0, [r3]	@ zero_extendqisi2
 9046              	.LVL1239:
 9047              		.loc 1 870 5 is_stmt 0 discriminator 2 view .LVU2605
 9048 0010 0028     		cmp	r0, #0
 9049 0012 2CD0     		beq	.L908
 9050              		.loc 1 870 5 is_stmt 1 discriminator 2 view .LVU2606
 871:../Switch/core/yt/yt_port.c ****     CMM_PARAM_CHK((!(CMM_PORT_VALID(unit, port))), CMM_ERR_PORT);
 9051              		.loc 1 871 5 discriminator 2 view .LVU2607
 9052              		.loc 1 871 5 discriminator 2 view .LVU2608
 9053 0014 2C48     		ldr	r0, .L915+4
 9054 0016 0078     		ldrb	r0, [r0]	@ zero_extendqisi2
 9055 0018 0028     		cmp	r0, #0
 9056 001a 36D0     		beq	.L900
 9057 001c 2B48     		ldr	r0, .L915+8
 9058 001e 50F82C00 		ldr	r0, [r0, ip, lsl #2]
 9059 0022 007D     		ldrb	r0, [r0, #20]	@ zero_extendqisi2
 9060 0024 8842     		cmp	r0, r1
 9061 0026 30D9     		bls	.L900
 9062              		.loc 1 871 5 discriminator 4 view .LVU2609
 872:../Switch/core/yt/yt_port.c ****     CMM_PARAM_CHK((NULL == pCableStatus), CMM_ERR_NULL_POINT);
 9063              		.loc 1 872 5 discriminator 4 view .LVU2610
 9064              		.loc 1 872 5 discriminator 4 view .LVU2611
 9065 0028 002A     		cmp	r2, #0
 9066 002a 3CD0     		beq	.L909
 9067              		.loc 1 872 5 discriminator 2 view .LVU2612
 873:../Switch/core/yt/yt_port.c **** 
 874:../Switch/core/yt/yt_port.c ****     return YT_DISPATCH(unit)->port_cable_diag(unit, port, pCableStatus);
 9068              		.loc 1 874 5 discriminator 2 view .LVU2613
 9069              		.loc 1 874 29 is_stmt 0 discriminator 2 view .LVU2614
 9070 002c D3F8E835 		ldr	r3, [r3, #1512]
 9071              		.loc 1 874 12 discriminator 2 view .LVU2615
 9072 0030 6046     		mov	r0, ip
 9073 0032 9847     		blx	r3
 9074              	.LVL1240:
 9075              	.L892:
 875:../Switch/core/yt/yt_port.c **** }
 9076              		.loc 1 875 1 view .LVU2616
 9077 0034 08BD     		pop	{r3, pc}
 9078              	.LVL1241:
 9079              	.L906:
 868:../Switch/core/yt/yt_port.c ****     CMM_PARAM_CHK(NULL == YT_DISPATCH(unit), CMM_ERR_NOT_INIT);
 9080              		.loc 1 868 5 is_stmt 1 discriminator 1 view .LVU2617
 868:../Switch/core/yt/yt_port.c ****     CMM_PARAM_CHK(NULL == YT_DISPATCH(unit), CMM_ERR_NOT_INIT);
 9081              		.loc 1 868 5 discriminator 1 view .LVU2618
 9082 0036 264B     		ldr	r3, .L915+12
 9083 0038 1B78     		ldrb	r3, [r3]	@ zero_extendqisi2
 9084 003a 012B     		cmp	r3, #1
 9085 003c 01D8     		bhi	.L910
 9086              	.LVL1242:
 9087              	.L894:
 868:../Switch/core/yt/yt_port.c ****     CMM_PARAM_CHK(NULL == YT_DISPATCH(unit), CMM_ERR_NOT_INIT);
 9088              		.loc 1 868 5 discriminator 5 view .LVU2619
 868:../Switch/core/yt/yt_port.c ****     CMM_PARAM_CHK(NULL == YT_DISPATCH(unit), CMM_ERR_NOT_INIT);
 9089              		.loc 1 868 5 discriminator 5 view .LVU2620
 868:../Switch/core/yt/yt_port.c ****     CMM_PARAM_CHK(NULL == YT_DISPATCH(unit), CMM_ERR_NOT_INIT);
 9090              		.loc 1 868 5 discriminator 5 view .LVU2621
 9091 003e 0520     		movs	r0, #5
 9092 0040 F8E7     		b	.L892
 9093              	.LVL1243:
 9094              	.L910:
 868:../Switch/core/yt/yt_port.c ****     CMM_PARAM_CHK(NULL == YT_DISPATCH(unit), CMM_ERR_NOT_INIT);
 9095              		.loc 1 868 5 discriminator 3 view .LVU2622
 9096              	.LBB179:
 868:../Switch/core/yt/yt_port.c ****     CMM_PARAM_CHK(NULL == YT_DISPATCH(unit), CMM_ERR_NOT_INIT);
 9097              		.loc 1 868 5 discriminator 3 view .LVU2623
 9098 0042 244B     		ldr	r3, .L915+16
 9099 0044 5A69     		ldr	r2, [r3, #20]
 9100              	.LVL1244:
 868:../Switch/core/yt/yt_port.c ****     CMM_PARAM_CHK(NULL == YT_DISPATCH(unit), CMM_ERR_NOT_INIT);
 9101              		.loc 1 868 5 is_stmt 0 discriminator 3 view .LVU2624
 9102 0046 244B     		ldr	r3, .L915+20
 9103 0048 9968     		ldr	r1, [r3, #8]
 9104              	.LVL1245:
 868:../Switch/core/yt/yt_port.c ****     CMM_PARAM_CHK(NULL == YT_DISPATCH(unit), CMM_ERR_NOT_INIT);
 9105              		.loc 1 868 5 discriminator 3 view .LVU2625
 9106 004a 2448     		ldr	r0, .L915+24
 9107              	.LVL1246:
 868:../Switch/core/yt/yt_port.c ****     CMM_PARAM_CHK(NULL == YT_DISPATCH(unit), CMM_ERR_NOT_INIT);
 9108              		.loc 1 868 5 discriminator 3 view .LVU2626
 9109 004c FFF7FEFF 		bl	osal_printf
 9110              	.LVL1247:
 9111 0050 F5E7     		b	.L894
 9112              	.LVL1248:
 9113              	.L907:
 868:../Switch/core/yt/yt_port.c ****     CMM_PARAM_CHK(NULL == YT_DISPATCH(unit), CMM_ERR_NOT_INIT);
 9114              		.loc 1 868 5 discriminator 3 view .LVU2627
 9115              	.LBE179:
 869:../Switch/core/yt/yt_port.c ****     CMM_PARAM_CHK((!(YT_DISPATCH(unit)->is_inited)), CMM_ERR_NOT_INIT);
 9116              		.loc 1 869 5 is_stmt 1 discriminator 1 view .LVU2628
 869:../Switch/core/yt/yt_port.c ****     CMM_PARAM_CHK((!(YT_DISPATCH(unit)->is_inited)), CMM_ERR_NOT_INIT);
 9117              		.loc 1 869 5 discriminator 1 view .LVU2629
 9118 0052 1F4B     		ldr	r3, .L915+12
 9119 0054 1B78     		ldrb	r3, [r3]	@ zero_extendqisi2
 9120 0056 012B     		cmp	r3, #1
 9121 0058 01D8     		bhi	.L911
 9122              	.LVL1249:
 9123              	.L897:
 869:../Switch/core/yt/yt_port.c ****     CMM_PARAM_CHK((!(YT_DISPATCH(unit)->is_inited)), CMM_ERR_NOT_INIT);
 9124              		.loc 1 869 5 discriminator 5 view .LVU2630
 869:../Switch/core/yt/yt_port.c ****     CMM_PARAM_CHK((!(YT_DISPATCH(unit)->is_inited)), CMM_ERR_NOT_INIT);
 9125              		.loc 1 869 5 discriminator 5 view .LVU2631
 869:../Switch/core/yt/yt_port.c ****     CMM_PARAM_CHK((!(YT_DISPATCH(unit)->is_inited)), CMM_ERR_NOT_INIT);
 9126              		.loc 1 869 5 discriminator 5 view .LVU2632
 9127 005a 0420     		movs	r0, #4
 9128 005c EAE7     		b	.L892
 9129              	.LVL1250:
 9130              	.L911:
 869:../Switch/core/yt/yt_port.c ****     CMM_PARAM_CHK((!(YT_DISPATCH(unit)->is_inited)), CMM_ERR_NOT_INIT);
 9131              		.loc 1 869 5 discriminator 3 view .LVU2633
 9132              	.LBB180:
 869:../Switch/core/yt/yt_port.c ****     CMM_PARAM_CHK((!(YT_DISPATCH(unit)->is_inited)), CMM_ERR_NOT_INIT);
 9133              		.loc 1 869 5 discriminator 3 view .LVU2634
 9134 005e 1D4B     		ldr	r3, .L915+16
 9135 0060 1A69     		ldr	r2, [r3, #16]
 9136              	.LVL1251:
 869:../Switch/core/yt/yt_port.c ****     CMM_PARAM_CHK((!(YT_DISPATCH(unit)->is_inited)), CMM_ERR_NOT_INIT);
 9137              		.loc 1 869 5 is_stmt 0 discriminator 3 view .LVU2635
 9138 0062 1D4B     		ldr	r3, .L915+20
 9139 0064 9968     		ldr	r1, [r3, #8]
 9140              	.LVL1252:
 869:../Switch/core/yt/yt_port.c ****     CMM_PARAM_CHK((!(YT_DISPATCH(unit)->is_inited)), CMM_ERR_NOT_INIT);
 9141              		.loc 1 869 5 discriminator 3 view .LVU2636
 9142 0066 1D48     		ldr	r0, .L915+24
 9143              	.LVL1253:
 869:../Switch/core/yt/yt_port.c ****     CMM_PARAM_CHK((!(YT_DISPATCH(unit)->is_inited)), CMM_ERR_NOT_INIT);
 9144              		.loc 1 869 5 discriminator 3 view .LVU2637
 9145 0068 FFF7FEFF 		bl	osal_printf
 9146              	.LVL1254:
 9147 006c F5E7     		b	.L897
 9148              	.LVL1255:
 9149              	.L908:
 869:../Switch/core/yt/yt_port.c ****     CMM_PARAM_CHK((!(YT_DISPATCH(unit)->is_inited)), CMM_ERR_NOT_INIT);
 9150              		.loc 1 869 5 discriminator 3 view .LVU2638
 9151              	.LBE180:
 870:../Switch/core/yt/yt_port.c ****     CMM_PARAM_CHK((!(CMM_PORT_VALID(unit, port))), CMM_ERR_PORT);
 9152              		.loc 1 870 5 is_stmt 1 discriminator 1 view .LVU2639
 870:../Switch/core/yt/yt_port.c ****     CMM_PARAM_CHK((!(CMM_PORT_VALID(unit, port))), CMM_ERR_PORT);
 9153              		.loc 1 870 5 discriminator 1 view .LVU2640
 9154 006e 184B     		ldr	r3, .L915+12
 9155 0070 1B78     		ldrb	r3, [r3]	@ zero_extendqisi2
 9156 0072 012B     		cmp	r3, #1
 9157 0074 01D8     		bhi	.L912
 9158              	.LVL1256:
 9159              	.L899:
 870:../Switch/core/yt/yt_port.c ****     CMM_PARAM_CHK((!(CMM_PORT_VALID(unit, port))), CMM_ERR_PORT);
 9160              		.loc 1 870 5 discriminator 5 view .LVU2641
 870:../Switch/core/yt/yt_port.c ****     CMM_PARAM_CHK((!(CMM_PORT_VALID(unit, port))), CMM_ERR_PORT);
 9161              		.loc 1 870 5 discriminator 5 view .LVU2642
 870:../Switch/core/yt/yt_port.c ****     CMM_PARAM_CHK((!(CMM_PORT_VALID(unit, port))), CMM_ERR_PORT);
 9162              		.loc 1 870 5 discriminator 5 view .LVU2643
 9163 0076 0420     		movs	r0, #4
 9164 0078 DCE7     		b	.L892
 9165              	.LVL1257:
 9166              	.L912:
 870:../Switch/core/yt/yt_port.c ****     CMM_PARAM_CHK((!(CMM_PORT_VALID(unit, port))), CMM_ERR_PORT);
 9167              		.loc 1 870 5 discriminator 3 view .LVU2644
 9168              	.LBB181:
 870:../Switch/core/yt/yt_port.c ****     CMM_PARAM_CHK((!(CMM_PORT_VALID(unit, port))), CMM_ERR_PORT);
 9169              		.loc 1 870 5 discriminator 3 view .LVU2645
 9170 007a 164B     		ldr	r3, .L915+16
 9171 007c 1A69     		ldr	r2, [r3, #16]
 9172              	.LVL1258:
 870:../Switch/core/yt/yt_port.c ****     CMM_PARAM_CHK((!(CMM_PORT_VALID(unit, port))), CMM_ERR_PORT);
 9173              		.loc 1 870 5 is_stmt 0 discriminator 3 view .LVU2646
 9174 007e 164B     		ldr	r3, .L915+20
 9175 0080 9968     		ldr	r1, [r3, #8]
 9176              	.LVL1259:
 870:../Switch/core/yt/yt_port.c ****     CMM_PARAM_CHK((!(CMM_PORT_VALID(unit, port))), CMM_ERR_PORT);
 9177              		.loc 1 870 5 discriminator 3 view .LVU2647
 9178 0082 1648     		ldr	r0, .L915+24
 9179 0084 FFF7FEFF 		bl	osal_printf
 9180              	.LVL1260:
 9181 0088 F5E7     		b	.L899
 9182              	.LVL1261:
 9183              	.L900:
 870:../Switch/core/yt/yt_port.c ****     CMM_PARAM_CHK((!(CMM_PORT_VALID(unit, port))), CMM_ERR_PORT);
 9184              		.loc 1 870 5 discriminator 3 view .LVU2648
 9185              	.LBE181:
 871:../Switch/core/yt/yt_port.c ****     CMM_PARAM_CHK((NULL == pCableStatus), CMM_ERR_NULL_POINT);
 9186              		.loc 1 871 5 is_stmt 1 discriminator 3 view .LVU2649
 871:../Switch/core/yt/yt_port.c ****     CMM_PARAM_CHK((NULL == pCableStatus), CMM_ERR_NULL_POINT);
 9187              		.loc 1 871 5 discriminator 3 view .LVU2650
 9188 008a 114B     		ldr	r3, .L915+12
 9189 008c 1B78     		ldrb	r3, [r3]	@ zero_extendqisi2
 9190 008e 012B     		cmp	r3, #1
 9191 0090 01D8     		bhi	.L913
 9192              	.LVL1262:
 9193              	.L902:
 871:../Switch/core/yt/yt_port.c ****     CMM_PARAM_CHK((NULL == pCableStatus), CMM_ERR_NULL_POINT);
 9194              		.loc 1 871 5 discriminator 7 view .LVU2651
 871:../Switch/core/yt/yt_port.c ****     CMM_PARAM_CHK((NULL == pCableStatus), CMM_ERR_NULL_POINT);
 9195              		.loc 1 871 5 discriminator 7 view .LVU2652
 871:../Switch/core/yt/yt_port.c ****     CMM_PARAM_CHK((NULL == pCableStatus), CMM_ERR_NULL_POINT);
 9196              		.loc 1 871 5 discriminator 7 view .LVU2653
 9197 0092 0E20     		movs	r0, #14
 9198 0094 CEE7     		b	.L892
 9199              	.LVL1263:
 9200              	.L913:
 871:../Switch/core/yt/yt_port.c ****     CMM_PARAM_CHK((NULL == pCableStatus), CMM_ERR_NULL_POINT);
 9201              		.loc 1 871 5 discriminator 5 view .LVU2654
 9202              	.LBB182:
 871:../Switch/core/yt/yt_port.c ****     CMM_PARAM_CHK((NULL == pCableStatus), CMM_ERR_NULL_POINT);
 9203              		.loc 1 871 5 discriminator 5 view .LVU2655
 9204 0096 0F4B     		ldr	r3, .L915+16
 9205 0098 9A6B     		ldr	r2, [r3, #56]
 9206              	.LVL1264:
 871:../Switch/core/yt/yt_port.c ****     CMM_PARAM_CHK((NULL == pCableStatus), CMM_ERR_NULL_POINT);
 9207              		.loc 1 871 5 is_stmt 0 discriminator 5 view .LVU2656
 9208 009a 0F4B     		ldr	r3, .L915+20
 9209 009c 9968     		ldr	r1, [r3, #8]
 9210              	.LVL1265:
 871:../Switch/core/yt/yt_port.c ****     CMM_PARAM_CHK((NULL == pCableStatus), CMM_ERR_NULL_POINT);
 9211              		.loc 1 871 5 discriminator 5 view .LVU2657
 9212 009e 0F48     		ldr	r0, .L915+24
 9213 00a0 FFF7FEFF 		bl	osal_printf
 9214              	.LVL1266:
 9215 00a4 F5E7     		b	.L902
 9216              	.LVL1267:
 9217              	.L909:
 871:../Switch/core/yt/yt_port.c ****     CMM_PARAM_CHK((NULL == pCableStatus), CMM_ERR_NULL_POINT);
 9218              		.loc 1 871 5 discriminator 5 view .LVU2658
 9219              	.LBE182:
 872:../Switch/core/yt/yt_port.c **** 
 9220              		.loc 1 872 5 is_stmt 1 discriminator 1 view .LVU2659
 872:../Switch/core/yt/yt_port.c **** 
 9221              		.loc 1 872 5 discriminator 1 view .LVU2660
 9222 00a6 0A4B     		ldr	r3, .L915+12
 9223 00a8 1B78     		ldrb	r3, [r3]	@ zero_extendqisi2
 9224 00aa 012B     		cmp	r3, #1
 9225 00ac 01D8     		bhi	.L914
 9226              	.LVL1268:
 9227              	.L904:
 872:../Switch/core/yt/yt_port.c **** 
 9228              		.loc 1 872 5 discriminator 5 view .LVU2661
 872:../Switch/core/yt/yt_port.c **** 
 9229              		.loc 1 872 5 discriminator 5 view .LVU2662
 872:../Switch/core/yt/yt_port.c **** 
 9230              		.loc 1 872 5 discriminator 5 view .LVU2663
 9231 00ae 0220     		movs	r0, #2
 9232 00b0 C0E7     		b	.L892
 9233              	.LVL1269:
 9234              	.L914:
 872:../Switch/core/yt/yt_port.c **** 
 9235              		.loc 1 872 5 discriminator 3 view .LVU2664
 9236              	.LBB183:
 872:../Switch/core/yt/yt_port.c **** 
 9237              		.loc 1 872 5 discriminator 3 view .LVU2665
 9238 00b2 084B     		ldr	r3, .L915+16
 9239 00b4 9A68     		ldr	r2, [r3, #8]
 9240              	.LVL1270:
 872:../Switch/core/yt/yt_port.c **** 
 9241              		.loc 1 872 5 is_stmt 0 discriminator 3 view .LVU2666
 9242 00b6 084B     		ldr	r3, .L915+20
 9243 00b8 9968     		ldr	r1, [r3, #8]
 9244              	.LVL1271:
 872:../Switch/core/yt/yt_port.c **** 
 9245              		.loc 1 872 5 discriminator 3 view .LVU2667
 9246 00ba 0848     		ldr	r0, .L915+24
 9247 00bc FFF7FEFF 		bl	osal_printf
 9248              	.LVL1272:
 9249 00c0 F5E7     		b	.L904
 9250              	.L916:
 9251 00c2 00BF     		.align	2
 9252              	.L915:
 9253 00c4 00000000 		.word	gpfal_dispatch
 9254 00c8 00000000 		.word	gcal_inited
 9255 00cc 00000000 		.word	gpSwitchUnit
 9256 00d0 00000000 		.word	yt_debug_level
 9257 00d4 00000000 		.word	_yt_errmsg
 9258 00d8 00000000 		.word	_yt_prompt_msg
 9259 00dc 00000000 		.word	.LC0
 9260              	.LBE183:
 9261              		.cfi_endproc
 9262              	.LFE39:
 9264              		.section	.text.yt_port_phyCrossover_mode_set,"ax",%progbits
 9265              		.align	1
 9266              		.global	yt_port_phyCrossover_mode_set
 9267              		.syntax unified
 9268              		.thumb
 9269              		.thumb_func
 9271              	yt_port_phyCrossover_mode_set:
 9272              	.LVL1273:
 9273              	.LFB40:
 876:../Switch/core/yt/yt_port.c **** 
 877:../Switch/core/yt/yt_port.c **** /**
 878:../Switch/core/yt/yt_port.c ****  * @internal      yt_port_phyCrossover_mode_set
 879:../Switch/core/yt/yt_port.c ****  * @endinternal
 880:../Switch/core/yt/yt_port.c ****  *
 881:../Switch/core/yt/yt_port.c ****  * @brief         Description
 882:../Switch/core/yt/yt_port.c ****  * @note          APPLICABLE DEVICES  -Tiger
 883:../Switch/core/yt/yt_port.c ****  * @param[in]     unit                -unit id
 884:../Switch/core/yt/yt_port.c ****  * @param[in]     port                -port num
 885:../Switch/core/yt/yt_port.c ****  * @param[in]     mode                -x
 886:../Switch/core/yt/yt_port.c ****  * @retval        CMM_ERR_OK          -on success
 887:../Switch/core/yt/yt_port.c ****  * @retval        CMM_ERR_FAIL        -on fail
 888:../Switch/core/yt/yt_port.c ****  */
 889:../Switch/core/yt/yt_port.c **** yt_ret_t yt_port_phyCrossover_mode_set(yt_unit_t unit, yt_port_t port, yt_utp_crossover_mode_t mode
 890:../Switch/core/yt/yt_port.c **** {
 9274              		.loc 1 890 1 is_stmt 1 view -0
 9275              		.cfi_startproc
 9276              		@ args = 0, pretend = 0, frame = 0
 9277              		@ frame_needed = 0, uses_anonymous_args = 0
 9278              		.loc 1 890 1 is_stmt 0 view .LVU2669
 9279 0000 08B5     		push	{r3, lr}
 9280              		.cfi_def_cfa_offset 8
 9281              		.cfi_offset 3, -8
 9282              		.cfi_offset 14, -4
 891:../Switch/core/yt/yt_port.c ****     CMM_PARAM_CHK((YT_UNIT_NUM <= unit), CMM_ERR_INPUT);
 9283              		.loc 1 891 5 is_stmt 1 view .LVU2670
 9284              		.loc 1 891 5 view .LVU2671
 9285 0002 A8B9     		cbnz	r0, .L929
 9286 0004 8446     		mov	ip, r0
 9287              		.loc 1 891 5 discriminator 2 view .LVU2672
 892:../Switch/core/yt/yt_port.c ****     CMM_PARAM_CHK(NULL == YT_DISPATCH(unit), CMM_ERR_NOT_INIT);
 9288              		.loc 1 892 5 discriminator 2 view .LVU2673
 9289              		.loc 1 892 5 discriminator 2 view .LVU2674
 9290 0006 264B     		ldr	r3, .L936
 9291 0008 53F82030 		ldr	r3, [r3, r0, lsl #2]
 9292 000c F3B1     		cbz	r3, .L930
 9293              		.loc 1 892 5 discriminator 2 view .LVU2675
 893:../Switch/core/yt/yt_port.c ****     CMM_PARAM_CHK((!(YT_DISPATCH(unit)->is_inited)), CMM_ERR_NOT_INIT);
 9294              		.loc 1 893 5 discriminator 2 view .LVU2676
 9295              		.loc 1 893 5 discriminator 2 view .LVU2677
 9296 000e 1878     		ldrb	r0, [r3]	@ zero_extendqisi2
 9297              	.LVL1274:
 9298              		.loc 1 893 5 is_stmt 0 discriminator 2 view .LVU2678
 9299 0010 50B3     		cbz	r0, .L931
 9300              		.loc 1 893 5 is_stmt 1 discriminator 2 view .LVU2679
 894:../Switch/core/yt/yt_port.c ****     CMM_PARAM_CHK((!(CMM_PORT_VALID(unit, port))), CMM_ERR_PORT);
 9301              		.loc 1 894 5 discriminator 2 view .LVU2680
 9302              		.loc 1 894 5 discriminator 2 view .LVU2681
 9303 0012 2448     		ldr	r0, .L936+4
 9304 0014 0078     		ldrb	r0, [r0]	@ zero_extendqisi2
 9305 0016 0028     		cmp	r0, #0
 9306 0018 34D0     		beq	.L925
 9307 001a 2348     		ldr	r0, .L936+8
 9308 001c 50F82C00 		ldr	r0, [r0, ip, lsl #2]
 9309 0020 007D     		ldrb	r0, [r0, #20]	@ zero_extendqisi2
 9310 0022 8842     		cmp	r0, r1
 9311 0024 2ED9     		bls	.L925
 9312              		.loc 1 894 5 discriminator 4 view .LVU2682
 895:../Switch/core/yt/yt_port.c **** 
 896:../Switch/core/yt/yt_port.c ****     return YT_DISPATCH(unit)->port_phyCrossover_mode_set(unit, port, mode);
 9313              		.loc 1 896 5 discriminator 4 view .LVU2683
 9314              		.loc 1 896 29 is_stmt 0 discriminator 4 view .LVU2684
 9315 0026 D3F8EC35 		ldr	r3, [r3, #1516]
 9316              		.loc 1 896 12 discriminator 4 view .LVU2685
 9317 002a 6046     		mov	r0, ip
 9318 002c 9847     		blx	r3
 9319              	.LVL1275:
 9320              	.L917:
 897:../Switch/core/yt/yt_port.c **** }
 9321              		.loc 1 897 1 view .LVU2686
 9322 002e 08BD     		pop	{r3, pc}
 9323              	.LVL1276:
 9324              	.L929:
 891:../Switch/core/yt/yt_port.c ****     CMM_PARAM_CHK(NULL == YT_DISPATCH(unit), CMM_ERR_NOT_INIT);
 9325              		.loc 1 891 5 is_stmt 1 discriminator 1 view .LVU2687
 891:../Switch/core/yt/yt_port.c ****     CMM_PARAM_CHK(NULL == YT_DISPATCH(unit), CMM_ERR_NOT_INIT);
 9326              		.loc 1 891 5 discriminator 1 view .LVU2688
 9327 0030 1E4B     		ldr	r3, .L936+12
 9328 0032 1B78     		ldrb	r3, [r3]	@ zero_extendqisi2
 9329 0034 012B     		cmp	r3, #1
 9330 0036 01D8     		bhi	.L932
 9331              	.LVL1277:
 9332              	.L919:
 891:../Switch/core/yt/yt_port.c ****     CMM_PARAM_CHK(NULL == YT_DISPATCH(unit), CMM_ERR_NOT_INIT);
 9333              		.loc 1 891 5 discriminator 5 view .LVU2689
 891:../Switch/core/yt/yt_port.c ****     CMM_PARAM_CHK(NULL == YT_DISPATCH(unit), CMM_ERR_NOT_INIT);
 9334              		.loc 1 891 5 discriminator 5 view .LVU2690
 891:../Switch/core/yt/yt_port.c ****     CMM_PARAM_CHK(NULL == YT_DISPATCH(unit), CMM_ERR_NOT_INIT);
 9335              		.loc 1 891 5 discriminator 5 view .LVU2691
 9336 0038 0520     		movs	r0, #5
 9337 003a F8E7     		b	.L917
 9338              	.LVL1278:
 9339              	.L932:
 891:../Switch/core/yt/yt_port.c ****     CMM_PARAM_CHK(NULL == YT_DISPATCH(unit), CMM_ERR_NOT_INIT);
 9340              		.loc 1 891 5 discriminator 3 view .LVU2692
 9341              	.LBB184:
 891:../Switch/core/yt/yt_port.c ****     CMM_PARAM_CHK(NULL == YT_DISPATCH(unit), CMM_ERR_NOT_INIT);
 9342              		.loc 1 891 5 discriminator 3 view .LVU2693
 9343 003c 1C4B     		ldr	r3, .L936+16
 9344 003e 5A69     		ldr	r2, [r3, #20]
 9345              	.LVL1279:
 891:../Switch/core/yt/yt_port.c ****     CMM_PARAM_CHK(NULL == YT_DISPATCH(unit), CMM_ERR_NOT_INIT);
 9346              		.loc 1 891 5 is_stmt 0 discriminator 3 view .LVU2694
 9347 0040 1C4B     		ldr	r3, .L936+20
 9348 0042 9968     		ldr	r1, [r3, #8]
 9349              	.LVL1280:
 891:../Switch/core/yt/yt_port.c ****     CMM_PARAM_CHK(NULL == YT_DISPATCH(unit), CMM_ERR_NOT_INIT);
 9350              		.loc 1 891 5 discriminator 3 view .LVU2695
 9351 0044 1C48     		ldr	r0, .L936+24
 9352              	.LVL1281:
 891:../Switch/core/yt/yt_port.c ****     CMM_PARAM_CHK(NULL == YT_DISPATCH(unit), CMM_ERR_NOT_INIT);
 9353              		.loc 1 891 5 discriminator 3 view .LVU2696
 9354 0046 FFF7FEFF 		bl	osal_printf
 9355              	.LVL1282:
 9356 004a F5E7     		b	.L919
 9357              	.LVL1283:
 9358              	.L930:
 891:../Switch/core/yt/yt_port.c ****     CMM_PARAM_CHK(NULL == YT_DISPATCH(unit), CMM_ERR_NOT_INIT);
 9359              		.loc 1 891 5 discriminator 3 view .LVU2697
 9360              	.LBE184:
 892:../Switch/core/yt/yt_port.c ****     CMM_PARAM_CHK((!(YT_DISPATCH(unit)->is_inited)), CMM_ERR_NOT_INIT);
 9361              		.loc 1 892 5 is_stmt 1 discriminator 1 view .LVU2698
 892:../Switch/core/yt/yt_port.c ****     CMM_PARAM_CHK((!(YT_DISPATCH(unit)->is_inited)), CMM_ERR_NOT_INIT);
 9362              		.loc 1 892 5 discriminator 1 view .LVU2699
 9363 004c 174B     		ldr	r3, .L936+12
 9364 004e 1B78     		ldrb	r3, [r3]	@ zero_extendqisi2
 9365 0050 012B     		cmp	r3, #1
 9366 0052 01D8     		bhi	.L933
 9367              	.LVL1284:
 9368              	.L922:
 892:../Switch/core/yt/yt_port.c ****     CMM_PARAM_CHK((!(YT_DISPATCH(unit)->is_inited)), CMM_ERR_NOT_INIT);
 9369              		.loc 1 892 5 discriminator 5 view .LVU2700
 892:../Switch/core/yt/yt_port.c ****     CMM_PARAM_CHK((!(YT_DISPATCH(unit)->is_inited)), CMM_ERR_NOT_INIT);
 9370              		.loc 1 892 5 discriminator 5 view .LVU2701
 892:../Switch/core/yt/yt_port.c ****     CMM_PARAM_CHK((!(YT_DISPATCH(unit)->is_inited)), CMM_ERR_NOT_INIT);
 9371              		.loc 1 892 5 discriminator 5 view .LVU2702
 9372 0054 0420     		movs	r0, #4
 9373 0056 EAE7     		b	.L917
 9374              	.LVL1285:
 9375              	.L933:
 892:../Switch/core/yt/yt_port.c ****     CMM_PARAM_CHK((!(YT_DISPATCH(unit)->is_inited)), CMM_ERR_NOT_INIT);
 9376              		.loc 1 892 5 discriminator 3 view .LVU2703
 9377              	.LBB185:
 892:../Switch/core/yt/yt_port.c ****     CMM_PARAM_CHK((!(YT_DISPATCH(unit)->is_inited)), CMM_ERR_NOT_INIT);
 9378              		.loc 1 892 5 discriminator 3 view .LVU2704
 9379 0058 154B     		ldr	r3, .L936+16
 9380 005a 1A69     		ldr	r2, [r3, #16]
 9381              	.LVL1286:
 892:../Switch/core/yt/yt_port.c ****     CMM_PARAM_CHK((!(YT_DISPATCH(unit)->is_inited)), CMM_ERR_NOT_INIT);
 9382              		.loc 1 892 5 is_stmt 0 discriminator 3 view .LVU2705
 9383 005c 154B     		ldr	r3, .L936+20
 9384 005e 9968     		ldr	r1, [r3, #8]
 9385              	.LVL1287:
 892:../Switch/core/yt/yt_port.c ****     CMM_PARAM_CHK((!(YT_DISPATCH(unit)->is_inited)), CMM_ERR_NOT_INIT);
 9386              		.loc 1 892 5 discriminator 3 view .LVU2706
 9387 0060 1548     		ldr	r0, .L936+24
 9388              	.LVL1288:
 892:../Switch/core/yt/yt_port.c ****     CMM_PARAM_CHK((!(YT_DISPATCH(unit)->is_inited)), CMM_ERR_NOT_INIT);
 9389              		.loc 1 892 5 discriminator 3 view .LVU2707
 9390 0062 FFF7FEFF 		bl	osal_printf
 9391              	.LVL1289:
 9392 0066 F5E7     		b	.L922
 9393              	.LVL1290:
 9394              	.L931:
 892:../Switch/core/yt/yt_port.c ****     CMM_PARAM_CHK((!(YT_DISPATCH(unit)->is_inited)), CMM_ERR_NOT_INIT);
 9395              		.loc 1 892 5 discriminator 3 view .LVU2708
 9396              	.LBE185:
 893:../Switch/core/yt/yt_port.c ****     CMM_PARAM_CHK((!(CMM_PORT_VALID(unit, port))), CMM_ERR_PORT);
 9397              		.loc 1 893 5 is_stmt 1 discriminator 1 view .LVU2709
 893:../Switch/core/yt/yt_port.c ****     CMM_PARAM_CHK((!(CMM_PORT_VALID(unit, port))), CMM_ERR_PORT);
 9398              		.loc 1 893 5 discriminator 1 view .LVU2710
 9399 0068 104B     		ldr	r3, .L936+12
 9400 006a 1B78     		ldrb	r3, [r3]	@ zero_extendqisi2
 9401 006c 012B     		cmp	r3, #1
 9402 006e 01D8     		bhi	.L934
 9403              	.LVL1291:
 9404              	.L924:
 893:../Switch/core/yt/yt_port.c ****     CMM_PARAM_CHK((!(CMM_PORT_VALID(unit, port))), CMM_ERR_PORT);
 9405              		.loc 1 893 5 discriminator 5 view .LVU2711
 893:../Switch/core/yt/yt_port.c ****     CMM_PARAM_CHK((!(CMM_PORT_VALID(unit, port))), CMM_ERR_PORT);
 9406              		.loc 1 893 5 discriminator 5 view .LVU2712
 893:../Switch/core/yt/yt_port.c ****     CMM_PARAM_CHK((!(CMM_PORT_VALID(unit, port))), CMM_ERR_PORT);
 9407              		.loc 1 893 5 discriminator 5 view .LVU2713
 9408 0070 0420     		movs	r0, #4
 9409 0072 DCE7     		b	.L917
 9410              	.LVL1292:
 9411              	.L934:
 893:../Switch/core/yt/yt_port.c ****     CMM_PARAM_CHK((!(CMM_PORT_VALID(unit, port))), CMM_ERR_PORT);
 9412              		.loc 1 893 5 discriminator 3 view .LVU2714
 9413              	.LBB186:
 893:../Switch/core/yt/yt_port.c ****     CMM_PARAM_CHK((!(CMM_PORT_VALID(unit, port))), CMM_ERR_PORT);
 9414              		.loc 1 893 5 discriminator 3 view .LVU2715
 9415 0074 0E4B     		ldr	r3, .L936+16
 9416 0076 1A69     		ldr	r2, [r3, #16]
 9417              	.LVL1293:
 893:../Switch/core/yt/yt_port.c ****     CMM_PARAM_CHK((!(CMM_PORT_VALID(unit, port))), CMM_ERR_PORT);
 9418              		.loc 1 893 5 is_stmt 0 discriminator 3 view .LVU2716
 9419 0078 0E4B     		ldr	r3, .L936+20
 9420 007a 9968     		ldr	r1, [r3, #8]
 9421              	.LVL1294:
 893:../Switch/core/yt/yt_port.c ****     CMM_PARAM_CHK((!(CMM_PORT_VALID(unit, port))), CMM_ERR_PORT);
 9422              		.loc 1 893 5 discriminator 3 view .LVU2717
 9423 007c 0E48     		ldr	r0, .L936+24
 9424 007e FFF7FEFF 		bl	osal_printf
 9425              	.LVL1295:
 9426 0082 F5E7     		b	.L924
 9427              	.LVL1296:
 9428              	.L925:
 893:../Switch/core/yt/yt_port.c ****     CMM_PARAM_CHK((!(CMM_PORT_VALID(unit, port))), CMM_ERR_PORT);
 9429              		.loc 1 893 5 discriminator 3 view .LVU2718
 9430              	.LBE186:
 894:../Switch/core/yt/yt_port.c **** 
 9431              		.loc 1 894 5 is_stmt 1 discriminator 3 view .LVU2719
 894:../Switch/core/yt/yt_port.c **** 
 9432              		.loc 1 894 5 discriminator 3 view .LVU2720
 9433 0084 094B     		ldr	r3, .L936+12
 9434 0086 1B78     		ldrb	r3, [r3]	@ zero_extendqisi2
 9435 0088 012B     		cmp	r3, #1
 9436 008a 01D8     		bhi	.L935
 9437              	.LVL1297:
 9438              	.L927:
 894:../Switch/core/yt/yt_port.c **** 
 9439              		.loc 1 894 5 discriminator 7 view .LVU2721
 894:../Switch/core/yt/yt_port.c **** 
 9440              		.loc 1 894 5 discriminator 7 view .LVU2722
 894:../Switch/core/yt/yt_port.c **** 
 9441              		.loc 1 894 5 discriminator 7 view .LVU2723
 9442 008c 0E20     		movs	r0, #14
 9443 008e CEE7     		b	.L917
 9444              	.LVL1298:
 9445              	.L935:
 894:../Switch/core/yt/yt_port.c **** 
 9446              		.loc 1 894 5 discriminator 5 view .LVU2724
 9447              	.LBB187:
 894:../Switch/core/yt/yt_port.c **** 
 9448              		.loc 1 894 5 discriminator 5 view .LVU2725
 9449 0090 074B     		ldr	r3, .L936+16
 9450 0092 9A6B     		ldr	r2, [r3, #56]
 9451              	.LVL1299:
 894:../Switch/core/yt/yt_port.c **** 
 9452              		.loc 1 894 5 is_stmt 0 discriminator 5 view .LVU2726
 9453 0094 074B     		ldr	r3, .L936+20
 9454 0096 9968     		ldr	r1, [r3, #8]
 9455              	.LVL1300:
 894:../Switch/core/yt/yt_port.c **** 
 9456              		.loc 1 894 5 discriminator 5 view .LVU2727
 9457 0098 0748     		ldr	r0, .L936+24
 9458 009a FFF7FEFF 		bl	osal_printf
 9459              	.LVL1301:
 9460 009e F5E7     		b	.L927
 9461              	.L937:
 9462              		.align	2
 9463              	.L936:
 9464 00a0 00000000 		.word	gpfal_dispatch
 9465 00a4 00000000 		.word	gcal_inited
 9466 00a8 00000000 		.word	gpSwitchUnit
 9467 00ac 00000000 		.word	yt_debug_level
 9468 00b0 00000000 		.word	_yt_errmsg
 9469 00b4 00000000 		.word	_yt_prompt_msg
 9470 00b8 00000000 		.word	.LC0
 9471              	.LBE187:
 9472              		.cfi_endproc
 9473              	.LFE40:
 9475              		.section	.text.yt_port_phyCrossover_mode_get,"ax",%progbits
 9476              		.align	1
 9477              		.global	yt_port_phyCrossover_mode_get
 9478              		.syntax unified
 9479              		.thumb
 9480              		.thumb_func
 9482              	yt_port_phyCrossover_mode_get:
 9483              	.LVL1302:
 9484              	.LFB41:
 898:../Switch/core/yt/yt_port.c **** 
 899:../Switch/core/yt/yt_port.c **** /**
 900:../Switch/core/yt/yt_port.c ****  * @internal      yt_port_phyCrossover_mode_get
 901:../Switch/core/yt/yt_port.c ****  * @endinternal
 902:../Switch/core/yt/yt_port.c ****  *
 903:../Switch/core/yt/yt_port.c ****  * @brief         Description
 904:../Switch/core/yt/yt_port.c ****  * @note          APPLICABLE DEVICES  -Tiger
 905:../Switch/core/yt/yt_port.c ****  * @param[in]     unit                -unit id
 906:../Switch/core/yt/yt_port.c ****  * @param[in]     port                -port num
 907:../Switch/core/yt/yt_port.c ****  * @param[out]    pMode               -x
 908:../Switch/core/yt/yt_port.c ****  * @retval        CMM_ERR_OK          -on success
 909:../Switch/core/yt/yt_port.c ****  * @retval        CMM_ERR_FAIL        -on fail
 910:../Switch/core/yt/yt_port.c ****  */
 911:../Switch/core/yt/yt_port.c **** yt_ret_t yt_port_phyCrossover_mode_get(yt_unit_t unit, yt_port_t port, yt_utp_crossover_mode_t *pMo
 912:../Switch/core/yt/yt_port.c **** {
 9485              		.loc 1 912 1 is_stmt 1 view -0
 9486              		.cfi_startproc
 9487              		@ args = 0, pretend = 0, frame = 0
 9488              		@ frame_needed = 0, uses_anonymous_args = 0
 9489              		.loc 1 912 1 is_stmt 0 view .LVU2729
 9490 0000 08B5     		push	{r3, lr}
 9491              		.cfi_def_cfa_offset 8
 9492              		.cfi_offset 3, -8
 9493              		.cfi_offset 14, -4
 913:../Switch/core/yt/yt_port.c ****     CMM_PARAM_CHK((YT_UNIT_NUM <= unit), CMM_ERR_INPUT);
 9494              		.loc 1 913 5 is_stmt 1 view .LVU2730
 9495              		.loc 1 913 5 view .LVU2731
 9496 0002 C0B9     		cbnz	r0, .L952
 9497 0004 8446     		mov	ip, r0
 9498              		.loc 1 913 5 discriminator 2 view .LVU2732
 914:../Switch/core/yt/yt_port.c ****     CMM_PARAM_CHK(NULL == YT_DISPATCH(unit), CMM_ERR_NOT_INIT);
 9499              		.loc 1 914 5 discriminator 2 view .LVU2733
 9500              		.loc 1 914 5 discriminator 2 view .LVU2734
 9501 0006 2F4B     		ldr	r3, .L961
 9502 0008 53F82030 		ldr	r3, [r3, r0, lsl #2]
 9503 000c 0BB3     		cbz	r3, .L953
 9504              		.loc 1 914 5 discriminator 2 view .LVU2735
 915:../Switch/core/yt/yt_port.c ****     CMM_PARAM_CHK((!(YT_DISPATCH(unit)->is_inited)), CMM_ERR_NOT_INIT);
 9505              		.loc 1 915 5 discriminator 2 view .LVU2736
 9506              		.loc 1 915 5 discriminator 2 view .LVU2737
 9507 000e 1878     		ldrb	r0, [r3]	@ zero_extendqisi2
 9508              	.LVL1303:
 9509              		.loc 1 915 5 is_stmt 0 discriminator 2 view .LVU2738
 9510 0010 0028     		cmp	r0, #0
 9511 0012 2CD0     		beq	.L954
 9512              		.loc 1 915 5 is_stmt 1 discriminator 2 view .LVU2739
 916:../Switch/core/yt/yt_port.c ****     CMM_PARAM_CHK((!(CMM_PORT_VALID(unit, port))), CMM_ERR_PORT);
 9513              		.loc 1 916 5 discriminator 2 view .LVU2740
 9514              		.loc 1 916 5 discriminator 2 view .LVU2741
 9515 0014 2C48     		ldr	r0, .L961+4
 9516 0016 0078     		ldrb	r0, [r0]	@ zero_extendqisi2
 9517 0018 0028     		cmp	r0, #0
 9518 001a 36D0     		beq	.L946
 9519 001c 2B48     		ldr	r0, .L961+8
 9520 001e 50F82C00 		ldr	r0, [r0, ip, lsl #2]
 9521 0022 007D     		ldrb	r0, [r0, #20]	@ zero_extendqisi2
 9522 0024 8842     		cmp	r0, r1
 9523 0026 30D9     		bls	.L946
 9524              		.loc 1 916 5 discriminator 4 view .LVU2742
 917:../Switch/core/yt/yt_port.c ****     CMM_PARAM_CHK((NULL == pMode), CMM_ERR_NULL_POINT);
 9525              		.loc 1 917 5 discriminator 4 view .LVU2743
 9526              		.loc 1 917 5 discriminator 4 view .LVU2744
 9527 0028 002A     		cmp	r2, #0
 9528 002a 3CD0     		beq	.L955
 9529              		.loc 1 917 5 discriminator 2 view .LVU2745
 918:../Switch/core/yt/yt_port.c **** 
 919:../Switch/core/yt/yt_port.c ****     return YT_DISPATCH(unit)->port_phyCrossover_mode_get(unit, port, pMode);
 9530              		.loc 1 919 5 discriminator 2 view .LVU2746
 9531              		.loc 1 919 29 is_stmt 0 discriminator 2 view .LVU2747
 9532 002c D3F8F035 		ldr	r3, [r3, #1520]
 9533              		.loc 1 919 12 discriminator 2 view .LVU2748
 9534 0030 6046     		mov	r0, ip
 9535 0032 9847     		blx	r3
 9536              	.LVL1304:
 9537              	.L938:
 920:../Switch/core/yt/yt_port.c **** }
 9538              		.loc 1 920 1 view .LVU2749
 9539 0034 08BD     		pop	{r3, pc}
 9540              	.LVL1305:
 9541              	.L952:
 913:../Switch/core/yt/yt_port.c ****     CMM_PARAM_CHK(NULL == YT_DISPATCH(unit), CMM_ERR_NOT_INIT);
 9542              		.loc 1 913 5 is_stmt 1 discriminator 1 view .LVU2750
 913:../Switch/core/yt/yt_port.c ****     CMM_PARAM_CHK(NULL == YT_DISPATCH(unit), CMM_ERR_NOT_INIT);
 9543              		.loc 1 913 5 discriminator 1 view .LVU2751
 9544 0036 264B     		ldr	r3, .L961+12
 9545 0038 1B78     		ldrb	r3, [r3]	@ zero_extendqisi2
 9546 003a 012B     		cmp	r3, #1
 9547 003c 01D8     		bhi	.L956
 9548              	.LVL1306:
 9549              	.L940:
 913:../Switch/core/yt/yt_port.c ****     CMM_PARAM_CHK(NULL == YT_DISPATCH(unit), CMM_ERR_NOT_INIT);
 9550              		.loc 1 913 5 discriminator 5 view .LVU2752
 913:../Switch/core/yt/yt_port.c ****     CMM_PARAM_CHK(NULL == YT_DISPATCH(unit), CMM_ERR_NOT_INIT);
 9551              		.loc 1 913 5 discriminator 5 view .LVU2753
 913:../Switch/core/yt/yt_port.c ****     CMM_PARAM_CHK(NULL == YT_DISPATCH(unit), CMM_ERR_NOT_INIT);
 9552              		.loc 1 913 5 discriminator 5 view .LVU2754
 9553 003e 0520     		movs	r0, #5
 9554 0040 F8E7     		b	.L938
 9555              	.LVL1307:
 9556              	.L956:
 913:../Switch/core/yt/yt_port.c ****     CMM_PARAM_CHK(NULL == YT_DISPATCH(unit), CMM_ERR_NOT_INIT);
 9557              		.loc 1 913 5 discriminator 3 view .LVU2755
 9558              	.LBB188:
 913:../Switch/core/yt/yt_port.c ****     CMM_PARAM_CHK(NULL == YT_DISPATCH(unit), CMM_ERR_NOT_INIT);
 9559              		.loc 1 913 5 discriminator 3 view .LVU2756
 9560 0042 244B     		ldr	r3, .L961+16
 9561 0044 5A69     		ldr	r2, [r3, #20]
 9562              	.LVL1308:
 913:../Switch/core/yt/yt_port.c ****     CMM_PARAM_CHK(NULL == YT_DISPATCH(unit), CMM_ERR_NOT_INIT);
 9563              		.loc 1 913 5 is_stmt 0 discriminator 3 view .LVU2757
 9564 0046 244B     		ldr	r3, .L961+20
 9565 0048 9968     		ldr	r1, [r3, #8]
 9566              	.LVL1309:
 913:../Switch/core/yt/yt_port.c ****     CMM_PARAM_CHK(NULL == YT_DISPATCH(unit), CMM_ERR_NOT_INIT);
 9567              		.loc 1 913 5 discriminator 3 view .LVU2758
 9568 004a 2448     		ldr	r0, .L961+24
 9569              	.LVL1310:
 913:../Switch/core/yt/yt_port.c ****     CMM_PARAM_CHK(NULL == YT_DISPATCH(unit), CMM_ERR_NOT_INIT);
 9570              		.loc 1 913 5 discriminator 3 view .LVU2759
 9571 004c FFF7FEFF 		bl	osal_printf
 9572              	.LVL1311:
 9573 0050 F5E7     		b	.L940
 9574              	.LVL1312:
 9575              	.L953:
 913:../Switch/core/yt/yt_port.c ****     CMM_PARAM_CHK(NULL == YT_DISPATCH(unit), CMM_ERR_NOT_INIT);
 9576              		.loc 1 913 5 discriminator 3 view .LVU2760
 9577              	.LBE188:
 914:../Switch/core/yt/yt_port.c ****     CMM_PARAM_CHK((!(YT_DISPATCH(unit)->is_inited)), CMM_ERR_NOT_INIT);
 9578              		.loc 1 914 5 is_stmt 1 discriminator 1 view .LVU2761
 914:../Switch/core/yt/yt_port.c ****     CMM_PARAM_CHK((!(YT_DISPATCH(unit)->is_inited)), CMM_ERR_NOT_INIT);
 9579              		.loc 1 914 5 discriminator 1 view .LVU2762
 9580 0052 1F4B     		ldr	r3, .L961+12
 9581 0054 1B78     		ldrb	r3, [r3]	@ zero_extendqisi2
 9582 0056 012B     		cmp	r3, #1
 9583 0058 01D8     		bhi	.L957
 9584              	.LVL1313:
 9585              	.L943:
 914:../Switch/core/yt/yt_port.c ****     CMM_PARAM_CHK((!(YT_DISPATCH(unit)->is_inited)), CMM_ERR_NOT_INIT);
 9586              		.loc 1 914 5 discriminator 5 view .LVU2763
 914:../Switch/core/yt/yt_port.c ****     CMM_PARAM_CHK((!(YT_DISPATCH(unit)->is_inited)), CMM_ERR_NOT_INIT);
 9587              		.loc 1 914 5 discriminator 5 view .LVU2764
 914:../Switch/core/yt/yt_port.c ****     CMM_PARAM_CHK((!(YT_DISPATCH(unit)->is_inited)), CMM_ERR_NOT_INIT);
 9588              		.loc 1 914 5 discriminator 5 view .LVU2765
 9589 005a 0420     		movs	r0, #4
 9590 005c EAE7     		b	.L938
 9591              	.LVL1314:
 9592              	.L957:
 914:../Switch/core/yt/yt_port.c ****     CMM_PARAM_CHK((!(YT_DISPATCH(unit)->is_inited)), CMM_ERR_NOT_INIT);
 9593              		.loc 1 914 5 discriminator 3 view .LVU2766
 9594              	.LBB189:
 914:../Switch/core/yt/yt_port.c ****     CMM_PARAM_CHK((!(YT_DISPATCH(unit)->is_inited)), CMM_ERR_NOT_INIT);
 9595              		.loc 1 914 5 discriminator 3 view .LVU2767
 9596 005e 1D4B     		ldr	r3, .L961+16
 9597 0060 1A69     		ldr	r2, [r3, #16]
 9598              	.LVL1315:
 914:../Switch/core/yt/yt_port.c ****     CMM_PARAM_CHK((!(YT_DISPATCH(unit)->is_inited)), CMM_ERR_NOT_INIT);
 9599              		.loc 1 914 5 is_stmt 0 discriminator 3 view .LVU2768
 9600 0062 1D4B     		ldr	r3, .L961+20
 9601 0064 9968     		ldr	r1, [r3, #8]
 9602              	.LVL1316:
 914:../Switch/core/yt/yt_port.c ****     CMM_PARAM_CHK((!(YT_DISPATCH(unit)->is_inited)), CMM_ERR_NOT_INIT);
 9603              		.loc 1 914 5 discriminator 3 view .LVU2769
 9604 0066 1D48     		ldr	r0, .L961+24
 9605              	.LVL1317:
 914:../Switch/core/yt/yt_port.c ****     CMM_PARAM_CHK((!(YT_DISPATCH(unit)->is_inited)), CMM_ERR_NOT_INIT);
 9606              		.loc 1 914 5 discriminator 3 view .LVU2770
 9607 0068 FFF7FEFF 		bl	osal_printf
 9608              	.LVL1318:
 9609 006c F5E7     		b	.L943
 9610              	.LVL1319:
 9611              	.L954:
 914:../Switch/core/yt/yt_port.c ****     CMM_PARAM_CHK((!(YT_DISPATCH(unit)->is_inited)), CMM_ERR_NOT_INIT);
 9612              		.loc 1 914 5 discriminator 3 view .LVU2771
 9613              	.LBE189:
 915:../Switch/core/yt/yt_port.c ****     CMM_PARAM_CHK((!(CMM_PORT_VALID(unit, port))), CMM_ERR_PORT);
 9614              		.loc 1 915 5 is_stmt 1 discriminator 1 view .LVU2772
 915:../Switch/core/yt/yt_port.c ****     CMM_PARAM_CHK((!(CMM_PORT_VALID(unit, port))), CMM_ERR_PORT);
 9615              		.loc 1 915 5 discriminator 1 view .LVU2773
 9616 006e 184B     		ldr	r3, .L961+12
 9617 0070 1B78     		ldrb	r3, [r3]	@ zero_extendqisi2
 9618 0072 012B     		cmp	r3, #1
 9619 0074 01D8     		bhi	.L958
 9620              	.LVL1320:
 9621              	.L945:
 915:../Switch/core/yt/yt_port.c ****     CMM_PARAM_CHK((!(CMM_PORT_VALID(unit, port))), CMM_ERR_PORT);
 9622              		.loc 1 915 5 discriminator 5 view .LVU2774
 915:../Switch/core/yt/yt_port.c ****     CMM_PARAM_CHK((!(CMM_PORT_VALID(unit, port))), CMM_ERR_PORT);
 9623              		.loc 1 915 5 discriminator 5 view .LVU2775
 915:../Switch/core/yt/yt_port.c ****     CMM_PARAM_CHK((!(CMM_PORT_VALID(unit, port))), CMM_ERR_PORT);
 9624              		.loc 1 915 5 discriminator 5 view .LVU2776
 9625 0076 0420     		movs	r0, #4
 9626 0078 DCE7     		b	.L938
 9627              	.LVL1321:
 9628              	.L958:
 915:../Switch/core/yt/yt_port.c ****     CMM_PARAM_CHK((!(CMM_PORT_VALID(unit, port))), CMM_ERR_PORT);
 9629              		.loc 1 915 5 discriminator 3 view .LVU2777
 9630              	.LBB190:
 915:../Switch/core/yt/yt_port.c ****     CMM_PARAM_CHK((!(CMM_PORT_VALID(unit, port))), CMM_ERR_PORT);
 9631              		.loc 1 915 5 discriminator 3 view .LVU2778
 9632 007a 164B     		ldr	r3, .L961+16
 9633 007c 1A69     		ldr	r2, [r3, #16]
 9634              	.LVL1322:
 915:../Switch/core/yt/yt_port.c ****     CMM_PARAM_CHK((!(CMM_PORT_VALID(unit, port))), CMM_ERR_PORT);
 9635              		.loc 1 915 5 is_stmt 0 discriminator 3 view .LVU2779
 9636 007e 164B     		ldr	r3, .L961+20
 9637 0080 9968     		ldr	r1, [r3, #8]
 9638              	.LVL1323:
 915:../Switch/core/yt/yt_port.c ****     CMM_PARAM_CHK((!(CMM_PORT_VALID(unit, port))), CMM_ERR_PORT);
 9639              		.loc 1 915 5 discriminator 3 view .LVU2780
 9640 0082 1648     		ldr	r0, .L961+24
 9641 0084 FFF7FEFF 		bl	osal_printf
 9642              	.LVL1324:
 9643 0088 F5E7     		b	.L945
 9644              	.LVL1325:
 9645              	.L946:
 915:../Switch/core/yt/yt_port.c ****     CMM_PARAM_CHK((!(CMM_PORT_VALID(unit, port))), CMM_ERR_PORT);
 9646              		.loc 1 915 5 discriminator 3 view .LVU2781
 9647              	.LBE190:
 916:../Switch/core/yt/yt_port.c ****     CMM_PARAM_CHK((NULL == pMode), CMM_ERR_NULL_POINT);
 9648              		.loc 1 916 5 is_stmt 1 discriminator 3 view .LVU2782
 916:../Switch/core/yt/yt_port.c ****     CMM_PARAM_CHK((NULL == pMode), CMM_ERR_NULL_POINT);
 9649              		.loc 1 916 5 discriminator 3 view .LVU2783
 9650 008a 114B     		ldr	r3, .L961+12
 9651 008c 1B78     		ldrb	r3, [r3]	@ zero_extendqisi2
 9652 008e 012B     		cmp	r3, #1
 9653 0090 01D8     		bhi	.L959
 9654              	.LVL1326:
 9655              	.L948:
 916:../Switch/core/yt/yt_port.c ****     CMM_PARAM_CHK((NULL == pMode), CMM_ERR_NULL_POINT);
 9656              		.loc 1 916 5 discriminator 7 view .LVU2784
 916:../Switch/core/yt/yt_port.c ****     CMM_PARAM_CHK((NULL == pMode), CMM_ERR_NULL_POINT);
 9657              		.loc 1 916 5 discriminator 7 view .LVU2785
 916:../Switch/core/yt/yt_port.c ****     CMM_PARAM_CHK((NULL == pMode), CMM_ERR_NULL_POINT);
 9658              		.loc 1 916 5 discriminator 7 view .LVU2786
 9659 0092 0E20     		movs	r0, #14
 9660 0094 CEE7     		b	.L938
 9661              	.LVL1327:
 9662              	.L959:
 916:../Switch/core/yt/yt_port.c ****     CMM_PARAM_CHK((NULL == pMode), CMM_ERR_NULL_POINT);
 9663              		.loc 1 916 5 discriminator 5 view .LVU2787
 9664              	.LBB191:
 916:../Switch/core/yt/yt_port.c ****     CMM_PARAM_CHK((NULL == pMode), CMM_ERR_NULL_POINT);
 9665              		.loc 1 916 5 discriminator 5 view .LVU2788
 9666 0096 0F4B     		ldr	r3, .L961+16
 9667 0098 9A6B     		ldr	r2, [r3, #56]
 9668              	.LVL1328:
 916:../Switch/core/yt/yt_port.c ****     CMM_PARAM_CHK((NULL == pMode), CMM_ERR_NULL_POINT);
 9669              		.loc 1 916 5 is_stmt 0 discriminator 5 view .LVU2789
 9670 009a 0F4B     		ldr	r3, .L961+20
 9671 009c 9968     		ldr	r1, [r3, #8]
 9672              	.LVL1329:
 916:../Switch/core/yt/yt_port.c ****     CMM_PARAM_CHK((NULL == pMode), CMM_ERR_NULL_POINT);
 9673              		.loc 1 916 5 discriminator 5 view .LVU2790
 9674 009e 0F48     		ldr	r0, .L961+24
 9675 00a0 FFF7FEFF 		bl	osal_printf
 9676              	.LVL1330:
 9677 00a4 F5E7     		b	.L948
 9678              	.LVL1331:
 9679              	.L955:
 916:../Switch/core/yt/yt_port.c ****     CMM_PARAM_CHK((NULL == pMode), CMM_ERR_NULL_POINT);
 9680              		.loc 1 916 5 discriminator 5 view .LVU2791
 9681              	.LBE191:
 917:../Switch/core/yt/yt_port.c **** 
 9682              		.loc 1 917 5 is_stmt 1 discriminator 1 view .LVU2792
 917:../Switch/core/yt/yt_port.c **** 
 9683              		.loc 1 917 5 discriminator 1 view .LVU2793
 9684 00a6 0A4B     		ldr	r3, .L961+12
 9685 00a8 1B78     		ldrb	r3, [r3]	@ zero_extendqisi2
 9686 00aa 012B     		cmp	r3, #1
 9687 00ac 01D8     		bhi	.L960
 9688              	.LVL1332:
 9689              	.L950:
 917:../Switch/core/yt/yt_port.c **** 
 9690              		.loc 1 917 5 discriminator 5 view .LVU2794
 917:../Switch/core/yt/yt_port.c **** 
 9691              		.loc 1 917 5 discriminator 5 view .LVU2795
 917:../Switch/core/yt/yt_port.c **** 
 9692              		.loc 1 917 5 discriminator 5 view .LVU2796
 9693 00ae 0220     		movs	r0, #2
 9694 00b0 C0E7     		b	.L938
 9695              	.LVL1333:
 9696              	.L960:
 917:../Switch/core/yt/yt_port.c **** 
 9697              		.loc 1 917 5 discriminator 3 view .LVU2797
 9698              	.LBB192:
 917:../Switch/core/yt/yt_port.c **** 
 9699              		.loc 1 917 5 discriminator 3 view .LVU2798
 9700 00b2 084B     		ldr	r3, .L961+16
 9701 00b4 9A68     		ldr	r2, [r3, #8]
 9702              	.LVL1334:
 917:../Switch/core/yt/yt_port.c **** 
 9703              		.loc 1 917 5 is_stmt 0 discriminator 3 view .LVU2799
 9704 00b6 084B     		ldr	r3, .L961+20
 9705 00b8 9968     		ldr	r1, [r3, #8]
 9706              	.LVL1335:
 917:../Switch/core/yt/yt_port.c **** 
 9707              		.loc 1 917 5 discriminator 3 view .LVU2800
 9708 00ba 0848     		ldr	r0, .L961+24
 9709 00bc FFF7FEFF 		bl	osal_printf
 9710              	.LVL1336:
 9711 00c0 F5E7     		b	.L950
 9712              	.L962:
 9713 00c2 00BF     		.align	2
 9714              	.L961:
 9715 00c4 00000000 		.word	gpfal_dispatch
 9716 00c8 00000000 		.word	gcal_inited
 9717 00cc 00000000 		.word	gpSwitchUnit
 9718 00d0 00000000 		.word	yt_debug_level
 9719 00d4 00000000 		.word	_yt_errmsg
 9720 00d8 00000000 		.word	_yt_prompt_msg
 9721 00dc 00000000 		.word	.LC0
 9722              	.LBE192:
 9723              		.cfi_endproc
 9724              	.LFE41:
 9726              		.section	.text.yt_port_phyCrossover_status_get,"ax",%progbits
 9727              		.align	1
 9728              		.global	yt_port_phyCrossover_status_get
 9729              		.syntax unified
 9730              		.thumb
 9731              		.thumb_func
 9733              	yt_port_phyCrossover_status_get:
 9734              	.LVL1337:
 9735              	.LFB42:
 921:../Switch/core/yt/yt_port.c **** 
 922:../Switch/core/yt/yt_port.c **** /**
 923:../Switch/core/yt/yt_port.c ****  * @internal      yt_port_phyCrossover_status_get
 924:../Switch/core/yt/yt_port.c ****  * @endinternal
 925:../Switch/core/yt/yt_port.c ****  *
 926:../Switch/core/yt/yt_port.c ****  * @brief         Description
 927:../Switch/core/yt/yt_port.c ****  * @note          APPLICABLE DEVICES  -Tiger
 928:../Switch/core/yt/yt_port.c ****  * @param[in]     unit                -unit id
 929:../Switch/core/yt/yt_port.c ****  * @param[in]     port                -port num
 930:../Switch/core/yt/yt_port.c ****  * @param[out]    pStatus             -x
 931:../Switch/core/yt/yt_port.c ****  * @retval        CMM_ERR_OK          -on success
 932:../Switch/core/yt/yt_port.c ****  * @retval        CMM_ERR_FAIL        -on fail
 933:../Switch/core/yt/yt_port.c ****  */
 934:../Switch/core/yt/yt_port.c **** yt_ret_t yt_port_phyCrossover_status_get(yt_unit_t unit, yt_port_t port, yt_utp_crossover_status_t 
 935:../Switch/core/yt/yt_port.c **** {
 9736              		.loc 1 935 1 is_stmt 1 view -0
 9737              		.cfi_startproc
 9738              		@ args = 0, pretend = 0, frame = 0
 9739              		@ frame_needed = 0, uses_anonymous_args = 0
 9740              		.loc 1 935 1 is_stmt 0 view .LVU2802
 9741 0000 08B5     		push	{r3, lr}
 9742              		.cfi_def_cfa_offset 8
 9743              		.cfi_offset 3, -8
 9744              		.cfi_offset 14, -4
 936:../Switch/core/yt/yt_port.c ****     CMM_PARAM_CHK((YT_UNIT_NUM <= unit), CMM_ERR_INPUT);
 9745              		.loc 1 936 5 is_stmt 1 view .LVU2803
 9746              		.loc 1 936 5 view .LVU2804
 9747 0002 C0B9     		cbnz	r0, .L977
 9748 0004 8446     		mov	ip, r0
 9749              		.loc 1 936 5 discriminator 2 view .LVU2805
 937:../Switch/core/yt/yt_port.c ****     CMM_PARAM_CHK(NULL == YT_DISPATCH(unit), CMM_ERR_NOT_INIT);
 9750              		.loc 1 937 5 discriminator 2 view .LVU2806
 9751              		.loc 1 937 5 discriminator 2 view .LVU2807
 9752 0006 2F4B     		ldr	r3, .L986
 9753 0008 53F82030 		ldr	r3, [r3, r0, lsl #2]
 9754 000c 0BB3     		cbz	r3, .L978
 9755              		.loc 1 937 5 discriminator 2 view .LVU2808
 938:../Switch/core/yt/yt_port.c ****     CMM_PARAM_CHK((!(YT_DISPATCH(unit)->is_inited)), CMM_ERR_NOT_INIT);
 9756              		.loc 1 938 5 discriminator 2 view .LVU2809
 9757              		.loc 1 938 5 discriminator 2 view .LVU2810
 9758 000e 1878     		ldrb	r0, [r3]	@ zero_extendqisi2
 9759              	.LVL1338:
 9760              		.loc 1 938 5 is_stmt 0 discriminator 2 view .LVU2811
 9761 0010 0028     		cmp	r0, #0
 9762 0012 2CD0     		beq	.L979
 9763              		.loc 1 938 5 is_stmt 1 discriminator 2 view .LVU2812
 939:../Switch/core/yt/yt_port.c ****     CMM_PARAM_CHK((!(CMM_PORT_VALID(unit, port))), CMM_ERR_PORT);
 9764              		.loc 1 939 5 discriminator 2 view .LVU2813
 9765              		.loc 1 939 5 discriminator 2 view .LVU2814
 9766 0014 2C48     		ldr	r0, .L986+4
 9767 0016 0078     		ldrb	r0, [r0]	@ zero_extendqisi2
 9768 0018 0028     		cmp	r0, #0
 9769 001a 36D0     		beq	.L971
 9770 001c 2B48     		ldr	r0, .L986+8
 9771 001e 50F82C00 		ldr	r0, [r0, ip, lsl #2]
 9772 0022 007D     		ldrb	r0, [r0, #20]	@ zero_extendqisi2
 9773 0024 8842     		cmp	r0, r1
 9774 0026 30D9     		bls	.L971
 9775              		.loc 1 939 5 discriminator 4 view .LVU2815
 940:../Switch/core/yt/yt_port.c ****     CMM_PARAM_CHK((NULL == pStatus), CMM_ERR_NULL_POINT);
 9776              		.loc 1 940 5 discriminator 4 view .LVU2816
 9777              		.loc 1 940 5 discriminator 4 view .LVU2817
 9778 0028 002A     		cmp	r2, #0
 9779 002a 3CD0     		beq	.L980
 9780              		.loc 1 940 5 discriminator 2 view .LVU2818
 941:../Switch/core/yt/yt_port.c **** 
 942:../Switch/core/yt/yt_port.c ****     return YT_DISPATCH(unit)->port_phyCrossover_status_get(unit, port, pStatus);
 9781              		.loc 1 942 5 discriminator 2 view .LVU2819
 9782              		.loc 1 942 29 is_stmt 0 discriminator 2 view .LVU2820
 9783 002c D3F8F435 		ldr	r3, [r3, #1524]
 9784              		.loc 1 942 12 discriminator 2 view .LVU2821
 9785 0030 6046     		mov	r0, ip
 9786 0032 9847     		blx	r3
 9787              	.LVL1339:
 9788              	.L963:
 943:../Switch/core/yt/yt_port.c **** }
 9789              		.loc 1 943 1 view .LVU2822
 9790 0034 08BD     		pop	{r3, pc}
 9791              	.LVL1340:
 9792              	.L977:
 936:../Switch/core/yt/yt_port.c ****     CMM_PARAM_CHK(NULL == YT_DISPATCH(unit), CMM_ERR_NOT_INIT);
 9793              		.loc 1 936 5 is_stmt 1 discriminator 1 view .LVU2823
 936:../Switch/core/yt/yt_port.c ****     CMM_PARAM_CHK(NULL == YT_DISPATCH(unit), CMM_ERR_NOT_INIT);
 9794              		.loc 1 936 5 discriminator 1 view .LVU2824
 9795 0036 264B     		ldr	r3, .L986+12
 9796 0038 1B78     		ldrb	r3, [r3]	@ zero_extendqisi2
 9797 003a 012B     		cmp	r3, #1
 9798 003c 01D8     		bhi	.L981
 9799              	.LVL1341:
 9800              	.L965:
 936:../Switch/core/yt/yt_port.c ****     CMM_PARAM_CHK(NULL == YT_DISPATCH(unit), CMM_ERR_NOT_INIT);
 9801              		.loc 1 936 5 discriminator 5 view .LVU2825
 936:../Switch/core/yt/yt_port.c ****     CMM_PARAM_CHK(NULL == YT_DISPATCH(unit), CMM_ERR_NOT_INIT);
 9802              		.loc 1 936 5 discriminator 5 view .LVU2826
 936:../Switch/core/yt/yt_port.c ****     CMM_PARAM_CHK(NULL == YT_DISPATCH(unit), CMM_ERR_NOT_INIT);
 9803              		.loc 1 936 5 discriminator 5 view .LVU2827
 9804 003e 0520     		movs	r0, #5
 9805 0040 F8E7     		b	.L963
 9806              	.LVL1342:
 9807              	.L981:
 936:../Switch/core/yt/yt_port.c ****     CMM_PARAM_CHK(NULL == YT_DISPATCH(unit), CMM_ERR_NOT_INIT);
 9808              		.loc 1 936 5 discriminator 3 view .LVU2828
 9809              	.LBB193:
 936:../Switch/core/yt/yt_port.c ****     CMM_PARAM_CHK(NULL == YT_DISPATCH(unit), CMM_ERR_NOT_INIT);
 9810              		.loc 1 936 5 discriminator 3 view .LVU2829
 9811 0042 244B     		ldr	r3, .L986+16
 9812 0044 5A69     		ldr	r2, [r3, #20]
 9813              	.LVL1343:
 936:../Switch/core/yt/yt_port.c ****     CMM_PARAM_CHK(NULL == YT_DISPATCH(unit), CMM_ERR_NOT_INIT);
 9814              		.loc 1 936 5 is_stmt 0 discriminator 3 view .LVU2830
 9815 0046 244B     		ldr	r3, .L986+20
 9816 0048 9968     		ldr	r1, [r3, #8]
 9817              	.LVL1344:
 936:../Switch/core/yt/yt_port.c ****     CMM_PARAM_CHK(NULL == YT_DISPATCH(unit), CMM_ERR_NOT_INIT);
 9818              		.loc 1 936 5 discriminator 3 view .LVU2831
 9819 004a 2448     		ldr	r0, .L986+24
 9820              	.LVL1345:
 936:../Switch/core/yt/yt_port.c ****     CMM_PARAM_CHK(NULL == YT_DISPATCH(unit), CMM_ERR_NOT_INIT);
 9821              		.loc 1 936 5 discriminator 3 view .LVU2832
 9822 004c FFF7FEFF 		bl	osal_printf
 9823              	.LVL1346:
 9824 0050 F5E7     		b	.L965
 9825              	.LVL1347:
 9826              	.L978:
 936:../Switch/core/yt/yt_port.c ****     CMM_PARAM_CHK(NULL == YT_DISPATCH(unit), CMM_ERR_NOT_INIT);
 9827              		.loc 1 936 5 discriminator 3 view .LVU2833
 9828              	.LBE193:
 937:../Switch/core/yt/yt_port.c ****     CMM_PARAM_CHK((!(YT_DISPATCH(unit)->is_inited)), CMM_ERR_NOT_INIT);
 9829              		.loc 1 937 5 is_stmt 1 discriminator 1 view .LVU2834
 937:../Switch/core/yt/yt_port.c ****     CMM_PARAM_CHK((!(YT_DISPATCH(unit)->is_inited)), CMM_ERR_NOT_INIT);
 9830              		.loc 1 937 5 discriminator 1 view .LVU2835
 9831 0052 1F4B     		ldr	r3, .L986+12
 9832 0054 1B78     		ldrb	r3, [r3]	@ zero_extendqisi2
 9833 0056 012B     		cmp	r3, #1
 9834 0058 01D8     		bhi	.L982
 9835              	.LVL1348:
 9836              	.L968:
 937:../Switch/core/yt/yt_port.c ****     CMM_PARAM_CHK((!(YT_DISPATCH(unit)->is_inited)), CMM_ERR_NOT_INIT);
 9837              		.loc 1 937 5 discriminator 5 view .LVU2836
 937:../Switch/core/yt/yt_port.c ****     CMM_PARAM_CHK((!(YT_DISPATCH(unit)->is_inited)), CMM_ERR_NOT_INIT);
 9838              		.loc 1 937 5 discriminator 5 view .LVU2837
 937:../Switch/core/yt/yt_port.c ****     CMM_PARAM_CHK((!(YT_DISPATCH(unit)->is_inited)), CMM_ERR_NOT_INIT);
 9839              		.loc 1 937 5 discriminator 5 view .LVU2838
 9840 005a 0420     		movs	r0, #4
 9841 005c EAE7     		b	.L963
 9842              	.LVL1349:
 9843              	.L982:
 937:../Switch/core/yt/yt_port.c ****     CMM_PARAM_CHK((!(YT_DISPATCH(unit)->is_inited)), CMM_ERR_NOT_INIT);
 9844              		.loc 1 937 5 discriminator 3 view .LVU2839
 9845              	.LBB194:
 937:../Switch/core/yt/yt_port.c ****     CMM_PARAM_CHK((!(YT_DISPATCH(unit)->is_inited)), CMM_ERR_NOT_INIT);
 9846              		.loc 1 937 5 discriminator 3 view .LVU2840
 9847 005e 1D4B     		ldr	r3, .L986+16
 9848 0060 1A69     		ldr	r2, [r3, #16]
 9849              	.LVL1350:
 937:../Switch/core/yt/yt_port.c ****     CMM_PARAM_CHK((!(YT_DISPATCH(unit)->is_inited)), CMM_ERR_NOT_INIT);
 9850              		.loc 1 937 5 is_stmt 0 discriminator 3 view .LVU2841
 9851 0062 1D4B     		ldr	r3, .L986+20
 9852 0064 9968     		ldr	r1, [r3, #8]
 9853              	.LVL1351:
 937:../Switch/core/yt/yt_port.c ****     CMM_PARAM_CHK((!(YT_DISPATCH(unit)->is_inited)), CMM_ERR_NOT_INIT);
 9854              		.loc 1 937 5 discriminator 3 view .LVU2842
 9855 0066 1D48     		ldr	r0, .L986+24
 9856              	.LVL1352:
 937:../Switch/core/yt/yt_port.c ****     CMM_PARAM_CHK((!(YT_DISPATCH(unit)->is_inited)), CMM_ERR_NOT_INIT);
 9857              		.loc 1 937 5 discriminator 3 view .LVU2843
 9858 0068 FFF7FEFF 		bl	osal_printf
 9859              	.LVL1353:
 9860 006c F5E7     		b	.L968
 9861              	.LVL1354:
 9862              	.L979:
 937:../Switch/core/yt/yt_port.c ****     CMM_PARAM_CHK((!(YT_DISPATCH(unit)->is_inited)), CMM_ERR_NOT_INIT);
 9863              		.loc 1 937 5 discriminator 3 view .LVU2844
 9864              	.LBE194:
 938:../Switch/core/yt/yt_port.c ****     CMM_PARAM_CHK((!(CMM_PORT_VALID(unit, port))), CMM_ERR_PORT);
 9865              		.loc 1 938 5 is_stmt 1 discriminator 1 view .LVU2845
 938:../Switch/core/yt/yt_port.c ****     CMM_PARAM_CHK((!(CMM_PORT_VALID(unit, port))), CMM_ERR_PORT);
 9866              		.loc 1 938 5 discriminator 1 view .LVU2846
 9867 006e 184B     		ldr	r3, .L986+12
 9868 0070 1B78     		ldrb	r3, [r3]	@ zero_extendqisi2
 9869 0072 012B     		cmp	r3, #1
 9870 0074 01D8     		bhi	.L983
 9871              	.LVL1355:
 9872              	.L970:
 938:../Switch/core/yt/yt_port.c ****     CMM_PARAM_CHK((!(CMM_PORT_VALID(unit, port))), CMM_ERR_PORT);
 9873              		.loc 1 938 5 discriminator 5 view .LVU2847
 938:../Switch/core/yt/yt_port.c ****     CMM_PARAM_CHK((!(CMM_PORT_VALID(unit, port))), CMM_ERR_PORT);
 9874              		.loc 1 938 5 discriminator 5 view .LVU2848
 938:../Switch/core/yt/yt_port.c ****     CMM_PARAM_CHK((!(CMM_PORT_VALID(unit, port))), CMM_ERR_PORT);
 9875              		.loc 1 938 5 discriminator 5 view .LVU2849
 9876 0076 0420     		movs	r0, #4
 9877 0078 DCE7     		b	.L963
 9878              	.LVL1356:
 9879              	.L983:
 938:../Switch/core/yt/yt_port.c ****     CMM_PARAM_CHK((!(CMM_PORT_VALID(unit, port))), CMM_ERR_PORT);
 9880              		.loc 1 938 5 discriminator 3 view .LVU2850
 9881              	.LBB195:
 938:../Switch/core/yt/yt_port.c ****     CMM_PARAM_CHK((!(CMM_PORT_VALID(unit, port))), CMM_ERR_PORT);
 9882              		.loc 1 938 5 discriminator 3 view .LVU2851
 9883 007a 164B     		ldr	r3, .L986+16
 9884 007c 1A69     		ldr	r2, [r3, #16]
 9885              	.LVL1357:
 938:../Switch/core/yt/yt_port.c ****     CMM_PARAM_CHK((!(CMM_PORT_VALID(unit, port))), CMM_ERR_PORT);
 9886              		.loc 1 938 5 is_stmt 0 discriminator 3 view .LVU2852
 9887 007e 164B     		ldr	r3, .L986+20
 9888 0080 9968     		ldr	r1, [r3, #8]
 9889              	.LVL1358:
 938:../Switch/core/yt/yt_port.c ****     CMM_PARAM_CHK((!(CMM_PORT_VALID(unit, port))), CMM_ERR_PORT);
 9890              		.loc 1 938 5 discriminator 3 view .LVU2853
 9891 0082 1648     		ldr	r0, .L986+24
 9892 0084 FFF7FEFF 		bl	osal_printf
 9893              	.LVL1359:
 9894 0088 F5E7     		b	.L970
 9895              	.LVL1360:
 9896              	.L971:
 938:../Switch/core/yt/yt_port.c ****     CMM_PARAM_CHK((!(CMM_PORT_VALID(unit, port))), CMM_ERR_PORT);
 9897              		.loc 1 938 5 discriminator 3 view .LVU2854
 9898              	.LBE195:
 939:../Switch/core/yt/yt_port.c ****     CMM_PARAM_CHK((NULL == pStatus), CMM_ERR_NULL_POINT);
 9899              		.loc 1 939 5 is_stmt 1 discriminator 3 view .LVU2855
 939:../Switch/core/yt/yt_port.c ****     CMM_PARAM_CHK((NULL == pStatus), CMM_ERR_NULL_POINT);
 9900              		.loc 1 939 5 discriminator 3 view .LVU2856
 9901 008a 114B     		ldr	r3, .L986+12
 9902 008c 1B78     		ldrb	r3, [r3]	@ zero_extendqisi2
 9903 008e 012B     		cmp	r3, #1
 9904 0090 01D8     		bhi	.L984
 9905              	.LVL1361:
 9906              	.L973:
 939:../Switch/core/yt/yt_port.c ****     CMM_PARAM_CHK((NULL == pStatus), CMM_ERR_NULL_POINT);
 9907              		.loc 1 939 5 discriminator 7 view .LVU2857
 939:../Switch/core/yt/yt_port.c ****     CMM_PARAM_CHK((NULL == pStatus), CMM_ERR_NULL_POINT);
 9908              		.loc 1 939 5 discriminator 7 view .LVU2858
 939:../Switch/core/yt/yt_port.c ****     CMM_PARAM_CHK((NULL == pStatus), CMM_ERR_NULL_POINT);
 9909              		.loc 1 939 5 discriminator 7 view .LVU2859
 9910 0092 0E20     		movs	r0, #14
 9911 0094 CEE7     		b	.L963
 9912              	.LVL1362:
 9913              	.L984:
 939:../Switch/core/yt/yt_port.c ****     CMM_PARAM_CHK((NULL == pStatus), CMM_ERR_NULL_POINT);
 9914              		.loc 1 939 5 discriminator 5 view .LVU2860
 9915              	.LBB196:
 939:../Switch/core/yt/yt_port.c ****     CMM_PARAM_CHK((NULL == pStatus), CMM_ERR_NULL_POINT);
 9916              		.loc 1 939 5 discriminator 5 view .LVU2861
 9917 0096 0F4B     		ldr	r3, .L986+16
 9918 0098 9A6B     		ldr	r2, [r3, #56]
 9919              	.LVL1363:
 939:../Switch/core/yt/yt_port.c ****     CMM_PARAM_CHK((NULL == pStatus), CMM_ERR_NULL_POINT);
 9920              		.loc 1 939 5 is_stmt 0 discriminator 5 view .LVU2862
 9921 009a 0F4B     		ldr	r3, .L986+20
 9922 009c 9968     		ldr	r1, [r3, #8]
 9923              	.LVL1364:
 939:../Switch/core/yt/yt_port.c ****     CMM_PARAM_CHK((NULL == pStatus), CMM_ERR_NULL_POINT);
 9924              		.loc 1 939 5 discriminator 5 view .LVU2863
 9925 009e 0F48     		ldr	r0, .L986+24
 9926 00a0 FFF7FEFF 		bl	osal_printf
 9927              	.LVL1365:
 9928 00a4 F5E7     		b	.L973
 9929              	.LVL1366:
 9930              	.L980:
 939:../Switch/core/yt/yt_port.c ****     CMM_PARAM_CHK((NULL == pStatus), CMM_ERR_NULL_POINT);
 9931              		.loc 1 939 5 discriminator 5 view .LVU2864
 9932              	.LBE196:
 940:../Switch/core/yt/yt_port.c **** 
 9933              		.loc 1 940 5 is_stmt 1 discriminator 1 view .LVU2865
 940:../Switch/core/yt/yt_port.c **** 
 9934              		.loc 1 940 5 discriminator 1 view .LVU2866
 9935 00a6 0A4B     		ldr	r3, .L986+12
 9936 00a8 1B78     		ldrb	r3, [r3]	@ zero_extendqisi2
 9937 00aa 012B     		cmp	r3, #1
 9938 00ac 01D8     		bhi	.L985
 9939              	.LVL1367:
 9940              	.L975:
 940:../Switch/core/yt/yt_port.c **** 
 9941              		.loc 1 940 5 discriminator 5 view .LVU2867
 940:../Switch/core/yt/yt_port.c **** 
 9942              		.loc 1 940 5 discriminator 5 view .LVU2868
 940:../Switch/core/yt/yt_port.c **** 
 9943              		.loc 1 940 5 discriminator 5 view .LVU2869
 9944 00ae 0220     		movs	r0, #2
 9945 00b0 C0E7     		b	.L963
 9946              	.LVL1368:
 9947              	.L985:
 940:../Switch/core/yt/yt_port.c **** 
 9948              		.loc 1 940 5 discriminator 3 view .LVU2870
 9949              	.LBB197:
 940:../Switch/core/yt/yt_port.c **** 
 9950              		.loc 1 940 5 discriminator 3 view .LVU2871
 9951 00b2 084B     		ldr	r3, .L986+16
 9952 00b4 9A68     		ldr	r2, [r3, #8]
 9953              	.LVL1369:
 940:../Switch/core/yt/yt_port.c **** 
 9954              		.loc 1 940 5 is_stmt 0 discriminator 3 view .LVU2872
 9955 00b6 084B     		ldr	r3, .L986+20
 9956 00b8 9968     		ldr	r1, [r3, #8]
 9957              	.LVL1370:
 940:../Switch/core/yt/yt_port.c **** 
 9958              		.loc 1 940 5 discriminator 3 view .LVU2873
 9959 00ba 0848     		ldr	r0, .L986+24
 9960 00bc FFF7FEFF 		bl	osal_printf
 9961              	.LVL1371:
 9962 00c0 F5E7     		b	.L975
 9963              	.L987:
 9964 00c2 00BF     		.align	2
 9965              	.L986:
 9966 00c4 00000000 		.word	gpfal_dispatch
 9967 00c8 00000000 		.word	gcal_inited
 9968 00cc 00000000 		.word	gpSwitchUnit
 9969 00d0 00000000 		.word	yt_debug_level
 9970 00d4 00000000 		.word	_yt_errmsg
 9971 00d8 00000000 		.word	_yt_prompt_msg
 9972 00dc 00000000 		.word	.LC0
 9973              	.LBE197:
 9974              		.cfi_endproc
 9975              	.LFE42:
 9977              		.section	.text.yt_port_phy_green_enable_set,"ax",%progbits
 9978              		.align	1
 9979              		.global	yt_port_phy_green_enable_set
 9980              		.syntax unified
 9981              		.thumb
 9982              		.thumb_func
 9984              	yt_port_phy_green_enable_set:
 9985              	.LVL1372:
 9986              	.LFB43:
 944:../Switch/core/yt/yt_port.c **** 
 945:../Switch/core/yt/yt_port.c **** /**
 946:../Switch/core/yt/yt_port.c ****  * @internal      yt_port_phy_green_enable_set
 947:../Switch/core/yt/yt_port.c ****  * @endinternal
 948:../Switch/core/yt/yt_port.c ****  *
 949:../Switch/core/yt/yt_port.c ****  * @brief         Enable/Disable phy green function
 950:../Switch/core/yt/yt_port.c ****  * @note          APPLICABLE DEVICES  -Tiger
 951:../Switch/core/yt/yt_port.c ****  * @param[in]     unit                -unit id
 952:../Switch/core/yt/yt_port.c ****  * @param[in]     port                -port num
 953:../Switch/core/yt/yt_port.c ****  * @param[in]     enable              -YT_ENABLE/YT_DISABLE
 954:../Switch/core/yt/yt_port.c ****  * @retval        CMM_ERR_OK          -on success
 955:../Switch/core/yt/yt_port.c ****  * @retval        CMM_ERR_FAIL        -on fail
 956:../Switch/core/yt/yt_port.c ****  */
 957:../Switch/core/yt/yt_port.c **** yt_ret_t yt_port_phy_green_enable_set(yt_unit_t unit, yt_port_t port, yt_enable_t enable)
 958:../Switch/core/yt/yt_port.c **** {
 9987              		.loc 1 958 1 is_stmt 1 view -0
 9988              		.cfi_startproc
 9989              		@ args = 0, pretend = 0, frame = 0
 9990              		@ frame_needed = 0, uses_anonymous_args = 0
 9991              		.loc 1 958 1 is_stmt 0 view .LVU2875
 9992 0000 08B5     		push	{r3, lr}
 9993              		.cfi_def_cfa_offset 8
 9994              		.cfi_offset 3, -8
 9995              		.cfi_offset 14, -4
 959:../Switch/core/yt/yt_port.c ****     CMM_PARAM_CHK((YT_UNIT_NUM <= unit), CMM_ERR_INPUT);
 9996              		.loc 1 959 5 is_stmt 1 view .LVU2876
 9997              		.loc 1 959 5 view .LVU2877
 9998 0002 C0B9     		cbnz	r0, .L1002
 9999 0004 8446     		mov	ip, r0
 10000              		.loc 1 959 5 discriminator 2 view .LVU2878
 960:../Switch/core/yt/yt_port.c ****     CMM_PARAM_CHK(NULL == YT_DISPATCH(unit), CMM_ERR_NOT_INIT);
 10001              		.loc 1 960 5 discriminator 2 view .LVU2879
 10002              		.loc 1 960 5 discriminator 2 view .LVU2880
 10003 0006 2F4B     		ldr	r3, .L1011
 10004 0008 53F82030 		ldr	r3, [r3, r0, lsl #2]
 10005 000c 0BB3     		cbz	r3, .L1003
 10006              		.loc 1 960 5 discriminator 2 view .LVU2881
 961:../Switch/core/yt/yt_port.c ****     CMM_PARAM_CHK((!(YT_DISPATCH(unit)->is_inited)), CMM_ERR_NOT_INIT);
 10007              		.loc 1 961 5 discriminator 2 view .LVU2882
 10008              		.loc 1 961 5 discriminator 2 view .LVU2883
 10009 000e 1878     		ldrb	r0, [r3]	@ zero_extendqisi2
 10010              	.LVL1373:
 10011              		.loc 1 961 5 is_stmt 0 discriminator 2 view .LVU2884
 10012 0010 0028     		cmp	r0, #0
 10013 0012 2CD0     		beq	.L1004
 10014              		.loc 1 961 5 is_stmt 1 discriminator 2 view .LVU2885
 962:../Switch/core/yt/yt_port.c ****     CMM_PARAM_CHK((!(CMM_PORT_VALID(unit, port))), CMM_ERR_PORT);
 10015              		.loc 1 962 5 discriminator 2 view .LVU2886
 10016              		.loc 1 962 5 discriminator 2 view .LVU2887
 10017 0014 2C48     		ldr	r0, .L1011+4
 10018 0016 0078     		ldrb	r0, [r0]	@ zero_extendqisi2
 10019 0018 0028     		cmp	r0, #0
 10020 001a 36D0     		beq	.L996
 10021 001c 2B48     		ldr	r0, .L1011+8
 10022 001e 50F82C00 		ldr	r0, [r0, ip, lsl #2]
 10023 0022 007D     		ldrb	r0, [r0, #20]	@ zero_extendqisi2
 10024 0024 8842     		cmp	r0, r1
 10025 0026 30D9     		bls	.L996
 10026              		.loc 1 962 5 discriminator 4 view .LVU2888
 963:../Switch/core/yt/yt_port.c ****     CMM_PARAM_CHK((YT_ENABLE < enable || YT_DISABLE > enable), CMM_ERR_INPUT);
 10027              		.loc 1 963 5 discriminator 4 view .LVU2889
 10028              		.loc 1 963 5 discriminator 4 view .LVU2890
 10029 0028 012A     		cmp	r2, #1
 10030 002a 3CD8     		bhi	.L1005
 10031              		.loc 1 963 5 discriminator 2 view .LVU2891
 964:../Switch/core/yt/yt_port.c **** 
 965:../Switch/core/yt/yt_port.c ****      return YT_DISPATCH(unit)->port_phy_green_enable_set(unit, port, enable);
 10032              		.loc 1 965 6 discriminator 2 view .LVU2892
 10033              		.loc 1 965 30 is_stmt 0 discriminator 2 view .LVU2893
 10034 002c D3F8F835 		ldr	r3, [r3, #1528]
 10035              		.loc 1 965 13 discriminator 2 view .LVU2894
 10036 0030 6046     		mov	r0, ip
 10037 0032 9847     		blx	r3
 10038              	.LVL1374:
 10039              	.L988:
 966:../Switch/core/yt/yt_port.c **** }
 10040              		.loc 1 966 1 view .LVU2895
 10041 0034 08BD     		pop	{r3, pc}
 10042              	.LVL1375:
 10043              	.L1002:
 959:../Switch/core/yt/yt_port.c ****     CMM_PARAM_CHK(NULL == YT_DISPATCH(unit), CMM_ERR_NOT_INIT);
 10044              		.loc 1 959 5 is_stmt 1 discriminator 1 view .LVU2896
 959:../Switch/core/yt/yt_port.c ****     CMM_PARAM_CHK(NULL == YT_DISPATCH(unit), CMM_ERR_NOT_INIT);
 10045              		.loc 1 959 5 discriminator 1 view .LVU2897
 10046 0036 264B     		ldr	r3, .L1011+12
 10047 0038 1B78     		ldrb	r3, [r3]	@ zero_extendqisi2
 10048 003a 012B     		cmp	r3, #1
 10049 003c 01D8     		bhi	.L1006
 10050              	.LVL1376:
 10051              	.L990:
 959:../Switch/core/yt/yt_port.c ****     CMM_PARAM_CHK(NULL == YT_DISPATCH(unit), CMM_ERR_NOT_INIT);
 10052              		.loc 1 959 5 discriminator 5 view .LVU2898
 959:../Switch/core/yt/yt_port.c ****     CMM_PARAM_CHK(NULL == YT_DISPATCH(unit), CMM_ERR_NOT_INIT);
 10053              		.loc 1 959 5 discriminator 5 view .LVU2899
 959:../Switch/core/yt/yt_port.c ****     CMM_PARAM_CHK(NULL == YT_DISPATCH(unit), CMM_ERR_NOT_INIT);
 10054              		.loc 1 959 5 discriminator 5 view .LVU2900
 10055 003e 0520     		movs	r0, #5
 10056 0040 F8E7     		b	.L988
 10057              	.LVL1377:
 10058              	.L1006:
 959:../Switch/core/yt/yt_port.c ****     CMM_PARAM_CHK(NULL == YT_DISPATCH(unit), CMM_ERR_NOT_INIT);
 10059              		.loc 1 959 5 discriminator 3 view .LVU2901
 10060              	.LBB198:
 959:../Switch/core/yt/yt_port.c ****     CMM_PARAM_CHK(NULL == YT_DISPATCH(unit), CMM_ERR_NOT_INIT);
 10061              		.loc 1 959 5 discriminator 3 view .LVU2902
 10062 0042 244B     		ldr	r3, .L1011+16
 10063 0044 5A69     		ldr	r2, [r3, #20]
 10064              	.LVL1378:
 959:../Switch/core/yt/yt_port.c ****     CMM_PARAM_CHK(NULL == YT_DISPATCH(unit), CMM_ERR_NOT_INIT);
 10065              		.loc 1 959 5 is_stmt 0 discriminator 3 view .LVU2903
 10066 0046 244B     		ldr	r3, .L1011+20
 10067 0048 9968     		ldr	r1, [r3, #8]
 10068              	.LVL1379:
 959:../Switch/core/yt/yt_port.c ****     CMM_PARAM_CHK(NULL == YT_DISPATCH(unit), CMM_ERR_NOT_INIT);
 10069              		.loc 1 959 5 discriminator 3 view .LVU2904
 10070 004a 2448     		ldr	r0, .L1011+24
 10071              	.LVL1380:
 959:../Switch/core/yt/yt_port.c ****     CMM_PARAM_CHK(NULL == YT_DISPATCH(unit), CMM_ERR_NOT_INIT);
 10072              		.loc 1 959 5 discriminator 3 view .LVU2905
 10073 004c FFF7FEFF 		bl	osal_printf
 10074              	.LVL1381:
 10075 0050 F5E7     		b	.L990
 10076              	.LVL1382:
 10077              	.L1003:
 959:../Switch/core/yt/yt_port.c ****     CMM_PARAM_CHK(NULL == YT_DISPATCH(unit), CMM_ERR_NOT_INIT);
 10078              		.loc 1 959 5 discriminator 3 view .LVU2906
 10079              	.LBE198:
 960:../Switch/core/yt/yt_port.c ****     CMM_PARAM_CHK((!(YT_DISPATCH(unit)->is_inited)), CMM_ERR_NOT_INIT);
 10080              		.loc 1 960 5 is_stmt 1 discriminator 1 view .LVU2907
 960:../Switch/core/yt/yt_port.c ****     CMM_PARAM_CHK((!(YT_DISPATCH(unit)->is_inited)), CMM_ERR_NOT_INIT);
 10081              		.loc 1 960 5 discriminator 1 view .LVU2908
 10082 0052 1F4B     		ldr	r3, .L1011+12
 10083 0054 1B78     		ldrb	r3, [r3]	@ zero_extendqisi2
 10084 0056 012B     		cmp	r3, #1
 10085 0058 01D8     		bhi	.L1007
 10086              	.LVL1383:
 10087              	.L993:
 960:../Switch/core/yt/yt_port.c ****     CMM_PARAM_CHK((!(YT_DISPATCH(unit)->is_inited)), CMM_ERR_NOT_INIT);
 10088              		.loc 1 960 5 discriminator 5 view .LVU2909
 960:../Switch/core/yt/yt_port.c ****     CMM_PARAM_CHK((!(YT_DISPATCH(unit)->is_inited)), CMM_ERR_NOT_INIT);
 10089              		.loc 1 960 5 discriminator 5 view .LVU2910
 960:../Switch/core/yt/yt_port.c ****     CMM_PARAM_CHK((!(YT_DISPATCH(unit)->is_inited)), CMM_ERR_NOT_INIT);
 10090              		.loc 1 960 5 discriminator 5 view .LVU2911
 10091 005a 0420     		movs	r0, #4
 10092 005c EAE7     		b	.L988
 10093              	.LVL1384:
 10094              	.L1007:
 960:../Switch/core/yt/yt_port.c ****     CMM_PARAM_CHK((!(YT_DISPATCH(unit)->is_inited)), CMM_ERR_NOT_INIT);
 10095              		.loc 1 960 5 discriminator 3 view .LVU2912
 10096              	.LBB199:
 960:../Switch/core/yt/yt_port.c ****     CMM_PARAM_CHK((!(YT_DISPATCH(unit)->is_inited)), CMM_ERR_NOT_INIT);
 10097              		.loc 1 960 5 discriminator 3 view .LVU2913
 10098 005e 1D4B     		ldr	r3, .L1011+16
 10099 0060 1A69     		ldr	r2, [r3, #16]
 10100              	.LVL1385:
 960:../Switch/core/yt/yt_port.c ****     CMM_PARAM_CHK((!(YT_DISPATCH(unit)->is_inited)), CMM_ERR_NOT_INIT);
 10101              		.loc 1 960 5 is_stmt 0 discriminator 3 view .LVU2914
 10102 0062 1D4B     		ldr	r3, .L1011+20
 10103 0064 9968     		ldr	r1, [r3, #8]
 10104              	.LVL1386:
 960:../Switch/core/yt/yt_port.c ****     CMM_PARAM_CHK((!(YT_DISPATCH(unit)->is_inited)), CMM_ERR_NOT_INIT);
 10105              		.loc 1 960 5 discriminator 3 view .LVU2915
 10106 0066 1D48     		ldr	r0, .L1011+24
 10107              	.LVL1387:
 960:../Switch/core/yt/yt_port.c ****     CMM_PARAM_CHK((!(YT_DISPATCH(unit)->is_inited)), CMM_ERR_NOT_INIT);
 10108              		.loc 1 960 5 discriminator 3 view .LVU2916
 10109 0068 FFF7FEFF 		bl	osal_printf
 10110              	.LVL1388:
 10111 006c F5E7     		b	.L993
 10112              	.LVL1389:
 10113              	.L1004:
 960:../Switch/core/yt/yt_port.c ****     CMM_PARAM_CHK((!(YT_DISPATCH(unit)->is_inited)), CMM_ERR_NOT_INIT);
 10114              		.loc 1 960 5 discriminator 3 view .LVU2917
 10115              	.LBE199:
 961:../Switch/core/yt/yt_port.c ****     CMM_PARAM_CHK((!(CMM_PORT_VALID(unit, port))), CMM_ERR_PORT);
 10116              		.loc 1 961 5 is_stmt 1 discriminator 1 view .LVU2918
 961:../Switch/core/yt/yt_port.c ****     CMM_PARAM_CHK((!(CMM_PORT_VALID(unit, port))), CMM_ERR_PORT);
 10117              		.loc 1 961 5 discriminator 1 view .LVU2919
 10118 006e 184B     		ldr	r3, .L1011+12
 10119 0070 1B78     		ldrb	r3, [r3]	@ zero_extendqisi2
 10120 0072 012B     		cmp	r3, #1
 10121 0074 01D8     		bhi	.L1008
 10122              	.LVL1390:
 10123              	.L995:
 961:../Switch/core/yt/yt_port.c ****     CMM_PARAM_CHK((!(CMM_PORT_VALID(unit, port))), CMM_ERR_PORT);
 10124              		.loc 1 961 5 discriminator 5 view .LVU2920
 961:../Switch/core/yt/yt_port.c ****     CMM_PARAM_CHK((!(CMM_PORT_VALID(unit, port))), CMM_ERR_PORT);
 10125              		.loc 1 961 5 discriminator 5 view .LVU2921
 961:../Switch/core/yt/yt_port.c ****     CMM_PARAM_CHK((!(CMM_PORT_VALID(unit, port))), CMM_ERR_PORT);
 10126              		.loc 1 961 5 discriminator 5 view .LVU2922
 10127 0076 0420     		movs	r0, #4
 10128 0078 DCE7     		b	.L988
 10129              	.LVL1391:
 10130              	.L1008:
 961:../Switch/core/yt/yt_port.c ****     CMM_PARAM_CHK((!(CMM_PORT_VALID(unit, port))), CMM_ERR_PORT);
 10131              		.loc 1 961 5 discriminator 3 view .LVU2923
 10132              	.LBB200:
 961:../Switch/core/yt/yt_port.c ****     CMM_PARAM_CHK((!(CMM_PORT_VALID(unit, port))), CMM_ERR_PORT);
 10133              		.loc 1 961 5 discriminator 3 view .LVU2924
 10134 007a 164B     		ldr	r3, .L1011+16
 10135 007c 1A69     		ldr	r2, [r3, #16]
 10136              	.LVL1392:
 961:../Switch/core/yt/yt_port.c ****     CMM_PARAM_CHK((!(CMM_PORT_VALID(unit, port))), CMM_ERR_PORT);
 10137              		.loc 1 961 5 is_stmt 0 discriminator 3 view .LVU2925
 10138 007e 164B     		ldr	r3, .L1011+20
 10139 0080 9968     		ldr	r1, [r3, #8]
 10140              	.LVL1393:
 961:../Switch/core/yt/yt_port.c ****     CMM_PARAM_CHK((!(CMM_PORT_VALID(unit, port))), CMM_ERR_PORT);
 10141              		.loc 1 961 5 discriminator 3 view .LVU2926
 10142 0082 1648     		ldr	r0, .L1011+24
 10143 0084 FFF7FEFF 		bl	osal_printf
 10144              	.LVL1394:
 10145 0088 F5E7     		b	.L995
 10146              	.LVL1395:
 10147              	.L996:
 961:../Switch/core/yt/yt_port.c ****     CMM_PARAM_CHK((!(CMM_PORT_VALID(unit, port))), CMM_ERR_PORT);
 10148              		.loc 1 961 5 discriminator 3 view .LVU2927
 10149              	.LBE200:
 962:../Switch/core/yt/yt_port.c ****     CMM_PARAM_CHK((YT_ENABLE < enable || YT_DISABLE > enable), CMM_ERR_INPUT);
 10150              		.loc 1 962 5 is_stmt 1 discriminator 3 view .LVU2928
 962:../Switch/core/yt/yt_port.c ****     CMM_PARAM_CHK((YT_ENABLE < enable || YT_DISABLE > enable), CMM_ERR_INPUT);
 10151              		.loc 1 962 5 discriminator 3 view .LVU2929
 10152 008a 114B     		ldr	r3, .L1011+12
 10153 008c 1B78     		ldrb	r3, [r3]	@ zero_extendqisi2
 10154 008e 012B     		cmp	r3, #1
 10155 0090 01D8     		bhi	.L1009
 10156              	.LVL1396:
 10157              	.L998:
 962:../Switch/core/yt/yt_port.c ****     CMM_PARAM_CHK((YT_ENABLE < enable || YT_DISABLE > enable), CMM_ERR_INPUT);
 10158              		.loc 1 962 5 discriminator 7 view .LVU2930
 962:../Switch/core/yt/yt_port.c ****     CMM_PARAM_CHK((YT_ENABLE < enable || YT_DISABLE > enable), CMM_ERR_INPUT);
 10159              		.loc 1 962 5 discriminator 7 view .LVU2931
 962:../Switch/core/yt/yt_port.c ****     CMM_PARAM_CHK((YT_ENABLE < enable || YT_DISABLE > enable), CMM_ERR_INPUT);
 10160              		.loc 1 962 5 discriminator 7 view .LVU2932
 10161 0092 0E20     		movs	r0, #14
 10162 0094 CEE7     		b	.L988
 10163              	.LVL1397:
 10164              	.L1009:
 962:../Switch/core/yt/yt_port.c ****     CMM_PARAM_CHK((YT_ENABLE < enable || YT_DISABLE > enable), CMM_ERR_INPUT);
 10165              		.loc 1 962 5 discriminator 5 view .LVU2933
 10166              	.LBB201:
 962:../Switch/core/yt/yt_port.c ****     CMM_PARAM_CHK((YT_ENABLE < enable || YT_DISABLE > enable), CMM_ERR_INPUT);
 10167              		.loc 1 962 5 discriminator 5 view .LVU2934
 10168 0096 0F4B     		ldr	r3, .L1011+16
 10169 0098 9A6B     		ldr	r2, [r3, #56]
 10170              	.LVL1398:
 962:../Switch/core/yt/yt_port.c ****     CMM_PARAM_CHK((YT_ENABLE < enable || YT_DISABLE > enable), CMM_ERR_INPUT);
 10171              		.loc 1 962 5 is_stmt 0 discriminator 5 view .LVU2935
 10172 009a 0F4B     		ldr	r3, .L1011+20
 10173 009c 9968     		ldr	r1, [r3, #8]
 10174              	.LVL1399:
 962:../Switch/core/yt/yt_port.c ****     CMM_PARAM_CHK((YT_ENABLE < enable || YT_DISABLE > enable), CMM_ERR_INPUT);
 10175              		.loc 1 962 5 discriminator 5 view .LVU2936
 10176 009e 0F48     		ldr	r0, .L1011+24
 10177 00a0 FFF7FEFF 		bl	osal_printf
 10178              	.LVL1400:
 10179 00a4 F5E7     		b	.L998
 10180              	.LVL1401:
 10181              	.L1005:
 962:../Switch/core/yt/yt_port.c ****     CMM_PARAM_CHK((YT_ENABLE < enable || YT_DISABLE > enable), CMM_ERR_INPUT);
 10182              		.loc 1 962 5 discriminator 5 view .LVU2937
 10183              	.LBE201:
 963:../Switch/core/yt/yt_port.c **** 
 10184              		.loc 1 963 5 is_stmt 1 discriminator 1 view .LVU2938
 963:../Switch/core/yt/yt_port.c **** 
 10185              		.loc 1 963 5 discriminator 1 view .LVU2939
 10186 00a6 0A4B     		ldr	r3, .L1011+12
 10187 00a8 1B78     		ldrb	r3, [r3]	@ zero_extendqisi2
 10188 00aa 012B     		cmp	r3, #1
 10189 00ac 01D8     		bhi	.L1010
 10190              	.LVL1402:
 10191              	.L1000:
 963:../Switch/core/yt/yt_port.c **** 
 10192              		.loc 1 963 5 discriminator 5 view .LVU2940
 963:../Switch/core/yt/yt_port.c **** 
 10193              		.loc 1 963 5 discriminator 5 view .LVU2941
 963:../Switch/core/yt/yt_port.c **** 
 10194              		.loc 1 963 5 discriminator 5 view .LVU2942
 10195 00ae 0520     		movs	r0, #5
 10196 00b0 C0E7     		b	.L988
 10197              	.LVL1403:
 10198              	.L1010:
 963:../Switch/core/yt/yt_port.c **** 
 10199              		.loc 1 963 5 discriminator 3 view .LVU2943
 10200              	.LBB202:
 963:../Switch/core/yt/yt_port.c **** 
 10201              		.loc 1 963 5 discriminator 3 view .LVU2944
 10202 00b2 084B     		ldr	r3, .L1011+16
 10203 00b4 5A69     		ldr	r2, [r3, #20]
 10204              	.LVL1404:
 963:../Switch/core/yt/yt_port.c **** 
 10205              		.loc 1 963 5 is_stmt 0 discriminator 3 view .LVU2945
 10206 00b6 084B     		ldr	r3, .L1011+20
 10207 00b8 9968     		ldr	r1, [r3, #8]
 10208              	.LVL1405:
 963:../Switch/core/yt/yt_port.c **** 
 10209              		.loc 1 963 5 discriminator 3 view .LVU2946
 10210 00ba 0848     		ldr	r0, .L1011+24
 10211 00bc FFF7FEFF 		bl	osal_printf
 10212              	.LVL1406:
 10213 00c0 F5E7     		b	.L1000
 10214              	.L1012:
 10215 00c2 00BF     		.align	2
 10216              	.L1011:
 10217 00c4 00000000 		.word	gpfal_dispatch
 10218 00c8 00000000 		.word	gcal_inited
 10219 00cc 00000000 		.word	gpSwitchUnit
 10220 00d0 00000000 		.word	yt_debug_level
 10221 00d4 00000000 		.word	_yt_errmsg
 10222 00d8 00000000 		.word	_yt_prompt_msg
 10223 00dc 00000000 		.word	.LC0
 10224              	.LBE202:
 10225              		.cfi_endproc
 10226              	.LFE43:
 10228              		.section	.text.yt_port_phy_green_enable_get,"ax",%progbits
 10229              		.align	1
 10230              		.global	yt_port_phy_green_enable_get
 10231              		.syntax unified
 10232              		.thumb
 10233              		.thumb_func
 10235              	yt_port_phy_green_enable_get:
 10236              	.LVL1407:
 10237              	.LFB44:
 967:../Switch/core/yt/yt_port.c **** 
 968:../Switch/core/yt/yt_port.c **** /**
 969:../Switch/core/yt/yt_port.c ****  * @internal      yt_port_phy_green_enable_get
 970:../Switch/core/yt/yt_port.c ****  * @endinternal
 971:../Switch/core/yt/yt_port.c ****  *
 972:../Switch/core/yt/yt_port.c ****  * @brief         get phy green status
 973:../Switch/core/yt/yt_port.c ****  * @note          APPLICABLE DEVICES  -Tiger
 974:../Switch/core/yt/yt_port.c ****  * @param[in]     unit                -unit id
 975:../Switch/core/yt/yt_port.c ****  * @param[in]     port                -port num
 976:../Switch/core/yt/yt_port.c ****  * @param[out]    pStatus             -x
 977:../Switch/core/yt/yt_port.c ****  * @retval        CMM_ERR_OK          -on success
 978:../Switch/core/yt/yt_port.c ****  * @retval        CMM_ERR_FAIL        -on fail
 979:../Switch/core/yt/yt_port.c ****  */
 980:../Switch/core/yt/yt_port.c ****  yt_ret_t yt_port_phy_green_enable_get(yt_unit_t unit, yt_port_t port, yt_enable_t *pStatus)
 981:../Switch/core/yt/yt_port.c **** {
 10238              		.loc 1 981 1 is_stmt 1 view -0
 10239              		.cfi_startproc
 10240              		@ args = 0, pretend = 0, frame = 0
 10241              		@ frame_needed = 0, uses_anonymous_args = 0
 10242              		.loc 1 981 1 is_stmt 0 view .LVU2948
 10243 0000 08B5     		push	{r3, lr}
 10244              		.cfi_def_cfa_offset 8
 10245              		.cfi_offset 3, -8
 10246              		.cfi_offset 14, -4
 982:../Switch/core/yt/yt_port.c ****     CMM_PARAM_CHK((YT_UNIT_NUM <= unit), CMM_ERR_INPUT);
 10247              		.loc 1 982 5 is_stmt 1 view .LVU2949
 10248              		.loc 1 982 5 view .LVU2950
 10249 0002 C0B9     		cbnz	r0, .L1027
 10250 0004 8446     		mov	ip, r0
 10251              		.loc 1 982 5 discriminator 2 view .LVU2951
 983:../Switch/core/yt/yt_port.c ****     CMM_PARAM_CHK(NULL == YT_DISPATCH(unit), CMM_ERR_NOT_INIT);
 10252              		.loc 1 983 5 discriminator 2 view .LVU2952
 10253              		.loc 1 983 5 discriminator 2 view .LVU2953
 10254 0006 2F4B     		ldr	r3, .L1036
 10255 0008 53F82030 		ldr	r3, [r3, r0, lsl #2]
 10256 000c 0BB3     		cbz	r3, .L1028
 10257              		.loc 1 983 5 discriminator 2 view .LVU2954
 984:../Switch/core/yt/yt_port.c ****     CMM_PARAM_CHK((!(YT_DISPATCH(unit)->is_inited)), CMM_ERR_NOT_INIT);
 10258              		.loc 1 984 5 discriminator 2 view .LVU2955
 10259              		.loc 1 984 5 discriminator 2 view .LVU2956
 10260 000e 1878     		ldrb	r0, [r3]	@ zero_extendqisi2
 10261              	.LVL1408:
 10262              		.loc 1 984 5 is_stmt 0 discriminator 2 view .LVU2957
 10263 0010 0028     		cmp	r0, #0
 10264 0012 2CD0     		beq	.L1029
 10265              		.loc 1 984 5 is_stmt 1 discriminator 2 view .LVU2958
 985:../Switch/core/yt/yt_port.c ****     CMM_PARAM_CHK((!(CMM_PORT_VALID(unit, port))), CMM_ERR_PORT);
 10266              		.loc 1 985 5 discriminator 2 view .LVU2959
 10267              		.loc 1 985 5 discriminator 2 view .LVU2960
 10268 0014 2C48     		ldr	r0, .L1036+4
 10269 0016 0078     		ldrb	r0, [r0]	@ zero_extendqisi2
 10270 0018 0028     		cmp	r0, #0
 10271 001a 36D0     		beq	.L1021
 10272 001c 2B48     		ldr	r0, .L1036+8
 10273 001e 50F82C00 		ldr	r0, [r0, ip, lsl #2]
 10274 0022 007D     		ldrb	r0, [r0, #20]	@ zero_extendqisi2
 10275 0024 8842     		cmp	r0, r1
 10276 0026 30D9     		bls	.L1021
 10277              		.loc 1 985 5 discriminator 4 view .LVU2961
 986:../Switch/core/yt/yt_port.c ****     CMM_PARAM_CHK((NULL == pStatus), CMM_ERR_NULL_POINT);
 10278              		.loc 1 986 5 discriminator 4 view .LVU2962
 10279              		.loc 1 986 5 discriminator 4 view .LVU2963
 10280 0028 002A     		cmp	r2, #0
 10281 002a 3CD0     		beq	.L1030
 10282              		.loc 1 986 5 discriminator 2 view .LVU2964
 987:../Switch/core/yt/yt_port.c **** 
 988:../Switch/core/yt/yt_port.c ****      return YT_DISPATCH(unit)->port_phy_green_enable_get(unit, port, pStatus);
 10283              		.loc 1 988 6 discriminator 2 view .LVU2965
 10284              		.loc 1 988 30 is_stmt 0 discriminator 2 view .LVU2966
 10285 002c D3F8FC35 		ldr	r3, [r3, #1532]
 10286              		.loc 1 988 13 discriminator 2 view .LVU2967
 10287 0030 6046     		mov	r0, ip
 10288 0032 9847     		blx	r3
 10289              	.LVL1409:
 10290              	.L1013:
 989:../Switch/core/yt/yt_port.c **** }
 10291              		.loc 1 989 1 view .LVU2968
 10292 0034 08BD     		pop	{r3, pc}
 10293              	.LVL1410:
 10294              	.L1027:
 982:../Switch/core/yt/yt_port.c ****     CMM_PARAM_CHK(NULL == YT_DISPATCH(unit), CMM_ERR_NOT_INIT);
 10295              		.loc 1 982 5 is_stmt 1 discriminator 1 view .LVU2969
 982:../Switch/core/yt/yt_port.c ****     CMM_PARAM_CHK(NULL == YT_DISPATCH(unit), CMM_ERR_NOT_INIT);
 10296              		.loc 1 982 5 discriminator 1 view .LVU2970
 10297 0036 264B     		ldr	r3, .L1036+12
 10298 0038 1B78     		ldrb	r3, [r3]	@ zero_extendqisi2
 10299 003a 012B     		cmp	r3, #1
 10300 003c 01D8     		bhi	.L1031
 10301              	.LVL1411:
 10302              	.L1015:
 982:../Switch/core/yt/yt_port.c ****     CMM_PARAM_CHK(NULL == YT_DISPATCH(unit), CMM_ERR_NOT_INIT);
 10303              		.loc 1 982 5 discriminator 5 view .LVU2971
 982:../Switch/core/yt/yt_port.c ****     CMM_PARAM_CHK(NULL == YT_DISPATCH(unit), CMM_ERR_NOT_INIT);
 10304              		.loc 1 982 5 discriminator 5 view .LVU2972
 982:../Switch/core/yt/yt_port.c ****     CMM_PARAM_CHK(NULL == YT_DISPATCH(unit), CMM_ERR_NOT_INIT);
 10305              		.loc 1 982 5 discriminator 5 view .LVU2973
 10306 003e 0520     		movs	r0, #5
 10307 0040 F8E7     		b	.L1013
 10308              	.LVL1412:
 10309              	.L1031:
 982:../Switch/core/yt/yt_port.c ****     CMM_PARAM_CHK(NULL == YT_DISPATCH(unit), CMM_ERR_NOT_INIT);
 10310              		.loc 1 982 5 discriminator 3 view .LVU2974
 10311              	.LBB203:
 982:../Switch/core/yt/yt_port.c ****     CMM_PARAM_CHK(NULL == YT_DISPATCH(unit), CMM_ERR_NOT_INIT);
 10312              		.loc 1 982 5 discriminator 3 view .LVU2975
 10313 0042 244B     		ldr	r3, .L1036+16
 10314 0044 5A69     		ldr	r2, [r3, #20]
 10315              	.LVL1413:
 982:../Switch/core/yt/yt_port.c ****     CMM_PARAM_CHK(NULL == YT_DISPATCH(unit), CMM_ERR_NOT_INIT);
 10316              		.loc 1 982 5 is_stmt 0 discriminator 3 view .LVU2976
 10317 0046 244B     		ldr	r3, .L1036+20
 10318 0048 9968     		ldr	r1, [r3, #8]
 10319              	.LVL1414:
 982:../Switch/core/yt/yt_port.c ****     CMM_PARAM_CHK(NULL == YT_DISPATCH(unit), CMM_ERR_NOT_INIT);
 10320              		.loc 1 982 5 discriminator 3 view .LVU2977
 10321 004a 2448     		ldr	r0, .L1036+24
 10322              	.LVL1415:
 982:../Switch/core/yt/yt_port.c ****     CMM_PARAM_CHK(NULL == YT_DISPATCH(unit), CMM_ERR_NOT_INIT);
 10323              		.loc 1 982 5 discriminator 3 view .LVU2978
 10324 004c FFF7FEFF 		bl	osal_printf
 10325              	.LVL1416:
 10326 0050 F5E7     		b	.L1015
 10327              	.LVL1417:
 10328              	.L1028:
 982:../Switch/core/yt/yt_port.c ****     CMM_PARAM_CHK(NULL == YT_DISPATCH(unit), CMM_ERR_NOT_INIT);
 10329              		.loc 1 982 5 discriminator 3 view .LVU2979
 10330              	.LBE203:
 983:../Switch/core/yt/yt_port.c ****     CMM_PARAM_CHK((!(YT_DISPATCH(unit)->is_inited)), CMM_ERR_NOT_INIT);
 10331              		.loc 1 983 5 is_stmt 1 discriminator 1 view .LVU2980
 983:../Switch/core/yt/yt_port.c ****     CMM_PARAM_CHK((!(YT_DISPATCH(unit)->is_inited)), CMM_ERR_NOT_INIT);
 10332              		.loc 1 983 5 discriminator 1 view .LVU2981
 10333 0052 1F4B     		ldr	r3, .L1036+12
 10334 0054 1B78     		ldrb	r3, [r3]	@ zero_extendqisi2
 10335 0056 012B     		cmp	r3, #1
 10336 0058 01D8     		bhi	.L1032
 10337              	.LVL1418:
 10338              	.L1018:
 983:../Switch/core/yt/yt_port.c ****     CMM_PARAM_CHK((!(YT_DISPATCH(unit)->is_inited)), CMM_ERR_NOT_INIT);
 10339              		.loc 1 983 5 discriminator 5 view .LVU2982
 983:../Switch/core/yt/yt_port.c ****     CMM_PARAM_CHK((!(YT_DISPATCH(unit)->is_inited)), CMM_ERR_NOT_INIT);
 10340              		.loc 1 983 5 discriminator 5 view .LVU2983
 983:../Switch/core/yt/yt_port.c ****     CMM_PARAM_CHK((!(YT_DISPATCH(unit)->is_inited)), CMM_ERR_NOT_INIT);
 10341              		.loc 1 983 5 discriminator 5 view .LVU2984
 10342 005a 0420     		movs	r0, #4
 10343 005c EAE7     		b	.L1013
 10344              	.LVL1419:
 10345              	.L1032:
 983:../Switch/core/yt/yt_port.c ****     CMM_PARAM_CHK((!(YT_DISPATCH(unit)->is_inited)), CMM_ERR_NOT_INIT);
 10346              		.loc 1 983 5 discriminator 3 view .LVU2985
 10347              	.LBB204:
 983:../Switch/core/yt/yt_port.c ****     CMM_PARAM_CHK((!(YT_DISPATCH(unit)->is_inited)), CMM_ERR_NOT_INIT);
 10348              		.loc 1 983 5 discriminator 3 view .LVU2986
 10349 005e 1D4B     		ldr	r3, .L1036+16
 10350 0060 1A69     		ldr	r2, [r3, #16]
 10351              	.LVL1420:
 983:../Switch/core/yt/yt_port.c ****     CMM_PARAM_CHK((!(YT_DISPATCH(unit)->is_inited)), CMM_ERR_NOT_INIT);
 10352              		.loc 1 983 5 is_stmt 0 discriminator 3 view .LVU2987
 10353 0062 1D4B     		ldr	r3, .L1036+20
 10354 0064 9968     		ldr	r1, [r3, #8]
 10355              	.LVL1421:
 983:../Switch/core/yt/yt_port.c ****     CMM_PARAM_CHK((!(YT_DISPATCH(unit)->is_inited)), CMM_ERR_NOT_INIT);
 10356              		.loc 1 983 5 discriminator 3 view .LVU2988
 10357 0066 1D48     		ldr	r0, .L1036+24
 10358              	.LVL1422:
 983:../Switch/core/yt/yt_port.c ****     CMM_PARAM_CHK((!(YT_DISPATCH(unit)->is_inited)), CMM_ERR_NOT_INIT);
 10359              		.loc 1 983 5 discriminator 3 view .LVU2989
 10360 0068 FFF7FEFF 		bl	osal_printf
 10361              	.LVL1423:
 10362 006c F5E7     		b	.L1018
 10363              	.LVL1424:
 10364              	.L1029:
 983:../Switch/core/yt/yt_port.c ****     CMM_PARAM_CHK((!(YT_DISPATCH(unit)->is_inited)), CMM_ERR_NOT_INIT);
 10365              		.loc 1 983 5 discriminator 3 view .LVU2990
 10366              	.LBE204:
 984:../Switch/core/yt/yt_port.c ****     CMM_PARAM_CHK((!(CMM_PORT_VALID(unit, port))), CMM_ERR_PORT);
 10367              		.loc 1 984 5 is_stmt 1 discriminator 1 view .LVU2991
 984:../Switch/core/yt/yt_port.c ****     CMM_PARAM_CHK((!(CMM_PORT_VALID(unit, port))), CMM_ERR_PORT);
 10368              		.loc 1 984 5 discriminator 1 view .LVU2992
 10369 006e 184B     		ldr	r3, .L1036+12
 10370 0070 1B78     		ldrb	r3, [r3]	@ zero_extendqisi2
 10371 0072 012B     		cmp	r3, #1
 10372 0074 01D8     		bhi	.L1033
 10373              	.LVL1425:
 10374              	.L1020:
 984:../Switch/core/yt/yt_port.c ****     CMM_PARAM_CHK((!(CMM_PORT_VALID(unit, port))), CMM_ERR_PORT);
 10375              		.loc 1 984 5 discriminator 5 view .LVU2993
 984:../Switch/core/yt/yt_port.c ****     CMM_PARAM_CHK((!(CMM_PORT_VALID(unit, port))), CMM_ERR_PORT);
 10376              		.loc 1 984 5 discriminator 5 view .LVU2994
 984:../Switch/core/yt/yt_port.c ****     CMM_PARAM_CHK((!(CMM_PORT_VALID(unit, port))), CMM_ERR_PORT);
 10377              		.loc 1 984 5 discriminator 5 view .LVU2995
 10378 0076 0420     		movs	r0, #4
 10379 0078 DCE7     		b	.L1013
 10380              	.LVL1426:
 10381              	.L1033:
 984:../Switch/core/yt/yt_port.c ****     CMM_PARAM_CHK((!(CMM_PORT_VALID(unit, port))), CMM_ERR_PORT);
 10382              		.loc 1 984 5 discriminator 3 view .LVU2996
 10383              	.LBB205:
 984:../Switch/core/yt/yt_port.c ****     CMM_PARAM_CHK((!(CMM_PORT_VALID(unit, port))), CMM_ERR_PORT);
 10384              		.loc 1 984 5 discriminator 3 view .LVU2997
 10385 007a 164B     		ldr	r3, .L1036+16
 10386 007c 1A69     		ldr	r2, [r3, #16]
 10387              	.LVL1427:
 984:../Switch/core/yt/yt_port.c ****     CMM_PARAM_CHK((!(CMM_PORT_VALID(unit, port))), CMM_ERR_PORT);
 10388              		.loc 1 984 5 is_stmt 0 discriminator 3 view .LVU2998
 10389 007e 164B     		ldr	r3, .L1036+20
 10390 0080 9968     		ldr	r1, [r3, #8]
 10391              	.LVL1428:
 984:../Switch/core/yt/yt_port.c ****     CMM_PARAM_CHK((!(CMM_PORT_VALID(unit, port))), CMM_ERR_PORT);
 10392              		.loc 1 984 5 discriminator 3 view .LVU2999
 10393 0082 1648     		ldr	r0, .L1036+24
 10394 0084 FFF7FEFF 		bl	osal_printf
 10395              	.LVL1429:
 10396 0088 F5E7     		b	.L1020
 10397              	.LVL1430:
 10398              	.L1021:
 984:../Switch/core/yt/yt_port.c ****     CMM_PARAM_CHK((!(CMM_PORT_VALID(unit, port))), CMM_ERR_PORT);
 10399              		.loc 1 984 5 discriminator 3 view .LVU3000
 10400              	.LBE205:
 985:../Switch/core/yt/yt_port.c ****     CMM_PARAM_CHK((NULL == pStatus), CMM_ERR_NULL_POINT);
 10401              		.loc 1 985 5 is_stmt 1 discriminator 3 view .LVU3001
 985:../Switch/core/yt/yt_port.c ****     CMM_PARAM_CHK((NULL == pStatus), CMM_ERR_NULL_POINT);
 10402              		.loc 1 985 5 discriminator 3 view .LVU3002
 10403 008a 114B     		ldr	r3, .L1036+12
 10404 008c 1B78     		ldrb	r3, [r3]	@ zero_extendqisi2
 10405 008e 012B     		cmp	r3, #1
 10406 0090 01D8     		bhi	.L1034
 10407              	.LVL1431:
 10408              	.L1023:
 985:../Switch/core/yt/yt_port.c ****     CMM_PARAM_CHK((NULL == pStatus), CMM_ERR_NULL_POINT);
 10409              		.loc 1 985 5 discriminator 7 view .LVU3003
 985:../Switch/core/yt/yt_port.c ****     CMM_PARAM_CHK((NULL == pStatus), CMM_ERR_NULL_POINT);
 10410              		.loc 1 985 5 discriminator 7 view .LVU3004
 985:../Switch/core/yt/yt_port.c ****     CMM_PARAM_CHK((NULL == pStatus), CMM_ERR_NULL_POINT);
 10411              		.loc 1 985 5 discriminator 7 view .LVU3005
 10412 0092 0E20     		movs	r0, #14
 10413 0094 CEE7     		b	.L1013
 10414              	.LVL1432:
 10415              	.L1034:
 985:../Switch/core/yt/yt_port.c ****     CMM_PARAM_CHK((NULL == pStatus), CMM_ERR_NULL_POINT);
 10416              		.loc 1 985 5 discriminator 5 view .LVU3006
 10417              	.LBB206:
 985:../Switch/core/yt/yt_port.c ****     CMM_PARAM_CHK((NULL == pStatus), CMM_ERR_NULL_POINT);
 10418              		.loc 1 985 5 discriminator 5 view .LVU3007
 10419 0096 0F4B     		ldr	r3, .L1036+16
 10420 0098 9A6B     		ldr	r2, [r3, #56]
 10421              	.LVL1433:
 985:../Switch/core/yt/yt_port.c ****     CMM_PARAM_CHK((NULL == pStatus), CMM_ERR_NULL_POINT);
 10422              		.loc 1 985 5 is_stmt 0 discriminator 5 view .LVU3008
 10423 009a 0F4B     		ldr	r3, .L1036+20
 10424 009c 9968     		ldr	r1, [r3, #8]
 10425              	.LVL1434:
 985:../Switch/core/yt/yt_port.c ****     CMM_PARAM_CHK((NULL == pStatus), CMM_ERR_NULL_POINT);
 10426              		.loc 1 985 5 discriminator 5 view .LVU3009
 10427 009e 0F48     		ldr	r0, .L1036+24
 10428 00a0 FFF7FEFF 		bl	osal_printf
 10429              	.LVL1435:
 10430 00a4 F5E7     		b	.L1023
 10431              	.LVL1436:
 10432              	.L1030:
 985:../Switch/core/yt/yt_port.c ****     CMM_PARAM_CHK((NULL == pStatus), CMM_ERR_NULL_POINT);
 10433              		.loc 1 985 5 discriminator 5 view .LVU3010
 10434              	.LBE206:
 986:../Switch/core/yt/yt_port.c **** 
 10435              		.loc 1 986 5 is_stmt 1 discriminator 1 view .LVU3011
 986:../Switch/core/yt/yt_port.c **** 
 10436              		.loc 1 986 5 discriminator 1 view .LVU3012
 10437 00a6 0A4B     		ldr	r3, .L1036+12
 10438 00a8 1B78     		ldrb	r3, [r3]	@ zero_extendqisi2
 10439 00aa 012B     		cmp	r3, #1
 10440 00ac 01D8     		bhi	.L1035
 10441              	.LVL1437:
 10442              	.L1025:
 986:../Switch/core/yt/yt_port.c **** 
 10443              		.loc 1 986 5 discriminator 5 view .LVU3013
 986:../Switch/core/yt/yt_port.c **** 
 10444              		.loc 1 986 5 discriminator 5 view .LVU3014
 986:../Switch/core/yt/yt_port.c **** 
 10445              		.loc 1 986 5 discriminator 5 view .LVU3015
 10446 00ae 0220     		movs	r0, #2
 10447 00b0 C0E7     		b	.L1013
 10448              	.LVL1438:
 10449              	.L1035:
 986:../Switch/core/yt/yt_port.c **** 
 10450              		.loc 1 986 5 discriminator 3 view .LVU3016
 10451              	.LBB207:
 986:../Switch/core/yt/yt_port.c **** 
 10452              		.loc 1 986 5 discriminator 3 view .LVU3017
 10453 00b2 084B     		ldr	r3, .L1036+16
 10454 00b4 9A68     		ldr	r2, [r3, #8]
 10455              	.LVL1439:
 986:../Switch/core/yt/yt_port.c **** 
 10456              		.loc 1 986 5 is_stmt 0 discriminator 3 view .LVU3018
 10457 00b6 084B     		ldr	r3, .L1036+20
 10458 00b8 9968     		ldr	r1, [r3, #8]
 10459              	.LVL1440:
 986:../Switch/core/yt/yt_port.c **** 
 10460              		.loc 1 986 5 discriminator 3 view .LVU3019
 10461 00ba 0848     		ldr	r0, .L1036+24
 10462 00bc FFF7FEFF 		bl	osal_printf
 10463              	.LVL1441:
 10464 00c0 F5E7     		b	.L1025
 10465              	.L1037:
 10466 00c2 00BF     		.align	2
 10467              	.L1036:
 10468 00c4 00000000 		.word	gpfal_dispatch
 10469 00c8 00000000 		.word	gcal_inited
 10470 00cc 00000000 		.word	gpSwitchUnit
 10471 00d0 00000000 		.word	yt_debug_level
 10472 00d4 00000000 		.word	_yt_errmsg
 10473 00d8 00000000 		.word	_yt_prompt_msg
 10474 00dc 00000000 		.word	.LC0
 10475              	.LBE207:
 10476              		.cfi_endproc
 10477              	.LFE44:
 10479              		.section	.text.yt_port_extif_xmiiClk_invert_set,"ax",%progbits
 10480              		.align	1
 10481              		.global	yt_port_extif_xmiiClk_invert_set
 10482              		.syntax unified
 10483              		.thumb
 10484              		.thumb_func
 10486              	yt_port_extif_xmiiClk_invert_set:
 10487              	.LVL1442:
 10488              	.LFB45:
 990:../Switch/core/yt/yt_port.c **** 
 991:../Switch/core/yt/yt_port.c **** /**
 992:../Switch/core/yt/yt_port.c ****  * @internal      yt_port_extif_xmiiClk_invert_set
 993:../Switch/core/yt/yt_port.c ****  * @endinternal
 994:../Switch/core/yt/yt_port.c ****  *
 995:../Switch/core/yt/yt_port.c ****  * @brief         set extif xmii clk revert state
 996:../Switch/core/yt/yt_port.c ****  * @note          APPLICABLE DEVICES  -Tiger
 997:../Switch/core/yt/yt_port.c ****  * @param[in]     unit                -unit id
 998:../Switch/core/yt/yt_port.c ****  * @param[in]     port                -port num
 999:../Switch/core/yt/yt_port.c ****  * @param[out]    state             -invert state enable/disable
1000:../Switch/core/yt/yt_port.c ****  * @retval        CMM_ERR_OK          -on success
1001:../Switch/core/yt/yt_port.c ****  * @retval        CMM_ERR_FAIL        -on fail
1002:../Switch/core/yt/yt_port.c ****  */
1003:../Switch/core/yt/yt_port.c **** yt_ret_t yt_port_extif_xmiiClk_invert_set(yt_unit_t unit, yt_port_t port, yt_enable_t state)
1004:../Switch/core/yt/yt_port.c **** {
 10489              		.loc 1 1004 1 is_stmt 1 view -0
 10490              		.cfi_startproc
 10491              		@ args = 0, pretend = 0, frame = 0
 10492              		@ frame_needed = 0, uses_anonymous_args = 0
 10493              		.loc 1 1004 1 is_stmt 0 view .LVU3021
 10494 0000 08B5     		push	{r3, lr}
 10495              		.cfi_def_cfa_offset 8
 10496              		.cfi_offset 3, -8
 10497              		.cfi_offset 14, -4
1005:../Switch/core/yt/yt_port.c ****     CMM_PARAM_CHK((YT_UNIT_NUM <= unit), CMM_ERR_INPUT);
 10498              		.loc 1 1005 5 is_stmt 1 view .LVU3022
 10499              		.loc 1 1005 5 view .LVU3023
 10500 0002 C0B9     		cbnz	r0, .L1052
 10501 0004 8446     		mov	ip, r0
 10502              		.loc 1 1005 5 discriminator 2 view .LVU3024
1006:../Switch/core/yt/yt_port.c ****     CMM_PARAM_CHK(NULL == YT_DISPATCH(unit), CMM_ERR_NOT_INIT);
 10503              		.loc 1 1006 5 discriminator 2 view .LVU3025
 10504              		.loc 1 1006 5 discriminator 2 view .LVU3026
 10505 0006 2F4B     		ldr	r3, .L1061
 10506 0008 53F82030 		ldr	r3, [r3, r0, lsl #2]
 10507 000c 0BB3     		cbz	r3, .L1053
 10508              		.loc 1 1006 5 discriminator 2 view .LVU3027
1007:../Switch/core/yt/yt_port.c ****     CMM_PARAM_CHK((!(YT_DISPATCH(unit)->is_inited)), CMM_ERR_NOT_INIT);
 10509              		.loc 1 1007 5 discriminator 2 view .LVU3028
 10510              		.loc 1 1007 5 discriminator 2 view .LVU3029
 10511 000e 1878     		ldrb	r0, [r3]	@ zero_extendqisi2
 10512              	.LVL1443:
 10513              		.loc 1 1007 5 is_stmt 0 discriminator 2 view .LVU3030
 10514 0010 0028     		cmp	r0, #0
 10515 0012 2CD0     		beq	.L1054
 10516              		.loc 1 1007 5 is_stmt 1 discriminator 2 view .LVU3031
1008:../Switch/core/yt/yt_port.c ****     CMM_PARAM_CHK((!(CMM_PORT_VALID(unit, port))), CMM_ERR_PORT);
 10517              		.loc 1 1008 5 discriminator 2 view .LVU3032
 10518              		.loc 1 1008 5 discriminator 2 view .LVU3033
 10519 0014 2C48     		ldr	r0, .L1061+4
 10520 0016 0078     		ldrb	r0, [r0]	@ zero_extendqisi2
 10521 0018 0028     		cmp	r0, #0
 10522 001a 36D0     		beq	.L1046
 10523 001c 2B48     		ldr	r0, .L1061+8
 10524 001e 50F82C00 		ldr	r0, [r0, ip, lsl #2]
 10525 0022 007D     		ldrb	r0, [r0, #20]	@ zero_extendqisi2
 10526 0024 8842     		cmp	r0, r1
 10527 0026 30D9     		bls	.L1046
 10528              		.loc 1 1008 5 discriminator 4 view .LVU3034
1009:../Switch/core/yt/yt_port.c ****     CMM_PARAM_CHK((YT_ENABLE < state || YT_DISABLE > state), CMM_ERR_INPUT);
 10529              		.loc 1 1009 5 discriminator 4 view .LVU3035
 10530              		.loc 1 1009 5 discriminator 4 view .LVU3036
 10531 0028 012A     		cmp	r2, #1
 10532 002a 3CD8     		bhi	.L1055
 10533              		.loc 1 1009 5 discriminator 2 view .LVU3037
1010:../Switch/core/yt/yt_port.c **** 
1011:../Switch/core/yt/yt_port.c ****      return YT_DISPATCH(unit)->port_extif_xmiiClk_invert_set(unit, port, state);
 10534              		.loc 1 1011 6 discriminator 2 view .LVU3038
 10535              		.loc 1 1011 30 is_stmt 0 discriminator 2 view .LVU3039
 10536 002c D3F80036 		ldr	r3, [r3, #1536]
 10537              		.loc 1 1011 13 discriminator 2 view .LVU3040
 10538 0030 6046     		mov	r0, ip
 10539 0032 9847     		blx	r3
 10540              	.LVL1444:
 10541              	.L1038:
1012:../Switch/core/yt/yt_port.c **** }
 10542              		.loc 1 1012 1 view .LVU3041
 10543 0034 08BD     		pop	{r3, pc}
 10544              	.LVL1445:
 10545              	.L1052:
1005:../Switch/core/yt/yt_port.c ****     CMM_PARAM_CHK(NULL == YT_DISPATCH(unit), CMM_ERR_NOT_INIT);
 10546              		.loc 1 1005 5 is_stmt 1 discriminator 1 view .LVU3042
1005:../Switch/core/yt/yt_port.c ****     CMM_PARAM_CHK(NULL == YT_DISPATCH(unit), CMM_ERR_NOT_INIT);
 10547              		.loc 1 1005 5 discriminator 1 view .LVU3043
 10548 0036 264B     		ldr	r3, .L1061+12
 10549 0038 1B78     		ldrb	r3, [r3]	@ zero_extendqisi2
 10550 003a 012B     		cmp	r3, #1
 10551 003c 01D8     		bhi	.L1056
 10552              	.LVL1446:
 10553              	.L1040:
1005:../Switch/core/yt/yt_port.c ****     CMM_PARAM_CHK(NULL == YT_DISPATCH(unit), CMM_ERR_NOT_INIT);
 10554              		.loc 1 1005 5 discriminator 5 view .LVU3044
1005:../Switch/core/yt/yt_port.c ****     CMM_PARAM_CHK(NULL == YT_DISPATCH(unit), CMM_ERR_NOT_INIT);
 10555              		.loc 1 1005 5 discriminator 5 view .LVU3045
1005:../Switch/core/yt/yt_port.c ****     CMM_PARAM_CHK(NULL == YT_DISPATCH(unit), CMM_ERR_NOT_INIT);
 10556              		.loc 1 1005 5 discriminator 5 view .LVU3046
 10557 003e 0520     		movs	r0, #5
 10558 0040 F8E7     		b	.L1038
 10559              	.LVL1447:
 10560              	.L1056:
1005:../Switch/core/yt/yt_port.c ****     CMM_PARAM_CHK(NULL == YT_DISPATCH(unit), CMM_ERR_NOT_INIT);
 10561              		.loc 1 1005 5 discriminator 3 view .LVU3047
 10562              	.LBB208:
1005:../Switch/core/yt/yt_port.c ****     CMM_PARAM_CHK(NULL == YT_DISPATCH(unit), CMM_ERR_NOT_INIT);
 10563              		.loc 1 1005 5 discriminator 3 view .LVU3048
 10564 0042 244B     		ldr	r3, .L1061+16
 10565 0044 5A69     		ldr	r2, [r3, #20]
 10566              	.LVL1448:
1005:../Switch/core/yt/yt_port.c ****     CMM_PARAM_CHK(NULL == YT_DISPATCH(unit), CMM_ERR_NOT_INIT);
 10567              		.loc 1 1005 5 is_stmt 0 discriminator 3 view .LVU3049
 10568 0046 244B     		ldr	r3, .L1061+20
 10569 0048 9968     		ldr	r1, [r3, #8]
 10570              	.LVL1449:
1005:../Switch/core/yt/yt_port.c ****     CMM_PARAM_CHK(NULL == YT_DISPATCH(unit), CMM_ERR_NOT_INIT);
 10571              		.loc 1 1005 5 discriminator 3 view .LVU3050
 10572 004a 2448     		ldr	r0, .L1061+24
 10573              	.LVL1450:
1005:../Switch/core/yt/yt_port.c ****     CMM_PARAM_CHK(NULL == YT_DISPATCH(unit), CMM_ERR_NOT_INIT);
 10574              		.loc 1 1005 5 discriminator 3 view .LVU3051
 10575 004c FFF7FEFF 		bl	osal_printf
 10576              	.LVL1451:
 10577 0050 F5E7     		b	.L1040
 10578              	.LVL1452:
 10579              	.L1053:
1005:../Switch/core/yt/yt_port.c ****     CMM_PARAM_CHK(NULL == YT_DISPATCH(unit), CMM_ERR_NOT_INIT);
 10580              		.loc 1 1005 5 discriminator 3 view .LVU3052
 10581              	.LBE208:
1006:../Switch/core/yt/yt_port.c ****     CMM_PARAM_CHK((!(YT_DISPATCH(unit)->is_inited)), CMM_ERR_NOT_INIT);
 10582              		.loc 1 1006 5 is_stmt 1 discriminator 1 view .LVU3053
1006:../Switch/core/yt/yt_port.c ****     CMM_PARAM_CHK((!(YT_DISPATCH(unit)->is_inited)), CMM_ERR_NOT_INIT);
 10583              		.loc 1 1006 5 discriminator 1 view .LVU3054
 10584 0052 1F4B     		ldr	r3, .L1061+12
 10585 0054 1B78     		ldrb	r3, [r3]	@ zero_extendqisi2
 10586 0056 012B     		cmp	r3, #1
 10587 0058 01D8     		bhi	.L1057
 10588              	.LVL1453:
 10589              	.L1043:
1006:../Switch/core/yt/yt_port.c ****     CMM_PARAM_CHK((!(YT_DISPATCH(unit)->is_inited)), CMM_ERR_NOT_INIT);
 10590              		.loc 1 1006 5 discriminator 5 view .LVU3055
1006:../Switch/core/yt/yt_port.c ****     CMM_PARAM_CHK((!(YT_DISPATCH(unit)->is_inited)), CMM_ERR_NOT_INIT);
 10591              		.loc 1 1006 5 discriminator 5 view .LVU3056
1006:../Switch/core/yt/yt_port.c ****     CMM_PARAM_CHK((!(YT_DISPATCH(unit)->is_inited)), CMM_ERR_NOT_INIT);
 10592              		.loc 1 1006 5 discriminator 5 view .LVU3057
 10593 005a 0420     		movs	r0, #4
 10594 005c EAE7     		b	.L1038
 10595              	.LVL1454:
 10596              	.L1057:
1006:../Switch/core/yt/yt_port.c ****     CMM_PARAM_CHK((!(YT_DISPATCH(unit)->is_inited)), CMM_ERR_NOT_INIT);
 10597              		.loc 1 1006 5 discriminator 3 view .LVU3058
 10598              	.LBB209:
1006:../Switch/core/yt/yt_port.c ****     CMM_PARAM_CHK((!(YT_DISPATCH(unit)->is_inited)), CMM_ERR_NOT_INIT);
 10599              		.loc 1 1006 5 discriminator 3 view .LVU3059
 10600 005e 1D4B     		ldr	r3, .L1061+16
 10601 0060 1A69     		ldr	r2, [r3, #16]
 10602              	.LVL1455:
1006:../Switch/core/yt/yt_port.c ****     CMM_PARAM_CHK((!(YT_DISPATCH(unit)->is_inited)), CMM_ERR_NOT_INIT);
 10603              		.loc 1 1006 5 is_stmt 0 discriminator 3 view .LVU3060
 10604 0062 1D4B     		ldr	r3, .L1061+20
 10605 0064 9968     		ldr	r1, [r3, #8]
 10606              	.LVL1456:
1006:../Switch/core/yt/yt_port.c ****     CMM_PARAM_CHK((!(YT_DISPATCH(unit)->is_inited)), CMM_ERR_NOT_INIT);
 10607              		.loc 1 1006 5 discriminator 3 view .LVU3061
 10608 0066 1D48     		ldr	r0, .L1061+24
 10609              	.LVL1457:
1006:../Switch/core/yt/yt_port.c ****     CMM_PARAM_CHK((!(YT_DISPATCH(unit)->is_inited)), CMM_ERR_NOT_INIT);
 10610              		.loc 1 1006 5 discriminator 3 view .LVU3062
 10611 0068 FFF7FEFF 		bl	osal_printf
 10612              	.LVL1458:
 10613 006c F5E7     		b	.L1043
 10614              	.LVL1459:
 10615              	.L1054:
1006:../Switch/core/yt/yt_port.c ****     CMM_PARAM_CHK((!(YT_DISPATCH(unit)->is_inited)), CMM_ERR_NOT_INIT);
 10616              		.loc 1 1006 5 discriminator 3 view .LVU3063
 10617              	.LBE209:
1007:../Switch/core/yt/yt_port.c ****     CMM_PARAM_CHK((!(CMM_PORT_VALID(unit, port))), CMM_ERR_PORT);
 10618              		.loc 1 1007 5 is_stmt 1 discriminator 1 view .LVU3064
1007:../Switch/core/yt/yt_port.c ****     CMM_PARAM_CHK((!(CMM_PORT_VALID(unit, port))), CMM_ERR_PORT);
 10619              		.loc 1 1007 5 discriminator 1 view .LVU3065
 10620 006e 184B     		ldr	r3, .L1061+12
 10621 0070 1B78     		ldrb	r3, [r3]	@ zero_extendqisi2
 10622 0072 012B     		cmp	r3, #1
 10623 0074 01D8     		bhi	.L1058
 10624              	.LVL1460:
 10625              	.L1045:
1007:../Switch/core/yt/yt_port.c ****     CMM_PARAM_CHK((!(CMM_PORT_VALID(unit, port))), CMM_ERR_PORT);
 10626              		.loc 1 1007 5 discriminator 5 view .LVU3066
1007:../Switch/core/yt/yt_port.c ****     CMM_PARAM_CHK((!(CMM_PORT_VALID(unit, port))), CMM_ERR_PORT);
 10627              		.loc 1 1007 5 discriminator 5 view .LVU3067
1007:../Switch/core/yt/yt_port.c ****     CMM_PARAM_CHK((!(CMM_PORT_VALID(unit, port))), CMM_ERR_PORT);
 10628              		.loc 1 1007 5 discriminator 5 view .LVU3068
 10629 0076 0420     		movs	r0, #4
 10630 0078 DCE7     		b	.L1038
 10631              	.LVL1461:
 10632              	.L1058:
1007:../Switch/core/yt/yt_port.c ****     CMM_PARAM_CHK((!(CMM_PORT_VALID(unit, port))), CMM_ERR_PORT);
 10633              		.loc 1 1007 5 discriminator 3 view .LVU3069
 10634              	.LBB210:
1007:../Switch/core/yt/yt_port.c ****     CMM_PARAM_CHK((!(CMM_PORT_VALID(unit, port))), CMM_ERR_PORT);
 10635              		.loc 1 1007 5 discriminator 3 view .LVU3070
 10636 007a 164B     		ldr	r3, .L1061+16
 10637 007c 1A69     		ldr	r2, [r3, #16]
 10638              	.LVL1462:
1007:../Switch/core/yt/yt_port.c ****     CMM_PARAM_CHK((!(CMM_PORT_VALID(unit, port))), CMM_ERR_PORT);
 10639              		.loc 1 1007 5 is_stmt 0 discriminator 3 view .LVU3071
 10640 007e 164B     		ldr	r3, .L1061+20
 10641 0080 9968     		ldr	r1, [r3, #8]
 10642              	.LVL1463:
1007:../Switch/core/yt/yt_port.c ****     CMM_PARAM_CHK((!(CMM_PORT_VALID(unit, port))), CMM_ERR_PORT);
 10643              		.loc 1 1007 5 discriminator 3 view .LVU3072
 10644 0082 1648     		ldr	r0, .L1061+24
 10645 0084 FFF7FEFF 		bl	osal_printf
 10646              	.LVL1464:
 10647 0088 F5E7     		b	.L1045
 10648              	.LVL1465:
 10649              	.L1046:
1007:../Switch/core/yt/yt_port.c ****     CMM_PARAM_CHK((!(CMM_PORT_VALID(unit, port))), CMM_ERR_PORT);
 10650              		.loc 1 1007 5 discriminator 3 view .LVU3073
 10651              	.LBE210:
1008:../Switch/core/yt/yt_port.c ****     CMM_PARAM_CHK((YT_ENABLE < state || YT_DISABLE > state), CMM_ERR_INPUT);
 10652              		.loc 1 1008 5 is_stmt 1 discriminator 3 view .LVU3074
1008:../Switch/core/yt/yt_port.c ****     CMM_PARAM_CHK((YT_ENABLE < state || YT_DISABLE > state), CMM_ERR_INPUT);
 10653              		.loc 1 1008 5 discriminator 3 view .LVU3075
 10654 008a 114B     		ldr	r3, .L1061+12
 10655 008c 1B78     		ldrb	r3, [r3]	@ zero_extendqisi2
 10656 008e 012B     		cmp	r3, #1
 10657 0090 01D8     		bhi	.L1059
 10658              	.LVL1466:
 10659              	.L1048:
1008:../Switch/core/yt/yt_port.c ****     CMM_PARAM_CHK((YT_ENABLE < state || YT_DISABLE > state), CMM_ERR_INPUT);
 10660              		.loc 1 1008 5 discriminator 7 view .LVU3076
1008:../Switch/core/yt/yt_port.c ****     CMM_PARAM_CHK((YT_ENABLE < state || YT_DISABLE > state), CMM_ERR_INPUT);
 10661              		.loc 1 1008 5 discriminator 7 view .LVU3077
1008:../Switch/core/yt/yt_port.c ****     CMM_PARAM_CHK((YT_ENABLE < state || YT_DISABLE > state), CMM_ERR_INPUT);
 10662              		.loc 1 1008 5 discriminator 7 view .LVU3078
 10663 0092 0E20     		movs	r0, #14
 10664 0094 CEE7     		b	.L1038
 10665              	.LVL1467:
 10666              	.L1059:
1008:../Switch/core/yt/yt_port.c ****     CMM_PARAM_CHK((YT_ENABLE < state || YT_DISABLE > state), CMM_ERR_INPUT);
 10667              		.loc 1 1008 5 discriminator 5 view .LVU3079
 10668              	.LBB211:
1008:../Switch/core/yt/yt_port.c ****     CMM_PARAM_CHK((YT_ENABLE < state || YT_DISABLE > state), CMM_ERR_INPUT);
 10669              		.loc 1 1008 5 discriminator 5 view .LVU3080
 10670 0096 0F4B     		ldr	r3, .L1061+16
 10671 0098 9A6B     		ldr	r2, [r3, #56]
 10672              	.LVL1468:
1008:../Switch/core/yt/yt_port.c ****     CMM_PARAM_CHK((YT_ENABLE < state || YT_DISABLE > state), CMM_ERR_INPUT);
 10673              		.loc 1 1008 5 is_stmt 0 discriminator 5 view .LVU3081
 10674 009a 0F4B     		ldr	r3, .L1061+20
 10675 009c 9968     		ldr	r1, [r3, #8]
 10676              	.LVL1469:
1008:../Switch/core/yt/yt_port.c ****     CMM_PARAM_CHK((YT_ENABLE < state || YT_DISABLE > state), CMM_ERR_INPUT);
 10677              		.loc 1 1008 5 discriminator 5 view .LVU3082
 10678 009e 0F48     		ldr	r0, .L1061+24
 10679 00a0 FFF7FEFF 		bl	osal_printf
 10680              	.LVL1470:
 10681 00a4 F5E7     		b	.L1048
 10682              	.LVL1471:
 10683              	.L1055:
1008:../Switch/core/yt/yt_port.c ****     CMM_PARAM_CHK((YT_ENABLE < state || YT_DISABLE > state), CMM_ERR_INPUT);
 10684              		.loc 1 1008 5 discriminator 5 view .LVU3083
 10685              	.LBE211:
1009:../Switch/core/yt/yt_port.c **** 
 10686              		.loc 1 1009 5 is_stmt 1 discriminator 1 view .LVU3084
1009:../Switch/core/yt/yt_port.c **** 
 10687              		.loc 1 1009 5 discriminator 1 view .LVU3085
 10688 00a6 0A4B     		ldr	r3, .L1061+12
 10689 00a8 1B78     		ldrb	r3, [r3]	@ zero_extendqisi2
 10690 00aa 012B     		cmp	r3, #1
 10691 00ac 01D8     		bhi	.L1060
 10692              	.LVL1472:
 10693              	.L1050:
1009:../Switch/core/yt/yt_port.c **** 
 10694              		.loc 1 1009 5 discriminator 5 view .LVU3086
1009:../Switch/core/yt/yt_port.c **** 
 10695              		.loc 1 1009 5 discriminator 5 view .LVU3087
1009:../Switch/core/yt/yt_port.c **** 
 10696              		.loc 1 1009 5 discriminator 5 view .LVU3088
 10697 00ae 0520     		movs	r0, #5
 10698 00b0 C0E7     		b	.L1038
 10699              	.LVL1473:
 10700              	.L1060:
1009:../Switch/core/yt/yt_port.c **** 
 10701              		.loc 1 1009 5 discriminator 3 view .LVU3089
 10702              	.LBB212:
1009:../Switch/core/yt/yt_port.c **** 
 10703              		.loc 1 1009 5 discriminator 3 view .LVU3090
 10704 00b2 084B     		ldr	r3, .L1061+16
 10705 00b4 5A69     		ldr	r2, [r3, #20]
 10706              	.LVL1474:
1009:../Switch/core/yt/yt_port.c **** 
 10707              		.loc 1 1009 5 is_stmt 0 discriminator 3 view .LVU3091
 10708 00b6 084B     		ldr	r3, .L1061+20
 10709 00b8 9968     		ldr	r1, [r3, #8]
 10710              	.LVL1475:
1009:../Switch/core/yt/yt_port.c **** 
 10711              		.loc 1 1009 5 discriminator 3 view .LVU3092
 10712 00ba 0848     		ldr	r0, .L1061+24
 10713 00bc FFF7FEFF 		bl	osal_printf
 10714              	.LVL1476:
 10715 00c0 F5E7     		b	.L1050
 10716              	.L1062:
 10717 00c2 00BF     		.align	2
 10718              	.L1061:
 10719 00c4 00000000 		.word	gpfal_dispatch
 10720 00c8 00000000 		.word	gcal_inited
 10721 00cc 00000000 		.word	gpSwitchUnit
 10722 00d0 00000000 		.word	yt_debug_level
 10723 00d4 00000000 		.word	_yt_errmsg
 10724 00d8 00000000 		.word	_yt_prompt_msg
 10725 00dc 00000000 		.word	.LC0
 10726              	.LBE212:
 10727              		.cfi_endproc
 10728              	.LFE45:
 10730              		.section	.text.yt_port_extif_xmiiClk_invert_get,"ax",%progbits
 10731              		.align	1
 10732              		.global	yt_port_extif_xmiiClk_invert_get
 10733              		.syntax unified
 10734              		.thumb
 10735              		.thumb_func
 10737              	yt_port_extif_xmiiClk_invert_get:
 10738              	.LVL1477:
 10739              	.LFB46:
1013:../Switch/core/yt/yt_port.c **** 
1014:../Switch/core/yt/yt_port.c **** 
1015:../Switch/core/yt/yt_port.c **** /**
1016:../Switch/core/yt/yt_port.c ****  * @internal      yt_port_extif_xmiiClk_invert_get
1017:../Switch/core/yt/yt_port.c ****  * @endinternal
1018:../Switch/core/yt/yt_port.c ****  *
1019:../Switch/core/yt/yt_port.c ****  * @brief         get extif xmii clk revert state
1020:../Switch/core/yt/yt_port.c ****  * @note          APPLICABLE DEVICES  -Tiger
1021:../Switch/core/yt/yt_port.c ****  * @param[in]     unit                -unit id
1022:../Switch/core/yt/yt_port.c ****  * @param[in]     port                -port num
1023:../Switch/core/yt/yt_port.c ****  * @param[out]    pState             -invert state enable/disable
1024:../Switch/core/yt/yt_port.c ****  * @retval        CMM_ERR_OK          -on success
1025:../Switch/core/yt/yt_port.c ****  * @retval        CMM_ERR_FAIL        -on fail
1026:../Switch/core/yt/yt_port.c ****  */
1027:../Switch/core/yt/yt_port.c **** yt_ret_t yt_port_extif_xmiiClk_invert_get(yt_unit_t unit, yt_port_t port, yt_enable_t *pState)
1028:../Switch/core/yt/yt_port.c **** {
 10740              		.loc 1 1028 1 is_stmt 1 view -0
 10741              		.cfi_startproc
 10742              		@ args = 0, pretend = 0, frame = 0
 10743              		@ frame_needed = 0, uses_anonymous_args = 0
 10744              		.loc 1 1028 1 is_stmt 0 view .LVU3094
 10745 0000 08B5     		push	{r3, lr}
 10746              		.cfi_def_cfa_offset 8
 10747              		.cfi_offset 3, -8
 10748              		.cfi_offset 14, -4
1029:../Switch/core/yt/yt_port.c ****     CMM_PARAM_CHK((YT_UNIT_NUM <= unit), CMM_ERR_INPUT);
 10749              		.loc 1 1029 5 is_stmt 1 view .LVU3095
 10750              		.loc 1 1029 5 view .LVU3096
 10751 0002 C0B9     		cbnz	r0, .L1077
 10752 0004 8446     		mov	ip, r0
 10753              		.loc 1 1029 5 discriminator 2 view .LVU3097
1030:../Switch/core/yt/yt_port.c ****     CMM_PARAM_CHK(NULL == YT_DISPATCH(unit), CMM_ERR_NOT_INIT);
 10754              		.loc 1 1030 5 discriminator 2 view .LVU3098
 10755              		.loc 1 1030 5 discriminator 2 view .LVU3099
 10756 0006 2F4B     		ldr	r3, .L1086
 10757 0008 53F82030 		ldr	r3, [r3, r0, lsl #2]
 10758 000c 0BB3     		cbz	r3, .L1078
 10759              		.loc 1 1030 5 discriminator 2 view .LVU3100
1031:../Switch/core/yt/yt_port.c ****     CMM_PARAM_CHK((!(YT_DISPATCH(unit)->is_inited)), CMM_ERR_NOT_INIT);
 10760              		.loc 1 1031 5 discriminator 2 view .LVU3101
 10761              		.loc 1 1031 5 discriminator 2 view .LVU3102
 10762 000e 1878     		ldrb	r0, [r3]	@ zero_extendqisi2
 10763              	.LVL1478:
 10764              		.loc 1 1031 5 is_stmt 0 discriminator 2 view .LVU3103
 10765 0010 0028     		cmp	r0, #0
 10766 0012 2CD0     		beq	.L1079
 10767              		.loc 1 1031 5 is_stmt 1 discriminator 2 view .LVU3104
1032:../Switch/core/yt/yt_port.c ****     CMM_PARAM_CHK((!(CMM_PORT_VALID(unit, port))), CMM_ERR_PORT);
 10768              		.loc 1 1032 5 discriminator 2 view .LVU3105
 10769              		.loc 1 1032 5 discriminator 2 view .LVU3106
 10770 0014 2C48     		ldr	r0, .L1086+4
 10771 0016 0078     		ldrb	r0, [r0]	@ zero_extendqisi2
 10772 0018 0028     		cmp	r0, #0
 10773 001a 36D0     		beq	.L1071
 10774 001c 2B48     		ldr	r0, .L1086+8
 10775 001e 50F82C00 		ldr	r0, [r0, ip, lsl #2]
 10776 0022 007D     		ldrb	r0, [r0, #20]	@ zero_extendqisi2
 10777 0024 8842     		cmp	r0, r1
 10778 0026 30D9     		bls	.L1071
 10779              		.loc 1 1032 5 discriminator 4 view .LVU3107
1033:../Switch/core/yt/yt_port.c ****     CMM_PARAM_CHK((NULL == pState), CMM_ERR_NULL_POINT);
 10780              		.loc 1 1033 5 discriminator 4 view .LVU3108
 10781              		.loc 1 1033 5 discriminator 4 view .LVU3109
 10782 0028 002A     		cmp	r2, #0
 10783 002a 3CD0     		beq	.L1080
 10784              		.loc 1 1033 5 discriminator 2 view .LVU3110
1034:../Switch/core/yt/yt_port.c **** 
1035:../Switch/core/yt/yt_port.c ****      return YT_DISPATCH(unit)->port_extif_xmiiClk_invert_get(unit, port, pState);
 10785              		.loc 1 1035 6 discriminator 2 view .LVU3111
 10786              		.loc 1 1035 30 is_stmt 0 discriminator 2 view .LVU3112
 10787 002c D3F80436 		ldr	r3, [r3, #1540]
 10788              		.loc 1 1035 13 discriminator 2 view .LVU3113
 10789 0030 6046     		mov	r0, ip
 10790 0032 9847     		blx	r3
 10791              	.LVL1479:
 10792              	.L1063:
1036:../Switch/core/yt/yt_port.c **** }
 10793              		.loc 1 1036 1 view .LVU3114
 10794 0034 08BD     		pop	{r3, pc}
 10795              	.LVL1480:
 10796              	.L1077:
1029:../Switch/core/yt/yt_port.c ****     CMM_PARAM_CHK(NULL == YT_DISPATCH(unit), CMM_ERR_NOT_INIT);
 10797              		.loc 1 1029 5 is_stmt 1 discriminator 1 view .LVU3115
1029:../Switch/core/yt/yt_port.c ****     CMM_PARAM_CHK(NULL == YT_DISPATCH(unit), CMM_ERR_NOT_INIT);
 10798              		.loc 1 1029 5 discriminator 1 view .LVU3116
 10799 0036 264B     		ldr	r3, .L1086+12
 10800 0038 1B78     		ldrb	r3, [r3]	@ zero_extendqisi2
 10801 003a 012B     		cmp	r3, #1
 10802 003c 01D8     		bhi	.L1081
 10803              	.LVL1481:
 10804              	.L1065:
1029:../Switch/core/yt/yt_port.c ****     CMM_PARAM_CHK(NULL == YT_DISPATCH(unit), CMM_ERR_NOT_INIT);
 10805              		.loc 1 1029 5 discriminator 5 view .LVU3117
1029:../Switch/core/yt/yt_port.c ****     CMM_PARAM_CHK(NULL == YT_DISPATCH(unit), CMM_ERR_NOT_INIT);
 10806              		.loc 1 1029 5 discriminator 5 view .LVU3118
1029:../Switch/core/yt/yt_port.c ****     CMM_PARAM_CHK(NULL == YT_DISPATCH(unit), CMM_ERR_NOT_INIT);
 10807              		.loc 1 1029 5 discriminator 5 view .LVU3119
 10808 003e 0520     		movs	r0, #5
 10809 0040 F8E7     		b	.L1063
 10810              	.LVL1482:
 10811              	.L1081:
1029:../Switch/core/yt/yt_port.c ****     CMM_PARAM_CHK(NULL == YT_DISPATCH(unit), CMM_ERR_NOT_INIT);
 10812              		.loc 1 1029 5 discriminator 3 view .LVU3120
 10813              	.LBB213:
1029:../Switch/core/yt/yt_port.c ****     CMM_PARAM_CHK(NULL == YT_DISPATCH(unit), CMM_ERR_NOT_INIT);
 10814              		.loc 1 1029 5 discriminator 3 view .LVU3121
 10815 0042 244B     		ldr	r3, .L1086+16
 10816 0044 5A69     		ldr	r2, [r3, #20]
 10817              	.LVL1483:
1029:../Switch/core/yt/yt_port.c ****     CMM_PARAM_CHK(NULL == YT_DISPATCH(unit), CMM_ERR_NOT_INIT);
 10818              		.loc 1 1029 5 is_stmt 0 discriminator 3 view .LVU3122
 10819 0046 244B     		ldr	r3, .L1086+20
 10820 0048 9968     		ldr	r1, [r3, #8]
 10821              	.LVL1484:
1029:../Switch/core/yt/yt_port.c ****     CMM_PARAM_CHK(NULL == YT_DISPATCH(unit), CMM_ERR_NOT_INIT);
 10822              		.loc 1 1029 5 discriminator 3 view .LVU3123
 10823 004a 2448     		ldr	r0, .L1086+24
 10824              	.LVL1485:
1029:../Switch/core/yt/yt_port.c ****     CMM_PARAM_CHK(NULL == YT_DISPATCH(unit), CMM_ERR_NOT_INIT);
 10825              		.loc 1 1029 5 discriminator 3 view .LVU3124
 10826 004c FFF7FEFF 		bl	osal_printf
 10827              	.LVL1486:
 10828 0050 F5E7     		b	.L1065
 10829              	.LVL1487:
 10830              	.L1078:
1029:../Switch/core/yt/yt_port.c ****     CMM_PARAM_CHK(NULL == YT_DISPATCH(unit), CMM_ERR_NOT_INIT);
 10831              		.loc 1 1029 5 discriminator 3 view .LVU3125
 10832              	.LBE213:
1030:../Switch/core/yt/yt_port.c ****     CMM_PARAM_CHK((!(YT_DISPATCH(unit)->is_inited)), CMM_ERR_NOT_INIT);
 10833              		.loc 1 1030 5 is_stmt 1 discriminator 1 view .LVU3126
1030:../Switch/core/yt/yt_port.c ****     CMM_PARAM_CHK((!(YT_DISPATCH(unit)->is_inited)), CMM_ERR_NOT_INIT);
 10834              		.loc 1 1030 5 discriminator 1 view .LVU3127
 10835 0052 1F4B     		ldr	r3, .L1086+12
 10836 0054 1B78     		ldrb	r3, [r3]	@ zero_extendqisi2
 10837 0056 012B     		cmp	r3, #1
 10838 0058 01D8     		bhi	.L1082
 10839              	.LVL1488:
 10840              	.L1068:
1030:../Switch/core/yt/yt_port.c ****     CMM_PARAM_CHK((!(YT_DISPATCH(unit)->is_inited)), CMM_ERR_NOT_INIT);
 10841              		.loc 1 1030 5 discriminator 5 view .LVU3128
1030:../Switch/core/yt/yt_port.c ****     CMM_PARAM_CHK((!(YT_DISPATCH(unit)->is_inited)), CMM_ERR_NOT_INIT);
 10842              		.loc 1 1030 5 discriminator 5 view .LVU3129
1030:../Switch/core/yt/yt_port.c ****     CMM_PARAM_CHK((!(YT_DISPATCH(unit)->is_inited)), CMM_ERR_NOT_INIT);
 10843              		.loc 1 1030 5 discriminator 5 view .LVU3130
 10844 005a 0420     		movs	r0, #4
 10845 005c EAE7     		b	.L1063
 10846              	.LVL1489:
 10847              	.L1082:
1030:../Switch/core/yt/yt_port.c ****     CMM_PARAM_CHK((!(YT_DISPATCH(unit)->is_inited)), CMM_ERR_NOT_INIT);
 10848              		.loc 1 1030 5 discriminator 3 view .LVU3131
 10849              	.LBB214:
1030:../Switch/core/yt/yt_port.c ****     CMM_PARAM_CHK((!(YT_DISPATCH(unit)->is_inited)), CMM_ERR_NOT_INIT);
 10850              		.loc 1 1030 5 discriminator 3 view .LVU3132
 10851 005e 1D4B     		ldr	r3, .L1086+16
 10852 0060 1A69     		ldr	r2, [r3, #16]
 10853              	.LVL1490:
1030:../Switch/core/yt/yt_port.c ****     CMM_PARAM_CHK((!(YT_DISPATCH(unit)->is_inited)), CMM_ERR_NOT_INIT);
 10854              		.loc 1 1030 5 is_stmt 0 discriminator 3 view .LVU3133
 10855 0062 1D4B     		ldr	r3, .L1086+20
 10856 0064 9968     		ldr	r1, [r3, #8]
 10857              	.LVL1491:
1030:../Switch/core/yt/yt_port.c ****     CMM_PARAM_CHK((!(YT_DISPATCH(unit)->is_inited)), CMM_ERR_NOT_INIT);
 10858              		.loc 1 1030 5 discriminator 3 view .LVU3134
 10859 0066 1D48     		ldr	r0, .L1086+24
 10860              	.LVL1492:
1030:../Switch/core/yt/yt_port.c ****     CMM_PARAM_CHK((!(YT_DISPATCH(unit)->is_inited)), CMM_ERR_NOT_INIT);
 10861              		.loc 1 1030 5 discriminator 3 view .LVU3135
 10862 0068 FFF7FEFF 		bl	osal_printf
 10863              	.LVL1493:
 10864 006c F5E7     		b	.L1068
 10865              	.LVL1494:
 10866              	.L1079:
1030:../Switch/core/yt/yt_port.c ****     CMM_PARAM_CHK((!(YT_DISPATCH(unit)->is_inited)), CMM_ERR_NOT_INIT);
 10867              		.loc 1 1030 5 discriminator 3 view .LVU3136
 10868              	.LBE214:
1031:../Switch/core/yt/yt_port.c ****     CMM_PARAM_CHK((!(CMM_PORT_VALID(unit, port))), CMM_ERR_PORT);
 10869              		.loc 1 1031 5 is_stmt 1 discriminator 1 view .LVU3137
1031:../Switch/core/yt/yt_port.c ****     CMM_PARAM_CHK((!(CMM_PORT_VALID(unit, port))), CMM_ERR_PORT);
 10870              		.loc 1 1031 5 discriminator 1 view .LVU3138
 10871 006e 184B     		ldr	r3, .L1086+12
 10872 0070 1B78     		ldrb	r3, [r3]	@ zero_extendqisi2
 10873 0072 012B     		cmp	r3, #1
 10874 0074 01D8     		bhi	.L1083
 10875              	.LVL1495:
 10876              	.L1070:
1031:../Switch/core/yt/yt_port.c ****     CMM_PARAM_CHK((!(CMM_PORT_VALID(unit, port))), CMM_ERR_PORT);
 10877              		.loc 1 1031 5 discriminator 5 view .LVU3139
1031:../Switch/core/yt/yt_port.c ****     CMM_PARAM_CHK((!(CMM_PORT_VALID(unit, port))), CMM_ERR_PORT);
 10878              		.loc 1 1031 5 discriminator 5 view .LVU3140
1031:../Switch/core/yt/yt_port.c ****     CMM_PARAM_CHK((!(CMM_PORT_VALID(unit, port))), CMM_ERR_PORT);
 10879              		.loc 1 1031 5 discriminator 5 view .LVU3141
 10880 0076 0420     		movs	r0, #4
 10881 0078 DCE7     		b	.L1063
 10882              	.LVL1496:
 10883              	.L1083:
1031:../Switch/core/yt/yt_port.c ****     CMM_PARAM_CHK((!(CMM_PORT_VALID(unit, port))), CMM_ERR_PORT);
 10884              		.loc 1 1031 5 discriminator 3 view .LVU3142
 10885              	.LBB215:
1031:../Switch/core/yt/yt_port.c ****     CMM_PARAM_CHK((!(CMM_PORT_VALID(unit, port))), CMM_ERR_PORT);
 10886              		.loc 1 1031 5 discriminator 3 view .LVU3143
 10887 007a 164B     		ldr	r3, .L1086+16
 10888 007c 1A69     		ldr	r2, [r3, #16]
 10889              	.LVL1497:
1031:../Switch/core/yt/yt_port.c ****     CMM_PARAM_CHK((!(CMM_PORT_VALID(unit, port))), CMM_ERR_PORT);
 10890              		.loc 1 1031 5 is_stmt 0 discriminator 3 view .LVU3144
 10891 007e 164B     		ldr	r3, .L1086+20
 10892 0080 9968     		ldr	r1, [r3, #8]
 10893              	.LVL1498:
1031:../Switch/core/yt/yt_port.c ****     CMM_PARAM_CHK((!(CMM_PORT_VALID(unit, port))), CMM_ERR_PORT);
 10894              		.loc 1 1031 5 discriminator 3 view .LVU3145
 10895 0082 1648     		ldr	r0, .L1086+24
 10896 0084 FFF7FEFF 		bl	osal_printf
 10897              	.LVL1499:
 10898 0088 F5E7     		b	.L1070
 10899              	.LVL1500:
 10900              	.L1071:
1031:../Switch/core/yt/yt_port.c ****     CMM_PARAM_CHK((!(CMM_PORT_VALID(unit, port))), CMM_ERR_PORT);
 10901              		.loc 1 1031 5 discriminator 3 view .LVU3146
 10902              	.LBE215:
1032:../Switch/core/yt/yt_port.c ****     CMM_PARAM_CHK((NULL == pState), CMM_ERR_NULL_POINT);
 10903              		.loc 1 1032 5 is_stmt 1 discriminator 3 view .LVU3147
1032:../Switch/core/yt/yt_port.c ****     CMM_PARAM_CHK((NULL == pState), CMM_ERR_NULL_POINT);
 10904              		.loc 1 1032 5 discriminator 3 view .LVU3148
 10905 008a 114B     		ldr	r3, .L1086+12
 10906 008c 1B78     		ldrb	r3, [r3]	@ zero_extendqisi2
 10907 008e 012B     		cmp	r3, #1
 10908 0090 01D8     		bhi	.L1084
 10909              	.LVL1501:
 10910              	.L1073:
1032:../Switch/core/yt/yt_port.c ****     CMM_PARAM_CHK((NULL == pState), CMM_ERR_NULL_POINT);
 10911              		.loc 1 1032 5 discriminator 7 view .LVU3149
1032:../Switch/core/yt/yt_port.c ****     CMM_PARAM_CHK((NULL == pState), CMM_ERR_NULL_POINT);
 10912              		.loc 1 1032 5 discriminator 7 view .LVU3150
1032:../Switch/core/yt/yt_port.c ****     CMM_PARAM_CHK((NULL == pState), CMM_ERR_NULL_POINT);
 10913              		.loc 1 1032 5 discriminator 7 view .LVU3151
 10914 0092 0E20     		movs	r0, #14
 10915 0094 CEE7     		b	.L1063
 10916              	.LVL1502:
 10917              	.L1084:
1032:../Switch/core/yt/yt_port.c ****     CMM_PARAM_CHK((NULL == pState), CMM_ERR_NULL_POINT);
 10918              		.loc 1 1032 5 discriminator 5 view .LVU3152
 10919              	.LBB216:
1032:../Switch/core/yt/yt_port.c ****     CMM_PARAM_CHK((NULL == pState), CMM_ERR_NULL_POINT);
 10920              		.loc 1 1032 5 discriminator 5 view .LVU3153
 10921 0096 0F4B     		ldr	r3, .L1086+16
 10922 0098 9A6B     		ldr	r2, [r3, #56]
 10923              	.LVL1503:
1032:../Switch/core/yt/yt_port.c ****     CMM_PARAM_CHK((NULL == pState), CMM_ERR_NULL_POINT);
 10924              		.loc 1 1032 5 is_stmt 0 discriminator 5 view .LVU3154
 10925 009a 0F4B     		ldr	r3, .L1086+20
 10926 009c 9968     		ldr	r1, [r3, #8]
 10927              	.LVL1504:
1032:../Switch/core/yt/yt_port.c ****     CMM_PARAM_CHK((NULL == pState), CMM_ERR_NULL_POINT);
 10928              		.loc 1 1032 5 discriminator 5 view .LVU3155
 10929 009e 0F48     		ldr	r0, .L1086+24
 10930 00a0 FFF7FEFF 		bl	osal_printf
 10931              	.LVL1505:
 10932 00a4 F5E7     		b	.L1073
 10933              	.LVL1506:
 10934              	.L1080:
1032:../Switch/core/yt/yt_port.c ****     CMM_PARAM_CHK((NULL == pState), CMM_ERR_NULL_POINT);
 10935              		.loc 1 1032 5 discriminator 5 view .LVU3156
 10936              	.LBE216:
1033:../Switch/core/yt/yt_port.c **** 
 10937              		.loc 1 1033 5 is_stmt 1 discriminator 1 view .LVU3157
1033:../Switch/core/yt/yt_port.c **** 
 10938              		.loc 1 1033 5 discriminator 1 view .LVU3158
 10939 00a6 0A4B     		ldr	r3, .L1086+12
 10940 00a8 1B78     		ldrb	r3, [r3]	@ zero_extendqisi2
 10941 00aa 012B     		cmp	r3, #1
 10942 00ac 01D8     		bhi	.L1085
 10943              	.LVL1507:
 10944              	.L1075:
1033:../Switch/core/yt/yt_port.c **** 
 10945              		.loc 1 1033 5 discriminator 5 view .LVU3159
1033:../Switch/core/yt/yt_port.c **** 
 10946              		.loc 1 1033 5 discriminator 5 view .LVU3160
1033:../Switch/core/yt/yt_port.c **** 
 10947              		.loc 1 1033 5 discriminator 5 view .LVU3161
 10948 00ae 0220     		movs	r0, #2
 10949 00b0 C0E7     		b	.L1063
 10950              	.LVL1508:
 10951              	.L1085:
1033:../Switch/core/yt/yt_port.c **** 
 10952              		.loc 1 1033 5 discriminator 3 view .LVU3162
 10953              	.LBB217:
1033:../Switch/core/yt/yt_port.c **** 
 10954              		.loc 1 1033 5 discriminator 3 view .LVU3163
 10955 00b2 084B     		ldr	r3, .L1086+16
 10956 00b4 9A68     		ldr	r2, [r3, #8]
 10957              	.LVL1509:
1033:../Switch/core/yt/yt_port.c **** 
 10958              		.loc 1 1033 5 is_stmt 0 discriminator 3 view .LVU3164
 10959 00b6 084B     		ldr	r3, .L1086+20
 10960 00b8 9968     		ldr	r1, [r3, #8]
 10961              	.LVL1510:
1033:../Switch/core/yt/yt_port.c **** 
 10962              		.loc 1 1033 5 discriminator 3 view .LVU3165
 10963 00ba 0848     		ldr	r0, .L1086+24
 10964 00bc FFF7FEFF 		bl	osal_printf
 10965              	.LVL1511:
 10966 00c0 F5E7     		b	.L1075
 10967              	.L1087:
 10968 00c2 00BF     		.align	2
 10969              	.L1086:
 10970 00c4 00000000 		.word	gpfal_dispatch
 10971 00c8 00000000 		.word	gcal_inited
 10972 00cc 00000000 		.word	gpSwitchUnit
 10973 00d0 00000000 		.word	yt_debug_level
 10974 00d4 00000000 		.word	_yt_errmsg
 10975 00d8 00000000 		.word	_yt_prompt_msg
 10976 00dc 00000000 		.word	.LC0
 10977              	.LBE217:
 10978              		.cfi_endproc
 10979              	.LFE46:
 10981              		.section	.text.yt_port_parallel_detection_set,"ax",%progbits
 10982              		.align	1
 10983              		.global	yt_port_parallel_detection_set
 10984              		.syntax unified
 10985              		.thumb
 10986              		.thumb_func
 10988              	yt_port_parallel_detection_set:
 10989              	.LVL1512:
 10990              	.LFB47:
1037:../Switch/core/yt/yt_port.c **** 
1038:../Switch/core/yt/yt_port.c **** /**
1039:../Switch/core/yt/yt_port.c ****  * @internal      yt_port_parallel_detection_set
1040:../Switch/core/yt/yt_port.c ****  * @endinternal
1041:../Switch/core/yt/yt_port.c ****  *
1042:../Switch/core/yt/yt_port.c ****  * @brief         set serdes parallel detection state
1043:../Switch/core/yt/yt_port.c ****  * @note          APPLICABLE DEVICES  -Tiger
1044:../Switch/core/yt/yt_port.c ****  * @param[in]     unit                -unit id
1045:../Switch/core/yt/yt_port.c ****  * @param[in]     port                -port num
1046:../Switch/core/yt/yt_port.c ****  * @param[out]    state             -parallel detection state enable/disable
1047:../Switch/core/yt/yt_port.c ****  * @retval        CMM_ERR_OK          -on success
1048:../Switch/core/yt/yt_port.c ****  * @retval        CMM_ERR_FAIL        -on fail
1049:../Switch/core/yt/yt_port.c ****  */
1050:../Switch/core/yt/yt_port.c **** yt_ret_t yt_port_parallel_detection_set(yt_unit_t unit, yt_port_t port, yt_enable_t state)
1051:../Switch/core/yt/yt_port.c **** {
 10991              		.loc 1 1051 1 is_stmt 1 view -0
 10992              		.cfi_startproc
 10993              		@ args = 0, pretend = 0, frame = 0
 10994              		@ frame_needed = 0, uses_anonymous_args = 0
 10995              		.loc 1 1051 1 is_stmt 0 view .LVU3167
 10996 0000 08B5     		push	{r3, lr}
 10997              		.cfi_def_cfa_offset 8
 10998              		.cfi_offset 3, -8
 10999              		.cfi_offset 14, -4
1052:../Switch/core/yt/yt_port.c ****     CMM_PARAM_CHK((YT_UNIT_NUM <= unit), CMM_ERR_INPUT);
 11000              		.loc 1 1052 5 is_stmt 1 view .LVU3168
 11001              		.loc 1 1052 5 view .LVU3169
 11002 0002 C0B9     		cbnz	r0, .L1102
 11003 0004 8446     		mov	ip, r0
 11004              		.loc 1 1052 5 discriminator 2 view .LVU3170
1053:../Switch/core/yt/yt_port.c ****     CMM_PARAM_CHK(NULL == YT_DISPATCH(unit), CMM_ERR_NOT_INIT);
 11005              		.loc 1 1053 5 discriminator 2 view .LVU3171
 11006              		.loc 1 1053 5 discriminator 2 view .LVU3172
 11007 0006 2F4B     		ldr	r3, .L1111
 11008 0008 53F82030 		ldr	r3, [r3, r0, lsl #2]
 11009 000c 0BB3     		cbz	r3, .L1103
 11010              		.loc 1 1053 5 discriminator 2 view .LVU3173
1054:../Switch/core/yt/yt_port.c ****     CMM_PARAM_CHK((!(YT_DISPATCH(unit)->is_inited)), CMM_ERR_NOT_INIT);
 11011              		.loc 1 1054 5 discriminator 2 view .LVU3174
 11012              		.loc 1 1054 5 discriminator 2 view .LVU3175
 11013 000e 1878     		ldrb	r0, [r3]	@ zero_extendqisi2
 11014              	.LVL1513:
 11015              		.loc 1 1054 5 is_stmt 0 discriminator 2 view .LVU3176
 11016 0010 0028     		cmp	r0, #0
 11017 0012 2CD0     		beq	.L1104
 11018              		.loc 1 1054 5 is_stmt 1 discriminator 2 view .LVU3177
1055:../Switch/core/yt/yt_port.c ****     CMM_PARAM_CHK((!(CMM_PORT_VALID(unit, port))), CMM_ERR_PORT);
 11019              		.loc 1 1055 5 discriminator 2 view .LVU3178
 11020              		.loc 1 1055 5 discriminator 2 view .LVU3179
 11021 0014 2C48     		ldr	r0, .L1111+4
 11022 0016 0078     		ldrb	r0, [r0]	@ zero_extendqisi2
 11023 0018 0028     		cmp	r0, #0
 11024 001a 36D0     		beq	.L1096
 11025 001c 2B48     		ldr	r0, .L1111+8
 11026 001e 50F82C00 		ldr	r0, [r0, ip, lsl #2]
 11027 0022 007D     		ldrb	r0, [r0, #20]	@ zero_extendqisi2
 11028 0024 8842     		cmp	r0, r1
 11029 0026 30D9     		bls	.L1096
 11030              		.loc 1 1055 5 discriminator 4 view .LVU3180
1056:../Switch/core/yt/yt_port.c ****     CMM_PARAM_CHK((YT_ENABLE < state || YT_DISABLE > state), CMM_ERR_INPUT);
 11031              		.loc 1 1056 5 discriminator 4 view .LVU3181
 11032              		.loc 1 1056 5 discriminator 4 view .LVU3182
 11033 0028 012A     		cmp	r2, #1
 11034 002a 3CD8     		bhi	.L1105
 11035              		.loc 1 1056 5 discriminator 2 view .LVU3183
1057:../Switch/core/yt/yt_port.c **** 
1058:../Switch/core/yt/yt_port.c ****     return YT_DISPATCH(unit)->port_parallel_detection_set(unit, port, state);
 11036              		.loc 1 1058 5 discriminator 2 view .LVU3184
 11037              		.loc 1 1058 29 is_stmt 0 discriminator 2 view .LVU3185
 11038 002c D3F80836 		ldr	r3, [r3, #1544]
 11039              		.loc 1 1058 12 discriminator 2 view .LVU3186
 11040 0030 6046     		mov	r0, ip
 11041 0032 9847     		blx	r3
 11042              	.LVL1514:
 11043              	.L1088:
1059:../Switch/core/yt/yt_port.c **** }
 11044              		.loc 1 1059 1 view .LVU3187
 11045 0034 08BD     		pop	{r3, pc}
 11046              	.LVL1515:
 11047              	.L1102:
1052:../Switch/core/yt/yt_port.c ****     CMM_PARAM_CHK(NULL == YT_DISPATCH(unit), CMM_ERR_NOT_INIT);
 11048              		.loc 1 1052 5 is_stmt 1 discriminator 1 view .LVU3188
1052:../Switch/core/yt/yt_port.c ****     CMM_PARAM_CHK(NULL == YT_DISPATCH(unit), CMM_ERR_NOT_INIT);
 11049              		.loc 1 1052 5 discriminator 1 view .LVU3189
 11050 0036 264B     		ldr	r3, .L1111+12
 11051 0038 1B78     		ldrb	r3, [r3]	@ zero_extendqisi2
 11052 003a 012B     		cmp	r3, #1
 11053 003c 01D8     		bhi	.L1106
 11054              	.LVL1516:
 11055              	.L1090:
1052:../Switch/core/yt/yt_port.c ****     CMM_PARAM_CHK(NULL == YT_DISPATCH(unit), CMM_ERR_NOT_INIT);
 11056              		.loc 1 1052 5 discriminator 5 view .LVU3190
1052:../Switch/core/yt/yt_port.c ****     CMM_PARAM_CHK(NULL == YT_DISPATCH(unit), CMM_ERR_NOT_INIT);
 11057              		.loc 1 1052 5 discriminator 5 view .LVU3191
1052:../Switch/core/yt/yt_port.c ****     CMM_PARAM_CHK(NULL == YT_DISPATCH(unit), CMM_ERR_NOT_INIT);
 11058              		.loc 1 1052 5 discriminator 5 view .LVU3192
 11059 003e 0520     		movs	r0, #5
 11060 0040 F8E7     		b	.L1088
 11061              	.LVL1517:
 11062              	.L1106:
1052:../Switch/core/yt/yt_port.c ****     CMM_PARAM_CHK(NULL == YT_DISPATCH(unit), CMM_ERR_NOT_INIT);
 11063              		.loc 1 1052 5 discriminator 3 view .LVU3193
 11064              	.LBB218:
1052:../Switch/core/yt/yt_port.c ****     CMM_PARAM_CHK(NULL == YT_DISPATCH(unit), CMM_ERR_NOT_INIT);
 11065              		.loc 1 1052 5 discriminator 3 view .LVU3194
 11066 0042 244B     		ldr	r3, .L1111+16
 11067 0044 5A69     		ldr	r2, [r3, #20]
 11068              	.LVL1518:
1052:../Switch/core/yt/yt_port.c ****     CMM_PARAM_CHK(NULL == YT_DISPATCH(unit), CMM_ERR_NOT_INIT);
 11069              		.loc 1 1052 5 is_stmt 0 discriminator 3 view .LVU3195
 11070 0046 244B     		ldr	r3, .L1111+20
 11071 0048 9968     		ldr	r1, [r3, #8]
 11072              	.LVL1519:
1052:../Switch/core/yt/yt_port.c ****     CMM_PARAM_CHK(NULL == YT_DISPATCH(unit), CMM_ERR_NOT_INIT);
 11073              		.loc 1 1052 5 discriminator 3 view .LVU3196
 11074 004a 2448     		ldr	r0, .L1111+24
 11075              	.LVL1520:
1052:../Switch/core/yt/yt_port.c ****     CMM_PARAM_CHK(NULL == YT_DISPATCH(unit), CMM_ERR_NOT_INIT);
 11076              		.loc 1 1052 5 discriminator 3 view .LVU3197
 11077 004c FFF7FEFF 		bl	osal_printf
 11078              	.LVL1521:
 11079 0050 F5E7     		b	.L1090
 11080              	.LVL1522:
 11081              	.L1103:
1052:../Switch/core/yt/yt_port.c ****     CMM_PARAM_CHK(NULL == YT_DISPATCH(unit), CMM_ERR_NOT_INIT);
 11082              		.loc 1 1052 5 discriminator 3 view .LVU3198
 11083              	.LBE218:
1053:../Switch/core/yt/yt_port.c ****     CMM_PARAM_CHK((!(YT_DISPATCH(unit)->is_inited)), CMM_ERR_NOT_INIT);
 11084              		.loc 1 1053 5 is_stmt 1 discriminator 1 view .LVU3199
1053:../Switch/core/yt/yt_port.c ****     CMM_PARAM_CHK((!(YT_DISPATCH(unit)->is_inited)), CMM_ERR_NOT_INIT);
 11085              		.loc 1 1053 5 discriminator 1 view .LVU3200
 11086 0052 1F4B     		ldr	r3, .L1111+12
 11087 0054 1B78     		ldrb	r3, [r3]	@ zero_extendqisi2
 11088 0056 012B     		cmp	r3, #1
 11089 0058 01D8     		bhi	.L1107
 11090              	.LVL1523:
 11091              	.L1093:
1053:../Switch/core/yt/yt_port.c ****     CMM_PARAM_CHK((!(YT_DISPATCH(unit)->is_inited)), CMM_ERR_NOT_INIT);
 11092              		.loc 1 1053 5 discriminator 5 view .LVU3201
1053:../Switch/core/yt/yt_port.c ****     CMM_PARAM_CHK((!(YT_DISPATCH(unit)->is_inited)), CMM_ERR_NOT_INIT);
 11093              		.loc 1 1053 5 discriminator 5 view .LVU3202
1053:../Switch/core/yt/yt_port.c ****     CMM_PARAM_CHK((!(YT_DISPATCH(unit)->is_inited)), CMM_ERR_NOT_INIT);
 11094              		.loc 1 1053 5 discriminator 5 view .LVU3203
 11095 005a 0420     		movs	r0, #4
 11096 005c EAE7     		b	.L1088
 11097              	.LVL1524:
 11098              	.L1107:
1053:../Switch/core/yt/yt_port.c ****     CMM_PARAM_CHK((!(YT_DISPATCH(unit)->is_inited)), CMM_ERR_NOT_INIT);
 11099              		.loc 1 1053 5 discriminator 3 view .LVU3204
 11100              	.LBB219:
1053:../Switch/core/yt/yt_port.c ****     CMM_PARAM_CHK((!(YT_DISPATCH(unit)->is_inited)), CMM_ERR_NOT_INIT);
 11101              		.loc 1 1053 5 discriminator 3 view .LVU3205
 11102 005e 1D4B     		ldr	r3, .L1111+16
 11103 0060 1A69     		ldr	r2, [r3, #16]
 11104              	.LVL1525:
1053:../Switch/core/yt/yt_port.c ****     CMM_PARAM_CHK((!(YT_DISPATCH(unit)->is_inited)), CMM_ERR_NOT_INIT);
 11105              		.loc 1 1053 5 is_stmt 0 discriminator 3 view .LVU3206
 11106 0062 1D4B     		ldr	r3, .L1111+20
 11107 0064 9968     		ldr	r1, [r3, #8]
 11108              	.LVL1526:
1053:../Switch/core/yt/yt_port.c ****     CMM_PARAM_CHK((!(YT_DISPATCH(unit)->is_inited)), CMM_ERR_NOT_INIT);
 11109              		.loc 1 1053 5 discriminator 3 view .LVU3207
 11110 0066 1D48     		ldr	r0, .L1111+24
 11111              	.LVL1527:
1053:../Switch/core/yt/yt_port.c ****     CMM_PARAM_CHK((!(YT_DISPATCH(unit)->is_inited)), CMM_ERR_NOT_INIT);
 11112              		.loc 1 1053 5 discriminator 3 view .LVU3208
 11113 0068 FFF7FEFF 		bl	osal_printf
 11114              	.LVL1528:
 11115 006c F5E7     		b	.L1093
 11116              	.LVL1529:
 11117              	.L1104:
1053:../Switch/core/yt/yt_port.c ****     CMM_PARAM_CHK((!(YT_DISPATCH(unit)->is_inited)), CMM_ERR_NOT_INIT);
 11118              		.loc 1 1053 5 discriminator 3 view .LVU3209
 11119              	.LBE219:
1054:../Switch/core/yt/yt_port.c ****     CMM_PARAM_CHK((!(CMM_PORT_VALID(unit, port))), CMM_ERR_PORT);
 11120              		.loc 1 1054 5 is_stmt 1 discriminator 1 view .LVU3210
1054:../Switch/core/yt/yt_port.c ****     CMM_PARAM_CHK((!(CMM_PORT_VALID(unit, port))), CMM_ERR_PORT);
 11121              		.loc 1 1054 5 discriminator 1 view .LVU3211
 11122 006e 184B     		ldr	r3, .L1111+12
 11123 0070 1B78     		ldrb	r3, [r3]	@ zero_extendqisi2
 11124 0072 012B     		cmp	r3, #1
 11125 0074 01D8     		bhi	.L1108
 11126              	.LVL1530:
 11127              	.L1095:
1054:../Switch/core/yt/yt_port.c ****     CMM_PARAM_CHK((!(CMM_PORT_VALID(unit, port))), CMM_ERR_PORT);
 11128              		.loc 1 1054 5 discriminator 5 view .LVU3212
1054:../Switch/core/yt/yt_port.c ****     CMM_PARAM_CHK((!(CMM_PORT_VALID(unit, port))), CMM_ERR_PORT);
 11129              		.loc 1 1054 5 discriminator 5 view .LVU3213
1054:../Switch/core/yt/yt_port.c ****     CMM_PARAM_CHK((!(CMM_PORT_VALID(unit, port))), CMM_ERR_PORT);
 11130              		.loc 1 1054 5 discriminator 5 view .LVU3214
 11131 0076 0420     		movs	r0, #4
 11132 0078 DCE7     		b	.L1088
 11133              	.LVL1531:
 11134              	.L1108:
1054:../Switch/core/yt/yt_port.c ****     CMM_PARAM_CHK((!(CMM_PORT_VALID(unit, port))), CMM_ERR_PORT);
 11135              		.loc 1 1054 5 discriminator 3 view .LVU3215
 11136              	.LBB220:
1054:../Switch/core/yt/yt_port.c ****     CMM_PARAM_CHK((!(CMM_PORT_VALID(unit, port))), CMM_ERR_PORT);
 11137              		.loc 1 1054 5 discriminator 3 view .LVU3216
 11138 007a 164B     		ldr	r3, .L1111+16
 11139 007c 1A69     		ldr	r2, [r3, #16]
 11140              	.LVL1532:
1054:../Switch/core/yt/yt_port.c ****     CMM_PARAM_CHK((!(CMM_PORT_VALID(unit, port))), CMM_ERR_PORT);
 11141              		.loc 1 1054 5 is_stmt 0 discriminator 3 view .LVU3217
 11142 007e 164B     		ldr	r3, .L1111+20
 11143 0080 9968     		ldr	r1, [r3, #8]
 11144              	.LVL1533:
1054:../Switch/core/yt/yt_port.c ****     CMM_PARAM_CHK((!(CMM_PORT_VALID(unit, port))), CMM_ERR_PORT);
 11145              		.loc 1 1054 5 discriminator 3 view .LVU3218
 11146 0082 1648     		ldr	r0, .L1111+24
 11147 0084 FFF7FEFF 		bl	osal_printf
 11148              	.LVL1534:
 11149 0088 F5E7     		b	.L1095
 11150              	.LVL1535:
 11151              	.L1096:
1054:../Switch/core/yt/yt_port.c ****     CMM_PARAM_CHK((!(CMM_PORT_VALID(unit, port))), CMM_ERR_PORT);
 11152              		.loc 1 1054 5 discriminator 3 view .LVU3219
 11153              	.LBE220:
1055:../Switch/core/yt/yt_port.c ****     CMM_PARAM_CHK((YT_ENABLE < state || YT_DISABLE > state), CMM_ERR_INPUT);
 11154              		.loc 1 1055 5 is_stmt 1 discriminator 3 view .LVU3220
1055:../Switch/core/yt/yt_port.c ****     CMM_PARAM_CHK((YT_ENABLE < state || YT_DISABLE > state), CMM_ERR_INPUT);
 11155              		.loc 1 1055 5 discriminator 3 view .LVU3221
 11156 008a 114B     		ldr	r3, .L1111+12
 11157 008c 1B78     		ldrb	r3, [r3]	@ zero_extendqisi2
 11158 008e 012B     		cmp	r3, #1
 11159 0090 01D8     		bhi	.L1109
 11160              	.LVL1536:
 11161              	.L1098:
1055:../Switch/core/yt/yt_port.c ****     CMM_PARAM_CHK((YT_ENABLE < state || YT_DISABLE > state), CMM_ERR_INPUT);
 11162              		.loc 1 1055 5 discriminator 7 view .LVU3222
1055:../Switch/core/yt/yt_port.c ****     CMM_PARAM_CHK((YT_ENABLE < state || YT_DISABLE > state), CMM_ERR_INPUT);
 11163              		.loc 1 1055 5 discriminator 7 view .LVU3223
1055:../Switch/core/yt/yt_port.c ****     CMM_PARAM_CHK((YT_ENABLE < state || YT_DISABLE > state), CMM_ERR_INPUT);
 11164              		.loc 1 1055 5 discriminator 7 view .LVU3224
 11165 0092 0E20     		movs	r0, #14
 11166 0094 CEE7     		b	.L1088
 11167              	.LVL1537:
 11168              	.L1109:
1055:../Switch/core/yt/yt_port.c ****     CMM_PARAM_CHK((YT_ENABLE < state || YT_DISABLE > state), CMM_ERR_INPUT);
 11169              		.loc 1 1055 5 discriminator 5 view .LVU3225
 11170              	.LBB221:
1055:../Switch/core/yt/yt_port.c ****     CMM_PARAM_CHK((YT_ENABLE < state || YT_DISABLE > state), CMM_ERR_INPUT);
 11171              		.loc 1 1055 5 discriminator 5 view .LVU3226
 11172 0096 0F4B     		ldr	r3, .L1111+16
 11173 0098 9A6B     		ldr	r2, [r3, #56]
 11174              	.LVL1538:
1055:../Switch/core/yt/yt_port.c ****     CMM_PARAM_CHK((YT_ENABLE < state || YT_DISABLE > state), CMM_ERR_INPUT);
 11175              		.loc 1 1055 5 is_stmt 0 discriminator 5 view .LVU3227
 11176 009a 0F4B     		ldr	r3, .L1111+20
 11177 009c 9968     		ldr	r1, [r3, #8]
 11178              	.LVL1539:
1055:../Switch/core/yt/yt_port.c ****     CMM_PARAM_CHK((YT_ENABLE < state || YT_DISABLE > state), CMM_ERR_INPUT);
 11179              		.loc 1 1055 5 discriminator 5 view .LVU3228
 11180 009e 0F48     		ldr	r0, .L1111+24
 11181 00a0 FFF7FEFF 		bl	osal_printf
 11182              	.LVL1540:
 11183 00a4 F5E7     		b	.L1098
 11184              	.LVL1541:
 11185              	.L1105:
1055:../Switch/core/yt/yt_port.c ****     CMM_PARAM_CHK((YT_ENABLE < state || YT_DISABLE > state), CMM_ERR_INPUT);
 11186              		.loc 1 1055 5 discriminator 5 view .LVU3229
 11187              	.LBE221:
1056:../Switch/core/yt/yt_port.c **** 
 11188              		.loc 1 1056 5 is_stmt 1 discriminator 1 view .LVU3230
1056:../Switch/core/yt/yt_port.c **** 
 11189              		.loc 1 1056 5 discriminator 1 view .LVU3231
 11190 00a6 0A4B     		ldr	r3, .L1111+12
 11191 00a8 1B78     		ldrb	r3, [r3]	@ zero_extendqisi2
 11192 00aa 012B     		cmp	r3, #1
 11193 00ac 01D8     		bhi	.L1110
 11194              	.LVL1542:
 11195              	.L1100:
1056:../Switch/core/yt/yt_port.c **** 
 11196              		.loc 1 1056 5 discriminator 5 view .LVU3232
1056:../Switch/core/yt/yt_port.c **** 
 11197              		.loc 1 1056 5 discriminator 5 view .LVU3233
1056:../Switch/core/yt/yt_port.c **** 
 11198              		.loc 1 1056 5 discriminator 5 view .LVU3234
 11199 00ae 0520     		movs	r0, #5
 11200 00b0 C0E7     		b	.L1088
 11201              	.LVL1543:
 11202              	.L1110:
1056:../Switch/core/yt/yt_port.c **** 
 11203              		.loc 1 1056 5 discriminator 3 view .LVU3235
 11204              	.LBB222:
1056:../Switch/core/yt/yt_port.c **** 
 11205              		.loc 1 1056 5 discriminator 3 view .LVU3236
 11206 00b2 084B     		ldr	r3, .L1111+16
 11207 00b4 5A69     		ldr	r2, [r3, #20]
 11208              	.LVL1544:
1056:../Switch/core/yt/yt_port.c **** 
 11209              		.loc 1 1056 5 is_stmt 0 discriminator 3 view .LVU3237
 11210 00b6 084B     		ldr	r3, .L1111+20
 11211 00b8 9968     		ldr	r1, [r3, #8]
 11212              	.LVL1545:
1056:../Switch/core/yt/yt_port.c **** 
 11213              		.loc 1 1056 5 discriminator 3 view .LVU3238
 11214 00ba 0848     		ldr	r0, .L1111+24
 11215 00bc FFF7FEFF 		bl	osal_printf
 11216              	.LVL1546:
 11217 00c0 F5E7     		b	.L1100
 11218              	.L1112:
 11219 00c2 00BF     		.align	2
 11220              	.L1111:
 11221 00c4 00000000 		.word	gpfal_dispatch
 11222 00c8 00000000 		.word	gcal_inited
 11223 00cc 00000000 		.word	gpSwitchUnit
 11224 00d0 00000000 		.word	yt_debug_level
 11225 00d4 00000000 		.word	_yt_errmsg
 11226 00d8 00000000 		.word	_yt_prompt_msg
 11227 00dc 00000000 		.word	.LC0
 11228              	.LBE222:
 11229              		.cfi_endproc
 11230              	.LFE47:
 11232              		.section	.text.yt_port_parallel_detection_get,"ax",%progbits
 11233              		.align	1
 11234              		.global	yt_port_parallel_detection_get
 11235              		.syntax unified
 11236              		.thumb
 11237              		.thumb_func
 11239              	yt_port_parallel_detection_get:
 11240              	.LVL1547:
 11241              	.LFB48:
1060:../Switch/core/yt/yt_port.c **** 
1061:../Switch/core/yt/yt_port.c **** /**
1062:../Switch/core/yt/yt_port.c ****  * @internal      yt_port_parallel_detection_get
1063:../Switch/core/yt/yt_port.c ****  * @endinternal
1064:../Switch/core/yt/yt_port.c ****  *
1065:../Switch/core/yt/yt_port.c ****  * @brief         get serdes parallel detection state
1066:../Switch/core/yt/yt_port.c ****  * @note          APPLICABLE DEVICES  -Tiger
1067:../Switch/core/yt/yt_port.c ****  * @param[in]     unit                -unit id
1068:../Switch/core/yt/yt_port.c ****  * @param[in]     port                -port num
1069:../Switch/core/yt/yt_port.c ****  * @param[out]    pState             -parallel detection state enable/disable
1070:../Switch/core/yt/yt_port.c ****  * @retval        CMM_ERR_OK          -on success
1071:../Switch/core/yt/yt_port.c ****  * @retval        CMM_ERR_FAIL        -on fail
1072:../Switch/core/yt/yt_port.c ****  */
1073:../Switch/core/yt/yt_port.c **** yt_ret_t yt_port_parallel_detection_get(yt_unit_t unit, yt_port_t port, yt_enable_t *pState)
1074:../Switch/core/yt/yt_port.c **** {
 11242              		.loc 1 1074 1 is_stmt 1 view -0
 11243              		.cfi_startproc
 11244              		@ args = 0, pretend = 0, frame = 0
 11245              		@ frame_needed = 0, uses_anonymous_args = 0
 11246              		.loc 1 1074 1 is_stmt 0 view .LVU3240
 11247 0000 08B5     		push	{r3, lr}
 11248              		.cfi_def_cfa_offset 8
 11249              		.cfi_offset 3, -8
 11250              		.cfi_offset 14, -4
1075:../Switch/core/yt/yt_port.c ****     CMM_PARAM_CHK((YT_UNIT_NUM <= unit), CMM_ERR_INPUT);
 11251              		.loc 1 1075 5 is_stmt 1 view .LVU3241
 11252              		.loc 1 1075 5 view .LVU3242
 11253 0002 C0B9     		cbnz	r0, .L1127
 11254 0004 8446     		mov	ip, r0
 11255              		.loc 1 1075 5 discriminator 2 view .LVU3243
1076:../Switch/core/yt/yt_port.c ****     CMM_PARAM_CHK(NULL == YT_DISPATCH(unit), CMM_ERR_NOT_INIT);
 11256              		.loc 1 1076 5 discriminator 2 view .LVU3244
 11257              		.loc 1 1076 5 discriminator 2 view .LVU3245
 11258 0006 2F4B     		ldr	r3, .L1136
 11259 0008 53F82030 		ldr	r3, [r3, r0, lsl #2]
 11260 000c 0BB3     		cbz	r3, .L1128
 11261              		.loc 1 1076 5 discriminator 2 view .LVU3246
1077:../Switch/core/yt/yt_port.c ****     CMM_PARAM_CHK((!(YT_DISPATCH(unit)->is_inited)), CMM_ERR_NOT_INIT);
 11262              		.loc 1 1077 5 discriminator 2 view .LVU3247
 11263              		.loc 1 1077 5 discriminator 2 view .LVU3248
 11264 000e 1878     		ldrb	r0, [r3]	@ zero_extendqisi2
 11265              	.LVL1548:
 11266              		.loc 1 1077 5 is_stmt 0 discriminator 2 view .LVU3249
 11267 0010 0028     		cmp	r0, #0
 11268 0012 2CD0     		beq	.L1129
 11269              		.loc 1 1077 5 is_stmt 1 discriminator 2 view .LVU3250
1078:../Switch/core/yt/yt_port.c ****     CMM_PARAM_CHK((!(CMM_PORT_VALID(unit, port))), CMM_ERR_PORT);
 11270              		.loc 1 1078 5 discriminator 2 view .LVU3251
 11271              		.loc 1 1078 5 discriminator 2 view .LVU3252
 11272 0014 2C48     		ldr	r0, .L1136+4
 11273 0016 0078     		ldrb	r0, [r0]	@ zero_extendqisi2
 11274 0018 0028     		cmp	r0, #0
 11275 001a 36D0     		beq	.L1121
 11276 001c 2B48     		ldr	r0, .L1136+8
 11277 001e 50F82C00 		ldr	r0, [r0, ip, lsl #2]
 11278 0022 007D     		ldrb	r0, [r0, #20]	@ zero_extendqisi2
 11279 0024 8842     		cmp	r0, r1
 11280 0026 30D9     		bls	.L1121
 11281              		.loc 1 1078 5 discriminator 4 view .LVU3253
1079:../Switch/core/yt/yt_port.c ****     CMM_PARAM_CHK((NULL == pState), CMM_ERR_NULL_POINT);
 11282              		.loc 1 1079 5 discriminator 4 view .LVU3254
 11283              		.loc 1 1079 5 discriminator 4 view .LVU3255
 11284 0028 002A     		cmp	r2, #0
 11285 002a 3CD0     		beq	.L1130
 11286              		.loc 1 1079 5 discriminator 2 view .LVU3256
1080:../Switch/core/yt/yt_port.c **** 
1081:../Switch/core/yt/yt_port.c ****     return YT_DISPATCH(unit)->port_parallel_detection_get(unit, port, pState);
 11287              		.loc 1 1081 5 discriminator 2 view .LVU3257
 11288              		.loc 1 1081 29 is_stmt 0 discriminator 2 view .LVU3258
 11289 002c D3F80C36 		ldr	r3, [r3, #1548]
 11290              		.loc 1 1081 12 discriminator 2 view .LVU3259
 11291 0030 6046     		mov	r0, ip
 11292 0032 9847     		blx	r3
 11293              	.LVL1549:
 11294              	.L1113:
1082:../Switch/core/yt/yt_port.c **** }
 11295              		.loc 1 1082 1 view .LVU3260
 11296 0034 08BD     		pop	{r3, pc}
 11297              	.LVL1550:
 11298              	.L1127:
1075:../Switch/core/yt/yt_port.c ****     CMM_PARAM_CHK(NULL == YT_DISPATCH(unit), CMM_ERR_NOT_INIT);
 11299              		.loc 1 1075 5 is_stmt 1 discriminator 1 view .LVU3261
1075:../Switch/core/yt/yt_port.c ****     CMM_PARAM_CHK(NULL == YT_DISPATCH(unit), CMM_ERR_NOT_INIT);
 11300              		.loc 1 1075 5 discriminator 1 view .LVU3262
 11301 0036 264B     		ldr	r3, .L1136+12
 11302 0038 1B78     		ldrb	r3, [r3]	@ zero_extendqisi2
 11303 003a 012B     		cmp	r3, #1
 11304 003c 01D8     		bhi	.L1131
 11305              	.LVL1551:
 11306              	.L1115:
1075:../Switch/core/yt/yt_port.c ****     CMM_PARAM_CHK(NULL == YT_DISPATCH(unit), CMM_ERR_NOT_INIT);
 11307              		.loc 1 1075 5 discriminator 5 view .LVU3263
1075:../Switch/core/yt/yt_port.c ****     CMM_PARAM_CHK(NULL == YT_DISPATCH(unit), CMM_ERR_NOT_INIT);
 11308              		.loc 1 1075 5 discriminator 5 view .LVU3264
1075:../Switch/core/yt/yt_port.c ****     CMM_PARAM_CHK(NULL == YT_DISPATCH(unit), CMM_ERR_NOT_INIT);
 11309              		.loc 1 1075 5 discriminator 5 view .LVU3265
 11310 003e 0520     		movs	r0, #5
 11311 0040 F8E7     		b	.L1113
 11312              	.LVL1552:
 11313              	.L1131:
1075:../Switch/core/yt/yt_port.c ****     CMM_PARAM_CHK(NULL == YT_DISPATCH(unit), CMM_ERR_NOT_INIT);
 11314              		.loc 1 1075 5 discriminator 3 view .LVU3266
 11315              	.LBB223:
1075:../Switch/core/yt/yt_port.c ****     CMM_PARAM_CHK(NULL == YT_DISPATCH(unit), CMM_ERR_NOT_INIT);
 11316              		.loc 1 1075 5 discriminator 3 view .LVU3267
 11317 0042 244B     		ldr	r3, .L1136+16
 11318 0044 5A69     		ldr	r2, [r3, #20]
 11319              	.LVL1553:
1075:../Switch/core/yt/yt_port.c ****     CMM_PARAM_CHK(NULL == YT_DISPATCH(unit), CMM_ERR_NOT_INIT);
 11320              		.loc 1 1075 5 is_stmt 0 discriminator 3 view .LVU3268
 11321 0046 244B     		ldr	r3, .L1136+20
 11322 0048 9968     		ldr	r1, [r3, #8]
 11323              	.LVL1554:
1075:../Switch/core/yt/yt_port.c ****     CMM_PARAM_CHK(NULL == YT_DISPATCH(unit), CMM_ERR_NOT_INIT);
 11324              		.loc 1 1075 5 discriminator 3 view .LVU3269
 11325 004a 2448     		ldr	r0, .L1136+24
 11326              	.LVL1555:
1075:../Switch/core/yt/yt_port.c ****     CMM_PARAM_CHK(NULL == YT_DISPATCH(unit), CMM_ERR_NOT_INIT);
 11327              		.loc 1 1075 5 discriminator 3 view .LVU3270
 11328 004c FFF7FEFF 		bl	osal_printf
 11329              	.LVL1556:
 11330 0050 F5E7     		b	.L1115
 11331              	.LVL1557:
 11332              	.L1128:
1075:../Switch/core/yt/yt_port.c ****     CMM_PARAM_CHK(NULL == YT_DISPATCH(unit), CMM_ERR_NOT_INIT);
 11333              		.loc 1 1075 5 discriminator 3 view .LVU3271
 11334              	.LBE223:
1076:../Switch/core/yt/yt_port.c ****     CMM_PARAM_CHK((!(YT_DISPATCH(unit)->is_inited)), CMM_ERR_NOT_INIT);
 11335              		.loc 1 1076 5 is_stmt 1 discriminator 1 view .LVU3272
1076:../Switch/core/yt/yt_port.c ****     CMM_PARAM_CHK((!(YT_DISPATCH(unit)->is_inited)), CMM_ERR_NOT_INIT);
 11336              		.loc 1 1076 5 discriminator 1 view .LVU3273
 11337 0052 1F4B     		ldr	r3, .L1136+12
 11338 0054 1B78     		ldrb	r3, [r3]	@ zero_extendqisi2
 11339 0056 012B     		cmp	r3, #1
 11340 0058 01D8     		bhi	.L1132
 11341              	.LVL1558:
 11342              	.L1118:
1076:../Switch/core/yt/yt_port.c ****     CMM_PARAM_CHK((!(YT_DISPATCH(unit)->is_inited)), CMM_ERR_NOT_INIT);
 11343              		.loc 1 1076 5 discriminator 5 view .LVU3274
1076:../Switch/core/yt/yt_port.c ****     CMM_PARAM_CHK((!(YT_DISPATCH(unit)->is_inited)), CMM_ERR_NOT_INIT);
 11344              		.loc 1 1076 5 discriminator 5 view .LVU3275
1076:../Switch/core/yt/yt_port.c ****     CMM_PARAM_CHK((!(YT_DISPATCH(unit)->is_inited)), CMM_ERR_NOT_INIT);
 11345              		.loc 1 1076 5 discriminator 5 view .LVU3276
 11346 005a 0420     		movs	r0, #4
 11347 005c EAE7     		b	.L1113
 11348              	.LVL1559:
 11349              	.L1132:
1076:../Switch/core/yt/yt_port.c ****     CMM_PARAM_CHK((!(YT_DISPATCH(unit)->is_inited)), CMM_ERR_NOT_INIT);
 11350              		.loc 1 1076 5 discriminator 3 view .LVU3277
 11351              	.LBB224:
1076:../Switch/core/yt/yt_port.c ****     CMM_PARAM_CHK((!(YT_DISPATCH(unit)->is_inited)), CMM_ERR_NOT_INIT);
 11352              		.loc 1 1076 5 discriminator 3 view .LVU3278
 11353 005e 1D4B     		ldr	r3, .L1136+16
 11354 0060 1A69     		ldr	r2, [r3, #16]
 11355              	.LVL1560:
1076:../Switch/core/yt/yt_port.c ****     CMM_PARAM_CHK((!(YT_DISPATCH(unit)->is_inited)), CMM_ERR_NOT_INIT);
 11356              		.loc 1 1076 5 is_stmt 0 discriminator 3 view .LVU3279
 11357 0062 1D4B     		ldr	r3, .L1136+20
 11358 0064 9968     		ldr	r1, [r3, #8]
 11359              	.LVL1561:
1076:../Switch/core/yt/yt_port.c ****     CMM_PARAM_CHK((!(YT_DISPATCH(unit)->is_inited)), CMM_ERR_NOT_INIT);
 11360              		.loc 1 1076 5 discriminator 3 view .LVU3280
 11361 0066 1D48     		ldr	r0, .L1136+24
 11362              	.LVL1562:
1076:../Switch/core/yt/yt_port.c ****     CMM_PARAM_CHK((!(YT_DISPATCH(unit)->is_inited)), CMM_ERR_NOT_INIT);
 11363              		.loc 1 1076 5 discriminator 3 view .LVU3281
 11364 0068 FFF7FEFF 		bl	osal_printf
 11365              	.LVL1563:
 11366 006c F5E7     		b	.L1118
 11367              	.LVL1564:
 11368              	.L1129:
1076:../Switch/core/yt/yt_port.c ****     CMM_PARAM_CHK((!(YT_DISPATCH(unit)->is_inited)), CMM_ERR_NOT_INIT);
 11369              		.loc 1 1076 5 discriminator 3 view .LVU3282
 11370              	.LBE224:
1077:../Switch/core/yt/yt_port.c ****     CMM_PARAM_CHK((!(CMM_PORT_VALID(unit, port))), CMM_ERR_PORT);
 11371              		.loc 1 1077 5 is_stmt 1 discriminator 1 view .LVU3283
1077:../Switch/core/yt/yt_port.c ****     CMM_PARAM_CHK((!(CMM_PORT_VALID(unit, port))), CMM_ERR_PORT);
 11372              		.loc 1 1077 5 discriminator 1 view .LVU3284
 11373 006e 184B     		ldr	r3, .L1136+12
 11374 0070 1B78     		ldrb	r3, [r3]	@ zero_extendqisi2
 11375 0072 012B     		cmp	r3, #1
 11376 0074 01D8     		bhi	.L1133
 11377              	.LVL1565:
 11378              	.L1120:
1077:../Switch/core/yt/yt_port.c ****     CMM_PARAM_CHK((!(CMM_PORT_VALID(unit, port))), CMM_ERR_PORT);
 11379              		.loc 1 1077 5 discriminator 5 view .LVU3285
1077:../Switch/core/yt/yt_port.c ****     CMM_PARAM_CHK((!(CMM_PORT_VALID(unit, port))), CMM_ERR_PORT);
 11380              		.loc 1 1077 5 discriminator 5 view .LVU3286
1077:../Switch/core/yt/yt_port.c ****     CMM_PARAM_CHK((!(CMM_PORT_VALID(unit, port))), CMM_ERR_PORT);
 11381              		.loc 1 1077 5 discriminator 5 view .LVU3287
 11382 0076 0420     		movs	r0, #4
 11383 0078 DCE7     		b	.L1113
 11384              	.LVL1566:
 11385              	.L1133:
1077:../Switch/core/yt/yt_port.c ****     CMM_PARAM_CHK((!(CMM_PORT_VALID(unit, port))), CMM_ERR_PORT);
 11386              		.loc 1 1077 5 discriminator 3 view .LVU3288
 11387              	.LBB225:
1077:../Switch/core/yt/yt_port.c ****     CMM_PARAM_CHK((!(CMM_PORT_VALID(unit, port))), CMM_ERR_PORT);
 11388              		.loc 1 1077 5 discriminator 3 view .LVU3289
 11389 007a 164B     		ldr	r3, .L1136+16
 11390 007c 1A69     		ldr	r2, [r3, #16]
 11391              	.LVL1567:
1077:../Switch/core/yt/yt_port.c ****     CMM_PARAM_CHK((!(CMM_PORT_VALID(unit, port))), CMM_ERR_PORT);
 11392              		.loc 1 1077 5 is_stmt 0 discriminator 3 view .LVU3290
 11393 007e 164B     		ldr	r3, .L1136+20
 11394 0080 9968     		ldr	r1, [r3, #8]
 11395              	.LVL1568:
1077:../Switch/core/yt/yt_port.c ****     CMM_PARAM_CHK((!(CMM_PORT_VALID(unit, port))), CMM_ERR_PORT);
 11396              		.loc 1 1077 5 discriminator 3 view .LVU3291
 11397 0082 1648     		ldr	r0, .L1136+24
 11398 0084 FFF7FEFF 		bl	osal_printf
 11399              	.LVL1569:
 11400 0088 F5E7     		b	.L1120
 11401              	.LVL1570:
 11402              	.L1121:
1077:../Switch/core/yt/yt_port.c ****     CMM_PARAM_CHK((!(CMM_PORT_VALID(unit, port))), CMM_ERR_PORT);
 11403              		.loc 1 1077 5 discriminator 3 view .LVU3292
 11404              	.LBE225:
1078:../Switch/core/yt/yt_port.c ****     CMM_PARAM_CHK((NULL == pState), CMM_ERR_NULL_POINT);
 11405              		.loc 1 1078 5 is_stmt 1 discriminator 3 view .LVU3293
1078:../Switch/core/yt/yt_port.c ****     CMM_PARAM_CHK((NULL == pState), CMM_ERR_NULL_POINT);
 11406              		.loc 1 1078 5 discriminator 3 view .LVU3294
 11407 008a 114B     		ldr	r3, .L1136+12
 11408 008c 1B78     		ldrb	r3, [r3]	@ zero_extendqisi2
 11409 008e 012B     		cmp	r3, #1
 11410 0090 01D8     		bhi	.L1134
 11411              	.LVL1571:
 11412              	.L1123:
1078:../Switch/core/yt/yt_port.c ****     CMM_PARAM_CHK((NULL == pState), CMM_ERR_NULL_POINT);
 11413              		.loc 1 1078 5 discriminator 7 view .LVU3295
1078:../Switch/core/yt/yt_port.c ****     CMM_PARAM_CHK((NULL == pState), CMM_ERR_NULL_POINT);
 11414              		.loc 1 1078 5 discriminator 7 view .LVU3296
1078:../Switch/core/yt/yt_port.c ****     CMM_PARAM_CHK((NULL == pState), CMM_ERR_NULL_POINT);
 11415              		.loc 1 1078 5 discriminator 7 view .LVU3297
 11416 0092 0E20     		movs	r0, #14
 11417 0094 CEE7     		b	.L1113
 11418              	.LVL1572:
 11419              	.L1134:
1078:../Switch/core/yt/yt_port.c ****     CMM_PARAM_CHK((NULL == pState), CMM_ERR_NULL_POINT);
 11420              		.loc 1 1078 5 discriminator 5 view .LVU3298
 11421              	.LBB226:
1078:../Switch/core/yt/yt_port.c ****     CMM_PARAM_CHK((NULL == pState), CMM_ERR_NULL_POINT);
 11422              		.loc 1 1078 5 discriminator 5 view .LVU3299
 11423 0096 0F4B     		ldr	r3, .L1136+16
 11424 0098 9A6B     		ldr	r2, [r3, #56]
 11425              	.LVL1573:
1078:../Switch/core/yt/yt_port.c ****     CMM_PARAM_CHK((NULL == pState), CMM_ERR_NULL_POINT);
 11426              		.loc 1 1078 5 is_stmt 0 discriminator 5 view .LVU3300
 11427 009a 0F4B     		ldr	r3, .L1136+20
 11428 009c 9968     		ldr	r1, [r3, #8]
 11429              	.LVL1574:
1078:../Switch/core/yt/yt_port.c ****     CMM_PARAM_CHK((NULL == pState), CMM_ERR_NULL_POINT);
 11430              		.loc 1 1078 5 discriminator 5 view .LVU3301
 11431 009e 0F48     		ldr	r0, .L1136+24
 11432 00a0 FFF7FEFF 		bl	osal_printf
 11433              	.LVL1575:
 11434 00a4 F5E7     		b	.L1123
 11435              	.LVL1576:
 11436              	.L1130:
1078:../Switch/core/yt/yt_port.c ****     CMM_PARAM_CHK((NULL == pState), CMM_ERR_NULL_POINT);
 11437              		.loc 1 1078 5 discriminator 5 view .LVU3302
 11438              	.LBE226:
1079:../Switch/core/yt/yt_port.c **** 
 11439              		.loc 1 1079 5 is_stmt 1 discriminator 1 view .LVU3303
1079:../Switch/core/yt/yt_port.c **** 
 11440              		.loc 1 1079 5 discriminator 1 view .LVU3304
 11441 00a6 0A4B     		ldr	r3, .L1136+12
 11442 00a8 1B78     		ldrb	r3, [r3]	@ zero_extendqisi2
 11443 00aa 012B     		cmp	r3, #1
 11444 00ac 01D8     		bhi	.L1135
 11445              	.LVL1577:
 11446              	.L1125:
1079:../Switch/core/yt/yt_port.c **** 
 11447              		.loc 1 1079 5 discriminator 5 view .LVU3305
1079:../Switch/core/yt/yt_port.c **** 
 11448              		.loc 1 1079 5 discriminator 5 view .LVU3306
1079:../Switch/core/yt/yt_port.c **** 
 11449              		.loc 1 1079 5 discriminator 5 view .LVU3307
 11450 00ae 0220     		movs	r0, #2
 11451 00b0 C0E7     		b	.L1113
 11452              	.LVL1578:
 11453              	.L1135:
1079:../Switch/core/yt/yt_port.c **** 
 11454              		.loc 1 1079 5 discriminator 3 view .LVU3308
 11455              	.LBB227:
1079:../Switch/core/yt/yt_port.c **** 
 11456              		.loc 1 1079 5 discriminator 3 view .LVU3309
 11457 00b2 084B     		ldr	r3, .L1136+16
 11458 00b4 9A68     		ldr	r2, [r3, #8]
 11459              	.LVL1579:
1079:../Switch/core/yt/yt_port.c **** 
 11460              		.loc 1 1079 5 is_stmt 0 discriminator 3 view .LVU3310
 11461 00b6 084B     		ldr	r3, .L1136+20
 11462 00b8 9968     		ldr	r1, [r3, #8]
 11463              	.LVL1580:
1079:../Switch/core/yt/yt_port.c **** 
 11464              		.loc 1 1079 5 discriminator 3 view .LVU3311
 11465 00ba 0848     		ldr	r0, .L1136+24
 11466 00bc FFF7FEFF 		bl	osal_printf
 11467              	.LVL1581:
 11468 00c0 F5E7     		b	.L1125
 11469              	.L1137:
 11470 00c2 00BF     		.align	2
 11471              	.L1136:
 11472 00c4 00000000 		.word	gpfal_dispatch
 11473 00c8 00000000 		.word	gcal_inited
 11474 00cc 00000000 		.word	gpSwitchUnit
 11475 00d0 00000000 		.word	yt_debug_level
 11476 00d4 00000000 		.word	_yt_errmsg
 11477 00d8 00000000 		.word	_yt_prompt_msg
 11478 00dc 00000000 		.word	.LC0
 11479              	.LBE227:
 11480              		.cfi_endproc
 11481              	.LFE48:
 11483              		.section	.text.yt_port_dvddio_power_level_set,"ax",%progbits
 11484              		.align	1
 11485              		.global	yt_port_dvddio_power_level_set
 11486              		.syntax unified
 11487              		.thumb
 11488              		.thumb_func
 11490              	yt_port_dvddio_power_level_set:
 11491              	.LVL1582:
 11492              	.LFB49:
1083:../Switch/core/yt/yt_port.c **** 
1084:../Switch/core/yt/yt_port.c **** /**
1085:../Switch/core/yt/yt_port.c ****  * @internal      yt_port_dvddio_power_level_set
1086:../Switch/core/yt/yt_port.c ****  * @endinternal
1087:../Switch/core/yt/yt_port.c ****  *
1088:../Switch/core/yt/yt_port.c ****  * @brief         set dvddio power level
1089:../Switch/core/yt/yt_port.c ****  * @note          APPLICABLE DEVICES  -Tiger
1090:../Switch/core/yt/yt_port.c ****  * @param[in]     unit                -unit id
1091:../Switch/core/yt/yt_port.c ****  * @param[in]     powePad                -powerpad
1092:../Switch/core/yt/yt_port.c ****  * @param[out]    powerLevel             -1.8v,2.5v,3.3v
1093:../Switch/core/yt/yt_port.c ****  * @retval        CMM_ERR_OK          -on success
1094:../Switch/core/yt/yt_port.c ****  * @retval        CMM_ERR_FAIL        -on fail
1095:../Switch/core/yt/yt_port.c ****  */
1096:../Switch/core/yt/yt_port.c **** yt_ret_t yt_port_dvddio_power_level_set(yt_unit_t unit, yt_dvddio_power_pad_t powePad, yt_dvddio_po
1097:../Switch/core/yt/yt_port.c **** {
 11493              		.loc 1 1097 1 is_stmt 1 view -0
 11494              		.cfi_startproc
 11495              		@ args = 0, pretend = 0, frame = 0
 11496              		@ frame_needed = 0, uses_anonymous_args = 0
 11497              		.loc 1 1097 1 is_stmt 0 view .LVU3313
 11498 0000 08B5     		push	{r3, lr}
 11499              		.cfi_def_cfa_offset 8
 11500              		.cfi_offset 3, -8
 11501              		.cfi_offset 14, -4
1098:../Switch/core/yt/yt_port.c ****     CMM_PARAM_CHK((YT_UNIT_NUM <= unit), CMM_ERR_INPUT);
 11502              		.loc 1 1098 5 is_stmt 1 view .LVU3314
 11503              		.loc 1 1098 5 view .LVU3315
 11504 0002 78B9     		cbnz	r0, .L1151
 11505 0004 8446     		mov	ip, r0
 11506              		.loc 1 1098 5 discriminator 2 view .LVU3316
1099:../Switch/core/yt/yt_port.c ****     CMM_PARAM_CHK(NULL == YT_DISPATCH(unit), CMM_ERR_NOT_INIT);
 11507              		.loc 1 1099 5 discriminator 2 view .LVU3317
 11508              		.loc 1 1099 5 discriminator 2 view .LVU3318
 11509 0006 2A4B     		ldr	r3, .L1161
 11510 0008 53F82030 		ldr	r3, [r3, r0, lsl #2]
 11511 000c C3B1     		cbz	r3, .L1152
 11512              		.loc 1 1099 5 discriminator 2 view .LVU3319
1100:../Switch/core/yt/yt_port.c ****     CMM_PARAM_CHK((!(YT_DISPATCH(unit)->is_inited)), CMM_ERR_NOT_INIT);
 11513              		.loc 1 1100 5 discriminator 2 view .LVU3320
 11514              		.loc 1 1100 5 discriminator 2 view .LVU3321
 11515 000e 1878     		ldrb	r0, [r3]	@ zero_extendqisi2
 11516              	.LVL1583:
 11517              		.loc 1 1100 5 is_stmt 0 discriminator 2 view .LVU3322
 11518 0010 20B3     		cbz	r0, .L1153
 11519              		.loc 1 1100 5 is_stmt 1 discriminator 2 view .LVU3323
1101:../Switch/core/yt/yt_port.c ****     CMM_PARAM_CHK((2 < powePad), CMM_ERR_INPUT);
 11520              		.loc 1 1101 5 discriminator 2 view .LVU3324
 11521              		.loc 1 1101 5 discriminator 2 view .LVU3325
 11522 0012 0229     		cmp	r1, #2
 11523 0014 30D8     		bhi	.L1154
 11524              		.loc 1 1101 5 discriminator 2 view .LVU3326
1102:../Switch/core/yt/yt_port.c ****     CMM_PARAM_CHK((POWER33V < powerLevel || POWER18V > powerLevel), CMM_ERR_INPUT);
 11525              		.loc 1 1102 5 discriminator 2 view .LVU3327
 11526              		.loc 1 1102 5 discriminator 2 view .LVU3328
 11527 0016 022A     		cmp	r2, #2
 11528 0018 3CD8     		bhi	.L1155
 11529              		.loc 1 1102 5 discriminator 2 view .LVU3329
1103:../Switch/core/yt/yt_port.c **** 
1104:../Switch/core/yt/yt_port.c ****     return YT_DISPATCH(unit)->port_dvddio_power_level_set(unit, powePad, powerLevel);
 11530              		.loc 1 1104 5 discriminator 2 view .LVU3330
 11531              		.loc 1 1104 29 is_stmt 0 discriminator 2 view .LVU3331
 11532 001a D3F81036 		ldr	r3, [r3, #1552]
 11533              		.loc 1 1104 12 discriminator 2 view .LVU3332
 11534 001e 6046     		mov	r0, ip
 11535 0020 9847     		blx	r3
 11536              	.LVL1584:
 11537              	.L1138:
1105:../Switch/core/yt/yt_port.c **** }
 11538              		.loc 1 1105 1 view .LVU3333
 11539 0022 08BD     		pop	{r3, pc}
 11540              	.LVL1585:
 11541              	.L1151:
1098:../Switch/core/yt/yt_port.c ****     CMM_PARAM_CHK(NULL == YT_DISPATCH(unit), CMM_ERR_NOT_INIT);
 11542              		.loc 1 1098 5 is_stmt 1 discriminator 1 view .LVU3334
1098:../Switch/core/yt/yt_port.c ****     CMM_PARAM_CHK(NULL == YT_DISPATCH(unit), CMM_ERR_NOT_INIT);
 11543              		.loc 1 1098 5 discriminator 1 view .LVU3335
 11544 0024 234B     		ldr	r3, .L1161+4
 11545 0026 1B78     		ldrb	r3, [r3]	@ zero_extendqisi2
 11546 0028 012B     		cmp	r3, #1
 11547 002a 01D8     		bhi	.L1156
 11548              	.LVL1586:
 11549              	.L1140:
1098:../Switch/core/yt/yt_port.c ****     CMM_PARAM_CHK(NULL == YT_DISPATCH(unit), CMM_ERR_NOT_INIT);
 11550              		.loc 1 1098 5 discriminator 5 view .LVU3336
1098:../Switch/core/yt/yt_port.c ****     CMM_PARAM_CHK(NULL == YT_DISPATCH(unit), CMM_ERR_NOT_INIT);
 11551              		.loc 1 1098 5 discriminator 5 view .LVU3337
1098:../Switch/core/yt/yt_port.c ****     CMM_PARAM_CHK(NULL == YT_DISPATCH(unit), CMM_ERR_NOT_INIT);
 11552              		.loc 1 1098 5 discriminator 5 view .LVU3338
 11553 002c 0520     		movs	r0, #5
 11554 002e F8E7     		b	.L1138
 11555              	.LVL1587:
 11556              	.L1156:
1098:../Switch/core/yt/yt_port.c ****     CMM_PARAM_CHK(NULL == YT_DISPATCH(unit), CMM_ERR_NOT_INIT);
 11557              		.loc 1 1098 5 discriminator 3 view .LVU3339
 11558              	.LBB228:
1098:../Switch/core/yt/yt_port.c ****     CMM_PARAM_CHK(NULL == YT_DISPATCH(unit), CMM_ERR_NOT_INIT);
 11559              		.loc 1 1098 5 discriminator 3 view .LVU3340
 11560 0030 214B     		ldr	r3, .L1161+8
 11561 0032 5A69     		ldr	r2, [r3, #20]
 11562              	.LVL1588:
1098:../Switch/core/yt/yt_port.c ****     CMM_PARAM_CHK(NULL == YT_DISPATCH(unit), CMM_ERR_NOT_INIT);
 11563              		.loc 1 1098 5 is_stmt 0 discriminator 3 view .LVU3341
 11564 0034 214B     		ldr	r3, .L1161+12
 11565 0036 9968     		ldr	r1, [r3, #8]
 11566              	.LVL1589:
1098:../Switch/core/yt/yt_port.c ****     CMM_PARAM_CHK(NULL == YT_DISPATCH(unit), CMM_ERR_NOT_INIT);
 11567              		.loc 1 1098 5 discriminator 3 view .LVU3342
 11568 0038 2148     		ldr	r0, .L1161+16
 11569              	.LVL1590:
1098:../Switch/core/yt/yt_port.c ****     CMM_PARAM_CHK(NULL == YT_DISPATCH(unit), CMM_ERR_NOT_INIT);
 11570              		.loc 1 1098 5 discriminator 3 view .LVU3343
 11571 003a FFF7FEFF 		bl	osal_printf
 11572              	.LVL1591:
 11573 003e F5E7     		b	.L1140
 11574              	.LVL1592:
 11575              	.L1152:
1098:../Switch/core/yt/yt_port.c ****     CMM_PARAM_CHK(NULL == YT_DISPATCH(unit), CMM_ERR_NOT_INIT);
 11576              		.loc 1 1098 5 discriminator 3 view .LVU3344
 11577              	.LBE228:
1099:../Switch/core/yt/yt_port.c ****     CMM_PARAM_CHK((!(YT_DISPATCH(unit)->is_inited)), CMM_ERR_NOT_INIT);
 11578              		.loc 1 1099 5 is_stmt 1 discriminator 1 view .LVU3345
1099:../Switch/core/yt/yt_port.c ****     CMM_PARAM_CHK((!(YT_DISPATCH(unit)->is_inited)), CMM_ERR_NOT_INIT);
 11579              		.loc 1 1099 5 discriminator 1 view .LVU3346
 11580 0040 1C4B     		ldr	r3, .L1161+4
 11581 0042 1B78     		ldrb	r3, [r3]	@ zero_extendqisi2
 11582 0044 012B     		cmp	r3, #1
 11583 0046 01D8     		bhi	.L1157
 11584              	.LVL1593:
 11585              	.L1143:
1099:../Switch/core/yt/yt_port.c ****     CMM_PARAM_CHK((!(YT_DISPATCH(unit)->is_inited)), CMM_ERR_NOT_INIT);
 11586              		.loc 1 1099 5 discriminator 5 view .LVU3347
1099:../Switch/core/yt/yt_port.c ****     CMM_PARAM_CHK((!(YT_DISPATCH(unit)->is_inited)), CMM_ERR_NOT_INIT);
 11587              		.loc 1 1099 5 discriminator 5 view .LVU3348
1099:../Switch/core/yt/yt_port.c ****     CMM_PARAM_CHK((!(YT_DISPATCH(unit)->is_inited)), CMM_ERR_NOT_INIT);
 11588              		.loc 1 1099 5 discriminator 5 view .LVU3349
 11589 0048 0420     		movs	r0, #4
 11590 004a EAE7     		b	.L1138
 11591              	.LVL1594:
 11592              	.L1157:
1099:../Switch/core/yt/yt_port.c ****     CMM_PARAM_CHK((!(YT_DISPATCH(unit)->is_inited)), CMM_ERR_NOT_INIT);
 11593              		.loc 1 1099 5 discriminator 3 view .LVU3350
 11594              	.LBB229:
1099:../Switch/core/yt/yt_port.c ****     CMM_PARAM_CHK((!(YT_DISPATCH(unit)->is_inited)), CMM_ERR_NOT_INIT);
 11595              		.loc 1 1099 5 discriminator 3 view .LVU3351
 11596 004c 1A4B     		ldr	r3, .L1161+8
 11597 004e 1A69     		ldr	r2, [r3, #16]
 11598              	.LVL1595:
1099:../Switch/core/yt/yt_port.c ****     CMM_PARAM_CHK((!(YT_DISPATCH(unit)->is_inited)), CMM_ERR_NOT_INIT);
 11599              		.loc 1 1099 5 is_stmt 0 discriminator 3 view .LVU3352
 11600 0050 1A4B     		ldr	r3, .L1161+12
 11601 0052 9968     		ldr	r1, [r3, #8]
 11602              	.LVL1596:
1099:../Switch/core/yt/yt_port.c ****     CMM_PARAM_CHK((!(YT_DISPATCH(unit)->is_inited)), CMM_ERR_NOT_INIT);
 11603              		.loc 1 1099 5 discriminator 3 view .LVU3353
 11604 0054 1A48     		ldr	r0, .L1161+16
 11605              	.LVL1597:
1099:../Switch/core/yt/yt_port.c ****     CMM_PARAM_CHK((!(YT_DISPATCH(unit)->is_inited)), CMM_ERR_NOT_INIT);
 11606              		.loc 1 1099 5 discriminator 3 view .LVU3354
 11607 0056 FFF7FEFF 		bl	osal_printf
 11608              	.LVL1598:
 11609 005a F5E7     		b	.L1143
 11610              	.LVL1599:
 11611              	.L1153:
1099:../Switch/core/yt/yt_port.c ****     CMM_PARAM_CHK((!(YT_DISPATCH(unit)->is_inited)), CMM_ERR_NOT_INIT);
 11612              		.loc 1 1099 5 discriminator 3 view .LVU3355
 11613              	.LBE229:
1100:../Switch/core/yt/yt_port.c ****     CMM_PARAM_CHK((2 < powePad), CMM_ERR_INPUT);
 11614              		.loc 1 1100 5 is_stmt 1 discriminator 1 view .LVU3356
1100:../Switch/core/yt/yt_port.c ****     CMM_PARAM_CHK((2 < powePad), CMM_ERR_INPUT);
 11615              		.loc 1 1100 5 discriminator 1 view .LVU3357
 11616 005c 154B     		ldr	r3, .L1161+4
 11617 005e 1B78     		ldrb	r3, [r3]	@ zero_extendqisi2
 11618 0060 012B     		cmp	r3, #1
 11619 0062 01D8     		bhi	.L1158
 11620              	.LVL1600:
 11621              	.L1145:
1100:../Switch/core/yt/yt_port.c ****     CMM_PARAM_CHK((2 < powePad), CMM_ERR_INPUT);
 11622              		.loc 1 1100 5 discriminator 5 view .LVU3358
1100:../Switch/core/yt/yt_port.c ****     CMM_PARAM_CHK((2 < powePad), CMM_ERR_INPUT);
 11623              		.loc 1 1100 5 discriminator 5 view .LVU3359
1100:../Switch/core/yt/yt_port.c ****     CMM_PARAM_CHK((2 < powePad), CMM_ERR_INPUT);
 11624              		.loc 1 1100 5 discriminator 5 view .LVU3360
 11625 0064 0420     		movs	r0, #4
 11626 0066 DCE7     		b	.L1138
 11627              	.LVL1601:
 11628              	.L1158:
1100:../Switch/core/yt/yt_port.c ****     CMM_PARAM_CHK((2 < powePad), CMM_ERR_INPUT);
 11629              		.loc 1 1100 5 discriminator 3 view .LVU3361
 11630              	.LBB230:
1100:../Switch/core/yt/yt_port.c ****     CMM_PARAM_CHK((2 < powePad), CMM_ERR_INPUT);
 11631              		.loc 1 1100 5 discriminator 3 view .LVU3362
 11632 0068 134B     		ldr	r3, .L1161+8
 11633 006a 1A69     		ldr	r2, [r3, #16]
 11634              	.LVL1602:
1100:../Switch/core/yt/yt_port.c ****     CMM_PARAM_CHK((2 < powePad), CMM_ERR_INPUT);
 11635              		.loc 1 1100 5 is_stmt 0 discriminator 3 view .LVU3363
 11636 006c 134B     		ldr	r3, .L1161+12
 11637 006e 9968     		ldr	r1, [r3, #8]
 11638              	.LVL1603:
1100:../Switch/core/yt/yt_port.c ****     CMM_PARAM_CHK((2 < powePad), CMM_ERR_INPUT);
 11639              		.loc 1 1100 5 discriminator 3 view .LVU3364
 11640 0070 1348     		ldr	r0, .L1161+16
 11641 0072 FFF7FEFF 		bl	osal_printf
 11642              	.LVL1604:
 11643 0076 F5E7     		b	.L1145
 11644              	.LVL1605:
 11645              	.L1154:
1100:../Switch/core/yt/yt_port.c ****     CMM_PARAM_CHK((2 < powePad), CMM_ERR_INPUT);
 11646              		.loc 1 1100 5 discriminator 3 view .LVU3365
 11647              	.LBE230:
1101:../Switch/core/yt/yt_port.c ****     CMM_PARAM_CHK((POWER33V < powerLevel || POWER18V > powerLevel), CMM_ERR_INPUT);
 11648              		.loc 1 1101 5 is_stmt 1 discriminator 1 view .LVU3366
1101:../Switch/core/yt/yt_port.c ****     CMM_PARAM_CHK((POWER33V < powerLevel || POWER18V > powerLevel), CMM_ERR_INPUT);
 11649              		.loc 1 1101 5 discriminator 1 view .LVU3367
 11650 0078 0E4B     		ldr	r3, .L1161+4
 11651 007a 1B78     		ldrb	r3, [r3]	@ zero_extendqisi2
 11652 007c 012B     		cmp	r3, #1
 11653 007e 01D8     		bhi	.L1159
 11654              	.LVL1606:
 11655              	.L1147:
1101:../Switch/core/yt/yt_port.c ****     CMM_PARAM_CHK((POWER33V < powerLevel || POWER18V > powerLevel), CMM_ERR_INPUT);
 11656              		.loc 1 1101 5 discriminator 5 view .LVU3368
1101:../Switch/core/yt/yt_port.c ****     CMM_PARAM_CHK((POWER33V < powerLevel || POWER18V > powerLevel), CMM_ERR_INPUT);
 11657              		.loc 1 1101 5 discriminator 5 view .LVU3369
1101:../Switch/core/yt/yt_port.c ****     CMM_PARAM_CHK((POWER33V < powerLevel || POWER18V > powerLevel), CMM_ERR_INPUT);
 11658              		.loc 1 1101 5 discriminator 5 view .LVU3370
 11659 0080 0520     		movs	r0, #5
 11660 0082 CEE7     		b	.L1138
 11661              	.LVL1607:
 11662              	.L1159:
1101:../Switch/core/yt/yt_port.c ****     CMM_PARAM_CHK((POWER33V < powerLevel || POWER18V > powerLevel), CMM_ERR_INPUT);
 11663              		.loc 1 1101 5 discriminator 3 view .LVU3371
 11664              	.LBB231:
1101:../Switch/core/yt/yt_port.c ****     CMM_PARAM_CHK((POWER33V < powerLevel || POWER18V > powerLevel), CMM_ERR_INPUT);
 11665              		.loc 1 1101 5 discriminator 3 view .LVU3372
 11666 0084 0C4B     		ldr	r3, .L1161+8
 11667 0086 5A69     		ldr	r2, [r3, #20]
 11668              	.LVL1608:
1101:../Switch/core/yt/yt_port.c ****     CMM_PARAM_CHK((POWER33V < powerLevel || POWER18V > powerLevel), CMM_ERR_INPUT);
 11669              		.loc 1 1101 5 is_stmt 0 discriminator 3 view .LVU3373
 11670 0088 0C4B     		ldr	r3, .L1161+12
 11671 008a 9968     		ldr	r1, [r3, #8]
 11672              	.LVL1609:
1101:../Switch/core/yt/yt_port.c ****     CMM_PARAM_CHK((POWER33V < powerLevel || POWER18V > powerLevel), CMM_ERR_INPUT);
 11673              		.loc 1 1101 5 discriminator 3 view .LVU3374
 11674 008c 0C48     		ldr	r0, .L1161+16
 11675 008e FFF7FEFF 		bl	osal_printf
 11676              	.LVL1610:
 11677 0092 F5E7     		b	.L1147
 11678              	.LVL1611:
 11679              	.L1155:
1101:../Switch/core/yt/yt_port.c ****     CMM_PARAM_CHK((POWER33V < powerLevel || POWER18V > powerLevel), CMM_ERR_INPUT);
 11680              		.loc 1 1101 5 discriminator 3 view .LVU3375
 11681              	.LBE231:
1102:../Switch/core/yt/yt_port.c **** 
 11682              		.loc 1 1102 5 is_stmt 1 discriminator 1 view .LVU3376
1102:../Switch/core/yt/yt_port.c **** 
 11683              		.loc 1 1102 5 discriminator 1 view .LVU3377
 11684 0094 074B     		ldr	r3, .L1161+4
 11685 0096 1B78     		ldrb	r3, [r3]	@ zero_extendqisi2
 11686 0098 012B     		cmp	r3, #1
 11687 009a 01D8     		bhi	.L1160
 11688              	.LVL1612:
 11689              	.L1149:
1102:../Switch/core/yt/yt_port.c **** 
 11690              		.loc 1 1102 5 discriminator 5 view .LVU3378
1102:../Switch/core/yt/yt_port.c **** 
 11691              		.loc 1 1102 5 discriminator 5 view .LVU3379
1102:../Switch/core/yt/yt_port.c **** 
 11692              		.loc 1 1102 5 discriminator 5 view .LVU3380
 11693 009c 0520     		movs	r0, #5
 11694 009e C0E7     		b	.L1138
 11695              	.LVL1613:
 11696              	.L1160:
1102:../Switch/core/yt/yt_port.c **** 
 11697              		.loc 1 1102 5 discriminator 3 view .LVU3381
 11698              	.LBB232:
1102:../Switch/core/yt/yt_port.c **** 
 11699              		.loc 1 1102 5 discriminator 3 view .LVU3382
 11700 00a0 054B     		ldr	r3, .L1161+8
 11701 00a2 5A69     		ldr	r2, [r3, #20]
 11702              	.LVL1614:
1102:../Switch/core/yt/yt_port.c **** 
 11703              		.loc 1 1102 5 is_stmt 0 discriminator 3 view .LVU3383
 11704 00a4 054B     		ldr	r3, .L1161+12
 11705 00a6 9968     		ldr	r1, [r3, #8]
 11706              	.LVL1615:
1102:../Switch/core/yt/yt_port.c **** 
 11707              		.loc 1 1102 5 discriminator 3 view .LVU3384
 11708 00a8 0548     		ldr	r0, .L1161+16
 11709 00aa FFF7FEFF 		bl	osal_printf
 11710              	.LVL1616:
 11711 00ae F5E7     		b	.L1149
 11712              	.L1162:
 11713              		.align	2
 11714              	.L1161:
 11715 00b0 00000000 		.word	gpfal_dispatch
 11716 00b4 00000000 		.word	yt_debug_level
 11717 00b8 00000000 		.word	_yt_errmsg
 11718 00bc 00000000 		.word	_yt_prompt_msg
 11719 00c0 00000000 		.word	.LC0
 11720              	.LBE232:
 11721              		.cfi_endproc
 11722              	.LFE49:
 11724              		.section	.text.yt_port_dvddio_power_level_get,"ax",%progbits
 11725              		.align	1
 11726              		.global	yt_port_dvddio_power_level_get
 11727              		.syntax unified
 11728              		.thumb
 11729              		.thumb_func
 11731              	yt_port_dvddio_power_level_get:
 11732              	.LVL1617:
 11733              	.LFB50:
1106:../Switch/core/yt/yt_port.c **** 
1107:../Switch/core/yt/yt_port.c **** 
1108:../Switch/core/yt/yt_port.c **** /**
1109:../Switch/core/yt/yt_port.c ****  * @internal      yt_port_dvddio_power_level_get
1110:../Switch/core/yt/yt_port.c ****  * @endinternal
1111:../Switch/core/yt/yt_port.c ****  *
1112:../Switch/core/yt/yt_port.c ****  * @brief         get dvddio power level
1113:../Switch/core/yt/yt_port.c ****  * @note          APPLICABLE DEVICES  -Tiger
1114:../Switch/core/yt/yt_port.c ****  * @param[in]     unit                -unit id
1115:../Switch/core/yt/yt_port.c ****  * @param[in]     powePad                -powerpad
1116:../Switch/core/yt/yt_port.c ****  * @param[out]    pPowerLevel             -1.8v,2.5v,3.3v
1117:../Switch/core/yt/yt_port.c ****  * @retval        CMM_ERR_OK          -on success
1118:../Switch/core/yt/yt_port.c ****  * @retval        CMM_ERR_FAIL        -on fail
1119:../Switch/core/yt/yt_port.c ****  */
1120:../Switch/core/yt/yt_port.c **** yt_ret_t yt_port_dvddio_power_level_get(yt_unit_t unit, yt_dvddio_power_pad_t powePad, yt_dvddio_po
1121:../Switch/core/yt/yt_port.c **** {
 11734              		.loc 1 1121 1 is_stmt 1 view -0
 11735              		.cfi_startproc
 11736              		@ args = 0, pretend = 0, frame = 0
 11737              		@ frame_needed = 0, uses_anonymous_args = 0
 11738              		.loc 1 1121 1 is_stmt 0 view .LVU3386
 11739 0000 08B5     		push	{r3, lr}
 11740              		.cfi_def_cfa_offset 8
 11741              		.cfi_offset 3, -8
 11742              		.cfi_offset 14, -4
1122:../Switch/core/yt/yt_port.c ****     CMM_PARAM_CHK((YT_UNIT_NUM <= unit), CMM_ERR_INPUT);
 11743              		.loc 1 1122 5 is_stmt 1 view .LVU3387
 11744              		.loc 1 1122 5 view .LVU3388
 11745 0002 78B9     		cbnz	r0, .L1176
 11746 0004 8446     		mov	ip, r0
 11747              		.loc 1 1122 5 discriminator 2 view .LVU3389
1123:../Switch/core/yt/yt_port.c ****     CMM_PARAM_CHK(NULL == YT_DISPATCH(unit), CMM_ERR_NOT_INIT);
 11748              		.loc 1 1123 5 discriminator 2 view .LVU3390
 11749              		.loc 1 1123 5 discriminator 2 view .LVU3391
 11750 0006 2A4B     		ldr	r3, .L1186
 11751 0008 53F82030 		ldr	r3, [r3, r0, lsl #2]
 11752 000c C3B1     		cbz	r3, .L1177
 11753              		.loc 1 1123 5 discriminator 2 view .LVU3392
1124:../Switch/core/yt/yt_port.c ****     CMM_PARAM_CHK((!(YT_DISPATCH(unit)->is_inited)), CMM_ERR_NOT_INIT);
 11754              		.loc 1 1124 5 discriminator 2 view .LVU3393
 11755              		.loc 1 1124 5 discriminator 2 view .LVU3394
 11756 000e 1878     		ldrb	r0, [r3]	@ zero_extendqisi2
 11757              	.LVL1618:
 11758              		.loc 1 1124 5 is_stmt 0 discriminator 2 view .LVU3395
 11759 0010 20B3     		cbz	r0, .L1178
 11760              		.loc 1 1124 5 is_stmt 1 discriminator 2 view .LVU3396
1125:../Switch/core/yt/yt_port.c ****     CMM_PARAM_CHK((2 < powePad), CMM_ERR_INPUT);
 11761              		.loc 1 1125 5 discriminator 2 view .LVU3397
 11762              		.loc 1 1125 5 discriminator 2 view .LVU3398
 11763 0012 0229     		cmp	r1, #2
 11764 0014 30D8     		bhi	.L1179
 11765              		.loc 1 1125 5 discriminator 2 view .LVU3399
1126:../Switch/core/yt/yt_port.c ****     CMM_PARAM_CHK((NULL == pPowerLevel), CMM_ERR_NULL_POINT);
 11766              		.loc 1 1126 5 discriminator 2 view .LVU3400
 11767              		.loc 1 1126 5 discriminator 2 view .LVU3401
 11768 0016 002A     		cmp	r2, #0
 11769 0018 3CD0     		beq	.L1180
 11770              		.loc 1 1126 5 discriminator 2 view .LVU3402
1127:../Switch/core/yt/yt_port.c **** 
1128:../Switch/core/yt/yt_port.c ****     return YT_DISPATCH(unit)->port_dvddio_power_level_get(unit, powePad, pPowerLevel);
 11771              		.loc 1 1128 5 discriminator 2 view .LVU3403
 11772              		.loc 1 1128 29 is_stmt 0 discriminator 2 view .LVU3404
 11773 001a D3F81436 		ldr	r3, [r3, #1556]
 11774              		.loc 1 1128 12 discriminator 2 view .LVU3405
 11775 001e 6046     		mov	r0, ip
 11776 0020 9847     		blx	r3
 11777              	.LVL1619:
 11778              	.L1163:
1129:../Switch/core/yt/yt_port.c **** }...
 11779              		.loc 1 1129 1 view .LVU3406
 11780 0022 08BD     		pop	{r3, pc}
 11781              	.LVL1620:
 11782              	.L1176:
1122:../Switch/core/yt/yt_port.c ****     CMM_PARAM_CHK((YT_UNIT_NUM <= unit), CMM_ERR_INPUT);
 11783              		.loc 1 1122 5 is_stmt 1 discriminator 1 view .LVU3407
1122:../Switch/core/yt/yt_port.c ****     CMM_PARAM_CHK((YT_UNIT_NUM <= unit), CMM_ERR_INPUT);
 11784              		.loc 1 1122 5 discriminator 1 view .LVU3408
 11785 0024 234B     		ldr	r3, .L1186+4
 11786 0026 1B78     		ldrb	r3, [r3]	@ zero_extendqisi2
 11787 0028 012B     		cmp	r3, #1
 11788 002a 01D8     		bhi	.L1181
 11789              	.LVL1621:
 11790              	.L1165:
1122:../Switch/core/yt/yt_port.c ****     CMM_PARAM_CHK((YT_UNIT_NUM <= unit), CMM_ERR_INPUT);
 11791              		.loc 1 1122 5 discriminator 5 view .LVU3409
1122:../Switch/core/yt/yt_port.c ****     CMM_PARAM_CHK((YT_UNIT_NUM <= unit), CMM_ERR_INPUT);
 11792              		.loc 1 1122 5 discriminator 5 view .LVU3410
1122:../Switch/core/yt/yt_port.c ****     CMM_PARAM_CHK((YT_UNIT_NUM <= unit), CMM_ERR_INPUT);
 11793              		.loc 1 1122 5 discriminator 5 view .LVU3411
 11794 002c 0520     		movs	r0, #5
 11795 002e F8E7     		b	.L1163
 11796              	.LVL1622:
 11797              	.L1181:
1122:../Switch/core/yt/yt_port.c ****     CMM_PARAM_CHK((YT_UNIT_NUM <= unit), CMM_ERR_INPUT);
 11798              		.loc 1 1122 5 discriminator 3 view .LVU3412
 11799              	.LBB233:
1122:../Switch/core/yt/yt_port.c ****     CMM_PARAM_CHK((YT_UNIT_NUM <= unit), CMM_ERR_INPUT);
 11800              		.loc 1 1122 5 discriminator 3 view .LVU3413
 11801 0030 214B     		ldr	r3, .L1186+8
 11802 0032 5A69     		ldr	r2, [r3, #20]
 11803              	.LVL1623:
1122:../Switch/core/yt/yt_port.c ****     CMM_PARAM_CHK((YT_UNIT_NUM <= unit), CMM_ERR_INPUT);
 11804              		.loc 1 1122 5 is_stmt 0 discriminator 3 view .LVU3414
 11805 0034 214B     		ldr	r3, .L1186+12
 11806 0036 9968     		ldr	r1, [r3, #8]
 11807              	.LVL1624:
1122:../Switch/core/yt/yt_port.c ****     CMM_PARAM_CHK((YT_UNIT_NUM <= unit), CMM_ERR_INPUT);
 11808              		.loc 1 1122 5 discriminator 3 view .LVU3415
 11809 0038 2148     		ldr	r0, .L1186+16
 11810              	.LVL1625:
1122:../Switch/core/yt/yt_port.c ****     CMM_PARAM_CHK((YT_UNIT_NUM <= unit), CMM_ERR_INPUT);
 11811              		.loc 1 1122 5 discriminator 3 view .LVU3416
 11812 003a FFF7FEFF 		bl	osal_printf
 11813              	.LVL1626:
 11814 003e F5E7     		b	.L1165
 11815              	.LVL1627:
 11816              	.L1177:
1122:../Switch/core/yt/yt_port.c ****     CMM_PARAM_CHK((YT_UNIT_NUM <= unit), CMM_ERR_INPUT);
 11817              		.loc 1 1122 5 discriminator 3 view .LVU3417
 11818              	.LBE233:
1123:../Switch/core/yt/yt_port.c ****     CMM_PARAM_CHK(NULL == YT_DISPATCH(unit), CMM_ERR_NOT_INIT);
 11819              		.loc 1 1123 5 is_stmt 1 discriminator 1 view .LVU3418
1123:../Switch/core/yt/yt_port.c ****     CMM_PARAM_CHK(NULL == YT_DISPATCH(unit), CMM_ERR_NOT_INIT);
 11820              		.loc 1 1123 5 discriminator 1 view .LVU3419
 11821 0040 1C4B     		ldr	r3, .L1186+4
 11822 0042 1B78     		ldrb	r3, [r3]	@ zero_extendqisi2
 11823 0044 012B     		cmp	r3, #1
 11824 0046 01D8     		bhi	.L1182
 11825              	.LVL1628:
 11826              	.L1168:
1123:../Switch/core/yt/yt_port.c ****     CMM_PARAM_CHK(NULL == YT_DISPATCH(unit), CMM_ERR_NOT_INIT);
 11827              		.loc 1 1123 5 discriminator 5 view .LVU3420
1123:../Switch/core/yt/yt_port.c ****     CMM_PARAM_CHK(NULL == YT_DISPATCH(unit), CMM_ERR_NOT_INIT);
 11828              		.loc 1 1123 5 discriminator 5 view .LVU3421
1123:../Switch/core/yt/yt_port.c ****     CMM_PARAM_CHK(NULL == YT_DISPATCH(unit), CMM_ERR_NOT_INIT);
 11829              		.loc 1 1123 5 discriminator 5 view .LVU3422
 11830 0048 0420     		movs	r0, #4
 11831 004a EAE7     		b	.L1163
 11832              	.LVL1629:
 11833              	.L1182:
1123:../Switch/core/yt/yt_port.c ****     CMM_PARAM_CHK(NULL == YT_DISPATCH(unit), CMM_ERR_NOT_INIT);
 11834              		.loc 1 1123 5 discriminator 3 view .LVU3423
 11835              	.LBB234:
1123:../Switch/core/yt/yt_port.c ****     CMM_PARAM_CHK(NULL == YT_DISPATCH(unit), CMM_ERR_NOT_INIT);
 11836              		.loc 1 1123 5 discriminator 3 view .LVU3424
 11837 004c 1A4B     		ldr	r3, .L1186+8
 11838 004e 1A69     		ldr	r2, [r3, #16]
 11839              	.LVL1630:
1123:../Switch/core/yt/yt_port.c ****     CMM_PARAM_CHK(NULL == YT_DISPATCH(unit), CMM_ERR_NOT_INIT);
 11840              		.loc 1 1123 5 is_stmt 0 discriminator 3 view .LVU3425
 11841 0050 1A4B     		ldr	r3, .L1186+12
 11842 0052 9968     		ldr	r1, [r3, #8]
 11843              	.LVL1631:
1123:../Switch/core/yt/yt_port.c ****     CMM_PARAM_CHK(NULL == YT_DISPATCH(unit), CMM_ERR_NOT_INIT);
 11844              		.loc 1 1123 5 discriminator 3 view .LVU3426
 11845 0054 1A48     		ldr	r0, .L1186+16
 11846              	.LVL1632:
1123:../Switch/core/yt/yt_port.c ****     CMM_PARAM_CHK(NULL == YT_DISPATCH(unit), CMM_ERR_NOT_INIT);
 11847              		.loc 1 1123 5 discriminator 3 view .LVU3427
 11848 0056 FFF7FEFF 		bl	osal_printf
 11849              	.LVL1633:
 11850 005a F5E7     		b	.L1168
 11851              	.LVL1634:
 11852              	.L1178:
1123:../Switch/core/yt/yt_port.c ****     CMM_PARAM_CHK(NULL == YT_DISPATCH(unit), CMM_ERR_NOT_INIT);
 11853              		.loc 1 1123 5 discriminator 3 view .LVU3428
 11854              	.LBE234:
1124:../Switch/core/yt/yt_port.c ****     CMM_PARAM_CHK((!(YT_DISPATCH(unit)->is_inited)), CMM_ERR_NOT_INIT);
 11855              		.loc 1 1124 5 is_stmt 1 discriminator 1 view .LVU3429
1124:../Switch/core/yt/yt_port.c ****     CMM_PARAM_CHK((!(YT_DISPATCH(unit)->is_inited)), CMM_ERR_NOT_INIT);
 11856              		.loc 1 1124 5 discriminator 1 view .LVU3430
 11857 005c 154B     		ldr	r3, .L1186+4
 11858 005e 1B78     		ldrb	r3, [r3]	@ zero_extendqisi2
 11859 0060 012B     		cmp	r3, #1
 11860 0062 01D8     		bhi	.L1183
 11861              	.LVL1635:
 11862              	.L1170:
1124:../Switch/core/yt/yt_port.c ****     CMM_PARAM_CHK((!(YT_DISPATCH(unit)->is_inited)), CMM_ERR_NOT_INIT);
 11863              		.loc 1 1124 5 discriminator 5 view .LVU3431
1124:../Switch/core/yt/yt_port.c ****     CMM_PARAM_CHK((!(YT_DISPATCH(unit)->is_inited)), CMM_ERR_NOT_INIT);
 11864              		.loc 1 1124 5 discriminator 5 view .LVU3432
1124:../Switch/core/yt/yt_port.c ****     CMM_PARAM_CHK((!(YT_DISPATCH(unit)->is_inited)), CMM_ERR_NOT_INIT);
 11865              		.loc 1 1124 5 discriminator 5 view .LVU3433
 11866 0064 0420     		movs	r0, #4
 11867 0066 DCE7     		b	.L1163
 11868              	.LVL1636:
 11869              	.L1183:
1124:../Switch/core/yt/yt_port.c ****     CMM_PARAM_CHK((!(YT_DISPATCH(unit)->is_inited)), CMM_ERR_NOT_INIT);
 11870              		.loc 1 1124 5 discriminator 3 view .LVU3434
 11871              	.LBB235:
1124:../Switch/core/yt/yt_port.c ****     CMM_PARAM_CHK((!(YT_DISPATCH(unit)->is_inited)), CMM_ERR_NOT_INIT);
 11872              		.loc 1 1124 5 discriminator 3 view .LVU3435
 11873 0068 134B     		ldr	r3, .L1186+8
 11874 006a 1A69     		ldr	r2, [r3, #16]
 11875              	.LVL1637:
1124:../Switch/core/yt/yt_port.c ****     CMM_PARAM_CHK((!(YT_DISPATCH(unit)->is_inited)), CMM_ERR_NOT_INIT);
 11876              		.loc 1 1124 5 is_stmt 0 discriminator 3 view .LVU3436
 11877 006c 134B     		ldr	r3, .L1186+12
 11878 006e 9968     		ldr	r1, [r3, #8]
 11879              	.LVL1638:
1124:../Switch/core/yt/yt_port.c ****     CMM_PARAM_CHK((!(YT_DISPATCH(unit)->is_inited)), CMM_ERR_NOT_INIT);
 11880              		.loc 1 1124 5 discriminator 3 view .LVU3437
 11881 0070 1348     		ldr	r0, .L1186+16
 11882 0072 FFF7FEFF 		bl	osal_printf
 11883              	.LVL1639:
 11884 0076 F5E7     		b	.L1170
 11885              	.LVL1640:
 11886              	.L1179:
1124:../Switch/core/yt/yt_port.c ****     CMM_PARAM_CHK((!(YT_DISPATCH(unit)->is_inited)), CMM_ERR_NOT_INIT);
 11887              		.loc 1 1124 5 discriminator 3 view .LVU3438
 11888              	.LBE235:
1125:../Switch/core/yt/yt_port.c ****     CMM_PARAM_CHK((2 < powePad), CMM_ERR_INPUT);
 11889              		.loc 1 1125 5 is_stmt 1 discriminator 1 view .LVU3439
1125:../Switch/core/yt/yt_port.c ****     CMM_PARAM_CHK((2 < powePad), CMM_ERR_INPUT);
 11890              		.loc 1 1125 5 discriminator 1 view .LVU3440
 11891 0078 0E4B     		ldr	r3, .L1186+4
 11892 007a 1B78     		ldrb	r3, [r3]	@ zero_extendqisi2
 11893 007c 012B     		cmp	r3, #1
 11894 007e 01D8     		bhi	.L1184
 11895              	.LVL1641:
 11896              	.L1172:
1125:../Switch/core/yt/yt_port.c ****     CMM_PARAM_CHK((2 < powePad), CMM_ERR_INPUT);
 11897              		.loc 1 1125 5 discriminator 5 view .LVU3441
1125:../Switch/core/yt/yt_port.c ****     CMM_PARAM_CHK((2 < powePad), CMM_ERR_INPUT);
 11898              		.loc 1 1125 5 discriminator 5 view .LVU3442
1125:../Switch/core/yt/yt_port.c ****     CMM_PARAM_CHK((2 < powePad), CMM_ERR_INPUT);
 11899              		.loc 1 1125 5 discriminator 5 view .LVU3443
 11900 0080 0520     		movs	r0, #5
 11901 0082 CEE7     		b	.L1163
 11902              	.LVL1642:
 11903              	.L1184:
1125:../Switch/core/yt/yt_port.c ****     CMM_PARAM_CHK((2 < powePad), CMM_ERR_INPUT);
 11904              		.loc 1 1125 5 discriminator 3 view .LVU3444
 11905              	.LBB236:
1125:../Switch/core/yt/yt_port.c ****     CMM_PARAM_CHK((2 < powePad), CMM_ERR_INPUT);
 11906              		.loc 1 1125 5 discriminator 3 view .LVU3445
 11907 0084 0C4B     		ldr	r3, .L1186+8
 11908 0086 5A69     		ldr	r2, [r3, #20]
 11909              	.LVL1643:
1125:../Switch/core/yt/yt_port.c ****     CMM_PARAM_CHK((2 < powePad), CMM_ERR_INPUT);
 11910              		.loc 1 1125 5 is_stmt 0 discriminator 3 view .LVU3446
 11911 0088 0C4B     		ldr	r3, .L1186+12
 11912 008a 9968     		ldr	r1, [r3, #8]
 11913              	.LVL1644:
1125:../Switch/core/yt/yt_port.c ****     CMM_PARAM_CHK((2 < powePad), CMM_ERR_INPUT);
 11914              		.loc 1 1125 5 discriminator 3 view .LVU3447
 11915 008c 0C48     		ldr	r0, .L1186+16
 11916 008e FFF7FEFF 		bl	osal_printf
 11917              	.LVL1645:
 11918 0092 F5E7     		b	.L1172
 11919              	.LVL1646:
 11920              	.L1180:
1125:../Switch/core/yt/yt_port.c ****     CMM_PARAM_CHK((2 < powePad), CMM_ERR_INPUT);
 11921              		.loc 1 1125 5 discriminator 3 view .LVU3448
 11922              	.LBE236:
1126:../Switch/core/yt/yt_port.c ****     CMM_PARAM_CHK((NULL == pPowerLevel), CMM_ERR_NULL_POINT);
 11923              		.loc 1 1126 5 is_stmt 1 discriminator 1 view .LVU3449
1126:../Switch/core/yt/yt_port.c ****     CMM_PARAM_CHK((NULL == pPowerLevel), CMM_ERR_NULL_POINT);
 11924              		.loc 1 1126 5 discriminator 1 view .LVU3450
 11925 0094 074B     		ldr	r3, .L1186+4
 11926 0096 1B78     		ldrb	r3, [r3]	@ zero_extendqisi2
 11927 0098 012B     		cmp	r3, #1
 11928 009a 01D8     		bhi	.L1185
 11929              	.LVL1647:
 11930              	.L1174:
1126:../Switch/core/yt/yt_port.c ****     CMM_PARAM_CHK((NULL == pPowerLevel), CMM_ERR_NULL_POINT);
 11931              		.loc 1 1126 5 discriminator 5 view .LVU3451
1126:../Switch/core/yt/yt_port.c ****     CMM_PARAM_CHK((NULL == pPowerLevel), CMM_ERR_NULL_POINT);
 11932              		.loc 1 1126 5 discriminator 5 view .LVU3452
1126:../Switch/core/yt/yt_port.c ****     CMM_PARAM_CHK((NULL == pPowerLevel), CMM_ERR_NULL_POINT);
 11933              		.loc 1 1126 5 discriminator 5 view .LVU3453
 11934 009c 0220     		movs	r0, #2
 11935 009e C0E7     		b	.L1163
 11936              	.LVL1648:
 11937              	.L1185:
1126:../Switch/core/yt/yt_port.c ****     CMM_PARAM_CHK((NULL == pPowerLevel), CMM_ERR_NULL_POINT);
 11938              		.loc 1 1126 5 discriminator 3 view .LVU3454
 11939              	.LBB237:
1126:../Switch/core/yt/yt_port.c ****     CMM_PARAM_CHK((NULL == pPowerLevel), CMM_ERR_NULL_POINT);
 11940              		.loc 1 1126 5 discriminator 3 view .LVU3455
 11941 00a0 054B     		ldr	r3, .L1186+8
 11942 00a2 9A68     		ldr	r2, [r3, #8]
 11943              	.LVL1649:
1126:../Switch/core/yt/yt_port.c ****     CMM_PARAM_CHK((NULL == pPowerLevel), CMM_ERR_NULL_POINT);
 11944              		.loc 1 1126 5 is_stmt 0 discriminator 3 view .LVU3456
 11945 00a4 054B     		ldr	r3, .L1186+12
 11946 00a6 9968     		ldr	r1, [r3, #8]
 11947              	.LVL1650:
1126:../Switch/core/yt/yt_port.c ****     CMM_PARAM_CHK((NULL == pPowerLevel), CMM_ERR_NULL_POINT);
 11948              		.loc 1 1126 5 discriminator 3 view .LVU3457
 11949 00a8 0548     		ldr	r0, .L1186+16
 11950 00aa FFF7FEFF 		bl	osal_printf
 11951              	.LVL1651:
 11952 00ae F5E7     		b	.L1174
 11953              	.L1187:
 11954              		.align	2
 11955              	.L1186:
 11956 00b0 00000000 		.word	gpfal_dispatch
 11957 00b4 00000000 		.word	yt_debug_level
 11958 00b8 00000000 		.word	_yt_errmsg
 11959 00bc 00000000 		.word	_yt_prompt_msg
 11960 00c0 00000000 		.word	.LC0
 11961              	.LBE237:
 11962              		.cfi_endproc
 11963              	.LFE50:
 11965              		.text
 11966              	.Letext0:
 11967              		.file 2 "C:\\Users\\Dmitriy\\Desktop\\GD32F10x\\Switch\\common\\include/yt_types.h"
 11968              		.file 3 "C:\\Users\\Dmitriy\\Desktop\\GD32F10x\\Switch\\common\\include/yt_error.h"
 11969              		.file 4 "C:\\Users\\Dmitriy\\Desktop\\GD32F10x\\Switch\\core\\fal\\chipdef/chipdef.h"
 11970              		.file 5 "C:\\Users\\Dmitriy\\Desktop\\GD32F10x\\Switch\\core\\cal/cal_bprofile.h"
 11971              		.file 6 "C:\\Users\\Dmitriy\\Desktop\\GD32F10x\\Switch\\core\\cal/cal_mgm.h"
 11972              		.file 7 "C:\\Users\\Dmitriy\\Desktop\\GD32F10x\\Switch\\include/yt_cmm.h"
 11973              		.file 8 "C:\\Users\\Dmitriy\\Desktop\\GD32F10x\\Switch\\include/yt_port.h"
 11974              		.file 9 "C:\\Users\\Dmitriy\\Desktop\\GD32F10x\\Switch\\include/yt_vlan.h"
 11975              		.file 10 "C:\\Users\\Dmitriy\\Desktop\\GD32F10x\\Switch\\include/yt_vlan_translate.h"
 11976              		.file 11 "C:\\Users\\Dmitriy\\Desktop\\GD32F10x\\Switch\\include/yt_acl.h"
 11977              		.file 12 "C:\\Users\\Dmitriy\\Desktop\\GD32F10x\\Switch\\include/yt_qos.h"
 11978              		.file 13 "C:\\Users\\Dmitriy\\Desktop\\GD32F10x\\Switch\\include/yt_rate.h"
 11979              		.file 14 "C:\\Users\\Dmitriy\\Desktop\\GD32F10x\\Switch\\include/yt_dos.h"
 11980              		.file 15 "C:\\Users\\Dmitriy\\Desktop\\GD32F10x\\Switch\\include/yt_nic.h"
 11981              		.file 16 "C:\\Users\\Dmitriy\\Desktop\\GD32F10x\\Switch\\include/yt_stp.h"
 11982              		.file 17 "C:\\Users\\Dmitriy\\Desktop\\GD32F10x\\Switch\\include/yt_l2.h"
 11983              		.file 18 "C:\\Users\\Dmitriy\\Desktop\\GD32F10x\\Switch\\include/yt_loopdetect.h"
 11984              		.file 19 "C:\\Users\\Dmitriy\\Desktop\\GD32F10x\\Switch\\include/yt_multicast.h"
 11985              		.file 20 "C:\\Users\\Dmitriy\\Desktop\\GD32F10x\\Switch\\include/yt_rma.h"
 11986              		.file 21 "C:\\Users\\Dmitriy\\Desktop\\GD32F10x\\Switch\\include/yt_oam.h"
 11987              		.file 22 "C:\\Users\\Dmitriy\\Desktop\\GD32F10x\\Switch\\include/yt_storm_ctrl.h"
 11988              		.file 23 "C:\\Users\\Dmitriy\\Desktop\\GD32F10x\\Switch\\include/yt_dot1x.h"
 11989              		.file 24 "C:\\Users\\Dmitriy\\Desktop\\GD32F10x\\Switch\\include/yt_ctrlpkt.h"
 11990              		.file 25 "C:\\Users\\Dmitriy\\Desktop\\GD32F10x\\Switch\\include/yt_stat.h"
 11991              		.file 26 "C:\\Users\\Dmitriy\\Desktop\\GD32F10x\\Switch\\include/yt_interrupt.h"
 11992              		.file 27 "C:\\Users\\Dmitriy\\Desktop\\GD32F10x\\Switch\\include/yt_led.h"
 11993              		.file 28 "C:\\Users\\Dmitriy\\Desktop\\GD32F10x\\Switch\\include/yt_sys.h"
 11994              		.file 29 "C:\\Users\\Dmitriy\\Desktop\\GD32F10x\\Switch\\include/yt_debug.h"
 11995              		.file 30 "C:\\Users\\Dmitriy\\Desktop\\GD32F10x\\Switch\\core\\fal/fal_dispatch.h"
DEFINED SYMBOLS
                            *ABS*:00000000 yt_port.c
C:\Users\Dmitriy\AppData\Local\Temp\ccK1jKbu.s:19     .rodata.yt_port_init.str1.4:00000000 $d
C:\Users\Dmitriy\AppData\Local\Temp\ccK1jKbu.s:23     .text.yt_port_init:00000000 $t
C:\Users\Dmitriy\AppData\Local\Temp\ccK1jKbu.s:29     .text.yt_port_init:00000000 yt_port_init
C:\Users\Dmitriy\AppData\Local\Temp\ccK1jKbu.s:162    .text.yt_port_init:0000006c $d
C:\Users\Dmitriy\AppData\Local\Temp\ccK1jKbu.s:172    .text.yt_port_enable_set:00000000 $t
C:\Users\Dmitriy\AppData\Local\Temp\ccK1jKbu.s:178    .text.yt_port_enable_set:00000000 yt_port_enable_set
C:\Users\Dmitriy\AppData\Local\Temp\ccK1jKbu.s:411    .text.yt_port_enable_set:000000c4 $d
C:\Users\Dmitriy\AppData\Local\Temp\ccK1jKbu.s:423    .text.yt_port_enable_get:00000000 $t
C:\Users\Dmitriy\AppData\Local\Temp\ccK1jKbu.s:429    .text.yt_port_enable_get:00000000 yt_port_enable_get
C:\Users\Dmitriy\AppData\Local\Temp\ccK1jKbu.s:662    .text.yt_port_enable_get:000000c4 $d
C:\Users\Dmitriy\AppData\Local\Temp\ccK1jKbu.s:674    .text.yt_port_link_status_get:00000000 $t
C:\Users\Dmitriy\AppData\Local\Temp\ccK1jKbu.s:680    .text.yt_port_link_status_get:00000000 yt_port_link_status_get
C:\Users\Dmitriy\AppData\Local\Temp\ccK1jKbu.s:913    .text.yt_port_link_status_get:000000c4 $d
C:\Users\Dmitriy\AppData\Local\Temp\ccK1jKbu.s:925    .text.yt_port_link_status_all_get:00000000 $t
C:\Users\Dmitriy\AppData\Local\Temp\ccK1jKbu.s:931    .text.yt_port_link_status_all_get:00000000 yt_port_link_status_all_get
C:\Users\Dmitriy\AppData\Local\Temp\ccK1jKbu.s:1164   .text.yt_port_link_status_all_get:000000c4 $d
C:\Users\Dmitriy\AppData\Local\Temp\ccK1jKbu.s:1176   .text.yt_port_backpress_enable_set:00000000 $t
C:\Users\Dmitriy\AppData\Local\Temp\ccK1jKbu.s:1182   .text.yt_port_backpress_enable_set:00000000 yt_port_backpress_enable_set
C:\Users\Dmitriy\AppData\Local\Temp\ccK1jKbu.s:1415   .text.yt_port_backpress_enable_set:000000c4 $d
C:\Users\Dmitriy\AppData\Local\Temp\ccK1jKbu.s:1427   .text.yt_port_backpress_enable_get:00000000 $t
C:\Users\Dmitriy\AppData\Local\Temp\ccK1jKbu.s:1433   .text.yt_port_backpress_enable_get:00000000 yt_port_backpress_enable_get
C:\Users\Dmitriy\AppData\Local\Temp\ccK1jKbu.s:1666   .text.yt_port_backpress_enable_get:000000c4 $d
C:\Users\Dmitriy\AppData\Local\Temp\ccK1jKbu.s:1678   .text.yt_port_cascade_set:00000000 $t
C:\Users\Dmitriy\AppData\Local\Temp\ccK1jKbu.s:1684   .text.yt_port_cascade_set:00000000 yt_port_cascade_set
C:\Users\Dmitriy\AppData\Local\Temp\ccK1jKbu.s:1947   .text.yt_port_cascade_set:00000104 $d
C:\Users\Dmitriy\AppData\Local\Temp\ccK1jKbu.s:1958   .text.yt_port_cascade_get:00000000 $t
C:\Users\Dmitriy\AppData\Local\Temp\ccK1jKbu.s:1964   .text.yt_port_cascade_get:00000000 yt_port_cascade_get
C:\Users\Dmitriy\AppData\Local\Temp\ccK1jKbu.s:2142   .text.yt_port_cascade_get:00000090 $d
C:\Users\Dmitriy\AppData\Local\Temp\ccK1jKbu.s:2152   .text.yt_port_pkt_gap_set:00000000 $t
C:\Users\Dmitriy\AppData\Local\Temp\ccK1jKbu.s:2158   .text.yt_port_pkt_gap_set:00000000 yt_port_pkt_gap_set
C:\Users\Dmitriy\AppData\Local\Temp\ccK1jKbu.s:2351   .text.yt_port_pkt_gap_set:000000a0 $d
C:\Users\Dmitriy\AppData\Local\Temp\ccK1jKbu.s:2363   .text.yt_port_pkt_gap_get:00000000 $t
C:\Users\Dmitriy\AppData\Local\Temp\ccK1jKbu.s:2369   .text.yt_port_pkt_gap_get:00000000 yt_port_pkt_gap_get
C:\Users\Dmitriy\AppData\Local\Temp\ccK1jKbu.s:2602   .text.yt_port_pkt_gap_get:000000c4 $d
C:\Users\Dmitriy\AppData\Local\Temp\ccK1jKbu.s:2614   .text.yt_port_macAutoNeg_enable_set:00000000 $t
C:\Users\Dmitriy\AppData\Local\Temp\ccK1jKbu.s:2620   .text.yt_port_macAutoNeg_enable_set:00000000 yt_port_macAutoNeg_enable_set
C:\Users\Dmitriy\AppData\Local\Temp\ccK1jKbu.s:2853   .text.yt_port_macAutoNeg_enable_set:000000c4 $d
C:\Users\Dmitriy\AppData\Local\Temp\ccK1jKbu.s:2865   .text.yt_port_macAutoNeg_enable_get:00000000 $t
C:\Users\Dmitriy\AppData\Local\Temp\ccK1jKbu.s:2871   .text.yt_port_macAutoNeg_enable_get:00000000 yt_port_macAutoNeg_enable_get
C:\Users\Dmitriy\AppData\Local\Temp\ccK1jKbu.s:3104   .text.yt_port_macAutoNeg_enable_get:000000c4 $d
C:\Users\Dmitriy\AppData\Local\Temp\ccK1jKbu.s:3116   .text.yt_port_mac_force_set:00000000 $t
C:\Users\Dmitriy\AppData\Local\Temp\ccK1jKbu.s:3122   .text.yt_port_mac_force_set:00000000 yt_port_mac_force_set
C:\Users\Dmitriy\AppData\Local\Temp\ccK1jKbu.s:3316   .text.yt_port_mac_force_set:000000a8 $d
C:\Users\Dmitriy\AppData\Local\Temp\ccK1jKbu.s:3328   .text.yt_port_mac_force_get:00000000 $t
C:\Users\Dmitriy\AppData\Local\Temp\ccK1jKbu.s:3334   .text.yt_port_mac_force_get:00000000 yt_port_mac_force_get
C:\Users\Dmitriy\AppData\Local\Temp\ccK1jKbu.s:3567   .text.yt_port_mac_force_get:000000c4 $d
C:\Users\Dmitriy\AppData\Local\Temp\ccK1jKbu.s:3579   .text.yt_port_mac_fc_set:00000000 $t
C:\Users\Dmitriy\AppData\Local\Temp\ccK1jKbu.s:3585   .text.yt_port_mac_fc_set:00000000 yt_port_mac_fc_set
C:\Users\Dmitriy\AppData\Local\Temp\ccK1jKbu.s:3818   .text.yt_port_mac_fc_set:000000c4 $d
C:\Users\Dmitriy\AppData\Local\Temp\ccK1jKbu.s:3830   .text.yt_port_mac_fc_get:00000000 $t
C:\Users\Dmitriy\AppData\Local\Temp\ccK1jKbu.s:3836   .text.yt_port_mac_fc_get:00000000 yt_port_mac_fc_get
C:\Users\Dmitriy\AppData\Local\Temp\ccK1jKbu.s:4069   .text.yt_port_mac_fc_get:000000c4 $d
C:\Users\Dmitriy\AppData\Local\Temp\ccK1jKbu.s:4081   .text.yt_port_extif_mode_set:00000000 $t
C:\Users\Dmitriy\AppData\Local\Temp\ccK1jKbu.s:4087   .text.yt_port_extif_mode_set:00000000 yt_port_extif_mode_set
C:\Users\Dmitriy\AppData\Local\Temp\ccK1jKbu.s:4320   .text.yt_port_extif_mode_set:000000c4 $d
C:\Users\Dmitriy\AppData\Local\Temp\ccK1jKbu.s:4332   .text.yt_port_extif_mode_get:00000000 $t
C:\Users\Dmitriy\AppData\Local\Temp\ccK1jKbu.s:4338   .text.yt_port_extif_mode_get:00000000 yt_port_extif_mode_get
C:\Users\Dmitriy\AppData\Local\Temp\ccK1jKbu.s:4571   .text.yt_port_extif_mode_get:000000c4 $d
C:\Users\Dmitriy\AppData\Local\Temp\ccK1jKbu.s:4583   .text.yt_port_extif_rgmii_delay_set:00000000 $t
C:\Users\Dmitriy\AppData\Local\Temp\ccK1jKbu.s:4589   .text.yt_port_extif_rgmii_delay_set:00000000 yt_port_extif_rgmii_delay_set
C:\Users\Dmitriy\AppData\Local\Temp\ccK1jKbu.s:4840   .text.yt_port_extif_rgmii_delay_set:000000cc $d
C:\Users\Dmitriy\AppData\Local\Temp\ccK1jKbu.s:4852   .text.yt_port_extif_rgmii_delay_get:00000000 $t
C:\Users\Dmitriy\AppData\Local\Temp\ccK1jKbu.s:4858   .text.yt_port_extif_rgmii_delay_get:00000000 yt_port_extif_rgmii_delay_get
C:\Users\Dmitriy\AppData\Local\Temp\ccK1jKbu.s:5192   .text.yt_port_extif_rgmii_delay_get:00000110 $d
C:\Users\Dmitriy\AppData\Local\Temp\ccK1jKbu.s:5204   .text.yt_port_phyAutoNeg_enable_set:00000000 $t
C:\Users\Dmitriy\AppData\Local\Temp\ccK1jKbu.s:5210   .text.yt_port_phyAutoNeg_enable_set:00000000 yt_port_phyAutoNeg_enable_set
C:\Users\Dmitriy\AppData\Local\Temp\ccK1jKbu.s:5443   .text.yt_port_phyAutoNeg_enable_set:000000c4 $d
C:\Users\Dmitriy\AppData\Local\Temp\ccK1jKbu.s:5455   .text.yt_port_phyAutoNeg_enable_get:00000000 $t
C:\Users\Dmitriy\AppData\Local\Temp\ccK1jKbu.s:5461   .text.yt_port_phyAutoNeg_enable_get:00000000 yt_port_phyAutoNeg_enable_get
C:\Users\Dmitriy\AppData\Local\Temp\ccK1jKbu.s:5694   .text.yt_port_phyAutoNeg_enable_get:000000c4 $d
C:\Users\Dmitriy\AppData\Local\Temp\ccK1jKbu.s:5706   .text.yt_port_phyAutoNeg_ability_set:00000000 $t
C:\Users\Dmitriy\AppData\Local\Temp\ccK1jKbu.s:5712   .text.yt_port_phyAutoNeg_ability_set:00000000 yt_port_phyAutoNeg_ability_set
C:\Users\Dmitriy\AppData\Local\Temp\ccK1jKbu.s:5909   .text.yt_port_phyAutoNeg_ability_set:000000b0 $d
C:\Users\Dmitriy\AppData\Local\Temp\ccK1jKbu.s:5921   .text.yt_port_phyAutoNeg_ability_get:00000000 $t
C:\Users\Dmitriy\AppData\Local\Temp\ccK1jKbu.s:5927   .text.yt_port_phyAutoNeg_ability_get:00000000 yt_port_phyAutoNeg_ability_get
C:\Users\Dmitriy\AppData\Local\Temp\ccK1jKbu.s:6160   .text.yt_port_phyAutoNeg_ability_get:000000c4 $d
C:\Users\Dmitriy\AppData\Local\Temp\ccK1jKbu.s:6172   .text.yt_port_phy_force_set:00000000 $t
C:\Users\Dmitriy\AppData\Local\Temp\ccK1jKbu.s:6178   .text.yt_port_phy_force_set:00000000 yt_port_phy_force_set
C:\Users\Dmitriy\AppData\Local\Temp\ccK1jKbu.s:6411   .text.yt_port_phy_force_set:000000c4 $d
C:\Users\Dmitriy\AppData\Local\Temp\ccK1jKbu.s:6423   .text.yt_port_phy_force_get:00000000 $t
C:\Users\Dmitriy\AppData\Local\Temp\ccK1jKbu.s:6429   .text.yt_port_phy_force_get:00000000 yt_port_phy_force_get
C:\Users\Dmitriy\AppData\Local\Temp\ccK1jKbu.s:6662   .text.yt_port_phy_force_get:000000c4 $d
C:\Users\Dmitriy\AppData\Local\Temp\ccK1jKbu.s:6674   .text.yt_port_phy_linkstatus_get:00000000 $t
C:\Users\Dmitriy\AppData\Local\Temp\ccK1jKbu.s:6680   .text.yt_port_phy_linkstatus_get:00000000 yt_port_phy_linkstatus_get
C:\Users\Dmitriy\AppData\Local\Temp\ccK1jKbu.s:6913   .text.yt_port_phy_linkstatus_get:000000c4 $d
C:\Users\Dmitriy\AppData\Local\Temp\ccK1jKbu.s:6925   .text.yt_port_phy_reg_set:00000000 $t
C:\Users\Dmitriy\AppData\Local\Temp\ccK1jKbu.s:6931   .text.yt_port_phy_reg_set:00000000 yt_port_phy_reg_set
C:\Users\Dmitriy\AppData\Local\Temp\ccK1jKbu.s:7182   .text.yt_port_phy_reg_set:000000cc $d
C:\Users\Dmitriy\AppData\Local\Temp\ccK1jKbu.s:7194   .text.yt_port_phy_reg_get:00000000 $t
C:\Users\Dmitriy\AppData\Local\Temp\ccK1jKbu.s:7200   .text.yt_port_phy_reg_get:00000000 yt_port_phy_reg_get
C:\Users\Dmitriy\AppData\Local\Temp\ccK1jKbu.s:7493   .text.yt_port_phy_reg_get:000000ec $d
C:\Users\Dmitriy\AppData\Local\Temp\ccK1jKbu.s:7505   .text.yt_port_eee_enable_set:00000000 $t
C:\Users\Dmitriy\AppData\Local\Temp\ccK1jKbu.s:7511   .text.yt_port_eee_enable_set:00000000 yt_port_eee_enable_set
C:\Users\Dmitriy\AppData\Local\Temp\ccK1jKbu.s:7744   .text.yt_port_eee_enable_set:000000c4 $d
C:\Users\Dmitriy\AppData\Local\Temp\ccK1jKbu.s:7756   .text.yt_port_eee_enable_get:00000000 $t
C:\Users\Dmitriy\AppData\Local\Temp\ccK1jKbu.s:7762   .text.yt_port_eee_enable_get:00000000 yt_port_eee_enable_get
C:\Users\Dmitriy\AppData\Local\Temp\ccK1jKbu.s:7995   .text.yt_port_eee_enable_get:000000c4 $d
C:\Users\Dmitriy\AppData\Local\Temp\ccK1jKbu.s:8007   .text.yt_port_jumbo_enable_set:00000000 $t
C:\Users\Dmitriy\AppData\Local\Temp\ccK1jKbu.s:8013   .text.yt_port_jumbo_enable_set:00000000 yt_port_jumbo_enable_set
C:\Users\Dmitriy\AppData\Local\Temp\ccK1jKbu.s:8246   .text.yt_port_jumbo_enable_set:000000c4 $d
C:\Users\Dmitriy\AppData\Local\Temp\ccK1jKbu.s:8258   .text.yt_port_jumbo_enable_get:00000000 $t
C:\Users\Dmitriy\AppData\Local\Temp\ccK1jKbu.s:8264   .text.yt_port_jumbo_enable_get:00000000 yt_port_jumbo_enable_get
C:\Users\Dmitriy\AppData\Local\Temp\ccK1jKbu.s:8497   .text.yt_port_jumbo_enable_get:000000c4 $d
C:\Users\Dmitriy\AppData\Local\Temp\ccK1jKbu.s:8509   .text.yt_port_jumbo_size_set:00000000 $t
C:\Users\Dmitriy\AppData\Local\Temp\ccK1jKbu.s:8515   .text.yt_port_jumbo_size_set:00000000 yt_port_jumbo_size_set
C:\Users\Dmitriy\AppData\Local\Temp\ccK1jKbu.s:8751   .text.yt_port_jumbo_size_set:000000cc $d
C:\Users\Dmitriy\AppData\Local\Temp\ccK1jKbu.s:8763   .text.yt_port_jumbo_size_get:00000000 $t
C:\Users\Dmitriy\AppData\Local\Temp\ccK1jKbu.s:8769   .text.yt_port_jumbo_size_get:00000000 yt_port_jumbo_size_get
C:\Users\Dmitriy\AppData\Local\Temp\ccK1jKbu.s:9002   .text.yt_port_jumbo_size_get:000000c4 $d
C:\Users\Dmitriy\AppData\Local\Temp\ccK1jKbu.s:9014   .text.yt_port_cable_diag:00000000 $t
C:\Users\Dmitriy\AppData\Local\Temp\ccK1jKbu.s:9020   .text.yt_port_cable_diag:00000000 yt_port_cable_diag
C:\Users\Dmitriy\AppData\Local\Temp\ccK1jKbu.s:9253   .text.yt_port_cable_diag:000000c4 $d
C:\Users\Dmitriy\AppData\Local\Temp\ccK1jKbu.s:9265   .text.yt_port_phyCrossover_mode_set:00000000 $t
C:\Users\Dmitriy\AppData\Local\Temp\ccK1jKbu.s:9271   .text.yt_port_phyCrossover_mode_set:00000000 yt_port_phyCrossover_mode_set
C:\Users\Dmitriy\AppData\Local\Temp\ccK1jKbu.s:9464   .text.yt_port_phyCrossover_mode_set:000000a0 $d
C:\Users\Dmitriy\AppData\Local\Temp\ccK1jKbu.s:9476   .text.yt_port_phyCrossover_mode_get:00000000 $t
C:\Users\Dmitriy\AppData\Local\Temp\ccK1jKbu.s:9482   .text.yt_port_phyCrossover_mode_get:00000000 yt_port_phyCrossover_mode_get
C:\Users\Dmitriy\AppData\Local\Temp\ccK1jKbu.s:9715   .text.yt_port_phyCrossover_mode_get:000000c4 $d
C:\Users\Dmitriy\AppData\Local\Temp\ccK1jKbu.s:9727   .text.yt_port_phyCrossover_status_get:00000000 $t
C:\Users\Dmitriy\AppData\Local\Temp\ccK1jKbu.s:9733   .text.yt_port_phyCrossover_status_get:00000000 yt_port_phyCrossover_status_get
C:\Users\Dmitriy\AppData\Local\Temp\ccK1jKbu.s:9966   .text.yt_port_phyCrossover_status_get:000000c4 $d
C:\Users\Dmitriy\AppData\Local\Temp\ccK1jKbu.s:9978   .text.yt_port_phy_green_enable_set:00000000 $t
C:\Users\Dmitriy\AppData\Local\Temp\ccK1jKbu.s:9984   .text.yt_port_phy_green_enable_set:00000000 yt_port_phy_green_enable_set
C:\Users\Dmitriy\AppData\Local\Temp\ccK1jKbu.s:10217  .text.yt_port_phy_green_enable_set:000000c4 $d
C:\Users\Dmitriy\AppData\Local\Temp\ccK1jKbu.s:10229  .text.yt_port_phy_green_enable_get:00000000 $t
C:\Users\Dmitriy\AppData\Local\Temp\ccK1jKbu.s:10235  .text.yt_port_phy_green_enable_get:00000000 yt_port_phy_green_enable_get
C:\Users\Dmitriy\AppData\Local\Temp\ccK1jKbu.s:10468  .text.yt_port_phy_green_enable_get:000000c4 $d
C:\Users\Dmitriy\AppData\Local\Temp\ccK1jKbu.s:10480  .text.yt_port_extif_xmiiClk_invert_set:00000000 $t
C:\Users\Dmitriy\AppData\Local\Temp\ccK1jKbu.s:10486  .text.yt_port_extif_xmiiClk_invert_set:00000000 yt_port_extif_xmiiClk_invert_set
C:\Users\Dmitriy\AppData\Local\Temp\ccK1jKbu.s:10719  .text.yt_port_extif_xmiiClk_invert_set:000000c4 $d
C:\Users\Dmitriy\AppData\Local\Temp\ccK1jKbu.s:10731  .text.yt_port_extif_xmiiClk_invert_get:00000000 $t
C:\Users\Dmitriy\AppData\Local\Temp\ccK1jKbu.s:10737  .text.yt_port_extif_xmiiClk_invert_get:00000000 yt_port_extif_xmiiClk_invert_get
C:\Users\Dmitriy\AppData\Local\Temp\ccK1jKbu.s:10970  .text.yt_port_extif_xmiiClk_invert_get:000000c4 $d
C:\Users\Dmitriy\AppData\Local\Temp\ccK1jKbu.s:10982  .text.yt_port_parallel_detection_set:00000000 $t
C:\Users\Dmitriy\AppData\Local\Temp\ccK1jKbu.s:10988  .text.yt_port_parallel_detection_set:00000000 yt_port_parallel_detection_set
C:\Users\Dmitriy\AppData\Local\Temp\ccK1jKbu.s:11221  .text.yt_port_parallel_detection_set:000000c4 $d
C:\Users\Dmitriy\AppData\Local\Temp\ccK1jKbu.s:11233  .text.yt_port_parallel_detection_get:00000000 $t
C:\Users\Dmitriy\AppData\Local\Temp\ccK1jKbu.s:11239  .text.yt_port_parallel_detection_get:00000000 yt_port_parallel_detection_get
C:\Users\Dmitriy\AppData\Local\Temp\ccK1jKbu.s:11472  .text.yt_port_parallel_detection_get:000000c4 $d
C:\Users\Dmitriy\AppData\Local\Temp\ccK1jKbu.s:11484  .text.yt_port_dvddio_power_level_set:00000000 $t
C:\Users\Dmitriy\AppData\Local\Temp\ccK1jKbu.s:11490  .text.yt_port_dvddio_power_level_set:00000000 yt_port_dvddio_power_level_set
C:\Users\Dmitriy\AppData\Local\Temp\ccK1jKbu.s:11715  .text.yt_port_dvddio_power_level_set:000000b0 $d
C:\Users\Dmitriy\AppData\Local\Temp\ccK1jKbu.s:11725  .text.yt_port_dvddio_power_level_get:00000000 $t
C:\Users\Dmitriy\AppData\Local\Temp\ccK1jKbu.s:11731  .text.yt_port_dvddio_power_level_get:00000000 yt_port_dvddio_power_level_get
C:\Users\Dmitriy\AppData\Local\Temp\ccK1jKbu.s:11956  .text.yt_port_dvddio_power_level_get:000000b0 $d
                           .group:00000000 wm4.0.353617a96a8f588ad8d04dd11dfc8225
                           .group:00000000 wm4._newlib_version.h.4.6d111ab2e95434b664b53815e5c8ccba
                           .group:00000000 wm4.newlib.h.27.d4bf77c18f14f545101dac22f0b54118
                           .group:00000000 wm4.ieeefp.h.77.0ee3146e9d892bb10bc0066c30189af1
                           .group:00000000 wm4.features.h.22.7877b139107948f7dadcf3660cc79cfd
                           .group:00000000 wm4.config.h.224.10ee1ad185d877c6e334e6581faab44d
                           .group:00000000 wm4._ansi.h.31.de524f58584151836e90d8620a16f8e8
                           .group:00000000 wm4.stdio.h.31.7c0e28c411445f3f9c5b11accf882760
                           .group:00000000 wm4._default_types.h.6.959254cf5f09734ea7516c89e8bb21bd
                           .group:00000000 wm4.stddef.h.185.cbb642e1ccd385e8aa504b15cb7fb086
                           .group:00000000 wm4.cdefs.h.49.f93868eb904b9ca05b5c0257d31128ca
                           .group:00000000 wm4.stddef.h.39.0e5f0dabba1c666ccadf0408e0d47322
                           .group:00000000 wm4.stdarg.h.34.3a23a216c0c293b3d2ea2e89281481e6
                           .group:00000000 wm4._types.h.20.dd0d04dca3800a0d2a6129b87f3adbb2
                           .group:00000000 wm4.stddef.h.158.5f30652bb2ea05b142c1bbee9108c999
                           .group:00000000 wm4._types.h.127.3bdfe3ff8ea2d0985b03d9cbe93480e3
                           .group:00000000 wm4.reent.h.17.e292bf8b0bec6c96e131a54347145a30
                           .group:00000000 wm4.lock.h.2.1461d1fff82dffe8bfddc23307f6484f
                           .group:00000000 wm4.reent.h.77.89f7dde66c62b1f1dee32bdb6ab2d544
                           .group:00000000 wm4.stdio.h.67.0cf8a9c281ab0b348aef5c02e7e48825
                           .group:00000000 wm4.stdio.h.2.4aa87247282eca6c8f36f9de33d8df1a
                           .group:00000000 wm4.stdio.h.87.a1e20d2651f9bfb66e51bfbe849db00a
                           .group:00000000 wm4.string.h.8.c4b8571ce60dff2817f43fec8b86aecd
                           .group:00000000 wm4.stddef.h.158.bfed30416c9480cd13bc4a25427d538f
                           .group:00000000 wm4.stdbool.h.29.4a1c88fe569adb8d03217dd16982ca34
                           .group:00000000 wm4.malloc.h.4.62bd13b8107d5245f60bd92bb5994838
                           .group:00000000 wm4.malloc.h.152.f5d1d9a9aabeac59da0ef41ede16d2b0
                           .group:00000000 wm4.yt_types.h.31.64aa050cf4c68d28514ce99f5dc2ddb9
                           .group:00000000 wm4.yt_util.h.17.08ae57e3898b218a2bbe57b2147a81bd
                           .group:00000000 wm4.yt_lock.h.9.5d39f1aba4451d3b9b95aa39771489dc
                           .group:00000000 wm4.yt_error.h.38.039589275c83974021fd481937e9f4a7
                           .group:00000000 wm4.chipdef_tiger.h.10.ae557adb3508daebcdc97f8fb0dc9e1a
                           .group:00000000 wm4.phy_chipdef.h.9.9a1a2dbb46f5503e32a84083ab1dbc9f
                           .group:00000000 wm4.cal_bprofile.h.23.d6ecfc2230abc149b4da600a40b20e5b
                           .group:00000000 wm4.bprofile_YT9215_default_demo.h.15.13aa65ba4a73c41dc1ffa3c5f8dcfda3
                           .group:00000000 wm4.cal_cmm.h.46.eec47faa946e01877de19a2f99ee7710
                           .group:00000000 wm4.yt_cmm.h.12.5273de39c1b049d4c73c2c31caf670b1
                           .group:00000000 wm4.yt_port.h.26.cd095c4f9e5cbf044bc6839a51827ee8
                           .group:00000000 wm4.yt_vlan.h.17.4dbe63e648ff65010c51c5f8a737ac2d
                           .group:00000000 wm4.yt_acl.h.25.ad9531373d966dccc96222e31e0234b5
                           .group:00000000 wm4.yt_nic.h.17.4e5ceed38d9cfbd9b5db2d4b069b6961
                           .group:00000000 wm4.yt_loopdetect.h.17.4739c2e436a8e779d4d8c89037b81aea
                           .group:00000000 wm4.yt_multicast.h.17.9c1d51b153e5e1785468d9c0ad6414a4
                           .group:00000000 wm4.yt_stat.h.17.f87caec2ee71e59f920ea3778bda3fad

UNDEFINED SYMBOLS
osal_printf
gpfal_dispatch
yt_debug_level
_yt_errmsg
_yt_prompt_msg
gcal_inited
gpSwitchUnit
