   1              		.cpu cortex-m3
   2              		.arch armv7-m
   3              		.fpu softvfp
   4              		.eabi_attribute 20, 1
   5              		.eabi_attribute 21, 1
   6              		.eabi_attribute 23, 3
   7              		.eabi_attribute 24, 1
   8              		.eabi_attribute 25, 1
   9              		.eabi_attribute 26, 1
  10              		.eabi_attribute 30, 1
  11              		.eabi_attribute 34, 1
  12              		.eabi_attribute 18, 4
  13              		.file	"yt_rate.c"
  14              		.text
  15              	.Ltext0:
  16              		.cfi_sections	.debug_frame
  17              		.file 1 "../Switch/core/yt/yt_rate.c"
  18              		.section	.rodata.yt_rate_init.str1.4,"aMS",%progbits,1
  19              		.align	2
  20              	.LC0:
  21 0000 25732573 		.ascii	"%s%s\015\012\000"
  21      0D0A00
  22              		.section	.text.yt_rate_init,"ax",%progbits
  23              		.align	1
  24              		.global	yt_rate_init
  25              		.syntax unified
  26              		.thumb
  27              		.thumb_func
  29              	yt_rate_init:
  30              	.LVL0:
  31              	.LFB3:
   1:../Switch/core/yt/yt_rate.c **** /*******************************************************************************
   2:../Switch/core/yt/yt_rate.c **** *                                                                              *
   3:../Switch/core/yt/yt_rate.c **** *  Copyright (c), 2022, Motorcomm Electronic Technology Co.,Ltd.               *
   4:../Switch/core/yt/yt_rate.c **** *  Motorcomm Confidential and Proprietary.                                     *
   5:../Switch/core/yt/yt_rate.c **** *                                                                              *
   6:../Switch/core/yt/yt_rate.c **** ********************************************************************************
   7:../Switch/core/yt/yt_rate.c **** */
   8:../Switch/core/yt/yt_rate.c **** /**
   9:../Switch/core/yt/yt_rate.c **** ********************************************************************************
  10:../Switch/core/yt/yt_rate.c **** * @file yt_rate.c
  11:../Switch/core/yt/yt_rate.c **** *
  12:../Switch/core/yt/yt_rate.c **** * @brief x
  13:../Switch/core/yt/yt_rate.c **** *
  14:../Switch/core/yt/yt_rate.c **** ********************************************************************************
  15:../Switch/core/yt/yt_rate.c **** */
  16:../Switch/core/yt/yt_rate.c **** #include "yt_rate.h"
  17:../Switch/core/yt/yt_rate.c **** #include "fal_dispatch.h"
  18:../Switch/core/yt/yt_rate.c **** 
  19:../Switch/core/yt/yt_rate.c **** 
  20:../Switch/core/yt/yt_rate.c **** /**
  21:../Switch/core/yt/yt_rate.c ****  * @internal      yt_rate_init
  22:../Switch/core/yt/yt_rate.c ****  * @endinternal
  23:../Switch/core/yt/yt_rate.c ****  *
  24:../Switch/core/yt/yt_rate.c ****  * @brief         Description
  25:../Switch/core/yt/yt_rate.c ****  * @note          APPLICABLE DEVICES  -Tiger
  26:../Switch/core/yt/yt_rate.c ****  * @param[in]     unit                -unit id
  27:../Switch/core/yt/yt_rate.c ****  * @retval        CMM_ERR_OK          -on success
  28:../Switch/core/yt/yt_rate.c ****  * @retval        CMM_ERR_FAIL        -on fail
  29:../Switch/core/yt/yt_rate.c ****  */
  30:../Switch/core/yt/yt_rate.c **** yt_ret_t yt_rate_init(yt_unit_t unit)
  31:../Switch/core/yt/yt_rate.c **** {
  32              		.loc 1 31 1 view -0
  33              		.cfi_startproc
  34              		@ args = 0, pretend = 0, frame = 0
  35              		@ frame_needed = 0, uses_anonymous_args = 0
  36              		.loc 1 31 1 is_stmt 0 view .LVU1
  37 0000 08B5     		push	{r3, lr}
  38              		.cfi_def_cfa_offset 8
  39              		.cfi_offset 3, -8
  40              		.cfi_offset 14, -4
  32:../Switch/core/yt/yt_rate.c ****     CMM_PARAM_CHK((YT_UNIT_NUM <= unit), CMM_ERR_INPUT);
  41              		.loc 1 32 5 is_stmt 1 view .LVU2
  42              		.loc 1 32 5 view .LVU3
  43 0002 48B9     		cbnz	r0, .L10
  44              		.loc 1 32 5 discriminator 2 view .LVU4
  33:../Switch/core/yt/yt_rate.c ****     CMM_PARAM_CHK(NULL == YT_DISPATCH(unit), CMM_ERR_NOT_INIT);
  45              		.loc 1 33 5 discriminator 2 view .LVU5
  46              		.loc 1 33 5 discriminator 2 view .LVU6
  47 0004 194B     		ldr	r3, .L16
  48 0006 53F82030 		ldr	r3, [r3, r0, lsl #2]
  49 000a 9BB1     		cbz	r3, .L11
  50              		.loc 1 33 5 discriminator 2 view .LVU7
  34:../Switch/core/yt/yt_rate.c ****     CMM_PARAM_CHK((!(YT_DISPATCH(unit)->is_inited)), CMM_ERR_NOT_INIT);
  51              		.loc 1 34 5 discriminator 2 view .LVU8
  52              		.loc 1 34 5 discriminator 2 view .LVU9
  53 000c 1978     		ldrb	r1, [r3]	@ zero_extendqisi2
  54 000e F9B1     		cbz	r1, .L12
  55              		.loc 1 34 5 discriminator 2 view .LVU10
  35:../Switch/core/yt/yt_rate.c **** 
  36:../Switch/core/yt/yt_rate.c ****     return YT_DISPATCH(unit)->rate_init(unit);
  56              		.loc 1 36 5 discriminator 2 view .LVU11
  57              		.loc 1 36 29 is_stmt 0 discriminator 2 view .LVU12
  58 0010 D3F83432 		ldr	r3, [r3, #564]
  59              		.loc 1 36 12 discriminator 2 view .LVU13
  60 0014 9847     		blx	r3
  61              	.LVL1:
  62              	.L1:
  37:../Switch/core/yt/yt_rate.c **** }
  63              		.loc 1 37 1 view .LVU14
  64 0016 08BD     		pop	{r3, pc}
  65              	.LVL2:
  66              	.L10:
  32:../Switch/core/yt/yt_rate.c ****     CMM_PARAM_CHK(NULL == YT_DISPATCH(unit), CMM_ERR_NOT_INIT);
  67              		.loc 1 32 5 is_stmt 1 discriminator 1 view .LVU15
  32:../Switch/core/yt/yt_rate.c ****     CMM_PARAM_CHK(NULL == YT_DISPATCH(unit), CMM_ERR_NOT_INIT);
  68              		.loc 1 32 5 discriminator 1 view .LVU16
  69 0018 154B     		ldr	r3, .L16+4
  70 001a 1B78     		ldrb	r3, [r3]	@ zero_extendqisi2
  71 001c 012B     		cmp	r3, #1
  72 001e 01D8     		bhi	.L13
  73              	.LVL3:
  74              	.L3:
  32:../Switch/core/yt/yt_rate.c ****     CMM_PARAM_CHK(NULL == YT_DISPATCH(unit), CMM_ERR_NOT_INIT);
  75              		.loc 1 32 5 discriminator 5 view .LVU17
  32:../Switch/core/yt/yt_rate.c ****     CMM_PARAM_CHK(NULL == YT_DISPATCH(unit), CMM_ERR_NOT_INIT);
  76              		.loc 1 32 5 discriminator 5 view .LVU18
  32:../Switch/core/yt/yt_rate.c ****     CMM_PARAM_CHK(NULL == YT_DISPATCH(unit), CMM_ERR_NOT_INIT);
  77              		.loc 1 32 5 discriminator 5 view .LVU19
  78 0020 0520     		movs	r0, #5
  79 0022 F8E7     		b	.L1
  80              	.LVL4:
  81              	.L13:
  32:../Switch/core/yt/yt_rate.c ****     CMM_PARAM_CHK(NULL == YT_DISPATCH(unit), CMM_ERR_NOT_INIT);
  82              		.loc 1 32 5 discriminator 3 view .LVU20
  83              	.LBB2:
  32:../Switch/core/yt/yt_rate.c ****     CMM_PARAM_CHK(NULL == YT_DISPATCH(unit), CMM_ERR_NOT_INIT);
  84              		.loc 1 32 5 discriminator 3 view .LVU21
  85 0024 134B     		ldr	r3, .L16+8
  86 0026 5A69     		ldr	r2, [r3, #20]
  87 0028 134B     		ldr	r3, .L16+12
  88 002a 9968     		ldr	r1, [r3, #8]
  89 002c 1348     		ldr	r0, .L16+16
  90              	.LVL5:
  32:../Switch/core/yt/yt_rate.c ****     CMM_PARAM_CHK(NULL == YT_DISPATCH(unit), CMM_ERR_NOT_INIT);
  91              		.loc 1 32 5 is_stmt 0 discriminator 3 view .LVU22
  92 002e FFF7FEFF 		bl	osal_printf
  93              	.LVL6:
  94 0032 F5E7     		b	.L3
  95              	.LVL7:
  96              	.L11:
  32:../Switch/core/yt/yt_rate.c ****     CMM_PARAM_CHK(NULL == YT_DISPATCH(unit), CMM_ERR_NOT_INIT);
  97              		.loc 1 32 5 discriminator 3 view .LVU23
  98              	.LBE2:
  33:../Switch/core/yt/yt_rate.c ****     CMM_PARAM_CHK((!(YT_DISPATCH(unit)->is_inited)), CMM_ERR_NOT_INIT);
  99              		.loc 1 33 5 is_stmt 1 discriminator 1 view .LVU24
  33:../Switch/core/yt/yt_rate.c ****     CMM_PARAM_CHK((!(YT_DISPATCH(unit)->is_inited)), CMM_ERR_NOT_INIT);
 100              		.loc 1 33 5 discriminator 1 view .LVU25
 101 0034 0E4B     		ldr	r3, .L16+4
 102 0036 1B78     		ldrb	r3, [r3]	@ zero_extendqisi2
 103 0038 012B     		cmp	r3, #1
 104 003a 01D8     		bhi	.L14
 105              	.LVL8:
 106              	.L6:
  33:../Switch/core/yt/yt_rate.c ****     CMM_PARAM_CHK((!(YT_DISPATCH(unit)->is_inited)), CMM_ERR_NOT_INIT);
 107              		.loc 1 33 5 discriminator 5 view .LVU26
  33:../Switch/core/yt/yt_rate.c ****     CMM_PARAM_CHK((!(YT_DISPATCH(unit)->is_inited)), CMM_ERR_NOT_INIT);
 108              		.loc 1 33 5 discriminator 5 view .LVU27
  33:../Switch/core/yt/yt_rate.c ****     CMM_PARAM_CHK((!(YT_DISPATCH(unit)->is_inited)), CMM_ERR_NOT_INIT);
 109              		.loc 1 33 5 discriminator 5 view .LVU28
 110 003c 0420     		movs	r0, #4
 111 003e EAE7     		b	.L1
 112              	.LVL9:
 113              	.L14:
  33:../Switch/core/yt/yt_rate.c ****     CMM_PARAM_CHK((!(YT_DISPATCH(unit)->is_inited)), CMM_ERR_NOT_INIT);
 114              		.loc 1 33 5 discriminator 3 view .LVU29
 115              	.LBB3:
  33:../Switch/core/yt/yt_rate.c ****     CMM_PARAM_CHK((!(YT_DISPATCH(unit)->is_inited)), CMM_ERR_NOT_INIT);
 116              		.loc 1 33 5 discriminator 3 view .LVU30
 117 0040 0C4B     		ldr	r3, .L16+8
 118 0042 1A69     		ldr	r2, [r3, #16]
 119 0044 0C4B     		ldr	r3, .L16+12
 120 0046 9968     		ldr	r1, [r3, #8]
 121 0048 0C48     		ldr	r0, .L16+16
 122              	.LVL10:
  33:../Switch/core/yt/yt_rate.c ****     CMM_PARAM_CHK((!(YT_DISPATCH(unit)->is_inited)), CMM_ERR_NOT_INIT);
 123              		.loc 1 33 5 is_stmt 0 discriminator 3 view .LVU31
 124 004a FFF7FEFF 		bl	osal_printf
 125              	.LVL11:
 126 004e F5E7     		b	.L6
 127              	.LVL12:
 128              	.L12:
  33:../Switch/core/yt/yt_rate.c ****     CMM_PARAM_CHK((!(YT_DISPATCH(unit)->is_inited)), CMM_ERR_NOT_INIT);
 129              		.loc 1 33 5 discriminator 3 view .LVU32
 130              	.LBE3:
  34:../Switch/core/yt/yt_rate.c **** 
 131              		.loc 1 34 5 is_stmt 1 discriminator 1 view .LVU33
  34:../Switch/core/yt/yt_rate.c **** 
 132              		.loc 1 34 5 discriminator 1 view .LVU34
 133 0050 074B     		ldr	r3, .L16+4
 134 0052 1B78     		ldrb	r3, [r3]	@ zero_extendqisi2
 135 0054 012B     		cmp	r3, #1
 136 0056 01D8     		bhi	.L15
 137              	.LVL13:
 138              	.L8:
  34:../Switch/core/yt/yt_rate.c **** 
 139              		.loc 1 34 5 discriminator 5 view .LVU35
  34:../Switch/core/yt/yt_rate.c **** 
 140              		.loc 1 34 5 discriminator 5 view .LVU36
  34:../Switch/core/yt/yt_rate.c **** 
 141              		.loc 1 34 5 discriminator 5 view .LVU37
 142 0058 0420     		movs	r0, #4
 143 005a DCE7     		b	.L1
 144              	.LVL14:
 145              	.L15:
  34:../Switch/core/yt/yt_rate.c **** 
 146              		.loc 1 34 5 discriminator 3 view .LVU38
 147              	.LBB4:
  34:../Switch/core/yt/yt_rate.c **** 
 148              		.loc 1 34 5 discriminator 3 view .LVU39
 149 005c 054B     		ldr	r3, .L16+8
 150 005e 1A69     		ldr	r2, [r3, #16]
 151 0060 054B     		ldr	r3, .L16+12
 152 0062 9968     		ldr	r1, [r3, #8]
 153 0064 0548     		ldr	r0, .L16+16
 154              	.LVL15:
  34:../Switch/core/yt/yt_rate.c **** 
 155              		.loc 1 34 5 is_stmt 0 discriminator 3 view .LVU40
 156 0066 FFF7FEFF 		bl	osal_printf
 157              	.LVL16:
 158 006a F5E7     		b	.L8
 159              	.L17:
 160              		.align	2
 161              	.L16:
 162 006c 00000000 		.word	gpfal_dispatch
 163 0070 00000000 		.word	yt_debug_level
 164 0074 00000000 		.word	_yt_errmsg
 165 0078 00000000 		.word	_yt_prompt_msg
 166 007c 00000000 		.word	.LC0
 167              	.LBE4:
 168              		.cfi_endproc
 169              	.LFE3:
 171              		.section	.text.yt_rate_igrBandwidthCtrlEnable_set,"ax",%progbits
 172              		.align	1
 173              		.global	yt_rate_igrBandwidthCtrlEnable_set
 174              		.syntax unified
 175              		.thumb
 176              		.thumb_func
 178              	yt_rate_igrBandwidthCtrlEnable_set:
 179              	.LVL17:
 180              	.LFB4:
  38:../Switch/core/yt/yt_rate.c **** 
  39:../Switch/core/yt/yt_rate.c **** /**
  40:../Switch/core/yt/yt_rate.c ****  * @internal      yt_rate_igrBandwidthCtrlEnable_set
  41:../Switch/core/yt/yt_rate.c ****  * @endinternal
  42:../Switch/core/yt/yt_rate.c ****  *
  43:../Switch/core/yt/yt_rate.c ****  * @brief         Description
  44:../Switch/core/yt/yt_rate.c ****  * @note          APPLICABLE DEVICES  -Tiger
  45:../Switch/core/yt/yt_rate.c ****  * @param[in]     unit                -unit id
  46:../Switch/core/yt/yt_rate.c ****  * @param[in]     port                -port num
  47:../Switch/core/yt/yt_rate.c ****  * @param[in]     enable              -enable or disable
  48:../Switch/core/yt/yt_rate.c ****  * @retval        CMM_ERR_OK          -on success
  49:../Switch/core/yt/yt_rate.c ****  * @retval        CMM_ERR_FAIL        -on fail
  50:../Switch/core/yt/yt_rate.c ****  */
  51:../Switch/core/yt/yt_rate.c **** yt_ret_t yt_rate_igrBandwidthCtrlEnable_set(yt_unit_t unit, yt_port_t port, yt_enable_t enable)
  52:../Switch/core/yt/yt_rate.c **** {
 181              		.loc 1 52 1 is_stmt 1 view -0
 182              		.cfi_startproc
 183              		@ args = 0, pretend = 0, frame = 0
 184              		@ frame_needed = 0, uses_anonymous_args = 0
 185              		.loc 1 52 1 is_stmt 0 view .LVU42
 186 0000 08B5     		push	{r3, lr}
 187              		.cfi_def_cfa_offset 8
 188              		.cfi_offset 3, -8
 189              		.cfi_offset 14, -4
  53:../Switch/core/yt/yt_rate.c ****     CMM_PARAM_CHK((YT_UNIT_NUM <= unit), CMM_ERR_INPUT);
 190              		.loc 1 53 5 is_stmt 1 view .LVU43
 191              		.loc 1 53 5 view .LVU44
 192 0002 C0B9     		cbnz	r0, .L32
 193 0004 8446     		mov	ip, r0
 194              		.loc 1 53 5 discriminator 2 view .LVU45
  54:../Switch/core/yt/yt_rate.c ****     CMM_PARAM_CHK(NULL == YT_DISPATCH(unit), CMM_ERR_NOT_INIT);
 195              		.loc 1 54 5 discriminator 2 view .LVU46
 196              		.loc 1 54 5 discriminator 2 view .LVU47
 197 0006 2F4B     		ldr	r3, .L41
 198 0008 53F82030 		ldr	r3, [r3, r0, lsl #2]
 199 000c 0BB3     		cbz	r3, .L33
 200              		.loc 1 54 5 discriminator 2 view .LVU48
  55:../Switch/core/yt/yt_rate.c ****     CMM_PARAM_CHK((!(YT_DISPATCH(unit)->is_inited)), CMM_ERR_NOT_INIT);
 201              		.loc 1 55 5 discriminator 2 view .LVU49
 202              		.loc 1 55 5 discriminator 2 view .LVU50
 203 000e 1878     		ldrb	r0, [r3]	@ zero_extendqisi2
 204              	.LVL18:
 205              		.loc 1 55 5 is_stmt 0 discriminator 2 view .LVU51
 206 0010 0028     		cmp	r0, #0
 207 0012 2CD0     		beq	.L34
 208              		.loc 1 55 5 is_stmt 1 discriminator 2 view .LVU52
  56:../Switch/core/yt/yt_rate.c ****     CMM_PARAM_CHK((!(CMM_PORT_VALID(unit, port))), CMM_ERR_PORT);
 209              		.loc 1 56 5 discriminator 2 view .LVU53
 210              		.loc 1 56 5 discriminator 2 view .LVU54
 211 0014 2C48     		ldr	r0, .L41+4
 212 0016 0078     		ldrb	r0, [r0]	@ zero_extendqisi2
 213 0018 0028     		cmp	r0, #0
 214 001a 36D0     		beq	.L26
 215 001c 2B48     		ldr	r0, .L41+8
 216 001e 50F82C00 		ldr	r0, [r0, ip, lsl #2]
 217 0022 007D     		ldrb	r0, [r0, #20]	@ zero_extendqisi2
 218 0024 8842     		cmp	r0, r1
 219 0026 30D9     		bls	.L26
 220              		.loc 1 56 5 discriminator 4 view .LVU55
  57:../Switch/core/yt/yt_rate.c ****     CMM_PARAM_CHK((YT_ENABLE < enable || YT_DISABLE > enable), CMM_ERR_INPUT);
 221              		.loc 1 57 5 discriminator 4 view .LVU56
 222              		.loc 1 57 5 discriminator 4 view .LVU57
 223 0028 012A     		cmp	r2, #1
 224 002a 3CD8     		bhi	.L35
 225              		.loc 1 57 5 discriminator 2 view .LVU58
  58:../Switch/core/yt/yt_rate.c **** 
  59:../Switch/core/yt/yt_rate.c ****     return YT_DISPATCH(unit)->rate_igrBandwidthCtrlEnable_set(unit, port, enable);
 226              		.loc 1 59 5 discriminator 2 view .LVU59
 227              		.loc 1 59 29 is_stmt 0 discriminator 2 view .LVU60
 228 002c D3F83832 		ldr	r3, [r3, #568]
 229              		.loc 1 59 12 discriminator 2 view .LVU61
 230 0030 6046     		mov	r0, ip
 231 0032 9847     		blx	r3
 232              	.LVL19:
 233              	.L18:
  60:../Switch/core/yt/yt_rate.c **** }
 234              		.loc 1 60 1 view .LVU62
 235 0034 08BD     		pop	{r3, pc}
 236              	.LVL20:
 237              	.L32:
  53:../Switch/core/yt/yt_rate.c ****     CMM_PARAM_CHK(NULL == YT_DISPATCH(unit), CMM_ERR_NOT_INIT);
 238              		.loc 1 53 5 is_stmt 1 discriminator 1 view .LVU63
  53:../Switch/core/yt/yt_rate.c ****     CMM_PARAM_CHK(NULL == YT_DISPATCH(unit), CMM_ERR_NOT_INIT);
 239              		.loc 1 53 5 discriminator 1 view .LVU64
 240 0036 264B     		ldr	r3, .L41+12
 241 0038 1B78     		ldrb	r3, [r3]	@ zero_extendqisi2
 242 003a 012B     		cmp	r3, #1
 243 003c 01D8     		bhi	.L36
 244              	.LVL21:
 245              	.L20:
  53:../Switch/core/yt/yt_rate.c ****     CMM_PARAM_CHK(NULL == YT_DISPATCH(unit), CMM_ERR_NOT_INIT);
 246              		.loc 1 53 5 discriminator 5 view .LVU65
  53:../Switch/core/yt/yt_rate.c ****     CMM_PARAM_CHK(NULL == YT_DISPATCH(unit), CMM_ERR_NOT_INIT);
 247              		.loc 1 53 5 discriminator 5 view .LVU66
  53:../Switch/core/yt/yt_rate.c ****     CMM_PARAM_CHK(NULL == YT_DISPATCH(unit), CMM_ERR_NOT_INIT);
 248              		.loc 1 53 5 discriminator 5 view .LVU67
 249 003e 0520     		movs	r0, #5
 250 0040 F8E7     		b	.L18
 251              	.LVL22:
 252              	.L36:
  53:../Switch/core/yt/yt_rate.c ****     CMM_PARAM_CHK(NULL == YT_DISPATCH(unit), CMM_ERR_NOT_INIT);
 253              		.loc 1 53 5 discriminator 3 view .LVU68
 254              	.LBB5:
  53:../Switch/core/yt/yt_rate.c ****     CMM_PARAM_CHK(NULL == YT_DISPATCH(unit), CMM_ERR_NOT_INIT);
 255              		.loc 1 53 5 discriminator 3 view .LVU69
 256 0042 244B     		ldr	r3, .L41+16
 257 0044 5A69     		ldr	r2, [r3, #20]
 258              	.LVL23:
  53:../Switch/core/yt/yt_rate.c ****     CMM_PARAM_CHK(NULL == YT_DISPATCH(unit), CMM_ERR_NOT_INIT);
 259              		.loc 1 53 5 is_stmt 0 discriminator 3 view .LVU70
 260 0046 244B     		ldr	r3, .L41+20
 261 0048 9968     		ldr	r1, [r3, #8]
 262              	.LVL24:
  53:../Switch/core/yt/yt_rate.c ****     CMM_PARAM_CHK(NULL == YT_DISPATCH(unit), CMM_ERR_NOT_INIT);
 263              		.loc 1 53 5 discriminator 3 view .LVU71
 264 004a 2448     		ldr	r0, .L41+24
 265              	.LVL25:
  53:../Switch/core/yt/yt_rate.c ****     CMM_PARAM_CHK(NULL == YT_DISPATCH(unit), CMM_ERR_NOT_INIT);
 266              		.loc 1 53 5 discriminator 3 view .LVU72
 267 004c FFF7FEFF 		bl	osal_printf
 268              	.LVL26:
 269 0050 F5E7     		b	.L20
 270              	.LVL27:
 271              	.L33:
  53:../Switch/core/yt/yt_rate.c ****     CMM_PARAM_CHK(NULL == YT_DISPATCH(unit), CMM_ERR_NOT_INIT);
 272              		.loc 1 53 5 discriminator 3 view .LVU73
 273              	.LBE5:
  54:../Switch/core/yt/yt_rate.c ****     CMM_PARAM_CHK((!(YT_DISPATCH(unit)->is_inited)), CMM_ERR_NOT_INIT);
 274              		.loc 1 54 5 is_stmt 1 discriminator 1 view .LVU74
  54:../Switch/core/yt/yt_rate.c ****     CMM_PARAM_CHK((!(YT_DISPATCH(unit)->is_inited)), CMM_ERR_NOT_INIT);
 275              		.loc 1 54 5 discriminator 1 view .LVU75
 276 0052 1F4B     		ldr	r3, .L41+12
 277 0054 1B78     		ldrb	r3, [r3]	@ zero_extendqisi2
 278 0056 012B     		cmp	r3, #1
 279 0058 01D8     		bhi	.L37
 280              	.LVL28:
 281              	.L23:
  54:../Switch/core/yt/yt_rate.c ****     CMM_PARAM_CHK((!(YT_DISPATCH(unit)->is_inited)), CMM_ERR_NOT_INIT);
 282              		.loc 1 54 5 discriminator 5 view .LVU76
  54:../Switch/core/yt/yt_rate.c ****     CMM_PARAM_CHK((!(YT_DISPATCH(unit)->is_inited)), CMM_ERR_NOT_INIT);
 283              		.loc 1 54 5 discriminator 5 view .LVU77
  54:../Switch/core/yt/yt_rate.c ****     CMM_PARAM_CHK((!(YT_DISPATCH(unit)->is_inited)), CMM_ERR_NOT_INIT);
 284              		.loc 1 54 5 discriminator 5 view .LVU78
 285 005a 0420     		movs	r0, #4
 286 005c EAE7     		b	.L18
 287              	.LVL29:
 288              	.L37:
  54:../Switch/core/yt/yt_rate.c ****     CMM_PARAM_CHK((!(YT_DISPATCH(unit)->is_inited)), CMM_ERR_NOT_INIT);
 289              		.loc 1 54 5 discriminator 3 view .LVU79
 290              	.LBB6:
  54:../Switch/core/yt/yt_rate.c ****     CMM_PARAM_CHK((!(YT_DISPATCH(unit)->is_inited)), CMM_ERR_NOT_INIT);
 291              		.loc 1 54 5 discriminator 3 view .LVU80
 292 005e 1D4B     		ldr	r3, .L41+16
 293 0060 1A69     		ldr	r2, [r3, #16]
 294              	.LVL30:
  54:../Switch/core/yt/yt_rate.c ****     CMM_PARAM_CHK((!(YT_DISPATCH(unit)->is_inited)), CMM_ERR_NOT_INIT);
 295              		.loc 1 54 5 is_stmt 0 discriminator 3 view .LVU81
 296 0062 1D4B     		ldr	r3, .L41+20
 297 0064 9968     		ldr	r1, [r3, #8]
 298              	.LVL31:
  54:../Switch/core/yt/yt_rate.c ****     CMM_PARAM_CHK((!(YT_DISPATCH(unit)->is_inited)), CMM_ERR_NOT_INIT);
 299              		.loc 1 54 5 discriminator 3 view .LVU82
 300 0066 1D48     		ldr	r0, .L41+24
 301              	.LVL32:
  54:../Switch/core/yt/yt_rate.c ****     CMM_PARAM_CHK((!(YT_DISPATCH(unit)->is_inited)), CMM_ERR_NOT_INIT);
 302              		.loc 1 54 5 discriminator 3 view .LVU83
 303 0068 FFF7FEFF 		bl	osal_printf
 304              	.LVL33:
 305 006c F5E7     		b	.L23
 306              	.LVL34:
 307              	.L34:
  54:../Switch/core/yt/yt_rate.c ****     CMM_PARAM_CHK((!(YT_DISPATCH(unit)->is_inited)), CMM_ERR_NOT_INIT);
 308              		.loc 1 54 5 discriminator 3 view .LVU84
 309              	.LBE6:
  55:../Switch/core/yt/yt_rate.c ****     CMM_PARAM_CHK((!(CMM_PORT_VALID(unit, port))), CMM_ERR_PORT);
 310              		.loc 1 55 5 is_stmt 1 discriminator 1 view .LVU85
  55:../Switch/core/yt/yt_rate.c ****     CMM_PARAM_CHK((!(CMM_PORT_VALID(unit, port))), CMM_ERR_PORT);
 311              		.loc 1 55 5 discriminator 1 view .LVU86
 312 006e 184B     		ldr	r3, .L41+12
 313 0070 1B78     		ldrb	r3, [r3]	@ zero_extendqisi2
 314 0072 012B     		cmp	r3, #1
 315 0074 01D8     		bhi	.L38
 316              	.LVL35:
 317              	.L25:
  55:../Switch/core/yt/yt_rate.c ****     CMM_PARAM_CHK((!(CMM_PORT_VALID(unit, port))), CMM_ERR_PORT);
 318              		.loc 1 55 5 discriminator 5 view .LVU87
  55:../Switch/core/yt/yt_rate.c ****     CMM_PARAM_CHK((!(CMM_PORT_VALID(unit, port))), CMM_ERR_PORT);
 319              		.loc 1 55 5 discriminator 5 view .LVU88
  55:../Switch/core/yt/yt_rate.c ****     CMM_PARAM_CHK((!(CMM_PORT_VALID(unit, port))), CMM_ERR_PORT);
 320              		.loc 1 55 5 discriminator 5 view .LVU89
 321 0076 0420     		movs	r0, #4
 322 0078 DCE7     		b	.L18
 323              	.LVL36:
 324              	.L38:
  55:../Switch/core/yt/yt_rate.c ****     CMM_PARAM_CHK((!(CMM_PORT_VALID(unit, port))), CMM_ERR_PORT);
 325              		.loc 1 55 5 discriminator 3 view .LVU90
 326              	.LBB7:
  55:../Switch/core/yt/yt_rate.c ****     CMM_PARAM_CHK((!(CMM_PORT_VALID(unit, port))), CMM_ERR_PORT);
 327              		.loc 1 55 5 discriminator 3 view .LVU91
 328 007a 164B     		ldr	r3, .L41+16
 329 007c 1A69     		ldr	r2, [r3, #16]
 330              	.LVL37:
  55:../Switch/core/yt/yt_rate.c ****     CMM_PARAM_CHK((!(CMM_PORT_VALID(unit, port))), CMM_ERR_PORT);
 331              		.loc 1 55 5 is_stmt 0 discriminator 3 view .LVU92
 332 007e 164B     		ldr	r3, .L41+20
 333 0080 9968     		ldr	r1, [r3, #8]
 334              	.LVL38:
  55:../Switch/core/yt/yt_rate.c ****     CMM_PARAM_CHK((!(CMM_PORT_VALID(unit, port))), CMM_ERR_PORT);
 335              		.loc 1 55 5 discriminator 3 view .LVU93
 336 0082 1648     		ldr	r0, .L41+24
 337 0084 FFF7FEFF 		bl	osal_printf
 338              	.LVL39:
 339 0088 F5E7     		b	.L25
 340              	.LVL40:
 341              	.L26:
  55:../Switch/core/yt/yt_rate.c ****     CMM_PARAM_CHK((!(CMM_PORT_VALID(unit, port))), CMM_ERR_PORT);
 342              		.loc 1 55 5 discriminator 3 view .LVU94
 343              	.LBE7:
  56:../Switch/core/yt/yt_rate.c ****     CMM_PARAM_CHK((YT_ENABLE < enable || YT_DISABLE > enable), CMM_ERR_INPUT);
 344              		.loc 1 56 5 is_stmt 1 discriminator 3 view .LVU95
  56:../Switch/core/yt/yt_rate.c ****     CMM_PARAM_CHK((YT_ENABLE < enable || YT_DISABLE > enable), CMM_ERR_INPUT);
 345              		.loc 1 56 5 discriminator 3 view .LVU96
 346 008a 114B     		ldr	r3, .L41+12
 347 008c 1B78     		ldrb	r3, [r3]	@ zero_extendqisi2
 348 008e 012B     		cmp	r3, #1
 349 0090 01D8     		bhi	.L39
 350              	.LVL41:
 351              	.L28:
  56:../Switch/core/yt/yt_rate.c ****     CMM_PARAM_CHK((YT_ENABLE < enable || YT_DISABLE > enable), CMM_ERR_INPUT);
 352              		.loc 1 56 5 discriminator 7 view .LVU97
  56:../Switch/core/yt/yt_rate.c ****     CMM_PARAM_CHK((YT_ENABLE < enable || YT_DISABLE > enable), CMM_ERR_INPUT);
 353              		.loc 1 56 5 discriminator 7 view .LVU98
  56:../Switch/core/yt/yt_rate.c ****     CMM_PARAM_CHK((YT_ENABLE < enable || YT_DISABLE > enable), CMM_ERR_INPUT);
 354              		.loc 1 56 5 discriminator 7 view .LVU99
 355 0092 0E20     		movs	r0, #14
 356 0094 CEE7     		b	.L18
 357              	.LVL42:
 358              	.L39:
  56:../Switch/core/yt/yt_rate.c ****     CMM_PARAM_CHK((YT_ENABLE < enable || YT_DISABLE > enable), CMM_ERR_INPUT);
 359              		.loc 1 56 5 discriminator 5 view .LVU100
 360              	.LBB8:
  56:../Switch/core/yt/yt_rate.c ****     CMM_PARAM_CHK((YT_ENABLE < enable || YT_DISABLE > enable), CMM_ERR_INPUT);
 361              		.loc 1 56 5 discriminator 5 view .LVU101
 362 0096 0F4B     		ldr	r3, .L41+16
 363 0098 9A6B     		ldr	r2, [r3, #56]
 364              	.LVL43:
  56:../Switch/core/yt/yt_rate.c ****     CMM_PARAM_CHK((YT_ENABLE < enable || YT_DISABLE > enable), CMM_ERR_INPUT);
 365              		.loc 1 56 5 is_stmt 0 discriminator 5 view .LVU102
 366 009a 0F4B     		ldr	r3, .L41+20
 367 009c 9968     		ldr	r1, [r3, #8]
 368              	.LVL44:
  56:../Switch/core/yt/yt_rate.c ****     CMM_PARAM_CHK((YT_ENABLE < enable || YT_DISABLE > enable), CMM_ERR_INPUT);
 369              		.loc 1 56 5 discriminator 5 view .LVU103
 370 009e 0F48     		ldr	r0, .L41+24
 371 00a0 FFF7FEFF 		bl	osal_printf
 372              	.LVL45:
 373 00a4 F5E7     		b	.L28
 374              	.LVL46:
 375              	.L35:
  56:../Switch/core/yt/yt_rate.c ****     CMM_PARAM_CHK((YT_ENABLE < enable || YT_DISABLE > enable), CMM_ERR_INPUT);
 376              		.loc 1 56 5 discriminator 5 view .LVU104
 377              	.LBE8:
  57:../Switch/core/yt/yt_rate.c **** 
 378              		.loc 1 57 5 is_stmt 1 discriminator 1 view .LVU105
  57:../Switch/core/yt/yt_rate.c **** 
 379              		.loc 1 57 5 discriminator 1 view .LVU106
 380 00a6 0A4B     		ldr	r3, .L41+12
 381 00a8 1B78     		ldrb	r3, [r3]	@ zero_extendqisi2
 382 00aa 012B     		cmp	r3, #1
 383 00ac 01D8     		bhi	.L40
 384              	.LVL47:
 385              	.L30:
  57:../Switch/core/yt/yt_rate.c **** 
 386              		.loc 1 57 5 discriminator 5 view .LVU107
  57:../Switch/core/yt/yt_rate.c **** 
 387              		.loc 1 57 5 discriminator 5 view .LVU108
  57:../Switch/core/yt/yt_rate.c **** 
 388              		.loc 1 57 5 discriminator 5 view .LVU109
 389 00ae 0520     		movs	r0, #5
 390 00b0 C0E7     		b	.L18
 391              	.LVL48:
 392              	.L40:
  57:../Switch/core/yt/yt_rate.c **** 
 393              		.loc 1 57 5 discriminator 3 view .LVU110
 394              	.LBB9:
  57:../Switch/core/yt/yt_rate.c **** 
 395              		.loc 1 57 5 discriminator 3 view .LVU111
 396 00b2 084B     		ldr	r3, .L41+16
 397 00b4 5A69     		ldr	r2, [r3, #20]
 398              	.LVL49:
  57:../Switch/core/yt/yt_rate.c **** 
 399              		.loc 1 57 5 is_stmt 0 discriminator 3 view .LVU112
 400 00b6 084B     		ldr	r3, .L41+20
 401 00b8 9968     		ldr	r1, [r3, #8]
 402              	.LVL50:
  57:../Switch/core/yt/yt_rate.c **** 
 403              		.loc 1 57 5 discriminator 3 view .LVU113
 404 00ba 0848     		ldr	r0, .L41+24
 405 00bc FFF7FEFF 		bl	osal_printf
 406              	.LVL51:
 407 00c0 F5E7     		b	.L30
 408              	.L42:
 409 00c2 00BF     		.align	2
 410              	.L41:
 411 00c4 00000000 		.word	gpfal_dispatch
 412 00c8 00000000 		.word	gcal_inited
 413 00cc 00000000 		.word	gpSwitchUnit
 414 00d0 00000000 		.word	yt_debug_level
 415 00d4 00000000 		.word	_yt_errmsg
 416 00d8 00000000 		.word	_yt_prompt_msg
 417 00dc 00000000 		.word	.LC0
 418              	.LBE9:
 419              		.cfi_endproc
 420              	.LFE4:
 422              		.section	.text.yt_rate_igrBandwidthCtrlEnable_get,"ax",%progbits
 423              		.align	1
 424              		.global	yt_rate_igrBandwidthCtrlEnable_get
 425              		.syntax unified
 426              		.thumb
 427              		.thumb_func
 429              	yt_rate_igrBandwidthCtrlEnable_get:
 430              	.LVL52:
 431              	.LFB5:
  61:../Switch/core/yt/yt_rate.c **** 
  62:../Switch/core/yt/yt_rate.c **** /**
  63:../Switch/core/yt/yt_rate.c ****  * @internal      yt_rate_igrBandwidthCtrlEnable_get
  64:../Switch/core/yt/yt_rate.c ****  * @endinternal
  65:../Switch/core/yt/yt_rate.c ****  *
  66:../Switch/core/yt/yt_rate.c ****  * @brief         Description
  67:../Switch/core/yt/yt_rate.c ****  * @note          APPLICABLE DEVICES  -Tiger
  68:../Switch/core/yt/yt_rate.c ****  * @param[in]     unit                -unit id
  69:../Switch/core/yt/yt_rate.c ****  * @param[in]     port                -port num
  70:../Switch/core/yt/yt_rate.c ****  * @param[out]    pEnable             -enable or disable
  71:../Switch/core/yt/yt_rate.c ****  * @retval        CMM_ERR_OK          -on success
  72:../Switch/core/yt/yt_rate.c ****  * @retval        CMM_ERR_FAIL        -on fail
  73:../Switch/core/yt/yt_rate.c ****  */
  74:../Switch/core/yt/yt_rate.c **** yt_ret_t yt_rate_igrBandwidthCtrlEnable_get(yt_unit_t unit, yt_port_t port, yt_enable_t *pEnable)
  75:../Switch/core/yt/yt_rate.c **** {
 432              		.loc 1 75 1 is_stmt 1 view -0
 433              		.cfi_startproc
 434              		@ args = 0, pretend = 0, frame = 0
 435              		@ frame_needed = 0, uses_anonymous_args = 0
 436              		.loc 1 75 1 is_stmt 0 view .LVU115
 437 0000 08B5     		push	{r3, lr}
 438              		.cfi_def_cfa_offset 8
 439              		.cfi_offset 3, -8
 440              		.cfi_offset 14, -4
  76:../Switch/core/yt/yt_rate.c ****     CMM_PARAM_CHK((YT_UNIT_NUM <= unit), CMM_ERR_INPUT);
 441              		.loc 1 76 5 is_stmt 1 view .LVU116
 442              		.loc 1 76 5 view .LVU117
 443 0002 C0B9     		cbnz	r0, .L57
 444 0004 8446     		mov	ip, r0
 445              		.loc 1 76 5 discriminator 2 view .LVU118
  77:../Switch/core/yt/yt_rate.c ****     CMM_PARAM_CHK(NULL == YT_DISPATCH(unit), CMM_ERR_NOT_INIT);
 446              		.loc 1 77 5 discriminator 2 view .LVU119
 447              		.loc 1 77 5 discriminator 2 view .LVU120
 448 0006 2F4B     		ldr	r3, .L66
 449 0008 53F82030 		ldr	r3, [r3, r0, lsl #2]
 450 000c 0BB3     		cbz	r3, .L58
 451              		.loc 1 77 5 discriminator 2 view .LVU121
  78:../Switch/core/yt/yt_rate.c ****     CMM_PARAM_CHK((!(YT_DISPATCH(unit)->is_inited)), CMM_ERR_NOT_INIT);
 452              		.loc 1 78 5 discriminator 2 view .LVU122
 453              		.loc 1 78 5 discriminator 2 view .LVU123
 454 000e 1878     		ldrb	r0, [r3]	@ zero_extendqisi2
 455              	.LVL53:
 456              		.loc 1 78 5 is_stmt 0 discriminator 2 view .LVU124
 457 0010 0028     		cmp	r0, #0
 458 0012 2CD0     		beq	.L59
 459              		.loc 1 78 5 is_stmt 1 discriminator 2 view .LVU125
  79:../Switch/core/yt/yt_rate.c ****     CMM_PARAM_CHK((!(CMM_PORT_VALID(unit, port))), CMM_ERR_PORT);
 460              		.loc 1 79 5 discriminator 2 view .LVU126
 461              		.loc 1 79 5 discriminator 2 view .LVU127
 462 0014 2C48     		ldr	r0, .L66+4
 463 0016 0078     		ldrb	r0, [r0]	@ zero_extendqisi2
 464 0018 0028     		cmp	r0, #0
 465 001a 36D0     		beq	.L51
 466 001c 2B48     		ldr	r0, .L66+8
 467 001e 50F82C00 		ldr	r0, [r0, ip, lsl #2]
 468 0022 007D     		ldrb	r0, [r0, #20]	@ zero_extendqisi2
 469 0024 8842     		cmp	r0, r1
 470 0026 30D9     		bls	.L51
 471              		.loc 1 79 5 discriminator 4 view .LVU128
  80:../Switch/core/yt/yt_rate.c ****     CMM_PARAM_CHK((NULL == pEnable), CMM_ERR_NULL_POINT);
 472              		.loc 1 80 5 discriminator 4 view .LVU129
 473              		.loc 1 80 5 discriminator 4 view .LVU130
 474 0028 002A     		cmp	r2, #0
 475 002a 3CD0     		beq	.L60
 476              		.loc 1 80 5 discriminator 2 view .LVU131
  81:../Switch/core/yt/yt_rate.c **** 
  82:../Switch/core/yt/yt_rate.c ****     return YT_DISPATCH(unit)->rate_igrBandwidthCtrlEnable_get(unit, port, pEnable);
 477              		.loc 1 82 5 discriminator 2 view .LVU132
 478              		.loc 1 82 29 is_stmt 0 discriminator 2 view .LVU133
 479 002c D3F83C32 		ldr	r3, [r3, #572]
 480              		.loc 1 82 12 discriminator 2 view .LVU134
 481 0030 6046     		mov	r0, ip
 482 0032 9847     		blx	r3
 483              	.LVL54:
 484              	.L43:
  83:../Switch/core/yt/yt_rate.c **** }
 485              		.loc 1 83 1 view .LVU135
 486 0034 08BD     		pop	{r3, pc}
 487              	.LVL55:
 488              	.L57:
  76:../Switch/core/yt/yt_rate.c ****     CMM_PARAM_CHK(NULL == YT_DISPATCH(unit), CMM_ERR_NOT_INIT);
 489              		.loc 1 76 5 is_stmt 1 discriminator 1 view .LVU136
  76:../Switch/core/yt/yt_rate.c ****     CMM_PARAM_CHK(NULL == YT_DISPATCH(unit), CMM_ERR_NOT_INIT);
 490              		.loc 1 76 5 discriminator 1 view .LVU137
 491 0036 264B     		ldr	r3, .L66+12
 492 0038 1B78     		ldrb	r3, [r3]	@ zero_extendqisi2
 493 003a 012B     		cmp	r3, #1
 494 003c 01D8     		bhi	.L61
 495              	.LVL56:
 496              	.L45:
  76:../Switch/core/yt/yt_rate.c ****     CMM_PARAM_CHK(NULL == YT_DISPATCH(unit), CMM_ERR_NOT_INIT);
 497              		.loc 1 76 5 discriminator 5 view .LVU138
  76:../Switch/core/yt/yt_rate.c ****     CMM_PARAM_CHK(NULL == YT_DISPATCH(unit), CMM_ERR_NOT_INIT);
 498              		.loc 1 76 5 discriminator 5 view .LVU139
  76:../Switch/core/yt/yt_rate.c ****     CMM_PARAM_CHK(NULL == YT_DISPATCH(unit), CMM_ERR_NOT_INIT);
 499              		.loc 1 76 5 discriminator 5 view .LVU140
 500 003e 0520     		movs	r0, #5
 501 0040 F8E7     		b	.L43
 502              	.LVL57:
 503              	.L61:
  76:../Switch/core/yt/yt_rate.c ****     CMM_PARAM_CHK(NULL == YT_DISPATCH(unit), CMM_ERR_NOT_INIT);
 504              		.loc 1 76 5 discriminator 3 view .LVU141
 505              	.LBB10:
  76:../Switch/core/yt/yt_rate.c ****     CMM_PARAM_CHK(NULL == YT_DISPATCH(unit), CMM_ERR_NOT_INIT);
 506              		.loc 1 76 5 discriminator 3 view .LVU142
 507 0042 244B     		ldr	r3, .L66+16
 508 0044 5A69     		ldr	r2, [r3, #20]
 509              	.LVL58:
  76:../Switch/core/yt/yt_rate.c ****     CMM_PARAM_CHK(NULL == YT_DISPATCH(unit), CMM_ERR_NOT_INIT);
 510              		.loc 1 76 5 is_stmt 0 discriminator 3 view .LVU143
 511 0046 244B     		ldr	r3, .L66+20
 512 0048 9968     		ldr	r1, [r3, #8]
 513              	.LVL59:
  76:../Switch/core/yt/yt_rate.c ****     CMM_PARAM_CHK(NULL == YT_DISPATCH(unit), CMM_ERR_NOT_INIT);
 514              		.loc 1 76 5 discriminator 3 view .LVU144
 515 004a 2448     		ldr	r0, .L66+24
 516              	.LVL60:
  76:../Switch/core/yt/yt_rate.c ****     CMM_PARAM_CHK(NULL == YT_DISPATCH(unit), CMM_ERR_NOT_INIT);
 517              		.loc 1 76 5 discriminator 3 view .LVU145
 518 004c FFF7FEFF 		bl	osal_printf
 519              	.LVL61:
 520 0050 F5E7     		b	.L45
 521              	.LVL62:
 522              	.L58:
  76:../Switch/core/yt/yt_rate.c ****     CMM_PARAM_CHK(NULL == YT_DISPATCH(unit), CMM_ERR_NOT_INIT);
 523              		.loc 1 76 5 discriminator 3 view .LVU146
 524              	.LBE10:
  77:../Switch/core/yt/yt_rate.c ****     CMM_PARAM_CHK((!(YT_DISPATCH(unit)->is_inited)), CMM_ERR_NOT_INIT);
 525              		.loc 1 77 5 is_stmt 1 discriminator 1 view .LVU147
  77:../Switch/core/yt/yt_rate.c ****     CMM_PARAM_CHK((!(YT_DISPATCH(unit)->is_inited)), CMM_ERR_NOT_INIT);
 526              		.loc 1 77 5 discriminator 1 view .LVU148
 527 0052 1F4B     		ldr	r3, .L66+12
 528 0054 1B78     		ldrb	r3, [r3]	@ zero_extendqisi2
 529 0056 012B     		cmp	r3, #1
 530 0058 01D8     		bhi	.L62
 531              	.LVL63:
 532              	.L48:
  77:../Switch/core/yt/yt_rate.c ****     CMM_PARAM_CHK((!(YT_DISPATCH(unit)->is_inited)), CMM_ERR_NOT_INIT);
 533              		.loc 1 77 5 discriminator 5 view .LVU149
  77:../Switch/core/yt/yt_rate.c ****     CMM_PARAM_CHK((!(YT_DISPATCH(unit)->is_inited)), CMM_ERR_NOT_INIT);
 534              		.loc 1 77 5 discriminator 5 view .LVU150
  77:../Switch/core/yt/yt_rate.c ****     CMM_PARAM_CHK((!(YT_DISPATCH(unit)->is_inited)), CMM_ERR_NOT_INIT);
 535              		.loc 1 77 5 discriminator 5 view .LVU151
 536 005a 0420     		movs	r0, #4
 537 005c EAE7     		b	.L43
 538              	.LVL64:
 539              	.L62:
  77:../Switch/core/yt/yt_rate.c ****     CMM_PARAM_CHK((!(YT_DISPATCH(unit)->is_inited)), CMM_ERR_NOT_INIT);
 540              		.loc 1 77 5 discriminator 3 view .LVU152
 541              	.LBB11:
  77:../Switch/core/yt/yt_rate.c ****     CMM_PARAM_CHK((!(YT_DISPATCH(unit)->is_inited)), CMM_ERR_NOT_INIT);
 542              		.loc 1 77 5 discriminator 3 view .LVU153
 543 005e 1D4B     		ldr	r3, .L66+16
 544 0060 1A69     		ldr	r2, [r3, #16]
 545              	.LVL65:
  77:../Switch/core/yt/yt_rate.c ****     CMM_PARAM_CHK((!(YT_DISPATCH(unit)->is_inited)), CMM_ERR_NOT_INIT);
 546              		.loc 1 77 5 is_stmt 0 discriminator 3 view .LVU154
 547 0062 1D4B     		ldr	r3, .L66+20
 548 0064 9968     		ldr	r1, [r3, #8]
 549              	.LVL66:
  77:../Switch/core/yt/yt_rate.c ****     CMM_PARAM_CHK((!(YT_DISPATCH(unit)->is_inited)), CMM_ERR_NOT_INIT);
 550              		.loc 1 77 5 discriminator 3 view .LVU155
 551 0066 1D48     		ldr	r0, .L66+24
 552              	.LVL67:
  77:../Switch/core/yt/yt_rate.c ****     CMM_PARAM_CHK((!(YT_DISPATCH(unit)->is_inited)), CMM_ERR_NOT_INIT);
 553              		.loc 1 77 5 discriminator 3 view .LVU156
 554 0068 FFF7FEFF 		bl	osal_printf
 555              	.LVL68:
 556 006c F5E7     		b	.L48
 557              	.LVL69:
 558              	.L59:
  77:../Switch/core/yt/yt_rate.c ****     CMM_PARAM_CHK((!(YT_DISPATCH(unit)->is_inited)), CMM_ERR_NOT_INIT);
 559              		.loc 1 77 5 discriminator 3 view .LVU157
 560              	.LBE11:
  78:../Switch/core/yt/yt_rate.c ****     CMM_PARAM_CHK((!(CMM_PORT_VALID(unit, port))), CMM_ERR_PORT);
 561              		.loc 1 78 5 is_stmt 1 discriminator 1 view .LVU158
  78:../Switch/core/yt/yt_rate.c ****     CMM_PARAM_CHK((!(CMM_PORT_VALID(unit, port))), CMM_ERR_PORT);
 562              		.loc 1 78 5 discriminator 1 view .LVU159
 563 006e 184B     		ldr	r3, .L66+12
 564 0070 1B78     		ldrb	r3, [r3]	@ zero_extendqisi2
 565 0072 012B     		cmp	r3, #1
 566 0074 01D8     		bhi	.L63
 567              	.LVL70:
 568              	.L50:
  78:../Switch/core/yt/yt_rate.c ****     CMM_PARAM_CHK((!(CMM_PORT_VALID(unit, port))), CMM_ERR_PORT);
 569              		.loc 1 78 5 discriminator 5 view .LVU160
  78:../Switch/core/yt/yt_rate.c ****     CMM_PARAM_CHK((!(CMM_PORT_VALID(unit, port))), CMM_ERR_PORT);
 570              		.loc 1 78 5 discriminator 5 view .LVU161
  78:../Switch/core/yt/yt_rate.c ****     CMM_PARAM_CHK((!(CMM_PORT_VALID(unit, port))), CMM_ERR_PORT);
 571              		.loc 1 78 5 discriminator 5 view .LVU162
 572 0076 0420     		movs	r0, #4
 573 0078 DCE7     		b	.L43
 574              	.LVL71:
 575              	.L63:
  78:../Switch/core/yt/yt_rate.c ****     CMM_PARAM_CHK((!(CMM_PORT_VALID(unit, port))), CMM_ERR_PORT);
 576              		.loc 1 78 5 discriminator 3 view .LVU163
 577              	.LBB12:
  78:../Switch/core/yt/yt_rate.c ****     CMM_PARAM_CHK((!(CMM_PORT_VALID(unit, port))), CMM_ERR_PORT);
 578              		.loc 1 78 5 discriminator 3 view .LVU164
 579 007a 164B     		ldr	r3, .L66+16
 580 007c 1A69     		ldr	r2, [r3, #16]
 581              	.LVL72:
  78:../Switch/core/yt/yt_rate.c ****     CMM_PARAM_CHK((!(CMM_PORT_VALID(unit, port))), CMM_ERR_PORT);
 582              		.loc 1 78 5 is_stmt 0 discriminator 3 view .LVU165
 583 007e 164B     		ldr	r3, .L66+20
 584 0080 9968     		ldr	r1, [r3, #8]
 585              	.LVL73:
  78:../Switch/core/yt/yt_rate.c ****     CMM_PARAM_CHK((!(CMM_PORT_VALID(unit, port))), CMM_ERR_PORT);
 586              		.loc 1 78 5 discriminator 3 view .LVU166
 587 0082 1648     		ldr	r0, .L66+24
 588 0084 FFF7FEFF 		bl	osal_printf
 589              	.LVL74:
 590 0088 F5E7     		b	.L50
 591              	.LVL75:
 592              	.L51:
  78:../Switch/core/yt/yt_rate.c ****     CMM_PARAM_CHK((!(CMM_PORT_VALID(unit, port))), CMM_ERR_PORT);
 593              		.loc 1 78 5 discriminator 3 view .LVU167
 594              	.LBE12:
  79:../Switch/core/yt/yt_rate.c ****     CMM_PARAM_CHK((NULL == pEnable), CMM_ERR_NULL_POINT);
 595              		.loc 1 79 5 is_stmt 1 discriminator 3 view .LVU168
  79:../Switch/core/yt/yt_rate.c ****     CMM_PARAM_CHK((NULL == pEnable), CMM_ERR_NULL_POINT);
 596              		.loc 1 79 5 discriminator 3 view .LVU169
 597 008a 114B     		ldr	r3, .L66+12
 598 008c 1B78     		ldrb	r3, [r3]	@ zero_extendqisi2
 599 008e 012B     		cmp	r3, #1
 600 0090 01D8     		bhi	.L64
 601              	.LVL76:
 602              	.L53:
  79:../Switch/core/yt/yt_rate.c ****     CMM_PARAM_CHK((NULL == pEnable), CMM_ERR_NULL_POINT);
 603              		.loc 1 79 5 discriminator 7 view .LVU170
  79:../Switch/core/yt/yt_rate.c ****     CMM_PARAM_CHK((NULL == pEnable), CMM_ERR_NULL_POINT);
 604              		.loc 1 79 5 discriminator 7 view .LVU171
  79:../Switch/core/yt/yt_rate.c ****     CMM_PARAM_CHK((NULL == pEnable), CMM_ERR_NULL_POINT);
 605              		.loc 1 79 5 discriminator 7 view .LVU172
 606 0092 0E20     		movs	r0, #14
 607 0094 CEE7     		b	.L43
 608              	.LVL77:
 609              	.L64:
  79:../Switch/core/yt/yt_rate.c ****     CMM_PARAM_CHK((NULL == pEnable), CMM_ERR_NULL_POINT);
 610              		.loc 1 79 5 discriminator 5 view .LVU173
 611              	.LBB13:
  79:../Switch/core/yt/yt_rate.c ****     CMM_PARAM_CHK((NULL == pEnable), CMM_ERR_NULL_POINT);
 612              		.loc 1 79 5 discriminator 5 view .LVU174
 613 0096 0F4B     		ldr	r3, .L66+16
 614 0098 9A6B     		ldr	r2, [r3, #56]
 615              	.LVL78:
  79:../Switch/core/yt/yt_rate.c ****     CMM_PARAM_CHK((NULL == pEnable), CMM_ERR_NULL_POINT);
 616              		.loc 1 79 5 is_stmt 0 discriminator 5 view .LVU175
 617 009a 0F4B     		ldr	r3, .L66+20
 618 009c 9968     		ldr	r1, [r3, #8]
 619              	.LVL79:
  79:../Switch/core/yt/yt_rate.c ****     CMM_PARAM_CHK((NULL == pEnable), CMM_ERR_NULL_POINT);
 620              		.loc 1 79 5 discriminator 5 view .LVU176
 621 009e 0F48     		ldr	r0, .L66+24
 622 00a0 FFF7FEFF 		bl	osal_printf
 623              	.LVL80:
 624 00a4 F5E7     		b	.L53
 625              	.LVL81:
 626              	.L60:
  79:../Switch/core/yt/yt_rate.c ****     CMM_PARAM_CHK((NULL == pEnable), CMM_ERR_NULL_POINT);
 627              		.loc 1 79 5 discriminator 5 view .LVU177
 628              	.LBE13:
  80:../Switch/core/yt/yt_rate.c **** 
 629              		.loc 1 80 5 is_stmt 1 discriminator 1 view .LVU178
  80:../Switch/core/yt/yt_rate.c **** 
 630              		.loc 1 80 5 discriminator 1 view .LVU179
 631 00a6 0A4B     		ldr	r3, .L66+12
 632 00a8 1B78     		ldrb	r3, [r3]	@ zero_extendqisi2
 633 00aa 012B     		cmp	r3, #1
 634 00ac 01D8     		bhi	.L65
 635              	.LVL82:
 636              	.L55:
  80:../Switch/core/yt/yt_rate.c **** 
 637              		.loc 1 80 5 discriminator 5 view .LVU180
  80:../Switch/core/yt/yt_rate.c **** 
 638              		.loc 1 80 5 discriminator 5 view .LVU181
  80:../Switch/core/yt/yt_rate.c **** 
 639              		.loc 1 80 5 discriminator 5 view .LVU182
 640 00ae 0220     		movs	r0, #2
 641 00b0 C0E7     		b	.L43
 642              	.LVL83:
 643              	.L65:
  80:../Switch/core/yt/yt_rate.c **** 
 644              		.loc 1 80 5 discriminator 3 view .LVU183
 645              	.LBB14:
  80:../Switch/core/yt/yt_rate.c **** 
 646              		.loc 1 80 5 discriminator 3 view .LVU184
 647 00b2 084B     		ldr	r3, .L66+16
 648 00b4 9A68     		ldr	r2, [r3, #8]
 649              	.LVL84:
  80:../Switch/core/yt/yt_rate.c **** 
 650              		.loc 1 80 5 is_stmt 0 discriminator 3 view .LVU185
 651 00b6 084B     		ldr	r3, .L66+20
 652 00b8 9968     		ldr	r1, [r3, #8]
 653              	.LVL85:
  80:../Switch/core/yt/yt_rate.c **** 
 654              		.loc 1 80 5 discriminator 3 view .LVU186
 655 00ba 0848     		ldr	r0, .L66+24
 656 00bc FFF7FEFF 		bl	osal_printf
 657              	.LVL86:
 658 00c0 F5E7     		b	.L55
 659              	.L67:
 660 00c2 00BF     		.align	2
 661              	.L66:
 662 00c4 00000000 		.word	gpfal_dispatch
 663 00c8 00000000 		.word	gcal_inited
 664 00cc 00000000 		.word	gpSwitchUnit
 665 00d0 00000000 		.word	yt_debug_level
 666 00d4 00000000 		.word	_yt_errmsg
 667 00d8 00000000 		.word	_yt_prompt_msg
 668 00dc 00000000 		.word	.LC0
 669              	.LBE14:
 670              		.cfi_endproc
 671              	.LFE5:
 673              		.section	.text.yt_rate_igrBandwidthCtrlMode_set,"ax",%progbits
 674              		.align	1
 675              		.global	yt_rate_igrBandwidthCtrlMode_set
 676              		.syntax unified
 677              		.thumb
 678              		.thumb_func
 680              	yt_rate_igrBandwidthCtrlMode_set:
 681              	.LVL87:
 682              	.LFB6:
  84:../Switch/core/yt/yt_rate.c **** 
  85:../Switch/core/yt/yt_rate.c **** /**
  86:../Switch/core/yt/yt_rate.c ****  * @internal      yt_rate_igrBandwidthCtrlMode_set
  87:../Switch/core/yt/yt_rate.c ****  * @endinternal
  88:../Switch/core/yt/yt_rate.c ****  *
  89:../Switch/core/yt/yt_rate.c ****  * @brief         Description
  90:../Switch/core/yt/yt_rate.c ****  * @note          APPLICABLE DEVICES  -Tiger
  91:../Switch/core/yt/yt_rate.c ****  * @param[in]     unit                -unit id
  92:../Switch/core/yt/yt_rate.c ****  * @param[in]     port                -port num
  93:../Switch/core/yt/yt_rate.c ****  * @param[in]     port_rate_mode      -config RATE_MODE(byte or packet) and BYTE_RATE_MODE(excGAP o
  94:../Switch/core/yt/yt_rate.c ****  * @retval        CMM_ERR_OK          -on success
  95:../Switch/core/yt/yt_rate.c ****  * @retval        CMM_ERR_FAIL        -on fail
  96:../Switch/core/yt/yt_rate.c ****  */
  97:../Switch/core/yt/yt_rate.c **** yt_ret_t yt_rate_igrBandwidthCtrlMode_set(yt_unit_t unit, yt_port_t port, yt_port_rate_mode_t port_
  98:../Switch/core/yt/yt_rate.c **** {
 683              		.loc 1 98 1 is_stmt 1 view -0
 684              		.cfi_startproc
 685              		@ args = 0, pretend = 0, frame = 8
 686              		@ frame_needed = 0, uses_anonymous_args = 0
 687              		.loc 1 98 1 is_stmt 0 view .LVU188
 688 0000 00B5     		push	{lr}
 689              		.cfi_def_cfa_offset 4
 690              		.cfi_offset 14, -4
 691 0002 83B0     		sub	sp, sp, #12
 692              		.cfi_def_cfa_offset 16
 693 0004 ADF80420 		strh	r2, [sp, #4]	@ movhi
  99:../Switch/core/yt/yt_rate.c ****     CMM_PARAM_CHK((YT_UNIT_NUM <= unit), CMM_ERR_INPUT);
 694              		.loc 1 99 5 is_stmt 1 view .LVU189
 695              		.loc 1 99 5 view .LVU190
 696 0008 B8B9     		cbnz	r0, .L80
 697              		.loc 1 99 5 discriminator 2 view .LVU191
 100:../Switch/core/yt/yt_rate.c ****     CMM_PARAM_CHK(NULL == YT_DISPATCH(unit), CMM_ERR_NOT_INIT);
 698              		.loc 1 100 5 discriminator 2 view .LVU192
 699              		.loc 1 100 5 discriminator 2 view .LVU193
 700 000a 284B     		ldr	r3, .L87
 701 000c 53F82030 		ldr	r3, [r3, r0, lsl #2]
 702 0010 0BB3     		cbz	r3, .L81
 703              		.loc 1 100 5 discriminator 2 view .LVU194
 101:../Switch/core/yt/yt_rate.c ****     CMM_PARAM_CHK((!(YT_DISPATCH(unit)->is_inited)), CMM_ERR_NOT_INIT);
 704              		.loc 1 101 5 discriminator 2 view .LVU195
 705              		.loc 1 101 5 discriminator 2 view .LVU196
 706 0012 1A78     		ldrb	r2, [r3]	@ zero_extendqisi2
 707 0014 002A     		cmp	r2, #0
 708 0016 2CD0     		beq	.L82
 709              		.loc 1 101 5 discriminator 2 view .LVU197
 102:../Switch/core/yt/yt_rate.c ****     CMM_PARAM_CHK((!(CMM_PORT_VALID(unit, port))), CMM_ERR_PORT);
 710              		.loc 1 102 5 discriminator 2 view .LVU198
 711              		.loc 1 102 5 discriminator 2 view .LVU199
 712 0018 254A     		ldr	r2, .L87+4
 713 001a 1278     		ldrb	r2, [r2]	@ zero_extendqisi2
 714 001c 002A     		cmp	r2, #0
 715 001e 36D0     		beq	.L76
 716 0020 244A     		ldr	r2, .L87+8
 717 0022 52F82020 		ldr	r2, [r2, r0, lsl #2]
 718 0026 127D     		ldrb	r2, [r2, #20]	@ zero_extendqisi2
 719 0028 8A42     		cmp	r2, r1
 720 002a 30D9     		bls	.L76
 721              		.loc 1 102 5 discriminator 4 view .LVU200
 103:../Switch/core/yt/yt_rate.c **** 
 104:../Switch/core/yt/yt_rate.c ****     return YT_DISPATCH(unit)->rate_igrBandwidthCtrlMode_set(unit, port, port_rate_mode);
 722              		.loc 1 104 5 discriminator 4 view .LVU201
 723              		.loc 1 104 29 is_stmt 0 discriminator 4 view .LVU202
 724 002c D3F84032 		ldr	r3, [r3, #576]
 725              		.loc 1 104 12 discriminator 4 view .LVU203
 726 0030 019A     		ldr	r2, [sp, #4]
 727 0032 9847     		blx	r3
 728              	.LVL88:
 729              	.L68:
 105:../Switch/core/yt/yt_rate.c **** }
 730              		.loc 1 105 1 view .LVU204
 731 0034 03B0     		add	sp, sp, #12
 732              		.cfi_remember_state
 733              		.cfi_def_cfa_offset 4
 734              		@ sp needed
 735 0036 5DF804FB 		ldr	pc, [sp], #4
 736              	.LVL89:
 737              	.L80:
 738              		.cfi_restore_state
  99:../Switch/core/yt/yt_rate.c ****     CMM_PARAM_CHK(NULL == YT_DISPATCH(unit), CMM_ERR_NOT_INIT);
 739              		.loc 1 99 5 is_stmt 1 discriminator 1 view .LVU205
  99:../Switch/core/yt/yt_rate.c ****     CMM_PARAM_CHK(NULL == YT_DISPATCH(unit), CMM_ERR_NOT_INIT);
 740              		.loc 1 99 5 discriminator 1 view .LVU206
 741 003a 1F4B     		ldr	r3, .L87+12
 742 003c 1B78     		ldrb	r3, [r3]	@ zero_extendqisi2
 743 003e 012B     		cmp	r3, #1
 744 0040 01D8     		bhi	.L83
 745              	.LVL90:
 746              	.L70:
  99:../Switch/core/yt/yt_rate.c ****     CMM_PARAM_CHK(NULL == YT_DISPATCH(unit), CMM_ERR_NOT_INIT);
 747              		.loc 1 99 5 discriminator 5 view .LVU207
  99:../Switch/core/yt/yt_rate.c ****     CMM_PARAM_CHK(NULL == YT_DISPATCH(unit), CMM_ERR_NOT_INIT);
 748              		.loc 1 99 5 discriminator 5 view .LVU208
  99:../Switch/core/yt/yt_rate.c ****     CMM_PARAM_CHK(NULL == YT_DISPATCH(unit), CMM_ERR_NOT_INIT);
 749              		.loc 1 99 5 discriminator 5 view .LVU209
 750 0042 0520     		movs	r0, #5
 751 0044 F6E7     		b	.L68
 752              	.LVL91:
 753              	.L83:
  99:../Switch/core/yt/yt_rate.c ****     CMM_PARAM_CHK(NULL == YT_DISPATCH(unit), CMM_ERR_NOT_INIT);
 754              		.loc 1 99 5 discriminator 3 view .LVU210
 755              	.LBB15:
  99:../Switch/core/yt/yt_rate.c ****     CMM_PARAM_CHK(NULL == YT_DISPATCH(unit), CMM_ERR_NOT_INIT);
 756              		.loc 1 99 5 discriminator 3 view .LVU211
 757 0046 1D4B     		ldr	r3, .L87+16
 758 0048 5A69     		ldr	r2, [r3, #20]
 759 004a 1D4B     		ldr	r3, .L87+20
 760 004c 9968     		ldr	r1, [r3, #8]
 761              	.LVL92:
  99:../Switch/core/yt/yt_rate.c ****     CMM_PARAM_CHK(NULL == YT_DISPATCH(unit), CMM_ERR_NOT_INIT);
 762              		.loc 1 99 5 is_stmt 0 discriminator 3 view .LVU212
 763 004e 1D48     		ldr	r0, .L87+24
 764              	.LVL93:
  99:../Switch/core/yt/yt_rate.c ****     CMM_PARAM_CHK(NULL == YT_DISPATCH(unit), CMM_ERR_NOT_INIT);
 765              		.loc 1 99 5 discriminator 3 view .LVU213
 766 0050 FFF7FEFF 		bl	osal_printf
 767              	.LVL94:
 768 0054 F5E7     		b	.L70
 769              	.LVL95:
 770              	.L81:
  99:../Switch/core/yt/yt_rate.c ****     CMM_PARAM_CHK(NULL == YT_DISPATCH(unit), CMM_ERR_NOT_INIT);
 771              		.loc 1 99 5 discriminator 3 view .LVU214
 772              	.LBE15:
 100:../Switch/core/yt/yt_rate.c ****     CMM_PARAM_CHK((!(YT_DISPATCH(unit)->is_inited)), CMM_ERR_NOT_INIT);
 773              		.loc 1 100 5 is_stmt 1 discriminator 1 view .LVU215
 100:../Switch/core/yt/yt_rate.c ****     CMM_PARAM_CHK((!(YT_DISPATCH(unit)->is_inited)), CMM_ERR_NOT_INIT);
 774              		.loc 1 100 5 discriminator 1 view .LVU216
 775 0056 184B     		ldr	r3, .L87+12
 776 0058 1B78     		ldrb	r3, [r3]	@ zero_extendqisi2
 777 005a 012B     		cmp	r3, #1
 778 005c 01D8     		bhi	.L84
 779              	.LVL96:
 780              	.L73:
 100:../Switch/core/yt/yt_rate.c ****     CMM_PARAM_CHK((!(YT_DISPATCH(unit)->is_inited)), CMM_ERR_NOT_INIT);
 781              		.loc 1 100 5 discriminator 5 view .LVU217
 100:../Switch/core/yt/yt_rate.c ****     CMM_PARAM_CHK((!(YT_DISPATCH(unit)->is_inited)), CMM_ERR_NOT_INIT);
 782              		.loc 1 100 5 discriminator 5 view .LVU218
 100:../Switch/core/yt/yt_rate.c ****     CMM_PARAM_CHK((!(YT_DISPATCH(unit)->is_inited)), CMM_ERR_NOT_INIT);
 783              		.loc 1 100 5 discriminator 5 view .LVU219
 784 005e 0420     		movs	r0, #4
 785 0060 E8E7     		b	.L68
 786              	.LVL97:
 787              	.L84:
 100:../Switch/core/yt/yt_rate.c ****     CMM_PARAM_CHK((!(YT_DISPATCH(unit)->is_inited)), CMM_ERR_NOT_INIT);
 788              		.loc 1 100 5 discriminator 3 view .LVU220
 789              	.LBB16:
 100:../Switch/core/yt/yt_rate.c ****     CMM_PARAM_CHK((!(YT_DISPATCH(unit)->is_inited)), CMM_ERR_NOT_INIT);
 790              		.loc 1 100 5 discriminator 3 view .LVU221
 791 0062 164B     		ldr	r3, .L87+16
 792 0064 1A69     		ldr	r2, [r3, #16]
 793 0066 164B     		ldr	r3, .L87+20
 794 0068 9968     		ldr	r1, [r3, #8]
 795              	.LVL98:
 100:../Switch/core/yt/yt_rate.c ****     CMM_PARAM_CHK((!(YT_DISPATCH(unit)->is_inited)), CMM_ERR_NOT_INIT);
 796              		.loc 1 100 5 is_stmt 0 discriminator 3 view .LVU222
 797 006a 1648     		ldr	r0, .L87+24
 798              	.LVL99:
 100:../Switch/core/yt/yt_rate.c ****     CMM_PARAM_CHK((!(YT_DISPATCH(unit)->is_inited)), CMM_ERR_NOT_INIT);
 799              		.loc 1 100 5 discriminator 3 view .LVU223
 800 006c FFF7FEFF 		bl	osal_printf
 801              	.LVL100:
 802 0070 F5E7     		b	.L73
 803              	.LVL101:
 804              	.L82:
 100:../Switch/core/yt/yt_rate.c ****     CMM_PARAM_CHK((!(YT_DISPATCH(unit)->is_inited)), CMM_ERR_NOT_INIT);
 805              		.loc 1 100 5 discriminator 3 view .LVU224
 806              	.LBE16:
 101:../Switch/core/yt/yt_rate.c ****     CMM_PARAM_CHK((!(CMM_PORT_VALID(unit, port))), CMM_ERR_PORT);
 807              		.loc 1 101 5 is_stmt 1 discriminator 1 view .LVU225
 101:../Switch/core/yt/yt_rate.c ****     CMM_PARAM_CHK((!(CMM_PORT_VALID(unit, port))), CMM_ERR_PORT);
 808              		.loc 1 101 5 discriminator 1 view .LVU226
 809 0072 114B     		ldr	r3, .L87+12
 810 0074 1B78     		ldrb	r3, [r3]	@ zero_extendqisi2
 811 0076 012B     		cmp	r3, #1
 812 0078 01D8     		bhi	.L85
 813              	.LVL102:
 814              	.L75:
 101:../Switch/core/yt/yt_rate.c ****     CMM_PARAM_CHK((!(CMM_PORT_VALID(unit, port))), CMM_ERR_PORT);
 815              		.loc 1 101 5 discriminator 5 view .LVU227
 101:../Switch/core/yt/yt_rate.c ****     CMM_PARAM_CHK((!(CMM_PORT_VALID(unit, port))), CMM_ERR_PORT);
 816              		.loc 1 101 5 discriminator 5 view .LVU228
 101:../Switch/core/yt/yt_rate.c ****     CMM_PARAM_CHK((!(CMM_PORT_VALID(unit, port))), CMM_ERR_PORT);
 817              		.loc 1 101 5 discriminator 5 view .LVU229
 818 007a 0420     		movs	r0, #4
 819 007c DAE7     		b	.L68
 820              	.LVL103:
 821              	.L85:
 101:../Switch/core/yt/yt_rate.c ****     CMM_PARAM_CHK((!(CMM_PORT_VALID(unit, port))), CMM_ERR_PORT);
 822              		.loc 1 101 5 discriminator 3 view .LVU230
 823              	.LBB17:
 101:../Switch/core/yt/yt_rate.c ****     CMM_PARAM_CHK((!(CMM_PORT_VALID(unit, port))), CMM_ERR_PORT);
 824              		.loc 1 101 5 discriminator 3 view .LVU231
 825 007e 0F4B     		ldr	r3, .L87+16
 826 0080 1A69     		ldr	r2, [r3, #16]
 827 0082 0F4B     		ldr	r3, .L87+20
 828 0084 9968     		ldr	r1, [r3, #8]
 829              	.LVL104:
 101:../Switch/core/yt/yt_rate.c ****     CMM_PARAM_CHK((!(CMM_PORT_VALID(unit, port))), CMM_ERR_PORT);
 830              		.loc 1 101 5 is_stmt 0 discriminator 3 view .LVU232
 831 0086 0F48     		ldr	r0, .L87+24
 832              	.LVL105:
 101:../Switch/core/yt/yt_rate.c ****     CMM_PARAM_CHK((!(CMM_PORT_VALID(unit, port))), CMM_ERR_PORT);
 833              		.loc 1 101 5 discriminator 3 view .LVU233
 834 0088 FFF7FEFF 		bl	osal_printf
 835              	.LVL106:
 836 008c F5E7     		b	.L75
 837              	.LVL107:
 838              	.L76:
 101:../Switch/core/yt/yt_rate.c ****     CMM_PARAM_CHK((!(CMM_PORT_VALID(unit, port))), CMM_ERR_PORT);
 839              		.loc 1 101 5 discriminator 3 view .LVU234
 840              	.LBE17:
 102:../Switch/core/yt/yt_rate.c **** 
 841              		.loc 1 102 5 is_stmt 1 discriminator 3 view .LVU235
 102:../Switch/core/yt/yt_rate.c **** 
 842              		.loc 1 102 5 discriminator 3 view .LVU236
 843 008e 0A4B     		ldr	r3, .L87+12
 844 0090 1B78     		ldrb	r3, [r3]	@ zero_extendqisi2
 845 0092 012B     		cmp	r3, #1
 846 0094 01D8     		bhi	.L86
 847              	.LVL108:
 848              	.L78:
 102:../Switch/core/yt/yt_rate.c **** 
 849              		.loc 1 102 5 discriminator 7 view .LVU237
 102:../Switch/core/yt/yt_rate.c **** 
 850              		.loc 1 102 5 discriminator 7 view .LVU238
 102:../Switch/core/yt/yt_rate.c **** 
 851              		.loc 1 102 5 discriminator 7 view .LVU239
 852 0096 0E20     		movs	r0, #14
 853 0098 CCE7     		b	.L68
 854              	.LVL109:
 855              	.L86:
 102:../Switch/core/yt/yt_rate.c **** 
 856              		.loc 1 102 5 discriminator 5 view .LVU240
 857              	.LBB18:
 102:../Switch/core/yt/yt_rate.c **** 
 858              		.loc 1 102 5 discriminator 5 view .LVU241
 859 009a 084B     		ldr	r3, .L87+16
 860 009c 9A6B     		ldr	r2, [r3, #56]
 861 009e 084B     		ldr	r3, .L87+20
 862 00a0 9968     		ldr	r1, [r3, #8]
 863              	.LVL110:
 102:../Switch/core/yt/yt_rate.c **** 
 864              		.loc 1 102 5 is_stmt 0 discriminator 5 view .LVU242
 865 00a2 0848     		ldr	r0, .L87+24
 866              	.LVL111:
 102:../Switch/core/yt/yt_rate.c **** 
 867              		.loc 1 102 5 discriminator 5 view .LVU243
 868 00a4 FFF7FEFF 		bl	osal_printf
 869              	.LVL112:
 870 00a8 F5E7     		b	.L78
 871              	.L88:
 872 00aa 00BF     		.align	2
 873              	.L87:
 874 00ac 00000000 		.word	gpfal_dispatch
 875 00b0 00000000 		.word	gcal_inited
 876 00b4 00000000 		.word	gpSwitchUnit
 877 00b8 00000000 		.word	yt_debug_level
 878 00bc 00000000 		.word	_yt_errmsg
 879 00c0 00000000 		.word	_yt_prompt_msg
 880 00c4 00000000 		.word	.LC0
 881              	.LBE18:
 882              		.cfi_endproc
 883              	.LFE6:
 885              		.section	.text.yt_rate_igrBandwidthCtrlMode_get,"ax",%progbits
 886              		.align	1
 887              		.global	yt_rate_igrBandwidthCtrlMode_get
 888              		.syntax unified
 889              		.thumb
 890              		.thumb_func
 892              	yt_rate_igrBandwidthCtrlMode_get:
 893              	.LVL113:
 894              	.LFB7:
 106:../Switch/core/yt/yt_rate.c **** 
 107:../Switch/core/yt/yt_rate.c **** /**
 108:../Switch/core/yt/yt_rate.c ****  * @internal      yt_rate_igrBandwidthCtrlMode_get
 109:../Switch/core/yt/yt_rate.c ****  * @endinternal
 110:../Switch/core/yt/yt_rate.c ****  *
 111:../Switch/core/yt/yt_rate.c ****  * @brief         Description
 112:../Switch/core/yt/yt_rate.c ****  * @note          APPLICABLE DEVICES  -Tiger
 113:../Switch/core/yt/yt_rate.c ****  * @param[in]     unit                -unit id
 114:../Switch/core/yt/yt_rate.c ****  * @param[in]     port                -port num
 115:../Switch/core/yt/yt_rate.c ****  * @param[out]    pPort_rate_mode     -config RATE_MODE(byte or packet) and BYTE_RATE_MODE(excGAP o
 116:../Switch/core/yt/yt_rate.c ****  * @retval        CMM_ERR_OK          -on success
 117:../Switch/core/yt/yt_rate.c ****  * @retval        CMM_ERR_FAIL        -on fail
 118:../Switch/core/yt/yt_rate.c ****  */
 119:../Switch/core/yt/yt_rate.c **** yt_ret_t yt_rate_igrBandwidthCtrlMode_get(yt_unit_t unit, yt_port_t port, yt_port_rate_mode_t *pPor
 120:../Switch/core/yt/yt_rate.c **** {
 895              		.loc 1 120 1 is_stmt 1 view -0
 896              		.cfi_startproc
 897              		@ args = 0, pretend = 0, frame = 0
 898              		@ frame_needed = 0, uses_anonymous_args = 0
 899              		.loc 1 120 1 is_stmt 0 view .LVU245
 900 0000 08B5     		push	{r3, lr}
 901              		.cfi_def_cfa_offset 8
 902              		.cfi_offset 3, -8
 903              		.cfi_offset 14, -4
 121:../Switch/core/yt/yt_rate.c ****     CMM_PARAM_CHK((YT_UNIT_NUM <= unit), CMM_ERR_INPUT);
 904              		.loc 1 121 5 is_stmt 1 view .LVU246
 905              		.loc 1 121 5 view .LVU247
 906 0002 C0B9     		cbnz	r0, .L103
 907 0004 8446     		mov	ip, r0
 908              		.loc 1 121 5 discriminator 2 view .LVU248
 122:../Switch/core/yt/yt_rate.c ****     CMM_PARAM_CHK(NULL == YT_DISPATCH(unit), CMM_ERR_NOT_INIT);
 909              		.loc 1 122 5 discriminator 2 view .LVU249
 910              		.loc 1 122 5 discriminator 2 view .LVU250
 911 0006 2F4B     		ldr	r3, .L112
 912 0008 53F82030 		ldr	r3, [r3, r0, lsl #2]
 913 000c 0BB3     		cbz	r3, .L104
 914              		.loc 1 122 5 discriminator 2 view .LVU251
 123:../Switch/core/yt/yt_rate.c ****     CMM_PARAM_CHK((!(YT_DISPATCH(unit)->is_inited)), CMM_ERR_NOT_INIT);
 915              		.loc 1 123 5 discriminator 2 view .LVU252
 916              		.loc 1 123 5 discriminator 2 view .LVU253
 917 000e 1878     		ldrb	r0, [r3]	@ zero_extendqisi2
 918              	.LVL114:
 919              		.loc 1 123 5 is_stmt 0 discriminator 2 view .LVU254
 920 0010 0028     		cmp	r0, #0
 921 0012 2CD0     		beq	.L105
 922              		.loc 1 123 5 is_stmt 1 discriminator 2 view .LVU255
 124:../Switch/core/yt/yt_rate.c ****     CMM_PARAM_CHK((!(CMM_PORT_VALID(unit, port))), CMM_ERR_PORT);
 923              		.loc 1 124 5 discriminator 2 view .LVU256
 924              		.loc 1 124 5 discriminator 2 view .LVU257
 925 0014 2C48     		ldr	r0, .L112+4
 926 0016 0078     		ldrb	r0, [r0]	@ zero_extendqisi2
 927 0018 0028     		cmp	r0, #0
 928 001a 36D0     		beq	.L97
 929 001c 2B48     		ldr	r0, .L112+8
 930 001e 50F82C00 		ldr	r0, [r0, ip, lsl #2]
 931 0022 007D     		ldrb	r0, [r0, #20]	@ zero_extendqisi2
 932 0024 8842     		cmp	r0, r1
 933 0026 30D9     		bls	.L97
 934              		.loc 1 124 5 discriminator 4 view .LVU258
 125:../Switch/core/yt/yt_rate.c ****     CMM_PARAM_CHK((NULL == pPort_rate_mode), CMM_ERR_NULL_POINT);
 935              		.loc 1 125 5 discriminator 4 view .LVU259
 936              		.loc 1 125 5 discriminator 4 view .LVU260
 937 0028 002A     		cmp	r2, #0
 938 002a 3CD0     		beq	.L106
 939              		.loc 1 125 5 discriminator 2 view .LVU261
 126:../Switch/core/yt/yt_rate.c **** 
 127:../Switch/core/yt/yt_rate.c ****     return YT_DISPATCH(unit)->rate_igrBandwidthCtrlMode_get(unit, port, pPort_rate_mode);
 940              		.loc 1 127 5 discriminator 2 view .LVU262
 941              		.loc 1 127 29 is_stmt 0 discriminator 2 view .LVU263
 942 002c D3F84432 		ldr	r3, [r3, #580]
 943              		.loc 1 127 12 discriminator 2 view .LVU264
 944 0030 6046     		mov	r0, ip
 945 0032 9847     		blx	r3
 946              	.LVL115:
 947              	.L89:
 128:../Switch/core/yt/yt_rate.c **** }
 948              		.loc 1 128 1 view .LVU265
 949 0034 08BD     		pop	{r3, pc}
 950              	.LVL116:
 951              	.L103:
 121:../Switch/core/yt/yt_rate.c ****     CMM_PARAM_CHK(NULL == YT_DISPATCH(unit), CMM_ERR_NOT_INIT);
 952              		.loc 1 121 5 is_stmt 1 discriminator 1 view .LVU266
 121:../Switch/core/yt/yt_rate.c ****     CMM_PARAM_CHK(NULL == YT_DISPATCH(unit), CMM_ERR_NOT_INIT);
 953              		.loc 1 121 5 discriminator 1 view .LVU267
 954 0036 264B     		ldr	r3, .L112+12
 955 0038 1B78     		ldrb	r3, [r3]	@ zero_extendqisi2
 956 003a 012B     		cmp	r3, #1
 957 003c 01D8     		bhi	.L107
 958              	.LVL117:
 959              	.L91:
 121:../Switch/core/yt/yt_rate.c ****     CMM_PARAM_CHK(NULL == YT_DISPATCH(unit), CMM_ERR_NOT_INIT);
 960              		.loc 1 121 5 discriminator 5 view .LVU268
 121:../Switch/core/yt/yt_rate.c ****     CMM_PARAM_CHK(NULL == YT_DISPATCH(unit), CMM_ERR_NOT_INIT);
 961              		.loc 1 121 5 discriminator 5 view .LVU269
 121:../Switch/core/yt/yt_rate.c ****     CMM_PARAM_CHK(NULL == YT_DISPATCH(unit), CMM_ERR_NOT_INIT);
 962              		.loc 1 121 5 discriminator 5 view .LVU270
 963 003e 0520     		movs	r0, #5
 964 0040 F8E7     		b	.L89
 965              	.LVL118:
 966              	.L107:
 121:../Switch/core/yt/yt_rate.c ****     CMM_PARAM_CHK(NULL == YT_DISPATCH(unit), CMM_ERR_NOT_INIT);
 967              		.loc 1 121 5 discriminator 3 view .LVU271
 968              	.LBB19:
 121:../Switch/core/yt/yt_rate.c ****     CMM_PARAM_CHK(NULL == YT_DISPATCH(unit), CMM_ERR_NOT_INIT);
 969              		.loc 1 121 5 discriminator 3 view .LVU272
 970 0042 244B     		ldr	r3, .L112+16
 971 0044 5A69     		ldr	r2, [r3, #20]
 972              	.LVL119:
 121:../Switch/core/yt/yt_rate.c ****     CMM_PARAM_CHK(NULL == YT_DISPATCH(unit), CMM_ERR_NOT_INIT);
 973              		.loc 1 121 5 is_stmt 0 discriminator 3 view .LVU273
 974 0046 244B     		ldr	r3, .L112+20
 975 0048 9968     		ldr	r1, [r3, #8]
 976              	.LVL120:
 121:../Switch/core/yt/yt_rate.c ****     CMM_PARAM_CHK(NULL == YT_DISPATCH(unit), CMM_ERR_NOT_INIT);
 977              		.loc 1 121 5 discriminator 3 view .LVU274
 978 004a 2448     		ldr	r0, .L112+24
 979              	.LVL121:
 121:../Switch/core/yt/yt_rate.c ****     CMM_PARAM_CHK(NULL == YT_DISPATCH(unit), CMM_ERR_NOT_INIT);
 980              		.loc 1 121 5 discriminator 3 view .LVU275
 981 004c FFF7FEFF 		bl	osal_printf
 982              	.LVL122:
 983 0050 F5E7     		b	.L91
 984              	.LVL123:
 985              	.L104:
 121:../Switch/core/yt/yt_rate.c ****     CMM_PARAM_CHK(NULL == YT_DISPATCH(unit), CMM_ERR_NOT_INIT);
 986              		.loc 1 121 5 discriminator 3 view .LVU276
 987              	.LBE19:
 122:../Switch/core/yt/yt_rate.c ****     CMM_PARAM_CHK((!(YT_DISPATCH(unit)->is_inited)), CMM_ERR_NOT_INIT);
 988              		.loc 1 122 5 is_stmt 1 discriminator 1 view .LVU277
 122:../Switch/core/yt/yt_rate.c ****     CMM_PARAM_CHK((!(YT_DISPATCH(unit)->is_inited)), CMM_ERR_NOT_INIT);
 989              		.loc 1 122 5 discriminator 1 view .LVU278
 990 0052 1F4B     		ldr	r3, .L112+12
 991 0054 1B78     		ldrb	r3, [r3]	@ zero_extendqisi2
 992 0056 012B     		cmp	r3, #1
 993 0058 01D8     		bhi	.L108
 994              	.LVL124:
 995              	.L94:
 122:../Switch/core/yt/yt_rate.c ****     CMM_PARAM_CHK((!(YT_DISPATCH(unit)->is_inited)), CMM_ERR_NOT_INIT);
 996              		.loc 1 122 5 discriminator 5 view .LVU279
 122:../Switch/core/yt/yt_rate.c ****     CMM_PARAM_CHK((!(YT_DISPATCH(unit)->is_inited)), CMM_ERR_NOT_INIT);
 997              		.loc 1 122 5 discriminator 5 view .LVU280
 122:../Switch/core/yt/yt_rate.c ****     CMM_PARAM_CHK((!(YT_DISPATCH(unit)->is_inited)), CMM_ERR_NOT_INIT);
 998              		.loc 1 122 5 discriminator 5 view .LVU281
 999 005a 0420     		movs	r0, #4
 1000 005c EAE7     		b	.L89
 1001              	.LVL125:
 1002              	.L108:
 122:../Switch/core/yt/yt_rate.c ****     CMM_PARAM_CHK((!(YT_DISPATCH(unit)->is_inited)), CMM_ERR_NOT_INIT);
 1003              		.loc 1 122 5 discriminator 3 view .LVU282
 1004              	.LBB20:
 122:../Switch/core/yt/yt_rate.c ****     CMM_PARAM_CHK((!(YT_DISPATCH(unit)->is_inited)), CMM_ERR_NOT_INIT);
 1005              		.loc 1 122 5 discriminator 3 view .LVU283
 1006 005e 1D4B     		ldr	r3, .L112+16
 1007 0060 1A69     		ldr	r2, [r3, #16]
 1008              	.LVL126:
 122:../Switch/core/yt/yt_rate.c ****     CMM_PARAM_CHK((!(YT_DISPATCH(unit)->is_inited)), CMM_ERR_NOT_INIT);
 1009              		.loc 1 122 5 is_stmt 0 discriminator 3 view .LVU284
 1010 0062 1D4B     		ldr	r3, .L112+20
 1011 0064 9968     		ldr	r1, [r3, #8]
 1012              	.LVL127:
 122:../Switch/core/yt/yt_rate.c ****     CMM_PARAM_CHK((!(YT_DISPATCH(unit)->is_inited)), CMM_ERR_NOT_INIT);
 1013              		.loc 1 122 5 discriminator 3 view .LVU285
 1014 0066 1D48     		ldr	r0, .L112+24
 1015              	.LVL128:
 122:../Switch/core/yt/yt_rate.c ****     CMM_PARAM_CHK((!(YT_DISPATCH(unit)->is_inited)), CMM_ERR_NOT_INIT);
 1016              		.loc 1 122 5 discriminator 3 view .LVU286
 1017 0068 FFF7FEFF 		bl	osal_printf
 1018              	.LVL129:
 1019 006c F5E7     		b	.L94
 1020              	.LVL130:
 1021              	.L105:
 122:../Switch/core/yt/yt_rate.c ****     CMM_PARAM_CHK((!(YT_DISPATCH(unit)->is_inited)), CMM_ERR_NOT_INIT);
 1022              		.loc 1 122 5 discriminator 3 view .LVU287
 1023              	.LBE20:
 123:../Switch/core/yt/yt_rate.c ****     CMM_PARAM_CHK((!(CMM_PORT_VALID(unit, port))), CMM_ERR_PORT);
 1024              		.loc 1 123 5 is_stmt 1 discriminator 1 view .LVU288
 123:../Switch/core/yt/yt_rate.c ****     CMM_PARAM_CHK((!(CMM_PORT_VALID(unit, port))), CMM_ERR_PORT);
 1025              		.loc 1 123 5 discriminator 1 view .LVU289
 1026 006e 184B     		ldr	r3, .L112+12
 1027 0070 1B78     		ldrb	r3, [r3]	@ zero_extendqisi2
 1028 0072 012B     		cmp	r3, #1
 1029 0074 01D8     		bhi	.L109
 1030              	.LVL131:
 1031              	.L96:
 123:../Switch/core/yt/yt_rate.c ****     CMM_PARAM_CHK((!(CMM_PORT_VALID(unit, port))), CMM_ERR_PORT);
 1032              		.loc 1 123 5 discriminator 5 view .LVU290
 123:../Switch/core/yt/yt_rate.c ****     CMM_PARAM_CHK((!(CMM_PORT_VALID(unit, port))), CMM_ERR_PORT);
 1033              		.loc 1 123 5 discriminator 5 view .LVU291
 123:../Switch/core/yt/yt_rate.c ****     CMM_PARAM_CHK((!(CMM_PORT_VALID(unit, port))), CMM_ERR_PORT);
 1034              		.loc 1 123 5 discriminator 5 view .LVU292
 1035 0076 0420     		movs	r0, #4
 1036 0078 DCE7     		b	.L89
 1037              	.LVL132:
 1038              	.L109:
 123:../Switch/core/yt/yt_rate.c ****     CMM_PARAM_CHK((!(CMM_PORT_VALID(unit, port))), CMM_ERR_PORT);
 1039              		.loc 1 123 5 discriminator 3 view .LVU293
 1040              	.LBB21:
 123:../Switch/core/yt/yt_rate.c ****     CMM_PARAM_CHK((!(CMM_PORT_VALID(unit, port))), CMM_ERR_PORT);
 1041              		.loc 1 123 5 discriminator 3 view .LVU294
 1042 007a 164B     		ldr	r3, .L112+16
 1043 007c 1A69     		ldr	r2, [r3, #16]
 1044              	.LVL133:
 123:../Switch/core/yt/yt_rate.c ****     CMM_PARAM_CHK((!(CMM_PORT_VALID(unit, port))), CMM_ERR_PORT);
 1045              		.loc 1 123 5 is_stmt 0 discriminator 3 view .LVU295
 1046 007e 164B     		ldr	r3, .L112+20
 1047 0080 9968     		ldr	r1, [r3, #8]
 1048              	.LVL134:
 123:../Switch/core/yt/yt_rate.c ****     CMM_PARAM_CHK((!(CMM_PORT_VALID(unit, port))), CMM_ERR_PORT);
 1049              		.loc 1 123 5 discriminator 3 view .LVU296
 1050 0082 1648     		ldr	r0, .L112+24
 1051 0084 FFF7FEFF 		bl	osal_printf
 1052              	.LVL135:
 1053 0088 F5E7     		b	.L96
 1054              	.LVL136:
 1055              	.L97:
 123:../Switch/core/yt/yt_rate.c ****     CMM_PARAM_CHK((!(CMM_PORT_VALID(unit, port))), CMM_ERR_PORT);
 1056              		.loc 1 123 5 discriminator 3 view .LVU297
 1057              	.LBE21:
 124:../Switch/core/yt/yt_rate.c ****     CMM_PARAM_CHK((NULL == pPort_rate_mode), CMM_ERR_NULL_POINT);
 1058              		.loc 1 124 5 is_stmt 1 discriminator 3 view .LVU298
 124:../Switch/core/yt/yt_rate.c ****     CMM_PARAM_CHK((NULL == pPort_rate_mode), CMM_ERR_NULL_POINT);
 1059              		.loc 1 124 5 discriminator 3 view .LVU299
 1060 008a 114B     		ldr	r3, .L112+12
 1061 008c 1B78     		ldrb	r3, [r3]	@ zero_extendqisi2
 1062 008e 012B     		cmp	r3, #1
 1063 0090 01D8     		bhi	.L110
 1064              	.LVL137:
 1065              	.L99:
 124:../Switch/core/yt/yt_rate.c ****     CMM_PARAM_CHK((NULL == pPort_rate_mode), CMM_ERR_NULL_POINT);
 1066              		.loc 1 124 5 discriminator 7 view .LVU300
 124:../Switch/core/yt/yt_rate.c ****     CMM_PARAM_CHK((NULL == pPort_rate_mode), CMM_ERR_NULL_POINT);
 1067              		.loc 1 124 5 discriminator 7 view .LVU301
 124:../Switch/core/yt/yt_rate.c ****     CMM_PARAM_CHK((NULL == pPort_rate_mode), CMM_ERR_NULL_POINT);
 1068              		.loc 1 124 5 discriminator 7 view .LVU302
 1069 0092 0E20     		movs	r0, #14
 1070 0094 CEE7     		b	.L89
 1071              	.LVL138:
 1072              	.L110:
 124:../Switch/core/yt/yt_rate.c ****     CMM_PARAM_CHK((NULL == pPort_rate_mode), CMM_ERR_NULL_POINT);
 1073              		.loc 1 124 5 discriminator 5 view .LVU303
 1074              	.LBB22:
 124:../Switch/core/yt/yt_rate.c ****     CMM_PARAM_CHK((NULL == pPort_rate_mode), CMM_ERR_NULL_POINT);
 1075              		.loc 1 124 5 discriminator 5 view .LVU304
 1076 0096 0F4B     		ldr	r3, .L112+16
 1077 0098 9A6B     		ldr	r2, [r3, #56]
 1078              	.LVL139:
 124:../Switch/core/yt/yt_rate.c ****     CMM_PARAM_CHK((NULL == pPort_rate_mode), CMM_ERR_NULL_POINT);
 1079              		.loc 1 124 5 is_stmt 0 discriminator 5 view .LVU305
 1080 009a 0F4B     		ldr	r3, .L112+20
 1081 009c 9968     		ldr	r1, [r3, #8]
 1082              	.LVL140:
 124:../Switch/core/yt/yt_rate.c ****     CMM_PARAM_CHK((NULL == pPort_rate_mode), CMM_ERR_NULL_POINT);
 1083              		.loc 1 124 5 discriminator 5 view .LVU306
 1084 009e 0F48     		ldr	r0, .L112+24
 1085 00a0 FFF7FEFF 		bl	osal_printf
 1086              	.LVL141:
 1087 00a4 F5E7     		b	.L99
 1088              	.LVL142:
 1089              	.L106:
 124:../Switch/core/yt/yt_rate.c ****     CMM_PARAM_CHK((NULL == pPort_rate_mode), CMM_ERR_NULL_POINT);
 1090              		.loc 1 124 5 discriminator 5 view .LVU307
 1091              	.LBE22:
 125:../Switch/core/yt/yt_rate.c **** 
 1092              		.loc 1 125 5 is_stmt 1 discriminator 1 view .LVU308
 125:../Switch/core/yt/yt_rate.c **** 
 1093              		.loc 1 125 5 discriminator 1 view .LVU309
 1094 00a6 0A4B     		ldr	r3, .L112+12
 1095 00a8 1B78     		ldrb	r3, [r3]	@ zero_extendqisi2
 1096 00aa 012B     		cmp	r3, #1
 1097 00ac 01D8     		bhi	.L111
 1098              	.LVL143:
 1099              	.L101:
 125:../Switch/core/yt/yt_rate.c **** 
 1100              		.loc 1 125 5 discriminator 5 view .LVU310
 125:../Switch/core/yt/yt_rate.c **** 
 1101              		.loc 1 125 5 discriminator 5 view .LVU311
 125:../Switch/core/yt/yt_rate.c **** 
 1102              		.loc 1 125 5 discriminator 5 view .LVU312
 1103 00ae 0220     		movs	r0, #2
 1104 00b0 C0E7     		b	.L89
 1105              	.LVL144:
 1106              	.L111:
 125:../Switch/core/yt/yt_rate.c **** 
 1107              		.loc 1 125 5 discriminator 3 view .LVU313
 1108              	.LBB23:
 125:../Switch/core/yt/yt_rate.c **** 
 1109              		.loc 1 125 5 discriminator 3 view .LVU314
 1110 00b2 084B     		ldr	r3, .L112+16
 1111 00b4 9A68     		ldr	r2, [r3, #8]
 1112              	.LVL145:
 125:../Switch/core/yt/yt_rate.c **** 
 1113              		.loc 1 125 5 is_stmt 0 discriminator 3 view .LVU315
 1114 00b6 084B     		ldr	r3, .L112+20
 1115 00b8 9968     		ldr	r1, [r3, #8]
 1116              	.LVL146:
 125:../Switch/core/yt/yt_rate.c **** 
 1117              		.loc 1 125 5 discriminator 3 view .LVU316
 1118 00ba 0848     		ldr	r0, .L112+24
 1119 00bc FFF7FEFF 		bl	osal_printf
 1120              	.LVL147:
 1121 00c0 F5E7     		b	.L101
 1122              	.L113:
 1123 00c2 00BF     		.align	2
 1124              	.L112:
 1125 00c4 00000000 		.word	gpfal_dispatch
 1126 00c8 00000000 		.word	gcal_inited
 1127 00cc 00000000 		.word	gpSwitchUnit
 1128 00d0 00000000 		.word	yt_debug_level
 1129 00d4 00000000 		.word	_yt_errmsg
 1130 00d8 00000000 		.word	_yt_prompt_msg
 1131 00dc 00000000 		.word	.LC0
 1132              	.LBE23:
 1133              		.cfi_endproc
 1134              	.LFE7:
 1136              		.section	.text.yt_rate_igrBandwidthCtrlRate_set,"ax",%progbits
 1137              		.align	1
 1138              		.global	yt_rate_igrBandwidthCtrlRate_set
 1139              		.syntax unified
 1140              		.thumb
 1141              		.thumb_func
 1143              	yt_rate_igrBandwidthCtrlRate_set:
 1144              	.LVL148:
 1145              	.LFB8:
 129:../Switch/core/yt/yt_rate.c **** 
 130:../Switch/core/yt/yt_rate.c **** /**
 131:../Switch/core/yt/yt_rate.c ****  * @internal      yt_rate_igrBandwidthCtrlRate_set
 132:../Switch/core/yt/yt_rate.c ****  * @endinternal
 133:../Switch/core/yt/yt_rate.c ****  *
 134:../Switch/core/yt/yt_rate.c ****  * @brief         Description
 135:../Switch/core/yt/yt_rate.c ****  * @note          APPLICABLE DEVICES  -Tiger
 136:../Switch/core/yt/yt_rate.c ****  * @param[in]     unit                -unit id
 137:../Switch/core/yt/yt_rate.c ****  * @param[in]     port                -port num
 138:../Switch/core/yt/yt_rate.c ****  * @param[in]     rate                -
 139:../Switch/core/yt/yt_rate.c ****  * @retval        CMM_ERR_OK          -on success
 140:../Switch/core/yt/yt_rate.c ****  * @retval        CMM_ERR_FAIL        -on fail
 141:../Switch/core/yt/yt_rate.c ****  */
 142:../Switch/core/yt/yt_rate.c **** yt_ret_t yt_rate_igrBandwidthCtrlRate_set(yt_unit_t unit, yt_port_t port, uint32_t rate)
 143:../Switch/core/yt/yt_rate.c **** {
 1146              		.loc 1 143 1 is_stmt 1 view -0
 1147              		.cfi_startproc
 1148              		@ args = 0, pretend = 0, frame = 0
 1149              		@ frame_needed = 0, uses_anonymous_args = 0
 1150              		.loc 1 143 1 is_stmt 0 view .LVU318
 1151 0000 08B5     		push	{r3, lr}
 1152              		.cfi_def_cfa_offset 8
 1153              		.cfi_offset 3, -8
 1154              		.cfi_offset 14, -4
 144:../Switch/core/yt/yt_rate.c ****     CMM_PARAM_CHK((YT_UNIT_NUM <= unit), CMM_ERR_INPUT);
 1155              		.loc 1 144 5 is_stmt 1 view .LVU319
 1156              		.loc 1 144 5 view .LVU320
 1157 0002 A8B9     		cbnz	r0, .L126
 1158 0004 8446     		mov	ip, r0
 1159              		.loc 1 144 5 discriminator 2 view .LVU321
 145:../Switch/core/yt/yt_rate.c ****     CMM_PARAM_CHK(NULL == YT_DISPATCH(unit), CMM_ERR_NOT_INIT);
 1160              		.loc 1 145 5 discriminator 2 view .LVU322
 1161              		.loc 1 145 5 discriminator 2 view .LVU323
 1162 0006 264B     		ldr	r3, .L133
 1163 0008 53F82030 		ldr	r3, [r3, r0, lsl #2]
 1164 000c F3B1     		cbz	r3, .L127
 1165              		.loc 1 145 5 discriminator 2 view .LVU324
 146:../Switch/core/yt/yt_rate.c ****     CMM_PARAM_CHK((!(YT_DISPATCH(unit)->is_inited)), CMM_ERR_NOT_INIT);
 1166              		.loc 1 146 5 discriminator 2 view .LVU325
 1167              		.loc 1 146 5 discriminator 2 view .LVU326
 1168 000e 1878     		ldrb	r0, [r3]	@ zero_extendqisi2
 1169              	.LVL149:
 1170              		.loc 1 146 5 is_stmt 0 discriminator 2 view .LVU327
 1171 0010 50B3     		cbz	r0, .L128
 1172              		.loc 1 146 5 is_stmt 1 discriminator 2 view .LVU328
 147:../Switch/core/yt/yt_rate.c ****     CMM_PARAM_CHK((!(CMM_PORT_VALID(unit, port))), CMM_ERR_PORT);
 1173              		.loc 1 147 5 discriminator 2 view .LVU329
 1174              		.loc 1 147 5 discriminator 2 view .LVU330
 1175 0012 2448     		ldr	r0, .L133+4
 1176 0014 0078     		ldrb	r0, [r0]	@ zero_extendqisi2
 1177 0016 0028     		cmp	r0, #0
 1178 0018 34D0     		beq	.L122
 1179 001a 2348     		ldr	r0, .L133+8
 1180 001c 50F82C00 		ldr	r0, [r0, ip, lsl #2]
 1181 0020 007D     		ldrb	r0, [r0, #20]	@ zero_extendqisi2
 1182 0022 8842     		cmp	r0, r1
 1183 0024 2ED9     		bls	.L122
 1184              		.loc 1 147 5 discriminator 4 view .LVU331
 148:../Switch/core/yt/yt_rate.c **** 
 149:../Switch/core/yt/yt_rate.c ****     return YT_DISPATCH(unit)->rate_igrBandwidthCtrlRate_set(unit, port, rate);
 1185              		.loc 1 149 5 discriminator 4 view .LVU332
 1186              		.loc 1 149 29 is_stmt 0 discriminator 4 view .LVU333
 1187 0026 D3F84832 		ldr	r3, [r3, #584]
 1188              		.loc 1 149 12 discriminator 4 view .LVU334
 1189 002a 6046     		mov	r0, ip
 1190 002c 9847     		blx	r3
 1191              	.LVL150:
 1192              	.L114:
 150:../Switch/core/yt/yt_rate.c **** }
 1193              		.loc 1 150 1 view .LVU335
 1194 002e 08BD     		pop	{r3, pc}
 1195              	.LVL151:
 1196              	.L126:
 144:../Switch/core/yt/yt_rate.c ****     CMM_PARAM_CHK(NULL == YT_DISPATCH(unit), CMM_ERR_NOT_INIT);
 1197              		.loc 1 144 5 is_stmt 1 discriminator 1 view .LVU336
 144:../Switch/core/yt/yt_rate.c ****     CMM_PARAM_CHK(NULL == YT_DISPATCH(unit), CMM_ERR_NOT_INIT);
 1198              		.loc 1 144 5 discriminator 1 view .LVU337
 1199 0030 1E4B     		ldr	r3, .L133+12
 1200 0032 1B78     		ldrb	r3, [r3]	@ zero_extendqisi2
 1201 0034 012B     		cmp	r3, #1
 1202 0036 01D8     		bhi	.L129
 1203              	.LVL152:
 1204              	.L116:
 144:../Switch/core/yt/yt_rate.c ****     CMM_PARAM_CHK(NULL == YT_DISPATCH(unit), CMM_ERR_NOT_INIT);
 1205              		.loc 1 144 5 discriminator 5 view .LVU338
 144:../Switch/core/yt/yt_rate.c ****     CMM_PARAM_CHK(NULL == YT_DISPATCH(unit), CMM_ERR_NOT_INIT);
 1206              		.loc 1 144 5 discriminator 5 view .LVU339
 144:../Switch/core/yt/yt_rate.c ****     CMM_PARAM_CHK(NULL == YT_DISPATCH(unit), CMM_ERR_NOT_INIT);
 1207              		.loc 1 144 5 discriminator 5 view .LVU340
 1208 0038 0520     		movs	r0, #5
 1209 003a F8E7     		b	.L114
 1210              	.LVL153:
 1211              	.L129:
 144:../Switch/core/yt/yt_rate.c ****     CMM_PARAM_CHK(NULL == YT_DISPATCH(unit), CMM_ERR_NOT_INIT);
 1212              		.loc 1 144 5 discriminator 3 view .LVU341
 1213              	.LBB24:
 144:../Switch/core/yt/yt_rate.c ****     CMM_PARAM_CHK(NULL == YT_DISPATCH(unit), CMM_ERR_NOT_INIT);
 1214              		.loc 1 144 5 discriminator 3 view .LVU342
 1215 003c 1C4B     		ldr	r3, .L133+16
 1216 003e 5A69     		ldr	r2, [r3, #20]
 1217              	.LVL154:
 144:../Switch/core/yt/yt_rate.c ****     CMM_PARAM_CHK(NULL == YT_DISPATCH(unit), CMM_ERR_NOT_INIT);
 1218              		.loc 1 144 5 is_stmt 0 discriminator 3 view .LVU343
 1219 0040 1C4B     		ldr	r3, .L133+20
 1220 0042 9968     		ldr	r1, [r3, #8]
 1221              	.LVL155:
 144:../Switch/core/yt/yt_rate.c ****     CMM_PARAM_CHK(NULL == YT_DISPATCH(unit), CMM_ERR_NOT_INIT);
 1222              		.loc 1 144 5 discriminator 3 view .LVU344
 1223 0044 1C48     		ldr	r0, .L133+24
 1224              	.LVL156:
 144:../Switch/core/yt/yt_rate.c ****     CMM_PARAM_CHK(NULL == YT_DISPATCH(unit), CMM_ERR_NOT_INIT);
 1225              		.loc 1 144 5 discriminator 3 view .LVU345
 1226 0046 FFF7FEFF 		bl	osal_printf
 1227              	.LVL157:
 1228 004a F5E7     		b	.L116
 1229              	.LVL158:
 1230              	.L127:
 144:../Switch/core/yt/yt_rate.c ****     CMM_PARAM_CHK(NULL == YT_DISPATCH(unit), CMM_ERR_NOT_INIT);
 1231              		.loc 1 144 5 discriminator 3 view .LVU346
 1232              	.LBE24:
 145:../Switch/core/yt/yt_rate.c ****     CMM_PARAM_CHK((!(YT_DISPATCH(unit)->is_inited)), CMM_ERR_NOT_INIT);
 1233              		.loc 1 145 5 is_stmt 1 discriminator 1 view .LVU347
 145:../Switch/core/yt/yt_rate.c ****     CMM_PARAM_CHK((!(YT_DISPATCH(unit)->is_inited)), CMM_ERR_NOT_INIT);
 1234              		.loc 1 145 5 discriminator 1 view .LVU348
 1235 004c 174B     		ldr	r3, .L133+12
 1236 004e 1B78     		ldrb	r3, [r3]	@ zero_extendqisi2
 1237 0050 012B     		cmp	r3, #1
 1238 0052 01D8     		bhi	.L130
 1239              	.LVL159:
 1240              	.L119:
 145:../Switch/core/yt/yt_rate.c ****     CMM_PARAM_CHK((!(YT_DISPATCH(unit)->is_inited)), CMM_ERR_NOT_INIT);
 1241              		.loc 1 145 5 discriminator 5 view .LVU349
 145:../Switch/core/yt/yt_rate.c ****     CMM_PARAM_CHK((!(YT_DISPATCH(unit)->is_inited)), CMM_ERR_NOT_INIT);
 1242              		.loc 1 145 5 discriminator 5 view .LVU350
 145:../Switch/core/yt/yt_rate.c ****     CMM_PARAM_CHK((!(YT_DISPATCH(unit)->is_inited)), CMM_ERR_NOT_INIT);
 1243              		.loc 1 145 5 discriminator 5 view .LVU351
 1244 0054 0420     		movs	r0, #4
 1245 0056 EAE7     		b	.L114
 1246              	.LVL160:
 1247              	.L130:
 145:../Switch/core/yt/yt_rate.c ****     CMM_PARAM_CHK((!(YT_DISPATCH(unit)->is_inited)), CMM_ERR_NOT_INIT);
 1248              		.loc 1 145 5 discriminator 3 view .LVU352
 1249              	.LBB25:
 145:../Switch/core/yt/yt_rate.c ****     CMM_PARAM_CHK((!(YT_DISPATCH(unit)->is_inited)), CMM_ERR_NOT_INIT);
 1250              		.loc 1 145 5 discriminator 3 view .LVU353
 1251 0058 154B     		ldr	r3, .L133+16
 1252 005a 1A69     		ldr	r2, [r3, #16]
 1253              	.LVL161:
 145:../Switch/core/yt/yt_rate.c ****     CMM_PARAM_CHK((!(YT_DISPATCH(unit)->is_inited)), CMM_ERR_NOT_INIT);
 1254              		.loc 1 145 5 is_stmt 0 discriminator 3 view .LVU354
 1255 005c 154B     		ldr	r3, .L133+20
 1256 005e 9968     		ldr	r1, [r3, #8]
 1257              	.LVL162:
 145:../Switch/core/yt/yt_rate.c ****     CMM_PARAM_CHK((!(YT_DISPATCH(unit)->is_inited)), CMM_ERR_NOT_INIT);
 1258              		.loc 1 145 5 discriminator 3 view .LVU355
 1259 0060 1548     		ldr	r0, .L133+24
 1260              	.LVL163:
 145:../Switch/core/yt/yt_rate.c ****     CMM_PARAM_CHK((!(YT_DISPATCH(unit)->is_inited)), CMM_ERR_NOT_INIT);
 1261              		.loc 1 145 5 discriminator 3 view .LVU356
 1262 0062 FFF7FEFF 		bl	osal_printf
 1263              	.LVL164:
 1264 0066 F5E7     		b	.L119
 1265              	.LVL165:
 1266              	.L128:
 145:../Switch/core/yt/yt_rate.c ****     CMM_PARAM_CHK((!(YT_DISPATCH(unit)->is_inited)), CMM_ERR_NOT_INIT);
 1267              		.loc 1 145 5 discriminator 3 view .LVU357
 1268              	.LBE25:
 146:../Switch/core/yt/yt_rate.c ****     CMM_PARAM_CHK((!(CMM_PORT_VALID(unit, port))), CMM_ERR_PORT);
 1269              		.loc 1 146 5 is_stmt 1 discriminator 1 view .LVU358
 146:../Switch/core/yt/yt_rate.c ****     CMM_PARAM_CHK((!(CMM_PORT_VALID(unit, port))), CMM_ERR_PORT);
 1270              		.loc 1 146 5 discriminator 1 view .LVU359
 1271 0068 104B     		ldr	r3, .L133+12
 1272 006a 1B78     		ldrb	r3, [r3]	@ zero_extendqisi2
 1273 006c 012B     		cmp	r3, #1
 1274 006e 01D8     		bhi	.L131
 1275              	.LVL166:
 1276              	.L121:
 146:../Switch/core/yt/yt_rate.c ****     CMM_PARAM_CHK((!(CMM_PORT_VALID(unit, port))), CMM_ERR_PORT);
 1277              		.loc 1 146 5 discriminator 5 view .LVU360
 146:../Switch/core/yt/yt_rate.c ****     CMM_PARAM_CHK((!(CMM_PORT_VALID(unit, port))), CMM_ERR_PORT);
 1278              		.loc 1 146 5 discriminator 5 view .LVU361
 146:../Switch/core/yt/yt_rate.c ****     CMM_PARAM_CHK((!(CMM_PORT_VALID(unit, port))), CMM_ERR_PORT);
 1279              		.loc 1 146 5 discriminator 5 view .LVU362
 1280 0070 0420     		movs	r0, #4
 1281 0072 DCE7     		b	.L114
 1282              	.LVL167:
 1283              	.L131:
 146:../Switch/core/yt/yt_rate.c ****     CMM_PARAM_CHK((!(CMM_PORT_VALID(unit, port))), CMM_ERR_PORT);
 1284              		.loc 1 146 5 discriminator 3 view .LVU363
 1285              	.LBB26:
 146:../Switch/core/yt/yt_rate.c ****     CMM_PARAM_CHK((!(CMM_PORT_VALID(unit, port))), CMM_ERR_PORT);
 1286              		.loc 1 146 5 discriminator 3 view .LVU364
 1287 0074 0E4B     		ldr	r3, .L133+16
 1288 0076 1A69     		ldr	r2, [r3, #16]
 1289              	.LVL168:
 146:../Switch/core/yt/yt_rate.c ****     CMM_PARAM_CHK((!(CMM_PORT_VALID(unit, port))), CMM_ERR_PORT);
 1290              		.loc 1 146 5 is_stmt 0 discriminator 3 view .LVU365
 1291 0078 0E4B     		ldr	r3, .L133+20
 1292 007a 9968     		ldr	r1, [r3, #8]
 1293              	.LVL169:
 146:../Switch/core/yt/yt_rate.c ****     CMM_PARAM_CHK((!(CMM_PORT_VALID(unit, port))), CMM_ERR_PORT);
 1294              		.loc 1 146 5 discriminator 3 view .LVU366
 1295 007c 0E48     		ldr	r0, .L133+24
 1296 007e FFF7FEFF 		bl	osal_printf
 1297              	.LVL170:
 1298 0082 F5E7     		b	.L121
 1299              	.LVL171:
 1300              	.L122:
 146:../Switch/core/yt/yt_rate.c ****     CMM_PARAM_CHK((!(CMM_PORT_VALID(unit, port))), CMM_ERR_PORT);
 1301              		.loc 1 146 5 discriminator 3 view .LVU367
 1302              	.LBE26:
 147:../Switch/core/yt/yt_rate.c **** 
 1303              		.loc 1 147 5 is_stmt 1 discriminator 3 view .LVU368
 147:../Switch/core/yt/yt_rate.c **** 
 1304              		.loc 1 147 5 discriminator 3 view .LVU369
 1305 0084 094B     		ldr	r3, .L133+12
 1306 0086 1B78     		ldrb	r3, [r3]	@ zero_extendqisi2
 1307 0088 012B     		cmp	r3, #1
 1308 008a 01D8     		bhi	.L132
 1309              	.LVL172:
 1310              	.L124:
 147:../Switch/core/yt/yt_rate.c **** 
 1311              		.loc 1 147 5 discriminator 7 view .LVU370
 147:../Switch/core/yt/yt_rate.c **** 
 1312              		.loc 1 147 5 discriminator 7 view .LVU371
 147:../Switch/core/yt/yt_rate.c **** 
 1313              		.loc 1 147 5 discriminator 7 view .LVU372
 1314 008c 0E20     		movs	r0, #14
 1315 008e CEE7     		b	.L114
 1316              	.LVL173:
 1317              	.L132:
 147:../Switch/core/yt/yt_rate.c **** 
 1318              		.loc 1 147 5 discriminator 5 view .LVU373
 1319              	.LBB27:
 147:../Switch/core/yt/yt_rate.c **** 
 1320              		.loc 1 147 5 discriminator 5 view .LVU374
 1321 0090 074B     		ldr	r3, .L133+16
 1322 0092 9A6B     		ldr	r2, [r3, #56]
 1323              	.LVL174:
 147:../Switch/core/yt/yt_rate.c **** 
 1324              		.loc 1 147 5 is_stmt 0 discriminator 5 view .LVU375
 1325 0094 074B     		ldr	r3, .L133+20
 1326 0096 9968     		ldr	r1, [r3, #8]
 1327              	.LVL175:
 147:../Switch/core/yt/yt_rate.c **** 
 1328              		.loc 1 147 5 discriminator 5 view .LVU376
 1329 0098 0748     		ldr	r0, .L133+24
 1330 009a FFF7FEFF 		bl	osal_printf
 1331              	.LVL176:
 1332 009e F5E7     		b	.L124
 1333              	.L134:
 1334              		.align	2
 1335              	.L133:
 1336 00a0 00000000 		.word	gpfal_dispatch
 1337 00a4 00000000 		.word	gcal_inited
 1338 00a8 00000000 		.word	gpSwitchUnit
 1339 00ac 00000000 		.word	yt_debug_level
 1340 00b0 00000000 		.word	_yt_errmsg
 1341 00b4 00000000 		.word	_yt_prompt_msg
 1342 00b8 00000000 		.word	.LC0
 1343              	.LBE27:
 1344              		.cfi_endproc
 1345              	.LFE8:
 1347              		.section	.text.yt_rate_igrBandwidthCtrlRate_get,"ax",%progbits
 1348              		.align	1
 1349              		.global	yt_rate_igrBandwidthCtrlRate_get
 1350              		.syntax unified
 1351              		.thumb
 1352              		.thumb_func
 1354              	yt_rate_igrBandwidthCtrlRate_get:
 1355              	.LVL177:
 1356              	.LFB9:
 151:../Switch/core/yt/yt_rate.c **** 
 152:../Switch/core/yt/yt_rate.c **** /**
 153:../Switch/core/yt/yt_rate.c ****  * @internal      yt_rate_igrBandwidthCtrlRate_get
 154:../Switch/core/yt/yt_rate.c ****  * @endinternal
 155:../Switch/core/yt/yt_rate.c ****  *
 156:../Switch/core/yt/yt_rate.c ****  * @brief         Description
 157:../Switch/core/yt/yt_rate.c ****  * @note          APPLICABLE DEVICES  -Tiger
 158:../Switch/core/yt/yt_rate.c ****  * @param[in]     unit                -unit id
 159:../Switch/core/yt/yt_rate.c ****  * @param[in]     port                -port num
 160:../Switch/core/yt/yt_rate.c ****  * @param[out]    pRate               -
 161:../Switch/core/yt/yt_rate.c ****  * @retval        CMM_ERR_OK          -on success
 162:../Switch/core/yt/yt_rate.c ****  * @retval        CMM_ERR_FAIL        -on fail
 163:../Switch/core/yt/yt_rate.c ****  */
 164:../Switch/core/yt/yt_rate.c **** yt_ret_t yt_rate_igrBandwidthCtrlRate_get(yt_unit_t unit, yt_port_t port, uint32_t *pRate)
 165:../Switch/core/yt/yt_rate.c **** {
 1357              		.loc 1 165 1 is_stmt 1 view -0
 1358              		.cfi_startproc
 1359              		@ args = 0, pretend = 0, frame = 0
 1360              		@ frame_needed = 0, uses_anonymous_args = 0
 1361              		.loc 1 165 1 is_stmt 0 view .LVU378
 1362 0000 08B5     		push	{r3, lr}
 1363              		.cfi_def_cfa_offset 8
 1364              		.cfi_offset 3, -8
 1365              		.cfi_offset 14, -4
 166:../Switch/core/yt/yt_rate.c ****     CMM_PARAM_CHK((YT_UNIT_NUM <= unit), CMM_ERR_INPUT);
 1366              		.loc 1 166 5 is_stmt 1 view .LVU379
 1367              		.loc 1 166 5 view .LVU380
 1368 0002 C0B9     		cbnz	r0, .L149
 1369 0004 8446     		mov	ip, r0
 1370              		.loc 1 166 5 discriminator 2 view .LVU381
 167:../Switch/core/yt/yt_rate.c ****     CMM_PARAM_CHK(NULL == YT_DISPATCH(unit), CMM_ERR_NOT_INIT);
 1371              		.loc 1 167 5 discriminator 2 view .LVU382
 1372              		.loc 1 167 5 discriminator 2 view .LVU383
 1373 0006 2F4B     		ldr	r3, .L158
 1374 0008 53F82030 		ldr	r3, [r3, r0, lsl #2]
 1375 000c 0BB3     		cbz	r3, .L150
 1376              		.loc 1 167 5 discriminator 2 view .LVU384
 168:../Switch/core/yt/yt_rate.c ****     CMM_PARAM_CHK((!(YT_DISPATCH(unit)->is_inited)), CMM_ERR_NOT_INIT);
 1377              		.loc 1 168 5 discriminator 2 view .LVU385
 1378              		.loc 1 168 5 discriminator 2 view .LVU386
 1379 000e 1878     		ldrb	r0, [r3]	@ zero_extendqisi2
 1380              	.LVL178:
 1381              		.loc 1 168 5 is_stmt 0 discriminator 2 view .LVU387
 1382 0010 0028     		cmp	r0, #0
 1383 0012 2CD0     		beq	.L151
 1384              		.loc 1 168 5 is_stmt 1 discriminator 2 view .LVU388
 169:../Switch/core/yt/yt_rate.c ****     CMM_PARAM_CHK((!(CMM_PORT_VALID(unit, port))), CMM_ERR_PORT);
 1385              		.loc 1 169 5 discriminator 2 view .LVU389
 1386              		.loc 1 169 5 discriminator 2 view .LVU390
 1387 0014 2C48     		ldr	r0, .L158+4
 1388 0016 0078     		ldrb	r0, [r0]	@ zero_extendqisi2
 1389 0018 0028     		cmp	r0, #0
 1390 001a 36D0     		beq	.L143
 1391 001c 2B48     		ldr	r0, .L158+8
 1392 001e 50F82C00 		ldr	r0, [r0, ip, lsl #2]
 1393 0022 007D     		ldrb	r0, [r0, #20]	@ zero_extendqisi2
 1394 0024 8842     		cmp	r0, r1
 1395 0026 30D9     		bls	.L143
 1396              		.loc 1 169 5 discriminator 4 view .LVU391
 170:../Switch/core/yt/yt_rate.c ****     CMM_PARAM_CHK((NULL == pRate), CMM_ERR_NULL_POINT);
 1397              		.loc 1 170 5 discriminator 4 view .LVU392
 1398              		.loc 1 170 5 discriminator 4 view .LVU393
 1399 0028 002A     		cmp	r2, #0
 1400 002a 3CD0     		beq	.L152
 1401              		.loc 1 170 5 discriminator 2 view .LVU394
 171:../Switch/core/yt/yt_rate.c **** 
 172:../Switch/core/yt/yt_rate.c ****     return YT_DISPATCH(unit)->rate_igrBandwidthCtrlRate_get(unit, port, pRate);
 1402              		.loc 1 172 5 discriminator 2 view .LVU395
 1403              		.loc 1 172 29 is_stmt 0 discriminator 2 view .LVU396
 1404 002c D3F84C32 		ldr	r3, [r3, #588]
 1405              		.loc 1 172 12 discriminator 2 view .LVU397
 1406 0030 6046     		mov	r0, ip
 1407 0032 9847     		blx	r3
 1408              	.LVL179:
 1409              	.L135:
 173:../Switch/core/yt/yt_rate.c **** }
 1410              		.loc 1 173 1 view .LVU398
 1411 0034 08BD     		pop	{r3, pc}
 1412              	.LVL180:
 1413              	.L149:
 166:../Switch/core/yt/yt_rate.c ****     CMM_PARAM_CHK(NULL == YT_DISPATCH(unit), CMM_ERR_NOT_INIT);
 1414              		.loc 1 166 5 is_stmt 1 discriminator 1 view .LVU399
 166:../Switch/core/yt/yt_rate.c ****     CMM_PARAM_CHK(NULL == YT_DISPATCH(unit), CMM_ERR_NOT_INIT);
 1415              		.loc 1 166 5 discriminator 1 view .LVU400
 1416 0036 264B     		ldr	r3, .L158+12
 1417 0038 1B78     		ldrb	r3, [r3]	@ zero_extendqisi2
 1418 003a 012B     		cmp	r3, #1
 1419 003c 01D8     		bhi	.L153
 1420              	.LVL181:
 1421              	.L137:
 166:../Switch/core/yt/yt_rate.c ****     CMM_PARAM_CHK(NULL == YT_DISPATCH(unit), CMM_ERR_NOT_INIT);
 1422              		.loc 1 166 5 discriminator 5 view .LVU401
 166:../Switch/core/yt/yt_rate.c ****     CMM_PARAM_CHK(NULL == YT_DISPATCH(unit), CMM_ERR_NOT_INIT);
 1423              		.loc 1 166 5 discriminator 5 view .LVU402
 166:../Switch/core/yt/yt_rate.c ****     CMM_PARAM_CHK(NULL == YT_DISPATCH(unit), CMM_ERR_NOT_INIT);
 1424              		.loc 1 166 5 discriminator 5 view .LVU403
 1425 003e 0520     		movs	r0, #5
 1426 0040 F8E7     		b	.L135
 1427              	.LVL182:
 1428              	.L153:
 166:../Switch/core/yt/yt_rate.c ****     CMM_PARAM_CHK(NULL == YT_DISPATCH(unit), CMM_ERR_NOT_INIT);
 1429              		.loc 1 166 5 discriminator 3 view .LVU404
 1430              	.LBB28:
 166:../Switch/core/yt/yt_rate.c ****     CMM_PARAM_CHK(NULL == YT_DISPATCH(unit), CMM_ERR_NOT_INIT);
 1431              		.loc 1 166 5 discriminator 3 view .LVU405
 1432 0042 244B     		ldr	r3, .L158+16
 1433 0044 5A69     		ldr	r2, [r3, #20]
 1434              	.LVL183:
 166:../Switch/core/yt/yt_rate.c ****     CMM_PARAM_CHK(NULL == YT_DISPATCH(unit), CMM_ERR_NOT_INIT);
 1435              		.loc 1 166 5 is_stmt 0 discriminator 3 view .LVU406
 1436 0046 244B     		ldr	r3, .L158+20
 1437 0048 9968     		ldr	r1, [r3, #8]
 1438              	.LVL184:
 166:../Switch/core/yt/yt_rate.c ****     CMM_PARAM_CHK(NULL == YT_DISPATCH(unit), CMM_ERR_NOT_INIT);
 1439              		.loc 1 166 5 discriminator 3 view .LVU407
 1440 004a 2448     		ldr	r0, .L158+24
 1441              	.LVL185:
 166:../Switch/core/yt/yt_rate.c ****     CMM_PARAM_CHK(NULL == YT_DISPATCH(unit), CMM_ERR_NOT_INIT);
 1442              		.loc 1 166 5 discriminator 3 view .LVU408
 1443 004c FFF7FEFF 		bl	osal_printf
 1444              	.LVL186:
 1445 0050 F5E7     		b	.L137
 1446              	.LVL187:
 1447              	.L150:
 166:../Switch/core/yt/yt_rate.c ****     CMM_PARAM_CHK(NULL == YT_DISPATCH(unit), CMM_ERR_NOT_INIT);
 1448              		.loc 1 166 5 discriminator 3 view .LVU409
 1449              	.LBE28:
 167:../Switch/core/yt/yt_rate.c ****     CMM_PARAM_CHK((!(YT_DISPATCH(unit)->is_inited)), CMM_ERR_NOT_INIT);
 1450              		.loc 1 167 5 is_stmt 1 discriminator 1 view .LVU410
 167:../Switch/core/yt/yt_rate.c ****     CMM_PARAM_CHK((!(YT_DISPATCH(unit)->is_inited)), CMM_ERR_NOT_INIT);
 1451              		.loc 1 167 5 discriminator 1 view .LVU411
 1452 0052 1F4B     		ldr	r3, .L158+12
 1453 0054 1B78     		ldrb	r3, [r3]	@ zero_extendqisi2
 1454 0056 012B     		cmp	r3, #1
 1455 0058 01D8     		bhi	.L154
 1456              	.LVL188:
 1457              	.L140:
 167:../Switch/core/yt/yt_rate.c ****     CMM_PARAM_CHK((!(YT_DISPATCH(unit)->is_inited)), CMM_ERR_NOT_INIT);
 1458              		.loc 1 167 5 discriminator 5 view .LVU412
 167:../Switch/core/yt/yt_rate.c ****     CMM_PARAM_CHK((!(YT_DISPATCH(unit)->is_inited)), CMM_ERR_NOT_INIT);
 1459              		.loc 1 167 5 discriminator 5 view .LVU413
 167:../Switch/core/yt/yt_rate.c ****     CMM_PARAM_CHK((!(YT_DISPATCH(unit)->is_inited)), CMM_ERR_NOT_INIT);
 1460              		.loc 1 167 5 discriminator 5 view .LVU414
 1461 005a 0420     		movs	r0, #4
 1462 005c EAE7     		b	.L135
 1463              	.LVL189:
 1464              	.L154:
 167:../Switch/core/yt/yt_rate.c ****     CMM_PARAM_CHK((!(YT_DISPATCH(unit)->is_inited)), CMM_ERR_NOT_INIT);
 1465              		.loc 1 167 5 discriminator 3 view .LVU415
 1466              	.LBB29:
 167:../Switch/core/yt/yt_rate.c ****     CMM_PARAM_CHK((!(YT_DISPATCH(unit)->is_inited)), CMM_ERR_NOT_INIT);
 1467              		.loc 1 167 5 discriminator 3 view .LVU416
 1468 005e 1D4B     		ldr	r3, .L158+16
 1469 0060 1A69     		ldr	r2, [r3, #16]
 1470              	.LVL190:
 167:../Switch/core/yt/yt_rate.c ****     CMM_PARAM_CHK((!(YT_DISPATCH(unit)->is_inited)), CMM_ERR_NOT_INIT);
 1471              		.loc 1 167 5 is_stmt 0 discriminator 3 view .LVU417
 1472 0062 1D4B     		ldr	r3, .L158+20
 1473 0064 9968     		ldr	r1, [r3, #8]
 1474              	.LVL191:
 167:../Switch/core/yt/yt_rate.c ****     CMM_PARAM_CHK((!(YT_DISPATCH(unit)->is_inited)), CMM_ERR_NOT_INIT);
 1475              		.loc 1 167 5 discriminator 3 view .LVU418
 1476 0066 1D48     		ldr	r0, .L158+24
 1477              	.LVL192:
 167:../Switch/core/yt/yt_rate.c ****     CMM_PARAM_CHK((!(YT_DISPATCH(unit)->is_inited)), CMM_ERR_NOT_INIT);
 1478              		.loc 1 167 5 discriminator 3 view .LVU419
 1479 0068 FFF7FEFF 		bl	osal_printf
 1480              	.LVL193:
 1481 006c F5E7     		b	.L140
 1482              	.LVL194:
 1483              	.L151:
 167:../Switch/core/yt/yt_rate.c ****     CMM_PARAM_CHK((!(YT_DISPATCH(unit)->is_inited)), CMM_ERR_NOT_INIT);
 1484              		.loc 1 167 5 discriminator 3 view .LVU420
 1485              	.LBE29:
 168:../Switch/core/yt/yt_rate.c ****     CMM_PARAM_CHK((!(CMM_PORT_VALID(unit, port))), CMM_ERR_PORT);
 1486              		.loc 1 168 5 is_stmt 1 discriminator 1 view .LVU421
 168:../Switch/core/yt/yt_rate.c ****     CMM_PARAM_CHK((!(CMM_PORT_VALID(unit, port))), CMM_ERR_PORT);
 1487              		.loc 1 168 5 discriminator 1 view .LVU422
 1488 006e 184B     		ldr	r3, .L158+12
 1489 0070 1B78     		ldrb	r3, [r3]	@ zero_extendqisi2
 1490 0072 012B     		cmp	r3, #1
 1491 0074 01D8     		bhi	.L155
 1492              	.LVL195:
 1493              	.L142:
 168:../Switch/core/yt/yt_rate.c ****     CMM_PARAM_CHK((!(CMM_PORT_VALID(unit, port))), CMM_ERR_PORT);
 1494              		.loc 1 168 5 discriminator 5 view .LVU423
 168:../Switch/core/yt/yt_rate.c ****     CMM_PARAM_CHK((!(CMM_PORT_VALID(unit, port))), CMM_ERR_PORT);
 1495              		.loc 1 168 5 discriminator 5 view .LVU424
 168:../Switch/core/yt/yt_rate.c ****     CMM_PARAM_CHK((!(CMM_PORT_VALID(unit, port))), CMM_ERR_PORT);
 1496              		.loc 1 168 5 discriminator 5 view .LVU425
 1497 0076 0420     		movs	r0, #4
 1498 0078 DCE7     		b	.L135
 1499              	.LVL196:
 1500              	.L155:
 168:../Switch/core/yt/yt_rate.c ****     CMM_PARAM_CHK((!(CMM_PORT_VALID(unit, port))), CMM_ERR_PORT);
 1501              		.loc 1 168 5 discriminator 3 view .LVU426
 1502              	.LBB30:
 168:../Switch/core/yt/yt_rate.c ****     CMM_PARAM_CHK((!(CMM_PORT_VALID(unit, port))), CMM_ERR_PORT);
 1503              		.loc 1 168 5 discriminator 3 view .LVU427
 1504 007a 164B     		ldr	r3, .L158+16
 1505 007c 1A69     		ldr	r2, [r3, #16]
 1506              	.LVL197:
 168:../Switch/core/yt/yt_rate.c ****     CMM_PARAM_CHK((!(CMM_PORT_VALID(unit, port))), CMM_ERR_PORT);
 1507              		.loc 1 168 5 is_stmt 0 discriminator 3 view .LVU428
 1508 007e 164B     		ldr	r3, .L158+20
 1509 0080 9968     		ldr	r1, [r3, #8]
 1510              	.LVL198:
 168:../Switch/core/yt/yt_rate.c ****     CMM_PARAM_CHK((!(CMM_PORT_VALID(unit, port))), CMM_ERR_PORT);
 1511              		.loc 1 168 5 discriminator 3 view .LVU429
 1512 0082 1648     		ldr	r0, .L158+24
 1513 0084 FFF7FEFF 		bl	osal_printf
 1514              	.LVL199:
 1515 0088 F5E7     		b	.L142
 1516              	.LVL200:
 1517              	.L143:
 168:../Switch/core/yt/yt_rate.c ****     CMM_PARAM_CHK((!(CMM_PORT_VALID(unit, port))), CMM_ERR_PORT);
 1518              		.loc 1 168 5 discriminator 3 view .LVU430
 1519              	.LBE30:
 169:../Switch/core/yt/yt_rate.c ****     CMM_PARAM_CHK((NULL == pRate), CMM_ERR_NULL_POINT);
 1520              		.loc 1 169 5 is_stmt 1 discriminator 3 view .LVU431
 169:../Switch/core/yt/yt_rate.c ****     CMM_PARAM_CHK((NULL == pRate), CMM_ERR_NULL_POINT);
 1521              		.loc 1 169 5 discriminator 3 view .LVU432
 1522 008a 114B     		ldr	r3, .L158+12
 1523 008c 1B78     		ldrb	r3, [r3]	@ zero_extendqisi2
 1524 008e 012B     		cmp	r3, #1
 1525 0090 01D8     		bhi	.L156
 1526              	.LVL201:
 1527              	.L145:
 169:../Switch/core/yt/yt_rate.c ****     CMM_PARAM_CHK((NULL == pRate), CMM_ERR_NULL_POINT);
 1528              		.loc 1 169 5 discriminator 7 view .LVU433
 169:../Switch/core/yt/yt_rate.c ****     CMM_PARAM_CHK((NULL == pRate), CMM_ERR_NULL_POINT);
 1529              		.loc 1 169 5 discriminator 7 view .LVU434
 169:../Switch/core/yt/yt_rate.c ****     CMM_PARAM_CHK((NULL == pRate), CMM_ERR_NULL_POINT);
 1530              		.loc 1 169 5 discriminator 7 view .LVU435
 1531 0092 0E20     		movs	r0, #14
 1532 0094 CEE7     		b	.L135
 1533              	.LVL202:
 1534              	.L156:
 169:../Switch/core/yt/yt_rate.c ****     CMM_PARAM_CHK((NULL == pRate), CMM_ERR_NULL_POINT);
 1535              		.loc 1 169 5 discriminator 5 view .LVU436
 1536              	.LBB31:
 169:../Switch/core/yt/yt_rate.c ****     CMM_PARAM_CHK((NULL == pRate), CMM_ERR_NULL_POINT);
 1537              		.loc 1 169 5 discriminator 5 view .LVU437
 1538 0096 0F4B     		ldr	r3, .L158+16
 1539 0098 9A6B     		ldr	r2, [r3, #56]
 1540              	.LVL203:
 169:../Switch/core/yt/yt_rate.c ****     CMM_PARAM_CHK((NULL == pRate), CMM_ERR_NULL_POINT);
 1541              		.loc 1 169 5 is_stmt 0 discriminator 5 view .LVU438
 1542 009a 0F4B     		ldr	r3, .L158+20
 1543 009c 9968     		ldr	r1, [r3, #8]
 1544              	.LVL204:
 169:../Switch/core/yt/yt_rate.c ****     CMM_PARAM_CHK((NULL == pRate), CMM_ERR_NULL_POINT);
 1545              		.loc 1 169 5 discriminator 5 view .LVU439
 1546 009e 0F48     		ldr	r0, .L158+24
 1547 00a0 FFF7FEFF 		bl	osal_printf
 1548              	.LVL205:
 1549 00a4 F5E7     		b	.L145
 1550              	.LVL206:
 1551              	.L152:
 169:../Switch/core/yt/yt_rate.c ****     CMM_PARAM_CHK((NULL == pRate), CMM_ERR_NULL_POINT);
 1552              		.loc 1 169 5 discriminator 5 view .LVU440
 1553              	.LBE31:
 170:../Switch/core/yt/yt_rate.c **** 
 1554              		.loc 1 170 5 is_stmt 1 discriminator 1 view .LVU441
 170:../Switch/core/yt/yt_rate.c **** 
 1555              		.loc 1 170 5 discriminator 1 view .LVU442
 1556 00a6 0A4B     		ldr	r3, .L158+12
 1557 00a8 1B78     		ldrb	r3, [r3]	@ zero_extendqisi2
 1558 00aa 012B     		cmp	r3, #1
 1559 00ac 01D8     		bhi	.L157
 1560              	.LVL207:
 1561              	.L147:
 170:../Switch/core/yt/yt_rate.c **** 
 1562              		.loc 1 170 5 discriminator 5 view .LVU443
 170:../Switch/core/yt/yt_rate.c **** 
 1563              		.loc 1 170 5 discriminator 5 view .LVU444
 170:../Switch/core/yt/yt_rate.c **** 
 1564              		.loc 1 170 5 discriminator 5 view .LVU445
 1565 00ae 0220     		movs	r0, #2
 1566 00b0 C0E7     		b	.L135
 1567              	.LVL208:
 1568              	.L157:
 170:../Switch/core/yt/yt_rate.c **** 
 1569              		.loc 1 170 5 discriminator 3 view .LVU446
 1570              	.LBB32:
 170:../Switch/core/yt/yt_rate.c **** 
 1571              		.loc 1 170 5 discriminator 3 view .LVU447
 1572 00b2 084B     		ldr	r3, .L158+16
 1573 00b4 9A68     		ldr	r2, [r3, #8]
 1574              	.LVL209:
 170:../Switch/core/yt/yt_rate.c **** 
 1575              		.loc 1 170 5 is_stmt 0 discriminator 3 view .LVU448
 1576 00b6 084B     		ldr	r3, .L158+20
 1577 00b8 9968     		ldr	r1, [r3, #8]
 1578              	.LVL210:
 170:../Switch/core/yt/yt_rate.c **** 
 1579              		.loc 1 170 5 discriminator 3 view .LVU449
 1580 00ba 0848     		ldr	r0, .L158+24
 1581 00bc FFF7FEFF 		bl	osal_printf
 1582              	.LVL211:
 1583 00c0 F5E7     		b	.L147
 1584              	.L159:
 1585 00c2 00BF     		.align	2
 1586              	.L158:
 1587 00c4 00000000 		.word	gpfal_dispatch
 1588 00c8 00000000 		.word	gcal_inited
 1589 00cc 00000000 		.word	gpSwitchUnit
 1590 00d0 00000000 		.word	yt_debug_level
 1591 00d4 00000000 		.word	_yt_errmsg
 1592 00d8 00000000 		.word	_yt_prompt_msg
 1593 00dc 00000000 		.word	.LC0
 1594              	.LBE32:
 1595              		.cfi_endproc
 1596              	.LFE9:
 1598              		.section	.text.yt_rate_meter_vlan_enable_set,"ax",%progbits
 1599              		.align	1
 1600              		.global	yt_rate_meter_vlan_enable_set
 1601              		.syntax unified
 1602              		.thumb
 1603              		.thumb_func
 1605              	yt_rate_meter_vlan_enable_set:
 1606              	.LVL212:
 1607              	.LFB10:
 174:../Switch/core/yt/yt_rate.c **** 
 175:../Switch/core/yt/yt_rate.c **** /**
 176:../Switch/core/yt/yt_rate.c ****  * @internal      yt_rate_meter_vlan_enable_set
 177:../Switch/core/yt/yt_rate.c ****  * @endinternal
 178:../Switch/core/yt/yt_rate.c ****  *
 179:../Switch/core/yt/yt_rate.c ****  * @brief         Description
 180:../Switch/core/yt/yt_rate.c ****  * @note          APPLICABLE DEVICES  -Tiger
 181:../Switch/core/yt/yt_rate.c ****  * @param[in]     unit                -unit id
 182:../Switch/core/yt/yt_rate.c ****  * @param[in]     vid                 -vlan id
 183:../Switch/core/yt/yt_rate.c ****  * @param[in]     meter_id            -meter id, can access meter tbl by it
 184:../Switch/core/yt/yt_rate.c ****  * @param[in]     enable              -enable or disable
 185:../Switch/core/yt/yt_rate.c ****  * @retval        CMM_ERR_OK          -on success
 186:../Switch/core/yt/yt_rate.c ****  * @retval        CMM_ERR_FAIL        -on fail
 187:../Switch/core/yt/yt_rate.c ****  */
 188:../Switch/core/yt/yt_rate.c **** yt_ret_t yt_rate_meter_vlan_enable_set(yt_unit_t unit, yt_vlan_t vid, yt_meterid_t meter_id, yt_ena
 189:../Switch/core/yt/yt_rate.c **** {
 1608              		.loc 1 189 1 is_stmt 1 view -0
 1609              		.cfi_startproc
 1610              		@ args = 0, pretend = 0, frame = 0
 1611              		@ frame_needed = 0, uses_anonymous_args = 0
 1612              		.loc 1 189 1 is_stmt 0 view .LVU451
 1613 0000 10B5     		push	{r4, lr}
 1614              		.cfi_def_cfa_offset 8
 1615              		.cfi_offset 4, -8
 1616              		.cfi_offset 14, -4
 190:../Switch/core/yt/yt_rate.c ****     CMM_PARAM_CHK((YT_UNIT_NUM <= unit), CMM_ERR_INPUT);
 1617              		.loc 1 190 5 is_stmt 1 view .LVU452
 1618              		.loc 1 190 5 view .LVU453
 1619 0002 80B9     		cbnz	r0, .L173
 1620 0004 8446     		mov	ip, r0
 1621              		.loc 1 190 5 discriminator 2 view .LVU454
 191:../Switch/core/yt/yt_rate.c ****     CMM_PARAM_CHK(NULL == YT_DISPATCH(unit), CMM_ERR_NOT_INIT);
 1622              		.loc 1 191 5 discriminator 2 view .LVU455
 1623              		.loc 1 191 5 discriminator 2 view .LVU456
 1624 0006 2B48     		ldr	r0, .L183
 1625              	.LVL213:
 1626              		.loc 1 191 5 is_stmt 0 discriminator 2 view .LVU457
 1627 0008 50F82C40 		ldr	r4, [r0, ip, lsl #2]
 1628 000c CCB1     		cbz	r4, .L174
 1629              		.loc 1 191 5 is_stmt 1 discriminator 2 view .LVU458
 192:../Switch/core/yt/yt_rate.c ****     CMM_PARAM_CHK((!(YT_DISPATCH(unit)->is_inited)), CMM_ERR_NOT_INIT);
 1630              		.loc 1 192 5 discriminator 2 view .LVU459
 1631              		.loc 1 192 5 discriminator 2 view .LVU460
 1632 000e 2078     		ldrb	r0, [r4]	@ zero_extendqisi2
 1633 0010 28B3     		cbz	r0, .L175
 1634              		.loc 1 192 5 discriminator 2 view .LVU461
 193:../Switch/core/yt/yt_rate.c ****     CMM_PARAM_CHK((YT_VLAN_ID_MAX < vid), CMM_ERR_EXCEED_RANGE);
 1635              		.loc 1 193 5 discriminator 2 view .LVU462
 1636              		.loc 1 193 5 discriminator 2 view .LVU463
 1637 0012 B1F5805F 		cmp	r1, #4096
 1638 0016 30D2     		bcs	.L176
 1639              		.loc 1 193 5 discriminator 2 view .LVU464
 194:../Switch/core/yt/yt_rate.c ****     CMM_PARAM_CHK((YT_ENABLE < enable || YT_DISABLE > enable), CMM_ERR_INPUT);
 1640              		.loc 1 194 5 discriminator 2 view .LVU465
 1641              		.loc 1 194 5 discriminator 2 view .LVU466
 1642 0018 012B     		cmp	r3, #1
 1643 001a 3CD8     		bhi	.L177
 1644              		.loc 1 194 5 discriminator 2 view .LVU467
 195:../Switch/core/yt/yt_rate.c **** 
 196:../Switch/core/yt/yt_rate.c ****     return YT_DISPATCH(unit)->rate_meter_vlan_enable_set(unit, vid, meter_id, enable);
 1645              		.loc 1 196 5 discriminator 2 view .LVU468
 1646              		.loc 1 196 29 is_stmt 0 discriminator 2 view .LVU469
 1647 001c D4F85042 		ldr	r4, [r4, #592]
 1648              		.loc 1 196 12 discriminator 2 view .LVU470
 1649 0020 6046     		mov	r0, ip
 1650 0022 A047     		blx	r4
 1651              	.LVL214:
 1652              	.L160:
 197:../Switch/core/yt/yt_rate.c **** }
 1653              		.loc 1 197 1 view .LVU471
 1654 0024 10BD     		pop	{r4, pc}
 1655              	.LVL215:
 1656              	.L173:
 190:../Switch/core/yt/yt_rate.c ****     CMM_PARAM_CHK(NULL == YT_DISPATCH(unit), CMM_ERR_NOT_INIT);
 1657              		.loc 1 190 5 is_stmt 1 discriminator 1 view .LVU472
 190:../Switch/core/yt/yt_rate.c ****     CMM_PARAM_CHK(NULL == YT_DISPATCH(unit), CMM_ERR_NOT_INIT);
 1658              		.loc 1 190 5 discriminator 1 view .LVU473
 1659 0026 244B     		ldr	r3, .L183+4
 1660              	.LVL216:
 190:../Switch/core/yt/yt_rate.c ****     CMM_PARAM_CHK(NULL == YT_DISPATCH(unit), CMM_ERR_NOT_INIT);
 1661              		.loc 1 190 5 is_stmt 0 discriminator 1 view .LVU474
 1662 0028 1B78     		ldrb	r3, [r3]	@ zero_extendqisi2
 1663 002a 012B     		cmp	r3, #1
 1664 002c 01D8     		bhi	.L178
 1665              	.LVL217:
 1666              	.L162:
 190:../Switch/core/yt/yt_rate.c ****     CMM_PARAM_CHK(NULL == YT_DISPATCH(unit), CMM_ERR_NOT_INIT);
 1667              		.loc 1 190 5 is_stmt 1 discriminator 5 view .LVU475
 190:../Switch/core/yt/yt_rate.c ****     CMM_PARAM_CHK(NULL == YT_DISPATCH(unit), CMM_ERR_NOT_INIT);
 1668              		.loc 1 190 5 discriminator 5 view .LVU476
 190:../Switch/core/yt/yt_rate.c ****     CMM_PARAM_CHK(NULL == YT_DISPATCH(unit), CMM_ERR_NOT_INIT);
 1669              		.loc 1 190 5 discriminator 5 view .LVU477
 1670 002e 0520     		movs	r0, #5
 1671 0030 F8E7     		b	.L160
 1672              	.LVL218:
 1673              	.L178:
 190:../Switch/core/yt/yt_rate.c ****     CMM_PARAM_CHK(NULL == YT_DISPATCH(unit), CMM_ERR_NOT_INIT);
 1674              		.loc 1 190 5 discriminator 3 view .LVU478
 1675              	.LBB33:
 190:../Switch/core/yt/yt_rate.c ****     CMM_PARAM_CHK(NULL == YT_DISPATCH(unit), CMM_ERR_NOT_INIT);
 1676              		.loc 1 190 5 discriminator 3 view .LVU479
 1677 0032 224B     		ldr	r3, .L183+8
 1678 0034 5A69     		ldr	r2, [r3, #20]
 1679              	.LVL219:
 190:../Switch/core/yt/yt_rate.c ****     CMM_PARAM_CHK(NULL == YT_DISPATCH(unit), CMM_ERR_NOT_INIT);
 1680              		.loc 1 190 5 is_stmt 0 discriminator 3 view .LVU480
 1681 0036 224B     		ldr	r3, .L183+12
 1682 0038 9968     		ldr	r1, [r3, #8]
 1683              	.LVL220:
 190:../Switch/core/yt/yt_rate.c ****     CMM_PARAM_CHK(NULL == YT_DISPATCH(unit), CMM_ERR_NOT_INIT);
 1684              		.loc 1 190 5 discriminator 3 view .LVU481
 1685 003a 2248     		ldr	r0, .L183+16
 1686              	.LVL221:
 190:../Switch/core/yt/yt_rate.c ****     CMM_PARAM_CHK(NULL == YT_DISPATCH(unit), CMM_ERR_NOT_INIT);
 1687              		.loc 1 190 5 discriminator 3 view .LVU482
 1688 003c FFF7FEFF 		bl	osal_printf
 1689              	.LVL222:
 1690 0040 F5E7     		b	.L162
 1691              	.LVL223:
 1692              	.L174:
 190:../Switch/core/yt/yt_rate.c ****     CMM_PARAM_CHK(NULL == YT_DISPATCH(unit), CMM_ERR_NOT_INIT);
 1693              		.loc 1 190 5 discriminator 3 view .LVU483
 1694              	.LBE33:
 191:../Switch/core/yt/yt_rate.c ****     CMM_PARAM_CHK((!(YT_DISPATCH(unit)->is_inited)), CMM_ERR_NOT_INIT);
 1695              		.loc 1 191 5 is_stmt 1 discriminator 1 view .LVU484
 191:../Switch/core/yt/yt_rate.c ****     CMM_PARAM_CHK((!(YT_DISPATCH(unit)->is_inited)), CMM_ERR_NOT_INIT);
 1696              		.loc 1 191 5 discriminator 1 view .LVU485
 1697 0042 1D4B     		ldr	r3, .L183+4
 1698              	.LVL224:
 191:../Switch/core/yt/yt_rate.c ****     CMM_PARAM_CHK((!(YT_DISPATCH(unit)->is_inited)), CMM_ERR_NOT_INIT);
 1699              		.loc 1 191 5 is_stmt 0 discriminator 1 view .LVU486
 1700 0044 1B78     		ldrb	r3, [r3]	@ zero_extendqisi2
 1701 0046 012B     		cmp	r3, #1
 1702 0048 01D8     		bhi	.L179
 1703              	.LVL225:
 1704              	.L165:
 191:../Switch/core/yt/yt_rate.c ****     CMM_PARAM_CHK((!(YT_DISPATCH(unit)->is_inited)), CMM_ERR_NOT_INIT);
 1705              		.loc 1 191 5 is_stmt 1 discriminator 5 view .LVU487
 191:../Switch/core/yt/yt_rate.c ****     CMM_PARAM_CHK((!(YT_DISPATCH(unit)->is_inited)), CMM_ERR_NOT_INIT);
 1706              		.loc 1 191 5 discriminator 5 view .LVU488
 191:../Switch/core/yt/yt_rate.c ****     CMM_PARAM_CHK((!(YT_DISPATCH(unit)->is_inited)), CMM_ERR_NOT_INIT);
 1707              		.loc 1 191 5 discriminator 5 view .LVU489
 1708 004a 0420     		movs	r0, #4
 1709 004c EAE7     		b	.L160
 1710              	.LVL226:
 1711              	.L179:
 191:../Switch/core/yt/yt_rate.c ****     CMM_PARAM_CHK((!(YT_DISPATCH(unit)->is_inited)), CMM_ERR_NOT_INIT);
 1712              		.loc 1 191 5 discriminator 3 view .LVU490
 1713              	.LBB34:
 191:../Switch/core/yt/yt_rate.c ****     CMM_PARAM_CHK((!(YT_DISPATCH(unit)->is_inited)), CMM_ERR_NOT_INIT);
 1714              		.loc 1 191 5 discriminator 3 view .LVU491
 1715 004e 1B4B     		ldr	r3, .L183+8
 1716 0050 1A69     		ldr	r2, [r3, #16]
 1717              	.LVL227:
 191:../Switch/core/yt/yt_rate.c ****     CMM_PARAM_CHK((!(YT_DISPATCH(unit)->is_inited)), CMM_ERR_NOT_INIT);
 1718              		.loc 1 191 5 is_stmt 0 discriminator 3 view .LVU492
 1719 0052 1B4B     		ldr	r3, .L183+12
 1720 0054 9968     		ldr	r1, [r3, #8]
 1721              	.LVL228:
 191:../Switch/core/yt/yt_rate.c ****     CMM_PARAM_CHK((!(YT_DISPATCH(unit)->is_inited)), CMM_ERR_NOT_INIT);
 1722              		.loc 1 191 5 discriminator 3 view .LVU493
 1723 0056 1B48     		ldr	r0, .L183+16
 1724 0058 FFF7FEFF 		bl	osal_printf
 1725              	.LVL229:
 1726 005c F5E7     		b	.L165
 1727              	.LVL230:
 1728              	.L175:
 191:../Switch/core/yt/yt_rate.c ****     CMM_PARAM_CHK((!(YT_DISPATCH(unit)->is_inited)), CMM_ERR_NOT_INIT);
 1729              		.loc 1 191 5 discriminator 3 view .LVU494
 1730              	.LBE34:
 192:../Switch/core/yt/yt_rate.c ****     CMM_PARAM_CHK((YT_VLAN_ID_MAX < vid), CMM_ERR_EXCEED_RANGE);
 1731              		.loc 1 192 5 is_stmt 1 discriminator 1 view .LVU495
 192:../Switch/core/yt/yt_rate.c ****     CMM_PARAM_CHK((YT_VLAN_ID_MAX < vid), CMM_ERR_EXCEED_RANGE);
 1732              		.loc 1 192 5 discriminator 1 view .LVU496
 1733 005e 164B     		ldr	r3, .L183+4
 1734              	.LVL231:
 192:../Switch/core/yt/yt_rate.c ****     CMM_PARAM_CHK((YT_VLAN_ID_MAX < vid), CMM_ERR_EXCEED_RANGE);
 1735              		.loc 1 192 5 is_stmt 0 discriminator 1 view .LVU497
 1736 0060 1B78     		ldrb	r3, [r3]	@ zero_extendqisi2
 1737 0062 012B     		cmp	r3, #1
 1738 0064 01D8     		bhi	.L180
 1739              	.LVL232:
 1740              	.L167:
 192:../Switch/core/yt/yt_rate.c ****     CMM_PARAM_CHK((YT_VLAN_ID_MAX < vid), CMM_ERR_EXCEED_RANGE);
 1741              		.loc 1 192 5 is_stmt 1 discriminator 5 view .LVU498
 192:../Switch/core/yt/yt_rate.c ****     CMM_PARAM_CHK((YT_VLAN_ID_MAX < vid), CMM_ERR_EXCEED_RANGE);
 1742              		.loc 1 192 5 discriminator 5 view .LVU499
 192:../Switch/core/yt/yt_rate.c ****     CMM_PARAM_CHK((YT_VLAN_ID_MAX < vid), CMM_ERR_EXCEED_RANGE);
 1743              		.loc 1 192 5 discriminator 5 view .LVU500
 1744 0066 0420     		movs	r0, #4
 1745 0068 DCE7     		b	.L160
 1746              	.LVL233:
 1747              	.L180:
 192:../Switch/core/yt/yt_rate.c ****     CMM_PARAM_CHK((YT_VLAN_ID_MAX < vid), CMM_ERR_EXCEED_RANGE);
 1748              		.loc 1 192 5 discriminator 3 view .LVU501
 1749              	.LBB35:
 192:../Switch/core/yt/yt_rate.c ****     CMM_PARAM_CHK((YT_VLAN_ID_MAX < vid), CMM_ERR_EXCEED_RANGE);
 1750              		.loc 1 192 5 discriminator 3 view .LVU502
 1751 006a 144B     		ldr	r3, .L183+8
 1752 006c 1A69     		ldr	r2, [r3, #16]
 1753              	.LVL234:
 192:../Switch/core/yt/yt_rate.c ****     CMM_PARAM_CHK((YT_VLAN_ID_MAX < vid), CMM_ERR_EXCEED_RANGE);
 1754              		.loc 1 192 5 is_stmt 0 discriminator 3 view .LVU503
 1755 006e 144B     		ldr	r3, .L183+12
 1756 0070 9968     		ldr	r1, [r3, #8]
 1757              	.LVL235:
 192:../Switch/core/yt/yt_rate.c ****     CMM_PARAM_CHK((YT_VLAN_ID_MAX < vid), CMM_ERR_EXCEED_RANGE);
 1758              		.loc 1 192 5 discriminator 3 view .LVU504
 1759 0072 1448     		ldr	r0, .L183+16
 1760 0074 FFF7FEFF 		bl	osal_printf
 1761              	.LVL236:
 1762 0078 F5E7     		b	.L167
 1763              	.LVL237:
 1764              	.L176:
 192:../Switch/core/yt/yt_rate.c ****     CMM_PARAM_CHK((YT_VLAN_ID_MAX < vid), CMM_ERR_EXCEED_RANGE);
 1765              		.loc 1 192 5 discriminator 3 view .LVU505
 1766              	.LBE35:
 193:../Switch/core/yt/yt_rate.c ****     CMM_PARAM_CHK((YT_ENABLE < enable || YT_DISABLE > enable), CMM_ERR_INPUT);
 1767              		.loc 1 193 5 is_stmt 1 discriminator 1 view .LVU506
 193:../Switch/core/yt/yt_rate.c ****     CMM_PARAM_CHK((YT_ENABLE < enable || YT_DISABLE > enable), CMM_ERR_INPUT);
 1768              		.loc 1 193 5 discriminator 1 view .LVU507
 1769 007a 0F4B     		ldr	r3, .L183+4
 1770              	.LVL238:
 193:../Switch/core/yt/yt_rate.c ****     CMM_PARAM_CHK((YT_ENABLE < enable || YT_DISABLE > enable), CMM_ERR_INPUT);
 1771              		.loc 1 193 5 is_stmt 0 discriminator 1 view .LVU508
 1772 007c 1B78     		ldrb	r3, [r3]	@ zero_extendqisi2
 1773 007e 012B     		cmp	r3, #1
 1774 0080 01D8     		bhi	.L181
 1775              	.LVL239:
 1776              	.L169:
 193:../Switch/core/yt/yt_rate.c ****     CMM_PARAM_CHK((YT_ENABLE < enable || YT_DISABLE > enable), CMM_ERR_INPUT);
 1777              		.loc 1 193 5 is_stmt 1 discriminator 5 view .LVU509
 193:../Switch/core/yt/yt_rate.c ****     CMM_PARAM_CHK((YT_ENABLE < enable || YT_DISABLE > enable), CMM_ERR_INPUT);
 1778              		.loc 1 193 5 discriminator 5 view .LVU510
 193:../Switch/core/yt/yt_rate.c ****     CMM_PARAM_CHK((YT_ENABLE < enable || YT_DISABLE > enable), CMM_ERR_INPUT);
 1779              		.loc 1 193 5 discriminator 5 view .LVU511
 1780 0082 1120     		movs	r0, #17
 1781 0084 CEE7     		b	.L160
 1782              	.LVL240:
 1783              	.L181:
 193:../Switch/core/yt/yt_rate.c ****     CMM_PARAM_CHK((YT_ENABLE < enable || YT_DISABLE > enable), CMM_ERR_INPUT);
 1784              		.loc 1 193 5 discriminator 3 view .LVU512
 1785              	.LBB36:
 193:../Switch/core/yt/yt_rate.c ****     CMM_PARAM_CHK((YT_ENABLE < enable || YT_DISABLE > enable), CMM_ERR_INPUT);
 1786              		.loc 1 193 5 discriminator 3 view .LVU513
 1787 0086 0D4B     		ldr	r3, .L183+8
 1788 0088 5A6C     		ldr	r2, [r3, #68]
 1789              	.LVL241:
 193:../Switch/core/yt/yt_rate.c ****     CMM_PARAM_CHK((YT_ENABLE < enable || YT_DISABLE > enable), CMM_ERR_INPUT);
 1790              		.loc 1 193 5 is_stmt 0 discriminator 3 view .LVU514
 1791 008a 0D4B     		ldr	r3, .L183+12
 1792 008c 9968     		ldr	r1, [r3, #8]
 1793              	.LVL242:
 193:../Switch/core/yt/yt_rate.c ****     CMM_PARAM_CHK((YT_ENABLE < enable || YT_DISABLE > enable), CMM_ERR_INPUT);
 1794              		.loc 1 193 5 discriminator 3 view .LVU515
 1795 008e 0D48     		ldr	r0, .L183+16
 1796 0090 FFF7FEFF 		bl	osal_printf
 1797              	.LVL243:
 1798 0094 F5E7     		b	.L169
 1799              	.LVL244:
 1800              	.L177:
 193:../Switch/core/yt/yt_rate.c ****     CMM_PARAM_CHK((YT_ENABLE < enable || YT_DISABLE > enable), CMM_ERR_INPUT);
 1801              		.loc 1 193 5 discriminator 3 view .LVU516
 1802              	.LBE36:
 194:../Switch/core/yt/yt_rate.c **** 
 1803              		.loc 1 194 5 is_stmt 1 discriminator 1 view .LVU517
 194:../Switch/core/yt/yt_rate.c **** 
 1804              		.loc 1 194 5 discriminator 1 view .LVU518
 1805 0096 084B     		ldr	r3, .L183+4
 1806              	.LVL245:
 194:../Switch/core/yt/yt_rate.c **** 
 1807              		.loc 1 194 5 is_stmt 0 discriminator 1 view .LVU519
 1808 0098 1B78     		ldrb	r3, [r3]	@ zero_extendqisi2
 1809 009a 012B     		cmp	r3, #1
 1810 009c 01D8     		bhi	.L182
 1811              	.LVL246:
 1812              	.L171:
 194:../Switch/core/yt/yt_rate.c **** 
 1813              		.loc 1 194 5 is_stmt 1 discriminator 5 view .LVU520
 194:../Switch/core/yt/yt_rate.c **** 
 1814              		.loc 1 194 5 discriminator 5 view .LVU521
 194:../Switch/core/yt/yt_rate.c **** 
 1815              		.loc 1 194 5 discriminator 5 view .LVU522
 1816 009e 0520     		movs	r0, #5
 1817 00a0 C0E7     		b	.L160
 1818              	.LVL247:
 1819              	.L182:
 194:../Switch/core/yt/yt_rate.c **** 
 1820              		.loc 1 194 5 discriminator 3 view .LVU523
 1821              	.LBB37:
 194:../Switch/core/yt/yt_rate.c **** 
 1822              		.loc 1 194 5 discriminator 3 view .LVU524
 1823 00a2 064B     		ldr	r3, .L183+8
 1824 00a4 5A69     		ldr	r2, [r3, #20]
 1825              	.LVL248:
 194:../Switch/core/yt/yt_rate.c **** 
 1826              		.loc 1 194 5 is_stmt 0 discriminator 3 view .LVU525
 1827 00a6 064B     		ldr	r3, .L183+12
 1828 00a8 9968     		ldr	r1, [r3, #8]
 1829              	.LVL249:
 194:../Switch/core/yt/yt_rate.c **** 
 1830              		.loc 1 194 5 discriminator 3 view .LVU526
 1831 00aa 0648     		ldr	r0, .L183+16
 1832 00ac FFF7FEFF 		bl	osal_printf
 1833              	.LVL250:
 1834 00b0 F5E7     		b	.L171
 1835              	.L184:
 1836 00b2 00BF     		.align	2
 1837              	.L183:
 1838 00b4 00000000 		.word	gpfal_dispatch
 1839 00b8 00000000 		.word	yt_debug_level
 1840 00bc 00000000 		.word	_yt_errmsg
 1841 00c0 00000000 		.word	_yt_prompt_msg
 1842 00c4 00000000 		.word	.LC0
 1843              	.LBE37:
 1844              		.cfi_endproc
 1845              	.LFE10:
 1847              		.section	.text.yt_rate_meter_vlan_enable_get,"ax",%progbits
 1848              		.align	1
 1849              		.global	yt_rate_meter_vlan_enable_get
 1850              		.syntax unified
 1851              		.thumb
 1852              		.thumb_func
 1854              	yt_rate_meter_vlan_enable_get:
 1855              	.LVL251:
 1856              	.LFB11:
 198:../Switch/core/yt/yt_rate.c **** 
 199:../Switch/core/yt/yt_rate.c **** /**
 200:../Switch/core/yt/yt_rate.c ****  * @internal      yt_rate_meter_vlan_enable_get
 201:../Switch/core/yt/yt_rate.c ****  * @endinternal
 202:../Switch/core/yt/yt_rate.c ****  *
 203:../Switch/core/yt/yt_rate.c ****  * @brief         Description
 204:../Switch/core/yt/yt_rate.c ****  * @note          APPLICABLE DEVICES  -Tiger
 205:../Switch/core/yt/yt_rate.c ****  * @param[in]     unit                -unit id
 206:../Switch/core/yt/yt_rate.c ****  * @param[in]     vid                 -vlan id
 207:../Switch/core/yt/yt_rate.c ****  * @param[out]    pMeter_id           -meter id, can access meter tbl by it
 208:../Switch/core/yt/yt_rate.c ****  * @param[out]    pEnable             -enable or disable
 209:../Switch/core/yt/yt_rate.c ****  * @retval        CMM_ERR_OK          -on success
 210:../Switch/core/yt/yt_rate.c ****  * @retval        CMM_ERR_FAIL        -on fail
 211:../Switch/core/yt/yt_rate.c ****  */
 212:../Switch/core/yt/yt_rate.c **** yt_ret_t yt_rate_meter_vlan_enable_get(yt_unit_t unit, yt_vlan_t vid, yt_meterid_t *pMeter_id, yt_e
 213:../Switch/core/yt/yt_rate.c **** {
 1857              		.loc 1 213 1 is_stmt 1 view -0
 1858              		.cfi_startproc
 1859              		@ args = 0, pretend = 0, frame = 0
 1860              		@ frame_needed = 0, uses_anonymous_args = 0
 1861              		.loc 1 213 1 is_stmt 0 view .LVU528
 1862 0000 10B5     		push	{r4, lr}
 1863              		.cfi_def_cfa_offset 8
 1864              		.cfi_offset 4, -8
 1865              		.cfi_offset 14, -4
 214:../Switch/core/yt/yt_rate.c ****     CMM_PARAM_CHK((YT_UNIT_NUM <= unit), CMM_ERR_INPUT);
 1866              		.loc 1 214 5 is_stmt 1 view .LVU529
 1867              		.loc 1 214 5 view .LVU530
 1868 0002 90B9     		cbnz	r0, .L200
 1869 0004 8446     		mov	ip, r0
 1870              		.loc 1 214 5 discriminator 2 view .LVU531
 215:../Switch/core/yt/yt_rate.c ****     CMM_PARAM_CHK(NULL == YT_DISPATCH(unit), CMM_ERR_NOT_INIT);
 1871              		.loc 1 215 5 discriminator 2 view .LVU532
 1872              		.loc 1 215 5 discriminator 2 view .LVU533
 1873 0006 3348     		ldr	r0, .L212
 1874              	.LVL252:
 1875              		.loc 1 215 5 is_stmt 0 discriminator 2 view .LVU534
 1876 0008 50F82C40 		ldr	r4, [r0, ip, lsl #2]
 1877 000c DCB1     		cbz	r4, .L201
 1878              		.loc 1 215 5 is_stmt 1 discriminator 2 view .LVU535
 216:../Switch/core/yt/yt_rate.c ****     CMM_PARAM_CHK((!(YT_DISPATCH(unit)->is_inited)), CMM_ERR_NOT_INIT);
 1879              		.loc 1 216 5 discriminator 2 view .LVU536
 1880              		.loc 1 216 5 discriminator 2 view .LVU537
 1881 000e 2078     		ldrb	r0, [r4]	@ zero_extendqisi2
 1882 0010 38B3     		cbz	r0, .L202
 1883              		.loc 1 216 5 discriminator 2 view .LVU538
 217:../Switch/core/yt/yt_rate.c ****     CMM_PARAM_CHK((YT_VLAN_ID_MAX < vid), CMM_ERR_EXCEED_RANGE);
 1884              		.loc 1 217 5 discriminator 2 view .LVU539
 1885              		.loc 1 217 5 discriminator 2 view .LVU540
 1886 0012 B1F5805F 		cmp	r1, #4096
 1887 0016 32D2     		bcs	.L203
 1888              		.loc 1 217 5 discriminator 2 view .LVU541
 218:../Switch/core/yt/yt_rate.c ****     CMM_PARAM_CHK((NULL == pMeter_id), CMM_ERR_NULL_POINT);
 1889              		.loc 1 218 5 discriminator 2 view .LVU542
 1890              		.loc 1 218 5 discriminator 2 view .LVU543
 1891 0018 002A     		cmp	r2, #0
 1892 001a 3ED0     		beq	.L204
 1893              		.loc 1 218 5 discriminator 2 view .LVU544
 219:../Switch/core/yt/yt_rate.c ****     CMM_PARAM_CHK((NULL == pEnable), CMM_ERR_NULL_POINT);
 1894              		.loc 1 219 5 discriminator 2 view .LVU545
 1895              		.loc 1 219 5 discriminator 2 view .LVU546
 1896 001c 002B     		cmp	r3, #0
 1897 001e 4AD0     		beq	.L205
 1898              		.loc 1 219 5 discriminator 2 view .LVU547
 220:../Switch/core/yt/yt_rate.c **** 
 221:../Switch/core/yt/yt_rate.c ****     return YT_DISPATCH(unit)->rate_meter_vlan_enable_get(unit, vid, pMeter_id, pEnable);
 1899              		.loc 1 221 5 discriminator 2 view .LVU548
 1900              		.loc 1 221 29 is_stmt 0 discriminator 2 view .LVU549
 1901 0020 D4F85442 		ldr	r4, [r4, #596]
 1902              		.loc 1 221 12 discriminator 2 view .LVU550
 1903 0024 6046     		mov	r0, ip
 1904 0026 A047     		blx	r4
 1905              	.LVL253:
 1906              	.L185:
 222:../Switch/core/yt/yt_rate.c **** }
 1907              		.loc 1 222 1 view .LVU551
 1908 0028 10BD     		pop	{r4, pc}
 1909              	.LVL254:
 1910              	.L200:
 214:../Switch/core/yt/yt_rate.c ****     CMM_PARAM_CHK(NULL == YT_DISPATCH(unit), CMM_ERR_NOT_INIT);
 1911              		.loc 1 214 5 is_stmt 1 discriminator 1 view .LVU552
 214:../Switch/core/yt/yt_rate.c ****     CMM_PARAM_CHK(NULL == YT_DISPATCH(unit), CMM_ERR_NOT_INIT);
 1912              		.loc 1 214 5 discriminator 1 view .LVU553
 1913 002a 2B4B     		ldr	r3, .L212+4
 1914              	.LVL255:
 214:../Switch/core/yt/yt_rate.c ****     CMM_PARAM_CHK(NULL == YT_DISPATCH(unit), CMM_ERR_NOT_INIT);
 1915              		.loc 1 214 5 is_stmt 0 discriminator 1 view .LVU554
 1916 002c 1B78     		ldrb	r3, [r3]	@ zero_extendqisi2
 1917 002e 012B     		cmp	r3, #1
 1918 0030 01D8     		bhi	.L206
 1919              	.LVL256:
 1920              	.L187:
 214:../Switch/core/yt/yt_rate.c ****     CMM_PARAM_CHK(NULL == YT_DISPATCH(unit), CMM_ERR_NOT_INIT);
 1921              		.loc 1 214 5 is_stmt 1 discriminator 5 view .LVU555
 214:../Switch/core/yt/yt_rate.c ****     CMM_PARAM_CHK(NULL == YT_DISPATCH(unit), CMM_ERR_NOT_INIT);
 1922              		.loc 1 214 5 discriminator 5 view .LVU556
 214:../Switch/core/yt/yt_rate.c ****     CMM_PARAM_CHK(NULL == YT_DISPATCH(unit), CMM_ERR_NOT_INIT);
 1923              		.loc 1 214 5 discriminator 5 view .LVU557
 1924 0032 0520     		movs	r0, #5
 1925 0034 F8E7     		b	.L185
 1926              	.LVL257:
 1927              	.L206:
 214:../Switch/core/yt/yt_rate.c ****     CMM_PARAM_CHK(NULL == YT_DISPATCH(unit), CMM_ERR_NOT_INIT);
 1928              		.loc 1 214 5 discriminator 3 view .LVU558
 1929              	.LBB38:
 214:../Switch/core/yt/yt_rate.c ****     CMM_PARAM_CHK(NULL == YT_DISPATCH(unit), CMM_ERR_NOT_INIT);
 1930              		.loc 1 214 5 discriminator 3 view .LVU559
 1931 0036 294B     		ldr	r3, .L212+8
 1932 0038 5A69     		ldr	r2, [r3, #20]
 1933              	.LVL258:
 214:../Switch/core/yt/yt_rate.c ****     CMM_PARAM_CHK(NULL == YT_DISPATCH(unit), CMM_ERR_NOT_INIT);
 1934              		.loc 1 214 5 is_stmt 0 discriminator 3 view .LVU560
 1935 003a 294B     		ldr	r3, .L212+12
 1936 003c 9968     		ldr	r1, [r3, #8]
 1937              	.LVL259:
 214:../Switch/core/yt/yt_rate.c ****     CMM_PARAM_CHK(NULL == YT_DISPATCH(unit), CMM_ERR_NOT_INIT);
 1938              		.loc 1 214 5 discriminator 3 view .LVU561
 1939 003e 2948     		ldr	r0, .L212+16
 1940              	.LVL260:
 214:../Switch/core/yt/yt_rate.c ****     CMM_PARAM_CHK(NULL == YT_DISPATCH(unit), CMM_ERR_NOT_INIT);
 1941              		.loc 1 214 5 discriminator 3 view .LVU562
 1942 0040 FFF7FEFF 		bl	osal_printf
 1943              	.LVL261:
 1944 0044 F5E7     		b	.L187
 1945              	.LVL262:
 1946              	.L201:
 214:../Switch/core/yt/yt_rate.c ****     CMM_PARAM_CHK(NULL == YT_DISPATCH(unit), CMM_ERR_NOT_INIT);
 1947              		.loc 1 214 5 discriminator 3 view .LVU563
 1948              	.LBE38:
 215:../Switch/core/yt/yt_rate.c ****     CMM_PARAM_CHK((!(YT_DISPATCH(unit)->is_inited)), CMM_ERR_NOT_INIT);
 1949              		.loc 1 215 5 is_stmt 1 discriminator 1 view .LVU564
 215:../Switch/core/yt/yt_rate.c ****     CMM_PARAM_CHK((!(YT_DISPATCH(unit)->is_inited)), CMM_ERR_NOT_INIT);
 1950              		.loc 1 215 5 discriminator 1 view .LVU565
 1951 0046 244B     		ldr	r3, .L212+4
 1952              	.LVL263:
 215:../Switch/core/yt/yt_rate.c ****     CMM_PARAM_CHK((!(YT_DISPATCH(unit)->is_inited)), CMM_ERR_NOT_INIT);
 1953              		.loc 1 215 5 is_stmt 0 discriminator 1 view .LVU566
 1954 0048 1B78     		ldrb	r3, [r3]	@ zero_extendqisi2
 1955 004a 012B     		cmp	r3, #1
 1956 004c 01D8     		bhi	.L207
 1957              	.LVL264:
 1958              	.L190:
 215:../Switch/core/yt/yt_rate.c ****     CMM_PARAM_CHK((!(YT_DISPATCH(unit)->is_inited)), CMM_ERR_NOT_INIT);
 1959              		.loc 1 215 5 is_stmt 1 discriminator 5 view .LVU567
 215:../Switch/core/yt/yt_rate.c ****     CMM_PARAM_CHK((!(YT_DISPATCH(unit)->is_inited)), CMM_ERR_NOT_INIT);
 1960              		.loc 1 215 5 discriminator 5 view .LVU568
 215:../Switch/core/yt/yt_rate.c ****     CMM_PARAM_CHK((!(YT_DISPATCH(unit)->is_inited)), CMM_ERR_NOT_INIT);
 1961              		.loc 1 215 5 discriminator 5 view .LVU569
 1962 004e 0420     		movs	r0, #4
 1963 0050 EAE7     		b	.L185
 1964              	.LVL265:
 1965              	.L207:
 215:../Switch/core/yt/yt_rate.c ****     CMM_PARAM_CHK((!(YT_DISPATCH(unit)->is_inited)), CMM_ERR_NOT_INIT);
 1966              		.loc 1 215 5 discriminator 3 view .LVU570
 1967              	.LBB39:
 215:../Switch/core/yt/yt_rate.c ****     CMM_PARAM_CHK((!(YT_DISPATCH(unit)->is_inited)), CMM_ERR_NOT_INIT);
 1968              		.loc 1 215 5 discriminator 3 view .LVU571
 1969 0052 224B     		ldr	r3, .L212+8
 1970 0054 1A69     		ldr	r2, [r3, #16]
 1971              	.LVL266:
 215:../Switch/core/yt/yt_rate.c ****     CMM_PARAM_CHK((!(YT_DISPATCH(unit)->is_inited)), CMM_ERR_NOT_INIT);
 1972              		.loc 1 215 5 is_stmt 0 discriminator 3 view .LVU572
 1973 0056 224B     		ldr	r3, .L212+12
 1974 0058 9968     		ldr	r1, [r3, #8]
 1975              	.LVL267:
 215:../Switch/core/yt/yt_rate.c ****     CMM_PARAM_CHK((!(YT_DISPATCH(unit)->is_inited)), CMM_ERR_NOT_INIT);
 1976              		.loc 1 215 5 discriminator 3 view .LVU573
 1977 005a 2248     		ldr	r0, .L212+16
 1978 005c FFF7FEFF 		bl	osal_printf
 1979              	.LVL268:
 1980 0060 F5E7     		b	.L190
 1981              	.LVL269:
 1982              	.L202:
 215:../Switch/core/yt/yt_rate.c ****     CMM_PARAM_CHK((!(YT_DISPATCH(unit)->is_inited)), CMM_ERR_NOT_INIT);
 1983              		.loc 1 215 5 discriminator 3 view .LVU574
 1984              	.LBE39:
 216:../Switch/core/yt/yt_rate.c ****     CMM_PARAM_CHK((YT_VLAN_ID_MAX < vid), CMM_ERR_EXCEED_RANGE);
 1985              		.loc 1 216 5 is_stmt 1 discriminator 1 view .LVU575
 216:../Switch/core/yt/yt_rate.c ****     CMM_PARAM_CHK((YT_VLAN_ID_MAX < vid), CMM_ERR_EXCEED_RANGE);
 1986              		.loc 1 216 5 discriminator 1 view .LVU576
 1987 0062 1D4B     		ldr	r3, .L212+4
 1988              	.LVL270:
 216:../Switch/core/yt/yt_rate.c ****     CMM_PARAM_CHK((YT_VLAN_ID_MAX < vid), CMM_ERR_EXCEED_RANGE);
 1989              		.loc 1 216 5 is_stmt 0 discriminator 1 view .LVU577
 1990 0064 1B78     		ldrb	r3, [r3]	@ zero_extendqisi2
 1991 0066 012B     		cmp	r3, #1
 1992 0068 01D8     		bhi	.L208
 1993              	.LVL271:
 1994              	.L192:
 216:../Switch/core/yt/yt_rate.c ****     CMM_PARAM_CHK((YT_VLAN_ID_MAX < vid), CMM_ERR_EXCEED_RANGE);
 1995              		.loc 1 216 5 is_stmt 1 discriminator 5 view .LVU578
 216:../Switch/core/yt/yt_rate.c ****     CMM_PARAM_CHK((YT_VLAN_ID_MAX < vid), CMM_ERR_EXCEED_RANGE);
 1996              		.loc 1 216 5 discriminator 5 view .LVU579
 216:../Switch/core/yt/yt_rate.c ****     CMM_PARAM_CHK((YT_VLAN_ID_MAX < vid), CMM_ERR_EXCEED_RANGE);
 1997              		.loc 1 216 5 discriminator 5 view .LVU580
 1998 006a 0420     		movs	r0, #4
 1999 006c DCE7     		b	.L185
 2000              	.LVL272:
 2001              	.L208:
 216:../Switch/core/yt/yt_rate.c ****     CMM_PARAM_CHK((YT_VLAN_ID_MAX < vid), CMM_ERR_EXCEED_RANGE);
 2002              		.loc 1 216 5 discriminator 3 view .LVU581
 2003              	.LBB40:
 216:../Switch/core/yt/yt_rate.c ****     CMM_PARAM_CHK((YT_VLAN_ID_MAX < vid), CMM_ERR_EXCEED_RANGE);
 2004              		.loc 1 216 5 discriminator 3 view .LVU582
 2005 006e 1B4B     		ldr	r3, .L212+8
 2006 0070 1A69     		ldr	r2, [r3, #16]
 2007              	.LVL273:
 216:../Switch/core/yt/yt_rate.c ****     CMM_PARAM_CHK((YT_VLAN_ID_MAX < vid), CMM_ERR_EXCEED_RANGE);
 2008              		.loc 1 216 5 is_stmt 0 discriminator 3 view .LVU583
 2009 0072 1B4B     		ldr	r3, .L212+12
 2010 0074 9968     		ldr	r1, [r3, #8]
 2011              	.LVL274:
 216:../Switch/core/yt/yt_rate.c ****     CMM_PARAM_CHK((YT_VLAN_ID_MAX < vid), CMM_ERR_EXCEED_RANGE);
 2012              		.loc 1 216 5 discriminator 3 view .LVU584
 2013 0076 1B48     		ldr	r0, .L212+16
 2014 0078 FFF7FEFF 		bl	osal_printf
 2015              	.LVL275:
 2016 007c F5E7     		b	.L192
 2017              	.LVL276:
 2018              	.L203:
 216:../Switch/core/yt/yt_rate.c ****     CMM_PARAM_CHK((YT_VLAN_ID_MAX < vid), CMM_ERR_EXCEED_RANGE);
 2019              		.loc 1 216 5 discriminator 3 view .LVU585
 2020              	.LBE40:
 217:../Switch/core/yt/yt_rate.c ****     CMM_PARAM_CHK((NULL == pMeter_id), CMM_ERR_NULL_POINT);
 2021              		.loc 1 217 5 is_stmt 1 discriminator 1 view .LVU586
 217:../Switch/core/yt/yt_rate.c ****     CMM_PARAM_CHK((NULL == pMeter_id), CMM_ERR_NULL_POINT);
 2022              		.loc 1 217 5 discriminator 1 view .LVU587
 2023 007e 164B     		ldr	r3, .L212+4
 2024              	.LVL277:
 217:../Switch/core/yt/yt_rate.c ****     CMM_PARAM_CHK((NULL == pMeter_id), CMM_ERR_NULL_POINT);
 2025              		.loc 1 217 5 is_stmt 0 discriminator 1 view .LVU588
 2026 0080 1B78     		ldrb	r3, [r3]	@ zero_extendqisi2
 2027 0082 012B     		cmp	r3, #1
 2028 0084 01D8     		bhi	.L209
 2029              	.LVL278:
 2030              	.L194:
 217:../Switch/core/yt/yt_rate.c ****     CMM_PARAM_CHK((NULL == pMeter_id), CMM_ERR_NULL_POINT);
 2031              		.loc 1 217 5 is_stmt 1 discriminator 5 view .LVU589
 217:../Switch/core/yt/yt_rate.c ****     CMM_PARAM_CHK((NULL == pMeter_id), CMM_ERR_NULL_POINT);
 2032              		.loc 1 217 5 discriminator 5 view .LVU590
 217:../Switch/core/yt/yt_rate.c ****     CMM_PARAM_CHK((NULL == pMeter_id), CMM_ERR_NULL_POINT);
 2033              		.loc 1 217 5 discriminator 5 view .LVU591
 2034 0086 1120     		movs	r0, #17
 2035 0088 CEE7     		b	.L185
 2036              	.LVL279:
 2037              	.L209:
 217:../Switch/core/yt/yt_rate.c ****     CMM_PARAM_CHK((NULL == pMeter_id), CMM_ERR_NULL_POINT);
 2038              		.loc 1 217 5 discriminator 3 view .LVU592
 2039              	.LBB41:
 217:../Switch/core/yt/yt_rate.c ****     CMM_PARAM_CHK((NULL == pMeter_id), CMM_ERR_NULL_POINT);
 2040              		.loc 1 217 5 discriminator 3 view .LVU593
 2041 008a 144B     		ldr	r3, .L212+8
 2042 008c 5A6C     		ldr	r2, [r3, #68]
 2043              	.LVL280:
 217:../Switch/core/yt/yt_rate.c ****     CMM_PARAM_CHK((NULL == pMeter_id), CMM_ERR_NULL_POINT);
 2044              		.loc 1 217 5 is_stmt 0 discriminator 3 view .LVU594
 2045 008e 144B     		ldr	r3, .L212+12
 2046 0090 9968     		ldr	r1, [r3, #8]
 2047              	.LVL281:
 217:../Switch/core/yt/yt_rate.c ****     CMM_PARAM_CHK((NULL == pMeter_id), CMM_ERR_NULL_POINT);
 2048              		.loc 1 217 5 discriminator 3 view .LVU595
 2049 0092 1448     		ldr	r0, .L212+16
 2050 0094 FFF7FEFF 		bl	osal_printf
 2051              	.LVL282:
 2052 0098 F5E7     		b	.L194
 2053              	.LVL283:
 2054              	.L204:
 217:../Switch/core/yt/yt_rate.c ****     CMM_PARAM_CHK((NULL == pMeter_id), CMM_ERR_NULL_POINT);
 2055              		.loc 1 217 5 discriminator 3 view .LVU596
 2056              	.LBE41:
 218:../Switch/core/yt/yt_rate.c ****     CMM_PARAM_CHK((NULL == pEnable), CMM_ERR_NULL_POINT);
 2057              		.loc 1 218 5 is_stmt 1 discriminator 1 view .LVU597
 218:../Switch/core/yt/yt_rate.c ****     CMM_PARAM_CHK((NULL == pEnable), CMM_ERR_NULL_POINT);
 2058              		.loc 1 218 5 discriminator 1 view .LVU598
 2059 009a 0F4B     		ldr	r3, .L212+4
 2060              	.LVL284:
 218:../Switch/core/yt/yt_rate.c ****     CMM_PARAM_CHK((NULL == pEnable), CMM_ERR_NULL_POINT);
 2061              		.loc 1 218 5 is_stmt 0 discriminator 1 view .LVU599
 2062 009c 1B78     		ldrb	r3, [r3]	@ zero_extendqisi2
 2063 009e 012B     		cmp	r3, #1
 2064 00a0 01D8     		bhi	.L210
 2065              	.LVL285:
 2066              	.L196:
 218:../Switch/core/yt/yt_rate.c ****     CMM_PARAM_CHK((NULL == pEnable), CMM_ERR_NULL_POINT);
 2067              		.loc 1 218 5 is_stmt 1 discriminator 5 view .LVU600
 218:../Switch/core/yt/yt_rate.c ****     CMM_PARAM_CHK((NULL == pEnable), CMM_ERR_NULL_POINT);
 2068              		.loc 1 218 5 discriminator 5 view .LVU601
 218:../Switch/core/yt/yt_rate.c ****     CMM_PARAM_CHK((NULL == pEnable), CMM_ERR_NULL_POINT);
 2069              		.loc 1 218 5 discriminator 5 view .LVU602
 2070 00a2 0220     		movs	r0, #2
 2071 00a4 C0E7     		b	.L185
 2072              	.LVL286:
 2073              	.L210:
 218:../Switch/core/yt/yt_rate.c ****     CMM_PARAM_CHK((NULL == pEnable), CMM_ERR_NULL_POINT);
 2074              		.loc 1 218 5 discriminator 3 view .LVU603
 2075              	.LBB42:
 218:../Switch/core/yt/yt_rate.c ****     CMM_PARAM_CHK((NULL == pEnable), CMM_ERR_NULL_POINT);
 2076              		.loc 1 218 5 discriminator 3 view .LVU604
 2077 00a6 0D4B     		ldr	r3, .L212+8
 2078 00a8 9A68     		ldr	r2, [r3, #8]
 2079              	.LVL287:
 218:../Switch/core/yt/yt_rate.c ****     CMM_PARAM_CHK((NULL == pEnable), CMM_ERR_NULL_POINT);
 2080              		.loc 1 218 5 is_stmt 0 discriminator 3 view .LVU605
 2081 00aa 0D4B     		ldr	r3, .L212+12
 2082 00ac 9968     		ldr	r1, [r3, #8]
 2083              	.LVL288:
 218:../Switch/core/yt/yt_rate.c ****     CMM_PARAM_CHK((NULL == pEnable), CMM_ERR_NULL_POINT);
 2084              		.loc 1 218 5 discriminator 3 view .LVU606
 2085 00ae 0D48     		ldr	r0, .L212+16
 2086 00b0 FFF7FEFF 		bl	osal_printf
 2087              	.LVL289:
 2088 00b4 F5E7     		b	.L196
 2089              	.LVL290:
 2090              	.L205:
 218:../Switch/core/yt/yt_rate.c ****     CMM_PARAM_CHK((NULL == pEnable), CMM_ERR_NULL_POINT);
 2091              		.loc 1 218 5 discriminator 3 view .LVU607
 2092              	.LBE42:
 219:../Switch/core/yt/yt_rate.c **** 
 2093              		.loc 1 219 5 is_stmt 1 discriminator 1 view .LVU608
 219:../Switch/core/yt/yt_rate.c **** 
 2094              		.loc 1 219 5 discriminator 1 view .LVU609
 2095 00b6 084B     		ldr	r3, .L212+4
 2096              	.LVL291:
 219:../Switch/core/yt/yt_rate.c **** 
 2097              		.loc 1 219 5 is_stmt 0 discriminator 1 view .LVU610
 2098 00b8 1B78     		ldrb	r3, [r3]	@ zero_extendqisi2
 2099 00ba 012B     		cmp	r3, #1
 2100 00bc 01D8     		bhi	.L211
 2101              	.LVL292:
 2102              	.L198:
 219:../Switch/core/yt/yt_rate.c **** 
 2103              		.loc 1 219 5 is_stmt 1 discriminator 5 view .LVU611
 219:../Switch/core/yt/yt_rate.c **** 
 2104              		.loc 1 219 5 discriminator 5 view .LVU612
 219:../Switch/core/yt/yt_rate.c **** 
 2105              		.loc 1 219 5 discriminator 5 view .LVU613
 2106 00be 0220     		movs	r0, #2
 2107 00c0 B2E7     		b	.L185
 2108              	.LVL293:
 2109              	.L211:
 219:../Switch/core/yt/yt_rate.c **** 
 2110              		.loc 1 219 5 discriminator 3 view .LVU614
 2111              	.LBB43:
 219:../Switch/core/yt/yt_rate.c **** 
 2112              		.loc 1 219 5 discriminator 3 view .LVU615
 2113 00c2 064B     		ldr	r3, .L212+8
 2114 00c4 9A68     		ldr	r2, [r3, #8]
 2115              	.LVL294:
 219:../Switch/core/yt/yt_rate.c **** 
 2116              		.loc 1 219 5 is_stmt 0 discriminator 3 view .LVU616
 2117 00c6 064B     		ldr	r3, .L212+12
 2118 00c8 9968     		ldr	r1, [r3, #8]
 2119              	.LVL295:
 219:../Switch/core/yt/yt_rate.c **** 
 2120              		.loc 1 219 5 discriminator 3 view .LVU617
 2121 00ca 0648     		ldr	r0, .L212+16
 2122 00cc FFF7FEFF 		bl	osal_printf
 2123              	.LVL296:
 2124 00d0 F5E7     		b	.L198
 2125              	.L213:
 2126 00d2 00BF     		.align	2
 2127              	.L212:
 2128 00d4 00000000 		.word	gpfal_dispatch
 2129 00d8 00000000 		.word	yt_debug_level
 2130 00dc 00000000 		.word	_yt_errmsg
 2131 00e0 00000000 		.word	_yt_prompt_msg
 2132 00e4 00000000 		.word	.LC0
 2133              	.LBE43:
 2134              		.cfi_endproc
 2135              	.LFE11:
 2137              		.section	.text.yt_rate_meter_enable_set,"ax",%progbits
 2138              		.align	1
 2139              		.global	yt_rate_meter_enable_set
 2140              		.syntax unified
 2141              		.thumb
 2142              		.thumb_func
 2144              	yt_rate_meter_enable_set:
 2145              	.LVL297:
 2146              	.LFB12:
 223:../Switch/core/yt/yt_rate.c **** 
 224:../Switch/core/yt/yt_rate.c **** /**
 225:../Switch/core/yt/yt_rate.c ****  * @internal      yt_rate_meter_enable_set
 226:../Switch/core/yt/yt_rate.c ****  * @endinternal
 227:../Switch/core/yt/yt_rate.c ****  *
 228:../Switch/core/yt/yt_rate.c ****  * @brief         Description
 229:../Switch/core/yt/yt_rate.c ****  * @note          APPLICABLE DEVICES  -Tiger
 230:../Switch/core/yt/yt_rate.c ****  * @param[in]     unit                -unit id
 231:../Switch/core/yt/yt_rate.c ****  * @param[in]     meter_id            -meter id, can access meter tbl by it
 232:../Switch/core/yt/yt_rate.c ****  * @param[in]     enable              -enable or disable
 233:../Switch/core/yt/yt_rate.c ****  * @retval        CMM_ERR_OK          -on success
 234:../Switch/core/yt/yt_rate.c ****  * @retval        CMM_ERR_FAIL        -on fail
 235:../Switch/core/yt/yt_rate.c ****  */
 236:../Switch/core/yt/yt_rate.c **** yt_ret_t yt_rate_meter_enable_set(yt_unit_t unit, yt_meterid_t meter_id, yt_enable_t enable)
 237:../Switch/core/yt/yt_rate.c **** {
 2147              		.loc 1 237 1 is_stmt 1 view -0
 2148              		.cfi_startproc
 2149              		@ args = 0, pretend = 0, frame = 0
 2150              		@ frame_needed = 0, uses_anonymous_args = 0
 2151              		.loc 1 237 1 is_stmt 0 view .LVU619
 2152 0000 08B5     		push	{r3, lr}
 2153              		.cfi_def_cfa_offset 8
 2154              		.cfi_offset 3, -8
 2155              		.cfi_offset 14, -4
 238:../Switch/core/yt/yt_rate.c ****     CMM_PARAM_CHK((YT_UNIT_NUM <= unit), CMM_ERR_INPUT);
 2156              		.loc 1 238 5 is_stmt 1 view .LVU620
 2157              		.loc 1 238 5 view .LVU621
 2158 0002 68B9     		cbnz	r0, .L225
 2159 0004 8446     		mov	ip, r0
 2160              		.loc 1 238 5 discriminator 2 view .LVU622
 239:../Switch/core/yt/yt_rate.c ****     CMM_PARAM_CHK(NULL == YT_DISPATCH(unit), CMM_ERR_NOT_INIT);
 2161              		.loc 1 239 5 discriminator 2 view .LVU623
 2162              		.loc 1 239 5 discriminator 2 view .LVU624
 2163 0006 224B     		ldr	r3, .L233
 2164 0008 53F82030 		ldr	r3, [r3, r0, lsl #2]
 2165 000c B3B1     		cbz	r3, .L226
 2166              		.loc 1 239 5 discriminator 2 view .LVU625
 240:../Switch/core/yt/yt_rate.c ****     CMM_PARAM_CHK((!(YT_DISPATCH(unit)->is_inited)), CMM_ERR_NOT_INIT);
 2167              		.loc 1 240 5 discriminator 2 view .LVU626
 2168              		.loc 1 240 5 discriminator 2 view .LVU627
 2169 000e 1878     		ldrb	r0, [r3]	@ zero_extendqisi2
 2170              	.LVL298:
 2171              		.loc 1 240 5 is_stmt 0 discriminator 2 view .LVU628
 2172 0010 10B3     		cbz	r0, .L227
 2173              		.loc 1 240 5 is_stmt 1 discriminator 2 view .LVU629
 241:../Switch/core/yt/yt_rate.c ****     CMM_PARAM_CHK((YT_ENABLE < enable || YT_DISABLE > enable), CMM_ERR_INPUT);
 2174              		.loc 1 241 5 discriminator 2 view .LVU630
 2175              		.loc 1 241 5 discriminator 2 view .LVU631
 2176 0012 012A     		cmp	r2, #1
 2177 0014 2ED8     		bhi	.L228
 2178              		.loc 1 241 5 discriminator 2 view .LVU632
 242:../Switch/core/yt/yt_rate.c **** 
 243:../Switch/core/yt/yt_rate.c ****     return YT_DISPATCH(unit)->rate_meter_enable_set(unit, meter_id, enable);
 2179              		.loc 1 243 5 discriminator 2 view .LVU633
 2180              		.loc 1 243 29 is_stmt 0 discriminator 2 view .LVU634
 2181 0016 D3F85832 		ldr	r3, [r3, #600]
 2182              		.loc 1 243 12 discriminator 2 view .LVU635
 2183 001a 6046     		mov	r0, ip
 2184 001c 9847     		blx	r3
 2185              	.LVL299:
 2186              	.L214:
 244:../Switch/core/yt/yt_rate.c **** }
 2187              		.loc 1 244 1 view .LVU636
 2188 001e 08BD     		pop	{r3, pc}
 2189              	.LVL300:
 2190              	.L225:
 238:../Switch/core/yt/yt_rate.c ****     CMM_PARAM_CHK(NULL == YT_DISPATCH(unit), CMM_ERR_NOT_INIT);
 2191              		.loc 1 238 5 is_stmt 1 discriminator 1 view .LVU637
 238:../Switch/core/yt/yt_rate.c ****     CMM_PARAM_CHK(NULL == YT_DISPATCH(unit), CMM_ERR_NOT_INIT);
 2192              		.loc 1 238 5 discriminator 1 view .LVU638
 2193 0020 1C4B     		ldr	r3, .L233+4
 2194 0022 1B78     		ldrb	r3, [r3]	@ zero_extendqisi2
 2195 0024 012B     		cmp	r3, #1
 2196 0026 01D8     		bhi	.L229
 2197              	.LVL301:
 2198              	.L216:
 238:../Switch/core/yt/yt_rate.c ****     CMM_PARAM_CHK(NULL == YT_DISPATCH(unit), CMM_ERR_NOT_INIT);
 2199              		.loc 1 238 5 discriminator 5 view .LVU639
 238:../Switch/core/yt/yt_rate.c ****     CMM_PARAM_CHK(NULL == YT_DISPATCH(unit), CMM_ERR_NOT_INIT);
 2200              		.loc 1 238 5 discriminator 5 view .LVU640
 238:../Switch/core/yt/yt_rate.c ****     CMM_PARAM_CHK(NULL == YT_DISPATCH(unit), CMM_ERR_NOT_INIT);
 2201              		.loc 1 238 5 discriminator 5 view .LVU641
 2202 0028 0520     		movs	r0, #5
 2203 002a F8E7     		b	.L214
 2204              	.LVL302:
 2205              	.L229:
 238:../Switch/core/yt/yt_rate.c ****     CMM_PARAM_CHK(NULL == YT_DISPATCH(unit), CMM_ERR_NOT_INIT);
 2206              		.loc 1 238 5 discriminator 3 view .LVU642
 2207              	.LBB44:
 238:../Switch/core/yt/yt_rate.c ****     CMM_PARAM_CHK(NULL == YT_DISPATCH(unit), CMM_ERR_NOT_INIT);
 2208              		.loc 1 238 5 discriminator 3 view .LVU643
 2209 002c 1A4B     		ldr	r3, .L233+8
 2210 002e 5A69     		ldr	r2, [r3, #20]
 2211              	.LVL303:
 238:../Switch/core/yt/yt_rate.c ****     CMM_PARAM_CHK(NULL == YT_DISPATCH(unit), CMM_ERR_NOT_INIT);
 2212              		.loc 1 238 5 is_stmt 0 discriminator 3 view .LVU644
 2213 0030 1A4B     		ldr	r3, .L233+12
 2214 0032 9968     		ldr	r1, [r3, #8]
 2215              	.LVL304:
 238:../Switch/core/yt/yt_rate.c ****     CMM_PARAM_CHK(NULL == YT_DISPATCH(unit), CMM_ERR_NOT_INIT);
 2216              		.loc 1 238 5 discriminator 3 view .LVU645
 2217 0034 1A48     		ldr	r0, .L233+16
 2218              	.LVL305:
 238:../Switch/core/yt/yt_rate.c ****     CMM_PARAM_CHK(NULL == YT_DISPATCH(unit), CMM_ERR_NOT_INIT);
 2219              		.loc 1 238 5 discriminator 3 view .LVU646
 2220 0036 FFF7FEFF 		bl	osal_printf
 2221              	.LVL306:
 2222 003a F5E7     		b	.L216
 2223              	.LVL307:
 2224              	.L226:
 238:../Switch/core/yt/yt_rate.c ****     CMM_PARAM_CHK(NULL == YT_DISPATCH(unit), CMM_ERR_NOT_INIT);
 2225              		.loc 1 238 5 discriminator 3 view .LVU647
 2226              	.LBE44:
 239:../Switch/core/yt/yt_rate.c ****     CMM_PARAM_CHK((!(YT_DISPATCH(unit)->is_inited)), CMM_ERR_NOT_INIT);
 2227              		.loc 1 239 5 is_stmt 1 discriminator 1 view .LVU648
 239:../Switch/core/yt/yt_rate.c ****     CMM_PARAM_CHK((!(YT_DISPATCH(unit)->is_inited)), CMM_ERR_NOT_INIT);
 2228              		.loc 1 239 5 discriminator 1 view .LVU649
 2229 003c 154B     		ldr	r3, .L233+4
 2230 003e 1B78     		ldrb	r3, [r3]	@ zero_extendqisi2
 2231 0040 012B     		cmp	r3, #1
 2232 0042 01D8     		bhi	.L230
 2233              	.LVL308:
 2234              	.L219:
 239:../Switch/core/yt/yt_rate.c ****     CMM_PARAM_CHK((!(YT_DISPATCH(unit)->is_inited)), CMM_ERR_NOT_INIT);
 2235              		.loc 1 239 5 discriminator 5 view .LVU650
 239:../Switch/core/yt/yt_rate.c ****     CMM_PARAM_CHK((!(YT_DISPATCH(unit)->is_inited)), CMM_ERR_NOT_INIT);
 2236              		.loc 1 239 5 discriminator 5 view .LVU651
 239:../Switch/core/yt/yt_rate.c ****     CMM_PARAM_CHK((!(YT_DISPATCH(unit)->is_inited)), CMM_ERR_NOT_INIT);
 2237              		.loc 1 239 5 discriminator 5 view .LVU652
 2238 0044 0420     		movs	r0, #4
 2239 0046 EAE7     		b	.L214
 2240              	.LVL309:
 2241              	.L230:
 239:../Switch/core/yt/yt_rate.c ****     CMM_PARAM_CHK((!(YT_DISPATCH(unit)->is_inited)), CMM_ERR_NOT_INIT);
 2242              		.loc 1 239 5 discriminator 3 view .LVU653
 2243              	.LBB45:
 239:../Switch/core/yt/yt_rate.c ****     CMM_PARAM_CHK((!(YT_DISPATCH(unit)->is_inited)), CMM_ERR_NOT_INIT);
 2244              		.loc 1 239 5 discriminator 3 view .LVU654
 2245 0048 134B     		ldr	r3, .L233+8
 2246 004a 1A69     		ldr	r2, [r3, #16]
 2247              	.LVL310:
 239:../Switch/core/yt/yt_rate.c ****     CMM_PARAM_CHK((!(YT_DISPATCH(unit)->is_inited)), CMM_ERR_NOT_INIT);
 2248              		.loc 1 239 5 is_stmt 0 discriminator 3 view .LVU655
 2249 004c 134B     		ldr	r3, .L233+12
 2250 004e 9968     		ldr	r1, [r3, #8]
 2251              	.LVL311:
 239:../Switch/core/yt/yt_rate.c ****     CMM_PARAM_CHK((!(YT_DISPATCH(unit)->is_inited)), CMM_ERR_NOT_INIT);
 2252              		.loc 1 239 5 discriminator 3 view .LVU656
 2253 0050 1348     		ldr	r0, .L233+16
 2254              	.LVL312:
 239:../Switch/core/yt/yt_rate.c ****     CMM_PARAM_CHK((!(YT_DISPATCH(unit)->is_inited)), CMM_ERR_NOT_INIT);
 2255              		.loc 1 239 5 discriminator 3 view .LVU657
 2256 0052 FFF7FEFF 		bl	osal_printf
 2257              	.LVL313:
 2258 0056 F5E7     		b	.L219
 2259              	.LVL314:
 2260              	.L227:
 239:../Switch/core/yt/yt_rate.c ****     CMM_PARAM_CHK((!(YT_DISPATCH(unit)->is_inited)), CMM_ERR_NOT_INIT);
 2261              		.loc 1 239 5 discriminator 3 view .LVU658
 2262              	.LBE45:
 240:../Switch/core/yt/yt_rate.c ****     CMM_PARAM_CHK((YT_ENABLE < enable || YT_DISABLE > enable), CMM_ERR_INPUT);
 2263              		.loc 1 240 5 is_stmt 1 discriminator 1 view .LVU659
 240:../Switch/core/yt/yt_rate.c ****     CMM_PARAM_CHK((YT_ENABLE < enable || YT_DISABLE > enable), CMM_ERR_INPUT);
 2264              		.loc 1 240 5 discriminator 1 view .LVU660
 2265 0058 0E4B     		ldr	r3, .L233+4
 2266 005a 1B78     		ldrb	r3, [r3]	@ zero_extendqisi2
 2267 005c 012B     		cmp	r3, #1
 2268 005e 01D8     		bhi	.L231
 2269              	.LVL315:
 2270              	.L221:
 240:../Switch/core/yt/yt_rate.c ****     CMM_PARAM_CHK((YT_ENABLE < enable || YT_DISABLE > enable), CMM_ERR_INPUT);
 2271              		.loc 1 240 5 discriminator 5 view .LVU661
 240:../Switch/core/yt/yt_rate.c ****     CMM_PARAM_CHK((YT_ENABLE < enable || YT_DISABLE > enable), CMM_ERR_INPUT);
 2272              		.loc 1 240 5 discriminator 5 view .LVU662
 240:../Switch/core/yt/yt_rate.c ****     CMM_PARAM_CHK((YT_ENABLE < enable || YT_DISABLE > enable), CMM_ERR_INPUT);
 2273              		.loc 1 240 5 discriminator 5 view .LVU663
 2274 0060 0420     		movs	r0, #4
 2275 0062 DCE7     		b	.L214
 2276              	.LVL316:
 2277              	.L231:
 240:../Switch/core/yt/yt_rate.c ****     CMM_PARAM_CHK((YT_ENABLE < enable || YT_DISABLE > enable), CMM_ERR_INPUT);
 2278              		.loc 1 240 5 discriminator 3 view .LVU664
 2279              	.LBB46:
 240:../Switch/core/yt/yt_rate.c ****     CMM_PARAM_CHK((YT_ENABLE < enable || YT_DISABLE > enable), CMM_ERR_INPUT);
 2280              		.loc 1 240 5 discriminator 3 view .LVU665
 2281 0064 0C4B     		ldr	r3, .L233+8
 2282 0066 1A69     		ldr	r2, [r3, #16]
 2283              	.LVL317:
 240:../Switch/core/yt/yt_rate.c ****     CMM_PARAM_CHK((YT_ENABLE < enable || YT_DISABLE > enable), CMM_ERR_INPUT);
 2284              		.loc 1 240 5 is_stmt 0 discriminator 3 view .LVU666
 2285 0068 0C4B     		ldr	r3, .L233+12
 2286 006a 9968     		ldr	r1, [r3, #8]
 2287              	.LVL318:
 240:../Switch/core/yt/yt_rate.c ****     CMM_PARAM_CHK((YT_ENABLE < enable || YT_DISABLE > enable), CMM_ERR_INPUT);
 2288              		.loc 1 240 5 discriminator 3 view .LVU667
 2289 006c 0C48     		ldr	r0, .L233+16
 2290 006e FFF7FEFF 		bl	osal_printf
 2291              	.LVL319:
 2292 0072 F5E7     		b	.L221
 2293              	.LVL320:
 2294              	.L228:
 240:../Switch/core/yt/yt_rate.c ****     CMM_PARAM_CHK((YT_ENABLE < enable || YT_DISABLE > enable), CMM_ERR_INPUT);
 2295              		.loc 1 240 5 discriminator 3 view .LVU668
 2296              	.LBE46:
 241:../Switch/core/yt/yt_rate.c **** 
 2297              		.loc 1 241 5 is_stmt 1 discriminator 1 view .LVU669
 241:../Switch/core/yt/yt_rate.c **** 
 2298              		.loc 1 241 5 discriminator 1 view .LVU670
 2299 0074 074B     		ldr	r3, .L233+4
 2300 0076 1B78     		ldrb	r3, [r3]	@ zero_extendqisi2
 2301 0078 012B     		cmp	r3, #1
 2302 007a 01D8     		bhi	.L232
 2303              	.LVL321:
 2304              	.L223:
 241:../Switch/core/yt/yt_rate.c **** 
 2305              		.loc 1 241 5 discriminator 5 view .LVU671
 241:../Switch/core/yt/yt_rate.c **** 
 2306              		.loc 1 241 5 discriminator 5 view .LVU672
 241:../Switch/core/yt/yt_rate.c **** 
 2307              		.loc 1 241 5 discriminator 5 view .LVU673
 2308 007c 0520     		movs	r0, #5
 2309 007e CEE7     		b	.L214
 2310              	.LVL322:
 2311              	.L232:
 241:../Switch/core/yt/yt_rate.c **** 
 2312              		.loc 1 241 5 discriminator 3 view .LVU674
 2313              	.LBB47:
 241:../Switch/core/yt/yt_rate.c **** 
 2314              		.loc 1 241 5 discriminator 3 view .LVU675
 2315 0080 054B     		ldr	r3, .L233+8
 2316 0082 5A69     		ldr	r2, [r3, #20]
 2317              	.LVL323:
 241:../Switch/core/yt/yt_rate.c **** 
 2318              		.loc 1 241 5 is_stmt 0 discriminator 3 view .LVU676
 2319 0084 054B     		ldr	r3, .L233+12
 2320 0086 9968     		ldr	r1, [r3, #8]
 2321              	.LVL324:
 241:../Switch/core/yt/yt_rate.c **** 
 2322              		.loc 1 241 5 discriminator 3 view .LVU677
 2323 0088 0548     		ldr	r0, .L233+16
 2324 008a FFF7FEFF 		bl	osal_printf
 2325              	.LVL325:
 2326 008e F5E7     		b	.L223
 2327              	.L234:
 2328              		.align	2
 2329              	.L233:
 2330 0090 00000000 		.word	gpfal_dispatch
 2331 0094 00000000 		.word	yt_debug_level
 2332 0098 00000000 		.word	_yt_errmsg
 2333 009c 00000000 		.word	_yt_prompt_msg
 2334 00a0 00000000 		.word	.LC0
 2335              	.LBE47:
 2336              		.cfi_endproc
 2337              	.LFE12:
 2339              		.section	.text.yt_rate_meter_enable_get,"ax",%progbits
 2340              		.align	1
 2341              		.global	yt_rate_meter_enable_get
 2342              		.syntax unified
 2343              		.thumb
 2344              		.thumb_func
 2346              	yt_rate_meter_enable_get:
 2347              	.LVL326:
 2348              	.LFB13:
 245:../Switch/core/yt/yt_rate.c **** 
 246:../Switch/core/yt/yt_rate.c **** /**
 247:../Switch/core/yt/yt_rate.c ****  * @internal      yt_rate_meter_enable_get
 248:../Switch/core/yt/yt_rate.c ****  * @endinternal
 249:../Switch/core/yt/yt_rate.c ****  *
 250:../Switch/core/yt/yt_rate.c ****  * @brief         Description
 251:../Switch/core/yt/yt_rate.c ****  * @note          APPLICABLE DEVICES  -Tiger
 252:../Switch/core/yt/yt_rate.c ****  * @param[in]     unit                -unit id
 253:../Switch/core/yt/yt_rate.c ****  * @param[in]     meter_id            -meter id, can access meter tbl by it
 254:../Switch/core/yt/yt_rate.c ****  * @param[out]    pEnable             -enable or disable
 255:../Switch/core/yt/yt_rate.c ****  * @retval        CMM_ERR_OK          -on success
 256:../Switch/core/yt/yt_rate.c ****  * @retval        CMM_ERR_FAIL        -on fail
 257:../Switch/core/yt/yt_rate.c ****  */
 258:../Switch/core/yt/yt_rate.c **** yt_ret_t yt_rate_meter_enable_get(yt_unit_t unit, yt_meterid_t meter_id, yt_enable_t *pEnable)
 259:../Switch/core/yt/yt_rate.c **** {
 2349              		.loc 1 259 1 is_stmt 1 view -0
 2350              		.cfi_startproc
 2351              		@ args = 0, pretend = 0, frame = 0
 2352              		@ frame_needed = 0, uses_anonymous_args = 0
 2353              		.loc 1 259 1 is_stmt 0 view .LVU679
 2354 0000 08B5     		push	{r3, lr}
 2355              		.cfi_def_cfa_offset 8
 2356              		.cfi_offset 3, -8
 2357              		.cfi_offset 14, -4
 260:../Switch/core/yt/yt_rate.c ****     CMM_PARAM_CHK((YT_UNIT_NUM <= unit), CMM_ERR_INPUT);
 2358              		.loc 1 260 5 is_stmt 1 view .LVU680
 2359              		.loc 1 260 5 view .LVU681
 2360 0002 68B9     		cbnz	r0, .L246
 2361 0004 8446     		mov	ip, r0
 2362              		.loc 1 260 5 discriminator 2 view .LVU682
 261:../Switch/core/yt/yt_rate.c ****     CMM_PARAM_CHK(NULL == YT_DISPATCH(unit), CMM_ERR_NOT_INIT);
 2363              		.loc 1 261 5 discriminator 2 view .LVU683
 2364              		.loc 1 261 5 discriminator 2 view .LVU684
 2365 0006 224B     		ldr	r3, .L254
 2366 0008 53F82030 		ldr	r3, [r3, r0, lsl #2]
 2367 000c B3B1     		cbz	r3, .L247
 2368              		.loc 1 261 5 discriminator 2 view .LVU685
 262:../Switch/core/yt/yt_rate.c ****     CMM_PARAM_CHK((!(YT_DISPATCH(unit)->is_inited)), CMM_ERR_NOT_INIT);
 2369              		.loc 1 262 5 discriminator 2 view .LVU686
 2370              		.loc 1 262 5 discriminator 2 view .LVU687
 2371 000e 1878     		ldrb	r0, [r3]	@ zero_extendqisi2
 2372              	.LVL327:
 2373              		.loc 1 262 5 is_stmt 0 discriminator 2 view .LVU688
 2374 0010 10B3     		cbz	r0, .L248
 2375              		.loc 1 262 5 is_stmt 1 discriminator 2 view .LVU689
 263:../Switch/core/yt/yt_rate.c ****     CMM_PARAM_CHK((NULL == pEnable), CMM_ERR_NULL_POINT);
 2376              		.loc 1 263 5 discriminator 2 view .LVU690
 2377              		.loc 1 263 5 discriminator 2 view .LVU691
 2378 0012 002A     		cmp	r2, #0
 2379 0014 2ED0     		beq	.L249
 2380              		.loc 1 263 5 discriminator 2 view .LVU692
 264:../Switch/core/yt/yt_rate.c **** 
 265:../Switch/core/yt/yt_rate.c ****     return YT_DISPATCH(unit)->rate_meter_enable_get(unit, meter_id, pEnable);
 2381              		.loc 1 265 5 discriminator 2 view .LVU693
 2382              		.loc 1 265 29 is_stmt 0 discriminator 2 view .LVU694
 2383 0016 D3F85C32 		ldr	r3, [r3, #604]
 2384              		.loc 1 265 12 discriminator 2 view .LVU695
 2385 001a 6046     		mov	r0, ip
 2386 001c 9847     		blx	r3
 2387              	.LVL328:
 2388              	.L235:
 266:../Switch/core/yt/yt_rate.c **** }
 2389              		.loc 1 266 1 view .LVU696
 2390 001e 08BD     		pop	{r3, pc}
 2391              	.LVL329:
 2392              	.L246:
 260:../Switch/core/yt/yt_rate.c ****     CMM_PARAM_CHK(NULL == YT_DISPATCH(unit), CMM_ERR_NOT_INIT);
 2393              		.loc 1 260 5 is_stmt 1 discriminator 1 view .LVU697
 260:../Switch/core/yt/yt_rate.c ****     CMM_PARAM_CHK(NULL == YT_DISPATCH(unit), CMM_ERR_NOT_INIT);
 2394              		.loc 1 260 5 discriminator 1 view .LVU698
 2395 0020 1C4B     		ldr	r3, .L254+4
 2396 0022 1B78     		ldrb	r3, [r3]	@ zero_extendqisi2
 2397 0024 012B     		cmp	r3, #1
 2398 0026 01D8     		bhi	.L250
 2399              	.LVL330:
 2400              	.L237:
 260:../Switch/core/yt/yt_rate.c ****     CMM_PARAM_CHK(NULL == YT_DISPATCH(unit), CMM_ERR_NOT_INIT);
 2401              		.loc 1 260 5 discriminator 5 view .LVU699
 260:../Switch/core/yt/yt_rate.c ****     CMM_PARAM_CHK(NULL == YT_DISPATCH(unit), CMM_ERR_NOT_INIT);
 2402              		.loc 1 260 5 discriminator 5 view .LVU700
 260:../Switch/core/yt/yt_rate.c ****     CMM_PARAM_CHK(NULL == YT_DISPATCH(unit), CMM_ERR_NOT_INIT);
 2403              		.loc 1 260 5 discriminator 5 view .LVU701
 2404 0028 0520     		movs	r0, #5
 2405 002a F8E7     		b	.L235
 2406              	.LVL331:
 2407              	.L250:
 260:../Switch/core/yt/yt_rate.c ****     CMM_PARAM_CHK(NULL == YT_DISPATCH(unit), CMM_ERR_NOT_INIT);
 2408              		.loc 1 260 5 discriminator 3 view .LVU702
 2409              	.LBB48:
 260:../Switch/core/yt/yt_rate.c ****     CMM_PARAM_CHK(NULL == YT_DISPATCH(unit), CMM_ERR_NOT_INIT);
 2410              		.loc 1 260 5 discriminator 3 view .LVU703
 2411 002c 1A4B     		ldr	r3, .L254+8
 2412 002e 5A69     		ldr	r2, [r3, #20]
 2413              	.LVL332:
 260:../Switch/core/yt/yt_rate.c ****     CMM_PARAM_CHK(NULL == YT_DISPATCH(unit), CMM_ERR_NOT_INIT);
 2414              		.loc 1 260 5 is_stmt 0 discriminator 3 view .LVU704
 2415 0030 1A4B     		ldr	r3, .L254+12
 2416 0032 9968     		ldr	r1, [r3, #8]
 2417              	.LVL333:
 260:../Switch/core/yt/yt_rate.c ****     CMM_PARAM_CHK(NULL == YT_DISPATCH(unit), CMM_ERR_NOT_INIT);
 2418              		.loc 1 260 5 discriminator 3 view .LVU705
 2419 0034 1A48     		ldr	r0, .L254+16
 2420              	.LVL334:
 260:../Switch/core/yt/yt_rate.c ****     CMM_PARAM_CHK(NULL == YT_DISPATCH(unit), CMM_ERR_NOT_INIT);
 2421              		.loc 1 260 5 discriminator 3 view .LVU706
 2422 0036 FFF7FEFF 		bl	osal_printf
 2423              	.LVL335:
 2424 003a F5E7     		b	.L237
 2425              	.LVL336:
 2426              	.L247:
 260:../Switch/core/yt/yt_rate.c ****     CMM_PARAM_CHK(NULL == YT_DISPATCH(unit), CMM_ERR_NOT_INIT);
 2427              		.loc 1 260 5 discriminator 3 view .LVU707
 2428              	.LBE48:
 261:../Switch/core/yt/yt_rate.c ****     CMM_PARAM_CHK((!(YT_DISPATCH(unit)->is_inited)), CMM_ERR_NOT_INIT);
 2429              		.loc 1 261 5 is_stmt 1 discriminator 1 view .LVU708
 261:../Switch/core/yt/yt_rate.c ****     CMM_PARAM_CHK((!(YT_DISPATCH(unit)->is_inited)), CMM_ERR_NOT_INIT);
 2430              		.loc 1 261 5 discriminator 1 view .LVU709
 2431 003c 154B     		ldr	r3, .L254+4
 2432 003e 1B78     		ldrb	r3, [r3]	@ zero_extendqisi2
 2433 0040 012B     		cmp	r3, #1
 2434 0042 01D8     		bhi	.L251
 2435              	.LVL337:
 2436              	.L240:
 261:../Switch/core/yt/yt_rate.c ****     CMM_PARAM_CHK((!(YT_DISPATCH(unit)->is_inited)), CMM_ERR_NOT_INIT);
 2437              		.loc 1 261 5 discriminator 5 view .LVU710
 261:../Switch/core/yt/yt_rate.c ****     CMM_PARAM_CHK((!(YT_DISPATCH(unit)->is_inited)), CMM_ERR_NOT_INIT);
 2438              		.loc 1 261 5 discriminator 5 view .LVU711
 261:../Switch/core/yt/yt_rate.c ****     CMM_PARAM_CHK((!(YT_DISPATCH(unit)->is_inited)), CMM_ERR_NOT_INIT);
 2439              		.loc 1 261 5 discriminator 5 view .LVU712
 2440 0044 0420     		movs	r0, #4
 2441 0046 EAE7     		b	.L235
 2442              	.LVL338:
 2443              	.L251:
 261:../Switch/core/yt/yt_rate.c ****     CMM_PARAM_CHK((!(YT_DISPATCH(unit)->is_inited)), CMM_ERR_NOT_INIT);
 2444              		.loc 1 261 5 discriminator 3 view .LVU713
 2445              	.LBB49:
 261:../Switch/core/yt/yt_rate.c ****     CMM_PARAM_CHK((!(YT_DISPATCH(unit)->is_inited)), CMM_ERR_NOT_INIT);
 2446              		.loc 1 261 5 discriminator 3 view .LVU714
 2447 0048 134B     		ldr	r3, .L254+8
 2448 004a 1A69     		ldr	r2, [r3, #16]
 2449              	.LVL339:
 261:../Switch/core/yt/yt_rate.c ****     CMM_PARAM_CHK((!(YT_DISPATCH(unit)->is_inited)), CMM_ERR_NOT_INIT);
 2450              		.loc 1 261 5 is_stmt 0 discriminator 3 view .LVU715
 2451 004c 134B     		ldr	r3, .L254+12
 2452 004e 9968     		ldr	r1, [r3, #8]
 2453              	.LVL340:
 261:../Switch/core/yt/yt_rate.c ****     CMM_PARAM_CHK((!(YT_DISPATCH(unit)->is_inited)), CMM_ERR_NOT_INIT);
 2454              		.loc 1 261 5 discriminator 3 view .LVU716
 2455 0050 1348     		ldr	r0, .L254+16
 2456              	.LVL341:
 261:../Switch/core/yt/yt_rate.c ****     CMM_PARAM_CHK((!(YT_DISPATCH(unit)->is_inited)), CMM_ERR_NOT_INIT);
 2457              		.loc 1 261 5 discriminator 3 view .LVU717
 2458 0052 FFF7FEFF 		bl	osal_printf
 2459              	.LVL342:
 2460 0056 F5E7     		b	.L240
 2461              	.LVL343:
 2462              	.L248:
 261:../Switch/core/yt/yt_rate.c ****     CMM_PARAM_CHK((!(YT_DISPATCH(unit)->is_inited)), CMM_ERR_NOT_INIT);
 2463              		.loc 1 261 5 discriminator 3 view .LVU718
 2464              	.LBE49:
 262:../Switch/core/yt/yt_rate.c ****     CMM_PARAM_CHK((NULL == pEnable), CMM_ERR_NULL_POINT);
 2465              		.loc 1 262 5 is_stmt 1 discriminator 1 view .LVU719
 262:../Switch/core/yt/yt_rate.c ****     CMM_PARAM_CHK((NULL == pEnable), CMM_ERR_NULL_POINT);
 2466              		.loc 1 262 5 discriminator 1 view .LVU720
 2467 0058 0E4B     		ldr	r3, .L254+4
 2468 005a 1B78     		ldrb	r3, [r3]	@ zero_extendqisi2
 2469 005c 012B     		cmp	r3, #1
 2470 005e 01D8     		bhi	.L252
 2471              	.LVL344:
 2472              	.L242:
 262:../Switch/core/yt/yt_rate.c ****     CMM_PARAM_CHK((NULL == pEnable), CMM_ERR_NULL_POINT);
 2473              		.loc 1 262 5 discriminator 5 view .LVU721
 262:../Switch/core/yt/yt_rate.c ****     CMM_PARAM_CHK((NULL == pEnable), CMM_ERR_NULL_POINT);
 2474              		.loc 1 262 5 discriminator 5 view .LVU722
 262:../Switch/core/yt/yt_rate.c ****     CMM_PARAM_CHK((NULL == pEnable), CMM_ERR_NULL_POINT);
 2475              		.loc 1 262 5 discriminator 5 view .LVU723
 2476 0060 0420     		movs	r0, #4
 2477 0062 DCE7     		b	.L235
 2478              	.LVL345:
 2479              	.L252:
 262:../Switch/core/yt/yt_rate.c ****     CMM_PARAM_CHK((NULL == pEnable), CMM_ERR_NULL_POINT);
 2480              		.loc 1 262 5 discriminator 3 view .LVU724
 2481              	.LBB50:
 262:../Switch/core/yt/yt_rate.c ****     CMM_PARAM_CHK((NULL == pEnable), CMM_ERR_NULL_POINT);
 2482              		.loc 1 262 5 discriminator 3 view .LVU725
 2483 0064 0C4B     		ldr	r3, .L254+8
 2484 0066 1A69     		ldr	r2, [r3, #16]
 2485              	.LVL346:
 262:../Switch/core/yt/yt_rate.c ****     CMM_PARAM_CHK((NULL == pEnable), CMM_ERR_NULL_POINT);
 2486              		.loc 1 262 5 is_stmt 0 discriminator 3 view .LVU726
 2487 0068 0C4B     		ldr	r3, .L254+12
 2488 006a 9968     		ldr	r1, [r3, #8]
 2489              	.LVL347:
 262:../Switch/core/yt/yt_rate.c ****     CMM_PARAM_CHK((NULL == pEnable), CMM_ERR_NULL_POINT);
 2490              		.loc 1 262 5 discriminator 3 view .LVU727
 2491 006c 0C48     		ldr	r0, .L254+16
 2492 006e FFF7FEFF 		bl	osal_printf
 2493              	.LVL348:
 2494 0072 F5E7     		b	.L242
 2495              	.LVL349:
 2496              	.L249:
 262:../Switch/core/yt/yt_rate.c ****     CMM_PARAM_CHK((NULL == pEnable), CMM_ERR_NULL_POINT);
 2497              		.loc 1 262 5 discriminator 3 view .LVU728
 2498              	.LBE50:
 263:../Switch/core/yt/yt_rate.c **** 
 2499              		.loc 1 263 5 is_stmt 1 discriminator 1 view .LVU729
 263:../Switch/core/yt/yt_rate.c **** 
 2500              		.loc 1 263 5 discriminator 1 view .LVU730
 2501 0074 074B     		ldr	r3, .L254+4
 2502 0076 1B78     		ldrb	r3, [r3]	@ zero_extendqisi2
 2503 0078 012B     		cmp	r3, #1
 2504 007a 01D8     		bhi	.L253
 2505              	.LVL350:
 2506              	.L244:
 263:../Switch/core/yt/yt_rate.c **** 
 2507              		.loc 1 263 5 discriminator 5 view .LVU731
 263:../Switch/core/yt/yt_rate.c **** 
 2508              		.loc 1 263 5 discriminator 5 view .LVU732
 263:../Switch/core/yt/yt_rate.c **** 
 2509              		.loc 1 263 5 discriminator 5 view .LVU733
 2510 007c 0220     		movs	r0, #2
 2511 007e CEE7     		b	.L235
 2512              	.LVL351:
 2513              	.L253:
 263:../Switch/core/yt/yt_rate.c **** 
 2514              		.loc 1 263 5 discriminator 3 view .LVU734
 2515              	.LBB51:
 263:../Switch/core/yt/yt_rate.c **** 
 2516              		.loc 1 263 5 discriminator 3 view .LVU735
 2517 0080 054B     		ldr	r3, .L254+8
 2518 0082 9A68     		ldr	r2, [r3, #8]
 2519              	.LVL352:
 263:../Switch/core/yt/yt_rate.c **** 
 2520              		.loc 1 263 5 is_stmt 0 discriminator 3 view .LVU736
 2521 0084 054B     		ldr	r3, .L254+12
 2522 0086 9968     		ldr	r1, [r3, #8]
 2523              	.LVL353:
 263:../Switch/core/yt/yt_rate.c **** 
 2524              		.loc 1 263 5 discriminator 3 view .LVU737
 2525 0088 0548     		ldr	r0, .L254+16
 2526 008a FFF7FEFF 		bl	osal_printf
 2527              	.LVL354:
 2528 008e F5E7     		b	.L244
 2529              	.L255:
 2530              		.align	2
 2531              	.L254:
 2532 0090 00000000 		.word	gpfal_dispatch
 2533 0094 00000000 		.word	yt_debug_level
 2534 0098 00000000 		.word	_yt_errmsg
 2535 009c 00000000 		.word	_yt_prompt_msg
 2536 00a0 00000000 		.word	.LC0
 2537              	.LBE51:
 2538              		.cfi_endproc
 2539              	.LFE13:
 2541              		.section	.text.yt_rate_meter_mode_set,"ax",%progbits
 2542              		.align	1
 2543              		.global	yt_rate_meter_mode_set
 2544              		.syntax unified
 2545              		.thumb
 2546              		.thumb_func
 2548              	yt_rate_meter_mode_set:
 2549              	.LVL355:
 2550              	.LFB14:
 267:../Switch/core/yt/yt_rate.c **** 
 268:../Switch/core/yt/yt_rate.c **** /**
 269:../Switch/core/yt/yt_rate.c ****  * @internal      yt_rate_meter_mode_set
 270:../Switch/core/yt/yt_rate.c ****  * @endinternal
 271:../Switch/core/yt/yt_rate.c ****  *
 272:../Switch/core/yt/yt_rate.c ****  * @brief         Description
 273:../Switch/core/yt/yt_rate.c ****  * @note          APPLICABLE DEVICES  -Tiger
 274:../Switch/core/yt/yt_rate.c ****  * @param[in]     unit                -unit id
 275:../Switch/core/yt/yt_rate.c ****  * @param[in]     meter_id            -meter id, can access meter tbl by it
 276:../Switch/core/yt/yt_rate.c ****  * @param[in]     mode                - meter mode config
 277:../Switch/core/yt/yt_rate.c ****  * @retval        CMM_ERR_OK          -on success
 278:../Switch/core/yt/yt_rate.c ****  * @retval        CMM_ERR_FAIL        -on fail
 279:../Switch/core/yt/yt_rate.c ****  */
 280:../Switch/core/yt/yt_rate.c **** yt_ret_t yt_rate_meter_mode_set(yt_unit_t unit, yt_meterid_t meter_id, yt_rate_meter_mode_t mode)
 281:../Switch/core/yt/yt_rate.c **** {
 2551              		.loc 1 281 1 is_stmt 1 view -0
 2552              		.cfi_startproc
 2553              		@ args = 0, pretend = 0, frame = 8
 2554              		@ frame_needed = 0, uses_anonymous_args = 0
 2555              		.loc 1 281 1 is_stmt 0 view .LVU739
 2556 0000 10B5     		push	{r4, lr}
 2557              		.cfi_def_cfa_offset 8
 2558              		.cfi_offset 4, -8
 2559              		.cfi_offset 14, -4
 2560 0002 82B0     		sub	sp, sp, #8
 2561              		.cfi_def_cfa_offset 16
 2562 0004 02AC     		add	r4, sp, #8
 2563 0006 04E90C00 		stmdb	r4, {r2, r3}
 282:../Switch/core/yt/yt_rate.c ****     CMM_PARAM_CHK((YT_UNIT_NUM <= unit), CMM_ERR_INPUT);
 2564              		.loc 1 282 5 is_stmt 1 view .LVU740
 2565              		.loc 1 282 5 view .LVU741
 2566 000a 68B9     		cbnz	r0, .L265
 2567              		.loc 1 282 5 discriminator 2 view .LVU742
 283:../Switch/core/yt/yt_rate.c ****     CMM_PARAM_CHK(NULL == YT_DISPATCH(unit), CMM_ERR_NOT_INIT);
 2568              		.loc 1 283 5 discriminator 2 view .LVU743
 2569              		.loc 1 283 5 discriminator 2 view .LVU744
 2570 000c 1B4B     		ldr	r3, .L271
 2571 000e 53F82030 		ldr	r3, [r3, r0, lsl #2]
 2572 0012 BBB1     		cbz	r3, .L266
 2573              		.loc 1 283 5 discriminator 2 view .LVU745
 284:../Switch/core/yt/yt_rate.c ****     CMM_PARAM_CHK((!(YT_DISPATCH(unit)->is_inited)), CMM_ERR_NOT_INIT);
 2574              		.loc 1 284 5 discriminator 2 view .LVU746
 2575              		.loc 1 284 5 discriminator 2 view .LVU747
 2576 0014 1A78     		ldrb	r2, [r3]	@ zero_extendqisi2
 2577 0016 1AB3     		cbz	r2, .L267
 2578              		.loc 1 284 5 discriminator 2 view .LVU748
 285:../Switch/core/yt/yt_rate.c **** 
 286:../Switch/core/yt/yt_rate.c ****     return YT_DISPATCH(unit)->rate_meter_mode_set(unit, meter_id, mode);
 2579              		.loc 1 286 5 discriminator 2 view .LVU749
 2580              		.loc 1 286 29 is_stmt 0 discriminator 2 view .LVU750
 2581 0018 D3F86042 		ldr	r4, [r3, #608]
 2582              		.loc 1 286 12 discriminator 2 view .LVU751
 2583 001c 02AB     		add	r3, sp, #8
 2584 001e 13E90C00 		ldmdb	r3, {r2, r3}
 2585 0022 A047     		blx	r4
 2586              	.LVL356:
 2587              	.L256:
 287:../Switch/core/yt/yt_rate.c **** }
 2588              		.loc 1 287 1 view .LVU752
 2589 0024 02B0     		add	sp, sp, #8
 2590              		.cfi_remember_state
 2591              		.cfi_def_cfa_offset 8
 2592              		@ sp needed
 2593 0026 10BD     		pop	{r4, pc}
 2594              	.LVL357:
 2595              	.L265:
 2596              		.cfi_restore_state
 282:../Switch/core/yt/yt_rate.c ****     CMM_PARAM_CHK(NULL == YT_DISPATCH(unit), CMM_ERR_NOT_INIT);
 2597              		.loc 1 282 5 is_stmt 1 discriminator 1 view .LVU753
 282:../Switch/core/yt/yt_rate.c ****     CMM_PARAM_CHK(NULL == YT_DISPATCH(unit), CMM_ERR_NOT_INIT);
 2598              		.loc 1 282 5 discriminator 1 view .LVU754
 2599 0028 154B     		ldr	r3, .L271+4
 2600 002a 1B78     		ldrb	r3, [r3]	@ zero_extendqisi2
 2601 002c 012B     		cmp	r3, #1
 2602 002e 01D8     		bhi	.L268
 2603              	.LVL358:
 2604              	.L258:
 282:../Switch/core/yt/yt_rate.c ****     CMM_PARAM_CHK(NULL == YT_DISPATCH(unit), CMM_ERR_NOT_INIT);
 2605              		.loc 1 282 5 discriminator 5 view .LVU755
 282:../Switch/core/yt/yt_rate.c ****     CMM_PARAM_CHK(NULL == YT_DISPATCH(unit), CMM_ERR_NOT_INIT);
 2606              		.loc 1 282 5 discriminator 5 view .LVU756
 282:../Switch/core/yt/yt_rate.c ****     CMM_PARAM_CHK(NULL == YT_DISPATCH(unit), CMM_ERR_NOT_INIT);
 2607              		.loc 1 282 5 discriminator 5 view .LVU757
 2608 0030 0520     		movs	r0, #5
 2609 0032 F7E7     		b	.L256
 2610              	.LVL359:
 2611              	.L268:
 282:../Switch/core/yt/yt_rate.c ****     CMM_PARAM_CHK(NULL == YT_DISPATCH(unit), CMM_ERR_NOT_INIT);
 2612              		.loc 1 282 5 discriminator 3 view .LVU758
 2613              	.LBB52:
 282:../Switch/core/yt/yt_rate.c ****     CMM_PARAM_CHK(NULL == YT_DISPATCH(unit), CMM_ERR_NOT_INIT);
 2614              		.loc 1 282 5 discriminator 3 view .LVU759
 2615 0034 134B     		ldr	r3, .L271+8
 2616 0036 5A69     		ldr	r2, [r3, #20]
 2617 0038 134B     		ldr	r3, .L271+12
 2618 003a 9968     		ldr	r1, [r3, #8]
 2619              	.LVL360:
 282:../Switch/core/yt/yt_rate.c ****     CMM_PARAM_CHK(NULL == YT_DISPATCH(unit), CMM_ERR_NOT_INIT);
 2620              		.loc 1 282 5 is_stmt 0 discriminator 3 view .LVU760
 2621 003c 1348     		ldr	r0, .L271+16
 2622              	.LVL361:
 282:../Switch/core/yt/yt_rate.c ****     CMM_PARAM_CHK(NULL == YT_DISPATCH(unit), CMM_ERR_NOT_INIT);
 2623              		.loc 1 282 5 discriminator 3 view .LVU761
 2624 003e FFF7FEFF 		bl	osal_printf
 2625              	.LVL362:
 2626 0042 F5E7     		b	.L258
 2627              	.LVL363:
 2628              	.L266:
 282:../Switch/core/yt/yt_rate.c ****     CMM_PARAM_CHK(NULL == YT_DISPATCH(unit), CMM_ERR_NOT_INIT);
 2629              		.loc 1 282 5 discriminator 3 view .LVU762
 2630              	.LBE52:
 283:../Switch/core/yt/yt_rate.c ****     CMM_PARAM_CHK((!(YT_DISPATCH(unit)->is_inited)), CMM_ERR_NOT_INIT);
 2631              		.loc 1 283 5 is_stmt 1 discriminator 1 view .LVU763
 283:../Switch/core/yt/yt_rate.c ****     CMM_PARAM_CHK((!(YT_DISPATCH(unit)->is_inited)), CMM_ERR_NOT_INIT);
 2632              		.loc 1 283 5 discriminator 1 view .LVU764
 2633 0044 0E4B     		ldr	r3, .L271+4
 2634 0046 1B78     		ldrb	r3, [r3]	@ zero_extendqisi2
 2635 0048 012B     		cmp	r3, #1
 2636 004a 01D8     		bhi	.L269
 2637              	.LVL364:
 2638              	.L261:
 283:../Switch/core/yt/yt_rate.c ****     CMM_PARAM_CHK((!(YT_DISPATCH(unit)->is_inited)), CMM_ERR_NOT_INIT);
 2639              		.loc 1 283 5 discriminator 5 view .LVU765
 283:../Switch/core/yt/yt_rate.c ****     CMM_PARAM_CHK((!(YT_DISPATCH(unit)->is_inited)), CMM_ERR_NOT_INIT);
 2640              		.loc 1 283 5 discriminator 5 view .LVU766
 283:../Switch/core/yt/yt_rate.c ****     CMM_PARAM_CHK((!(YT_DISPATCH(unit)->is_inited)), CMM_ERR_NOT_INIT);
 2641              		.loc 1 283 5 discriminator 5 view .LVU767
 2642 004c 0420     		movs	r0, #4
 2643 004e E9E7     		b	.L256
 2644              	.LVL365:
 2645              	.L269:
 283:../Switch/core/yt/yt_rate.c ****     CMM_PARAM_CHK((!(YT_DISPATCH(unit)->is_inited)), CMM_ERR_NOT_INIT);
 2646              		.loc 1 283 5 discriminator 3 view .LVU768
 2647              	.LBB53:
 283:../Switch/core/yt/yt_rate.c ****     CMM_PARAM_CHK((!(YT_DISPATCH(unit)->is_inited)), CMM_ERR_NOT_INIT);
 2648              		.loc 1 283 5 discriminator 3 view .LVU769
 2649 0050 0C4B     		ldr	r3, .L271+8
 2650 0052 1A69     		ldr	r2, [r3, #16]
 2651 0054 0C4B     		ldr	r3, .L271+12
 2652 0056 9968     		ldr	r1, [r3, #8]
 2653              	.LVL366:
 283:../Switch/core/yt/yt_rate.c ****     CMM_PARAM_CHK((!(YT_DISPATCH(unit)->is_inited)), CMM_ERR_NOT_INIT);
 2654              		.loc 1 283 5 is_stmt 0 discriminator 3 view .LVU770
 2655 0058 0C48     		ldr	r0, .L271+16
 2656              	.LVL367:
 283:../Switch/core/yt/yt_rate.c ****     CMM_PARAM_CHK((!(YT_DISPATCH(unit)->is_inited)), CMM_ERR_NOT_INIT);
 2657              		.loc 1 283 5 discriminator 3 view .LVU771
 2658 005a FFF7FEFF 		bl	osal_printf
 2659              	.LVL368:
 2660 005e F5E7     		b	.L261
 2661              	.LVL369:
 2662              	.L267:
 283:../Switch/core/yt/yt_rate.c ****     CMM_PARAM_CHK((!(YT_DISPATCH(unit)->is_inited)), CMM_ERR_NOT_INIT);
 2663              		.loc 1 283 5 discriminator 3 view .LVU772
 2664              	.LBE53:
 284:../Switch/core/yt/yt_rate.c **** 
 2665              		.loc 1 284 5 is_stmt 1 discriminator 1 view .LVU773
 284:../Switch/core/yt/yt_rate.c **** 
 2666              		.loc 1 284 5 discriminator 1 view .LVU774
 2667 0060 074B     		ldr	r3, .L271+4
 2668 0062 1B78     		ldrb	r3, [r3]	@ zero_extendqisi2
 2669 0064 012B     		cmp	r3, #1
 2670 0066 01D8     		bhi	.L270
 2671              	.LVL370:
 2672              	.L263:
 284:../Switch/core/yt/yt_rate.c **** 
 2673              		.loc 1 284 5 discriminator 5 view .LVU775
 284:../Switch/core/yt/yt_rate.c **** 
 2674              		.loc 1 284 5 discriminator 5 view .LVU776
 284:../Switch/core/yt/yt_rate.c **** 
 2675              		.loc 1 284 5 discriminator 5 view .LVU777
 2676 0068 0420     		movs	r0, #4
 2677 006a DBE7     		b	.L256
 2678              	.LVL371:
 2679              	.L270:
 284:../Switch/core/yt/yt_rate.c **** 
 2680              		.loc 1 284 5 discriminator 3 view .LVU778
 2681              	.LBB54:
 284:../Switch/core/yt/yt_rate.c **** 
 2682              		.loc 1 284 5 discriminator 3 view .LVU779
 2683 006c 054B     		ldr	r3, .L271+8
 2684 006e 1A69     		ldr	r2, [r3, #16]
 2685 0070 054B     		ldr	r3, .L271+12
 2686 0072 9968     		ldr	r1, [r3, #8]
 2687              	.LVL372:
 284:../Switch/core/yt/yt_rate.c **** 
 2688              		.loc 1 284 5 is_stmt 0 discriminator 3 view .LVU780
 2689 0074 0548     		ldr	r0, .L271+16
 2690              	.LVL373:
 284:../Switch/core/yt/yt_rate.c **** 
 2691              		.loc 1 284 5 discriminator 3 view .LVU781
 2692 0076 FFF7FEFF 		bl	osal_printf
 2693              	.LVL374:
 2694 007a F5E7     		b	.L263
 2695              	.L272:
 2696              		.align	2
 2697              	.L271:
 2698 007c 00000000 		.word	gpfal_dispatch
 2699 0080 00000000 		.word	yt_debug_level
 2700 0084 00000000 		.word	_yt_errmsg
 2701 0088 00000000 		.word	_yt_prompt_msg
 2702 008c 00000000 		.word	.LC0
 2703              	.LBE54:
 2704              		.cfi_endproc
 2705              	.LFE14:
 2707              		.section	.text.yt_rate_meter_mode_get,"ax",%progbits
 2708              		.align	1
 2709              		.global	yt_rate_meter_mode_get
 2710              		.syntax unified
 2711              		.thumb
 2712              		.thumb_func
 2714              	yt_rate_meter_mode_get:
 2715              	.LVL375:
 2716              	.LFB15:
 288:../Switch/core/yt/yt_rate.c **** 
 289:../Switch/core/yt/yt_rate.c **** /**
 290:../Switch/core/yt/yt_rate.c ****  * @internal      yt_rate_meter_mode_get
 291:../Switch/core/yt/yt_rate.c ****  * @endinternal
 292:../Switch/core/yt/yt_rate.c ****  *
 293:../Switch/core/yt/yt_rate.c ****  * @brief         Description
 294:../Switch/core/yt/yt_rate.c ****  * @note          APPLICABLE DEVICES  -Tiger
 295:../Switch/core/yt/yt_rate.c ****  * @param[in]     unit                -unit id
 296:../Switch/core/yt/yt_rate.c ****  * @param[in]     meter_id            -meter id, can access meter tbl by it
 297:../Switch/core/yt/yt_rate.c ****  * @param[out]    pMode               - meter mode config
 298:../Switch/core/yt/yt_rate.c ****  * @retval        CMM_ERR_OK          -on success
 299:../Switch/core/yt/yt_rate.c ****  * @retval        CMM_ERR_FAIL        -on fail
 300:../Switch/core/yt/yt_rate.c ****  */
 301:../Switch/core/yt/yt_rate.c **** yt_ret_t yt_rate_meter_mode_get(yt_unit_t unit, yt_meterid_t meter_id, yt_rate_meter_mode_t *pMode)
 302:../Switch/core/yt/yt_rate.c **** {
 2717              		.loc 1 302 1 is_stmt 1 view -0
 2718              		.cfi_startproc
 2719              		@ args = 0, pretend = 0, frame = 0
 2720              		@ frame_needed = 0, uses_anonymous_args = 0
 2721              		.loc 1 302 1 is_stmt 0 view .LVU783
 2722 0000 08B5     		push	{r3, lr}
 2723              		.cfi_def_cfa_offset 8
 2724              		.cfi_offset 3, -8
 2725              		.cfi_offset 14, -4
 303:../Switch/core/yt/yt_rate.c ****     CMM_PARAM_CHK((YT_UNIT_NUM <= unit), CMM_ERR_INPUT);
 2726              		.loc 1 303 5 is_stmt 1 view .LVU784
 2727              		.loc 1 303 5 view .LVU785
 2728 0002 68B9     		cbnz	r0, .L284
 2729 0004 8446     		mov	ip, r0
 2730              		.loc 1 303 5 discriminator 2 view .LVU786
 304:../Switch/core/yt/yt_rate.c ****     CMM_PARAM_CHK(NULL == YT_DISPATCH(unit), CMM_ERR_NOT_INIT);
 2731              		.loc 1 304 5 discriminator 2 view .LVU787
 2732              		.loc 1 304 5 discriminator 2 view .LVU788
 2733 0006 224B     		ldr	r3, .L292
 2734 0008 53F82030 		ldr	r3, [r3, r0, lsl #2]
 2735 000c B3B1     		cbz	r3, .L285
 2736              		.loc 1 304 5 discriminator 2 view .LVU789
 305:../Switch/core/yt/yt_rate.c ****     CMM_PARAM_CHK((!(YT_DISPATCH(unit)->is_inited)), CMM_ERR_NOT_INIT);
 2737              		.loc 1 305 5 discriminator 2 view .LVU790
 2738              		.loc 1 305 5 discriminator 2 view .LVU791
 2739 000e 1878     		ldrb	r0, [r3]	@ zero_extendqisi2
 2740              	.LVL376:
 2741              		.loc 1 305 5 is_stmt 0 discriminator 2 view .LVU792
 2742 0010 10B3     		cbz	r0, .L286
 2743              		.loc 1 305 5 is_stmt 1 discriminator 2 view .LVU793
 306:../Switch/core/yt/yt_rate.c ****     CMM_PARAM_CHK((NULL == pMode), CMM_ERR_NULL_POINT);
 2744              		.loc 1 306 5 discriminator 2 view .LVU794
 2745              		.loc 1 306 5 discriminator 2 view .LVU795
 2746 0012 002A     		cmp	r2, #0
 2747 0014 2ED0     		beq	.L287
 2748              		.loc 1 306 5 discriminator 2 view .LVU796
 307:../Switch/core/yt/yt_rate.c **** 
 308:../Switch/core/yt/yt_rate.c ****     return YT_DISPATCH(unit)->rate_meter_mode_get(unit, meter_id, pMode);
 2749              		.loc 1 308 5 discriminator 2 view .LVU797
 2750              		.loc 1 308 29 is_stmt 0 discriminator 2 view .LVU798
 2751 0016 D3F86432 		ldr	r3, [r3, #612]
 2752              		.loc 1 308 12 discriminator 2 view .LVU799
 2753 001a 6046     		mov	r0, ip
 2754 001c 9847     		blx	r3
 2755              	.LVL377:
 2756              	.L273:
 309:../Switch/core/yt/yt_rate.c **** }
 2757              		.loc 1 309 1 view .LVU800
 2758 001e 08BD     		pop	{r3, pc}
 2759              	.LVL378:
 2760              	.L284:
 303:../Switch/core/yt/yt_rate.c ****     CMM_PARAM_CHK(NULL == YT_DISPATCH(unit), CMM_ERR_NOT_INIT);
 2761              		.loc 1 303 5 is_stmt 1 discriminator 1 view .LVU801
 303:../Switch/core/yt/yt_rate.c ****     CMM_PARAM_CHK(NULL == YT_DISPATCH(unit), CMM_ERR_NOT_INIT);
 2762              		.loc 1 303 5 discriminator 1 view .LVU802
 2763 0020 1C4B     		ldr	r3, .L292+4
 2764 0022 1B78     		ldrb	r3, [r3]	@ zero_extendqisi2
 2765 0024 012B     		cmp	r3, #1
 2766 0026 01D8     		bhi	.L288
 2767              	.LVL379:
 2768              	.L275:
 303:../Switch/core/yt/yt_rate.c ****     CMM_PARAM_CHK(NULL == YT_DISPATCH(unit), CMM_ERR_NOT_INIT);
 2769              		.loc 1 303 5 discriminator 5 view .LVU803
 303:../Switch/core/yt/yt_rate.c ****     CMM_PARAM_CHK(NULL == YT_DISPATCH(unit), CMM_ERR_NOT_INIT);
 2770              		.loc 1 303 5 discriminator 5 view .LVU804
 303:../Switch/core/yt/yt_rate.c ****     CMM_PARAM_CHK(NULL == YT_DISPATCH(unit), CMM_ERR_NOT_INIT);
 2771              		.loc 1 303 5 discriminator 5 view .LVU805
 2772 0028 0520     		movs	r0, #5
 2773 002a F8E7     		b	.L273
 2774              	.LVL380:
 2775              	.L288:
 303:../Switch/core/yt/yt_rate.c ****     CMM_PARAM_CHK(NULL == YT_DISPATCH(unit), CMM_ERR_NOT_INIT);
 2776              		.loc 1 303 5 discriminator 3 view .LVU806
 2777              	.LBB55:
 303:../Switch/core/yt/yt_rate.c ****     CMM_PARAM_CHK(NULL == YT_DISPATCH(unit), CMM_ERR_NOT_INIT);
 2778              		.loc 1 303 5 discriminator 3 view .LVU807
 2779 002c 1A4B     		ldr	r3, .L292+8
 2780 002e 5A69     		ldr	r2, [r3, #20]
 2781              	.LVL381:
 303:../Switch/core/yt/yt_rate.c ****     CMM_PARAM_CHK(NULL == YT_DISPATCH(unit), CMM_ERR_NOT_INIT);
 2782              		.loc 1 303 5 is_stmt 0 discriminator 3 view .LVU808
 2783 0030 1A4B     		ldr	r3, .L292+12
 2784 0032 9968     		ldr	r1, [r3, #8]
 2785              	.LVL382:
 303:../Switch/core/yt/yt_rate.c ****     CMM_PARAM_CHK(NULL == YT_DISPATCH(unit), CMM_ERR_NOT_INIT);
 2786              		.loc 1 303 5 discriminator 3 view .LVU809
 2787 0034 1A48     		ldr	r0, .L292+16
 2788              	.LVL383:
 303:../Switch/core/yt/yt_rate.c ****     CMM_PARAM_CHK(NULL == YT_DISPATCH(unit), CMM_ERR_NOT_INIT);
 2789              		.loc 1 303 5 discriminator 3 view .LVU810
 2790 0036 FFF7FEFF 		bl	osal_printf
 2791              	.LVL384:
 2792 003a F5E7     		b	.L275
 2793              	.LVL385:
 2794              	.L285:
 303:../Switch/core/yt/yt_rate.c ****     CMM_PARAM_CHK(NULL == YT_DISPATCH(unit), CMM_ERR_NOT_INIT);
 2795              		.loc 1 303 5 discriminator 3 view .LVU811
 2796              	.LBE55:
 304:../Switch/core/yt/yt_rate.c ****     CMM_PARAM_CHK((!(YT_DISPATCH(unit)->is_inited)), CMM_ERR_NOT_INIT);
 2797              		.loc 1 304 5 is_stmt 1 discriminator 1 view .LVU812
 304:../Switch/core/yt/yt_rate.c ****     CMM_PARAM_CHK((!(YT_DISPATCH(unit)->is_inited)), CMM_ERR_NOT_INIT);
 2798              		.loc 1 304 5 discriminator 1 view .LVU813
 2799 003c 154B     		ldr	r3, .L292+4
 2800 003e 1B78     		ldrb	r3, [r3]	@ zero_extendqisi2
 2801 0040 012B     		cmp	r3, #1
 2802 0042 01D8     		bhi	.L289
 2803              	.LVL386:
 2804              	.L278:
 304:../Switch/core/yt/yt_rate.c ****     CMM_PARAM_CHK((!(YT_DISPATCH(unit)->is_inited)), CMM_ERR_NOT_INIT);
 2805              		.loc 1 304 5 discriminator 5 view .LVU814
 304:../Switch/core/yt/yt_rate.c ****     CMM_PARAM_CHK((!(YT_DISPATCH(unit)->is_inited)), CMM_ERR_NOT_INIT);
 2806              		.loc 1 304 5 discriminator 5 view .LVU815
 304:../Switch/core/yt/yt_rate.c ****     CMM_PARAM_CHK((!(YT_DISPATCH(unit)->is_inited)), CMM_ERR_NOT_INIT);
 2807              		.loc 1 304 5 discriminator 5 view .LVU816
 2808 0044 0420     		movs	r0, #4
 2809 0046 EAE7     		b	.L273
 2810              	.LVL387:
 2811              	.L289:
 304:../Switch/core/yt/yt_rate.c ****     CMM_PARAM_CHK((!(YT_DISPATCH(unit)->is_inited)), CMM_ERR_NOT_INIT);
 2812              		.loc 1 304 5 discriminator 3 view .LVU817
 2813              	.LBB56:
 304:../Switch/core/yt/yt_rate.c ****     CMM_PARAM_CHK((!(YT_DISPATCH(unit)->is_inited)), CMM_ERR_NOT_INIT);
 2814              		.loc 1 304 5 discriminator 3 view .LVU818
 2815 0048 134B     		ldr	r3, .L292+8
 2816 004a 1A69     		ldr	r2, [r3, #16]
 2817              	.LVL388:
 304:../Switch/core/yt/yt_rate.c ****     CMM_PARAM_CHK((!(YT_DISPATCH(unit)->is_inited)), CMM_ERR_NOT_INIT);
 2818              		.loc 1 304 5 is_stmt 0 discriminator 3 view .LVU819
 2819 004c 134B     		ldr	r3, .L292+12
 2820 004e 9968     		ldr	r1, [r3, #8]
 2821              	.LVL389:
 304:../Switch/core/yt/yt_rate.c ****     CMM_PARAM_CHK((!(YT_DISPATCH(unit)->is_inited)), CMM_ERR_NOT_INIT);
 2822              		.loc 1 304 5 discriminator 3 view .LVU820
 2823 0050 1348     		ldr	r0, .L292+16
 2824              	.LVL390:
 304:../Switch/core/yt/yt_rate.c ****     CMM_PARAM_CHK((!(YT_DISPATCH(unit)->is_inited)), CMM_ERR_NOT_INIT);
 2825              		.loc 1 304 5 discriminator 3 view .LVU821
 2826 0052 FFF7FEFF 		bl	osal_printf
 2827              	.LVL391:
 2828 0056 F5E7     		b	.L278
 2829              	.LVL392:
 2830              	.L286:
 304:../Switch/core/yt/yt_rate.c ****     CMM_PARAM_CHK((!(YT_DISPATCH(unit)->is_inited)), CMM_ERR_NOT_INIT);
 2831              		.loc 1 304 5 discriminator 3 view .LVU822
 2832              	.LBE56:
 305:../Switch/core/yt/yt_rate.c ****     CMM_PARAM_CHK((NULL == pMode), CMM_ERR_NULL_POINT);
 2833              		.loc 1 305 5 is_stmt 1 discriminator 1 view .LVU823
 305:../Switch/core/yt/yt_rate.c ****     CMM_PARAM_CHK((NULL == pMode), CMM_ERR_NULL_POINT);
 2834              		.loc 1 305 5 discriminator 1 view .LVU824
 2835 0058 0E4B     		ldr	r3, .L292+4
 2836 005a 1B78     		ldrb	r3, [r3]	@ zero_extendqisi2
 2837 005c 012B     		cmp	r3, #1
 2838 005e 01D8     		bhi	.L290
 2839              	.LVL393:
 2840              	.L280:
 305:../Switch/core/yt/yt_rate.c ****     CMM_PARAM_CHK((NULL == pMode), CMM_ERR_NULL_POINT);
 2841              		.loc 1 305 5 discriminator 5 view .LVU825
 305:../Switch/core/yt/yt_rate.c ****     CMM_PARAM_CHK((NULL == pMode), CMM_ERR_NULL_POINT);
 2842              		.loc 1 305 5 discriminator 5 view .LVU826
 305:../Switch/core/yt/yt_rate.c ****     CMM_PARAM_CHK((NULL == pMode), CMM_ERR_NULL_POINT);
 2843              		.loc 1 305 5 discriminator 5 view .LVU827
 2844 0060 0420     		movs	r0, #4
 2845 0062 DCE7     		b	.L273
 2846              	.LVL394:
 2847              	.L290:
 305:../Switch/core/yt/yt_rate.c ****     CMM_PARAM_CHK((NULL == pMode), CMM_ERR_NULL_POINT);
 2848              		.loc 1 305 5 discriminator 3 view .LVU828
 2849              	.LBB57:
 305:../Switch/core/yt/yt_rate.c ****     CMM_PARAM_CHK((NULL == pMode), CMM_ERR_NULL_POINT);
 2850              		.loc 1 305 5 discriminator 3 view .LVU829
 2851 0064 0C4B     		ldr	r3, .L292+8
 2852 0066 1A69     		ldr	r2, [r3, #16]
 2853              	.LVL395:
 305:../Switch/core/yt/yt_rate.c ****     CMM_PARAM_CHK((NULL == pMode), CMM_ERR_NULL_POINT);
 2854              		.loc 1 305 5 is_stmt 0 discriminator 3 view .LVU830
 2855 0068 0C4B     		ldr	r3, .L292+12
 2856 006a 9968     		ldr	r1, [r3, #8]
 2857              	.LVL396:
 305:../Switch/core/yt/yt_rate.c ****     CMM_PARAM_CHK((NULL == pMode), CMM_ERR_NULL_POINT);
 2858              		.loc 1 305 5 discriminator 3 view .LVU831
 2859 006c 0C48     		ldr	r0, .L292+16
 2860 006e FFF7FEFF 		bl	osal_printf
 2861              	.LVL397:
 2862 0072 F5E7     		b	.L280
 2863              	.LVL398:
 2864              	.L287:
 305:../Switch/core/yt/yt_rate.c ****     CMM_PARAM_CHK((NULL == pMode), CMM_ERR_NULL_POINT);
 2865              		.loc 1 305 5 discriminator 3 view .LVU832
 2866              	.LBE57:
 306:../Switch/core/yt/yt_rate.c **** 
 2867              		.loc 1 306 5 is_stmt 1 discriminator 1 view .LVU833
 306:../Switch/core/yt/yt_rate.c **** 
 2868              		.loc 1 306 5 discriminator 1 view .LVU834
 2869 0074 074B     		ldr	r3, .L292+4
 2870 0076 1B78     		ldrb	r3, [r3]	@ zero_extendqisi2
 2871 0078 012B     		cmp	r3, #1
 2872 007a 01D8     		bhi	.L291
 2873              	.LVL399:
 2874              	.L282:
 306:../Switch/core/yt/yt_rate.c **** 
 2875              		.loc 1 306 5 discriminator 5 view .LVU835
 306:../Switch/core/yt/yt_rate.c **** 
 2876              		.loc 1 306 5 discriminator 5 view .LVU836
 306:../Switch/core/yt/yt_rate.c **** 
 2877              		.loc 1 306 5 discriminator 5 view .LVU837
 2878 007c 0220     		movs	r0, #2
 2879 007e CEE7     		b	.L273
 2880              	.LVL400:
 2881              	.L291:
 306:../Switch/core/yt/yt_rate.c **** 
 2882              		.loc 1 306 5 discriminator 3 view .LVU838
 2883              	.LBB58:
 306:../Switch/core/yt/yt_rate.c **** 
 2884              		.loc 1 306 5 discriminator 3 view .LVU839
 2885 0080 054B     		ldr	r3, .L292+8
 2886 0082 9A68     		ldr	r2, [r3, #8]
 2887              	.LVL401:
 306:../Switch/core/yt/yt_rate.c **** 
 2888              		.loc 1 306 5 is_stmt 0 discriminator 3 view .LVU840
 2889 0084 054B     		ldr	r3, .L292+12
 2890 0086 9968     		ldr	r1, [r3, #8]
 2891              	.LVL402:
 306:../Switch/core/yt/yt_rate.c **** 
 2892              		.loc 1 306 5 discriminator 3 view .LVU841
 2893 0088 0548     		ldr	r0, .L292+16
 2894 008a FFF7FEFF 		bl	osal_printf
 2895              	.LVL403:
 2896 008e F5E7     		b	.L282
 2897              	.L293:
 2898              		.align	2
 2899              	.L292:
 2900 0090 00000000 		.word	gpfal_dispatch
 2901 0094 00000000 		.word	yt_debug_level
 2902 0098 00000000 		.word	_yt_errmsg
 2903 009c 00000000 		.word	_yt_prompt_msg
 2904 00a0 00000000 		.word	.LC0
 2905              	.LBE58:
 2906              		.cfi_endproc
 2907              	.LFE15:
 2909              		.section	.text.yt_rate_meter_rate_set,"ax",%progbits
 2910              		.align	1
 2911              		.global	yt_rate_meter_rate_set
 2912              		.syntax unified
 2913              		.thumb
 2914              		.thumb_func
 2916              	yt_rate_meter_rate_set:
 2917              	.LVL404:
 2918              	.LFB16:
 310:../Switch/core/yt/yt_rate.c **** 
 311:../Switch/core/yt/yt_rate.c **** /**
 312:../Switch/core/yt/yt_rate.c ****  * @internal      yt_rate_meter_rate_set
 313:../Switch/core/yt/yt_rate.c ****  * @endinternal
 314:../Switch/core/yt/yt_rate.c ****  *
 315:../Switch/core/yt/yt_rate.c ****  * @brief         Description
 316:../Switch/core/yt/yt_rate.c ****  * @note          APPLICABLE DEVICES  -Tiger
 317:../Switch/core/yt/yt_rate.c ****  * @param[in]     unit                -unit id
 318:../Switch/core/yt/yt_rate.c ****  * @param[in]     meter_id            -meter id, can access meter tbl by it
 319:../Switch/core/yt/yt_rate.c ****  * @param[in]     rate                -CIR, EIR, CBS, EBS config
 320:../Switch/core/yt/yt_rate.c ****  * @retval        CMM_ERR_OK          -on success
 321:../Switch/core/yt/yt_rate.c ****  * @retval        CMM_ERR_FAIL        -on fail
 322:../Switch/core/yt/yt_rate.c ****  */
 323:../Switch/core/yt/yt_rate.c **** yt_ret_t yt_rate_meter_rate_set(yt_unit_t unit, yt_meterid_t meter_id, yt_qos_two_rate_t rate)
 324:../Switch/core/yt/yt_rate.c **** {
 2919              		.loc 1 324 1 is_stmt 1 view -0
 2920              		.cfi_startproc
 2921              		@ args = 0, pretend = 0, frame = 8
 2922              		@ frame_needed = 0, uses_anonymous_args = 0
 2923              		.loc 1 324 1 is_stmt 0 view .LVU843
 2924 0000 10B5     		push	{r4, lr}
 2925              		.cfi_def_cfa_offset 8
 2926              		.cfi_offset 4, -8
 2927              		.cfi_offset 14, -4
 2928 0002 82B0     		sub	sp, sp, #8
 2929              		.cfi_def_cfa_offset 16
 2930 0004 02AC     		add	r4, sp, #8
 2931 0006 04E90C00 		stmdb	r4, {r2, r3}
 325:../Switch/core/yt/yt_rate.c ****     CMM_PARAM_CHK((YT_UNIT_NUM <= unit), CMM_ERR_INPUT);
 2932              		.loc 1 325 5 is_stmt 1 view .LVU844
 2933              		.loc 1 325 5 view .LVU845
 2934 000a 68B9     		cbnz	r0, .L303
 2935              		.loc 1 325 5 discriminator 2 view .LVU846
 326:../Switch/core/yt/yt_rate.c ****     CMM_PARAM_CHK(NULL == YT_DISPATCH(unit), CMM_ERR_NOT_INIT);
 2936              		.loc 1 326 5 discriminator 2 view .LVU847
 2937              		.loc 1 326 5 discriminator 2 view .LVU848
 2938 000c 1B4B     		ldr	r3, .L309
 2939 000e 53F82030 		ldr	r3, [r3, r0, lsl #2]
 2940 0012 BBB1     		cbz	r3, .L304
 2941              		.loc 1 326 5 discriminator 2 view .LVU849
 327:../Switch/core/yt/yt_rate.c ****     CMM_PARAM_CHK((!(YT_DISPATCH(unit)->is_inited)), CMM_ERR_NOT_INIT);
 2942              		.loc 1 327 5 discriminator 2 view .LVU850
 2943              		.loc 1 327 5 discriminator 2 view .LVU851
 2944 0014 1A78     		ldrb	r2, [r3]	@ zero_extendqisi2
 2945 0016 1AB3     		cbz	r2, .L305
 2946              		.loc 1 327 5 discriminator 2 view .LVU852
 328:../Switch/core/yt/yt_rate.c **** 
 329:../Switch/core/yt/yt_rate.c ****     return YT_DISPATCH(unit)->rate_meter_rate_set(unit, meter_id, rate);
 2947              		.loc 1 329 5 discriminator 2 view .LVU853
 2948              		.loc 1 329 29 is_stmt 0 discriminator 2 view .LVU854
 2949 0018 D3F86842 		ldr	r4, [r3, #616]
 2950              		.loc 1 329 12 discriminator 2 view .LVU855
 2951 001c 02AB     		add	r3, sp, #8
 2952 001e 13E90C00 		ldmdb	r3, {r2, r3}
 2953 0022 A047     		blx	r4
 2954              	.LVL405:
 2955              	.L294:
 330:../Switch/core/yt/yt_rate.c **** }
 2956              		.loc 1 330 1 view .LVU856
 2957 0024 02B0     		add	sp, sp, #8
 2958              		.cfi_remember_state
 2959              		.cfi_def_cfa_offset 8
 2960              		@ sp needed
 2961 0026 10BD     		pop	{r4, pc}
 2962              	.LVL406:
 2963              	.L303:
 2964              		.cfi_restore_state
 325:../Switch/core/yt/yt_rate.c ****     CMM_PARAM_CHK(NULL == YT_DISPATCH(unit), CMM_ERR_NOT_INIT);
 2965              		.loc 1 325 5 is_stmt 1 discriminator 1 view .LVU857
 325:../Switch/core/yt/yt_rate.c ****     CMM_PARAM_CHK(NULL == YT_DISPATCH(unit), CMM_ERR_NOT_INIT);
 2966              		.loc 1 325 5 discriminator 1 view .LVU858
 2967 0028 154B     		ldr	r3, .L309+4
 2968 002a 1B78     		ldrb	r3, [r3]	@ zero_extendqisi2
 2969 002c 012B     		cmp	r3, #1
 2970 002e 01D8     		bhi	.L306
 2971              	.LVL407:
 2972              	.L296:
 325:../Switch/core/yt/yt_rate.c ****     CMM_PARAM_CHK(NULL == YT_DISPATCH(unit), CMM_ERR_NOT_INIT);
 2973              		.loc 1 325 5 discriminator 5 view .LVU859
 325:../Switch/core/yt/yt_rate.c ****     CMM_PARAM_CHK(NULL == YT_DISPATCH(unit), CMM_ERR_NOT_INIT);
 2974              		.loc 1 325 5 discriminator 5 view .LVU860
 325:../Switch/core/yt/yt_rate.c ****     CMM_PARAM_CHK(NULL == YT_DISPATCH(unit), CMM_ERR_NOT_INIT);
 2975              		.loc 1 325 5 discriminator 5 view .LVU861
 2976 0030 0520     		movs	r0, #5
 2977 0032 F7E7     		b	.L294
 2978              	.LVL408:
 2979              	.L306:
 325:../Switch/core/yt/yt_rate.c ****     CMM_PARAM_CHK(NULL == YT_DISPATCH(unit), CMM_ERR_NOT_INIT);
 2980              		.loc 1 325 5 discriminator 3 view .LVU862
 2981              	.LBB59:
 325:../Switch/core/yt/yt_rate.c ****     CMM_PARAM_CHK(NULL == YT_DISPATCH(unit), CMM_ERR_NOT_INIT);
 2982              		.loc 1 325 5 discriminator 3 view .LVU863
 2983 0034 134B     		ldr	r3, .L309+8
 2984 0036 5A69     		ldr	r2, [r3, #20]
 2985 0038 134B     		ldr	r3, .L309+12
 2986 003a 9968     		ldr	r1, [r3, #8]
 2987              	.LVL409:
 325:../Switch/core/yt/yt_rate.c ****     CMM_PARAM_CHK(NULL == YT_DISPATCH(unit), CMM_ERR_NOT_INIT);
 2988              		.loc 1 325 5 is_stmt 0 discriminator 3 view .LVU864
 2989 003c 1348     		ldr	r0, .L309+16
 2990              	.LVL410:
 325:../Switch/core/yt/yt_rate.c ****     CMM_PARAM_CHK(NULL == YT_DISPATCH(unit), CMM_ERR_NOT_INIT);
 2991              		.loc 1 325 5 discriminator 3 view .LVU865
 2992 003e FFF7FEFF 		bl	osal_printf
 2993              	.LVL411:
 2994 0042 F5E7     		b	.L296
 2995              	.LVL412:
 2996              	.L304:
 325:../Switch/core/yt/yt_rate.c ****     CMM_PARAM_CHK(NULL == YT_DISPATCH(unit), CMM_ERR_NOT_INIT);
 2997              		.loc 1 325 5 discriminator 3 view .LVU866
 2998              	.LBE59:
 326:../Switch/core/yt/yt_rate.c ****     CMM_PARAM_CHK((!(YT_DISPATCH(unit)->is_inited)), CMM_ERR_NOT_INIT);
 2999              		.loc 1 326 5 is_stmt 1 discriminator 1 view .LVU867
 326:../Switch/core/yt/yt_rate.c ****     CMM_PARAM_CHK((!(YT_DISPATCH(unit)->is_inited)), CMM_ERR_NOT_INIT);
 3000              		.loc 1 326 5 discriminator 1 view .LVU868
 3001 0044 0E4B     		ldr	r3, .L309+4
 3002 0046 1B78     		ldrb	r3, [r3]	@ zero_extendqisi2
 3003 0048 012B     		cmp	r3, #1
 3004 004a 01D8     		bhi	.L307
 3005              	.LVL413:
 3006              	.L299:
 326:../Switch/core/yt/yt_rate.c ****     CMM_PARAM_CHK((!(YT_DISPATCH(unit)->is_inited)), CMM_ERR_NOT_INIT);
 3007              		.loc 1 326 5 discriminator 5 view .LVU869
 326:../Switch/core/yt/yt_rate.c ****     CMM_PARAM_CHK((!(YT_DISPATCH(unit)->is_inited)), CMM_ERR_NOT_INIT);
 3008              		.loc 1 326 5 discriminator 5 view .LVU870
 326:../Switch/core/yt/yt_rate.c ****     CMM_PARAM_CHK((!(YT_DISPATCH(unit)->is_inited)), CMM_ERR_NOT_INIT);
 3009              		.loc 1 326 5 discriminator 5 view .LVU871
 3010 004c 0420     		movs	r0, #4
 3011 004e E9E7     		b	.L294
 3012              	.LVL414:
 3013              	.L307:
 326:../Switch/core/yt/yt_rate.c ****     CMM_PARAM_CHK((!(YT_DISPATCH(unit)->is_inited)), CMM_ERR_NOT_INIT);
 3014              		.loc 1 326 5 discriminator 3 view .LVU872
 3015              	.LBB60:
 326:../Switch/core/yt/yt_rate.c ****     CMM_PARAM_CHK((!(YT_DISPATCH(unit)->is_inited)), CMM_ERR_NOT_INIT);
 3016              		.loc 1 326 5 discriminator 3 view .LVU873
 3017 0050 0C4B     		ldr	r3, .L309+8
 3018 0052 1A69     		ldr	r2, [r3, #16]
 3019 0054 0C4B     		ldr	r3, .L309+12
 3020 0056 9968     		ldr	r1, [r3, #8]
 3021              	.LVL415:
 326:../Switch/core/yt/yt_rate.c ****     CMM_PARAM_CHK((!(YT_DISPATCH(unit)->is_inited)), CMM_ERR_NOT_INIT);
 3022              		.loc 1 326 5 is_stmt 0 discriminator 3 view .LVU874
 3023 0058 0C48     		ldr	r0, .L309+16
 3024              	.LVL416:
 326:../Switch/core/yt/yt_rate.c ****     CMM_PARAM_CHK((!(YT_DISPATCH(unit)->is_inited)), CMM_ERR_NOT_INIT);
 3025              		.loc 1 326 5 discriminator 3 view .LVU875
 3026 005a FFF7FEFF 		bl	osal_printf
 3027              	.LVL417:
 3028 005e F5E7     		b	.L299
 3029              	.LVL418:
 3030              	.L305:
 326:../Switch/core/yt/yt_rate.c ****     CMM_PARAM_CHK((!(YT_DISPATCH(unit)->is_inited)), CMM_ERR_NOT_INIT);
 3031              		.loc 1 326 5 discriminator 3 view .LVU876
 3032              	.LBE60:
 327:../Switch/core/yt/yt_rate.c **** 
 3033              		.loc 1 327 5 is_stmt 1 discriminator 1 view .LVU877
 327:../Switch/core/yt/yt_rate.c **** 
 3034              		.loc 1 327 5 discriminator 1 view .LVU878
 3035 0060 074B     		ldr	r3, .L309+4
 3036 0062 1B78     		ldrb	r3, [r3]	@ zero_extendqisi2
 3037 0064 012B     		cmp	r3, #1
 3038 0066 01D8     		bhi	.L308
 3039              	.LVL419:
 3040              	.L301:
 327:../Switch/core/yt/yt_rate.c **** 
 3041              		.loc 1 327 5 discriminator 5 view .LVU879
 327:../Switch/core/yt/yt_rate.c **** 
 3042              		.loc 1 327 5 discriminator 5 view .LVU880
 327:../Switch/core/yt/yt_rate.c **** 
 3043              		.loc 1 327 5 discriminator 5 view .LVU881
 3044 0068 0420     		movs	r0, #4
 3045 006a DBE7     		b	.L294
 3046              	.LVL420:
 3047              	.L308:
 327:../Switch/core/yt/yt_rate.c **** 
 3048              		.loc 1 327 5 discriminator 3 view .LVU882
 3049              	.LBB61:
 327:../Switch/core/yt/yt_rate.c **** 
 3050              		.loc 1 327 5 discriminator 3 view .LVU883
 3051 006c 054B     		ldr	r3, .L309+8
 3052 006e 1A69     		ldr	r2, [r3, #16]
 3053 0070 054B     		ldr	r3, .L309+12
 3054 0072 9968     		ldr	r1, [r3, #8]
 3055              	.LVL421:
 327:../Switch/core/yt/yt_rate.c **** 
 3056              		.loc 1 327 5 is_stmt 0 discriminator 3 view .LVU884
 3057 0074 0548     		ldr	r0, .L309+16
 3058              	.LVL422:
 327:../Switch/core/yt/yt_rate.c **** 
 3059              		.loc 1 327 5 discriminator 3 view .LVU885
 3060 0076 FFF7FEFF 		bl	osal_printf
 3061              	.LVL423:
 3062 007a F5E7     		b	.L301
 3063              	.L310:
 3064              		.align	2
 3065              	.L309:
 3066 007c 00000000 		.word	gpfal_dispatch
 3067 0080 00000000 		.word	yt_debug_level
 3068 0084 00000000 		.word	_yt_errmsg
 3069 0088 00000000 		.word	_yt_prompt_msg
 3070 008c 00000000 		.word	.LC0
 3071              	.LBE61:
 3072              		.cfi_endproc
 3073              	.LFE16:
 3075              		.section	.text.yt_rate_meter_rate_get,"ax",%progbits
 3076              		.align	1
 3077              		.global	yt_rate_meter_rate_get
 3078              		.syntax unified
 3079              		.thumb
 3080              		.thumb_func
 3082              	yt_rate_meter_rate_get:
 3083              	.LVL424:
 3084              	.LFB17:
 331:../Switch/core/yt/yt_rate.c **** 
 332:../Switch/core/yt/yt_rate.c **** /**
 333:../Switch/core/yt/yt_rate.c ****  * @internal      yt_rate_meter_rate_get
 334:../Switch/core/yt/yt_rate.c ****  * @endinternal
 335:../Switch/core/yt/yt_rate.c ****  *
 336:../Switch/core/yt/yt_rate.c ****  * @brief         Description
 337:../Switch/core/yt/yt_rate.c ****  * @note          APPLICABLE DEVICES  -Tiger
 338:../Switch/core/yt/yt_rate.c ****  * @param[in]     unit                -unit id
 339:../Switch/core/yt/yt_rate.c ****  * @param[in]     meter_id            -meter id, can access meter tbl by it
 340:../Switch/core/yt/yt_rate.c ****  * @param[out]    pRate               -CIR, EIR, CBS, EBS config
 341:../Switch/core/yt/yt_rate.c ****  * @retval        CMM_ERR_OK          -on success
 342:../Switch/core/yt/yt_rate.c ****  * @retval        CMM_ERR_FAIL        -on fail
 343:../Switch/core/yt/yt_rate.c ****  */
 344:../Switch/core/yt/yt_rate.c **** yt_ret_t yt_rate_meter_rate_get(yt_unit_t unit, yt_meterid_t meter_id, yt_qos_two_rate_t *pRate)
 345:../Switch/core/yt/yt_rate.c **** {
 3085              		.loc 1 345 1 is_stmt 1 view -0
 3086              		.cfi_startproc
 3087              		@ args = 0, pretend = 0, frame = 0
 3088              		@ frame_needed = 0, uses_anonymous_args = 0
 3089              		.loc 1 345 1 is_stmt 0 view .LVU887
 3090 0000 08B5     		push	{r3, lr}
 3091              		.cfi_def_cfa_offset 8
 3092              		.cfi_offset 3, -8
 3093              		.cfi_offset 14, -4
 346:../Switch/core/yt/yt_rate.c ****     CMM_PARAM_CHK((YT_UNIT_NUM <= unit), CMM_ERR_INPUT);
 3094              		.loc 1 346 5 is_stmt 1 view .LVU888
 3095              		.loc 1 346 5 view .LVU889
 3096 0002 68B9     		cbnz	r0, .L322
 3097 0004 8446     		mov	ip, r0
 3098              		.loc 1 346 5 discriminator 2 view .LVU890
 347:../Switch/core/yt/yt_rate.c ****     CMM_PARAM_CHK(NULL == YT_DISPATCH(unit), CMM_ERR_NOT_INIT);
 3099              		.loc 1 347 5 discriminator 2 view .LVU891
 3100              		.loc 1 347 5 discriminator 2 view .LVU892
 3101 0006 224B     		ldr	r3, .L330
 3102 0008 53F82030 		ldr	r3, [r3, r0, lsl #2]
 3103 000c B3B1     		cbz	r3, .L323
 3104              		.loc 1 347 5 discriminator 2 view .LVU893
 348:../Switch/core/yt/yt_rate.c ****     CMM_PARAM_CHK((!(YT_DISPATCH(unit)->is_inited)), CMM_ERR_NOT_INIT);
 3105              		.loc 1 348 5 discriminator 2 view .LVU894
 3106              		.loc 1 348 5 discriminator 2 view .LVU895
 3107 000e 1878     		ldrb	r0, [r3]	@ zero_extendqisi2
 3108              	.LVL425:
 3109              		.loc 1 348 5 is_stmt 0 discriminator 2 view .LVU896
 3110 0010 10B3     		cbz	r0, .L324
 3111              		.loc 1 348 5 is_stmt 1 discriminator 2 view .LVU897
 349:../Switch/core/yt/yt_rate.c ****     CMM_PARAM_CHK((NULL == pRate), CMM_ERR_NULL_POINT);
 3112              		.loc 1 349 5 discriminator 2 view .LVU898
 3113              		.loc 1 349 5 discriminator 2 view .LVU899
 3114 0012 002A     		cmp	r2, #0
 3115 0014 2ED0     		beq	.L325
 3116              		.loc 1 349 5 discriminator 2 view .LVU900
 350:../Switch/core/yt/yt_rate.c **** 
 351:../Switch/core/yt/yt_rate.c ****     return YT_DISPATCH(unit)->rate_meter_rate_get(unit, meter_id, pRate);
 3117              		.loc 1 351 5 discriminator 2 view .LVU901
 3118              		.loc 1 351 29 is_stmt 0 discriminator 2 view .LVU902
 3119 0016 D3F86C32 		ldr	r3, [r3, #620]
 3120              		.loc 1 351 12 discriminator 2 view .LVU903
 3121 001a 6046     		mov	r0, ip
 3122 001c 9847     		blx	r3
 3123              	.LVL426:
 3124              	.L311:
 352:../Switch/core/yt/yt_rate.c **** }
 3125              		.loc 1 352 1 view .LVU904
 3126 001e 08BD     		pop	{r3, pc}
 3127              	.LVL427:
 3128              	.L322:
 346:../Switch/core/yt/yt_rate.c ****     CMM_PARAM_CHK(NULL == YT_DISPATCH(unit), CMM_ERR_NOT_INIT);
 3129              		.loc 1 346 5 is_stmt 1 discriminator 1 view .LVU905
 346:../Switch/core/yt/yt_rate.c ****     CMM_PARAM_CHK(NULL == YT_DISPATCH(unit), CMM_ERR_NOT_INIT);
 3130              		.loc 1 346 5 discriminator 1 view .LVU906
 3131 0020 1C4B     		ldr	r3, .L330+4
 3132 0022 1B78     		ldrb	r3, [r3]	@ zero_extendqisi2
 3133 0024 012B     		cmp	r3, #1
 3134 0026 01D8     		bhi	.L326
 3135              	.LVL428:
 3136              	.L313:
 346:../Switch/core/yt/yt_rate.c ****     CMM_PARAM_CHK(NULL == YT_DISPATCH(unit), CMM_ERR_NOT_INIT);
 3137              		.loc 1 346 5 discriminator 5 view .LVU907
 346:../Switch/core/yt/yt_rate.c ****     CMM_PARAM_CHK(NULL == YT_DISPATCH(unit), CMM_ERR_NOT_INIT);
 3138              		.loc 1 346 5 discriminator 5 view .LVU908
 346:../Switch/core/yt/yt_rate.c ****     CMM_PARAM_CHK(NULL == YT_DISPATCH(unit), CMM_ERR_NOT_INIT);
 3139              		.loc 1 346 5 discriminator 5 view .LVU909
 3140 0028 0520     		movs	r0, #5
 3141 002a F8E7     		b	.L311
 3142              	.LVL429:
 3143              	.L326:
 346:../Switch/core/yt/yt_rate.c ****     CMM_PARAM_CHK(NULL == YT_DISPATCH(unit), CMM_ERR_NOT_INIT);
 3144              		.loc 1 346 5 discriminator 3 view .LVU910
 3145              	.LBB62:
 346:../Switch/core/yt/yt_rate.c ****     CMM_PARAM_CHK(NULL == YT_DISPATCH(unit), CMM_ERR_NOT_INIT);
 3146              		.loc 1 346 5 discriminator 3 view .LVU911
 3147 002c 1A4B     		ldr	r3, .L330+8
 3148 002e 5A69     		ldr	r2, [r3, #20]
 3149              	.LVL430:
 346:../Switch/core/yt/yt_rate.c ****     CMM_PARAM_CHK(NULL == YT_DISPATCH(unit), CMM_ERR_NOT_INIT);
 3150              		.loc 1 346 5 is_stmt 0 discriminator 3 view .LVU912
 3151 0030 1A4B     		ldr	r3, .L330+12
 3152 0032 9968     		ldr	r1, [r3, #8]
 3153              	.LVL431:
 346:../Switch/core/yt/yt_rate.c ****     CMM_PARAM_CHK(NULL == YT_DISPATCH(unit), CMM_ERR_NOT_INIT);
 3154              		.loc 1 346 5 discriminator 3 view .LVU913
 3155 0034 1A48     		ldr	r0, .L330+16
 3156              	.LVL432:
 346:../Switch/core/yt/yt_rate.c ****     CMM_PARAM_CHK(NULL == YT_DISPATCH(unit), CMM_ERR_NOT_INIT);
 3157              		.loc 1 346 5 discriminator 3 view .LVU914
 3158 0036 FFF7FEFF 		bl	osal_printf
 3159              	.LVL433:
 3160 003a F5E7     		b	.L313
 3161              	.LVL434:
 3162              	.L323:
 346:../Switch/core/yt/yt_rate.c ****     CMM_PARAM_CHK(NULL == YT_DISPATCH(unit), CMM_ERR_NOT_INIT);
 3163              		.loc 1 346 5 discriminator 3 view .LVU915
 3164              	.LBE62:
 347:../Switch/core/yt/yt_rate.c ****     CMM_PARAM_CHK((!(YT_DISPATCH(unit)->is_inited)), CMM_ERR_NOT_INIT);
 3165              		.loc 1 347 5 is_stmt 1 discriminator 1 view .LVU916
 347:../Switch/core/yt/yt_rate.c ****     CMM_PARAM_CHK((!(YT_DISPATCH(unit)->is_inited)), CMM_ERR_NOT_INIT);
 3166              		.loc 1 347 5 discriminator 1 view .LVU917
 3167 003c 154B     		ldr	r3, .L330+4
 3168 003e 1B78     		ldrb	r3, [r3]	@ zero_extendqisi2
 3169 0040 012B     		cmp	r3, #1
 3170 0042 01D8     		bhi	.L327
 3171              	.LVL435:
 3172              	.L316:
 347:../Switch/core/yt/yt_rate.c ****     CMM_PARAM_CHK((!(YT_DISPATCH(unit)->is_inited)), CMM_ERR_NOT_INIT);
 3173              		.loc 1 347 5 discriminator 5 view .LVU918
 347:../Switch/core/yt/yt_rate.c ****     CMM_PARAM_CHK((!(YT_DISPATCH(unit)->is_inited)), CMM_ERR_NOT_INIT);
 3174              		.loc 1 347 5 discriminator 5 view .LVU919
 347:../Switch/core/yt/yt_rate.c ****     CMM_PARAM_CHK((!(YT_DISPATCH(unit)->is_inited)), CMM_ERR_NOT_INIT);
 3175              		.loc 1 347 5 discriminator 5 view .LVU920
 3176 0044 0420     		movs	r0, #4
 3177 0046 EAE7     		b	.L311
 3178              	.LVL436:
 3179              	.L327:
 347:../Switch/core/yt/yt_rate.c ****     CMM_PARAM_CHK((!(YT_DISPATCH(unit)->is_inited)), CMM_ERR_NOT_INIT);
 3180              		.loc 1 347 5 discriminator 3 view .LVU921
 3181              	.LBB63:
 347:../Switch/core/yt/yt_rate.c ****     CMM_PARAM_CHK((!(YT_DISPATCH(unit)->is_inited)), CMM_ERR_NOT_INIT);
 3182              		.loc 1 347 5 discriminator 3 view .LVU922
 3183 0048 134B     		ldr	r3, .L330+8
 3184 004a 1A69     		ldr	r2, [r3, #16]
 3185              	.LVL437:
 347:../Switch/core/yt/yt_rate.c ****     CMM_PARAM_CHK((!(YT_DISPATCH(unit)->is_inited)), CMM_ERR_NOT_INIT);
 3186              		.loc 1 347 5 is_stmt 0 discriminator 3 view .LVU923
 3187 004c 134B     		ldr	r3, .L330+12
 3188 004e 9968     		ldr	r1, [r3, #8]
 3189              	.LVL438:
 347:../Switch/core/yt/yt_rate.c ****     CMM_PARAM_CHK((!(YT_DISPATCH(unit)->is_inited)), CMM_ERR_NOT_INIT);
 3190              		.loc 1 347 5 discriminator 3 view .LVU924
 3191 0050 1348     		ldr	r0, .L330+16
 3192              	.LVL439:
 347:../Switch/core/yt/yt_rate.c ****     CMM_PARAM_CHK((!(YT_DISPATCH(unit)->is_inited)), CMM_ERR_NOT_INIT);
 3193              		.loc 1 347 5 discriminator 3 view .LVU925
 3194 0052 FFF7FEFF 		bl	osal_printf
 3195              	.LVL440:
 3196 0056 F5E7     		b	.L316
 3197              	.LVL441:
 3198              	.L324:
 347:../Switch/core/yt/yt_rate.c ****     CMM_PARAM_CHK((!(YT_DISPATCH(unit)->is_inited)), CMM_ERR_NOT_INIT);
 3199              		.loc 1 347 5 discriminator 3 view .LVU926
 3200              	.LBE63:
 348:../Switch/core/yt/yt_rate.c ****     CMM_PARAM_CHK((NULL == pRate), CMM_ERR_NULL_POINT);
 3201              		.loc 1 348 5 is_stmt 1 discriminator 1 view .LVU927
 348:../Switch/core/yt/yt_rate.c ****     CMM_PARAM_CHK((NULL == pRate), CMM_ERR_NULL_POINT);
 3202              		.loc 1 348 5 discriminator 1 view .LVU928
 3203 0058 0E4B     		ldr	r3, .L330+4
 3204 005a 1B78     		ldrb	r3, [r3]	@ zero_extendqisi2
 3205 005c 012B     		cmp	r3, #1
 3206 005e 01D8     		bhi	.L328
 3207              	.LVL442:
 3208              	.L318:
 348:../Switch/core/yt/yt_rate.c ****     CMM_PARAM_CHK((NULL == pRate), CMM_ERR_NULL_POINT);
 3209              		.loc 1 348 5 discriminator 5 view .LVU929
 348:../Switch/core/yt/yt_rate.c ****     CMM_PARAM_CHK((NULL == pRate), CMM_ERR_NULL_POINT);
 3210              		.loc 1 348 5 discriminator 5 view .LVU930
 348:../Switch/core/yt/yt_rate.c ****     CMM_PARAM_CHK((NULL == pRate), CMM_ERR_NULL_POINT);
 3211              		.loc 1 348 5 discriminator 5 view .LVU931
 3212 0060 0420     		movs	r0, #4
 3213 0062 DCE7     		b	.L311
 3214              	.LVL443:
 3215              	.L328:
 348:../Switch/core/yt/yt_rate.c ****     CMM_PARAM_CHK((NULL == pRate), CMM_ERR_NULL_POINT);
 3216              		.loc 1 348 5 discriminator 3 view .LVU932
 3217              	.LBB64:
 348:../Switch/core/yt/yt_rate.c ****     CMM_PARAM_CHK((NULL == pRate), CMM_ERR_NULL_POINT);
 3218              		.loc 1 348 5 discriminator 3 view .LVU933
 3219 0064 0C4B     		ldr	r3, .L330+8
 3220 0066 1A69     		ldr	r2, [r3, #16]
 3221              	.LVL444:
 348:../Switch/core/yt/yt_rate.c ****     CMM_PARAM_CHK((NULL == pRate), CMM_ERR_NULL_POINT);
 3222              		.loc 1 348 5 is_stmt 0 discriminator 3 view .LVU934
 3223 0068 0C4B     		ldr	r3, .L330+12
 3224 006a 9968     		ldr	r1, [r3, #8]
 3225              	.LVL445:
 348:../Switch/core/yt/yt_rate.c ****     CMM_PARAM_CHK((NULL == pRate), CMM_ERR_NULL_POINT);
 3226              		.loc 1 348 5 discriminator 3 view .LVU935
 3227 006c 0C48     		ldr	r0, .L330+16
 3228 006e FFF7FEFF 		bl	osal_printf
 3229              	.LVL446:
 3230 0072 F5E7     		b	.L318
 3231              	.LVL447:
 3232              	.L325:
 348:../Switch/core/yt/yt_rate.c ****     CMM_PARAM_CHK((NULL == pRate), CMM_ERR_NULL_POINT);
 3233              		.loc 1 348 5 discriminator 3 view .LVU936
 3234              	.LBE64:
 349:../Switch/core/yt/yt_rate.c **** 
 3235              		.loc 1 349 5 is_stmt 1 discriminator 1 view .LVU937
 349:../Switch/core/yt/yt_rate.c **** 
 3236              		.loc 1 349 5 discriminator 1 view .LVU938
 3237 0074 074B     		ldr	r3, .L330+4
 3238 0076 1B78     		ldrb	r3, [r3]	@ zero_extendqisi2
 3239 0078 012B     		cmp	r3, #1
 3240 007a 01D8     		bhi	.L329
 3241              	.LVL448:
 3242              	.L320:
 349:../Switch/core/yt/yt_rate.c **** 
 3243              		.loc 1 349 5 discriminator 5 view .LVU939
 349:../Switch/core/yt/yt_rate.c **** 
 3244              		.loc 1 349 5 discriminator 5 view .LVU940
 349:../Switch/core/yt/yt_rate.c **** 
 3245              		.loc 1 349 5 discriminator 5 view .LVU941
 3246 007c 0220     		movs	r0, #2
 3247 007e CEE7     		b	.L311
 3248              	.LVL449:
 3249              	.L329:
 349:../Switch/core/yt/yt_rate.c **** 
 3250              		.loc 1 349 5 discriminator 3 view .LVU942
 3251              	.LBB65:
 349:../Switch/core/yt/yt_rate.c **** 
 3252              		.loc 1 349 5 discriminator 3 view .LVU943
 3253 0080 054B     		ldr	r3, .L330+8
 3254 0082 9A68     		ldr	r2, [r3, #8]
 3255              	.LVL450:
 349:../Switch/core/yt/yt_rate.c **** 
 3256              		.loc 1 349 5 is_stmt 0 discriminator 3 view .LVU944
 3257 0084 054B     		ldr	r3, .L330+12
 3258 0086 9968     		ldr	r1, [r3, #8]
 3259              	.LVL451:
 349:../Switch/core/yt/yt_rate.c **** 
 3260              		.loc 1 349 5 discriminator 3 view .LVU945
 3261 0088 0548     		ldr	r0, .L330+16
 3262 008a FFF7FEFF 		bl	osal_printf
 3263              	.LVL452:
 3264 008e F5E7     		b	.L320
 3265              	.L331:
 3266              		.align	2
 3267              	.L330:
 3268 0090 00000000 		.word	gpfal_dispatch
 3269 0094 00000000 		.word	yt_debug_level
 3270 0098 00000000 		.word	_yt_errmsg
 3271 009c 00000000 		.word	_yt_prompt_msg
 3272 00a0 00000000 		.word	.LC0
 3273              	.LBE65:
 3274              		.cfi_endproc
 3275              	.LFE17:
 3277              		.section	.text.yt_rate_shaping_port_enable_set,"ax",%progbits
 3278              		.align	1
 3279              		.global	yt_rate_shaping_port_enable_set
 3280              		.syntax unified
 3281              		.thumb
 3282              		.thumb_func
 3284              	yt_rate_shaping_port_enable_set:
 3285              	.LVL453:
 3286              	.LFB18:
 353:../Switch/core/yt/yt_rate.c **** 
 354:../Switch/core/yt/yt_rate.c **** /**
 355:../Switch/core/yt/yt_rate.c ****  * @internal      yt_rate_shaping_port_enable_set
 356:../Switch/core/yt/yt_rate.c ****  * @endinternal
 357:../Switch/core/yt/yt_rate.c ****  *
 358:../Switch/core/yt/yt_rate.c ****  * @brief         Description
 359:../Switch/core/yt/yt_rate.c ****  * @note          APPLICABLE DEVICES  -Tiger
 360:../Switch/core/yt/yt_rate.c ****  * @param[in]     unit                -unit id
 361:../Switch/core/yt/yt_rate.c ****  * @param[in]     port                -port num
 362:../Switch/core/yt/yt_rate.c ****  * @param[in]     enable              -enable or disable
 363:../Switch/core/yt/yt_rate.c ****  * @retval        CMM_ERR_OK          -on success
 364:../Switch/core/yt/yt_rate.c ****  * @retval        CMM_ERR_FAIL        -on fail
 365:../Switch/core/yt/yt_rate.c ****  */
 366:../Switch/core/yt/yt_rate.c **** yt_ret_t yt_rate_shaping_port_enable_set(yt_unit_t unit, yt_port_t port, yt_enable_t enable)
 367:../Switch/core/yt/yt_rate.c **** {
 3287              		.loc 1 367 1 is_stmt 1 view -0
 3288              		.cfi_startproc
 3289              		@ args = 0, pretend = 0, frame = 0
 3290              		@ frame_needed = 0, uses_anonymous_args = 0
 3291              		.loc 1 367 1 is_stmt 0 view .LVU947
 3292 0000 08B5     		push	{r3, lr}
 3293              		.cfi_def_cfa_offset 8
 3294              		.cfi_offset 3, -8
 3295              		.cfi_offset 14, -4
 368:../Switch/core/yt/yt_rate.c ****     CMM_PARAM_CHK((YT_UNIT_NUM <= unit), CMM_ERR_INPUT);
 3296              		.loc 1 368 5 is_stmt 1 view .LVU948
 3297              		.loc 1 368 5 view .LVU949
 3298 0002 C0B9     		cbnz	r0, .L346
 3299 0004 8446     		mov	ip, r0
 3300              		.loc 1 368 5 discriminator 2 view .LVU950
 369:../Switch/core/yt/yt_rate.c ****     CMM_PARAM_CHK(NULL == YT_DISPATCH(unit), CMM_ERR_NOT_INIT);
 3301              		.loc 1 369 5 discriminator 2 view .LVU951
 3302              		.loc 1 369 5 discriminator 2 view .LVU952
 3303 0006 2F4B     		ldr	r3, .L355
 3304 0008 53F82030 		ldr	r3, [r3, r0, lsl #2]
 3305 000c 0BB3     		cbz	r3, .L347
 3306              		.loc 1 369 5 discriminator 2 view .LVU953
 370:../Switch/core/yt/yt_rate.c ****     CMM_PARAM_CHK((!(YT_DISPATCH(unit)->is_inited)), CMM_ERR_NOT_INIT);
 3307              		.loc 1 370 5 discriminator 2 view .LVU954
 3308              		.loc 1 370 5 discriminator 2 view .LVU955
 3309 000e 1878     		ldrb	r0, [r3]	@ zero_extendqisi2
 3310              	.LVL454:
 3311              		.loc 1 370 5 is_stmt 0 discriminator 2 view .LVU956
 3312 0010 0028     		cmp	r0, #0
 3313 0012 2CD0     		beq	.L348
 3314              		.loc 1 370 5 is_stmt 1 discriminator 2 view .LVU957
 371:../Switch/core/yt/yt_rate.c ****     CMM_PARAM_CHK((!(CMM_PORT_VALID(unit, port))), CMM_ERR_PORT);
 3315              		.loc 1 371 5 discriminator 2 view .LVU958
 3316              		.loc 1 371 5 discriminator 2 view .LVU959
 3317 0014 2C48     		ldr	r0, .L355+4
 3318 0016 0078     		ldrb	r0, [r0]	@ zero_extendqisi2
 3319 0018 0028     		cmp	r0, #0
 3320 001a 36D0     		beq	.L340
 3321 001c 2B48     		ldr	r0, .L355+8
 3322 001e 50F82C00 		ldr	r0, [r0, ip, lsl #2]
 3323 0022 007D     		ldrb	r0, [r0, #20]	@ zero_extendqisi2
 3324 0024 8842     		cmp	r0, r1
 3325 0026 30D9     		bls	.L340
 3326              		.loc 1 371 5 discriminator 4 view .LVU960
 372:../Switch/core/yt/yt_rate.c ****     CMM_PARAM_CHK((YT_ENABLE < enable || YT_DISABLE > enable), CMM_ERR_INPUT);
 3327              		.loc 1 372 5 discriminator 4 view .LVU961
 3328              		.loc 1 372 5 discriminator 4 view .LVU962
 3329 0028 012A     		cmp	r2, #1
 3330 002a 3CD8     		bhi	.L349
 3331              		.loc 1 372 5 discriminator 2 view .LVU963
 373:../Switch/core/yt/yt_rate.c **** 
 374:../Switch/core/yt/yt_rate.c ****     return YT_DISPATCH(unit)->rate_shaping_port_enable_set(unit, port, enable);
 3332              		.loc 1 374 5 discriminator 2 view .LVU964
 3333              		.loc 1 374 29 is_stmt 0 discriminator 2 view .LVU965
 3334 002c D3F87032 		ldr	r3, [r3, #624]
 3335              		.loc 1 374 12 discriminator 2 view .LVU966
 3336 0030 6046     		mov	r0, ip
 3337 0032 9847     		blx	r3
 3338              	.LVL455:
 3339              	.L332:
 375:../Switch/core/yt/yt_rate.c **** }
 3340              		.loc 1 375 1 view .LVU967
 3341 0034 08BD     		pop	{r3, pc}
 3342              	.LVL456:
 3343              	.L346:
 368:../Switch/core/yt/yt_rate.c ****     CMM_PARAM_CHK(NULL == YT_DISPATCH(unit), CMM_ERR_NOT_INIT);
 3344              		.loc 1 368 5 is_stmt 1 discriminator 1 view .LVU968
 368:../Switch/core/yt/yt_rate.c ****     CMM_PARAM_CHK(NULL == YT_DISPATCH(unit), CMM_ERR_NOT_INIT);
 3345              		.loc 1 368 5 discriminator 1 view .LVU969
 3346 0036 264B     		ldr	r3, .L355+12
 3347 0038 1B78     		ldrb	r3, [r3]	@ zero_extendqisi2
 3348 003a 012B     		cmp	r3, #1
 3349 003c 01D8     		bhi	.L350
 3350              	.LVL457:
 3351              	.L334:
 368:../Switch/core/yt/yt_rate.c ****     CMM_PARAM_CHK(NULL == YT_DISPATCH(unit), CMM_ERR_NOT_INIT);
 3352              		.loc 1 368 5 discriminator 5 view .LVU970
 368:../Switch/core/yt/yt_rate.c ****     CMM_PARAM_CHK(NULL == YT_DISPATCH(unit), CMM_ERR_NOT_INIT);
 3353              		.loc 1 368 5 discriminator 5 view .LVU971
 368:../Switch/core/yt/yt_rate.c ****     CMM_PARAM_CHK(NULL == YT_DISPATCH(unit), CMM_ERR_NOT_INIT);
 3354              		.loc 1 368 5 discriminator 5 view .LVU972
 3355 003e 0520     		movs	r0, #5
 3356 0040 F8E7     		b	.L332
 3357              	.LVL458:
 3358              	.L350:
 368:../Switch/core/yt/yt_rate.c ****     CMM_PARAM_CHK(NULL == YT_DISPATCH(unit), CMM_ERR_NOT_INIT);
 3359              		.loc 1 368 5 discriminator 3 view .LVU973
 3360              	.LBB66:
 368:../Switch/core/yt/yt_rate.c ****     CMM_PARAM_CHK(NULL == YT_DISPATCH(unit), CMM_ERR_NOT_INIT);
 3361              		.loc 1 368 5 discriminator 3 view .LVU974
 3362 0042 244B     		ldr	r3, .L355+16
 3363 0044 5A69     		ldr	r2, [r3, #20]
 3364              	.LVL459:
 368:../Switch/core/yt/yt_rate.c ****     CMM_PARAM_CHK(NULL == YT_DISPATCH(unit), CMM_ERR_NOT_INIT);
 3365              		.loc 1 368 5 is_stmt 0 discriminator 3 view .LVU975
 3366 0046 244B     		ldr	r3, .L355+20
 3367 0048 9968     		ldr	r1, [r3, #8]
 3368              	.LVL460:
 368:../Switch/core/yt/yt_rate.c ****     CMM_PARAM_CHK(NULL == YT_DISPATCH(unit), CMM_ERR_NOT_INIT);
 3369              		.loc 1 368 5 discriminator 3 view .LVU976
 3370 004a 2448     		ldr	r0, .L355+24
 3371              	.LVL461:
 368:../Switch/core/yt/yt_rate.c ****     CMM_PARAM_CHK(NULL == YT_DISPATCH(unit), CMM_ERR_NOT_INIT);
 3372              		.loc 1 368 5 discriminator 3 view .LVU977
 3373 004c FFF7FEFF 		bl	osal_printf
 3374              	.LVL462:
 3375 0050 F5E7     		b	.L334
 3376              	.LVL463:
 3377              	.L347:
 368:../Switch/core/yt/yt_rate.c ****     CMM_PARAM_CHK(NULL == YT_DISPATCH(unit), CMM_ERR_NOT_INIT);
 3378              		.loc 1 368 5 discriminator 3 view .LVU978
 3379              	.LBE66:
 369:../Switch/core/yt/yt_rate.c ****     CMM_PARAM_CHK((!(YT_DISPATCH(unit)->is_inited)), CMM_ERR_NOT_INIT);
 3380              		.loc 1 369 5 is_stmt 1 discriminator 1 view .LVU979
 369:../Switch/core/yt/yt_rate.c ****     CMM_PARAM_CHK((!(YT_DISPATCH(unit)->is_inited)), CMM_ERR_NOT_INIT);
 3381              		.loc 1 369 5 discriminator 1 view .LVU980
 3382 0052 1F4B     		ldr	r3, .L355+12
 3383 0054 1B78     		ldrb	r3, [r3]	@ zero_extendqisi2
 3384 0056 012B     		cmp	r3, #1
 3385 0058 01D8     		bhi	.L351
 3386              	.LVL464:
 3387              	.L337:
 369:../Switch/core/yt/yt_rate.c ****     CMM_PARAM_CHK((!(YT_DISPATCH(unit)->is_inited)), CMM_ERR_NOT_INIT);
 3388              		.loc 1 369 5 discriminator 5 view .LVU981
 369:../Switch/core/yt/yt_rate.c ****     CMM_PARAM_CHK((!(YT_DISPATCH(unit)->is_inited)), CMM_ERR_NOT_INIT);
 3389              		.loc 1 369 5 discriminator 5 view .LVU982
 369:../Switch/core/yt/yt_rate.c ****     CMM_PARAM_CHK((!(YT_DISPATCH(unit)->is_inited)), CMM_ERR_NOT_INIT);
 3390              		.loc 1 369 5 discriminator 5 view .LVU983
 3391 005a 0420     		movs	r0, #4
 3392 005c EAE7     		b	.L332
 3393              	.LVL465:
 3394              	.L351:
 369:../Switch/core/yt/yt_rate.c ****     CMM_PARAM_CHK((!(YT_DISPATCH(unit)->is_inited)), CMM_ERR_NOT_INIT);
 3395              		.loc 1 369 5 discriminator 3 view .LVU984
 3396              	.LBB67:
 369:../Switch/core/yt/yt_rate.c ****     CMM_PARAM_CHK((!(YT_DISPATCH(unit)->is_inited)), CMM_ERR_NOT_INIT);
 3397              		.loc 1 369 5 discriminator 3 view .LVU985
 3398 005e 1D4B     		ldr	r3, .L355+16
 3399 0060 1A69     		ldr	r2, [r3, #16]
 3400              	.LVL466:
 369:../Switch/core/yt/yt_rate.c ****     CMM_PARAM_CHK((!(YT_DISPATCH(unit)->is_inited)), CMM_ERR_NOT_INIT);
 3401              		.loc 1 369 5 is_stmt 0 discriminator 3 view .LVU986
 3402 0062 1D4B     		ldr	r3, .L355+20
 3403 0064 9968     		ldr	r1, [r3, #8]
 3404              	.LVL467:
 369:../Switch/core/yt/yt_rate.c ****     CMM_PARAM_CHK((!(YT_DISPATCH(unit)->is_inited)), CMM_ERR_NOT_INIT);
 3405              		.loc 1 369 5 discriminator 3 view .LVU987
 3406 0066 1D48     		ldr	r0, .L355+24
 3407              	.LVL468:
 369:../Switch/core/yt/yt_rate.c ****     CMM_PARAM_CHK((!(YT_DISPATCH(unit)->is_inited)), CMM_ERR_NOT_INIT);
 3408              		.loc 1 369 5 discriminator 3 view .LVU988
 3409 0068 FFF7FEFF 		bl	osal_printf
 3410              	.LVL469:
 3411 006c F5E7     		b	.L337
 3412              	.LVL470:
 3413              	.L348:
 369:../Switch/core/yt/yt_rate.c ****     CMM_PARAM_CHK((!(YT_DISPATCH(unit)->is_inited)), CMM_ERR_NOT_INIT);
 3414              		.loc 1 369 5 discriminator 3 view .LVU989
 3415              	.LBE67:
 370:../Switch/core/yt/yt_rate.c ****     CMM_PARAM_CHK((!(CMM_PORT_VALID(unit, port))), CMM_ERR_PORT);
 3416              		.loc 1 370 5 is_stmt 1 discriminator 1 view .LVU990
 370:../Switch/core/yt/yt_rate.c ****     CMM_PARAM_CHK((!(CMM_PORT_VALID(unit, port))), CMM_ERR_PORT);
 3417              		.loc 1 370 5 discriminator 1 view .LVU991
 3418 006e 184B     		ldr	r3, .L355+12
 3419 0070 1B78     		ldrb	r3, [r3]	@ zero_extendqisi2
 3420 0072 012B     		cmp	r3, #1
 3421 0074 01D8     		bhi	.L352
 3422              	.LVL471:
 3423              	.L339:
 370:../Switch/core/yt/yt_rate.c ****     CMM_PARAM_CHK((!(CMM_PORT_VALID(unit, port))), CMM_ERR_PORT);
 3424              		.loc 1 370 5 discriminator 5 view .LVU992
 370:../Switch/core/yt/yt_rate.c ****     CMM_PARAM_CHK((!(CMM_PORT_VALID(unit, port))), CMM_ERR_PORT);
 3425              		.loc 1 370 5 discriminator 5 view .LVU993
 370:../Switch/core/yt/yt_rate.c ****     CMM_PARAM_CHK((!(CMM_PORT_VALID(unit, port))), CMM_ERR_PORT);
 3426              		.loc 1 370 5 discriminator 5 view .LVU994
 3427 0076 0420     		movs	r0, #4
 3428 0078 DCE7     		b	.L332
 3429              	.LVL472:
 3430              	.L352:
 370:../Switch/core/yt/yt_rate.c ****     CMM_PARAM_CHK((!(CMM_PORT_VALID(unit, port))), CMM_ERR_PORT);
 3431              		.loc 1 370 5 discriminator 3 view .LVU995
 3432              	.LBB68:
 370:../Switch/core/yt/yt_rate.c ****     CMM_PARAM_CHK((!(CMM_PORT_VALID(unit, port))), CMM_ERR_PORT);
 3433              		.loc 1 370 5 discriminator 3 view .LVU996
 3434 007a 164B     		ldr	r3, .L355+16
 3435 007c 1A69     		ldr	r2, [r3, #16]
 3436              	.LVL473:
 370:../Switch/core/yt/yt_rate.c ****     CMM_PARAM_CHK((!(CMM_PORT_VALID(unit, port))), CMM_ERR_PORT);
 3437              		.loc 1 370 5 is_stmt 0 discriminator 3 view .LVU997
 3438 007e 164B     		ldr	r3, .L355+20
 3439 0080 9968     		ldr	r1, [r3, #8]
 3440              	.LVL474:
 370:../Switch/core/yt/yt_rate.c ****     CMM_PARAM_CHK((!(CMM_PORT_VALID(unit, port))), CMM_ERR_PORT);
 3441              		.loc 1 370 5 discriminator 3 view .LVU998
 3442 0082 1648     		ldr	r0, .L355+24
 3443 0084 FFF7FEFF 		bl	osal_printf
 3444              	.LVL475:
 3445 0088 F5E7     		b	.L339
 3446              	.LVL476:
 3447              	.L340:
 370:../Switch/core/yt/yt_rate.c ****     CMM_PARAM_CHK((!(CMM_PORT_VALID(unit, port))), CMM_ERR_PORT);
 3448              		.loc 1 370 5 discriminator 3 view .LVU999
 3449              	.LBE68:
 371:../Switch/core/yt/yt_rate.c ****     CMM_PARAM_CHK((YT_ENABLE < enable || YT_DISABLE > enable), CMM_ERR_INPUT);
 3450              		.loc 1 371 5 is_stmt 1 discriminator 3 view .LVU1000
 371:../Switch/core/yt/yt_rate.c ****     CMM_PARAM_CHK((YT_ENABLE < enable || YT_DISABLE > enable), CMM_ERR_INPUT);
 3451              		.loc 1 371 5 discriminator 3 view .LVU1001
 3452 008a 114B     		ldr	r3, .L355+12
 3453 008c 1B78     		ldrb	r3, [r3]	@ zero_extendqisi2
 3454 008e 012B     		cmp	r3, #1
 3455 0090 01D8     		bhi	.L353
 3456              	.LVL477:
 3457              	.L342:
 371:../Switch/core/yt/yt_rate.c ****     CMM_PARAM_CHK((YT_ENABLE < enable || YT_DISABLE > enable), CMM_ERR_INPUT);
 3458              		.loc 1 371 5 discriminator 7 view .LVU1002
 371:../Switch/core/yt/yt_rate.c ****     CMM_PARAM_CHK((YT_ENABLE < enable || YT_DISABLE > enable), CMM_ERR_INPUT);
 3459              		.loc 1 371 5 discriminator 7 view .LVU1003
 371:../Switch/core/yt/yt_rate.c ****     CMM_PARAM_CHK((YT_ENABLE < enable || YT_DISABLE > enable), CMM_ERR_INPUT);
 3460              		.loc 1 371 5 discriminator 7 view .LVU1004
 3461 0092 0E20     		movs	r0, #14
 3462 0094 CEE7     		b	.L332
 3463              	.LVL478:
 3464              	.L353:
 371:../Switch/core/yt/yt_rate.c ****     CMM_PARAM_CHK((YT_ENABLE < enable || YT_DISABLE > enable), CMM_ERR_INPUT);
 3465              		.loc 1 371 5 discriminator 5 view .LVU1005
 3466              	.LBB69:
 371:../Switch/core/yt/yt_rate.c ****     CMM_PARAM_CHK((YT_ENABLE < enable || YT_DISABLE > enable), CMM_ERR_INPUT);
 3467              		.loc 1 371 5 discriminator 5 view .LVU1006
 3468 0096 0F4B     		ldr	r3, .L355+16
 3469 0098 9A6B     		ldr	r2, [r3, #56]
 3470              	.LVL479:
 371:../Switch/core/yt/yt_rate.c ****     CMM_PARAM_CHK((YT_ENABLE < enable || YT_DISABLE > enable), CMM_ERR_INPUT);
 3471              		.loc 1 371 5 is_stmt 0 discriminator 5 view .LVU1007
 3472 009a 0F4B     		ldr	r3, .L355+20
 3473 009c 9968     		ldr	r1, [r3, #8]
 3474              	.LVL480:
 371:../Switch/core/yt/yt_rate.c ****     CMM_PARAM_CHK((YT_ENABLE < enable || YT_DISABLE > enable), CMM_ERR_INPUT);
 3475              		.loc 1 371 5 discriminator 5 view .LVU1008
 3476 009e 0F48     		ldr	r0, .L355+24
 3477 00a0 FFF7FEFF 		bl	osal_printf
 3478              	.LVL481:
 3479 00a4 F5E7     		b	.L342
 3480              	.LVL482:
 3481              	.L349:
 371:../Switch/core/yt/yt_rate.c ****     CMM_PARAM_CHK((YT_ENABLE < enable || YT_DISABLE > enable), CMM_ERR_INPUT);
 3482              		.loc 1 371 5 discriminator 5 view .LVU1009
 3483              	.LBE69:
 372:../Switch/core/yt/yt_rate.c **** 
 3484              		.loc 1 372 5 is_stmt 1 discriminator 1 view .LVU1010
 372:../Switch/core/yt/yt_rate.c **** 
 3485              		.loc 1 372 5 discriminator 1 view .LVU1011
 3486 00a6 0A4B     		ldr	r3, .L355+12
 3487 00a8 1B78     		ldrb	r3, [r3]	@ zero_extendqisi2
 3488 00aa 012B     		cmp	r3, #1
 3489 00ac 01D8     		bhi	.L354
 3490              	.LVL483:
 3491              	.L344:
 372:../Switch/core/yt/yt_rate.c **** 
 3492              		.loc 1 372 5 discriminator 5 view .LVU1012
 372:../Switch/core/yt/yt_rate.c **** 
 3493              		.loc 1 372 5 discriminator 5 view .LVU1013
 372:../Switch/core/yt/yt_rate.c **** 
 3494              		.loc 1 372 5 discriminator 5 view .LVU1014
 3495 00ae 0520     		movs	r0, #5
 3496 00b0 C0E7     		b	.L332
 3497              	.LVL484:
 3498              	.L354:
 372:../Switch/core/yt/yt_rate.c **** 
 3499              		.loc 1 372 5 discriminator 3 view .LVU1015
 3500              	.LBB70:
 372:../Switch/core/yt/yt_rate.c **** 
 3501              		.loc 1 372 5 discriminator 3 view .LVU1016
 3502 00b2 084B     		ldr	r3, .L355+16
 3503 00b4 5A69     		ldr	r2, [r3, #20]
 3504              	.LVL485:
 372:../Switch/core/yt/yt_rate.c **** 
 3505              		.loc 1 372 5 is_stmt 0 discriminator 3 view .LVU1017
 3506 00b6 084B     		ldr	r3, .L355+20
 3507 00b8 9968     		ldr	r1, [r3, #8]
 3508              	.LVL486:
 372:../Switch/core/yt/yt_rate.c **** 
 3509              		.loc 1 372 5 discriminator 3 view .LVU1018
 3510 00ba 0848     		ldr	r0, .L355+24
 3511 00bc FFF7FEFF 		bl	osal_printf
 3512              	.LVL487:
 3513 00c0 F5E7     		b	.L344
 3514              	.L356:
 3515 00c2 00BF     		.align	2
 3516              	.L355:
 3517 00c4 00000000 		.word	gpfal_dispatch
 3518 00c8 00000000 		.word	gcal_inited
 3519 00cc 00000000 		.word	gpSwitchUnit
 3520 00d0 00000000 		.word	yt_debug_level
 3521 00d4 00000000 		.word	_yt_errmsg
 3522 00d8 00000000 		.word	_yt_prompt_msg
 3523 00dc 00000000 		.word	.LC0
 3524              	.LBE70:
 3525              		.cfi_endproc
 3526              	.LFE18:
 3528              		.section	.text.yt_rate_shaping_port_enable_get,"ax",%progbits
 3529              		.align	1
 3530              		.global	yt_rate_shaping_port_enable_get
 3531              		.syntax unified
 3532              		.thumb
 3533              		.thumb_func
 3535              	yt_rate_shaping_port_enable_get:
 3536              	.LVL488:
 3537              	.LFB19:
 376:../Switch/core/yt/yt_rate.c **** 
 377:../Switch/core/yt/yt_rate.c **** /**
 378:../Switch/core/yt/yt_rate.c ****  * @internal      yt_rate_shaping_port_enable_get
 379:../Switch/core/yt/yt_rate.c ****  * @endinternal
 380:../Switch/core/yt/yt_rate.c ****  *
 381:../Switch/core/yt/yt_rate.c ****  * @brief         Description
 382:../Switch/core/yt/yt_rate.c ****  * @note          APPLICABLE DEVICES  -Tiger
 383:../Switch/core/yt/yt_rate.c ****  * @param[in]     unit                -unit id
 384:../Switch/core/yt/yt_rate.c ****  * @param[in]     port                -port num
 385:../Switch/core/yt/yt_rate.c ****  * @param[out]    pEnable             -enable or disable
 386:../Switch/core/yt/yt_rate.c ****  * @retval        CMM_ERR_OK          -on success
 387:../Switch/core/yt/yt_rate.c ****  * @retval        CMM_ERR_FAIL        -on fail
 388:../Switch/core/yt/yt_rate.c ****  */
 389:../Switch/core/yt/yt_rate.c **** yt_ret_t yt_rate_shaping_port_enable_get(yt_unit_t unit, yt_port_t port, yt_enable_t *pEnable)
 390:../Switch/core/yt/yt_rate.c **** {
 3538              		.loc 1 390 1 is_stmt 1 view -0
 3539              		.cfi_startproc
 3540              		@ args = 0, pretend = 0, frame = 0
 3541              		@ frame_needed = 0, uses_anonymous_args = 0
 3542              		.loc 1 390 1 is_stmt 0 view .LVU1020
 3543 0000 08B5     		push	{r3, lr}
 3544              		.cfi_def_cfa_offset 8
 3545              		.cfi_offset 3, -8
 3546              		.cfi_offset 14, -4
 391:../Switch/core/yt/yt_rate.c ****     CMM_PARAM_CHK((YT_UNIT_NUM <= unit), CMM_ERR_INPUT);
 3547              		.loc 1 391 5 is_stmt 1 view .LVU1021
 3548              		.loc 1 391 5 view .LVU1022
 3549 0002 C0B9     		cbnz	r0, .L371
 3550 0004 8446     		mov	ip, r0
 3551              		.loc 1 391 5 discriminator 2 view .LVU1023
 392:../Switch/core/yt/yt_rate.c ****     CMM_PARAM_CHK(NULL == YT_DISPATCH(unit), CMM_ERR_NOT_INIT);
 3552              		.loc 1 392 5 discriminator 2 view .LVU1024
 3553              		.loc 1 392 5 discriminator 2 view .LVU1025
 3554 0006 2F4B     		ldr	r3, .L380
 3555 0008 53F82030 		ldr	r3, [r3, r0, lsl #2]
 3556 000c 0BB3     		cbz	r3, .L372
 3557              		.loc 1 392 5 discriminator 2 view .LVU1026
 393:../Switch/core/yt/yt_rate.c ****     CMM_PARAM_CHK((!(YT_DISPATCH(unit)->is_inited)), CMM_ERR_NOT_INIT);
 3558              		.loc 1 393 5 discriminator 2 view .LVU1027
 3559              		.loc 1 393 5 discriminator 2 view .LVU1028
 3560 000e 1878     		ldrb	r0, [r3]	@ zero_extendqisi2
 3561              	.LVL489:
 3562              		.loc 1 393 5 is_stmt 0 discriminator 2 view .LVU1029
 3563 0010 0028     		cmp	r0, #0
 3564 0012 2CD0     		beq	.L373
 3565              		.loc 1 393 5 is_stmt 1 discriminator 2 view .LVU1030
 394:../Switch/core/yt/yt_rate.c ****     CMM_PARAM_CHK((!(CMM_PORT_VALID(unit, port))), CMM_ERR_PORT);
 3566              		.loc 1 394 5 discriminator 2 view .LVU1031
 3567              		.loc 1 394 5 discriminator 2 view .LVU1032
 3568 0014 2C48     		ldr	r0, .L380+4
 3569 0016 0078     		ldrb	r0, [r0]	@ zero_extendqisi2
 3570 0018 0028     		cmp	r0, #0
 3571 001a 36D0     		beq	.L365
 3572 001c 2B48     		ldr	r0, .L380+8
 3573 001e 50F82C00 		ldr	r0, [r0, ip, lsl #2]
 3574 0022 007D     		ldrb	r0, [r0, #20]	@ zero_extendqisi2
 3575 0024 8842     		cmp	r0, r1
 3576 0026 30D9     		bls	.L365
 3577              		.loc 1 394 5 discriminator 4 view .LVU1033
 395:../Switch/core/yt/yt_rate.c ****     CMM_PARAM_CHK((NULL == pEnable), CMM_ERR_NULL_POINT);
 3578              		.loc 1 395 5 discriminator 4 view .LVU1034
 3579              		.loc 1 395 5 discriminator 4 view .LVU1035
 3580 0028 002A     		cmp	r2, #0
 3581 002a 3CD0     		beq	.L374
 3582              		.loc 1 395 5 discriminator 2 view .LVU1036
 396:../Switch/core/yt/yt_rate.c **** 
 397:../Switch/core/yt/yt_rate.c ****     return YT_DISPATCH(unit)->rate_shaping_port_enable_get(unit, port, pEnable);
 3583              		.loc 1 397 5 discriminator 2 view .LVU1037
 3584              		.loc 1 397 29 is_stmt 0 discriminator 2 view .LVU1038
 3585 002c D3F87432 		ldr	r3, [r3, #628]
 3586              		.loc 1 397 12 discriminator 2 view .LVU1039
 3587 0030 6046     		mov	r0, ip
 3588 0032 9847     		blx	r3
 3589              	.LVL490:
 3590              	.L357:
 398:../Switch/core/yt/yt_rate.c **** }
 3591              		.loc 1 398 1 view .LVU1040
 3592 0034 08BD     		pop	{r3, pc}
 3593              	.LVL491:
 3594              	.L371:
 391:../Switch/core/yt/yt_rate.c ****     CMM_PARAM_CHK(NULL == YT_DISPATCH(unit), CMM_ERR_NOT_INIT);
 3595              		.loc 1 391 5 is_stmt 1 discriminator 1 view .LVU1041
 391:../Switch/core/yt/yt_rate.c ****     CMM_PARAM_CHK(NULL == YT_DISPATCH(unit), CMM_ERR_NOT_INIT);
 3596              		.loc 1 391 5 discriminator 1 view .LVU1042
 3597 0036 264B     		ldr	r3, .L380+12
 3598 0038 1B78     		ldrb	r3, [r3]	@ zero_extendqisi2
 3599 003a 012B     		cmp	r3, #1
 3600 003c 01D8     		bhi	.L375
 3601              	.LVL492:
 3602              	.L359:
 391:../Switch/core/yt/yt_rate.c ****     CMM_PARAM_CHK(NULL == YT_DISPATCH(unit), CMM_ERR_NOT_INIT);
 3603              		.loc 1 391 5 discriminator 5 view .LVU1043
 391:../Switch/core/yt/yt_rate.c ****     CMM_PARAM_CHK(NULL == YT_DISPATCH(unit), CMM_ERR_NOT_INIT);
 3604              		.loc 1 391 5 discriminator 5 view .LVU1044
 391:../Switch/core/yt/yt_rate.c ****     CMM_PARAM_CHK(NULL == YT_DISPATCH(unit), CMM_ERR_NOT_INIT);
 3605              		.loc 1 391 5 discriminator 5 view .LVU1045
 3606 003e 0520     		movs	r0, #5
 3607 0040 F8E7     		b	.L357
 3608              	.LVL493:
 3609              	.L375:
 391:../Switch/core/yt/yt_rate.c ****     CMM_PARAM_CHK(NULL == YT_DISPATCH(unit), CMM_ERR_NOT_INIT);
 3610              		.loc 1 391 5 discriminator 3 view .LVU1046
 3611              	.LBB71:
 391:../Switch/core/yt/yt_rate.c ****     CMM_PARAM_CHK(NULL == YT_DISPATCH(unit), CMM_ERR_NOT_INIT);
 3612              		.loc 1 391 5 discriminator 3 view .LVU1047
 3613 0042 244B     		ldr	r3, .L380+16
 3614 0044 5A69     		ldr	r2, [r3, #20]
 3615              	.LVL494:
 391:../Switch/core/yt/yt_rate.c ****     CMM_PARAM_CHK(NULL == YT_DISPATCH(unit), CMM_ERR_NOT_INIT);
 3616              		.loc 1 391 5 is_stmt 0 discriminator 3 view .LVU1048
