   1              		.cpu cortex-m3
   2              		.arch armv7-m
   3              		.fpu softvfp
   4              		.eabi_attribute 20, 1
   5              		.eabi_attribute 21, 1
   6              		.eabi_attribute 23, 3
   7              		.eabi_attribute 24, 1
   8              		.eabi_attribute 25, 1
   9              		.eabi_attribute 26, 1
  10              		.eabi_attribute 30, 1
  11              		.eabi_attribute 34, 1
  12              		.eabi_attribute 18, 4
  13              		.file	"yt_sys.c"
  14              		.text
  15              	.Ltext0:
  16              		.cfi_sections	.debug_frame
  17              		.file 1 "../Switch/core/yt/yt_sys.c"
  18              		.section	.rodata.yt_sys_mac_get.str1.4,"aMS",%progbits,1
  19              		.align	2
  20              	.LC0:
  21 0000 25732573 		.ascii	"%s%s\015\012\000"
  21      0D0A00
  22              		.section	.text.yt_sys_mac_get,"ax",%progbits
  23              		.align	1
  24              		.global	yt_sys_mac_get
  25              		.syntax unified
  26              		.thumb
  27              		.thumb_func
  29              	yt_sys_mac_get:
  30              	.LVL0:
  31              	.LFB3:
   1:../Switch/core/yt/yt_sys.c **** /*******************************************************************************
   2:../Switch/core/yt/yt_sys.c **** *                                                                              *
   3:../Switch/core/yt/yt_sys.c **** *  Copyright (c), 2022, Motorcomm Electronic Technology Co.,Ltd.               *
   4:../Switch/core/yt/yt_sys.c **** *  Motorcomm Confidential and Proprietary.                                     *
   5:../Switch/core/yt/yt_sys.c **** *                                                                              *
   6:../Switch/core/yt/yt_sys.c **** ********************************************************************************
   7:../Switch/core/yt/yt_sys.c **** */
   8:../Switch/core/yt/yt_sys.c **** /**
   9:../Switch/core/yt/yt_sys.c **** ********************************************************************************
  10:../Switch/core/yt/yt_sys.c **** * @file yt_sys.c
  11:../Switch/core/yt/yt_sys.c **** *
  12:../Switch/core/yt/yt_sys.c **** * @brief x
  13:../Switch/core/yt/yt_sys.c **** *
  14:../Switch/core/yt/yt_sys.c **** ********************************************************************************
  15:../Switch/core/yt/yt_sys.c **** */
  16:../Switch/core/yt/yt_sys.c **** #include "yt_sys.h"
  17:../Switch/core/yt/yt_sys.c **** #include "fal_dispatch.h"
  18:../Switch/core/yt/yt_sys.c **** #include "version.h"
  19:../Switch/core/yt/yt_sys.c **** #include "hal_mem.h"
  20:../Switch/core/yt/yt_sys.c **** 
  21:../Switch/core/yt/yt_sys.c **** 
  22:../Switch/core/yt/yt_sys.c **** /**
  23:../Switch/core/yt/yt_sys.c ****  * @internal      yt_sys_mac_get
  24:../Switch/core/yt/yt_sys.c ****  * @endinternal
  25:../Switch/core/yt/yt_sys.c ****  *
  26:../Switch/core/yt/yt_sys.c ****  * @brief         Description
  27:../Switch/core/yt/yt_sys.c ****  * @note          APPLICABLE DEVICES  -Tiger
  28:../Switch/core/yt/yt_sys.c ****  * @param[in]     unit                -unit id
  29:../Switch/core/yt/yt_sys.c ****  * @param[in]     psys_mac            -yt_types.h
  30:../Switch/core/yt/yt_sys.c ****  * @retval        CMM_ERR_OK          -on success
  31:../Switch/core/yt/yt_sys.c ****  * @retval        CMM_ERR_FAIL        -on fail
  32:../Switch/core/yt/yt_sys.c ****  */
  33:../Switch/core/yt/yt_sys.c **** yt_ret_t yt_sys_mac_get(yt_unit_t unit, yt_mac_addr_t *pSys_mac)
  34:../Switch/core/yt/yt_sys.c **** {
  32              		.loc 1 34 1 view -0
  33              		.cfi_startproc
  34              		@ args = 0, pretend = 0, frame = 0
  35              		@ frame_needed = 0, uses_anonymous_args = 0
  36              		.loc 1 34 1 is_stmt 0 view .LVU1
  37 0000 08B5     		push	{r3, lr}
  38              		.cfi_def_cfa_offset 8
  39              		.cfi_offset 3, -8
  40              		.cfi_offset 14, -4
  35:../Switch/core/yt/yt_sys.c ****     CMM_PARAM_CHK((YT_UNIT_NUM <= unit), CMM_ERR_INPUT);
  41              		.loc 1 35 5 is_stmt 1 view .LVU2
  42              		.loc 1 35 5 view .LVU3
  43 0002 68B9     		cbnz	r0, .L12
  44 0004 0246     		mov	r2, r0
  45              		.loc 1 35 5 discriminator 2 view .LVU4
  36:../Switch/core/yt/yt_sys.c ****     CMM_PARAM_CHK(NULL == YT_DISPATCH(unit), CMM_ERR_NOT_INIT);
  46              		.loc 1 36 5 discriminator 2 view .LVU5
  47              		.loc 1 36 5 discriminator 2 view .LVU6
  48 0006 224B     		ldr	r3, .L20
  49 0008 53F82030 		ldr	r3, [r3, r0, lsl #2]
  50 000c B3B1     		cbz	r3, .L13
  51              		.loc 1 36 5 discriminator 2 view .LVU7
  37:../Switch/core/yt/yt_sys.c ****     CMM_PARAM_CHK((!(YT_DISPATCH(unit)->is_inited)), CMM_ERR_NOT_INIT);
  52              		.loc 1 37 5 discriminator 2 view .LVU8
  53              		.loc 1 37 5 discriminator 2 view .LVU9
  54 000e 1878     		ldrb	r0, [r3]	@ zero_extendqisi2
  55              	.LVL1:
  56              		.loc 1 37 5 is_stmt 0 discriminator 2 view .LVU10
  57 0010 10B3     		cbz	r0, .L14
  58              		.loc 1 37 5 is_stmt 1 discriminator 2 view .LVU11
  38:../Switch/core/yt/yt_sys.c ****     CMM_PARAM_CHK((NULL == pSys_mac), CMM_ERR_NULL_POINT);
  59              		.loc 1 38 5 discriminator 2 view .LVU12
  60              		.loc 1 38 5 discriminator 2 view .LVU13
  61 0012 0029     		cmp	r1, #0
  62 0014 2ED0     		beq	.L15
  63              		.loc 1 38 5 discriminator 2 view .LVU14
  39:../Switch/core/yt/yt_sys.c **** 
  40:../Switch/core/yt/yt_sys.c ****     return YT_DISPATCH(unit)->sys_mac_get(unit, pSys_mac);
  64              		.loc 1 40 5 discriminator 2 view .LVU15
  65              		.loc 1 40 29 is_stmt 0 discriminator 2 view .LVU16
  66 0016 D3F84035 		ldr	r3, [r3, #1344]
  67              		.loc 1 40 12 discriminator 2 view .LVU17
  68 001a 1046     		mov	r0, r2
  69 001c 9847     		blx	r3
  70              	.LVL2:
  71              	.L1:
  41:../Switch/core/yt/yt_sys.c **** }
  72              		.loc 1 41 1 view .LVU18
  73 001e 08BD     		pop	{r3, pc}
  74              	.LVL3:
  75              	.L12:
  35:../Switch/core/yt/yt_sys.c ****     CMM_PARAM_CHK(NULL == YT_DISPATCH(unit), CMM_ERR_NOT_INIT);
  76              		.loc 1 35 5 is_stmt 1 discriminator 1 view .LVU19
  35:../Switch/core/yt/yt_sys.c ****     CMM_PARAM_CHK(NULL == YT_DISPATCH(unit), CMM_ERR_NOT_INIT);
  77              		.loc 1 35 5 discriminator 1 view .LVU20
  78 0020 1C4B     		ldr	r3, .L20+4
  79 0022 1B78     		ldrb	r3, [r3]	@ zero_extendqisi2
  80 0024 012B     		cmp	r3, #1
  81 0026 01D8     		bhi	.L16
  82              	.LVL4:
  83              	.L3:
  35:../Switch/core/yt/yt_sys.c ****     CMM_PARAM_CHK(NULL == YT_DISPATCH(unit), CMM_ERR_NOT_INIT);
  84              		.loc 1 35 5 discriminator 5 view .LVU21
  35:../Switch/core/yt/yt_sys.c ****     CMM_PARAM_CHK(NULL == YT_DISPATCH(unit), CMM_ERR_NOT_INIT);
  85              		.loc 1 35 5 discriminator 5 view .LVU22
  35:../Switch/core/yt/yt_sys.c ****     CMM_PARAM_CHK(NULL == YT_DISPATCH(unit), CMM_ERR_NOT_INIT);
  86              		.loc 1 35 5 discriminator 5 view .LVU23
  87 0028 0520     		movs	r0, #5
  88 002a F8E7     		b	.L1
  89              	.LVL5:
  90              	.L16:
  35:../Switch/core/yt/yt_sys.c ****     CMM_PARAM_CHK(NULL == YT_DISPATCH(unit), CMM_ERR_NOT_INIT);
  91              		.loc 1 35 5 discriminator 3 view .LVU24
  92              	.LBB2:
  35:../Switch/core/yt/yt_sys.c ****     CMM_PARAM_CHK(NULL == YT_DISPATCH(unit), CMM_ERR_NOT_INIT);
  93              		.loc 1 35 5 discriminator 3 view .LVU25
  94 002c 1A4B     		ldr	r3, .L20+8
  95 002e 5A69     		ldr	r2, [r3, #20]
  96 0030 1A4B     		ldr	r3, .L20+12
  97 0032 9968     		ldr	r1, [r3, #8]
  98              	.LVL6:
  35:../Switch/core/yt/yt_sys.c ****     CMM_PARAM_CHK(NULL == YT_DISPATCH(unit), CMM_ERR_NOT_INIT);
  99              		.loc 1 35 5 is_stmt 0 discriminator 3 view .LVU26
 100 0034 1A48     		ldr	r0, .L20+16
 101              	.LVL7:
  35:../Switch/core/yt/yt_sys.c ****     CMM_PARAM_CHK(NULL == YT_DISPATCH(unit), CMM_ERR_NOT_INIT);
 102              		.loc 1 35 5 discriminator 3 view .LVU27
 103 0036 FFF7FEFF 		bl	osal_printf
 104              	.LVL8:
 105 003a F5E7     		b	.L3
 106              	.LVL9:
 107              	.L13:
  35:../Switch/core/yt/yt_sys.c ****     CMM_PARAM_CHK(NULL == YT_DISPATCH(unit), CMM_ERR_NOT_INIT);
 108              		.loc 1 35 5 discriminator 3 view .LVU28
 109              	.LBE2:
  36:../Switch/core/yt/yt_sys.c ****     CMM_PARAM_CHK((!(YT_DISPATCH(unit)->is_inited)), CMM_ERR_NOT_INIT);
 110              		.loc 1 36 5 is_stmt 1 discriminator 1 view .LVU29
  36:../Switch/core/yt/yt_sys.c ****     CMM_PARAM_CHK((!(YT_DISPATCH(unit)->is_inited)), CMM_ERR_NOT_INIT);
 111              		.loc 1 36 5 discriminator 1 view .LVU30
 112 003c 154B     		ldr	r3, .L20+4
 113 003e 1B78     		ldrb	r3, [r3]	@ zero_extendqisi2
 114 0040 012B     		cmp	r3, #1
 115 0042 01D8     		bhi	.L17
 116              	.LVL10:
 117              	.L6:
  36:../Switch/core/yt/yt_sys.c ****     CMM_PARAM_CHK((!(YT_DISPATCH(unit)->is_inited)), CMM_ERR_NOT_INIT);
 118              		.loc 1 36 5 discriminator 5 view .LVU31
  36:../Switch/core/yt/yt_sys.c ****     CMM_PARAM_CHK((!(YT_DISPATCH(unit)->is_inited)), CMM_ERR_NOT_INIT);
 119              		.loc 1 36 5 discriminator 5 view .LVU32
  36:../Switch/core/yt/yt_sys.c ****     CMM_PARAM_CHK((!(YT_DISPATCH(unit)->is_inited)), CMM_ERR_NOT_INIT);
 120              		.loc 1 36 5 discriminator 5 view .LVU33
 121 0044 0420     		movs	r0, #4
 122 0046 EAE7     		b	.L1
 123              	.LVL11:
 124              	.L17:
  36:../Switch/core/yt/yt_sys.c ****     CMM_PARAM_CHK((!(YT_DISPATCH(unit)->is_inited)), CMM_ERR_NOT_INIT);
 125              		.loc 1 36 5 discriminator 3 view .LVU34
 126              	.LBB3:
  36:../Switch/core/yt/yt_sys.c ****     CMM_PARAM_CHK((!(YT_DISPATCH(unit)->is_inited)), CMM_ERR_NOT_INIT);
 127              		.loc 1 36 5 discriminator 3 view .LVU35
 128 0048 134B     		ldr	r3, .L20+8
 129 004a 1A69     		ldr	r2, [r3, #16]
 130 004c 134B     		ldr	r3, .L20+12
 131 004e 9968     		ldr	r1, [r3, #8]
 132              	.LVL12:
  36:../Switch/core/yt/yt_sys.c ****     CMM_PARAM_CHK((!(YT_DISPATCH(unit)->is_inited)), CMM_ERR_NOT_INIT);
 133              		.loc 1 36 5 is_stmt 0 discriminator 3 view .LVU36
 134 0050 1348     		ldr	r0, .L20+16
 135              	.LVL13:
  36:../Switch/core/yt/yt_sys.c ****     CMM_PARAM_CHK((!(YT_DISPATCH(unit)->is_inited)), CMM_ERR_NOT_INIT);
 136              		.loc 1 36 5 discriminator 3 view .LVU37
 137 0052 FFF7FEFF 		bl	osal_printf
 138              	.LVL14:
 139 0056 F5E7     		b	.L6
 140              	.LVL15:
 141              	.L14:
  36:../Switch/core/yt/yt_sys.c ****     CMM_PARAM_CHK((!(YT_DISPATCH(unit)->is_inited)), CMM_ERR_NOT_INIT);
 142              		.loc 1 36 5 discriminator 3 view .LVU38
 143              	.LBE3:
  37:../Switch/core/yt/yt_sys.c ****     CMM_PARAM_CHK((NULL == pSys_mac), CMM_ERR_NULL_POINT);
 144              		.loc 1 37 5 is_stmt 1 discriminator 1 view .LVU39
  37:../Switch/core/yt/yt_sys.c ****     CMM_PARAM_CHK((NULL == pSys_mac), CMM_ERR_NULL_POINT);
 145              		.loc 1 37 5 discriminator 1 view .LVU40
 146 0058 0E4B     		ldr	r3, .L20+4
 147 005a 1B78     		ldrb	r3, [r3]	@ zero_extendqisi2
 148 005c 012B     		cmp	r3, #1
 149 005e 01D8     		bhi	.L18
 150              	.LVL16:
 151              	.L8:
  37:../Switch/core/yt/yt_sys.c ****     CMM_PARAM_CHK((NULL == pSys_mac), CMM_ERR_NULL_POINT);
 152              		.loc 1 37 5 discriminator 5 view .LVU41
  37:../Switch/core/yt/yt_sys.c ****     CMM_PARAM_CHK((NULL == pSys_mac), CMM_ERR_NULL_POINT);
 153              		.loc 1 37 5 discriminator 5 view .LVU42
  37:../Switch/core/yt/yt_sys.c ****     CMM_PARAM_CHK((NULL == pSys_mac), CMM_ERR_NULL_POINT);
 154              		.loc 1 37 5 discriminator 5 view .LVU43
 155 0060 0420     		movs	r0, #4
 156 0062 DCE7     		b	.L1
 157              	.LVL17:
 158              	.L18:
  37:../Switch/core/yt/yt_sys.c ****     CMM_PARAM_CHK((NULL == pSys_mac), CMM_ERR_NULL_POINT);
 159              		.loc 1 37 5 discriminator 3 view .LVU44
 160              	.LBB4:
  37:../Switch/core/yt/yt_sys.c ****     CMM_PARAM_CHK((NULL == pSys_mac), CMM_ERR_NULL_POINT);
 161              		.loc 1 37 5 discriminator 3 view .LVU45
 162 0064 0C4B     		ldr	r3, .L20+8
 163 0066 1A69     		ldr	r2, [r3, #16]
 164 0068 0C4B     		ldr	r3, .L20+12
 165 006a 9968     		ldr	r1, [r3, #8]
 166              	.LVL18:
  37:../Switch/core/yt/yt_sys.c ****     CMM_PARAM_CHK((NULL == pSys_mac), CMM_ERR_NULL_POINT);
 167              		.loc 1 37 5 is_stmt 0 discriminator 3 view .LVU46
 168 006c 0C48     		ldr	r0, .L20+16
 169 006e FFF7FEFF 		bl	osal_printf
 170              	.LVL19:
 171 0072 F5E7     		b	.L8
 172              	.LVL20:
 173              	.L15:
  37:../Switch/core/yt/yt_sys.c ****     CMM_PARAM_CHK((NULL == pSys_mac), CMM_ERR_NULL_POINT);
 174              		.loc 1 37 5 discriminator 3 view .LVU47
 175              	.LBE4:
  38:../Switch/core/yt/yt_sys.c **** 
 176              		.loc 1 38 5 is_stmt 1 discriminator 1 view .LVU48
  38:../Switch/core/yt/yt_sys.c **** 
 177              		.loc 1 38 5 discriminator 1 view .LVU49
 178 0074 074B     		ldr	r3, .L20+4
 179 0076 1B78     		ldrb	r3, [r3]	@ zero_extendqisi2
 180 0078 012B     		cmp	r3, #1
 181 007a 01D8     		bhi	.L19
 182              	.LVL21:
 183              	.L10:
  38:../Switch/core/yt/yt_sys.c **** 
 184              		.loc 1 38 5 discriminator 5 view .LVU50
  38:../Switch/core/yt/yt_sys.c **** 
 185              		.loc 1 38 5 discriminator 5 view .LVU51
  38:../Switch/core/yt/yt_sys.c **** 
 186              		.loc 1 38 5 discriminator 5 view .LVU52
 187 007c 0220     		movs	r0, #2
 188 007e CEE7     		b	.L1
 189              	.LVL22:
 190              	.L19:
  38:../Switch/core/yt/yt_sys.c **** 
 191              		.loc 1 38 5 discriminator 3 view .LVU53
 192              	.LBB5:
  38:../Switch/core/yt/yt_sys.c **** 
 193              		.loc 1 38 5 discriminator 3 view .LVU54
 194 0080 054B     		ldr	r3, .L20+8
 195 0082 9A68     		ldr	r2, [r3, #8]
 196 0084 054B     		ldr	r3, .L20+12
 197 0086 9968     		ldr	r1, [r3, #8]
 198              	.LVL23:
  38:../Switch/core/yt/yt_sys.c **** 
 199              		.loc 1 38 5 is_stmt 0 discriminator 3 view .LVU55
 200 0088 0548     		ldr	r0, .L20+16
 201 008a FFF7FEFF 		bl	osal_printf
 202              	.LVL24:
 203 008e F5E7     		b	.L10
 204              	.L21:
 205              		.align	2
 206              	.L20:
 207 0090 00000000 		.word	gpfal_dispatch
 208 0094 00000000 		.word	yt_debug_level
 209 0098 00000000 		.word	_yt_errmsg
 210 009c 00000000 		.word	_yt_prompt_msg
 211 00a0 00000000 		.word	.LC0
 212              	.LBE5:
 213              		.cfi_endproc
 214              	.LFE3:
 216              		.section	.text.yt_sys_chip_reset,"ax",%progbits
 217              		.align	1
 218              		.global	yt_sys_chip_reset
 219              		.syntax unified
 220              		.thumb
 221              		.thumb_func
 223              	yt_sys_chip_reset:
 224              	.LVL25:
 225              	.LFB4:
  42:../Switch/core/yt/yt_sys.c **** 
  43:../Switch/core/yt/yt_sys.c **** /**
  44:../Switch/core/yt/yt_sys.c ****  * @internal      yt_sys_chip_reset
  45:../Switch/core/yt/yt_sys.c ****  * @endinternal
  46:../Switch/core/yt/yt_sys.c ****  *
  47:../Switch/core/yt/yt_sys.c ****  * @brief         Description
  48:../Switch/core/yt/yt_sys.c ****  * @note          APPLICABLE DEVICES  -Tiger
  49:../Switch/core/yt/yt_sys.c ****  * @param[in]     unit                -unit id
  50:../Switch/core/yt/yt_sys.c ****  * @retval        CMM_ERR_OK          -on success
  51:../Switch/core/yt/yt_sys.c ****  * @retval        CMM_ERR_FAIL        -on fail
  52:../Switch/core/yt/yt_sys.c ****  */
  53:../Switch/core/yt/yt_sys.c **** yt_ret_t yt_sys_chip_reset(yt_unit_t unit)
  54:../Switch/core/yt/yt_sys.c **** {
 226              		.loc 1 54 1 is_stmt 1 view -0
 227              		.cfi_startproc
 228              		@ args = 0, pretend = 0, frame = 0
 229              		@ frame_needed = 0, uses_anonymous_args = 0
 230              		.loc 1 54 1 is_stmt 0 view .LVU57
 231 0000 08B5     		push	{r3, lr}
 232              		.cfi_def_cfa_offset 8
 233              		.cfi_offset 3, -8
 234              		.cfi_offset 14, -4
  55:../Switch/core/yt/yt_sys.c ****     CMM_PARAM_CHK((YT_UNIT_NUM <= unit), CMM_ERR_INPUT);
 235              		.loc 1 55 5 is_stmt 1 view .LVU58
 236              		.loc 1 55 5 view .LVU59
 237 0002 48B9     		cbnz	r0, .L31
 238              		.loc 1 55 5 discriminator 2 view .LVU60
  56:../Switch/core/yt/yt_sys.c ****     CMM_PARAM_CHK(NULL == YT_DISPATCH(unit), CMM_ERR_NOT_INIT);
 239              		.loc 1 56 5 discriminator 2 view .LVU61
 240              		.loc 1 56 5 discriminator 2 view .LVU62
 241 0004 194B     		ldr	r3, .L37
 242 0006 53F82030 		ldr	r3, [r3, r0, lsl #2]
 243 000a 9BB1     		cbz	r3, .L32
 244              		.loc 1 56 5 discriminator 2 view .LVU63
  57:../Switch/core/yt/yt_sys.c ****     CMM_PARAM_CHK((!(YT_DISPATCH(unit)->is_inited)), CMM_ERR_NOT_INIT);
 245              		.loc 1 57 5 discriminator 2 view .LVU64
 246              		.loc 1 57 5 discriminator 2 view .LVU65
 247 000c 1978     		ldrb	r1, [r3]	@ zero_extendqisi2
 248 000e F9B1     		cbz	r1, .L33
 249              		.loc 1 57 5 discriminator 2 view .LVU66
  58:../Switch/core/yt/yt_sys.c **** 
  59:../Switch/core/yt/yt_sys.c ****     return YT_DISPATCH(unit)->sys_chip_reset(unit);
 250              		.loc 1 59 5 discriminator 2 view .LVU67
 251              		.loc 1 59 29 is_stmt 0 discriminator 2 view .LVU68
 252 0010 D3F84435 		ldr	r3, [r3, #1348]
 253              		.loc 1 59 12 discriminator 2 view .LVU69
 254 0014 9847     		blx	r3
 255              	.LVL26:
 256              	.L22:
  60:../Switch/core/yt/yt_sys.c **** }
 257              		.loc 1 60 1 view .LVU70
 258 0016 08BD     		pop	{r3, pc}
 259              	.LVL27:
 260              	.L31:
  55:../Switch/core/yt/yt_sys.c ****     CMM_PARAM_CHK(NULL == YT_DISPATCH(unit), CMM_ERR_NOT_INIT);
 261              		.loc 1 55 5 is_stmt 1 discriminator 1 view .LVU71
  55:../Switch/core/yt/yt_sys.c ****     CMM_PARAM_CHK(NULL == YT_DISPATCH(unit), CMM_ERR_NOT_INIT);
 262              		.loc 1 55 5 discriminator 1 view .LVU72
 263 0018 154B     		ldr	r3, .L37+4
 264 001a 1B78     		ldrb	r3, [r3]	@ zero_extendqisi2
 265 001c 012B     		cmp	r3, #1
 266 001e 01D8     		bhi	.L34
 267              	.LVL28:
 268              	.L24:
  55:../Switch/core/yt/yt_sys.c ****     CMM_PARAM_CHK(NULL == YT_DISPATCH(unit), CMM_ERR_NOT_INIT);
 269              		.loc 1 55 5 discriminator 5 view .LVU73
  55:../Switch/core/yt/yt_sys.c ****     CMM_PARAM_CHK(NULL == YT_DISPATCH(unit), CMM_ERR_NOT_INIT);
 270              		.loc 1 55 5 discriminator 5 view .LVU74
  55:../Switch/core/yt/yt_sys.c ****     CMM_PARAM_CHK(NULL == YT_DISPATCH(unit), CMM_ERR_NOT_INIT);
 271              		.loc 1 55 5 discriminator 5 view .LVU75
 272 0020 0520     		movs	r0, #5
 273 0022 F8E7     		b	.L22
 274              	.LVL29:
 275              	.L34:
  55:../Switch/core/yt/yt_sys.c ****     CMM_PARAM_CHK(NULL == YT_DISPATCH(unit), CMM_ERR_NOT_INIT);
 276              		.loc 1 55 5 discriminator 3 view .LVU76
 277              	.LBB6:
  55:../Switch/core/yt/yt_sys.c ****     CMM_PARAM_CHK(NULL == YT_DISPATCH(unit), CMM_ERR_NOT_INIT);
 278              		.loc 1 55 5 discriminator 3 view .LVU77
 279 0024 134B     		ldr	r3, .L37+8
 280 0026 5A69     		ldr	r2, [r3, #20]
 281 0028 134B     		ldr	r3, .L37+12
 282 002a 9968     		ldr	r1, [r3, #8]
 283 002c 1348     		ldr	r0, .L37+16
 284              	.LVL30:
  55:../Switch/core/yt/yt_sys.c ****     CMM_PARAM_CHK(NULL == YT_DISPATCH(unit), CMM_ERR_NOT_INIT);
 285              		.loc 1 55 5 is_stmt 0 discriminator 3 view .LVU78
 286 002e FFF7FEFF 		bl	osal_printf
 287              	.LVL31:
 288 0032 F5E7     		b	.L24
 289              	.LVL32:
 290              	.L32:
  55:../Switch/core/yt/yt_sys.c ****     CMM_PARAM_CHK(NULL == YT_DISPATCH(unit), CMM_ERR_NOT_INIT);
 291              		.loc 1 55 5 discriminator 3 view .LVU79
 292              	.LBE6:
  56:../Switch/core/yt/yt_sys.c ****     CMM_PARAM_CHK((!(YT_DISPATCH(unit)->is_inited)), CMM_ERR_NOT_INIT);
 293              		.loc 1 56 5 is_stmt 1 discriminator 1 view .LVU80
  56:../Switch/core/yt/yt_sys.c ****     CMM_PARAM_CHK((!(YT_DISPATCH(unit)->is_inited)), CMM_ERR_NOT_INIT);
 294              		.loc 1 56 5 discriminator 1 view .LVU81
 295 0034 0E4B     		ldr	r3, .L37+4
 296 0036 1B78     		ldrb	r3, [r3]	@ zero_extendqisi2
 297 0038 012B     		cmp	r3, #1
 298 003a 01D8     		bhi	.L35
 299              	.LVL33:
 300              	.L27:
  56:../Switch/core/yt/yt_sys.c ****     CMM_PARAM_CHK((!(YT_DISPATCH(unit)->is_inited)), CMM_ERR_NOT_INIT);
 301              		.loc 1 56 5 discriminator 5 view .LVU82
  56:../Switch/core/yt/yt_sys.c ****     CMM_PARAM_CHK((!(YT_DISPATCH(unit)->is_inited)), CMM_ERR_NOT_INIT);
 302              		.loc 1 56 5 discriminator 5 view .LVU83
  56:../Switch/core/yt/yt_sys.c ****     CMM_PARAM_CHK((!(YT_DISPATCH(unit)->is_inited)), CMM_ERR_NOT_INIT);
 303              		.loc 1 56 5 discriminator 5 view .LVU84
 304 003c 0420     		movs	r0, #4
 305 003e EAE7     		b	.L22
 306              	.LVL34:
 307              	.L35:
  56:../Switch/core/yt/yt_sys.c ****     CMM_PARAM_CHK((!(YT_DISPATCH(unit)->is_inited)), CMM_ERR_NOT_INIT);
 308              		.loc 1 56 5 discriminator 3 view .LVU85
 309              	.LBB7:
  56:../Switch/core/yt/yt_sys.c ****     CMM_PARAM_CHK((!(YT_DISPATCH(unit)->is_inited)), CMM_ERR_NOT_INIT);
 310              		.loc 1 56 5 discriminator 3 view .LVU86
 311 0040 0C4B     		ldr	r3, .L37+8
 312 0042 1A69     		ldr	r2, [r3, #16]
 313 0044 0C4B     		ldr	r3, .L37+12
 314 0046 9968     		ldr	r1, [r3, #8]
 315 0048 0C48     		ldr	r0, .L37+16
 316              	.LVL35:
  56:../Switch/core/yt/yt_sys.c ****     CMM_PARAM_CHK((!(YT_DISPATCH(unit)->is_inited)), CMM_ERR_NOT_INIT);
 317              		.loc 1 56 5 is_stmt 0 discriminator 3 view .LVU87
 318 004a FFF7FEFF 		bl	osal_printf
 319              	.LVL36:
 320 004e F5E7     		b	.L27
 321              	.LVL37:
 322              	.L33:
  56:../Switch/core/yt/yt_sys.c ****     CMM_PARAM_CHK((!(YT_DISPATCH(unit)->is_inited)), CMM_ERR_NOT_INIT);
 323              		.loc 1 56 5 discriminator 3 view .LVU88
 324              	.LBE7:
  57:../Switch/core/yt/yt_sys.c **** 
 325              		.loc 1 57 5 is_stmt 1 discriminator 1 view .LVU89
  57:../Switch/core/yt/yt_sys.c **** 
 326              		.loc 1 57 5 discriminator 1 view .LVU90
 327 0050 074B     		ldr	r3, .L37+4
 328 0052 1B78     		ldrb	r3, [r3]	@ zero_extendqisi2
 329 0054 012B     		cmp	r3, #1
 330 0056 01D8     		bhi	.L36
 331              	.LVL38:
 332              	.L29:
  57:../Switch/core/yt/yt_sys.c **** 
 333              		.loc 1 57 5 discriminator 5 view .LVU91
  57:../Switch/core/yt/yt_sys.c **** 
 334              		.loc 1 57 5 discriminator 5 view .LVU92
  57:../Switch/core/yt/yt_sys.c **** 
 335              		.loc 1 57 5 discriminator 5 view .LVU93
 336 0058 0420     		movs	r0, #4
 337 005a DCE7     		b	.L22
 338              	.LVL39:
 339              	.L36:
  57:../Switch/core/yt/yt_sys.c **** 
 340              		.loc 1 57 5 discriminator 3 view .LVU94
 341              	.LBB8:
  57:../Switch/core/yt/yt_sys.c **** 
 342              		.loc 1 57 5 discriminator 3 view .LVU95
 343 005c 054B     		ldr	r3, .L37+8
 344 005e 1A69     		ldr	r2, [r3, #16]
 345 0060 054B     		ldr	r3, .L37+12
 346 0062 9968     		ldr	r1, [r3, #8]
 347 0064 0548     		ldr	r0, .L37+16
 348              	.LVL40:
  57:../Switch/core/yt/yt_sys.c **** 
 349              		.loc 1 57 5 is_stmt 0 discriminator 3 view .LVU96
 350 0066 FFF7FEFF 		bl	osal_printf
 351              	.LVL41:
 352 006a F5E7     		b	.L29
 353              	.L38:
 354              		.align	2
 355              	.L37:
 356 006c 00000000 		.word	gpfal_dispatch
 357 0070 00000000 		.word	yt_debug_level
 358 0074 00000000 		.word	_yt_errmsg
 359 0078 00000000 		.word	_yt_prompt_msg
 360 007c 00000000 		.word	.LC0
 361              	.LBE8:
 362              		.cfi_endproc
 363              	.LFE4:
 365              		.section	.text.yt_sys_database_reset,"ax",%progbits
 366              		.align	1
 367              		.global	yt_sys_database_reset
 368              		.syntax unified
 369              		.thumb
 370              		.thumb_func
 372              	yt_sys_database_reset:
 373              	.LVL42:
 374              	.LFB5:
  61:../Switch/core/yt/yt_sys.c **** 
  62:../Switch/core/yt/yt_sys.c **** /**
  63:../Switch/core/yt/yt_sys.c ****  * @internal      yt_sys_database_reset
  64:../Switch/core/yt/yt_sys.c ****  * @endinternal
  65:../Switch/core/yt/yt_sys.c ****  *
  66:../Switch/core/yt/yt_sys.c ****  * @brief         Description
  67:../Switch/core/yt/yt_sys.c ****  * @note          APPLICABLE DEVICES  -Tiger
  68:../Switch/core/yt/yt_sys.c ****  * @param[in]     unit                -unit id
  69:../Switch/core/yt/yt_sys.c ****  * @retval        CMM_ERR_OK          -on success
  70:../Switch/core/yt/yt_sys.c ****  * @retval        CMM_ERR_FAIL        -on fail
  71:../Switch/core/yt/yt_sys.c ****  */
  72:../Switch/core/yt/yt_sys.c **** yt_ret_t yt_sys_database_reset(yt_unit_t unit)
  73:../Switch/core/yt/yt_sys.c **** {
 375              		.loc 1 73 1 is_stmt 1 view -0
 376              		.cfi_startproc
 377              		@ args = 0, pretend = 0, frame = 0
 378              		@ frame_needed = 0, uses_anonymous_args = 0
 379              		.loc 1 73 1 is_stmt 0 view .LVU98
 380 0000 08B5     		push	{r3, lr}
 381              		.cfi_def_cfa_offset 8
 382              		.cfi_offset 3, -8
 383              		.cfi_offset 14, -4
  74:../Switch/core/yt/yt_sys.c ****     CMM_PARAM_CHK((YT_UNIT_NUM <= unit), CMM_ERR_INPUT);
 384              		.loc 1 74 5 is_stmt 1 view .LVU99
 385              		.loc 1 74 5 view .LVU100
 386 0002 48B9     		cbnz	r0, .L48
 387              		.loc 1 74 5 discriminator 2 view .LVU101
  75:../Switch/core/yt/yt_sys.c ****     CMM_PARAM_CHK(NULL == YT_DISPATCH(unit), CMM_ERR_NOT_INIT);
 388              		.loc 1 75 5 discriminator 2 view .LVU102
 389              		.loc 1 75 5 discriminator 2 view .LVU103
 390 0004 194B     		ldr	r3, .L54
 391 0006 53F82030 		ldr	r3, [r3, r0, lsl #2]
 392 000a 9BB1     		cbz	r3, .L49
 393              		.loc 1 75 5 discriminator 2 view .LVU104
  76:../Switch/core/yt/yt_sys.c ****     CMM_PARAM_CHK((!(YT_DISPATCH(unit)->is_inited)), CMM_ERR_NOT_INIT);
 394              		.loc 1 76 5 discriminator 2 view .LVU105
 395              		.loc 1 76 5 discriminator 2 view .LVU106
 396 000c 1978     		ldrb	r1, [r3]	@ zero_extendqisi2
 397 000e F9B1     		cbz	r1, .L50
 398              		.loc 1 76 5 discriminator 2 view .LVU107
  77:../Switch/core/yt/yt_sys.c **** 
  78:../Switch/core/yt/yt_sys.c ****     return YT_DISPATCH(unit)->sys_database_reset(unit);
 399              		.loc 1 78 5 discriminator 2 view .LVU108
 400              		.loc 1 78 29 is_stmt 0 discriminator 2 view .LVU109
 401 0010 D3F84835 		ldr	r3, [r3, #1352]
 402              		.loc 1 78 12 discriminator 2 view .LVU110
 403 0014 9847     		blx	r3
 404              	.LVL43:
 405              	.L39:
  79:../Switch/core/yt/yt_sys.c **** }
 406              		.loc 1 79 1 view .LVU111
 407 0016 08BD     		pop	{r3, pc}
 408              	.LVL44:
 409              	.L48:
  74:../Switch/core/yt/yt_sys.c ****     CMM_PARAM_CHK(NULL == YT_DISPATCH(unit), CMM_ERR_NOT_INIT);
 410              		.loc 1 74 5 is_stmt 1 discriminator 1 view .LVU112
  74:../Switch/core/yt/yt_sys.c ****     CMM_PARAM_CHK(NULL == YT_DISPATCH(unit), CMM_ERR_NOT_INIT);
 411              		.loc 1 74 5 discriminator 1 view .LVU113
 412 0018 154B     		ldr	r3, .L54+4
 413 001a 1B78     		ldrb	r3, [r3]	@ zero_extendqisi2
 414 001c 012B     		cmp	r3, #1
 415 001e 01D8     		bhi	.L51
 416              	.LVL45:
 417              	.L41:
  74:../Switch/core/yt/yt_sys.c ****     CMM_PARAM_CHK(NULL == YT_DISPATCH(unit), CMM_ERR_NOT_INIT);
 418              		.loc 1 74 5 discriminator 5 view .LVU114
  74:../Switch/core/yt/yt_sys.c ****     CMM_PARAM_CHK(NULL == YT_DISPATCH(unit), CMM_ERR_NOT_INIT);
 419              		.loc 1 74 5 discriminator 5 view .LVU115
  74:../Switch/core/yt/yt_sys.c ****     CMM_PARAM_CHK(NULL == YT_DISPATCH(unit), CMM_ERR_NOT_INIT);
 420              		.loc 1 74 5 discriminator 5 view .LVU116
 421 0020 0520     		movs	r0, #5
 422 0022 F8E7     		b	.L39
 423              	.LVL46:
 424              	.L51:
  74:../Switch/core/yt/yt_sys.c ****     CMM_PARAM_CHK(NULL == YT_DISPATCH(unit), CMM_ERR_NOT_INIT);
 425              		.loc 1 74 5 discriminator 3 view .LVU117
 426              	.LBB9:
  74:../Switch/core/yt/yt_sys.c ****     CMM_PARAM_CHK(NULL == YT_DISPATCH(unit), CMM_ERR_NOT_INIT);
 427              		.loc 1 74 5 discriminator 3 view .LVU118
 428 0024 134B     		ldr	r3, .L54+8
 429 0026 5A69     		ldr	r2, [r3, #20]
 430 0028 134B     		ldr	r3, .L54+12
 431 002a 9968     		ldr	r1, [r3, #8]
 432 002c 1348     		ldr	r0, .L54+16
 433              	.LVL47:
  74:../Switch/core/yt/yt_sys.c ****     CMM_PARAM_CHK(NULL == YT_DISPATCH(unit), CMM_ERR_NOT_INIT);
 434              		.loc 1 74 5 is_stmt 0 discriminator 3 view .LVU119
 435 002e FFF7FEFF 		bl	osal_printf
 436              	.LVL48:
 437 0032 F5E7     		b	.L41
 438              	.LVL49:
 439              	.L49:
  74:../Switch/core/yt/yt_sys.c ****     CMM_PARAM_CHK(NULL == YT_DISPATCH(unit), CMM_ERR_NOT_INIT);
 440              		.loc 1 74 5 discriminator 3 view .LVU120
 441              	.LBE9:
  75:../Switch/core/yt/yt_sys.c ****     CMM_PARAM_CHK((!(YT_DISPATCH(unit)->is_inited)), CMM_ERR_NOT_INIT);
 442              		.loc 1 75 5 is_stmt 1 discriminator 1 view .LVU121
  75:../Switch/core/yt/yt_sys.c ****     CMM_PARAM_CHK((!(YT_DISPATCH(unit)->is_inited)), CMM_ERR_NOT_INIT);
 443              		.loc 1 75 5 discriminator 1 view .LVU122
 444 0034 0E4B     		ldr	r3, .L54+4
 445 0036 1B78     		ldrb	r3, [r3]	@ zero_extendqisi2
 446 0038 012B     		cmp	r3, #1
 447 003a 01D8     		bhi	.L52
 448              	.LVL50:
 449              	.L44:
  75:../Switch/core/yt/yt_sys.c ****     CMM_PARAM_CHK((!(YT_DISPATCH(unit)->is_inited)), CMM_ERR_NOT_INIT);
 450              		.loc 1 75 5 discriminator 5 view .LVU123
  75:../Switch/core/yt/yt_sys.c ****     CMM_PARAM_CHK((!(YT_DISPATCH(unit)->is_inited)), CMM_ERR_NOT_INIT);
 451              		.loc 1 75 5 discriminator 5 view .LVU124
  75:../Switch/core/yt/yt_sys.c ****     CMM_PARAM_CHK((!(YT_DISPATCH(unit)->is_inited)), CMM_ERR_NOT_INIT);
 452              		.loc 1 75 5 discriminator 5 view .LVU125
 453 003c 0420     		movs	r0, #4
 454 003e EAE7     		b	.L39
 455              	.LVL51:
 456              	.L52:
  75:../Switch/core/yt/yt_sys.c ****     CMM_PARAM_CHK((!(YT_DISPATCH(unit)->is_inited)), CMM_ERR_NOT_INIT);
 457              		.loc 1 75 5 discriminator 3 view .LVU126
 458              	.LBB10:
  75:../Switch/core/yt/yt_sys.c ****     CMM_PARAM_CHK((!(YT_DISPATCH(unit)->is_inited)), CMM_ERR_NOT_INIT);
 459              		.loc 1 75 5 discriminator 3 view .LVU127
 460 0040 0C4B     		ldr	r3, .L54+8
 461 0042 1A69     		ldr	r2, [r3, #16]
 462 0044 0C4B     		ldr	r3, .L54+12
 463 0046 9968     		ldr	r1, [r3, #8]
 464 0048 0C48     		ldr	r0, .L54+16
 465              	.LVL52:
  75:../Switch/core/yt/yt_sys.c ****     CMM_PARAM_CHK((!(YT_DISPATCH(unit)->is_inited)), CMM_ERR_NOT_INIT);
 466              		.loc 1 75 5 is_stmt 0 discriminator 3 view .LVU128
 467 004a FFF7FEFF 		bl	osal_printf
 468              	.LVL53:
 469 004e F5E7     		b	.L44
 470              	.LVL54:
 471              	.L50:
  75:../Switch/core/yt/yt_sys.c ****     CMM_PARAM_CHK((!(YT_DISPATCH(unit)->is_inited)), CMM_ERR_NOT_INIT);
 472              		.loc 1 75 5 discriminator 3 view .LVU129
 473              	.LBE10:
  76:../Switch/core/yt/yt_sys.c **** 
 474              		.loc 1 76 5 is_stmt 1 discriminator 1 view .LVU130
  76:../Switch/core/yt/yt_sys.c **** 
 475              		.loc 1 76 5 discriminator 1 view .LVU131
 476 0050 074B     		ldr	r3, .L54+4
 477 0052 1B78     		ldrb	r3, [r3]	@ zero_extendqisi2
 478 0054 012B     		cmp	r3, #1
 479 0056 01D8     		bhi	.L53
 480              	.LVL55:
 481              	.L46:
  76:../Switch/core/yt/yt_sys.c **** 
 482              		.loc 1 76 5 discriminator 5 view .LVU132
  76:../Switch/core/yt/yt_sys.c **** 
 483              		.loc 1 76 5 discriminator 5 view .LVU133
  76:../Switch/core/yt/yt_sys.c **** 
 484              		.loc 1 76 5 discriminator 5 view .LVU134
 485 0058 0420     		movs	r0, #4
 486 005a DCE7     		b	.L39
 487              	.LVL56:
 488              	.L53:
  76:../Switch/core/yt/yt_sys.c **** 
 489              		.loc 1 76 5 discriminator 3 view .LVU135
 490              	.LBB11:
  76:../Switch/core/yt/yt_sys.c **** 
 491              		.loc 1 76 5 discriminator 3 view .LVU136
 492 005c 054B     		ldr	r3, .L54+8
 493 005e 1A69     		ldr	r2, [r3, #16]
 494 0060 054B     		ldr	r3, .L54+12
 495 0062 9968     		ldr	r1, [r3, #8]
 496 0064 0548     		ldr	r0, .L54+16
 497              	.LVL57:
  76:../Switch/core/yt/yt_sys.c **** 
 498              		.loc 1 76 5 is_stmt 0 discriminator 3 view .LVU137
 499 0066 FFF7FEFF 		bl	osal_printf
 500              	.LVL58:
 501 006a F5E7     		b	.L46
 502              	.L55:
 503              		.align	2
 504              	.L54:
 505 006c 00000000 		.word	gpfal_dispatch
 506 0070 00000000 		.word	yt_debug_level
 507 0074 00000000 		.word	_yt_errmsg
 508 0078 00000000 		.word	_yt_prompt_msg
 509 007c 00000000 		.word	.LC0
 510              	.LBE11:
 511              		.cfi_endproc
 512              	.LFE5:
 514              		.section	.rodata.yt_sys_version_get.str1.4,"aMS",%progbits,1
 515              		.align	2
 516              	.LC1:
 517 0000 312E312E 		.ascii	"1.1.007.002\000"
 517      3030372E 
 517      30303200 
 518              		.section	.text.yt_sys_version_get,"ax",%progbits
 519              		.align	1
 520              		.global	yt_sys_version_get
 521              		.syntax unified
 522              		.thumb
 523              		.thumb_func
 525              	yt_sys_version_get:
 526              	.LVL59:
 527              	.LFB6:
  80:../Switch/core/yt/yt_sys.c **** 
  81:../Switch/core/yt/yt_sys.c **** /**
  82:../Switch/core/yt/yt_sys.c ****  * @internal      yt_sys_version_get
  83:../Switch/core/yt/yt_sys.c ****  * @endinternal
  84:../Switch/core/yt/yt_sys.c ****  *
  85:../Switch/core/yt/yt_sys.c ****  * @brief         Description
  86:../Switch/core/yt/yt_sys.c ****  * @note          APPLICABLE DEVICES  -Tiger
  87:../Switch/core/yt/yt_sys.c ****  * @param[in]     unit                -unit id
  88:../Switch/core/yt/yt_sys.c ****  * @param[out]   pVerStr                -version info in string format
  89:../Switch/core/yt/yt_sys.c ****  * @retval        CMM_ERR_OK          -on success
  90:../Switch/core/yt/yt_sys.c ****  * @retval        CMM_ERR_FAIL        -on fail
  91:../Switch/core/yt/yt_sys.c ****  */
  92:../Switch/core/yt/yt_sys.c **** yt_ret_t yt_sys_version_get(yt_unit_t unit, char *pVerStr)
  93:../Switch/core/yt/yt_sys.c **** {
 528              		.loc 1 93 1 is_stmt 1 view -0
 529              		.cfi_startproc
 530              		@ args = 0, pretend = 0, frame = 0
 531              		@ frame_needed = 0, uses_anonymous_args = 0
 532              		.loc 1 93 1 is_stmt 0 view .LVU139
 533 0000 08B5     		push	{r3, lr}
 534              		.cfi_def_cfa_offset 8
 535              		.cfi_offset 3, -8
 536              		.cfi_offset 14, -4
  94:../Switch/core/yt/yt_sys.c ****     CMM_UNUSED_PARAM(unit);
 537              		.loc 1 94 5 is_stmt 1 view .LVU140
  95:../Switch/core/yt/yt_sys.c **** 
  96:../Switch/core/yt/yt_sys.c ****     CMM_PARAM_CHK((NULL == pVerStr), CMM_ERR_NULL_POINT);
 538              		.loc 1 96 5 view .LVU141
 539              		.loc 1 96 5 view .LVU142
 540 0002 29B1     		cbz	r1, .L61
 541 0004 0846     		mov	r0, r1
 542              	.LVL60:
 543              		.loc 1 96 5 discriminator 2 view .LVU143
  97:../Switch/core/yt/yt_sys.c **** 
  98:../Switch/core/yt/yt_sys.c ****     osal_strcpy(pVerStr, YT_SDK_VERSION);
 544              		.loc 1 98 5 discriminator 2 view .LVU144
 545 0006 0949     		ldr	r1, .L63
 546              	.LVL61:
 547              		.loc 1 98 5 is_stmt 0 discriminator 2 view .LVU145
 548 0008 FFF7FEFF 		bl	osal_strcpy
 549              	.LVL62:
  99:../Switch/core/yt/yt_sys.c **** 
 100:../Switch/core/yt/yt_sys.c ****     return CMM_ERR_OK;
 550              		.loc 1 100 5 is_stmt 1 discriminator 2 view .LVU146
 551              		.loc 1 100 12 is_stmt 0 discriminator 2 view .LVU147
 552 000c 0020     		movs	r0, #0
 553              	.L56:
 101:../Switch/core/yt/yt_sys.c **** }
 554              		.loc 1 101 1 view .LVU148
 555 000e 08BD     		pop	{r3, pc}
 556              	.LVL63:
 557              	.L61:
  96:../Switch/core/yt/yt_sys.c **** 
 558              		.loc 1 96 5 is_stmt 1 discriminator 1 view .LVU149
  96:../Switch/core/yt/yt_sys.c **** 
 559              		.loc 1 96 5 discriminator 1 view .LVU150
 560 0010 074B     		ldr	r3, .L63+4
 561 0012 1B78     		ldrb	r3, [r3]	@ zero_extendqisi2
 562 0014 012B     		cmp	r3, #1
 563 0016 01D8     		bhi	.L62
 564              	.LVL64:
 565              	.L58:
  96:../Switch/core/yt/yt_sys.c **** 
 566              		.loc 1 96 5 discriminator 5 view .LVU151
  96:../Switch/core/yt/yt_sys.c **** 
 567              		.loc 1 96 5 discriminator 5 view .LVU152
  96:../Switch/core/yt/yt_sys.c **** 
 568              		.loc 1 96 5 discriminator 5 view .LVU153
 569 0018 0220     		movs	r0, #2
 570 001a F8E7     		b	.L56
 571              	.LVL65:
 572              	.L62:
  96:../Switch/core/yt/yt_sys.c **** 
 573              		.loc 1 96 5 discriminator 3 view .LVU154
 574              	.LBB12:
  96:../Switch/core/yt/yt_sys.c **** 
 575              		.loc 1 96 5 discriminator 3 view .LVU155
 576 001c 054B     		ldr	r3, .L63+8
 577 001e 9A68     		ldr	r2, [r3, #8]
 578 0020 054B     		ldr	r3, .L63+12
 579 0022 9968     		ldr	r1, [r3, #8]
 580              	.LVL66:
  96:../Switch/core/yt/yt_sys.c **** 
 581              		.loc 1 96 5 is_stmt 0 discriminator 3 view .LVU156
 582 0024 0548     		ldr	r0, .L63+16
 583              	.LVL67:
  96:../Switch/core/yt/yt_sys.c **** 
 584              		.loc 1 96 5 discriminator 3 view .LVU157
 585 0026 FFF7FEFF 		bl	osal_printf
 586              	.LVL68:
 587 002a F5E7     		b	.L58
 588              	.L64:
 589              		.align	2
 590              	.L63:
 591 002c 00000000 		.word	.LC1
 592 0030 00000000 		.word	yt_debug_level
 593 0034 00000000 		.word	_yt_errmsg
 594 0038 00000000 		.word	_yt_prompt_msg
 595 003c 00000000 		.word	.LC0
 596              	.LBE12:
 597              		.cfi_endproc
 598              	.LFE6:
 600              		.section	.text.yt_sys_register_value_get,"ax",%progbits
 601              		.align	1
 602              		.global	yt_sys_register_value_get
 603              		.syntax unified
 604              		.thumb
 605              		.thumb_func
 607              	yt_sys_register_value_get:
 608              	.LVL69:
 609              	.LFB7:
 102:../Switch/core/yt/yt_sys.c **** 
 103:../Switch/core/yt/yt_sys.c **** /**
 104:../Switch/core/yt/yt_sys.c ****  * @internal      yt_sys_register_value_get
 105:../Switch/core/yt/yt_sys.c ****  * @endinternal
 106:../Switch/core/yt/yt_sys.c ****  *
 107:../Switch/core/yt/yt_sys.c ****  * @brief         Description
 108:../Switch/core/yt/yt_sys.c ****  * @note          APPLICABLE DEVICES  -Tiger
 109:../Switch/core/yt/yt_sys.c ****  * @param[in]     unit                -unit id
 110:../Switch/core/yt/yt_sys.c ****  * @param[in]     regAddr          -register address
 111:../Switch/core/yt/yt_sys.c ****  * @param[out]   pVal                -register value
 112:../Switch/core/yt/yt_sys.c ****  * @retval        CMM_ERR_OK          -on success
 113:../Switch/core/yt/yt_sys.c ****  * @retval        CMM_ERR_FAIL        -on fail
 114:../Switch/core/yt/yt_sys.c ****  */
 115:../Switch/core/yt/yt_sys.c **** yt_ret_t yt_sys_register_value_get(yt_unit_t unit, uint32_t regAddr, uint32_t *pVal)
 116:../Switch/core/yt/yt_sys.c **** {
 610              		.loc 1 116 1 is_stmt 1 view -0
 611              		.cfi_startproc
 612              		@ args = 0, pretend = 0, frame = 0
 613              		@ frame_needed = 0, uses_anonymous_args = 0
 614              		.loc 1 116 1 is_stmt 0 view .LVU159
 615 0000 08B5     		push	{r3, lr}
 616              		.cfi_def_cfa_offset 8
 617              		.cfi_offset 3, -8
 618              		.cfi_offset 14, -4
 117:../Switch/core/yt/yt_sys.c ****     CMM_PARAM_CHK((YT_UNIT_NUM <= unit), CMM_ERR_INPUT);
 619              		.loc 1 117 5 is_stmt 1 view .LVU160
 620              		.loc 1 117 5 view .LVU161
 621 0002 18B9     		cbnz	r0, .L72
 622              		.loc 1 117 5 discriminator 2 view .LVU162
 118:../Switch/core/yt/yt_sys.c ****     CMM_PARAM_CHK((NULL == pVal), CMM_ERR_NULL_POINT);
 623              		.loc 1 118 5 discriminator 2 view .LVU163
 624              		.loc 1 118 5 discriminator 2 view .LVU164
 625 0004 82B1     		cbz	r2, .L73
 626              		.loc 1 118 5 discriminator 2 view .LVU165
 119:../Switch/core/yt/yt_sys.c **** 
 120:../Switch/core/yt/yt_sys.c ****     return HAL_MEM_DIRECT_READ(unit, regAddr, pVal);
 627              		.loc 1 120 5 discriminator 2 view .LVU166
 628              		.loc 1 120 12 is_stmt 0 discriminator 2 view .LVU167
 629 0006 FFF7FEFF 		bl	hal_mem32_read
 630              	.LVL70:
 631              	.L65:
 121:../Switch/core/yt/yt_sys.c **** }
 632              		.loc 1 121 1 view .LVU168
 633 000a 08BD     		pop	{r3, pc}
 634              	.LVL71:
 635              	.L72:
 117:../Switch/core/yt/yt_sys.c ****     CMM_PARAM_CHK((NULL == pVal), CMM_ERR_NULL_POINT);
 636              		.loc 1 117 5 is_stmt 1 discriminator 1 view .LVU169
 117:../Switch/core/yt/yt_sys.c ****     CMM_PARAM_CHK((NULL == pVal), CMM_ERR_NULL_POINT);
 637              		.loc 1 117 5 discriminator 1 view .LVU170
 638 000c 0D4B     		ldr	r3, .L76
 639 000e 1B78     		ldrb	r3, [r3]	@ zero_extendqisi2
 640 0010 012B     		cmp	r3, #1
 641 0012 01D8     		bhi	.L74
 642              	.LVL72:
 643              	.L67:
 117:../Switch/core/yt/yt_sys.c ****     CMM_PARAM_CHK((NULL == pVal), CMM_ERR_NULL_POINT);
 644              		.loc 1 117 5 discriminator 5 view .LVU171
 117:../Switch/core/yt/yt_sys.c ****     CMM_PARAM_CHK((NULL == pVal), CMM_ERR_NULL_POINT);
 645              		.loc 1 117 5 discriminator 5 view .LVU172
 117:../Switch/core/yt/yt_sys.c ****     CMM_PARAM_CHK((NULL == pVal), CMM_ERR_NULL_POINT);
 646              		.loc 1 117 5 discriminator 5 view .LVU173
 647 0014 0520     		movs	r0, #5
 648 0016 F8E7     		b	.L65
 649              	.LVL73:
 650              	.L74:
 117:../Switch/core/yt/yt_sys.c ****     CMM_PARAM_CHK((NULL == pVal), CMM_ERR_NULL_POINT);
 651              		.loc 1 117 5 discriminator 3 view .LVU174
 652              	.LBB13:
 117:../Switch/core/yt/yt_sys.c ****     CMM_PARAM_CHK((NULL == pVal), CMM_ERR_NULL_POINT);
 653              		.loc 1 117 5 discriminator 3 view .LVU175
 654 0018 0B4B     		ldr	r3, .L76+4
 655 001a 5A69     		ldr	r2, [r3, #20]
 656              	.LVL74:
 117:../Switch/core/yt/yt_sys.c ****     CMM_PARAM_CHK((NULL == pVal), CMM_ERR_NULL_POINT);
 657              		.loc 1 117 5 is_stmt 0 discriminator 3 view .LVU176
 658 001c 0B4B     		ldr	r3, .L76+8
 659 001e 9968     		ldr	r1, [r3, #8]
 660              	.LVL75:
 117:../Switch/core/yt/yt_sys.c ****     CMM_PARAM_CHK((NULL == pVal), CMM_ERR_NULL_POINT);
 661              		.loc 1 117 5 discriminator 3 view .LVU177
 662 0020 0B48     		ldr	r0, .L76+12
 663              	.LVL76:
 117:../Switch/core/yt/yt_sys.c ****     CMM_PARAM_CHK((NULL == pVal), CMM_ERR_NULL_POINT);
 664              		.loc 1 117 5 discriminator 3 view .LVU178
 665 0022 FFF7FEFF 		bl	osal_printf
 666              	.LVL77:
 667 0026 F5E7     		b	.L67
 668              	.LVL78:
 669              	.L73:
 117:../Switch/core/yt/yt_sys.c ****     CMM_PARAM_CHK((NULL == pVal), CMM_ERR_NULL_POINT);
 670              		.loc 1 117 5 discriminator 3 view .LVU179
 671              	.LBE13:
 118:../Switch/core/yt/yt_sys.c **** 
 672              		.loc 1 118 5 is_stmt 1 discriminator 1 view .LVU180
 118:../Switch/core/yt/yt_sys.c **** 
 673              		.loc 1 118 5 discriminator 1 view .LVU181
 674 0028 064B     		ldr	r3, .L76
 675 002a 1B78     		ldrb	r3, [r3]	@ zero_extendqisi2
 676 002c 012B     		cmp	r3, #1
 677 002e 01D8     		bhi	.L75
 678              	.LVL79:
 679              	.L70:
 118:../Switch/core/yt/yt_sys.c **** 
 680              		.loc 1 118 5 discriminator 5 view .LVU182
 118:../Switch/core/yt/yt_sys.c **** 
 681              		.loc 1 118 5 discriminator 5 view .LVU183
 118:../Switch/core/yt/yt_sys.c **** 
 682              		.loc 1 118 5 discriminator 5 view .LVU184
 683 0030 0220     		movs	r0, #2
 684 0032 EAE7     		b	.L65
 685              	.LVL80:
 686              	.L75:
 118:../Switch/core/yt/yt_sys.c **** 
 687              		.loc 1 118 5 discriminator 3 view .LVU185
 688              	.LBB14:
 118:../Switch/core/yt/yt_sys.c **** 
 689              		.loc 1 118 5 discriminator 3 view .LVU186
 690 0034 044B     		ldr	r3, .L76+4
 691 0036 9A68     		ldr	r2, [r3, #8]
 692              	.LVL81:
 118:../Switch/core/yt/yt_sys.c **** 
 693              		.loc 1 118 5 is_stmt 0 discriminator 3 view .LVU187
 694 0038 044B     		ldr	r3, .L76+8
 695 003a 9968     		ldr	r1, [r3, #8]
 696              	.LVL82:
 118:../Switch/core/yt/yt_sys.c **** 
 697              		.loc 1 118 5 discriminator 3 view .LVU188
 698 003c 0448     		ldr	r0, .L76+12
 699              	.LVL83:
 118:../Switch/core/yt/yt_sys.c **** 
 700              		.loc 1 118 5 discriminator 3 view .LVU189
 701 003e FFF7FEFF 		bl	osal_printf
 702              	.LVL84:
 703 0042 F5E7     		b	.L70
 704              	.L77:
 705              		.align	2
 706              	.L76:
 707 0044 00000000 		.word	yt_debug_level
 708 0048 00000000 		.word	_yt_errmsg
 709 004c 00000000 		.word	_yt_prompt_msg
 710 0050 00000000 		.word	.LC0
 711              	.LBE14:
 712              		.cfi_endproc
 713              	.LFE7:
 715              		.section	.text.yt_sys_register_value_set,"ax",%progbits
 716              		.align	1
 717              		.global	yt_sys_register_value_set
 718              		.syntax unified
 719              		.thumb
 720              		.thumb_func
 722              	yt_sys_register_value_set:
 723              	.LVL85:
 724              	.LFB8:
 122:../Switch/core/yt/yt_sys.c **** 
 123:../Switch/core/yt/yt_sys.c **** /**
 124:../Switch/core/yt/yt_sys.c ****  * @internal      yt_sys_register_value_set
 125:../Switch/core/yt/yt_sys.c ****  * @endinternal
 126:../Switch/core/yt/yt_sys.c ****  *
 127:../Switch/core/yt/yt_sys.c ****  * @brief         Description
 128:../Switch/core/yt/yt_sys.c ****  * @note          APPLICABLE DEVICES  -Tiger
 129:../Switch/core/yt/yt_sys.c ****  * @param[in]     unit                -unit id
 130:../Switch/core/yt/yt_sys.c ****  * @param[in]     regAddr          -register address
 131:../Switch/core/yt/yt_sys.c ****  * @param[in]     value              -register value
 132:../Switch/core/yt/yt_sys.c ****  * @retval        CMM_ERR_OK          -on success
 133:../Switch/core/yt/yt_sys.c ****  * @retval        CMM_ERR_FAIL        -on fail
 134:../Switch/core/yt/yt_sys.c ****  */
 135:../Switch/core/yt/yt_sys.c **** yt_ret_t yt_sys_register_value_set(yt_unit_t unit, uint32_t regAddr, uint32_t value)
 136:../Switch/core/yt/yt_sys.c **** {
 725              		.loc 1 136 1 is_stmt 1 view -0
 726              		.cfi_startproc
 727              		@ args = 0, pretend = 0, frame = 0
 728              		@ frame_needed = 0, uses_anonymous_args = 0
 729              		.loc 1 136 1 is_stmt 0 view .LVU191
 730 0000 08B5     		push	{r3, lr}
 731              		.cfi_def_cfa_offset 8
 732              		.cfi_offset 3, -8
 733              		.cfi_offset 14, -4
 137:../Switch/core/yt/yt_sys.c ****     CMM_PARAM_CHK((YT_UNIT_NUM <= unit), CMM_ERR_INPUT);
 734              		.loc 1 137 5 is_stmt 1 view .LVU192
 735              		.loc 1 137 5 view .LVU193
 736 0002 10B9     		cbnz	r0, .L83
 737              		.loc 1 137 5 discriminator 2 view .LVU194
 138:../Switch/core/yt/yt_sys.c **** 
 139:../Switch/core/yt/yt_sys.c ****     return HAL_MEM_DIRECT_WRITE(unit, regAddr, value);
 738              		.loc 1 139 5 discriminator 2 view .LVU195
 739              		.loc 1 139 12 is_stmt 0 discriminator 2 view .LVU196
 740 0004 FFF7FEFF 		bl	hal_mem32_write
 741              	.LVL86:
 742              	.L78:
 140:../Switch/core/yt/yt_sys.c **** }
 743              		.loc 1 140 1 view .LVU197
 744 0008 08BD     		pop	{r3, pc}
 745              	.LVL87:
 746              	.L83:
 137:../Switch/core/yt/yt_sys.c ****     CMM_PARAM_CHK((YT_UNIT_NUM <= unit), CMM_ERR_INPUT);
 747              		.loc 1 137 5 is_stmt 1 discriminator 1 view .LVU198
 137:../Switch/core/yt/yt_sys.c ****     CMM_PARAM_CHK((YT_UNIT_NUM <= unit), CMM_ERR_INPUT);
 748              		.loc 1 137 5 discriminator 1 view .LVU199
 749 000a 074B     		ldr	r3, .L85
 750 000c 1B78     		ldrb	r3, [r3]	@ zero_extendqisi2
 751 000e 012B     		cmp	r3, #1
 752 0010 01D8     		bhi	.L84
 753              	.LVL88:
 754              	.L80:
 137:../Switch/core/yt/yt_sys.c ****     CMM_PARAM_CHK((YT_UNIT_NUM <= unit), CMM_ERR_INPUT);
 755              		.loc 1 137 5 discriminator 5 view .LVU200
 137:../Switch/core/yt/yt_sys.c ****     CMM_PARAM_CHK((YT_UNIT_NUM <= unit), CMM_ERR_INPUT);
 756              		.loc 1 137 5 discriminator 5 view .LVU201
 137:../Switch/core/yt/yt_sys.c ****     CMM_PARAM_CHK((YT_UNIT_NUM <= unit), CMM_ERR_INPUT);
 757              		.loc 1 137 5 discriminator 5 view .LVU202
 758 0012 0520     		movs	r0, #5
 759 0014 F8E7     		b	.L78
 760              	.LVL89:
 761              	.L84:
 137:../Switch/core/yt/yt_sys.c ****     CMM_PARAM_CHK((YT_UNIT_NUM <= unit), CMM_ERR_INPUT);
 762              		.loc 1 137 5 discriminator 3 view .LVU203
 763              	.LBB15:
 137:../Switch/core/yt/yt_sys.c ****     CMM_PARAM_CHK((YT_UNIT_NUM <= unit), CMM_ERR_INPUT);
 764              		.loc 1 137 5 discriminator 3 view .LVU204
 765 0016 054B     		ldr	r3, .L85+4
 766 0018 5A69     		ldr	r2, [r3, #20]
 767              	.LVL90:
 137:../Switch/core/yt/yt_sys.c ****     CMM_PARAM_CHK((YT_UNIT_NUM <= unit), CMM_ERR_INPUT);
 768              		.loc 1 137 5 is_stmt 0 discriminator 3 view .LVU205
 769 001a 054B     		ldr	r3, .L85+8
 770 001c 9968     		ldr	r1, [r3, #8]
 771              	.LVL91:
 137:../Switch/core/yt/yt_sys.c ****     CMM_PARAM_CHK((YT_UNIT_NUM <= unit), CMM_ERR_INPUT);
 772              		.loc 1 137 5 discriminator 3 view .LVU206
 773 001e 0548     		ldr	r0, .L85+12
 774              	.LVL92:
 137:../Switch/core/yt/yt_sys.c ****     CMM_PARAM_CHK((YT_UNIT_NUM <= unit), CMM_ERR_INPUT);
 775              		.loc 1 137 5 discriminator 3 view .LVU207
 776 0020 FFF7FEFF 		bl	osal_printf
 777              	.LVL93:
 778 0024 F5E7     		b	.L80
 779              	.L86:
 780 0026 00BF     		.align	2
 781              	.L85:
 782 0028 00000000 		.word	yt_debug_level
 783 002c 00000000 		.word	_yt_errmsg
 784 0030 00000000 		.word	_yt_prompt_msg
 785 0034 00000000 		.word	.LC0
 786              	.LBE15:
 787              		.cfi_endproc
 788              	.LFE8:
 790              		.section	.text.yt_sys_chipInfo_get,"ax",%progbits
 791              		.align	1
 792              		.global	yt_sys_chipInfo_get
 793              		.syntax unified
 794              		.thumb
 795              		.thumb_func
 797              	yt_sys_chipInfo_get:
 798              	.LVL94:
 799              	.LFB9:
 141:../Switch/core/yt/yt_sys.c **** 
 142:../Switch/core/yt/yt_sys.c **** /**
 143:../Switch/core/yt/yt_sys.c ****  * @internal      yt_sys_chipInfo_get
 144:../Switch/core/yt/yt_sys.c ****  * @endinternal
 145:../Switch/core/yt/yt_sys.c ****  *
 146:../Switch/core/yt/yt_sys.c ****  * @brief         Description
 147:../Switch/core/yt/yt_sys.c ****  * @note          APPLICABLE DEVICES  -Tiger
 148:../Switch/core/yt/yt_sys.c ****  * @param[in]     unit                -unit id
 149:../Switch/core/yt/yt_sys.c ****  * @param[out]    pChip               -x
 150:../Switch/core/yt/yt_sys.c ****  * @retval        CMM_ERR_OK          -on success
 151:../Switch/core/yt/yt_sys.c ****  * @retval        CMM_ERR_FAIL        -on fail
 152:../Switch/core/yt/yt_sys.c ****  */
 153:../Switch/core/yt/yt_sys.c **** yt_ret_t yt_sys_chipInfo_get(yt_unit_t unit, yt_switch_chip_t *pChip)
 154:../Switch/core/yt/yt_sys.c **** {
 800              		.loc 1 154 1 is_stmt 1 view -0
 801              		.cfi_startproc
 802              		@ args = 0, pretend = 0, frame = 0
 803              		@ frame_needed = 0, uses_anonymous_args = 0
 804              		.loc 1 154 1 is_stmt 0 view .LVU209
 805 0000 08B5     		push	{r3, lr}
 806              		.cfi_def_cfa_offset 8
 807              		.cfi_offset 3, -8
 808              		.cfi_offset 14, -4
 155:../Switch/core/yt/yt_sys.c ****     CMM_PARAM_CHK((YT_UNIT_NUM <= unit), CMM_ERR_INPUT);
 809              		.loc 1 155 5 is_stmt 1 view .LVU210
 810              		.loc 1 155 5 view .LVU211
 811 0002 68B9     		cbnz	r0, .L98
 812 0004 0246     		mov	r2, r0
 813              		.loc 1 155 5 discriminator 2 view .LVU212
 156:../Switch/core/yt/yt_sys.c ****     CMM_PARAM_CHK(NULL == YT_DISPATCH(unit), CMM_ERR_NOT_INIT);
 814              		.loc 1 156 5 discriminator 2 view .LVU213
 815              		.loc 1 156 5 discriminator 2 view .LVU214
 816 0006 224B     		ldr	r3, .L106
 817 0008 53F82030 		ldr	r3, [r3, r0, lsl #2]
 818 000c B3B1     		cbz	r3, .L99
 819              		.loc 1 156 5 discriminator 2 view .LVU215
 157:../Switch/core/yt/yt_sys.c ****     CMM_PARAM_CHK((!(YT_DISPATCH(unit)->is_inited)), CMM_ERR_NOT_INIT);
 820              		.loc 1 157 5 discriminator 2 view .LVU216
 821              		.loc 1 157 5 discriminator 2 view .LVU217
 822 000e 1878     		ldrb	r0, [r3]	@ zero_extendqisi2
 823              	.LVL95:
 824              		.loc 1 157 5 is_stmt 0 discriminator 2 view .LVU218
 825 0010 10B3     		cbz	r0, .L100
 826              		.loc 1 157 5 is_stmt 1 discriminator 2 view .LVU219
 158:../Switch/core/yt/yt_sys.c ****     CMM_PARAM_CHK((NULL == pChip), CMM_ERR_NULL_POINT);
 827              		.loc 1 158 5 discriminator 2 view .LVU220
 828              		.loc 1 158 5 discriminator 2 view .LVU221
 829 0012 0029     		cmp	r1, #0
 830 0014 2ED0     		beq	.L101
 831              		.loc 1 158 5 discriminator 2 view .LVU222
 159:../Switch/core/yt/yt_sys.c **** 
 160:../Switch/core/yt/yt_sys.c ****     return YT_DISPATCH(unit)->sys_chipInfo_get(unit, pChip);
 832              		.loc 1 160 5 discriminator 2 view .LVU223
 833              		.loc 1 160 29 is_stmt 0 discriminator 2 view .LVU224
 834 0016 D3F84C35 		ldr	r3, [r3, #1356]
 835              		.loc 1 160 12 discriminator 2 view .LVU225
 836 001a 1046     		mov	r0, r2
 837 001c 9847     		blx	r3
 838              	.LVL96:
 839              	.L87:
 161:../Switch/core/yt/yt_sys.c **** }
 840              		.loc 1 161 1 view .LVU226
 841 001e 08BD     		pop	{r3, pc}
 842              	.LVL97:
 843              	.L98:
 155:../Switch/core/yt/yt_sys.c ****     CMM_PARAM_CHK(NULL == YT_DISPATCH(unit), CMM_ERR_NOT_INIT);
 844              		.loc 1 155 5 is_stmt 1 discriminator 1 view .LVU227
 155:../Switch/core/yt/yt_sys.c ****     CMM_PARAM_CHK(NULL == YT_DISPATCH(unit), CMM_ERR_NOT_INIT);
 845              		.loc 1 155 5 discriminator 1 view .LVU228
 846 0020 1C4B     		ldr	r3, .L106+4
 847 0022 1B78     		ldrb	r3, [r3]	@ zero_extendqisi2
 848 0024 012B     		cmp	r3, #1
 849 0026 01D8     		bhi	.L102
 850              	.LVL98:
 851              	.L89:
 155:../Switch/core/yt/yt_sys.c ****     CMM_PARAM_CHK(NULL == YT_DISPATCH(unit), CMM_ERR_NOT_INIT);
 852              		.loc 1 155 5 discriminator 5 view .LVU229
 155:../Switch/core/yt/yt_sys.c ****     CMM_PARAM_CHK(NULL == YT_DISPATCH(unit), CMM_ERR_NOT_INIT);
 853              		.loc 1 155 5 discriminator 5 view .LVU230
 155:../Switch/core/yt/yt_sys.c ****     CMM_PARAM_CHK(NULL == YT_DISPATCH(unit), CMM_ERR_NOT_INIT);
 854              		.loc 1 155 5 discriminator 5 view .LVU231
 855 0028 0520     		movs	r0, #5
 856 002a F8E7     		b	.L87
 857              	.LVL99:
 858              	.L102:
 155:../Switch/core/yt/yt_sys.c ****     CMM_PARAM_CHK(NULL == YT_DISPATCH(unit), CMM_ERR_NOT_INIT);
 859              		.loc 1 155 5 discriminator 3 view .LVU232
 860              	.LBB16:
 155:../Switch/core/yt/yt_sys.c ****     CMM_PARAM_CHK(NULL == YT_DISPATCH(unit), CMM_ERR_NOT_INIT);
 861              		.loc 1 155 5 discriminator 3 view .LVU233
 862 002c 1A4B     		ldr	r3, .L106+8
 863 002e 5A69     		ldr	r2, [r3, #20]
 864 0030 1A4B     		ldr	r3, .L106+12
 865 0032 9968     		ldr	r1, [r3, #8]
 866              	.LVL100:
 155:../Switch/core/yt/yt_sys.c ****     CMM_PARAM_CHK(NULL == YT_DISPATCH(unit), CMM_ERR_NOT_INIT);
 867              		.loc 1 155 5 is_stmt 0 discriminator 3 view .LVU234
 868 0034 1A48     		ldr	r0, .L106+16
 869              	.LVL101:
 155:../Switch/core/yt/yt_sys.c ****     CMM_PARAM_CHK(NULL == YT_DISPATCH(unit), CMM_ERR_NOT_INIT);
 870              		.loc 1 155 5 discriminator 3 view .LVU235
 871 0036 FFF7FEFF 		bl	osal_printf
 872              	.LVL102:
 873 003a F5E7     		b	.L89
 874              	.LVL103:
 875              	.L99:
 155:../Switch/core/yt/yt_sys.c ****     CMM_PARAM_CHK(NULL == YT_DISPATCH(unit), CMM_ERR_NOT_INIT);
 876              		.loc 1 155 5 discriminator 3 view .LVU236
 877              	.LBE16:
 156:../Switch/core/yt/yt_sys.c ****     CMM_PARAM_CHK((!(YT_DISPATCH(unit)->is_inited)), CMM_ERR_NOT_INIT);
 878              		.loc 1 156 5 is_stmt 1 discriminator 1 view .LVU237
 156:../Switch/core/yt/yt_sys.c ****     CMM_PARAM_CHK((!(YT_DISPATCH(unit)->is_inited)), CMM_ERR_NOT_INIT);
 879              		.loc 1 156 5 discriminator 1 view .LVU238
 880 003c 154B     		ldr	r3, .L106+4
 881 003e 1B78     		ldrb	r3, [r3]	@ zero_extendqisi2
 882 0040 012B     		cmp	r3, #1
 883 0042 01D8     		bhi	.L103
 884              	.LVL104:
 885              	.L92:
 156:../Switch/core/yt/yt_sys.c ****     CMM_PARAM_CHK((!(YT_DISPATCH(unit)->is_inited)), CMM_ERR_NOT_INIT);
 886              		.loc 1 156 5 discriminator 5 view .LVU239
 156:../Switch/core/yt/yt_sys.c ****     CMM_PARAM_CHK((!(YT_DISPATCH(unit)->is_inited)), CMM_ERR_NOT_INIT);
 887              		.loc 1 156 5 discriminator 5 view .LVU240
 156:../Switch/core/yt/yt_sys.c ****     CMM_PARAM_CHK((!(YT_DISPATCH(unit)->is_inited)), CMM_ERR_NOT_INIT);
 888              		.loc 1 156 5 discriminator 5 view .LVU241
 889 0044 0420     		movs	r0, #4
 890 0046 EAE7     		b	.L87
 891              	.LVL105:
 892              	.L103:
 156:../Switch/core/yt/yt_sys.c ****     CMM_PARAM_CHK((!(YT_DISPATCH(unit)->is_inited)), CMM_ERR_NOT_INIT);
 893              		.loc 1 156 5 discriminator 3 view .LVU242
 894              	.LBB17:
 156:../Switch/core/yt/yt_sys.c ****     CMM_PARAM_CHK((!(YT_DISPATCH(unit)->is_inited)), CMM_ERR_NOT_INIT);
 895              		.loc 1 156 5 discriminator 3 view .LVU243
 896 0048 134B     		ldr	r3, .L106+8
 897 004a 1A69     		ldr	r2, [r3, #16]
 898 004c 134B     		ldr	r3, .L106+12
 899 004e 9968     		ldr	r1, [r3, #8]
 900              	.LVL106:
 156:../Switch/core/yt/yt_sys.c ****     CMM_PARAM_CHK((!(YT_DISPATCH(unit)->is_inited)), CMM_ERR_NOT_INIT);
 901              		.loc 1 156 5 is_stmt 0 discriminator 3 view .LVU244
 902 0050 1348     		ldr	r0, .L106+16
 903              	.LVL107:
 156:../Switch/core/yt/yt_sys.c ****     CMM_PARAM_CHK((!(YT_DISPATCH(unit)->is_inited)), CMM_ERR_NOT_INIT);
 904              		.loc 1 156 5 discriminator 3 view .LVU245
 905 0052 FFF7FEFF 		bl	osal_printf
 906              	.LVL108:
 907 0056 F5E7     		b	.L92
 908              	.LVL109:
 909              	.L100:
 156:../Switch/core/yt/yt_sys.c ****     CMM_PARAM_CHK((!(YT_DISPATCH(unit)->is_inited)), CMM_ERR_NOT_INIT);
 910              		.loc 1 156 5 discriminator 3 view .LVU246
 911              	.LBE17:
 157:../Switch/core/yt/yt_sys.c ****     CMM_PARAM_CHK((NULL == pChip), CMM_ERR_NULL_POINT);
 912              		.loc 1 157 5 is_stmt 1 discriminator 1 view .LVU247
 157:../Switch/core/yt/yt_sys.c ****     CMM_PARAM_CHK((NULL == pChip), CMM_ERR_NULL_POINT);
 913              		.loc 1 157 5 discriminator 1 view .LVU248
 914 0058 0E4B     		ldr	r3, .L106+4
 915 005a 1B78     		ldrb	r3, [r3]	@ zero_extendqisi2
 916 005c 012B     		cmp	r3, #1
 917 005e 01D8     		bhi	.L104
 918              	.LVL110:
 919              	.L94:
 157:../Switch/core/yt/yt_sys.c ****     CMM_PARAM_CHK((NULL == pChip), CMM_ERR_NULL_POINT);
 920              		.loc 1 157 5 discriminator 5 view .LVU249
 157:../Switch/core/yt/yt_sys.c ****     CMM_PARAM_CHK((NULL == pChip), CMM_ERR_NULL_POINT);
 921              		.loc 1 157 5 discriminator 5 view .LVU250
 157:../Switch/core/yt/yt_sys.c ****     CMM_PARAM_CHK((NULL == pChip), CMM_ERR_NULL_POINT);
 922              		.loc 1 157 5 discriminator 5 view .LVU251
 923 0060 0420     		movs	r0, #4
 924 0062 DCE7     		b	.L87
 925              	.LVL111:
 926              	.L104:
 157:../Switch/core/yt/yt_sys.c ****     CMM_PARAM_CHK((NULL == pChip), CMM_ERR_NULL_POINT);
 927              		.loc 1 157 5 discriminator 3 view .LVU252
 928              	.LBB18:
 157:../Switch/core/yt/yt_sys.c ****     CMM_PARAM_CHK((NULL == pChip), CMM_ERR_NULL_POINT);
 929              		.loc 1 157 5 discriminator 3 view .LVU253
 930 0064 0C4B     		ldr	r3, .L106+8
 931 0066 1A69     		ldr	r2, [r3, #16]
 932 0068 0C4B     		ldr	r3, .L106+12
 933 006a 9968     		ldr	r1, [r3, #8]
 934              	.LVL112:
 157:../Switch/core/yt/yt_sys.c ****     CMM_PARAM_CHK((NULL == pChip), CMM_ERR_NULL_POINT);
 935              		.loc 1 157 5 is_stmt 0 discriminator 3 view .LVU254
 936 006c 0C48     		ldr	r0, .L106+16
 937 006e FFF7FEFF 		bl	osal_printf
 938              	.LVL113:
 939 0072 F5E7     		b	.L94
 940              	.LVL114:
 941              	.L101:
 157:../Switch/core/yt/yt_sys.c ****     CMM_PARAM_CHK((NULL == pChip), CMM_ERR_NULL_POINT);
 942              		.loc 1 157 5 discriminator 3 view .LVU255
 943              	.LBE18:
 158:../Switch/core/yt/yt_sys.c **** 
 944              		.loc 1 158 5 is_stmt 1 discriminator 1 view .LVU256
 158:../Switch/core/yt/yt_sys.c **** 
 945              		.loc 1 158 5 discriminator 1 view .LVU257
 946 0074 074B     		ldr	r3, .L106+4
 947 0076 1B78     		ldrb	r3, [r3]	@ zero_extendqisi2
 948 0078 012B     		cmp	r3, #1
 949 007a 01D8     		bhi	.L105
 950              	.LVL115:
 951              	.L96:
 158:../Switch/core/yt/yt_sys.c **** 
 952              		.loc 1 158 5 discriminator 5 view .LVU258
 158:../Switch/core/yt/yt_sys.c **** 
 953              		.loc 1 158 5 discriminator 5 view .LVU259
 158:../Switch/core/yt/yt_sys.c **** 
 954              		.loc 1 158 5 discriminator 5 view .LVU260
 955 007c 0220     		movs	r0, #2
 956 007e CEE7     		b	.L87
 957              	.LVL116:
 958              	.L105:
 158:../Switch/core/yt/yt_sys.c **** 
 959              		.loc 1 158 5 discriminator 3 view .LVU261
 960              	.LBB19:
 158:../Switch/core/yt/yt_sys.c **** 
 961              		.loc 1 158 5 discriminator 3 view .LVU262
 962 0080 054B     		ldr	r3, .L106+8
 963 0082 9A68     		ldr	r2, [r3, #8]
 964 0084 054B     		ldr	r3, .L106+12
 965 0086 9968     		ldr	r1, [r3, #8]
 966              	.LVL117:
 158:../Switch/core/yt/yt_sys.c **** 
 967              		.loc 1 158 5 is_stmt 0 discriminator 3 view .LVU263
 968 0088 0548     		ldr	r0, .L106+16
 969 008a FFF7FEFF 		bl	osal_printf
 970              	.LVL118:
 971 008e F5E7     		b	.L96
 972              	.L107:
 973              		.align	2
 974              	.L106:
 975 0090 00000000 		.word	gpfal_dispatch
 976 0094 00000000 		.word	yt_debug_level
 977 0098 00000000 		.word	_yt_errmsg
 978 009c 00000000 		.word	_yt_prompt_msg
 979 00a0 00000000 		.word	.LC0
 980              	.LBE19:
 981              		.cfi_endproc
 982              	.LFE9:
 984              		.text
 985              	.Letext0:
 986              		.file 2 "C:\\Users\\Dmitriy\\Desktop\\GD32F10x\\Switch\\common\\include/yt_types.h"
 987              		.file 3 "C:\\Users\\Dmitriy\\Desktop\\GD32F10x\\Switch\\common\\include/yt_error.h"
 988              		.file 4 "C:\\Users\\Dmitriy\\Desktop\\GD32F10x\\Switch\\core\\cal/cal_bprofile.h"
 989              		.file 5 "C:\\Users\\Dmitriy\\Desktop\\GD32F10x\\Switch\\include/yt_cmm.h"
 990              		.file 6 "C:\\Users\\Dmitriy\\Desktop\\GD32F10x\\Switch\\include/yt_sys.h"
 991              		.file 7 "C:\\Users\\Dmitriy\\Desktop\\GD32F10x\\Switch\\include/yt_vlan.h"
 992              		.file 8 "C:\\Users\\Dmitriy\\Desktop\\GD32F10x\\Switch\\include/yt_vlan_translate.h"
 993              		.file 9 "C:\\Users\\Dmitriy\\Desktop\\GD32F10x\\Switch\\include/yt_acl.h"
 994              		.file 10 "C:\\Users\\Dmitriy\\Desktop\\GD32F10x\\Switch\\include/yt_qos.h"
 995              		.file 11 "C:\\Users\\Dmitriy\\Desktop\\GD32F10x\\Switch\\include/yt_rate.h"
 996              		.file 12 "C:\\Users\\Dmitriy\\Desktop\\GD32F10x\\Switch\\include/yt_dos.h"
 997              		.file 13 "C:\\Users\\Dmitriy\\Desktop\\GD32F10x\\Switch\\include/yt_nic.h"
 998              		.file 14 "C:\\Users\\Dmitriy\\Desktop\\GD32F10x\\Switch\\include/yt_stp.h"
 999              		.file 15 "C:\\Users\\Dmitriy\\Desktop\\GD32F10x\\Switch\\include/yt_l2.h"
 1000              		.file 16 "C:\\Users\\Dmitriy\\Desktop\\GD32F10x\\Switch\\include/yt_loopdetect.h"
 1001              		.file 17 "C:\\Users\\Dmitriy\\Desktop\\GD32F10x\\Switch\\include/yt_multicast.h"
 1002              		.file 18 "C:\\Users\\Dmitriy\\Desktop\\GD32F10x\\Switch\\include/yt_rma.h"
 1003              		.file 19 "C:\\Users\\Dmitriy\\Desktop\\GD32F10x\\Switch\\include/yt_oam.h"
 1004              		.file 20 "C:\\Users\\Dmitriy\\Desktop\\GD32F10x\\Switch\\include/yt_storm_ctrl.h"
 1005              		.file 21 "C:\\Users\\Dmitriy\\Desktop\\GD32F10x\\Switch\\include/yt_port.h"
 1006              		.file 22 "C:\\Users\\Dmitriy\\Desktop\\GD32F10x\\Switch\\include/yt_dot1x.h"
 1007              		.file 23 "C:\\Users\\Dmitriy\\Desktop\\GD32F10x\\Switch\\include/yt_ctrlpkt.h"
 1008              		.file 24 "C:\\Users\\Dmitriy\\Desktop\\GD32F10x\\Switch\\include/yt_stat.h"
 1009              		.file 25 "C:\\Users\\Dmitriy\\Desktop\\GD32F10x\\Switch\\include/yt_interrupt.h"
 1010              		.file 26 "C:\\Users\\Dmitriy\\Desktop\\GD32F10x\\Switch\\include/yt_led.h"
 1011              		.file 27 "C:\\Users\\Dmitriy\\Desktop\\GD32F10x\\Switch\\include/yt_debug.h"
 1012              		.file 28 "C:\\Users\\Dmitriy\\Desktop\\GD32F10x\\Switch\\core\\fal/fal_dispatch.h"
 1013              		.file 29 "C:\\Users\\Dmitriy\\Desktop\\GD32F10x\\Switch\\core\\hal/hal_mem.h"