   1              		.cpu cortex-m3
   2              		.arch armv7-m
   3              		.fpu softvfp
   4              		.eabi_attribute 20, 1
   5              		.eabi_attribute 21, 1
   6              		.eabi_attribute 23, 3
   7              		.eabi_attribute 24, 1
   8              		.eabi_attribute 25, 1
   9              		.eabi_attribute 26, 1
  10              		.eabi_attribute 30, 1
  11              		.eabi_attribute 34, 1
  12              		.eabi_attribute 18, 4
  13              		.file	"yt_storm_ctrl.c"
  14              		.text
  15              	.Ltext0:
  16              		.cfi_sections	.debug_frame
  17              		.file 1 "../Switch/core/yt/yt_storm_ctrl.c"
  18              		.section	.rodata.yt_storm_ctrl_init.str1.4,"aMS",%progbits,1
  19              		.align	2
  20              	.LC0:
  21 0000 25732573 		.ascii	"%s%s\015\012\000"
  21      0D0A00
  22              		.section	.text.yt_storm_ctrl_init,"ax",%progbits
  23              		.align	1
  24              		.global	yt_storm_ctrl_init
  25              		.syntax unified
  26              		.thumb
  27              		.thumb_func
  29              	yt_storm_ctrl_init:
  30              	.LVL0:
  31              	.LFB3:
   1:../Switch/core/yt/yt_storm_ctrl.c **** /*******************************************************************************
   2:../Switch/core/yt/yt_storm_ctrl.c **** *                                                                              *
   3:../Switch/core/yt/yt_storm_ctrl.c **** *  Copyright (c), 2022, Motorcomm Electronic Technology Co.,Ltd.               *
   4:../Switch/core/yt/yt_storm_ctrl.c **** *  Motorcomm Confidential and Proprietary.                                     *
   5:../Switch/core/yt/yt_storm_ctrl.c **** *                                                                              *
   6:../Switch/core/yt/yt_storm_ctrl.c **** ********************************************************************************
   7:../Switch/core/yt/yt_storm_ctrl.c **** */
   8:../Switch/core/yt/yt_storm_ctrl.c **** /**
   9:../Switch/core/yt/yt_storm_ctrl.c **** ********************************************************************************
  10:../Switch/core/yt/yt_storm_ctrl.c **** * @file yt_storm_ctrl.c
  11:../Switch/core/yt/yt_storm_ctrl.c **** *
  12:../Switch/core/yt/yt_storm_ctrl.c **** * @brief x
  13:../Switch/core/yt/yt_storm_ctrl.c **** *
  14:../Switch/core/yt/yt_storm_ctrl.c **** ********************************************************************************
  15:../Switch/core/yt/yt_storm_ctrl.c **** */
  16:../Switch/core/yt/yt_storm_ctrl.c **** #include "yt_storm_ctrl.h"
  17:../Switch/core/yt/yt_storm_ctrl.c **** #include "fal_dispatch.h"
  18:../Switch/core/yt/yt_storm_ctrl.c **** 
  19:../Switch/core/yt/yt_storm_ctrl.c **** 
  20:../Switch/core/yt/yt_storm_ctrl.c **** /**
  21:../Switch/core/yt/yt_storm_ctrl.c ****  * @internal      yt_storm_ctrl_init
  22:../Switch/core/yt/yt_storm_ctrl.c ****  * @endinternal
  23:../Switch/core/yt/yt_storm_ctrl.c ****  *
  24:../Switch/core/yt/yt_storm_ctrl.c ****  * @brief         Description
  25:../Switch/core/yt/yt_storm_ctrl.c ****  * @param[in]     unit                -unit id
  26:../Switch/core/yt/yt_storm_ctrl.c ****  * @retval        CMM_ERR_OK          -on success
  27:../Switch/core/yt/yt_storm_ctrl.c ****  * @retval        CMM_ERR_FAIL        -on fail
  28:../Switch/core/yt/yt_storm_ctrl.c ****  */
  29:../Switch/core/yt/yt_storm_ctrl.c **** yt_ret_t yt_storm_ctrl_init(yt_unit_t unit)
  30:../Switch/core/yt/yt_storm_ctrl.c **** {
  32              		.loc 1 30 1 view -0
  33              		.cfi_startproc
  34              		@ args = 0, pretend = 0, frame = 0
  35              		@ frame_needed = 0, uses_anonymous_args = 0
  36              		.loc 1 30 1 is_stmt 0 view .LVU1
  37 0000 08B5     		push	{r3, lr}
  38              		.cfi_def_cfa_offset 8
  39              		.cfi_offset 3, -8
  40              		.cfi_offset 14, -4
  31:../Switch/core/yt/yt_storm_ctrl.c ****     CMM_PARAM_CHK((YT_UNIT_NUM <= unit), CMM_ERR_INPUT);
  41              		.loc 1 31 5 is_stmt 1 view .LVU2
  42              		.loc 1 31 5 view .LVU3
  43 0002 48B9     		cbnz	r0, .L10
  44              		.loc 1 31 5 discriminator 2 view .LVU4
  32:../Switch/core/yt/yt_storm_ctrl.c ****     CMM_PARAM_CHK(NULL == YT_DISPATCH(unit), CMM_ERR_NOT_INIT);
  45              		.loc 1 32 5 discriminator 2 view .LVU5
  46              		.loc 1 32 5 discriminator 2 view .LVU6
  47 0004 194B     		ldr	r3, .L16
  48 0006 53F82030 		ldr	r3, [r3, r0, lsl #2]
  49 000a 9BB1     		cbz	r3, .L11
  50              		.loc 1 32 5 discriminator 2 view .LVU7
  33:../Switch/core/yt/yt_storm_ctrl.c ****     CMM_PARAM_CHK((!(YT_DISPATCH(unit)->is_inited)), CMM_ERR_NOT_INIT);
  51              		.loc 1 33 5 discriminator 2 view .LVU8
  52              		.loc 1 33 5 discriminator 2 view .LVU9
  53 000c 1978     		ldrb	r1, [r3]	@ zero_extendqisi2
  54 000e F9B1     		cbz	r1, .L12
  55              		.loc 1 33 5 discriminator 2 view .LVU10
  34:../Switch/core/yt/yt_storm_ctrl.c **** 
  35:../Switch/core/yt/yt_storm_ctrl.c ****     return YT_DISPATCH(unit)->storm_ctrl_init(unit);
  56              		.loc 1 35 5 discriminator 2 view .LVU11
  57              		.loc 1 35 29 is_stmt 0 discriminator 2 view .LVU12
  58 0010 D3F80833 		ldr	r3, [r3, #776]
  59              		.loc 1 35 12 discriminator 2 view .LVU13
  60 0014 9847     		blx	r3
  61              	.LVL1:
  62              	.L1:
  36:../Switch/core/yt/yt_storm_ctrl.c **** }
  63              		.loc 1 36 1 view .LVU14
  64 0016 08BD     		pop	{r3, pc}
  65              	.LVL2:
  66              	.L10:
  31:../Switch/core/yt/yt_storm_ctrl.c ****     CMM_PARAM_CHK(NULL == YT_DISPATCH(unit), CMM_ERR_NOT_INIT);
  67              		.loc 1 31 5 is_stmt 1 discriminator 1 view .LVU15
  31:../Switch/core/yt/yt_storm_ctrl.c ****     CMM_PARAM_CHK(NULL == YT_DISPATCH(unit), CMM_ERR_NOT_INIT);
  68              		.loc 1 31 5 discriminator 1 view .LVU16
  69 0018 154B     		ldr	r3, .L16+4
  70 001a 1B78     		ldrb	r3, [r3]	@ zero_extendqisi2
  71 001c 012B     		cmp	r3, #1
  72 001e 01D8     		bhi	.L13
  73              	.LVL3:
  74              	.L3:
  31:../Switch/core/yt/yt_storm_ctrl.c ****     CMM_PARAM_CHK(NULL == YT_DISPATCH(unit), CMM_ERR_NOT_INIT);
  75              		.loc 1 31 5 discriminator 5 view .LVU17
  31:../Switch/core/yt/yt_storm_ctrl.c ****     CMM_PARAM_CHK(NULL == YT_DISPATCH(unit), CMM_ERR_NOT_INIT);
  76              		.loc 1 31 5 discriminator 5 view .LVU18
  31:../Switch/core/yt/yt_storm_ctrl.c ****     CMM_PARAM_CHK(NULL == YT_DISPATCH(unit), CMM_ERR_NOT_INIT);
  77              		.loc 1 31 5 discriminator 5 view .LVU19
  78 0020 0520     		movs	r0, #5
  79 0022 F8E7     		b	.L1
  80              	.LVL4:
  81              	.L13:
  31:../Switch/core/yt/yt_storm_ctrl.c ****     CMM_PARAM_CHK(NULL == YT_DISPATCH(unit), CMM_ERR_NOT_INIT);
  82              		.loc 1 31 5 discriminator 3 view .LVU20
  83              	.LBB2:
  31:../Switch/core/yt/yt_storm_ctrl.c ****     CMM_PARAM_CHK(NULL == YT_DISPATCH(unit), CMM_ERR_NOT_INIT);
  84              		.loc 1 31 5 discriminator 3 view .LVU21
  85 0024 134B     		ldr	r3, .L16+8
  86 0026 5A69     		ldr	r2, [r3, #20]
  87 0028 134B     		ldr	r3, .L16+12
  88 002a 9968     		ldr	r1, [r3, #8]
  89 002c 1348     		ldr	r0, .L16+16
  90              	.LVL5:
  31:../Switch/core/yt/yt_storm_ctrl.c ****     CMM_PARAM_CHK(NULL == YT_DISPATCH(unit), CMM_ERR_NOT_INIT);
  91              		.loc 1 31 5 is_stmt 0 discriminator 3 view .LVU22
  92 002e FFF7FEFF 		bl	osal_printf
  93              	.LVL6:
  94 0032 F5E7     		b	.L3
  95              	.LVL7:
  96              	.L11:
  31:../Switch/core/yt/yt_storm_ctrl.c ****     CMM_PARAM_CHK(NULL == YT_DISPATCH(unit), CMM_ERR_NOT_INIT);
  97              		.loc 1 31 5 discriminator 3 view .LVU23
  98              	.LBE2:
  32:../Switch/core/yt/yt_storm_ctrl.c ****     CMM_PARAM_CHK((!(YT_DISPATCH(unit)->is_inited)), CMM_ERR_NOT_INIT);
  99              		.loc 1 32 5 is_stmt 1 discriminator 1 view .LVU24
  32:../Switch/core/yt/yt_storm_ctrl.c ****     CMM_PARAM_CHK((!(YT_DISPATCH(unit)->is_inited)), CMM_ERR_NOT_INIT);
 100              		.loc 1 32 5 discriminator 1 view .LVU25
 101 0034 0E4B     		ldr	r3, .L16+4
 102 0036 1B78     		ldrb	r3, [r3]	@ zero_extendqisi2
 103 0038 012B     		cmp	r3, #1
 104 003a 01D8     		bhi	.L14
 105              	.LVL8:
 106              	.L6:
  32:../Switch/core/yt/yt_storm_ctrl.c ****     CMM_PARAM_CHK((!(YT_DISPATCH(unit)->is_inited)), CMM_ERR_NOT_INIT);
 107              		.loc 1 32 5 discriminator 5 view .LVU26
  32:../Switch/core/yt/yt_storm_ctrl.c ****     CMM_PARAM_CHK((!(YT_DISPATCH(unit)->is_inited)), CMM_ERR_NOT_INIT);
 108              		.loc 1 32 5 discriminator 5 view .LVU27
  32:../Switch/core/yt/yt_storm_ctrl.c ****     CMM_PARAM_CHK((!(YT_DISPATCH(unit)->is_inited)), CMM_ERR_NOT_INIT);
 109              		.loc 1 32 5 discriminator 5 view .LVU28
 110 003c 0420     		movs	r0, #4
 111 003e EAE7     		b	.L1
 112              	.LVL9:
 113              	.L14:
  32:../Switch/core/yt/yt_storm_ctrl.c ****     CMM_PARAM_CHK((!(YT_DISPATCH(unit)->is_inited)), CMM_ERR_NOT_INIT);
 114              		.loc 1 32 5 discriminator 3 view .LVU29
 115              	.LBB3:
  32:../Switch/core/yt/yt_storm_ctrl.c ****     CMM_PARAM_CHK((!(YT_DISPATCH(unit)->is_inited)), CMM_ERR_NOT_INIT);
 116              		.loc 1 32 5 discriminator 3 view .LVU30
 117 0040 0C4B     		ldr	r3, .L16+8
 118 0042 1A69     		ldr	r2, [r3, #16]
 119 0044 0C4B     		ldr	r3, .L16+12
 120 0046 9968     		ldr	r1, [r3, #8]
 121 0048 0C48     		ldr	r0, .L16+16
 122              	.LVL10:
  32:../Switch/core/yt/yt_storm_ctrl.c ****     CMM_PARAM_CHK((!(YT_DISPATCH(unit)->is_inited)), CMM_ERR_NOT_INIT);
 123              		.loc 1 32 5 is_stmt 0 discriminator 3 view .LVU31
 124 004a FFF7FEFF 		bl	osal_printf
 125              	.LVL11:
 126 004e F5E7     		b	.L6
 127              	.LVL12:
 128              	.L12:
  32:../Switch/core/yt/yt_storm_ctrl.c ****     CMM_PARAM_CHK((!(YT_DISPATCH(unit)->is_inited)), CMM_ERR_NOT_INIT);
 129              		.loc 1 32 5 discriminator 3 view .LVU32
 130              	.LBE3:
  33:../Switch/core/yt/yt_storm_ctrl.c **** 
 131              		.loc 1 33 5 is_stmt 1 discriminator 1 view .LVU33
  33:../Switch/core/yt/yt_storm_ctrl.c **** 
 132              		.loc 1 33 5 discriminator 1 view .LVU34
 133 0050 074B     		ldr	r3, .L16+4
 134 0052 1B78     		ldrb	r3, [r3]	@ zero_extendqisi2
 135 0054 012B     		cmp	r3, #1
 136 0056 01D8     		bhi	.L15
 137              	.LVL13:
 138              	.L8:
  33:../Switch/core/yt/yt_storm_ctrl.c **** 
 139              		.loc 1 33 5 discriminator 5 view .LVU35
  33:../Switch/core/yt/yt_storm_ctrl.c **** 
 140              		.loc 1 33 5 discriminator 5 view .LVU36
  33:../Switch/core/yt/yt_storm_ctrl.c **** 
 141              		.loc 1 33 5 discriminator 5 view .LVU37
 142 0058 0420     		movs	r0, #4
 143 005a DCE7     		b	.L1
 144              	.LVL14:
 145              	.L15:
  33:../Switch/core/yt/yt_storm_ctrl.c **** 
 146              		.loc 1 33 5 discriminator 3 view .LVU38
 147              	.LBB4:
  33:../Switch/core/yt/yt_storm_ctrl.c **** 
 148              		.loc 1 33 5 discriminator 3 view .LVU39
 149 005c 054B     		ldr	r3, .L16+8
 150 005e 1A69     		ldr	r2, [r3, #16]
 151 0060 054B     		ldr	r3, .L16+12
 152 0062 9968     		ldr	r1, [r3, #8]
 153 0064 0548     		ldr	r0, .L16+16
 154              	.LVL15:
  33:../Switch/core/yt/yt_storm_ctrl.c **** 
 155              		.loc 1 33 5 is_stmt 0 discriminator 3 view .LVU40
 156 0066 FFF7FEFF 		bl	osal_printf
 157              	.LVL16:
 158 006a F5E7     		b	.L8
 159              	.L17:
 160              		.align	2
 161              	.L16:
 162 006c 00000000 		.word	gpfal_dispatch
 163 0070 00000000 		.word	yt_debug_level
 164 0074 00000000 		.word	_yt_errmsg
 165 0078 00000000 		.word	_yt_prompt_msg
 166 007c 00000000 		.word	.LC0
 167              	.LBE4:
 168              		.cfi_endproc
 169              	.LFE3:
 171              		.section	.text.yt_storm_ctrl_enable_set,"ax",%progbits
 172              		.align	1
 173              		.global	yt_storm_ctrl_enable_set
 174              		.syntax unified
 175              		.thumb
 176              		.thumb_func
 178              	yt_storm_ctrl_enable_set:
 179              	.LVL17:
 180              	.LFB4:
  37:../Switch/core/yt/yt_storm_ctrl.c **** 
  38:../Switch/core/yt/yt_storm_ctrl.c **** /**
  39:../Switch/core/yt/yt_storm_ctrl.c ****  * @internal      yt_storm_ctrl_enable_set
  40:../Switch/core/yt/yt_storm_ctrl.c ****  * @endinternal
  41:../Switch/core/yt/yt_storm_ctrl.c ****  *
  42:../Switch/core/yt/yt_storm_ctrl.c ****  * @brief         Description
  43:../Switch/core/yt/yt_storm_ctrl.c ****  * @param[in]     unit                -unit id
  44:../Switch/core/yt/yt_storm_ctrl.c ****  * @param[in]     port                -port num
  45:../Switch/core/yt/yt_storm_ctrl.c ****  * @param[in]     storm_type          -storm type,refer to yt_storm_type_t
  46:../Switch/core/yt/yt_storm_ctrl.c ****  * @param[in]     enable              -enable or disable
  47:../Switch/core/yt/yt_storm_ctrl.c ****  * @retval        CMM_ERR_OK          -on success
  48:../Switch/core/yt/yt_storm_ctrl.c ****  * @retval        CMM_ERR_FAIL        -on fail
  49:../Switch/core/yt/yt_storm_ctrl.c ****  */
  50:../Switch/core/yt/yt_storm_ctrl.c **** yt_ret_t yt_storm_ctrl_enable_set(yt_unit_t unit, yt_port_t port, yt_storm_type_t storm_type, yt_en
  51:../Switch/core/yt/yt_storm_ctrl.c **** {
 181              		.loc 1 51 1 is_stmt 1 view -0
 182              		.cfi_startproc
 183              		@ args = 0, pretend = 0, frame = 0
 184              		@ frame_needed = 0, uses_anonymous_args = 0
 185              		.loc 1 51 1 is_stmt 0 view .LVU42
 186 0000 10B5     		push	{r4, lr}
 187              		.cfi_def_cfa_offset 8
 188              		.cfi_offset 4, -8
 189              		.cfi_offset 14, -4
  52:../Switch/core/yt/yt_storm_ctrl.c ****     CMM_PARAM_CHK((YT_UNIT_NUM <= unit), CMM_ERR_INPUT);
 190              		.loc 1 52 5 is_stmt 1 view .LVU43
 191              		.loc 1 52 5 view .LVU44
 192 0002 C0B9     		cbnz	r0, .L32
 193 0004 8446     		mov	ip, r0
 194              		.loc 1 52 5 discriminator 2 view .LVU45
  53:../Switch/core/yt/yt_storm_ctrl.c ****     CMM_PARAM_CHK(NULL == YT_DISPATCH(unit), CMM_ERR_NOT_INIT);
 195              		.loc 1 53 5 discriminator 2 view .LVU46
 196              		.loc 1 53 5 discriminator 2 view .LVU47
 197 0006 2F48     		ldr	r0, .L41
 198              	.LVL18:
 199              		.loc 1 53 5 is_stmt 0 discriminator 2 view .LVU48
 200 0008 50F82C40 		ldr	r4, [r0, ip, lsl #2]
 201 000c 0CB3     		cbz	r4, .L33
 202              		.loc 1 53 5 is_stmt 1 discriminator 2 view .LVU49
  54:../Switch/core/yt/yt_storm_ctrl.c ****     CMM_PARAM_CHK((!(YT_DISPATCH(unit)->is_inited)), CMM_ERR_NOT_INIT);
 203              		.loc 1 54 5 discriminator 2 view .LVU50
 204              		.loc 1 54 5 discriminator 2 view .LVU51
 205 000e 2078     		ldrb	r0, [r4]	@ zero_extendqisi2
 206 0010 0028     		cmp	r0, #0
 207 0012 2CD0     		beq	.L34
 208              		.loc 1 54 5 discriminator 2 view .LVU52
  55:../Switch/core/yt/yt_storm_ctrl.c ****     CMM_PARAM_CHK((!(CMM_PORT_VALID(unit,port))), CMM_ERR_PORT);
 209              		.loc 1 55 5 discriminator 2 view .LVU53
 210              		.loc 1 55 5 discriminator 2 view .LVU54
 211 0014 2C48     		ldr	r0, .L41+4
 212 0016 0078     		ldrb	r0, [r0]	@ zero_extendqisi2
 213 0018 0028     		cmp	r0, #0
 214 001a 36D0     		beq	.L26
 215 001c 2B48     		ldr	r0, .L41+8
 216 001e 50F82C00 		ldr	r0, [r0, ip, lsl #2]
 217 0022 007D     		ldrb	r0, [r0, #20]	@ zero_extendqisi2
 218 0024 8842     		cmp	r0, r1
 219 0026 30D9     		bls	.L26
 220              		.loc 1 55 5 discriminator 4 view .LVU55
  56:../Switch/core/yt/yt_storm_ctrl.c ****     CMM_PARAM_CHK((YT_ENABLE < enable || YT_DISABLE > enable), CMM_ERR_INPUT);
 221              		.loc 1 56 5 discriminator 4 view .LVU56
 222              		.loc 1 56 5 discriminator 4 view .LVU57
 223 0028 012B     		cmp	r3, #1
 224 002a 3CD8     		bhi	.L35
 225              		.loc 1 56 5 discriminator 2 view .LVU58
  57:../Switch/core/yt/yt_storm_ctrl.c **** 
  58:../Switch/core/yt/yt_storm_ctrl.c ****     return YT_DISPATCH(unit)->storm_ctrl_enable_set(unit, port, storm_type, enable);
 226              		.loc 1 58 5 discriminator 2 view .LVU59
 227              		.loc 1 58 29 is_stmt 0 discriminator 2 view .LVU60
 228 002c D4F80C43 		ldr	r4, [r4, #780]
 229              		.loc 1 58 12 discriminator 2 view .LVU61
 230 0030 6046     		mov	r0, ip
 231 0032 A047     		blx	r4
 232              	.LVL19:
 233              	.L18:
  59:../Switch/core/yt/yt_storm_ctrl.c **** }
 234              		.loc 1 59 1 view .LVU62
 235 0034 10BD     		pop	{r4, pc}
 236              	.LVL20:
 237              	.L32:
  52:../Switch/core/yt/yt_storm_ctrl.c ****     CMM_PARAM_CHK(NULL == YT_DISPATCH(unit), CMM_ERR_NOT_INIT);
 238              		.loc 1 52 5 is_stmt 1 discriminator 1 view .LVU63
  52:../Switch/core/yt/yt_storm_ctrl.c ****     CMM_PARAM_CHK(NULL == YT_DISPATCH(unit), CMM_ERR_NOT_INIT);
 239              		.loc 1 52 5 discriminator 1 view .LVU64
 240 0036 264B     		ldr	r3, .L41+12
 241              	.LVL21:
  52:../Switch/core/yt/yt_storm_ctrl.c ****     CMM_PARAM_CHK(NULL == YT_DISPATCH(unit), CMM_ERR_NOT_INIT);
 242              		.loc 1 52 5 is_stmt 0 discriminator 1 view .LVU65
 243 0038 1B78     		ldrb	r3, [r3]	@ zero_extendqisi2
 244 003a 012B     		cmp	r3, #1
 245 003c 01D8     		bhi	.L36
 246              	.LVL22:
 247              	.L20:
  52:../Switch/core/yt/yt_storm_ctrl.c ****     CMM_PARAM_CHK(NULL == YT_DISPATCH(unit), CMM_ERR_NOT_INIT);
 248              		.loc 1 52 5 is_stmt 1 discriminator 5 view .LVU66
  52:../Switch/core/yt/yt_storm_ctrl.c ****     CMM_PARAM_CHK(NULL == YT_DISPATCH(unit), CMM_ERR_NOT_INIT);
 249              		.loc 1 52 5 discriminator 5 view .LVU67
  52:../Switch/core/yt/yt_storm_ctrl.c ****     CMM_PARAM_CHK(NULL == YT_DISPATCH(unit), CMM_ERR_NOT_INIT);
 250              		.loc 1 52 5 discriminator 5 view .LVU68
 251 003e 0520     		movs	r0, #5
 252 0040 F8E7     		b	.L18
 253              	.LVL23:
 254              	.L36:
  52:../Switch/core/yt/yt_storm_ctrl.c ****     CMM_PARAM_CHK(NULL == YT_DISPATCH(unit), CMM_ERR_NOT_INIT);
 255              		.loc 1 52 5 discriminator 3 view .LVU69
 256              	.LBB5:
  52:../Switch/core/yt/yt_storm_ctrl.c ****     CMM_PARAM_CHK(NULL == YT_DISPATCH(unit), CMM_ERR_NOT_INIT);
 257              		.loc 1 52 5 discriminator 3 view .LVU70
 258 0042 244B     		ldr	r3, .L41+16
 259 0044 5A69     		ldr	r2, [r3, #20]
 260              	.LVL24:
  52:../Switch/core/yt/yt_storm_ctrl.c ****     CMM_PARAM_CHK(NULL == YT_DISPATCH(unit), CMM_ERR_NOT_INIT);
 261              		.loc 1 52 5 is_stmt 0 discriminator 3 view .LVU71
 262 0046 244B     		ldr	r3, .L41+20
 263 0048 9968     		ldr	r1, [r3, #8]
 264              	.LVL25:
  52:../Switch/core/yt/yt_storm_ctrl.c ****     CMM_PARAM_CHK(NULL == YT_DISPATCH(unit), CMM_ERR_NOT_INIT);
 265              		.loc 1 52 5 discriminator 3 view .LVU72
 266 004a 2448     		ldr	r0, .L41+24
 267              	.LVL26:
  52:../Switch/core/yt/yt_storm_ctrl.c ****     CMM_PARAM_CHK(NULL == YT_DISPATCH(unit), CMM_ERR_NOT_INIT);
 268              		.loc 1 52 5 discriminator 3 view .LVU73
 269 004c FFF7FEFF 		bl	osal_printf
 270              	.LVL27:
 271 0050 F5E7     		b	.L20
 272              	.LVL28:
 273              	.L33:
  52:../Switch/core/yt/yt_storm_ctrl.c ****     CMM_PARAM_CHK(NULL == YT_DISPATCH(unit), CMM_ERR_NOT_INIT);
 274              		.loc 1 52 5 discriminator 3 view .LVU74
 275              	.LBE5:
  53:../Switch/core/yt/yt_storm_ctrl.c ****     CMM_PARAM_CHK((!(YT_DISPATCH(unit)->is_inited)), CMM_ERR_NOT_INIT);
 276              		.loc 1 53 5 is_stmt 1 discriminator 1 view .LVU75
  53:../Switch/core/yt/yt_storm_ctrl.c ****     CMM_PARAM_CHK((!(YT_DISPATCH(unit)->is_inited)), CMM_ERR_NOT_INIT);
 277              		.loc 1 53 5 discriminator 1 view .LVU76
 278 0052 1F4B     		ldr	r3, .L41+12
 279              	.LVL29:
  53:../Switch/core/yt/yt_storm_ctrl.c ****     CMM_PARAM_CHK((!(YT_DISPATCH(unit)->is_inited)), CMM_ERR_NOT_INIT);
 280              		.loc 1 53 5 is_stmt 0 discriminator 1 view .LVU77
 281 0054 1B78     		ldrb	r3, [r3]	@ zero_extendqisi2
 282 0056 012B     		cmp	r3, #1
 283 0058 01D8     		bhi	.L37
 284              	.LVL30:
 285              	.L23:
  53:../Switch/core/yt/yt_storm_ctrl.c ****     CMM_PARAM_CHK((!(YT_DISPATCH(unit)->is_inited)), CMM_ERR_NOT_INIT);
 286              		.loc 1 53 5 is_stmt 1 discriminator 5 view .LVU78
  53:../Switch/core/yt/yt_storm_ctrl.c ****     CMM_PARAM_CHK((!(YT_DISPATCH(unit)->is_inited)), CMM_ERR_NOT_INIT);
 287              		.loc 1 53 5 discriminator 5 view .LVU79
  53:../Switch/core/yt/yt_storm_ctrl.c ****     CMM_PARAM_CHK((!(YT_DISPATCH(unit)->is_inited)), CMM_ERR_NOT_INIT);
 288              		.loc 1 53 5 discriminator 5 view .LVU80
 289 005a 0420     		movs	r0, #4
 290 005c EAE7     		b	.L18
 291              	.LVL31:
 292              	.L37:
  53:../Switch/core/yt/yt_storm_ctrl.c ****     CMM_PARAM_CHK((!(YT_DISPATCH(unit)->is_inited)), CMM_ERR_NOT_INIT);
 293              		.loc 1 53 5 discriminator 3 view .LVU81
 294              	.LBB6:
  53:../Switch/core/yt/yt_storm_ctrl.c ****     CMM_PARAM_CHK((!(YT_DISPATCH(unit)->is_inited)), CMM_ERR_NOT_INIT);
 295              		.loc 1 53 5 discriminator 3 view .LVU82
 296 005e 1D4B     		ldr	r3, .L41+16
 297 0060 1A69     		ldr	r2, [r3, #16]
 298              	.LVL32:
  53:../Switch/core/yt/yt_storm_ctrl.c ****     CMM_PARAM_CHK((!(YT_DISPATCH(unit)->is_inited)), CMM_ERR_NOT_INIT);
 299              		.loc 1 53 5 is_stmt 0 discriminator 3 view .LVU83
 300 0062 1D4B     		ldr	r3, .L41+20
 301 0064 9968     		ldr	r1, [r3, #8]
 302              	.LVL33:
  53:../Switch/core/yt/yt_storm_ctrl.c ****     CMM_PARAM_CHK((!(YT_DISPATCH(unit)->is_inited)), CMM_ERR_NOT_INIT);
 303              		.loc 1 53 5 discriminator 3 view .LVU84
 304 0066 1D48     		ldr	r0, .L41+24
 305 0068 FFF7FEFF 		bl	osal_printf
 306              	.LVL34:
 307 006c F5E7     		b	.L23
 308              	.LVL35:
 309              	.L34:
  53:../Switch/core/yt/yt_storm_ctrl.c ****     CMM_PARAM_CHK((!(YT_DISPATCH(unit)->is_inited)), CMM_ERR_NOT_INIT);
 310              		.loc 1 53 5 discriminator 3 view .LVU85
 311              	.LBE6:
  54:../Switch/core/yt/yt_storm_ctrl.c ****     CMM_PARAM_CHK((!(CMM_PORT_VALID(unit,port))), CMM_ERR_PORT);
 312              		.loc 1 54 5 is_stmt 1 discriminator 1 view .LVU86
  54:../Switch/core/yt/yt_storm_ctrl.c ****     CMM_PARAM_CHK((!(CMM_PORT_VALID(unit,port))), CMM_ERR_PORT);
 313              		.loc 1 54 5 discriminator 1 view .LVU87
 314 006e 184B     		ldr	r3, .L41+12
 315              	.LVL36:
  54:../Switch/core/yt/yt_storm_ctrl.c ****     CMM_PARAM_CHK((!(CMM_PORT_VALID(unit,port))), CMM_ERR_PORT);
 316              		.loc 1 54 5 is_stmt 0 discriminator 1 view .LVU88
 317 0070 1B78     		ldrb	r3, [r3]	@ zero_extendqisi2
 318 0072 012B     		cmp	r3, #1
 319 0074 01D8     		bhi	.L38
 320              	.LVL37:
 321              	.L25:
  54:../Switch/core/yt/yt_storm_ctrl.c ****     CMM_PARAM_CHK((!(CMM_PORT_VALID(unit,port))), CMM_ERR_PORT);
 322              		.loc 1 54 5 is_stmt 1 discriminator 5 view .LVU89
  54:../Switch/core/yt/yt_storm_ctrl.c ****     CMM_PARAM_CHK((!(CMM_PORT_VALID(unit,port))), CMM_ERR_PORT);
 323              		.loc 1 54 5 discriminator 5 view .LVU90
  54:../Switch/core/yt/yt_storm_ctrl.c ****     CMM_PARAM_CHK((!(CMM_PORT_VALID(unit,port))), CMM_ERR_PORT);
 324              		.loc 1 54 5 discriminator 5 view .LVU91
 325 0076 0420     		movs	r0, #4
 326 0078 DCE7     		b	.L18
 327              	.LVL38:
 328              	.L38:
  54:../Switch/core/yt/yt_storm_ctrl.c ****     CMM_PARAM_CHK((!(CMM_PORT_VALID(unit,port))), CMM_ERR_PORT);
 329              		.loc 1 54 5 discriminator 3 view .LVU92
 330              	.LBB7:
  54:../Switch/core/yt/yt_storm_ctrl.c ****     CMM_PARAM_CHK((!(CMM_PORT_VALID(unit,port))), CMM_ERR_PORT);
 331              		.loc 1 54 5 discriminator 3 view .LVU93
 332 007a 164B     		ldr	r3, .L41+16
 333 007c 1A69     		ldr	r2, [r3, #16]
 334              	.LVL39:
  54:../Switch/core/yt/yt_storm_ctrl.c ****     CMM_PARAM_CHK((!(CMM_PORT_VALID(unit,port))), CMM_ERR_PORT);
 335              		.loc 1 54 5 is_stmt 0 discriminator 3 view .LVU94
 336 007e 164B     		ldr	r3, .L41+20
 337 0080 9968     		ldr	r1, [r3, #8]
 338              	.LVL40:
  54:../Switch/core/yt/yt_storm_ctrl.c ****     CMM_PARAM_CHK((!(CMM_PORT_VALID(unit,port))), CMM_ERR_PORT);
 339              		.loc 1 54 5 discriminator 3 view .LVU95
 340 0082 1648     		ldr	r0, .L41+24
 341 0084 FFF7FEFF 		bl	osal_printf
 342              	.LVL41:
 343 0088 F5E7     		b	.L25
 344              	.LVL42:
 345              	.L26:
  54:../Switch/core/yt/yt_storm_ctrl.c ****     CMM_PARAM_CHK((!(CMM_PORT_VALID(unit,port))), CMM_ERR_PORT);
 346              		.loc 1 54 5 discriminator 3 view .LVU96
 347              	.LBE7:
  55:../Switch/core/yt/yt_storm_ctrl.c ****     CMM_PARAM_CHK((YT_ENABLE < enable || YT_DISABLE > enable), CMM_ERR_INPUT);
 348              		.loc 1 55 5 is_stmt 1 discriminator 3 view .LVU97
  55:../Switch/core/yt/yt_storm_ctrl.c ****     CMM_PARAM_CHK((YT_ENABLE < enable || YT_DISABLE > enable), CMM_ERR_INPUT);
 349              		.loc 1 55 5 discriminator 3 view .LVU98
 350 008a 114B     		ldr	r3, .L41+12
 351              	.LVL43:
  55:../Switch/core/yt/yt_storm_ctrl.c ****     CMM_PARAM_CHK((YT_ENABLE < enable || YT_DISABLE > enable), CMM_ERR_INPUT);
 352              		.loc 1 55 5 is_stmt 0 discriminator 3 view .LVU99
 353 008c 1B78     		ldrb	r3, [r3]	@ zero_extendqisi2
 354 008e 012B     		cmp	r3, #1
 355 0090 01D8     		bhi	.L39
 356              	.LVL44:
 357              	.L28:
  55:../Switch/core/yt/yt_storm_ctrl.c ****     CMM_PARAM_CHK((YT_ENABLE < enable || YT_DISABLE > enable), CMM_ERR_INPUT);
 358              		.loc 1 55 5 is_stmt 1 discriminator 7 view .LVU100
  55:../Switch/core/yt/yt_storm_ctrl.c ****     CMM_PARAM_CHK((YT_ENABLE < enable || YT_DISABLE > enable), CMM_ERR_INPUT);
 359              		.loc 1 55 5 discriminator 7 view .LVU101
  55:../Switch/core/yt/yt_storm_ctrl.c ****     CMM_PARAM_CHK((YT_ENABLE < enable || YT_DISABLE > enable), CMM_ERR_INPUT);
 360              		.loc 1 55 5 discriminator 7 view .LVU102
 361 0092 0E20     		movs	r0, #14
 362 0094 CEE7     		b	.L18
 363              	.LVL45:
 364              	.L39:
  55:../Switch/core/yt/yt_storm_ctrl.c ****     CMM_PARAM_CHK((YT_ENABLE < enable || YT_DISABLE > enable), CMM_ERR_INPUT);
 365              		.loc 1 55 5 discriminator 5 view .LVU103
 366              	.LBB8:
  55:../Switch/core/yt/yt_storm_ctrl.c ****     CMM_PARAM_CHK((YT_ENABLE < enable || YT_DISABLE > enable), CMM_ERR_INPUT);
 367              		.loc 1 55 5 discriminator 5 view .LVU104
 368 0096 0F4B     		ldr	r3, .L41+16
 369 0098 9A6B     		ldr	r2, [r3, #56]
 370              	.LVL46:
  55:../Switch/core/yt/yt_storm_ctrl.c ****     CMM_PARAM_CHK((YT_ENABLE < enable || YT_DISABLE > enable), CMM_ERR_INPUT);
 371              		.loc 1 55 5 is_stmt 0 discriminator 5 view .LVU105
 372 009a 0F4B     		ldr	r3, .L41+20
 373 009c 9968     		ldr	r1, [r3, #8]
 374              	.LVL47:
  55:../Switch/core/yt/yt_storm_ctrl.c ****     CMM_PARAM_CHK((YT_ENABLE < enable || YT_DISABLE > enable), CMM_ERR_INPUT);
 375              		.loc 1 55 5 discriminator 5 view .LVU106
 376 009e 0F48     		ldr	r0, .L41+24
 377 00a0 FFF7FEFF 		bl	osal_printf
 378              	.LVL48:
 379 00a4 F5E7     		b	.L28
 380              	.LVL49:
 381              	.L35:
  55:../Switch/core/yt/yt_storm_ctrl.c ****     CMM_PARAM_CHK((YT_ENABLE < enable || YT_DISABLE > enable), CMM_ERR_INPUT);
 382              		.loc 1 55 5 discriminator 5 view .LVU107
 383              	.LBE8:
  56:../Switch/core/yt/yt_storm_ctrl.c **** 
 384              		.loc 1 56 5 is_stmt 1 discriminator 1 view .LVU108
  56:../Switch/core/yt/yt_storm_ctrl.c **** 
 385              		.loc 1 56 5 discriminator 1 view .LVU109
 386 00a6 0A4B     		ldr	r3, .L41+12
 387              	.LVL50:
  56:../Switch/core/yt/yt_storm_ctrl.c **** 
 388              		.loc 1 56 5 is_stmt 0 discriminator 1 view .LVU110
 389 00a8 1B78     		ldrb	r3, [r3]	@ zero_extendqisi2
 390 00aa 012B     		cmp	r3, #1
 391 00ac 01D8     		bhi	.L40
 392              	.LVL51:
 393              	.L30:
  56:../Switch/core/yt/yt_storm_ctrl.c **** 
 394              		.loc 1 56 5 is_stmt 1 discriminator 5 view .LVU111
  56:../Switch/core/yt/yt_storm_ctrl.c **** 
 395              		.loc 1 56 5 discriminator 5 view .LVU112
  56:../Switch/core/yt/yt_storm_ctrl.c **** 
 396              		.loc 1 56 5 discriminator 5 view .LVU113
 397 00ae 0520     		movs	r0, #5
 398 00b0 C0E7     		b	.L18
 399              	.LVL52:
 400              	.L40:
  56:../Switch/core/yt/yt_storm_ctrl.c **** 
 401              		.loc 1 56 5 discriminator 3 view .LVU114
 402              	.LBB9:
  56:../Switch/core/yt/yt_storm_ctrl.c **** 
 403              		.loc 1 56 5 discriminator 3 view .LVU115
 404 00b2 084B     		ldr	r3, .L41+16
 405 00b4 5A69     		ldr	r2, [r3, #20]
 406              	.LVL53:
  56:../Switch/core/yt/yt_storm_ctrl.c **** 
 407              		.loc 1 56 5 is_stmt 0 discriminator 3 view .LVU116
 408 00b6 084B     		ldr	r3, .L41+20
 409 00b8 9968     		ldr	r1, [r3, #8]
 410              	.LVL54:
  56:../Switch/core/yt/yt_storm_ctrl.c **** 
 411              		.loc 1 56 5 discriminator 3 view .LVU117
 412 00ba 0848     		ldr	r0, .L41+24
 413 00bc FFF7FEFF 		bl	osal_printf
 414              	.LVL55:
 415 00c0 F5E7     		b	.L30
 416              	.L42:
 417 00c2 00BF     		.align	2
 418              	.L41:
 419 00c4 00000000 		.word	gpfal_dispatch
 420 00c8 00000000 		.word	gcal_inited
 421 00cc 00000000 		.word	gpSwitchUnit
 422 00d0 00000000 		.word	yt_debug_level
 423 00d4 00000000 		.word	_yt_errmsg
 424 00d8 00000000 		.word	_yt_prompt_msg
 425 00dc 00000000 		.word	.LC0
 426              	.LBE9:
 427              		.cfi_endproc
 428              	.LFE4:
 430              		.section	.text.yt_storm_ctrl_enable_get,"ax",%progbits
 431              		.align	1
 432              		.global	yt_storm_ctrl_enable_get
 433              		.syntax unified
 434              		.thumb
 435              		.thumb_func
 437              	yt_storm_ctrl_enable_get:
 438              	.LVL56:
 439              	.LFB5:
  60:../Switch/core/yt/yt_storm_ctrl.c **** 
  61:../Switch/core/yt/yt_storm_ctrl.c **** /**
  62:../Switch/core/yt/yt_storm_ctrl.c ****  * @internal      yt_storm_ctrl_enable_get
  63:../Switch/core/yt/yt_storm_ctrl.c ****  * @endinternal
  64:../Switch/core/yt/yt_storm_ctrl.c ****  *
  65:../Switch/core/yt/yt_storm_ctrl.c ****  * @brief         Description
  66:../Switch/core/yt/yt_storm_ctrl.c ****  * @param[in]     unit                -unit id
  67:../Switch/core/yt/yt_storm_ctrl.c ****  * @param[in]     port                -port num
  68:../Switch/core/yt/yt_storm_ctrl.c ****  * @param[in]     storm_type          -storm type,refer to yt_storm_type_t
  69:../Switch/core/yt/yt_storm_ctrl.c ****  * @param[out]    pEnable             -enable or disable
  70:../Switch/core/yt/yt_storm_ctrl.c ****  * @retval        CMM_ERR_OK          -on success
  71:../Switch/core/yt/yt_storm_ctrl.c ****  * @retval        CMM_ERR_FAIL        -on fail
  72:../Switch/core/yt/yt_storm_ctrl.c ****  */
  73:../Switch/core/yt/yt_storm_ctrl.c **** yt_ret_t yt_storm_ctrl_enable_get(yt_unit_t unit, yt_port_t port, yt_storm_type_t storm_type, yt_en
  74:../Switch/core/yt/yt_storm_ctrl.c **** {
 440              		.loc 1 74 1 is_stmt 1 view -0
 441              		.cfi_startproc
 442              		@ args = 0, pretend = 0, frame = 0
 443              		@ frame_needed = 0, uses_anonymous_args = 0
 444              		.loc 1 74 1 is_stmt 0 view .LVU119
 445 0000 10B5     		push	{r4, lr}
 446              		.cfi_def_cfa_offset 8
 447              		.cfi_offset 4, -8
 448              		.cfi_offset 14, -4
  75:../Switch/core/yt/yt_storm_ctrl.c ****     CMM_PARAM_CHK((YT_UNIT_NUM <= unit), CMM_ERR_INPUT);
 449              		.loc 1 75 5 is_stmt 1 view .LVU120
 450              		.loc 1 75 5 view .LVU121
 451 0002 C0B9     		cbnz	r0, .L57
 452 0004 8446     		mov	ip, r0
 453              		.loc 1 75 5 discriminator 2 view .LVU122
  76:../Switch/core/yt/yt_storm_ctrl.c ****     CMM_PARAM_CHK(NULL == YT_DISPATCH(unit), CMM_ERR_NOT_INIT);
 454              		.loc 1 76 5 discriminator 2 view .LVU123
 455              		.loc 1 76 5 discriminator 2 view .LVU124
 456 0006 2F48     		ldr	r0, .L66
 457              	.LVL57:
 458              		.loc 1 76 5 is_stmt 0 discriminator 2 view .LVU125
 459 0008 50F82C40 		ldr	r4, [r0, ip, lsl #2]
 460 000c 0CB3     		cbz	r4, .L58
 461              		.loc 1 76 5 is_stmt 1 discriminator 2 view .LVU126
  77:../Switch/core/yt/yt_storm_ctrl.c ****     CMM_PARAM_CHK((!(YT_DISPATCH(unit)->is_inited)), CMM_ERR_NOT_INIT);
 462              		.loc 1 77 5 discriminator 2 view .LVU127
 463              		.loc 1 77 5 discriminator 2 view .LVU128
 464 000e 2078     		ldrb	r0, [r4]	@ zero_extendqisi2
 465 0010 0028     		cmp	r0, #0
 466 0012 2CD0     		beq	.L59
 467              		.loc 1 77 5 discriminator 2 view .LVU129
  78:../Switch/core/yt/yt_storm_ctrl.c ****     CMM_PARAM_CHK((!(CMM_PORT_VALID(unit,port))), CMM_ERR_PORT);
 468              		.loc 1 78 5 discriminator 2 view .LVU130
 469              		.loc 1 78 5 discriminator 2 view .LVU131
 470 0014 2C48     		ldr	r0, .L66+4
 471 0016 0078     		ldrb	r0, [r0]	@ zero_extendqisi2
 472 0018 0028     		cmp	r0, #0
 473 001a 36D0     		beq	.L51
 474 001c 2B48     		ldr	r0, .L66+8
 475 001e 50F82C00 		ldr	r0, [r0, ip, lsl #2]
 476 0022 007D     		ldrb	r0, [r0, #20]	@ zero_extendqisi2
 477 0024 8842     		cmp	r0, r1
 478 0026 30D9     		bls	.L51
 479              		.loc 1 78 5 discriminator 4 view .LVU132
  79:../Switch/core/yt/yt_storm_ctrl.c ****     CMM_PARAM_CHK((NULL == pEnable), CMM_ERR_NULL_POINT);
 480              		.loc 1 79 5 discriminator 4 view .LVU133
 481              		.loc 1 79 5 discriminator 4 view .LVU134
 482 0028 002B     		cmp	r3, #0
 483 002a 3CD0     		beq	.L60
 484              		.loc 1 79 5 discriminator 2 view .LVU135
  80:../Switch/core/yt/yt_storm_ctrl.c **** 
  81:../Switch/core/yt/yt_storm_ctrl.c ****     return YT_DISPATCH(unit)->storm_ctrl_enable_get(unit, port, storm_type, pEnable);
 485              		.loc 1 81 5 discriminator 2 view .LVU136
 486              		.loc 1 81 29 is_stmt 0 discriminator 2 view .LVU137
 487 002c D4F81043 		ldr	r4, [r4, #784]
 488              		.loc 1 81 12 discriminator 2 view .LVU138
 489 0030 6046     		mov	r0, ip
 490 0032 A047     		blx	r4
 491              	.LVL58:
 492              	.L43:
  82:../Switch/core/yt/yt_storm_ctrl.c **** }
 493              		.loc 1 82 1 view .LVU139
 494 0034 10BD     		pop	{r4, pc}
 495              	.LVL59:
 496              	.L57:
  75:../Switch/core/yt/yt_storm_ctrl.c ****     CMM_PARAM_CHK(NULL == YT_DISPATCH(unit), CMM_ERR_NOT_INIT);
 497              		.loc 1 75 5 is_stmt 1 discriminator 1 view .LVU140
  75:../Switch/core/yt/yt_storm_ctrl.c ****     CMM_PARAM_CHK(NULL == YT_DISPATCH(unit), CMM_ERR_NOT_INIT);
 498              		.loc 1 75 5 discriminator 1 view .LVU141
 499 0036 264B     		ldr	r3, .L66+12
 500              	.LVL60:
  75:../Switch/core/yt/yt_storm_ctrl.c ****     CMM_PARAM_CHK(NULL == YT_DISPATCH(unit), CMM_ERR_NOT_INIT);
 501              		.loc 1 75 5 is_stmt 0 discriminator 1 view .LVU142
 502 0038 1B78     		ldrb	r3, [r3]	@ zero_extendqisi2
 503 003a 012B     		cmp	r3, #1
 504 003c 01D8     		bhi	.L61
 505              	.LVL61:
 506              	.L45:
  75:../Switch/core/yt/yt_storm_ctrl.c ****     CMM_PARAM_CHK(NULL == YT_DISPATCH(unit), CMM_ERR_NOT_INIT);
 507              		.loc 1 75 5 is_stmt 1 discriminator 5 view .LVU143
  75:../Switch/core/yt/yt_storm_ctrl.c ****     CMM_PARAM_CHK(NULL == YT_DISPATCH(unit), CMM_ERR_NOT_INIT);
 508              		.loc 1 75 5 discriminator 5 view .LVU144
  75:../Switch/core/yt/yt_storm_ctrl.c ****     CMM_PARAM_CHK(NULL == YT_DISPATCH(unit), CMM_ERR_NOT_INIT);
 509              		.loc 1 75 5 discriminator 5 view .LVU145
 510 003e 0520     		movs	r0, #5
 511 0040 F8E7     		b	.L43
 512              	.LVL62:
 513              	.L61:
  75:../Switch/core/yt/yt_storm_ctrl.c ****     CMM_PARAM_CHK(NULL == YT_DISPATCH(unit), CMM_ERR_NOT_INIT);
 514              		.loc 1 75 5 discriminator 3 view .LVU146
 515              	.LBB10:
  75:../Switch/core/yt/yt_storm_ctrl.c ****     CMM_PARAM_CHK(NULL == YT_DISPATCH(unit), CMM_ERR_NOT_INIT);
 516              		.loc 1 75 5 discriminator 3 view .LVU147
 517 0042 244B     		ldr	r3, .L66+16
 518 0044 5A69     		ldr	r2, [r3, #20]
 519              	.LVL63:
  75:../Switch/core/yt/yt_storm_ctrl.c ****     CMM_PARAM_CHK(NULL == YT_DISPATCH(unit), CMM_ERR_NOT_INIT);
 520              		.loc 1 75 5 is_stmt 0 discriminator 3 view .LVU148
 521 0046 244B     		ldr	r3, .L66+20
 522 0048 9968     		ldr	r1, [r3, #8]
 523              	.LVL64:
  75:../Switch/core/yt/yt_storm_ctrl.c ****     CMM_PARAM_CHK(NULL == YT_DISPATCH(unit), CMM_ERR_NOT_INIT);
 524              		.loc 1 75 5 discriminator 3 view .LVU149
 525 004a 2448     		ldr	r0, .L66+24
 526              	.LVL65:
  75:../Switch/core/yt/yt_storm_ctrl.c ****     CMM_PARAM_CHK(NULL == YT_DISPATCH(unit), CMM_ERR_NOT_INIT);
 527              		.loc 1 75 5 discriminator 3 view .LVU150
 528 004c FFF7FEFF 		bl	osal_printf
 529              	.LVL66:
 530 0050 F5E7     		b	.L45
 531              	.LVL67:
 532              	.L58:
  75:../Switch/core/yt/yt_storm_ctrl.c ****     CMM_PARAM_CHK(NULL == YT_DISPATCH(unit), CMM_ERR_NOT_INIT);
 533              		.loc 1 75 5 discriminator 3 view .LVU151
 534              	.LBE10:
  76:../Switch/core/yt/yt_storm_ctrl.c ****     CMM_PARAM_CHK((!(YT_DISPATCH(unit)->is_inited)), CMM_ERR_NOT_INIT);
 535              		.loc 1 76 5 is_stmt 1 discriminator 1 view .LVU152
  76:../Switch/core/yt/yt_storm_ctrl.c ****     CMM_PARAM_CHK((!(YT_DISPATCH(unit)->is_inited)), CMM_ERR_NOT_INIT);
 536              		.loc 1 76 5 discriminator 1 view .LVU153
 537 0052 1F4B     		ldr	r3, .L66+12
 538              	.LVL68:
  76:../Switch/core/yt/yt_storm_ctrl.c ****     CMM_PARAM_CHK((!(YT_DISPATCH(unit)->is_inited)), CMM_ERR_NOT_INIT);
 539              		.loc 1 76 5 is_stmt 0 discriminator 1 view .LVU154
 540 0054 1B78     		ldrb	r3, [r3]	@ zero_extendqisi2
 541 0056 012B     		cmp	r3, #1
 542 0058 01D8     		bhi	.L62
 543              	.LVL69:
 544              	.L48:
  76:../Switch/core/yt/yt_storm_ctrl.c ****     CMM_PARAM_CHK((!(YT_DISPATCH(unit)->is_inited)), CMM_ERR_NOT_INIT);
 545              		.loc 1 76 5 is_stmt 1 discriminator 5 view .LVU155
  76:../Switch/core/yt/yt_storm_ctrl.c ****     CMM_PARAM_CHK((!(YT_DISPATCH(unit)->is_inited)), CMM_ERR_NOT_INIT);
 546              		.loc 1 76 5 discriminator 5 view .LVU156
  76:../Switch/core/yt/yt_storm_ctrl.c ****     CMM_PARAM_CHK((!(YT_DISPATCH(unit)->is_inited)), CMM_ERR_NOT_INIT);
 547              		.loc 1 76 5 discriminator 5 view .LVU157
 548 005a 0420     		movs	r0, #4
 549 005c EAE7     		b	.L43
 550              	.LVL70:
 551              	.L62:
  76:../Switch/core/yt/yt_storm_ctrl.c ****     CMM_PARAM_CHK((!(YT_DISPATCH(unit)->is_inited)), CMM_ERR_NOT_INIT);
 552              		.loc 1 76 5 discriminator 3 view .LVU158
 553              	.LBB11:
  76:../Switch/core/yt/yt_storm_ctrl.c ****     CMM_PARAM_CHK((!(YT_DISPATCH(unit)->is_inited)), CMM_ERR_NOT_INIT);
 554              		.loc 1 76 5 discriminator 3 view .LVU159
 555 005e 1D4B     		ldr	r3, .L66+16
 556 0060 1A69     		ldr	r2, [r3, #16]
 557              	.LVL71:
  76:../Switch/core/yt/yt_storm_ctrl.c ****     CMM_PARAM_CHK((!(YT_DISPATCH(unit)->is_inited)), CMM_ERR_NOT_INIT);
 558              		.loc 1 76 5 is_stmt 0 discriminator 3 view .LVU160
 559 0062 1D4B     		ldr	r3, .L66+20
 560 0064 9968     		ldr	r1, [r3, #8]
 561              	.LVL72:
  76:../Switch/core/yt/yt_storm_ctrl.c ****     CMM_PARAM_CHK((!(YT_DISPATCH(unit)->is_inited)), CMM_ERR_NOT_INIT);
 562              		.loc 1 76 5 discriminator 3 view .LVU161
 563 0066 1D48     		ldr	r0, .L66+24
 564 0068 FFF7FEFF 		bl	osal_printf
 565              	.LVL73:
 566 006c F5E7     		b	.L48
 567              	.LVL74:
 568              	.L59:
  76:../Switch/core/yt/yt_storm_ctrl.c ****     CMM_PARAM_CHK((!(YT_DISPATCH(unit)->is_inited)), CMM_ERR_NOT_INIT);
 569              		.loc 1 76 5 discriminator 3 view .LVU162
 570              	.LBE11:
  77:../Switch/core/yt/yt_storm_ctrl.c ****     CMM_PARAM_CHK((!(CMM_PORT_VALID(unit,port))), CMM_ERR_PORT);
 571              		.loc 1 77 5 is_stmt 1 discriminator 1 view .LVU163
  77:../Switch/core/yt/yt_storm_ctrl.c ****     CMM_PARAM_CHK((!(CMM_PORT_VALID(unit,port))), CMM_ERR_PORT);
 572              		.loc 1 77 5 discriminator 1 view .LVU164
 573 006e 184B     		ldr	r3, .L66+12
 574              	.LVL75:
  77:../Switch/core/yt/yt_storm_ctrl.c ****     CMM_PARAM_CHK((!(CMM_PORT_VALID(unit,port))), CMM_ERR_PORT);
 575              		.loc 1 77 5 is_stmt 0 discriminator 1 view .LVU165
 576 0070 1B78     		ldrb	r3, [r3]	@ zero_extendqisi2
 577 0072 012B     		cmp	r3, #1
 578 0074 01D8     		bhi	.L63
 579              	.LVL76:
 580              	.L50:
  77:../Switch/core/yt/yt_storm_ctrl.c ****     CMM_PARAM_CHK((!(CMM_PORT_VALID(unit,port))), CMM_ERR_PORT);
 581              		.loc 1 77 5 is_stmt 1 discriminator 5 view .LVU166
  77:../Switch/core/yt/yt_storm_ctrl.c ****     CMM_PARAM_CHK((!(CMM_PORT_VALID(unit,port))), CMM_ERR_PORT);
 582              		.loc 1 77 5 discriminator 5 view .LVU167
  77:../Switch/core/yt/yt_storm_ctrl.c ****     CMM_PARAM_CHK((!(CMM_PORT_VALID(unit,port))), CMM_ERR_PORT);
 583              		.loc 1 77 5 discriminator 5 view .LVU168
 584 0076 0420     		movs	r0, #4
 585 0078 DCE7     		b	.L43
 586              	.LVL77:
 587              	.L63:
  77:../Switch/core/yt/yt_storm_ctrl.c ****     CMM_PARAM_CHK((!(CMM_PORT_VALID(unit,port))), CMM_ERR_PORT);
 588              		.loc 1 77 5 discriminator 3 view .LVU169
 589              	.LBB12:
  77:../Switch/core/yt/yt_storm_ctrl.c ****     CMM_PARAM_CHK((!(CMM_PORT_VALID(unit,port))), CMM_ERR_PORT);
 590              		.loc 1 77 5 discriminator 3 view .LVU170
 591 007a 164B     		ldr	r3, .L66+16
 592 007c 1A69     		ldr	r2, [r3, #16]
 593              	.LVL78:
  77:../Switch/core/yt/yt_storm_ctrl.c ****     CMM_PARAM_CHK((!(CMM_PORT_VALID(unit,port))), CMM_ERR_PORT);
 594              		.loc 1 77 5 is_stmt 0 discriminator 3 view .LVU171
 595 007e 164B     		ldr	r3, .L66+20
 596 0080 9968     		ldr	r1, [r3, #8]
 597              	.LVL79:
  77:../Switch/core/yt/yt_storm_ctrl.c ****     CMM_PARAM_CHK((!(CMM_PORT_VALID(unit,port))), CMM_ERR_PORT);
 598              		.loc 1 77 5 discriminator 3 view .LVU172
 599 0082 1648     		ldr	r0, .L66+24
 600 0084 FFF7FEFF 		bl	osal_printf
 601              	.LVL80:
 602 0088 F5E7     		b	.L50
 603              	.LVL81:
 604              	.L51:
  77:../Switch/core/yt/yt_storm_ctrl.c ****     CMM_PARAM_CHK((!(CMM_PORT_VALID(unit,port))), CMM_ERR_PORT);
 605              		.loc 1 77 5 discriminator 3 view .LVU173
 606              	.LBE12:
  78:../Switch/core/yt/yt_storm_ctrl.c ****     CMM_PARAM_CHK((NULL == pEnable), CMM_ERR_NULL_POINT);
 607              		.loc 1 78 5 is_stmt 1 discriminator 3 view .LVU174
  78:../Switch/core/yt/yt_storm_ctrl.c ****     CMM_PARAM_CHK((NULL == pEnable), CMM_ERR_NULL_POINT);
 608              		.loc 1 78 5 discriminator 3 view .LVU175
 609 008a 114B     		ldr	r3, .L66+12
 610              	.LVL82:
  78:../Switch/core/yt/yt_storm_ctrl.c ****     CMM_PARAM_CHK((NULL == pEnable), CMM_ERR_NULL_POINT);
 611              		.loc 1 78 5 is_stmt 0 discriminator 3 view .LVU176
 612 008c 1B78     		ldrb	r3, [r3]	@ zero_extendqisi2
 613 008e 012B     		cmp	r3, #1
 614 0090 01D8     		bhi	.L64
 615              	.LVL83:
 616              	.L53:
  78:../Switch/core/yt/yt_storm_ctrl.c ****     CMM_PARAM_CHK((NULL == pEnable), CMM_ERR_NULL_POINT);
 617              		.loc 1 78 5 is_stmt 1 discriminator 7 view .LVU177
  78:../Switch/core/yt/yt_storm_ctrl.c ****     CMM_PARAM_CHK((NULL == pEnable), CMM_ERR_NULL_POINT);
 618              		.loc 1 78 5 discriminator 7 view .LVU178
  78:../Switch/core/yt/yt_storm_ctrl.c ****     CMM_PARAM_CHK((NULL == pEnable), CMM_ERR_NULL_POINT);
 619              		.loc 1 78 5 discriminator 7 view .LVU179
 620 0092 0E20     		movs	r0, #14
 621 0094 CEE7     		b	.L43
 622              	.LVL84:
 623              	.L64:
  78:../Switch/core/yt/yt_storm_ctrl.c ****     CMM_PARAM_CHK((NULL == pEnable), CMM_ERR_NULL_POINT);
 624              		.loc 1 78 5 discriminator 5 view .LVU180
 625              	.LBB13:
  78:../Switch/core/yt/yt_storm_ctrl.c ****     CMM_PARAM_CHK((NULL == pEnable), CMM_ERR_NULL_POINT);
 626              		.loc 1 78 5 discriminator 5 view .LVU181
 627 0096 0F4B     		ldr	r3, .L66+16
 628 0098 9A6B     		ldr	r2, [r3, #56]
 629              	.LVL85:
  78:../Switch/core/yt/yt_storm_ctrl.c ****     CMM_PARAM_CHK((NULL == pEnable), CMM_ERR_NULL_POINT);
 630              		.loc 1 78 5 is_stmt 0 discriminator 5 view .LVU182
 631 009a 0F4B     		ldr	r3, .L66+20
 632 009c 9968     		ldr	r1, [r3, #8]
 633              	.LVL86:
  78:../Switch/core/yt/yt_storm_ctrl.c ****     CMM_PARAM_CHK((NULL == pEnable), CMM_ERR_NULL_POINT);
 634              		.loc 1 78 5 discriminator 5 view .LVU183
 635 009e 0F48     		ldr	r0, .L66+24
 636 00a0 FFF7FEFF 		bl	osal_printf
 637              	.LVL87:
 638 00a4 F5E7     		b	.L53
 639              	.LVL88:
 640              	.L60:
  78:../Switch/core/yt/yt_storm_ctrl.c ****     CMM_PARAM_CHK((NULL == pEnable), CMM_ERR_NULL_POINT);
 641              		.loc 1 78 5 discriminator 5 view .LVU184
 642              	.LBE13:
  79:../Switch/core/yt/yt_storm_ctrl.c **** 
 643              		.loc 1 79 5 is_stmt 1 discriminator 1 view .LVU185
  79:../Switch/core/yt/yt_storm_ctrl.c **** 
 644              		.loc 1 79 5 discriminator 1 view .LVU186
 645 00a6 0A4B     		ldr	r3, .L66+12
 646              	.LVL89:
  79:../Switch/core/yt/yt_storm_ctrl.c **** 
 647              		.loc 1 79 5 is_stmt 0 discriminator 1 view .LVU187
 648 00a8 1B78     		ldrb	r3, [r3]	@ zero_extendqisi2
 649 00aa 012B     		cmp	r3, #1
 650 00ac 01D8     		bhi	.L65
 651              	.LVL90:
 652              	.L55:
  79:../Switch/core/yt/yt_storm_ctrl.c **** 
 653              		.loc 1 79 5 is_stmt 1 discriminator 5 view .LVU188
  79:../Switch/core/yt/yt_storm_ctrl.c **** 
 654              		.loc 1 79 5 discriminator 5 view .LVU189
  79:../Switch/core/yt/yt_storm_ctrl.c **** 
 655              		.loc 1 79 5 discriminator 5 view .LVU190
 656 00ae 0220     		movs	r0, #2
 657 00b0 C0E7     		b	.L43
 658              	.LVL91:
 659              	.L65:
  79:../Switch/core/yt/yt_storm_ctrl.c **** 
 660              		.loc 1 79 5 discriminator 3 view .LVU191
 661              	.LBB14:
  79:../Switch/core/yt/yt_storm_ctrl.c **** 
 662              		.loc 1 79 5 discriminator 3 view .LVU192
 663 00b2 084B     		ldr	r3, .L66+16
 664 00b4 9A68     		ldr	r2, [r3, #8]
 665              	.LVL92:
  79:../Switch/core/yt/yt_storm_ctrl.c **** 
 666              		.loc 1 79 5 is_stmt 0 discriminator 3 view .LVU193
 667 00b6 084B     		ldr	r3, .L66+20
 668 00b8 9968     		ldr	r1, [r3, #8]
 669              	.LVL93:
  79:../Switch/core/yt/yt_storm_ctrl.c **** 
 670              		.loc 1 79 5 discriminator 3 view .LVU194
 671 00ba 0848     		ldr	r0, .L66+24
 672 00bc FFF7FEFF 		bl	osal_printf
 673              	.LVL94:
 674 00c0 F5E7     		b	.L55
 675              	.L67:
 676 00c2 00BF     		.align	2
 677              	.L66:
 678 00c4 00000000 		.word	gpfal_dispatch
 679 00c8 00000000 		.word	gcal_inited
 680 00cc 00000000 		.word	gpSwitchUnit
 681 00d0 00000000 		.word	yt_debug_level
 682 00d4 00000000 		.word	_yt_errmsg
 683 00d8 00000000 		.word	_yt_prompt_msg
 684 00dc 00000000 		.word	.LC0
 685              	.LBE14:
 686              		.cfi_endproc
 687              	.LFE5:
 689              		.section	.text.yt_storm_ctrl_rate_mode_set,"ax",%progbits
 690              		.align	1
 691              		.global	yt_storm_ctrl_rate_mode_set
 692              		.syntax unified
 693              		.thumb
 694              		.thumb_func
 696              	yt_storm_ctrl_rate_mode_set:
 697              	.LVL95:
 698              	.LFB6:
  83:../Switch/core/yt/yt_storm_ctrl.c **** 
  84:../Switch/core/yt/yt_storm_ctrl.c **** /**
  85:../Switch/core/yt/yt_storm_ctrl.c ****  * @internal      yt_storm_ctrl_rate_mode_set
  86:../Switch/core/yt/yt_storm_ctrl.c ****  * @endinternal
  87:../Switch/core/yt/yt_storm_ctrl.c ****  *
  88:../Switch/core/yt/yt_storm_ctrl.c ****  * @brief         Description
  89:../Switch/core/yt/yt_storm_ctrl.c ****  * @param[in]     unit                -unit id
  90:../Switch/core/yt/yt_storm_ctrl.c ****  * @param[in]     port                -port num
  91:../Switch/core/yt/yt_storm_ctrl.c ****  * @param[in]     storm_type          -storm type,refer to yt_storm_type_t
  92:../Switch/core/yt/yt_storm_ctrl.c ****  * @param[in]     rate_mode           -storm rate mode,byte or packet
  93:../Switch/core/yt/yt_storm_ctrl.c ****  * @retval        CMM_ERR_OK          -on success
  94:../Switch/core/yt/yt_storm_ctrl.c ****  * @retval        CMM_ERR_FAIL        -on fail
  95:../Switch/core/yt/yt_storm_ctrl.c ****  */
  96:../Switch/core/yt/yt_storm_ctrl.c **** yt_ret_t yt_storm_ctrl_rate_mode_set(yt_unit_t unit, yt_port_t port, yt_storm_type_t storm_type, yt
  97:../Switch/core/yt/yt_storm_ctrl.c **** {
 699              		.loc 1 97 1 is_stmt 1 view -0
 700              		.cfi_startproc
 701              		@ args = 0, pretend = 0, frame = 0
 702              		@ frame_needed = 0, uses_anonymous_args = 0
 703              		.loc 1 97 1 is_stmt 0 view .LVU196
 704 0000 10B5     		push	{r4, lr}
 705              		.cfi_def_cfa_offset 8
 706              		.cfi_offset 4, -8
 707              		.cfi_offset 14, -4
  98:../Switch/core/yt/yt_storm_ctrl.c ****     CMM_PARAM_CHK((YT_UNIT_NUM <= unit), CMM_ERR_INPUT);
 708              		.loc 1 98 5 is_stmt 1 view .LVU197
 709              		.loc 1 98 5 view .LVU198
 710 0002 C0B9     		cbnz	r0, .L82
 711 0004 8446     		mov	ip, r0
 712              		.loc 1 98 5 discriminator 2 view .LVU199
  99:../Switch/core/yt/yt_storm_ctrl.c ****     CMM_PARAM_CHK(NULL == YT_DISPATCH(unit), CMM_ERR_NOT_INIT);
 713              		.loc 1 99 5 discriminator 2 view .LVU200
 714              		.loc 1 99 5 discriminator 2 view .LVU201
 715 0006 2F48     		ldr	r0, .L91
 716              	.LVL96:
 717              		.loc 1 99 5 is_stmt 0 discriminator 2 view .LVU202
 718 0008 50F82C40 		ldr	r4, [r0, ip, lsl #2]
 719 000c 0CB3     		cbz	r4, .L83
 720              		.loc 1 99 5 is_stmt 1 discriminator 2 view .LVU203
 100:../Switch/core/yt/yt_storm_ctrl.c ****     CMM_PARAM_CHK((!(YT_DISPATCH(unit)->is_inited)), CMM_ERR_NOT_INIT);
 721              		.loc 1 100 5 discriminator 2 view .LVU204
 722              		.loc 1 100 5 discriminator 2 view .LVU205
 723 000e 2078     		ldrb	r0, [r4]	@ zero_extendqisi2
 724 0010 0028     		cmp	r0, #0
 725 0012 2CD0     		beq	.L84
 726              		.loc 1 100 5 discriminator 2 view .LVU206
 101:../Switch/core/yt/yt_storm_ctrl.c ****     CMM_PARAM_CHK((!(CMM_PORT_VALID(unit,port))), CMM_ERR_PORT);
 727              		.loc 1 101 5 discriminator 2 view .LVU207
 728              		.loc 1 101 5 discriminator 2 view .LVU208
 729 0014 2C48     		ldr	r0, .L91+4
 730 0016 0078     		ldrb	r0, [r0]	@ zero_extendqisi2
 731 0018 0028     		cmp	r0, #0
 732 001a 36D0     		beq	.L76
 733 001c 2B48     		ldr	r0, .L91+8
 734 001e 50F82C00 		ldr	r0, [r0, ip, lsl #2]
 735 0022 007D     		ldrb	r0, [r0, #20]	@ zero_extendqisi2
 736 0024 8842     		cmp	r0, r1
 737 0026 30D9     		bls	.L76
 738              		.loc 1 101 5 discriminator 4 view .LVU209
 102:../Switch/core/yt/yt_storm_ctrl.c ****     CMM_PARAM_CHK((STORM_RATE_MODE_PACKET< rate_mode || STORM_RATE_MODE_BYTE > rate_mode), CMM_ERR_
 739              		.loc 1 102 5 discriminator 4 view .LVU210
 740              		.loc 1 102 5 discriminator 4 view .LVU211
 741 0028 012B     		cmp	r3, #1
 742 002a 3CD8     		bhi	.L85
 743              		.loc 1 102 5 discriminator 2 view .LVU212
 103:../Switch/core/yt/yt_storm_ctrl.c **** 
 104:../Switch/core/yt/yt_storm_ctrl.c ****     return YT_DISPATCH(unit)->storm_ctrl_rate_mode_set(unit, port, storm_type, rate_mode);
 744              		.loc 1 104 5 discriminator 2 view .LVU213
 745              		.loc 1 104 29 is_stmt 0 discriminator 2 view .LVU214
 746 002c D4F81443 		ldr	r4, [r4, #788]
 747              		.loc 1 104 12 discriminator 2 view .LVU215
 748 0030 6046     		mov	r0, ip
 749 0032 A047     		blx	r4
 750              	.LVL97:
 751              	.L68:
 105:../Switch/core/yt/yt_storm_ctrl.c **** }
 752              		.loc 1 105 1 view .LVU216
 753 0034 10BD     		pop	{r4, pc}
 754              	.LVL98:
 755              	.L82:
  98:../Switch/core/yt/yt_storm_ctrl.c ****     CMM_PARAM_CHK(NULL == YT_DISPATCH(unit), CMM_ERR_NOT_INIT);
 756              		.loc 1 98 5 is_stmt 1 discriminator 1 view .LVU217
  98:../Switch/core/yt/yt_storm_ctrl.c ****     CMM_PARAM_CHK(NULL == YT_DISPATCH(unit), CMM_ERR_NOT_INIT);
 757              		.loc 1 98 5 discriminator 1 view .LVU218
 758 0036 264B     		ldr	r3, .L91+12
 759              	.LVL99:
  98:../Switch/core/yt/yt_storm_ctrl.c ****     CMM_PARAM_CHK(NULL == YT_DISPATCH(unit), CMM_ERR_NOT_INIT);
 760              		.loc 1 98 5 is_stmt 0 discriminator 1 view .LVU219
 761 0038 1B78     		ldrb	r3, [r3]	@ zero_extendqisi2
 762 003a 012B     		cmp	r3, #1
 763 003c 01D8     		bhi	.L86
 764              	.LVL100:
 765              	.L70:
  98:../Switch/core/yt/yt_storm_ctrl.c ****     CMM_PARAM_CHK(NULL == YT_DISPATCH(unit), CMM_ERR_NOT_INIT);
 766              		.loc 1 98 5 is_stmt 1 discriminator 5 view .LVU220
  98:../Switch/core/yt/yt_storm_ctrl.c ****     CMM_PARAM_CHK(NULL == YT_DISPATCH(unit), CMM_ERR_NOT_INIT);
 767              		.loc 1 98 5 discriminator 5 view .LVU221
  98:../Switch/core/yt/yt_storm_ctrl.c ****     CMM_PARAM_CHK(NULL == YT_DISPATCH(unit), CMM_ERR_NOT_INIT);
 768              		.loc 1 98 5 discriminator 5 view .LVU222
 769 003e 0520     		movs	r0, #5
 770 0040 F8E7     		b	.L68
 771              	.LVL101:
 772              	.L86:
  98:../Switch/core/yt/yt_storm_ctrl.c ****     CMM_PARAM_CHK(NULL == YT_DISPATCH(unit), CMM_ERR_NOT_INIT);
 773              		.loc 1 98 5 discriminator 3 view .LVU223
 774              	.LBB15:
  98:../Switch/core/yt/yt_storm_ctrl.c ****     CMM_PARAM_CHK(NULL == YT_DISPATCH(unit), CMM_ERR_NOT_INIT);
 775              		.loc 1 98 5 discriminator 3 view .LVU224
 776 0042 244B     		ldr	r3, .L91+16
 777 0044 5A69     		ldr	r2, [r3, #20]
 778              	.LVL102:
  98:../Switch/core/yt/yt_storm_ctrl.c ****     CMM_PARAM_CHK(NULL == YT_DISPATCH(unit), CMM_ERR_NOT_INIT);
 779              		.loc 1 98 5 is_stmt 0 discriminator 3 view .LVU225
 780 0046 244B     		ldr	r3, .L91+20
 781 0048 9968     		ldr	r1, [r3, #8]
 782              	.LVL103:
  98:../Switch/core/yt/yt_storm_ctrl.c ****     CMM_PARAM_CHK(NULL == YT_DISPATCH(unit), CMM_ERR_NOT_INIT);
 783              		.loc 1 98 5 discriminator 3 view .LVU226
 784 004a 2448     		ldr	r0, .L91+24
 785              	.LVL104:
  98:../Switch/core/yt/yt_storm_ctrl.c ****     CMM_PARAM_CHK(NULL == YT_DISPATCH(unit), CMM_ERR_NOT_INIT);
 786              		.loc 1 98 5 discriminator 3 view .LVU227
 787 004c FFF7FEFF 		bl	osal_printf
 788              	.LVL105:
 789 0050 F5E7     		b	.L70
 790              	.LVL106:
 791              	.L83:
  98:../Switch/core/yt/yt_storm_ctrl.c ****     CMM_PARAM_CHK(NULL == YT_DISPATCH(unit), CMM_ERR_NOT_INIT);
 792              		.loc 1 98 5 discriminator 3 view .LVU228
 793              	.LBE15:
  99:../Switch/core/yt/yt_storm_ctrl.c ****     CMM_PARAM_CHK((!(YT_DISPATCH(unit)->is_inited)), CMM_ERR_NOT_INIT);
 794              		.loc 1 99 5 is_stmt 1 discriminator 1 view .LVU229
  99:../Switch/core/yt/yt_storm_ctrl.c ****     CMM_PARAM_CHK((!(YT_DISPATCH(unit)->is_inited)), CMM_ERR_NOT_INIT);
 795              		.loc 1 99 5 discriminator 1 view .LVU230
 796 0052 1F4B     		ldr	r3, .L91+12
 797              	.LVL107:
  99:../Switch/core/yt/yt_storm_ctrl.c ****     CMM_PARAM_CHK((!(YT_DISPATCH(unit)->is_inited)), CMM_ERR_NOT_INIT);
 798              		.loc 1 99 5 is_stmt 0 discriminator 1 view .LVU231
 799 0054 1B78     		ldrb	r3, [r3]	@ zero_extendqisi2
 800 0056 012B     		cmp	r3, #1
 801 0058 01D8     		bhi	.L87
 802              	.LVL108:
 803              	.L73:
  99:../Switch/core/yt/yt_storm_ctrl.c ****     CMM_PARAM_CHK((!(YT_DISPATCH(unit)->is_inited)), CMM_ERR_NOT_INIT);
 804              		.loc 1 99 5 is_stmt 1 discriminator 5 view .LVU232
  99:../Switch/core/yt/yt_storm_ctrl.c ****     CMM_PARAM_CHK((!(YT_DISPATCH(unit)->is_inited)), CMM_ERR_NOT_INIT);
 805              		.loc 1 99 5 discriminator 5 view .LVU233
  99:../Switch/core/yt/yt_storm_ctrl.c ****     CMM_PARAM_CHK((!(YT_DISPATCH(unit)->is_inited)), CMM_ERR_NOT_INIT);
 806              		.loc 1 99 5 discriminator 5 view .LVU234
 807 005a 0420     		movs	r0, #4
 808 005c EAE7     		b	.L68
 809              	.LVL109:
 810              	.L87:
  99:../Switch/core/yt/yt_storm_ctrl.c ****     CMM_PARAM_CHK((!(YT_DISPATCH(unit)->is_inited)), CMM_ERR_NOT_INIT);
 811              		.loc 1 99 5 discriminator 3 view .LVU235
 812              	.LBB16:
  99:../Switch/core/yt/yt_storm_ctrl.c ****     CMM_PARAM_CHK((!(YT_DISPATCH(unit)->is_inited)), CMM_ERR_NOT_INIT);
 813              		.loc 1 99 5 discriminator 3 view .LVU236
 814 005e 1D4B     		ldr	r3, .L91+16
 815 0060 1A69     		ldr	r2, [r3, #16]
 816              	.LVL110:
  99:../Switch/core/yt/yt_storm_ctrl.c ****     CMM_PARAM_CHK((!(YT_DISPATCH(unit)->is_inited)), CMM_ERR_NOT_INIT);
 817              		.loc 1 99 5 is_stmt 0 discriminator 3 view .LVU237
 818 0062 1D4B     		ldr	r3, .L91+20
 819 0064 9968     		ldr	r1, [r3, #8]
 820              	.LVL111:
  99:../Switch/core/yt/yt_storm_ctrl.c ****     CMM_PARAM_CHK((!(YT_DISPATCH(unit)->is_inited)), CMM_ERR_NOT_INIT);
 821              		.loc 1 99 5 discriminator 3 view .LVU238
 822 0066 1D48     		ldr	r0, .L91+24
 823 0068 FFF7FEFF 		bl	osal_printf
 824              	.LVL112:
 825 006c F5E7     		b	.L73
 826              	.LVL113:
 827              	.L84:
  99:../Switch/core/yt/yt_storm_ctrl.c ****     CMM_PARAM_CHK((!(YT_DISPATCH(unit)->is_inited)), CMM_ERR_NOT_INIT);
 828              		.loc 1 99 5 discriminator 3 view .LVU239
 829              	.LBE16:
 100:../Switch/core/yt/yt_storm_ctrl.c ****     CMM_PARAM_CHK((!(CMM_PORT_VALID(unit,port))), CMM_ERR_PORT);
 830              		.loc 1 100 5 is_stmt 1 discriminator 1 view .LVU240
 100:../Switch/core/yt/yt_storm_ctrl.c ****     CMM_PARAM_CHK((!(CMM_PORT_VALID(unit,port))), CMM_ERR_PORT);
 831              		.loc 1 100 5 discriminator 1 view .LVU241
 832 006e 184B     		ldr	r3, .L91+12
 833              	.LVL114:
 100:../Switch/core/yt/yt_storm_ctrl.c ****     CMM_PARAM_CHK((!(CMM_PORT_VALID(unit,port))), CMM_ERR_PORT);
 834              		.loc 1 100 5 is_stmt 0 discriminator 1 view .LVU242
 835 0070 1B78     		ldrb	r3, [r3]	@ zero_extendqisi2
 836 0072 012B     		cmp	r3, #1
 837 0074 01D8     		bhi	.L88
 838              	.LVL115:
 839              	.L75:
 100:../Switch/core/yt/yt_storm_ctrl.c ****     CMM_PARAM_CHK((!(CMM_PORT_VALID(unit,port))), CMM_ERR_PORT);
 840              		.loc 1 100 5 is_stmt 1 discriminator 5 view .LVU243
 100:../Switch/core/yt/yt_storm_ctrl.c ****     CMM_PARAM_CHK((!(CMM_PORT_VALID(unit,port))), CMM_ERR_PORT);
 841              		.loc 1 100 5 discriminator 5 view .LVU244
 100:../Switch/core/yt/yt_storm_ctrl.c ****     CMM_PARAM_CHK((!(CMM_PORT_VALID(unit,port))), CMM_ERR_PORT);
 842              		.loc 1 100 5 discriminator 5 view .LVU245
 843 0076 0420     		movs	r0, #4
 844 0078 DCE7     		b	.L68
 845              	.LVL116:
 846              	.L88:
 100:../Switch/core/yt/yt_storm_ctrl.c ****     CMM_PARAM_CHK((!(CMM_PORT_VALID(unit,port))), CMM_ERR_PORT);
 847              		.loc 1 100 5 discriminator 3 view .LVU246
 848              	.LBB17:
 100:../Switch/core/yt/yt_storm_ctrl.c ****     CMM_PARAM_CHK((!(CMM_PORT_VALID(unit,port))), CMM_ERR_PORT);
 849              		.loc 1 100 5 discriminator 3 view .LVU247
 850 007a 164B     		ldr	r3, .L91+16
 851 007c 1A69     		ldr	r2, [r3, #16]
 852              	.LVL117:
 100:../Switch/core/yt/yt_storm_ctrl.c ****     CMM_PARAM_CHK((!(CMM_PORT_VALID(unit,port))), CMM_ERR_PORT);
 853              		.loc 1 100 5 is_stmt 0 discriminator 3 view .LVU248
 854 007e 164B     		ldr	r3, .L91+20
 855 0080 9968     		ldr	r1, [r3, #8]
 856              	.LVL118:
 100:../Switch/core/yt/yt_storm_ctrl.c ****     CMM_PARAM_CHK((!(CMM_PORT_VALID(unit,port))), CMM_ERR_PORT);
 857              		.loc 1 100 5 discriminator 3 view .LVU249
 858 0082 1648     		ldr	r0, .L91+24
 859 0084 FFF7FEFF 		bl	osal_printf
 860              	.LVL119:
 861 0088 F5E7     		b	.L75
 862              	.LVL120:
 863              	.L76:
 100:../Switch/core/yt/yt_storm_ctrl.c ****     CMM_PARAM_CHK((!(CMM_PORT_VALID(unit,port))), CMM_ERR_PORT);
 864              		.loc 1 100 5 discriminator 3 view .LVU250
 865              	.LBE17:
 101:../Switch/core/yt/yt_storm_ctrl.c ****     CMM_PARAM_CHK((STORM_RATE_MODE_PACKET< rate_mode || STORM_RATE_MODE_BYTE > rate_mode), CMM_ERR_
 866              		.loc 1 101 5 is_stmt 1 discriminator 3 view .LVU251
 101:../Switch/core/yt/yt_storm_ctrl.c ****     CMM_PARAM_CHK((STORM_RATE_MODE_PACKET< rate_mode || STORM_RATE_MODE_BYTE > rate_mode), CMM_ERR_
 867              		.loc 1 101 5 discriminator 3 view .LVU252
 868 008a 114B     		ldr	r3, .L91+12
 869              	.LVL121:
 101:../Switch/core/yt/yt_storm_ctrl.c ****     CMM_PARAM_CHK((STORM_RATE_MODE_PACKET< rate_mode || STORM_RATE_MODE_BYTE > rate_mode), CMM_ERR_
 870              		.loc 1 101 5 is_stmt 0 discriminator 3 view .LVU253
 871 008c 1B78     		ldrb	r3, [r3]	@ zero_extendqisi2
 872 008e 012B     		cmp	r3, #1
 873 0090 01D8     		bhi	.L89
 874              	.LVL122:
 875              	.L78:
 101:../Switch/core/yt/yt_storm_ctrl.c ****     CMM_PARAM_CHK((STORM_RATE_MODE_PACKET< rate_mode || STORM_RATE_MODE_BYTE > rate_mode), CMM_ERR_
 876              		.loc 1 101 5 is_stmt 1 discriminator 7 view .LVU254
 101:../Switch/core/yt/yt_storm_ctrl.c ****     CMM_PARAM_CHK((STORM_RATE_MODE_PACKET< rate_mode || STORM_RATE_MODE_BYTE > rate_mode), CMM_ERR_
 877              		.loc 1 101 5 discriminator 7 view .LVU255
 101:../Switch/core/yt/yt_storm_ctrl.c ****     CMM_PARAM_CHK((STORM_RATE_MODE_PACKET< rate_mode || STORM_RATE_MODE_BYTE > rate_mode), CMM_ERR_
 878              		.loc 1 101 5 discriminator 7 view .LVU256
 879 0092 0E20     		movs	r0, #14
 880 0094 CEE7     		b	.L68
 881              	.LVL123:
 882              	.L89:
 101:../Switch/core/yt/yt_storm_ctrl.c ****     CMM_PARAM_CHK((STORM_RATE_MODE_PACKET< rate_mode || STORM_RATE_MODE_BYTE > rate_mode), CMM_ERR_
 883              		.loc 1 101 5 discriminator 5 view .LVU257
 884              	.LBB18:
 101:../Switch/core/yt/yt_storm_ctrl.c ****     CMM_PARAM_CHK((STORM_RATE_MODE_PACKET< rate_mode || STORM_RATE_MODE_BYTE > rate_mode), CMM_ERR_
 885              		.loc 1 101 5 discriminator 5 view .LVU258
 886 0096 0F4B     		ldr	r3, .L91+16
 887 0098 9A6B     		ldr	r2, [r3, #56]
 888              	.LVL124:
 101:../Switch/core/yt/yt_storm_ctrl.c ****     CMM_PARAM_CHK((STORM_RATE_MODE_PACKET< rate_mode || STORM_RATE_MODE_BYTE > rate_mode), CMM_ERR_
 889              		.loc 1 101 5 is_stmt 0 discriminator 5 view .LVU259
 890 009a 0F4B     		ldr	r3, .L91+20
 891 009c 9968     		ldr	r1, [r3, #8]
 892              	.LVL125:
 101:../Switch/core/yt/yt_storm_ctrl.c ****     CMM_PARAM_CHK((STORM_RATE_MODE_PACKET< rate_mode || STORM_RATE_MODE_BYTE > rate_mode), CMM_ERR_
 893              		.loc 1 101 5 discriminator 5 view .LVU260
 894 009e 0F48     		ldr	r0, .L91+24
 895 00a0 FFF7FEFF 		bl	osal_printf
 896              	.LVL126:
 897 00a4 F5E7     		b	.L78
 898              	.LVL127:
 899              	.L85:
 101:../Switch/core/yt/yt_storm_ctrl.c ****     CMM_PARAM_CHK((STORM_RATE_MODE_PACKET< rate_mode || STORM_RATE_MODE_BYTE > rate_mode), CMM_ERR_
 900              		.loc 1 101 5 discriminator 5 view .LVU261
 901              	.LBE18:
 102:../Switch/core/yt/yt_storm_ctrl.c **** 
 902              		.loc 1 102 5 is_stmt 1 discriminator 1 view .LVU262
 102:../Switch/core/yt/yt_storm_ctrl.c **** 
 903              		.loc 1 102 5 discriminator 1 view .LVU263
 904 00a6 0A4B     		ldr	r3, .L91+12
 905              	.LVL128:
 102:../Switch/core/yt/yt_storm_ctrl.c **** 
 906              		.loc 1 102 5 is_stmt 0 discriminator 1 view .LVU264
 907 00a8 1B78     		ldrb	r3, [r3]	@ zero_extendqisi2
 908 00aa 012B     		cmp	r3, #1
 909 00ac 01D8     		bhi	.L90
 910              	.LVL129:
 911              	.L80:
 102:../Switch/core/yt/yt_storm_ctrl.c **** 
 912              		.loc 1 102 5 is_stmt 1 discriminator 5 view .LVU265
 102:../Switch/core/yt/yt_storm_ctrl.c **** 
 913              		.loc 1 102 5 discriminator 5 view .LVU266
 102:../Switch/core/yt/yt_storm_ctrl.c **** 
 914              		.loc 1 102 5 discriminator 5 view .LVU267
 915 00ae 0520     		movs	r0, #5
 916 00b0 C0E7     		b	.L68
 917              	.LVL130:
 918              	.L90:
 102:../Switch/core/yt/yt_storm_ctrl.c **** 
 919              		.loc 1 102 5 discriminator 3 view .LVU268
 920              	.LBB19:
 102:../Switch/core/yt/yt_storm_ctrl.c **** 
 921              		.loc 1 102 5 discriminator 3 view .LVU269
 922 00b2 084B     		ldr	r3, .L91+16
 923 00b4 5A69     		ldr	r2, [r3, #20]
 924              	.LVL131:
 102:../Switch/core/yt/yt_storm_ctrl.c **** 
 925              		.loc 1 102 5 is_stmt 0 discriminator 3 view .LVU270
 926 00b6 084B     		ldr	r3, .L91+20
 927 00b8 9968     		ldr	r1, [r3, #8]
 928              	.LVL132:
 102:../Switch/core/yt/yt_storm_ctrl.c **** 
 929              		.loc 1 102 5 discriminator 3 view .LVU271
 930 00ba 0848     		ldr	r0, .L91+24
 931 00bc FFF7FEFF 		bl	osal_printf
 932              	.LVL133:
 933 00c0 F5E7     		b	.L80
 934              	.L92:
 935 00c2 00BF     		.align	2
 936              	.L91:
 937 00c4 00000000 		.word	gpfal_dispatch
 938 00c8 00000000 		.word	gcal_inited
 939 00cc 00000000 		.word	gpSwitchUnit
 940 00d0 00000000 		.word	yt_debug_level
 941 00d4 00000000 		.word	_yt_errmsg
 942 00d8 00000000 		.word	_yt_prompt_msg
 943 00dc 00000000 		.word	.LC0
 944              	.LBE19:
 945              		.cfi_endproc
 946              	.LFE6:
 948              		.section	.text.yt_storm_ctrl_rate_mode_get,"ax",%progbits
 949              		.align	1
 950              		.global	yt_storm_ctrl_rate_mode_get
 951              		.syntax unified
 952              		.thumb
 953              		.thumb_func
 955              	yt_storm_ctrl_rate_mode_get:
 956              	.LVL134:
 957              	.LFB7:
 106:../Switch/core/yt/yt_storm_ctrl.c **** 
 107:../Switch/core/yt/yt_storm_ctrl.c **** /**
 108:../Switch/core/yt/yt_storm_ctrl.c ****  * @internal      yt_storm_ctrl_rate_mode_get
 109:../Switch/core/yt/yt_storm_ctrl.c ****  * @endinternal
 110:../Switch/core/yt/yt_storm_ctrl.c ****  *
 111:../Switch/core/yt/yt_storm_ctrl.c ****  * @brief         Description
 112:../Switch/core/yt/yt_storm_ctrl.c ****  * @param[in]     unit                -unit id
 113:../Switch/core/yt/yt_storm_ctrl.c ****  * @param[in]     port                -port num
 114:../Switch/core/yt/yt_storm_ctrl.c ****  * @param[in]     storm_type          -storm type,refer to yt_storm_type_t
 115:../Switch/core/yt/yt_storm_ctrl.c ****  * @param[out]    pRate_mode         -storm rate mode,byte or packet
 116:../Switch/core/yt/yt_storm_ctrl.c ****  * @retval        CMM_ERR_OK          -on success
 117:../Switch/core/yt/yt_storm_ctrl.c ****  * @retval        CMM_ERR_FAIL        -on fail
 118:../Switch/core/yt/yt_storm_ctrl.c ****  */
 119:../Switch/core/yt/yt_storm_ctrl.c **** yt_ret_t yt_storm_ctrl_rate_mode_get(yt_unit_t unit, yt_port_t port, yt_storm_type_t storm_type, yt
 120:../Switch/core/yt/yt_storm_ctrl.c **** {
 958              		.loc 1 120 1 is_stmt 1 view -0
 959              		.cfi_startproc
 960              		@ args = 0, pretend = 0, frame = 0
 961              		@ frame_needed = 0, uses_anonymous_args = 0
 962              		.loc 1 120 1 is_stmt 0 view .LVU273
 963 0000 10B5     		push	{r4, lr}
 964              		.cfi_def_cfa_offset 8
 965              		.cfi_offset 4, -8
 966              		.cfi_offset 14, -4
 121:../Switch/core/yt/yt_storm_ctrl.c ****     CMM_PARAM_CHK((YT_UNIT_NUM <= unit), CMM_ERR_INPUT);
 967              		.loc 1 121 5 is_stmt 1 view .LVU274
 968              		.loc 1 121 5 view .LVU275
 969 0002 C0B9     		cbnz	r0, .L107
 970 0004 8446     		mov	ip, r0
 971              		.loc 1 121 5 discriminator 2 view .LVU276
 122:../Switch/core/yt/yt_storm_ctrl.c ****     CMM_PARAM_CHK(NULL == YT_DISPATCH(unit), CMM_ERR_NOT_INIT);
 972              		.loc 1 122 5 discriminator 2 view .LVU277
 973              		.loc 1 122 5 discriminator 2 view .LVU278
 974 0006 2F48     		ldr	r0, .L116
 975              	.LVL135:
 976              		.loc 1 122 5 is_stmt 0 discriminator 2 view .LVU279
 977 0008 50F82C40 		ldr	r4, [r0, ip, lsl #2]
 978 000c 0CB3     		cbz	r4, .L108
 979              		.loc 1 122 5 is_stmt 1 discriminator 2 view .LVU280
 123:../Switch/core/yt/yt_storm_ctrl.c ****     CMM_PARAM_CHK((!(YT_DISPATCH(unit)->is_inited)), CMM_ERR_NOT_INIT);
 980              		.loc 1 123 5 discriminator 2 view .LVU281
 981              		.loc 1 123 5 discriminator 2 view .LVU282
 982 000e 2078     		ldrb	r0, [r4]	@ zero_extendqisi2
 983 0010 0028     		cmp	r0, #0
 984 0012 2CD0     		beq	.L109
 985              		.loc 1 123 5 discriminator 2 view .LVU283
 124:../Switch/core/yt/yt_storm_ctrl.c ****     CMM_PARAM_CHK((!(CMM_PORT_VALID(unit,port))), CMM_ERR_PORT);
 986              		.loc 1 124 5 discriminator 2 view .LVU284
 987              		.loc 1 124 5 discriminator 2 view .LVU285
 988 0014 2C48     		ldr	r0, .L116+4
 989 0016 0078     		ldrb	r0, [r0]	@ zero_extendqisi2
 990 0018 0028     		cmp	r0, #0
 991 001a 36D0     		beq	.L101
 992 001c 2B48     		ldr	r0, .L116+8
 993 001e 50F82C00 		ldr	r0, [r0, ip, lsl #2]
 994 0022 007D     		ldrb	r0, [r0, #20]	@ zero_extendqisi2
 995 0024 8842     		cmp	r0, r1
 996 0026 30D9     		bls	.L101
 997              		.loc 1 124 5 discriminator 4 view .LVU286
 125:../Switch/core/yt/yt_storm_ctrl.c ****     CMM_PARAM_CHK((NULL == pRate_mode), CMM_ERR_NULL_POINT);
 998              		.loc 1 125 5 discriminator 4 view .LVU287
 999              		.loc 1 125 5 discriminator 4 view .LVU288
 1000 0028 002B     		cmp	r3, #0
 1001 002a 3CD0     		beq	.L110
 1002              		.loc 1 125 5 discriminator 2 view .LVU289
 126:../Switch/core/yt/yt_storm_ctrl.c **** 
 127:../Switch/core/yt/yt_storm_ctrl.c ****     return YT_DISPATCH(unit)->storm_ctrl_rate_mode_get(unit, port, storm_type, pRate_mode);
 1003              		.loc 1 127 5 discriminator 2 view .LVU290
 1004              		.loc 1 127 29 is_stmt 0 discriminator 2 view .LVU291
 1005 002c D4F81843 		ldr	r4, [r4, #792]
 1006              		.loc 1 127 12 discriminator 2 view .LVU292
 1007 0030 6046     		mov	r0, ip
 1008 0032 A047     		blx	r4
 1009              	.LVL136:
 1010              	.L93:
 128:../Switch/core/yt/yt_storm_ctrl.c **** }
 1011              		.loc 1 128 1 view .LVU293
 1012 0034 10BD     		pop	{r4, pc}
 1013              	.LVL137:
 1014              	.L107:
 121:../Switch/core/yt/yt_storm_ctrl.c ****     CMM_PARAM_CHK(NULL == YT_DISPATCH(unit), CMM_ERR_NOT_INIT);
 1015              		.loc 1 121 5 is_stmt 1 discriminator 1 view .LVU294
 121:../Switch/core/yt/yt_storm_ctrl.c ****     CMM_PARAM_CHK(NULL == YT_DISPATCH(unit), CMM_ERR_NOT_INIT);
 1016              		.loc 1 121 5 discriminator 1 view .LVU295
 1017 0036 264B     		ldr	r3, .L116+12
 1018              	.LVL138:
 121:../Switch/core/yt/yt_storm_ctrl.c ****     CMM_PARAM_CHK(NULL == YT_DISPATCH(unit), CMM_ERR_NOT_INIT);
 1019              		.loc 1 121 5 is_stmt 0 discriminator 1 view .LVU296
 1020 0038 1B78     		ldrb	r3, [r3]	@ zero_extendqisi2
 1021 003a 012B     		cmp	r3, #1
 1022 003c 01D8     		bhi	.L111
 1023              	.LVL139:
 1024              	.L95:
 121:../Switch/core/yt/yt_storm_ctrl.c ****     CMM_PARAM_CHK(NULL == YT_DISPATCH(unit), CMM_ERR_NOT_INIT);
 1025              		.loc 1 121 5 is_stmt 1 discriminator 5 view .LVU297
 121:../Switch/core/yt/yt_storm_ctrl.c ****     CMM_PARAM_CHK(NULL == YT_DISPATCH(unit), CMM_ERR_NOT_INIT);
 1026              		.loc 1 121 5 discriminator 5 view .LVU298
 121:../Switch/core/yt/yt_storm_ctrl.c ****     CMM_PARAM_CHK(NULL == YT_DISPATCH(unit), CMM_ERR_NOT_INIT);
 1027              		.loc 1 121 5 discriminator 5 view .LVU299
 1028 003e 0520     		movs	r0, #5
 1029 0040 F8E7     		b	.L93
 1030              	.LVL140:
 1031              	.L111:
 121:../Switch/core/yt/yt_storm_ctrl.c ****     CMM_PARAM_CHK(NULL == YT_DISPATCH(unit), CMM_ERR_NOT_INIT);
 1032              		.loc 1 121 5 discriminator 3 view .LVU300
 1033              	.LBB20:
 121:../Switch/core/yt/yt_storm_ctrl.c ****     CMM_PARAM_CHK(NULL == YT_DISPATCH(unit), CMM_ERR_NOT_INIT);
 1034              		.loc 1 121 5 discriminator 3 view .LVU301
 1035 0042 244B     		ldr	r3, .L116+16
 1036 0044 5A69     		ldr	r2, [r3, #20]
 1037              	.LVL141:
 121:../Switch/core/yt/yt_storm_ctrl.c ****     CMM_PARAM_CHK(NULL == YT_DISPATCH(unit), CMM_ERR_NOT_INIT);
 1038              		.loc 1 121 5 is_stmt 0 discriminator 3 view .LVU302
 1039 0046 244B     		ldr	r3, .L116+20
 1040 0048 9968     		ldr	r1, [r3, #8]
 1041              	.LVL142:
 121:../Switch/core/yt/yt_storm_ctrl.c ****     CMM_PARAM_CHK(NULL == YT_DISPATCH(unit), CMM_ERR_NOT_INIT);
 1042              		.loc 1 121 5 discriminator 3 view .LVU303
 1043 004a 2448     		ldr	r0, .L116+24
 1044              	.LVL143:
 121:../Switch/core/yt/yt_storm_ctrl.c ****     CMM_PARAM_CHK(NULL == YT_DISPATCH(unit), CMM_ERR_NOT_INIT);
 1045              		.loc 1 121 5 discriminator 3 view .LVU304
 1046 004c FFF7FEFF 		bl	osal_printf
 1047              	.LVL144:
 1048 0050 F5E7     		b	.L95
 1049              	.LVL145:
 1050              	.L108:
 121:../Switch/core/yt/yt_storm_ctrl.c ****     CMM_PARAM_CHK(NULL == YT_DISPATCH(unit), CMM_ERR_NOT_INIT);
 1051              		.loc 1 121 5 discriminator 3 view .LVU305
 1052              	.LBE20:
 122:../Switch/core/yt/yt_storm_ctrl.c ****     CMM_PARAM_CHK((!(YT_DISPATCH(unit)->is_inited)), CMM_ERR_NOT_INIT);
 1053              		.loc 1 122 5 is_stmt 1 discriminator 1 view .LVU306
 122:../Switch/core/yt/yt_storm_ctrl.c ****     CMM_PARAM_CHK((!(YT_DISPATCH(unit)->is_inited)), CMM_ERR_NOT_INIT);
 1054              		.loc 1 122 5 discriminator 1 view .LVU307
 1055 0052 1F4B     		ldr	r3, .L116+12
 1056              	.LVL146:
 122:../Switch/core/yt/yt_storm_ctrl.c ****     CMM_PARAM_CHK((!(YT_DISPATCH(unit)->is_inited)), CMM_ERR_NOT_INIT);
 1057              		.loc 1 122 5 is_stmt 0 discriminator 1 view .LVU308
 1058 0054 1B78     		ldrb	r3, [r3]	@ zero_extendqisi2
 1059 0056 012B     		cmp	r3, #1
 1060 0058 01D8     		bhi	.L112
 1061              	.LVL147:
 1062              	.L98:
 122:../Switch/core/yt/yt_storm_ctrl.c ****     CMM_PARAM_CHK((!(YT_DISPATCH(unit)->is_inited)), CMM_ERR_NOT_INIT);
 1063              		.loc 1 122 5 is_stmt 1 discriminator 5 view .LVU309
 122:../Switch/core/yt/yt_storm_ctrl.c ****     CMM_PARAM_CHK((!(YT_DISPATCH(unit)->is_inited)), CMM_ERR_NOT_INIT);
 1064              		.loc 1 122 5 discriminator 5 view .LVU310
 122:../Switch/core/yt/yt_storm_ctrl.c ****     CMM_PARAM_CHK((!(YT_DISPATCH(unit)->is_inited)), CMM_ERR_NOT_INIT);
 1065              		.loc 1 122 5 discriminator 5 view .LVU311
 1066 005a 0420     		movs	r0, #4
 1067 005c EAE7     		b	.L93
 1068              	.LVL148:
 1069              	.L112:
 122:../Switch/core/yt/yt_storm_ctrl.c ****     CMM_PARAM_CHK((!(YT_DISPATCH(unit)->is_inited)), CMM_ERR_NOT_INIT);
 1070              		.loc 1 122 5 discriminator 3 view .LVU312
 1071              	.LBB21:
 122:../Switch/core/yt/yt_storm_ctrl.c ****     CMM_PARAM_CHK((!(YT_DISPATCH(unit)->is_inited)), CMM_ERR_NOT_INIT);
 1072              		.loc 1 122 5 discriminator 3 view .LVU313
 1073 005e 1D4B     		ldr	r3, .L116+16
 1074 0060 1A69     		ldr	r2, [r3, #16]
 1075              	.LVL149:
 122:../Switch/core/yt/yt_storm_ctrl.c ****     CMM_PARAM_CHK((!(YT_DISPATCH(unit)->is_inited)), CMM_ERR_NOT_INIT);
 1076              		.loc 1 122 5 is_stmt 0 discriminator 3 view .LVU314
 1077 0062 1D4B     		ldr	r3, .L116+20
 1078 0064 9968     		ldr	r1, [r3, #8]
 1079              	.LVL150:
 122:../Switch/core/yt/yt_storm_ctrl.c ****     CMM_PARAM_CHK((!(YT_DISPATCH(unit)->is_inited)), CMM_ERR_NOT_INIT);
 1080              		.loc 1 122 5 discriminator 3 view .LVU315
 1081 0066 1D48     		ldr	r0, .L116+24
 1082 0068 FFF7FEFF 		bl	osal_printf
 1083              	.LVL151:
 1084 006c F5E7     		b	.L98
 1085              	.LVL152:
 1086              	.L109:
 122:../Switch/core/yt/yt_storm_ctrl.c ****     CMM_PARAM_CHK((!(YT_DISPATCH(unit)->is_inited)), CMM_ERR_NOT_INIT);
 1087              		.loc 1 122 5 discriminator 3 view .LVU316
 1088              	.LBE21:
 123:../Switch/core/yt/yt_storm_ctrl.c ****     CMM_PARAM_CHK((!(CMM_PORT_VALID(unit,port))), CMM_ERR_PORT);
 1089              		.loc 1 123 5 is_stmt 1 discriminator 1 view .LVU317
 123:../Switch/core/yt/yt_storm_ctrl.c ****     CMM_PARAM_CHK((!(CMM_PORT_VALID(unit,port))), CMM_ERR_PORT);
 1090              		.loc 1 123 5 discriminator 1 view .LVU318
 1091 006e 184B     		ldr	r3, .L116+12
 1092              	.LVL153:
 123:../Switch/core/yt/yt_storm_ctrl.c ****     CMM_PARAM_CHK((!(CMM_PORT_VALID(unit,port))), CMM_ERR_PORT);
 1093              		.loc 1 123 5 is_stmt 0 discriminator 1 view .LVU319
 1094 0070 1B78     		ldrb	r3, [r3]	@ zero_extendqisi2
 1095 0072 012B     		cmp	r3, #1
 1096 0074 01D8     		bhi	.L113
 1097              	.LVL154:
 1098              	.L100:
 123:../Switch/core/yt/yt_storm_ctrl.c ****     CMM_PARAM_CHK((!(CMM_PORT_VALID(unit,port))), CMM_ERR_PORT);
 1099              		.loc 1 123 5 is_stmt 1 discriminator 5 view .LVU320
 123:../Switch/core/yt/yt_storm_ctrl.c ****     CMM_PARAM_CHK((!(CMM_PORT_VALID(unit,port))), CMM_ERR_PORT);
 1100              		.loc 1 123 5 discriminator 5 view .LVU321
 123:../Switch/core/yt/yt_storm_ctrl.c ****     CMM_PARAM_CHK((!(CMM_PORT_VALID(unit,port))), CMM_ERR_PORT);
 1101              		.loc 1 123 5 discriminator 5 view .LVU322
 1102 0076 0420     		movs	r0, #4
 1103 0078 DCE7     		b	.L93
 1104              	.LVL155:
 1105              	.L113:
 123:../Switch/core/yt/yt_storm_ctrl.c ****     CMM_PARAM_CHK((!(CMM_PORT_VALID(unit,port))), CMM_ERR_PORT);
 1106              		.loc 1 123 5 discriminator 3 view .LVU323
 1107              	.LBB22:
 123:../Switch/core/yt/yt_storm_ctrl.c ****     CMM_PARAM_CHK((!(CMM_PORT_VALID(unit,port))), CMM_ERR_PORT);
 1108              		.loc 1 123 5 discriminator 3 view .LVU324
 1109 007a 164B     		ldr	r3, .L116+16
 1110 007c 1A69     		ldr	r2, [r3, #16]
 1111              	.LVL156:
 123:../Switch/core/yt/yt_storm_ctrl.c ****     CMM_PARAM_CHK((!(CMM_PORT_VALID(unit,port))), CMM_ERR_PORT);
 1112              		.loc 1 123 5 is_stmt 0 discriminator 3 view .LVU325
 1113 007e 164B     		ldr	r3, .L116+20
 1114 0080 9968     		ldr	r1, [r3, #8]
 1115              	.LVL157:
 123:../Switch/core/yt/yt_storm_ctrl.c ****     CMM_PARAM_CHK((!(CMM_PORT_VALID(unit,port))), CMM_ERR_PORT);
 1116              		.loc 1 123 5 discriminator 3 view .LVU326
 1117 0082 1648     		ldr	r0, .L116+24
 1118 0084 FFF7FEFF 		bl	osal_printf
 1119              	.LVL158:
 1120 0088 F5E7     		b	.L100
 1121              	.LVL159:
 1122              	.L101:
 123:../Switch/core/yt/yt_storm_ctrl.c ****     CMM_PARAM_CHK((!(CMM_PORT_VALID(unit,port))), CMM_ERR_PORT);
 1123              		.loc 1 123 5 discriminator 3 view .LVU327
 1124              	.LBE22:
 124:../Switch/core/yt/yt_storm_ctrl.c ****     CMM_PARAM_CHK((NULL == pRate_mode), CMM_ERR_NULL_POINT);
 1125              		.loc 1 124 5 is_stmt 1 discriminator 3 view .LVU328
 124:../Switch/core/yt/yt_storm_ctrl.c ****     CMM_PARAM_CHK((NULL == pRate_mode), CMM_ERR_NULL_POINT);
 1126              		.loc 1 124 5 discriminator 3 view .LVU329
 1127 008a 114B     		ldr	r3, .L116+12
 1128              	.LVL160:
 124:../Switch/core/yt/yt_storm_ctrl.c ****     CMM_PARAM_CHK((NULL == pRate_mode), CMM_ERR_NULL_POINT);
 1129              		.loc 1 124 5 is_stmt 0 discriminator 3 view .LVU330
 1130 008c 1B78     		ldrb	r3, [r3]	@ zero_extendqisi2
 1131 008e 012B     		cmp	r3, #1
 1132 0090 01D8     		bhi	.L114
 1133              	.LVL161:
 1134              	.L103:
 124:../Switch/core/yt/yt_storm_ctrl.c ****     CMM_PARAM_CHK((NULL == pRate_mode), CMM_ERR_NULL_POINT);
 1135              		.loc 1 124 5 is_stmt 1 discriminator 7 view .LVU331
 124:../Switch/core/yt/yt_storm_ctrl.c ****     CMM_PARAM_CHK((NULL == pRate_mode), CMM_ERR_NULL_POINT);
 1136              		.loc 1 124 5 discriminator 7 view .LVU332
 124:../Switch/core/yt/yt_storm_ctrl.c ****     CMM_PARAM_CHK((NULL == pRate_mode), CMM_ERR_NULL_POINT);
 1137              		.loc 1 124 5 discriminator 7 view .LVU333
 1138 0092 0E20     		movs	r0, #14
 1139 0094 CEE7     		b	.L93
 1140              	.LVL162:
 1141              	.L114:
 124:../Switch/core/yt/yt_storm_ctrl.c ****     CMM_PARAM_CHK((NULL == pRate_mode), CMM_ERR_NULL_POINT);
 1142              		.loc 1 124 5 discriminator 5 view .LVU334
 1143              	.LBB23:
 124:../Switch/core/yt/yt_storm_ctrl.c ****     CMM_PARAM_CHK((NULL == pRate_mode), CMM_ERR_NULL_POINT);
 1144              		.loc 1 124 5 discriminator 5 view .LVU335
 1145 0096 0F4B     		ldr	r3, .L116+16
 1146 0098 9A6B     		ldr	r2, [r3, #56]
 1147              	.LVL163:
 124:../Switch/core/yt/yt_storm_ctrl.c ****     CMM_PARAM_CHK((NULL == pRate_mode), CMM_ERR_NULL_POINT);
 1148              		.loc 1 124 5 is_stmt 0 discriminator 5 view .LVU336
 1149 009a 0F4B     		ldr	r3, .L116+20
 1150 009c 9968     		ldr	r1, [r3, #8]
 1151              	.LVL164:
 124:../Switch/core/yt/yt_storm_ctrl.c ****     CMM_PARAM_CHK((NULL == pRate_mode), CMM_ERR_NULL_POINT);
 1152              		.loc 1 124 5 discriminator 5 view .LVU337
 1153 009e 0F48     		ldr	r0, .L116+24
 1154 00a0 FFF7FEFF 		bl	osal_printf
 1155              	.LVL165:
 1156 00a4 F5E7     		b	.L103
 1157              	.LVL166:
 1158              	.L110:
 124:../Switch/core/yt/yt_storm_ctrl.c ****     CMM_PARAM_CHK((NULL == pRate_mode), CMM_ERR_NULL_POINT);
 1159              		.loc 1 124 5 discriminator 5 view .LVU338
 1160              	.LBE23:
 125:../Switch/core/yt/yt_storm_ctrl.c **** 
 1161              		.loc 1 125 5 is_stmt 1 discriminator 1 view .LVU339
 125:../Switch/core/yt/yt_storm_ctrl.c **** 
 1162              		.loc 1 125 5 discriminator 1 view .LVU340
 1163 00a6 0A4B     		ldr	r3, .L116+12
 1164              	.LVL167:
 125:../Switch/core/yt/yt_storm_ctrl.c **** 
 1165              		.loc 1 125 5 is_stmt 0 discriminator 1 view .LVU341
 1166 00a8 1B78     		ldrb	r3, [r3]	@ zero_extendqisi2
 1167 00aa 012B     		cmp	r3, #1
 1168 00ac 01D8     		bhi	.L115
 1169              	.LVL168:
 1170              	.L105:
 125:../Switch/core/yt/yt_storm_ctrl.c **** 
 1171              		.loc 1 125 5 is_stmt 1 discriminator 5 view .LVU342
 125:../Switch/core/yt/yt_storm_ctrl.c **** 
 1172              		.loc 1 125 5 discriminator 5 view .LVU343
 125:../Switch/core/yt/yt_storm_ctrl.c **** 
 1173              		.loc 1 125 5 discriminator 5 view .LVU344
 1174 00ae 0220     		movs	r0, #2
 1175 00b0 C0E7     		b	.L93
 1176              	.LVL169:
 1177              	.L115:
 125:../Switch/core/yt/yt_storm_ctrl.c **** 
 1178              		.loc 1 125 5 discriminator 3 view .LVU345
 1179              	.LBB24:
 125:../Switch/core/yt/yt_storm_ctrl.c **** 
 1180              		.loc 1 125 5 discriminator 3 view .LVU346
 1181 00b2 084B     		ldr	r3, .L116+16
 1182 00b4 9A68     		ldr	r2, [r3, #8]
 1183              	.LVL170:
 125:../Switch/core/yt/yt_storm_ctrl.c **** 
 1184              		.loc 1 125 5 is_stmt 0 discriminator 3 view .LVU347
 1185 00b6 084B     		ldr	r3, .L116+20
 1186 00b8 9968     		ldr	r1, [r3, #8]
 1187              	.LVL171:
 125:../Switch/core/yt/yt_storm_ctrl.c **** 
 1188              		.loc 1 125 5 discriminator 3 view .LVU348
 1189 00ba 0848     		ldr	r0, .L116+24
 1190 00bc FFF7FEFF 		bl	osal_printf
 1191              	.LVL172:
 1192 00c0 F5E7     		b	.L105
 1193              	.L117:
 1194 00c2 00BF     		.align	2
 1195              	.L116:
 1196 00c4 00000000 		.word	gpfal_dispatch
 1197 00c8 00000000 		.word	gcal_inited
 1198 00cc 00000000 		.word	gpSwitchUnit
 1199 00d0 00000000 		.word	yt_debug_level
 1200 00d4 00000000 		.word	_yt_errmsg
 1201 00d8 00000000 		.word	_yt_prompt_msg
 1202 00dc 00000000 		.word	.LC0
 1203              	.LBE24:
 1204              		.cfi_endproc
 1205              	.LFE7:
 1207              		.section	.text.yt_storm_ctrl_rate_include_gap_set,"ax",%progbits
 1208              		.align	1
 1209              		.global	yt_storm_ctrl_rate_include_gap_set
 1210              		.syntax unified
 1211              		.thumb
 1212              		.thumb_func
 1214              	yt_storm_ctrl_rate_include_gap_set:
 1215              	.LVL173:
 1216              	.LFB8:
 129:../Switch/core/yt/yt_storm_ctrl.c **** 
 130:../Switch/core/yt/yt_storm_ctrl.c **** /**
 131:../Switch/core/yt/yt_storm_ctrl.c ****  * @internal      yt_storm_ctrl_rate_include_gap_set
 132:../Switch/core/yt/yt_storm_ctrl.c ****  * @endinternal
 133:../Switch/core/yt/yt_storm_ctrl.c ****  *
 134:../Switch/core/yt/yt_storm_ctrl.c ****  * @brief         Description
 135:../Switch/core/yt/yt_storm_ctrl.c ****  * @param[in]     unit                -unit id
 136:../Switch/core/yt/yt_storm_ctrl.c ****  * @param[in]     port                -port num
 137:../Switch/core/yt/yt_storm_ctrl.c ****  * @param[in]     storm_type          -storm type,refer to yt_storm_type_t
 138:../Switch/core/yt/yt_storm_ctrl.c ****  * @param[in]     inc_gap             -storm rate include or exclude packet gap
 139:../Switch/core/yt/yt_storm_ctrl.c ****  * @retval        CMM_ERR_OK          -on success
 140:../Switch/core/yt/yt_storm_ctrl.c ****  * @retval        CMM_ERR_FAIL        -on fail
 141:../Switch/core/yt/yt_storm_ctrl.c ****  */
 142:../Switch/core/yt/yt_storm_ctrl.c **** yt_ret_t yt_storm_ctrl_rate_include_gap_set(yt_unit_t unit, yt_port_t port, yt_storm_type_t storm_t
 143:../Switch/core/yt/yt_storm_ctrl.c **** {
 1217              		.loc 1 143 1 is_stmt 1 view -0
 1218              		.cfi_startproc
 1219              		@ args = 0, pretend = 0, frame = 0
 1220              		@ frame_needed = 0, uses_anonymous_args = 0
 1221              		.loc 1 143 1 is_stmt 0 view .LVU350
 1222 0000 10B5     		push	{r4, lr}
 1223              		.cfi_def_cfa_offset 8
 1224              		.cfi_offset 4, -8
 1225              		.cfi_offset 14, -4
 144:../Switch/core/yt/yt_storm_ctrl.c ****     CMM_PARAM_CHK((YT_UNIT_NUM <= unit), CMM_ERR_INPUT);
 1226              		.loc 1 144 5 is_stmt 1 view .LVU351
 1227              		.loc 1 144 5 view .LVU352
 1228 0002 C0B9     		cbnz	r0, .L132
 1229 0004 8446     		mov	ip, r0
 1230              		.loc 1 144 5 discriminator 2 view .LVU353
 145:../Switch/core/yt/yt_storm_ctrl.c ****     CMM_PARAM_CHK(NULL == YT_DISPATCH(unit), CMM_ERR_NOT_INIT);
 1231              		.loc 1 145 5 discriminator 2 view .LVU354
 1232              		.loc 1 145 5 discriminator 2 view .LVU355
 1233 0006 2F48     		ldr	r0, .L141
 1234              	.LVL174:
 1235              		.loc 1 145 5 is_stmt 0 discriminator 2 view .LVU356
 1236 0008 50F82C40 		ldr	r4, [r0, ip, lsl #2]
 1237 000c 0CB3     		cbz	r4, .L133
 1238              		.loc 1 145 5 is_stmt 1 discriminator 2 view .LVU357
 146:../Switch/core/yt/yt_storm_ctrl.c ****     CMM_PARAM_CHK((!(YT_DISPATCH(unit)->is_inited)), CMM_ERR_NOT_INIT);
 1239              		.loc 1 146 5 discriminator 2 view .LVU358
 1240              		.loc 1 146 5 discriminator 2 view .LVU359
 1241 000e 2078     		ldrb	r0, [r4]	@ zero_extendqisi2
 1242 0010 0028     		cmp	r0, #0
 1243 0012 2CD0     		beq	.L134
 1244              		.loc 1 146 5 discriminator 2 view .LVU360
 147:../Switch/core/yt/yt_storm_ctrl.c ****     CMM_PARAM_CHK((!(CMM_PORT_VALID(unit,port))), CMM_ERR_PORT);
 1245              		.loc 1 147 5 discriminator 2 view .LVU361
 1246              		.loc 1 147 5 discriminator 2 view .LVU362
 1247 0014 2C48     		ldr	r0, .L141+4
 1248 0016 0078     		ldrb	r0, [r0]	@ zero_extendqisi2
 1249 0018 0028     		cmp	r0, #0
 1250 001a 36D0     		beq	.L126
 1251 001c 2B48     		ldr	r0, .L141+8
 1252 001e 50F82C00 		ldr	r0, [r0, ip, lsl #2]
 1253 0022 007D     		ldrb	r0, [r0, #20]	@ zero_extendqisi2
 1254 0024 8842     		cmp	r0, r1
 1255 0026 30D9     		bls	.L126
 1256              		.loc 1 147 5 discriminator 4 view .LVU363
 148:../Switch/core/yt/yt_storm_ctrl.c ****     CMM_PARAM_CHK((STORM_RATE_GAP_INCLUDE < inc_gap || STORM_RATE_GAP_EXCLUDE > inc_gap), CMM_ERR_I
 1257              		.loc 1 148 5 discriminator 4 view .LVU364
 1258              		.loc 1 148 5 discriminator 4 view .LVU365
 1259 0028 012B     		cmp	r3, #1
 1260 002a 3CD8     		bhi	.L135
 1261              		.loc 1 148 5 discriminator 2 view .LVU366
 149:../Switch/core/yt/yt_storm_ctrl.c **** 
 150:../Switch/core/yt/yt_storm_ctrl.c ****     return YT_DISPATCH(unit)->storm_ctrl_rate_include_gap_set(unit, port, storm_type, inc_gap);
 1262              		.loc 1 150 5 discriminator 2 view .LVU367
 1263              		.loc 1 150 29 is_stmt 0 discriminator 2 view .LVU368
 1264 002c D4F81C43 		ldr	r4, [r4, #796]
 1265              		.loc 1 150 12 discriminator 2 view .LVU369
 1266 0030 6046     		mov	r0, ip
 1267 0032 A047     		blx	r4
 1268              	.LVL175:
 1269              	.L118:
 151:../Switch/core/yt/yt_storm_ctrl.c **** }
 1270              		.loc 1 151 1 view .LVU370
 1271 0034 10BD     		pop	{r4, pc}
 1272              	.LVL176:
 1273              	.L132:
 144:../Switch/core/yt/yt_storm_ctrl.c ****     CMM_PARAM_CHK(NULL == YT_DISPATCH(unit), CMM_ERR_NOT_INIT);
 1274              		.loc 1 144 5 is_stmt 1 discriminator 1 view .LVU371
 144:../Switch/core/yt/yt_storm_ctrl.c ****     CMM_PARAM_CHK(NULL == YT_DISPATCH(unit), CMM_ERR_NOT_INIT);
 1275              		.loc 1 144 5 discriminator 1 view .LVU372
 1276 0036 264B     		ldr	r3, .L141+12
 1277              	.LVL177:
 144:../Switch/core/yt/yt_storm_ctrl.c ****     CMM_PARAM_CHK(NULL == YT_DISPATCH(unit), CMM_ERR_NOT_INIT);
 1278              		.loc 1 144 5 is_stmt 0 discriminator 1 view .LVU373
 1279 0038 1B78     		ldrb	r3, [r3]	@ zero_extendqisi2
 1280 003a 012B     		cmp	r3, #1
 1281 003c 01D8     		bhi	.L136
 1282              	.LVL178:
 1283              	.L120:
 144:../Switch/core/yt/yt_storm_ctrl.c ****     CMM_PARAM_CHK(NULL == YT_DISPATCH(unit), CMM_ERR_NOT_INIT);
 1284              		.loc 1 144 5 is_stmt 1 discriminator 5 view .LVU374
 144:../Switch/core/yt/yt_storm_ctrl.c ****     CMM_PARAM_CHK(NULL == YT_DISPATCH(unit), CMM_ERR_NOT_INIT);
 1285              		.loc 1 144 5 discriminator 5 view .LVU375
 144:../Switch/core/yt/yt_storm_ctrl.c ****     CMM_PARAM_CHK(NULL == YT_DISPATCH(unit), CMM_ERR_NOT_INIT);
 1286              		.loc 1 144 5 discriminator 5 view .LVU376
 1287 003e 0520     		movs	r0, #5
 1288 0040 F8E7     		b	.L118
 1289              	.LVL179:
 1290              	.L136:
 144:../Switch/core/yt/yt_storm_ctrl.c ****     CMM_PARAM_CHK(NULL == YT_DISPATCH(unit), CMM_ERR_NOT_INIT);
 1291              		.loc 1 144 5 discriminator 3 view .LVU377
 1292              	.LBB25:
 144:../Switch/core/yt/yt_storm_ctrl.c ****     CMM_PARAM_CHK(NULL == YT_DISPATCH(unit), CMM_ERR_NOT_INIT);
 1293              		.loc 1 144 5 discriminator 3 view .LVU378
 1294 0042 244B     		ldr	r3, .L141+16
 1295 0044 5A69     		ldr	r2, [r3, #20]
 1296              	.LVL180:
 144:../Switch/core/yt/yt_storm_ctrl.c ****     CMM_PARAM_CHK(NULL == YT_DISPATCH(unit), CMM_ERR_NOT_INIT);
 1297              		.loc 1 144 5 is_stmt 0 discriminator 3 view .LVU379
 1298 0046 244B     		ldr	r3, .L141+20
 1299 0048 9968     		ldr	r1, [r3, #8]
 1300              	.LVL181:
 144:../Switch/core/yt/yt_storm_ctrl.c ****     CMM_PARAM_CHK(NULL == YT_DISPATCH(unit), CMM_ERR_NOT_INIT);
 1301              		.loc 1 144 5 discriminator 3 view .LVU380
 1302 004a 2448     		ldr	r0, .L141+24
 1303              	.LVL182:
 144:../Switch/core/yt/yt_storm_ctrl.c ****     CMM_PARAM_CHK(NULL == YT_DISPATCH(unit), CMM_ERR_NOT_INIT);
 1304              		.loc 1 144 5 discriminator 3 view .LVU381
 1305 004c FFF7FEFF 		bl	osal_printf
 1306              	.LVL183:
 1307 0050 F5E7     		b	.L120
 1308              	.LVL184:
 1309              	.L133:
 144:../Switch/core/yt/yt_storm_ctrl.c ****     CMM_PARAM_CHK(NULL == YT_DISPATCH(unit), CMM_ERR_NOT_INIT);
 1310              		.loc 1 144 5 discriminator 3 view .LVU382
 1311              	.LBE25:
 145:../Switch/core/yt/yt_storm_ctrl.c ****     CMM_PARAM_CHK((!(YT_DISPATCH(unit)->is_inited)), CMM_ERR_NOT_INIT);
 1312              		.loc 1 145 5 is_stmt 1 discriminator 1 view .LVU383
 145:../Switch/core/yt/yt_storm_ctrl.c ****     CMM_PARAM_CHK((!(YT_DISPATCH(unit)->is_inited)), CMM_ERR_NOT_INIT);
 1313              		.loc 1 145 5 discriminator 1 view .LVU384
 1314 0052 1F4B     		ldr	r3, .L141+12
 1315              	.LVL185:
 145:../Switch/core/yt/yt_storm_ctrl.c ****     CMM_PARAM_CHK((!(YT_DISPATCH(unit)->is_inited)), CMM_ERR_NOT_INIT);
 1316              		.loc 1 145 5 is_stmt 0 discriminator 1 view .LVU385
 1317 0054 1B78     		ldrb	r3, [r3]	@ zero_extendqisi2
 1318 0056 012B     		cmp	r3, #1
 1319 0058 01D8     		bhi	.L137
 1320              	.LVL186:
 1321              	.L123:
 145:../Switch/core/yt/yt_storm_ctrl.c ****     CMM_PARAM_CHK((!(YT_DISPATCH(unit)->is_inited)), CMM_ERR_NOT_INIT);
 1322              		.loc 1 145 5 is_stmt 1 discriminator 5 view .LVU386
 145:../Switch/core/yt/yt_storm_ctrl.c ****     CMM_PARAM_CHK((!(YT_DISPATCH(unit)->is_inited)), CMM_ERR_NOT_INIT);
 1323              		.loc 1 145 5 discriminator 5 view .LVU387
 145:../Switch/core/yt/yt_storm_ctrl.c ****     CMM_PARAM_CHK((!(YT_DISPATCH(unit)->is_inited)), CMM_ERR_NOT_INIT);
 1324              		.loc 1 145 5 discriminator 5 view .LVU388
 1325 005a 0420     		movs	r0, #4
 1326 005c EAE7     		b	.L118
 1327              	.LVL187:
 1328              	.L137:
 145:../Switch/core/yt/yt_storm_ctrl.c ****     CMM_PARAM_CHK((!(YT_DISPATCH(unit)->is_inited)), CMM_ERR_NOT_INIT);
 1329              		.loc 1 145 5 discriminator 3 view .LVU389
 1330              	.LBB26:
 145:../Switch/core/yt/yt_storm_ctrl.c ****     CMM_PARAM_CHK((!(YT_DISPATCH(unit)->is_inited)), CMM_ERR_NOT_INIT);
 1331              		.loc 1 145 5 discriminator 3 view .LVU390
 1332 005e 1D4B     		ldr	r3, .L141+16
 1333 0060 1A69     		ldr	r2, [r3, #16]
 1334              	.LVL188:
 145:../Switch/core/yt/yt_storm_ctrl.c ****     CMM_PARAM_CHK((!(YT_DISPATCH(unit)->is_inited)), CMM_ERR_NOT_INIT);
 1335              		.loc 1 145 5 is_stmt 0 discriminator 3 view .LVU391
 1336 0062 1D4B     		ldr	r3, .L141+20
 1337 0064 9968     		ldr	r1, [r3, #8]
 1338              	.LVL189:
 145:../Switch/core/yt/yt_storm_ctrl.c ****     CMM_PARAM_CHK((!(YT_DISPATCH(unit)->is_inited)), CMM_ERR_NOT_INIT);
 1339              		.loc 1 145 5 discriminator 3 view .LVU392
 1340 0066 1D48     		ldr	r0, .L141+24
 1341 0068 FFF7FEFF 		bl	osal_printf
 1342              	.LVL190:
 1343 006c F5E7     		b	.L123
 1344              	.LVL191:
 1345              	.L134:
 145:../Switch/core/yt/yt_storm_ctrl.c ****     CMM_PARAM_CHK((!(YT_DISPATCH(unit)->is_inited)), CMM_ERR_NOT_INIT);
 1346              		.loc 1 145 5 discriminator 3 view .LVU393
 1347              	.LBE26:
 146:../Switch/core/yt/yt_storm_ctrl.c ****     CMM_PARAM_CHK((!(CMM_PORT_VALID(unit,port))), CMM_ERR_PORT);
 1348              		.loc 1 146 5 is_stmt 1 discriminator 1 view .LVU394
 146:../Switch/core/yt/yt_storm_ctrl.c ****     CMM_PARAM_CHK((!(CMM_PORT_VALID(unit,port))), CMM_ERR_PORT);
 1349              		.loc 1 146 5 discriminator 1 view .LVU395
 1350 006e 184B     		ldr	r3, .L141+12
 1351              	.LVL192:
 146:../Switch/core/yt/yt_storm_ctrl.c ****     CMM_PARAM_CHK((!(CMM_PORT_VALID(unit,port))), CMM_ERR_PORT);
 1352              		.loc 1 146 5 is_stmt 0 discriminator 1 view .LVU396
 1353 0070 1B78     		ldrb	r3, [r3]	@ zero_extendqisi2
 1354 0072 012B     		cmp	r3, #1
 1355 0074 01D8     		bhi	.L138
 1356              	.LVL193:
 1357              	.L125:
 146:../Switch/core/yt/yt_storm_ctrl.c ****     CMM_PARAM_CHK((!(CMM_PORT_VALID(unit,port))), CMM_ERR_PORT);
 1358              		.loc 1 146 5 is_stmt 1 discriminator 5 view .LVU397
 146:../Switch/core/yt/yt_storm_ctrl.c ****     CMM_PARAM_CHK((!(CMM_PORT_VALID(unit,port))), CMM_ERR_PORT);
 1359              		.loc 1 146 5 discriminator 5 view .LVU398
 146:../Switch/core/yt/yt_storm_ctrl.c ****     CMM_PARAM_CHK((!(CMM_PORT_VALID(unit,port))), CMM_ERR_PORT);
 1360              		.loc 1 146 5 discriminator 5 view .LVU399
 1361 0076 0420     		movs	r0, #4
 1362 0078 DCE7     		b	.L118
 1363              	.LVL194:
 1364              	.L138:
 146:../Switch/core/yt/yt_storm_ctrl.c ****     CMM_PARAM_CHK((!(CMM_PORT_VALID(unit,port))), CMM_ERR_PORT);
 1365              		.loc 1 146 5 discriminator 3 view .LVU400
 1366              	.LBB27:
 146:../Switch/core/yt/yt_storm_ctrl.c ****     CMM_PARAM_CHK((!(CMM_PORT_VALID(unit,port))), CMM_ERR_PORT);
 1367              		.loc 1 146 5 discriminator 3 view .LVU401
 1368 007a 164B     		ldr	r3, .L141+16
 1369 007c 1A69     		ldr	r2, [r3, #16]
 1370              	.LVL195:
 146:../Switch/core/yt/yt_storm_ctrl.c ****     CMM_PARAM_CHK((!(CMM_PORT_VALID(unit,port))), CMM_ERR_PORT);
 1371              		.loc 1 146 5 is_stmt 0 discriminator 3 view .LVU402
 1372 007e 164B     		ldr	r3, .L141+20
 1373 0080 9968     		ldr	r1, [r3, #8]
 1374              	.LVL196:
 146:../Switch/core/yt/yt_storm_ctrl.c ****     CMM_PARAM_CHK((!(CMM_PORT_VALID(unit,port))), CMM_ERR_PORT);
 1375              		.loc 1 146 5 discriminator 3 view .LVU403
 1376 0082 1648     		ldr	r0, .L141+24
 1377 0084 FFF7FEFF 		bl	osal_printf
 1378              	.LVL197:
 1379 0088 F5E7     		b	.L125
 1380              	.LVL198:
 1381              	.L126:
 146:../Switch/core/yt/yt_storm_ctrl.c ****     CMM_PARAM_CHK((!(CMM_PORT_VALID(unit,port))), CMM_ERR_PORT);
 1382              		.loc 1 146 5 discriminator 3 view .LVU404
 1383              	.LBE27:
 147:../Switch/core/yt/yt_storm_ctrl.c ****     CMM_PARAM_CHK((STORM_RATE_GAP_INCLUDE < inc_gap || STORM_RATE_GAP_EXCLUDE > inc_gap), CMM_ERR_I
 1384              		.loc 1 147 5 is_stmt 1 discriminator 3 view .LVU405
 147:../Switch/core/yt/yt_storm_ctrl.c ****     CMM_PARAM_CHK((STORM_RATE_GAP_INCLUDE < inc_gap || STORM_RATE_GAP_EXCLUDE > inc_gap), CMM_ERR_I
 1385              		.loc 1 147 5 discriminator 3 view .LVU406
 1386 008a 114B     		ldr	r3, .L141+12
 1387              	.LVL199:
 147:../Switch/core/yt/yt_storm_ctrl.c ****     CMM_PARAM_CHK((STORM_RATE_GAP_INCLUDE < inc_gap || STORM_RATE_GAP_EXCLUDE > inc_gap), CMM_ERR_I
 1388              		.loc 1 147 5 is_stmt 0 discriminator 3 view .LVU407
 1389 008c 1B78     		ldrb	r3, [r3]	@ zero_extendqisi2
 1390 008e 012B     		cmp	r3, #1
 1391 0090 01D8     		bhi	.L139
 1392              	.LVL200:
 1393              	.L128:
 147:../Switch/core/yt/yt_storm_ctrl.c ****     CMM_PARAM_CHK((STORM_RATE_GAP_INCLUDE < inc_gap || STORM_RATE_GAP_EXCLUDE > inc_gap), CMM_ERR_I
 1394              		.loc 1 147 5 is_stmt 1 discriminator 7 view .LVU408
 147:../Switch/core/yt/yt_storm_ctrl.c ****     CMM_PARAM_CHK((STORM_RATE_GAP_INCLUDE < inc_gap || STORM_RATE_GAP_EXCLUDE > inc_gap), CMM_ERR_I
 1395              		.loc 1 147 5 discriminator 7 view .LVU409
 147:../Switch/core/yt/yt_storm_ctrl.c ****     CMM_PARAM_CHK((STORM_RATE_GAP_INCLUDE < inc_gap || STORM_RATE_GAP_EXCLUDE > inc_gap), CMM_ERR_I
 1396              		.loc 1 147 5 discriminator 7 view .LVU410
 1397 0092 0E20     		movs	r0, #14
 1398 0094 CEE7     		b	.L118
 1399              	.LVL201:
 1400              	.L139:
 147:../Switch/core/yt/yt_storm_ctrl.c ****     CMM_PARAM_CHK((STORM_RATE_GAP_INCLUDE < inc_gap || STORM_RATE_GAP_EXCLUDE > inc_gap), CMM_ERR_I
 1401              		.loc 1 147 5 discriminator 5 view .LVU411
 1402              	.LBB28:
 147:../Switch/core/yt/yt_storm_ctrl.c ****     CMM_PARAM_CHK((STORM_RATE_GAP_INCLUDE < inc_gap || STORM_RATE_GAP_EXCLUDE > inc_gap), CMM_ERR_I
 1403              		.loc 1 147 5 discriminator 5 view .LVU412
 1404 0096 0F4B     		ldr	r3, .L141+16
 1405 0098 9A6B     		ldr	r2, [r3, #56]
 1406              	.LVL202:
 147:../Switch/core/yt/yt_storm_ctrl.c ****     CMM_PARAM_CHK((STORM_RATE_GAP_INCLUDE < inc_gap || STORM_RATE_GAP_EXCLUDE > inc_gap), CMM_ERR_I
 1407              		.loc 1 147 5 is_stmt 0 discriminator 5 view .LVU413
 1408 009a 0F4B     		ldr	r3, .L141+20
 1409 009c 9968     		ldr	r1, [r3, #8]
 1410              	.LVL203:
 147:../Switch/core/yt/yt_storm_ctrl.c ****     CMM_PARAM_CHK((STORM_RATE_GAP_INCLUDE < inc_gap || STORM_RATE_GAP_EXCLUDE > inc_gap), CMM_ERR_I
 1411              		.loc 1 147 5 discriminator 5 view .LVU414
 1412 009e 0F48     		ldr	r0, .L141+24
 1413 00a0 FFF7FEFF 		bl	osal_printf
 1414              	.LVL204:
 1415 00a4 F5E7     		b	.L128
 1416              	.LVL205:
 1417              	.L135:
 147:../Switch/core/yt/yt_storm_ctrl.c ****     CMM_PARAM_CHK((STORM_RATE_GAP_INCLUDE < inc_gap || STORM_RATE_GAP_EXCLUDE > inc_gap), CMM_ERR_I
 1418              		.loc 1 147 5 discriminator 5 view .LVU415
 1419              	.LBE28:
 148:../Switch/core/yt/yt_storm_ctrl.c **** 
 1420              		.loc 1 148 5 is_stmt 1 discriminator 1 view .LVU416
 148:../Switch/core/yt/yt_storm_ctrl.c **** 
 1421              		.loc 1 148 5 discriminator 1 view .LVU417
 1422 00a6 0A4B     		ldr	r3, .L141+12
 1423              	.LVL206:
 148:../Switch/core/yt/yt_storm_ctrl.c **** 
 1424              		.loc 1 148 5 is_stmt 0 discriminator 1 view .LVU418
 1425 00a8 1B78     		ldrb	r3, [r3]	@ zero_extendqisi2
 1426 00aa 012B     		cmp	r3, #1
 1427 00ac 01D8     		bhi	.L140
 1428              	.LVL207:
 1429              	.L130:
 148:../Switch/core/yt/yt_storm_ctrl.c **** 
 1430              		.loc 1 148 5 is_stmt 1 discriminator 5 view .LVU419
 148:../Switch/core/yt/yt_storm_ctrl.c **** 
 1431              		.loc 1 148 5 discriminator 5 view .LVU420
 148:../Switch/core/yt/yt_storm_ctrl.c **** 
 1432              		.loc 1 148 5 discriminator 5 view .LVU421
 1433 00ae 0520     		movs	r0, #5
 1434 00b0 C0E7     		b	.L118
 1435              	.LVL208:
 1436              	.L140:
 148:../Switch/core/yt/yt_storm_ctrl.c **** 
 1437              		.loc 1 148 5 discriminator 3 view .LVU422
 1438              	.LBB29:
 148:../Switch/core/yt/yt_storm_ctrl.c **** 
 1439              		.loc 1 148 5 discriminator 3 view .LVU423
 1440 00b2 084B     		ldr	r3, .L141+16
 1441 00b4 5A69     		ldr	r2, [r3, #20]
 1442              	.LVL209:
 148:../Switch/core/yt/yt_storm_ctrl.c **** 
 1443              		.loc 1 148 5 is_stmt 0 discriminator 3 view .LVU424
 1444 00b6 084B     		ldr	r3, .L141+20
 1445 00b8 9968     		ldr	r1, [r3, #8]
 1446              	.LVL210:
 148:../Switch/core/yt/yt_storm_ctrl.c **** 
 1447              		.loc 1 148 5 discriminator 3 view .LVU425
 1448 00ba 0848     		ldr	r0, .L141+24
 1449 00bc FFF7FEFF 		bl	osal_printf
 1450              	.LVL211:
 1451 00c0 F5E7     		b	.L130
 1452              	.L142:
 1453 00c2 00BF     		.align	2
 1454              	.L141:
 1455 00c4 00000000 		.word	gpfal_dispatch
 1456 00c8 00000000 		.word	gcal_inited
 1457 00cc 00000000 		.word	gpSwitchUnit
 1458 00d0 00000000 		.word	yt_debug_level
 1459 00d4 00000000 		.word	_yt_errmsg
 1460 00d8 00000000 		.word	_yt_prompt_msg
 1461 00dc 00000000 		.word	.LC0
 1462              	.LBE29:
 1463              		.cfi_endproc
 1464              	.LFE8:
 1466              		.section	.text.yt_storm_ctrl_rate_include_gap_get,"ax",%progbits
 1467              		.align	1
 1468              		.global	yt_storm_ctrl_rate_include_gap_get
 1469              		.syntax unified
 1470              		.thumb
 1471              		.thumb_func
 1473              	yt_storm_ctrl_rate_include_gap_get:
 1474              	.LVL212:
 1475              	.LFB9:
 152:../Switch/core/yt/yt_storm_ctrl.c **** 
 153:../Switch/core/yt/yt_storm_ctrl.c **** /**
 154:../Switch/core/yt/yt_storm_ctrl.c ****  * @internal      yt_storm_ctrl_rate_include_gap_get
 155:../Switch/core/yt/yt_storm_ctrl.c ****  * @endinternal
 156:../Switch/core/yt/yt_storm_ctrl.c ****  *
 157:../Switch/core/yt/yt_storm_ctrl.c ****  * @brief         Description
 158:../Switch/core/yt/yt_storm_ctrl.c ****  * @param[in]     unit                -unit id
 159:../Switch/core/yt/yt_storm_ctrl.c ****  * @param[in]     port                -port num
 160:../Switch/core/yt/yt_storm_ctrl.c ****  * @param[in]     storm_type          -storm type,refer to yt_storm_type_t
 161:../Switch/core/yt/yt_storm_ctrl.c ****  * @param[out]    pInc_gap           -storm rate include or exclude packet gap
 162:../Switch/core/yt/yt_storm_ctrl.c ****  * @retval        CMM_ERR_OK          -on success
 163:../Switch/core/yt/yt_storm_ctrl.c ****  * @retval        CMM_ERR_FAIL        -on fail
 164:../Switch/core/yt/yt_storm_ctrl.c ****  */
 165:../Switch/core/yt/yt_storm_ctrl.c **** yt_ret_t yt_storm_ctrl_rate_include_gap_get(yt_unit_t unit, yt_port_t port, yt_storm_type_t storm_t
 166:../Switch/core/yt/yt_storm_ctrl.c **** {
 1476              		.loc 1 166 1 is_stmt 1 view -0
 1477              		.cfi_startproc
 1478              		@ args = 0, pretend = 0, frame = 0
 1479              		@ frame_needed = 0, uses_anonymous_args = 0
 1480              		.loc 1 166 1 is_stmt 0 view .LVU427
 1481 0000 10B5     		push	{r4, lr}
 1482              		.cfi_def_cfa_offset 8
 1483              		.cfi_offset 4, -8
 1484              		.cfi_offset 14, -4
 167:../Switch/core/yt/yt_storm_ctrl.c ****     CMM_PARAM_CHK((YT_UNIT_NUM <= unit), CMM_ERR_INPUT);
 1485              		.loc 1 167 5 is_stmt 1 view .LVU428
 1486              		.loc 1 167 5 view .LVU429
 1487 0002 C0B9     		cbnz	r0, .L157
 1488 0004 8446     		mov	ip, r0
 1489              		.loc 1 167 5 discriminator 2 view .LVU430
 168:../Switch/core/yt/yt_storm_ctrl.c ****     CMM_PARAM_CHK(NULL == YT_DISPATCH(unit), CMM_ERR_NOT_INIT);
 1490              		.loc 1 168 5 discriminator 2 view .LVU431
 1491              		.loc 1 168 5 discriminator 2 view .LVU432
 1492 0006 2F48     		ldr	r0, .L166
 1493              	.LVL213:
 1494              		.loc 1 168 5 is_stmt 0 discriminator 2 view .LVU433
 1495 0008 50F82C40 		ldr	r4, [r0, ip, lsl #2]
 1496 000c 0CB3     		cbz	r4, .L158
 1497              		.loc 1 168 5 is_stmt 1 discriminator 2 view .LVU434
 169:../Switch/core/yt/yt_storm_ctrl.c ****     CMM_PARAM_CHK((!(YT_DISPATCH(unit)->is_inited)), CMM_ERR_NOT_INIT);
 1498              		.loc 1 169 5 discriminator 2 view .LVU435
 1499              		.loc 1 169 5 discriminator 2 view .LVU436
 1500 000e 2078     		ldrb	r0, [r4]	@ zero_extendqisi2
 1501 0010 0028     		cmp	r0, #0
 1502 0012 2CD0     		beq	.L159
 1503              		.loc 1 169 5 discriminator 2 view .LVU437
 170:../Switch/core/yt/yt_storm_ctrl.c ****     CMM_PARAM_CHK((!(CMM_PORT_VALID(unit,port))), CMM_ERR_PORT);
 1504              		.loc 1 170 5 discriminator 2 view .LVU438
 1505              		.loc 1 170 5 discriminator 2 view .LVU439
 1506 0014 2C48     		ldr	r0, .L166+4
 1507 0016 0078     		ldrb	r0, [r0]	@ zero_extendqisi2
 1508 0018 0028     		cmp	r0, #0
 1509 001a 36D0     		beq	.L151
 1510 001c 2B48     		ldr	r0, .L166+8
 1511 001e 50F82C00 		ldr	r0, [r0, ip, lsl #2]
 1512 0022 007D     		ldrb	r0, [r0, #20]	@ zero_extendqisi2
 1513 0024 8842     		cmp	r0, r1
 1514 0026 30D9     		bls	.L151
 1515              		.loc 1 170 5 discriminator 4 view .LVU440
 171:../Switch/core/yt/yt_storm_ctrl.c ****     CMM_PARAM_CHK((NULL == pInc_gap), CMM_ERR_NULL_POINT);
 1516              		.loc 1 171 5 discriminator 4 view .LVU441
 1517              		.loc 1 171 5 discriminator 4 view .LVU442
 1518 0028 002B     		cmp	r3, #0
 1519 002a 3CD0     		beq	.L160
 1520              		.loc 1 171 5 discriminator 2 view .LVU443
 172:../Switch/core/yt/yt_storm_ctrl.c **** 
 173:../Switch/core/yt/yt_storm_ctrl.c ****     return YT_DISPATCH(unit)->storm_ctrl_rate_include_gap_get(unit, port, storm_type, pInc_gap);
 1521              		.loc 1 173 5 discriminator 2 view .LVU444
 1522              		.loc 1 173 29 is_stmt 0 discriminator 2 view .LVU445
 1523 002c D4F82043 		ldr	r4, [r4, #800]
 1524              		.loc 1 173 12 discriminator 2 view .LVU446
 1525 0030 6046     		mov	r0, ip
 1526 0032 A047     		blx	r4
 1527              	.LVL214:
 1528              	.L143:
 174:../Switch/core/yt/yt_storm_ctrl.c **** }
 1529              		.loc 1 174 1 view .LVU447
 1530 0034 10BD     		pop	{r4, pc}
 1531              	.LVL215:
 1532              	.L157:
 167:../Switch/core/yt/yt_storm_ctrl.c ****     CMM_PARAM_CHK(NULL == YT_DISPATCH(unit), CMM_ERR_NOT_INIT);
 1533              		.loc 1 167 5 is_stmt 1 discriminator 1 view .LVU448
 167:../Switch/core/yt/yt_storm_ctrl.c ****     CMM_PARAM_CHK(NULL == YT_DISPATCH(unit), CMM_ERR_NOT_INIT);
 1534              		.loc 1 167 5 discriminator 1 view .LVU449
 1535 0036 264B     		ldr	r3, .L166+12
 1536              	.LVL216:
 167:../Switch/core/yt/yt_storm_ctrl.c ****     CMM_PARAM_CHK(NULL == YT_DISPATCH(unit), CMM_ERR_NOT_INIT);
 1537              		.loc 1 167 5 is_stmt 0 discriminator 1 view .LVU450
 1538 0038 1B78     		ldrb	r3, [r3]	@ zero_extendqisi2
 1539 003a 012B     		cmp	r3, #1
 1540 003c 01D8     		bhi	.L161
 1541              	.LVL217:
 1542              	.L145:
 167:../Switch/core/yt/yt_storm_ctrl.c ****     CMM_PARAM_CHK(NULL == YT_DISPATCH(unit), CMM_ERR_NOT_INIT);
 1543              		.loc 1 167 5 is_stmt 1 discriminator 5 view .LVU451
 167:../Switch/core/yt/yt_storm_ctrl.c ****     CMM_PARAM_CHK(NULL == YT_DISPATCH(unit), CMM_ERR_NOT_INIT);
 1544              		.loc 1 167 5 discriminator 5 view .LVU452
 167:../Switch/core/yt/yt_storm_ctrl.c ****     CMM_PARAM_CHK(NULL == YT_DISPATCH(unit), CMM_ERR_NOT_INIT);
 1545              		.loc 1 167 5 discriminator 5 view .LVU453
 1546 003e 0520     		movs	r0, #5
 1547 0040 F8E7     		b	.L143
 1548              	.LVL218:
 1549              	.L161:
 167:../Switch/core/yt/yt_storm_ctrl.c ****     CMM_PARAM_CHK(NULL == YT_DISPATCH(unit), CMM_ERR_NOT_INIT);
 1550              		.loc 1 167 5 discriminator 3 view .LVU454
 1551              	.LBB30:
 167:../Switch/core/yt/yt_storm_ctrl.c ****     CMM_PARAM_CHK(NULL == YT_DISPATCH(unit), CMM_ERR_NOT_INIT);
 1552              		.loc 1 167 5 discriminator 3 view .LVU455
 1553 0042 244B     		ldr	r3, .L166+16
 1554 0044 5A69     		ldr	r2, [r3, #20]
 1555              	.LVL219:
 167:../Switch/core/yt/yt_storm_ctrl.c ****     CMM_PARAM_CHK(NULL == YT_DISPATCH(unit), CMM_ERR_NOT_INIT);
 1556              		.loc 1 167 5 is_stmt 0 discriminator 3 view .LVU456
 1557 0046 244B     		ldr	r3, .L166+20
 1558 0048 9968     		ldr	r1, [r3, #8]
 1559              	.LVL220:
 167:../Switch/core/yt/yt_storm_ctrl.c ****     CMM_PARAM_CHK(NULL == YT_DISPATCH(unit), CMM_ERR_NOT_INIT);
 1560              		.loc 1 167 5 discriminator 3 view .LVU457
 1561 004a 2448     		ldr	r0, .L166+24
 1562              	.LVL221:
 167:../Switch/core/yt/yt_storm_ctrl.c ****     CMM_PARAM_CHK(NULL == YT_DISPATCH(unit), CMM_ERR_NOT_INIT);
 1563              		.loc 1 167 5 discriminator 3 view .LVU458
 1564 004c FFF7FEFF 		bl	osal_printf
 1565              	.LVL222:
 1566 0050 F5E7     		b	.L145
 1567              	.LVL223:
 1568              	.L158:
 167:../Switch/core/yt/yt_storm_ctrl.c ****     CMM_PARAM_CHK(NULL == YT_DISPATCH(unit), CMM_ERR_NOT_INIT);
 1569              		.loc 1 167 5 discriminator 3 view .LVU459
 1570              	.LBE30:
 168:../Switch/core/yt/yt_storm_ctrl.c ****     CMM_PARAM_CHK((!(YT_DISPATCH(unit)->is_inited)), CMM_ERR_NOT_INIT);
 1571              		.loc 1 168 5 is_stmt 1 discriminator 1 view .LVU460
 168:../Switch/core/yt/yt_storm_ctrl.c ****     CMM_PARAM_CHK((!(YT_DISPATCH(unit)->is_inited)), CMM_ERR_NOT_INIT);
 1572              		.loc 1 168 5 discriminator 1 view .LVU461
 1573 0052 1F4B     		ldr	r3, .L166+12
 1574              	.LVL224:
 168:../Switch/core/yt/yt_storm_ctrl.c ****     CMM_PARAM_CHK((!(YT_DISPATCH(unit)->is_inited)), CMM_ERR_NOT_INIT);
 1575              		.loc 1 168 5 is_stmt 0 discriminator 1 view .LVU462
 1576 0054 1B78     		ldrb	r3, [r3]	@ zero_extendqisi2
 1577 0056 012B     		cmp	r3, #1
 1578 0058 01D8     		bhi	.L162
 1579              	.LVL225:
 1580              	.L148:
 168:../Switch/core/yt/yt_storm_ctrl.c ****     CMM_PARAM_CHK((!(YT_DISPATCH(unit)->is_inited)), CMM_ERR_NOT_INIT);
 1581              		.loc 1 168 5 is_stmt 1 discriminator 5 view .LVU463
 168:../Switch/core/yt/yt_storm_ctrl.c ****     CMM_PARAM_CHK((!(YT_DISPATCH(unit)->is_inited)), CMM_ERR_NOT_INIT);
 1582              		.loc 1 168 5 discriminator 5 view .LVU464
 168:../Switch/core/yt/yt_storm_ctrl.c ****     CMM_PARAM_CHK((!(YT_DISPATCH(unit)->is_inited)), CMM_ERR_NOT_INIT);
 1583              		.loc 1 168 5 discriminator 5 view .LVU465
 1584 005a 0420     		movs	r0, #4
 1585 005c EAE7     		b	.L143
 1586              	.LVL226:
 1587              	.L162:
 168:../Switch/core/yt/yt_storm_ctrl.c ****     CMM_PARAM_CHK((!(YT_DISPATCH(unit)->is_inited)), CMM_ERR_NOT_INIT);
 1588              		.loc 1 168 5 discriminator 3 view .LVU466
 1589              	.LBB31:
 168:../Switch/core/yt/yt_storm_ctrl.c ****     CMM_PARAM_CHK((!(YT_DISPATCH(unit)->is_inited)), CMM_ERR_NOT_INIT);
 1590              		.loc 1 168 5 discriminator 3 view .LVU467
 1591 005e 1D4B     		ldr	r3, .L166+16
 1592 0060 1A69     		ldr	r2, [r3, #16]
 1593              	.LVL227:
 168:../Switch/core/yt/yt_storm_ctrl.c ****     CMM_PARAM_CHK((!(YT_DISPATCH(unit)->is_inited)), CMM_ERR_NOT_INIT);
 1594              		.loc 1 168 5 is_stmt 0 discriminator 3 view .LVU468
 1595 0062 1D4B     		ldr	r3, .L166+20
 1596 0064 9968     		ldr	r1, [r3, #8]
 1597              	.LVL228:
 168:../Switch/core/yt/yt_storm_ctrl.c ****     CMM_PARAM_CHK((!(YT_DISPATCH(unit)->is_inited)), CMM_ERR_NOT_INIT);
 1598              		.loc 1 168 5 discriminator 3 view .LVU469
 1599 0066 1D48     		ldr	r0, .L166+24
 1600 0068 FFF7FEFF 		bl	osal_printf
 1601              	.LVL229:
 1602 006c F5E7     		b	.L148
 1603              	.LVL230:
 1604              	.L159:
 168:../Switch/core/yt/yt_storm_ctrl.c ****     CMM_PARAM_CHK((!(YT_DISPATCH(unit)->is_inited)), CMM_ERR_NOT_INIT);
 1605              		.loc 1 168 5 discriminator 3 view .LVU470
 1606              	.LBE31:
 169:../Switch/core/yt/yt_storm_ctrl.c ****     CMM_PARAM_CHK((!(CMM_PORT_VALID(unit,port))), CMM_ERR_PORT);
 1607              		.loc 1 169 5 is_stmt 1 discriminator 1 view .LVU471
 169:../Switch/core/yt/yt_storm_ctrl.c ****     CMM_PARAM_CHK((!(CMM_PORT_VALID(unit,port))), CMM_ERR_PORT);
 1608              		.loc 1 169 5 discriminator 1 view .LVU472
 1609 006e 184B     		ldr	r3, .L166+12
 1610              	.LVL231:
 169:../Switch/core/yt/yt_storm_ctrl.c ****     CMM_PARAM_CHK((!(CMM_PORT_VALID(unit,port))), CMM_ERR_PORT);
 1611              		.loc 1 169 5 is_stmt 0 discriminator 1 view .LVU473
 1612 0070 1B78     		ldrb	r3, [r3]	@ zero_extendqisi2
 1613 0072 012B     		cmp	r3, #1
 1614 0074 01D8     		bhi	.L163
 1615              	.LVL232:
 1616              	.L150:
 169:../Switch/core/yt/yt_storm_ctrl.c ****     CMM_PARAM_CHK((!(CMM_PORT_VALID(unit,port))), CMM_ERR_PORT);
 1617              		.loc 1 169 5 is_stmt 1 discriminator 5 view .LVU474
 169:../Switch/core/yt/yt_storm_ctrl.c ****     CMM_PARAM_CHK((!(CMM_PORT_VALID(unit,port))), CMM_ERR_PORT);
 1618              		.loc 1 169 5 discriminator 5 view .LVU475
 169:../Switch/core/yt/yt_storm_ctrl.c ****     CMM_PARAM_CHK((!(CMM_PORT_VALID(unit,port))), CMM_ERR_PORT);
 1619              		.loc 1 169 5 discriminator 5 view .LVU476
 1620 0076 0420     		movs	r0, #4
 1621 0078 DCE7     		b	.L143
 1622              	.LVL233:
 1623              	.L163:
 169:../Switch/core/yt/yt_storm_ctrl.c ****     CMM_PARAM_CHK((!(CMM_PORT_VALID(unit,port))), CMM_ERR_PORT);
 1624              		.loc 1 169 5 discriminator 3 view .LVU477
 1625              	.LBB32:
 169:../Switch/core/yt/yt_storm_ctrl.c ****     CMM_PARAM_CHK((!(CMM_PORT_VALID(unit,port))), CMM_ERR_PORT);
 1626              		.loc 1 169 5 discriminator 3 view .LVU478
 1627 007a 164B     		ldr	r3, .L166+16
 1628 007c 1A69     		ldr	r2, [r3, #16]
 1629              	.LVL234:
 169:../Switch/core/yt/yt_storm_ctrl.c ****     CMM_PARAM_CHK((!(CMM_PORT_VALID(unit,port))), CMM_ERR_PORT);
 1630              		.loc 1 169 5 is_stmt 0 discriminator 3 view .LVU479
 1631 007e 164B     		ldr	r3, .L166+20
 1632 0080 9968     		ldr	r1, [r3, #8]
 1633              	.LVL235:
 169:../Switch/core/yt/yt_storm_ctrl.c ****     CMM_PARAM_CHK((!(CMM_PORT_VALID(unit,port))), CMM_ERR_PORT);
 1634              		.loc 1 169 5 discriminator 3 view .LVU480
 1635 0082 1648     		ldr	r0, .L166+24
 1636 0084 FFF7FEFF 		bl	osal_printf
 1637              	.LVL236:
 1638 0088 F5E7     		b	.L150
 1639              	.LVL237:
 1640              	.L151:
 169:../Switch/core/yt/yt_storm_ctrl.c ****     CMM_PARAM_CHK((!(CMM_PORT_VALID(unit,port))), CMM_ERR_PORT);
 1641              		.loc 1 169 5 discriminator 3 view .LVU481
 1642              	.LBE32:
 170:../Switch/core/yt/yt_storm_ctrl.c ****     CMM_PARAM_CHK((NULL == pInc_gap), CMM_ERR_NULL_POINT);
 1643              		.loc 1 170 5 is_stmt 1 discriminator 3 view .LVU482
 170:../Switch/core/yt/yt_storm_ctrl.c ****     CMM_PARAM_CHK((NULL == pInc_gap), CMM_ERR_NULL_POINT);
 1644              		.loc 1 170 5 discriminator 3 view .LVU483
 1645 008a 114B     		ldr	r3, .L166+12
 1646              	.LVL238:
 170:../Switch/core/yt/yt_storm_ctrl.c ****     CMM_PARAM_CHK((NULL == pInc_gap), CMM_ERR_NULL_POINT);
 1647              		.loc 1 170 5 is_stmt 0 discriminator 3 view .LVU484
 1648 008c 1B78     		ldrb	r3, [r3]	@ zero_extendqisi2
 1649 008e 012B     		cmp	r3, #1
 1650 0090 01D8     		bhi	.L164
 1651              	.LVL239:
 1652              	.L153:
 170:../Switch/core/yt/yt_storm_ctrl.c ****     CMM_PARAM_CHK((NULL == pInc_gap), CMM_ERR_NULL_POINT);
 1653              		.loc 1 170 5 is_stmt 1 discriminator 7 view .LVU485
 170:../Switch/core/yt/yt_storm_ctrl.c ****     CMM_PARAM_CHK((NULL == pInc_gap), CMM_ERR_NULL_POINT);
 1654              		.loc 1 170 5 discriminator 7 view .LVU486
 170:../Switch/core/yt/yt_storm_ctrl.c ****     CMM_PARAM_CHK((NULL == pInc_gap), CMM_ERR_NULL_POINT);
 1655              		.loc 1 170 5 discriminator 7 view .LVU487
 1656 0092 0E20     		movs	r0, #14
 1657 0094 CEE7     		b	.L143
 1658              	.LVL240:
 1659              	.L164:
 170:../Switch/core/yt/yt_storm_ctrl.c ****     CMM_PARAM_CHK((NULL == pInc_gap), CMM_ERR_NULL_POINT);
 1660              		.loc 1 170 5 discriminator 5 view .LVU488
 1661              	.LBB33:
 170:../Switch/core/yt/yt_storm_ctrl.c ****     CMM_PARAM_CHK((NULL == pInc_gap), CMM_ERR_NULL_POINT);
 1662              		.loc 1 170 5 discriminator 5 view .LVU489
 1663 0096 0F4B     		ldr	r3, .L166+16
 1664 0098 9A6B     		ldr	r2, [r3, #56]
 1665              	.LVL241:
 170:../Switch/core/yt/yt_storm_ctrl.c ****     CMM_PARAM_CHK((NULL == pInc_gap), CMM_ERR_NULL_POINT);
 1666              		.loc 1 170 5 is_stmt 0 discriminator 5 view .LVU490
 1667 009a 0F4B     		ldr	r3, .L166+20
 1668 009c 9968     		ldr	r1, [r3, #8]
 1669              	.LVL242:
 170:../Switch/core/yt/yt_storm_ctrl.c ****     CMM_PARAM_CHK((NULL == pInc_gap), CMM_ERR_NULL_POINT);
 1670              		.loc 1 170 5 discriminator 5 view .LVU491
 1671 009e 0F48     		ldr	r0, .L166+24
 1672 00a0 FFF7FEFF 		bl	osal_printf
 1673              	.LVL243:
 1674 00a4 F5E7     		b	.L153
 1675              	.LVL244:
 1676              	.L160:
 170:../Switch/core/yt/yt_storm_ctrl.c ****     CMM_PARAM_CHK((NULL == pInc_gap), CMM_ERR_NULL_POINT);
 1677              		.loc 1 170 5 discriminator 5 view .LVU492
 1678              	.LBE33:
 171:../Switch/core/yt/yt_storm_ctrl.c **** 
 1679              		.loc 1 171 5 is_stmt 1 discriminator 1 view .LVU493
 171:../Switch/core/yt/yt_storm_ctrl.c **** 
 1680              		.loc 1 171 5 discriminator 1 view .LVU494
 1681 00a6 0A4B     		ldr	r3, .L166+12
 1682              	.LVL245:
 171:../Switch/core/yt/yt_storm_ctrl.c **** 
 1683              		.loc 1 171 5 is_stmt 0 discriminator 1 view .LVU495
 1684 00a8 1B78     		ldrb	r3, [r3]	@ zero_extendqisi2
 1685 00aa 012B     		cmp	r3, #1
 1686 00ac 01D8     		bhi	.L165
 1687              	.LVL246:
 1688              	.L155:
 171:../Switch/core/yt/yt_storm_ctrl.c **** 
 1689              		.loc 1 171 5 is_stmt 1 discriminator 5 view .LVU496
 171:../Switch/core/yt/yt_storm_ctrl.c **** 
 1690              		.loc 1 171 5 discriminator 5 view .LVU497
 171:../Switch/core/yt/yt_storm_ctrl.c **** 
 1691              		.loc 1 171 5 discriminator 5 view .LVU498
 1692 00ae 0220     		movs	r0, #2
 1693 00b0 C0E7     		b	.L143
 1694              	.LVL247:
 1695              	.L165:
 171:../Switch/core/yt/yt_storm_ctrl.c **** 
 1696              		.loc 1 171 5 discriminator 3 view .LVU499
 1697              	.LBB34:
 171:../Switch/core/yt/yt_storm_ctrl.c **** 
 1698              		.loc 1 171 5 discriminator 3 view .LVU500
 1699 00b2 084B     		ldr	r3, .L166+16
 1700 00b4 9A68     		ldr	r2, [r3, #8]
 1701              	.LVL248:
 171:../Switch/core/yt/yt_storm_ctrl.c **** 
 1702              		.loc 1 171 5 is_stmt 0 discriminator 3 view .LVU501
 1703 00b6 084B     		ldr	r3, .L166+20
 1704 00b8 9968     		ldr	r1, [r3, #8]
 1705              	.LVL249:
 171:../Switch/core/yt/yt_storm_ctrl.c **** 
 1706              		.loc 1 171 5 discriminator 3 view .LVU502
 1707 00ba 0848     		ldr	r0, .L166+24
 1708 00bc FFF7FEFF 		bl	osal_printf
 1709              	.LVL250:
 1710 00c0 F5E7     		b	.L155
 1711              	.L167:
 1712 00c2 00BF     		.align	2
 1713              	.L166:
 1714 00c4 00000000 		.word	gpfal_dispatch
 1715 00c8 00000000 		.word	gcal_inited
 1716 00cc 00000000 		.word	gpSwitchUnit
 1717 00d0 00000000 		.word	yt_debug_level
 1718 00d4 00000000 		.word	_yt_errmsg
 1719 00d8 00000000 		.word	_yt_prompt_msg
 1720 00dc 00000000 		.word	.LC0
 1721              	.LBE34:
 1722              		.cfi_endproc
 1723              	.LFE9:
 1725              		.section	.text.yt_storm_ctrl_rate_set,"ax",%progbits
 1726              		.align	1
 1727              		.global	yt_storm_ctrl_rate_set
 1728              		.syntax unified
 1729              		.thumb
 1730              		.thumb_func
 1732              	yt_storm_ctrl_rate_set:
 1733              	.LVL251:
 1734              	.LFB10:
 175:../Switch/core/yt/yt_storm_ctrl.c **** 
 176:../Switch/core/yt/yt_storm_ctrl.c **** /**
 177:../Switch/core/yt/yt_storm_ctrl.c ****  * @internal      yt_storm_ctrl_rate_set
 178:../Switch/core/yt/yt_storm_ctrl.c ****  * @endinternal
 179:../Switch/core/yt/yt_storm_ctrl.c ****  *
 180:../Switch/core/yt/yt_storm_ctrl.c ****  * @brief         Description
 181:../Switch/core/yt/yt_storm_ctrl.c ****  * @param[in]     unit                -unit id
 182:../Switch/core/yt/yt_storm_ctrl.c ****  * @param[in]     port                -port num
 183:../Switch/core/yt/yt_storm_ctrl.c ****  * @param[in]     storm_type          -storm type,refer to yt_storm_type_t
 184:../Switch/core/yt/yt_storm_ctrl.c ****  * @param[in]     rate                -x
 185:../Switch/core/yt/yt_storm_ctrl.c ****  * @retval        CMM_ERR_OK          -on success
 186:../Switch/core/yt/yt_storm_ctrl.c ****  * @retval        CMM_ERR_FAIL        -on fail
 187:../Switch/core/yt/yt_storm_ctrl.c ****  */
 188:../Switch/core/yt/yt_storm_ctrl.c **** yt_ret_t yt_storm_ctrl_rate_set(yt_unit_t unit, yt_port_t port, yt_storm_type_t storm_type, uint32_
 189:../Switch/core/yt/yt_storm_ctrl.c **** {
 1735              		.loc 1 189 1 is_stmt 1 view -0
 1736              		.cfi_startproc
 1737              		@ args = 0, pretend = 0, frame = 0
 1738              		@ frame_needed = 0, uses_anonymous_args = 0
 1739              		.loc 1 189 1 is_stmt 0 view .LVU504
 1740 0000 10B5     		push	{r4, lr}
 1741              		.cfi_def_cfa_offset 8
 1742              		.cfi_offset 4, -8
 1743              		.cfi_offset 14, -4
 190:../Switch/core/yt/yt_storm_ctrl.c ****     CMM_PARAM_CHK((YT_UNIT_NUM <= unit), CMM_ERR_INPUT);
 1744              		.loc 1 190 5 is_stmt 1 view .LVU505
 1745              		.loc 1 190 5 view .LVU506
 1746 0002 A8B9     		cbnz	r0, .L180
 1747 0004 8446     		mov	ip, r0
 1748              		.loc 1 190 5 discriminator 2 view .LVU507
 191:../Switch/core/yt/yt_storm_ctrl.c ****     CMM_PARAM_CHK(NULL == YT_DISPATCH(unit), CMM_ERR_NOT_INIT);
 1749              		.loc 1 191 5 discriminator 2 view .LVU508
 1750              		.loc 1 191 5 discriminator 2 view .LVU509
 1751 0006 2648     		ldr	r0, .L187
 1752              	.LVL252:
 1753              		.loc 1 191 5 is_stmt 0 discriminator 2 view .LVU510
 1754 0008 50F82C40 		ldr	r4, [r0, ip, lsl #2]
 1755 000c F4B1     		cbz	r4, .L181
 1756              		.loc 1 191 5 is_stmt 1 discriminator 2 view .LVU511
 192:../Switch/core/yt/yt_storm_ctrl.c ****     CMM_PARAM_CHK((!(YT_DISPATCH(unit)->is_inited)), CMM_ERR_NOT_INIT);
 1757              		.loc 1 192 5 discriminator 2 view .LVU512
 1758              		.loc 1 192 5 discriminator 2 view .LVU513
 1759 000e 2078     		ldrb	r0, [r4]	@ zero_extendqisi2
 1760 0010 50B3     		cbz	r0, .L182
 1761              		.loc 1 192 5 discriminator 2 view .LVU514
 193:../Switch/core/yt/yt_storm_ctrl.c ****     CMM_PARAM_CHK((!(CMM_PORT_VALID(unit,port))), CMM_ERR_PORT);
 1762              		.loc 1 193 5 discriminator 2 view .LVU515
 1763              		.loc 1 193 5 discriminator 2 view .LVU516
 1764 0012 2448     		ldr	r0, .L187+4
 1765 0014 0078     		ldrb	r0, [r0]	@ zero_extendqisi2
 1766 0016 0028     		cmp	r0, #0
 1767 0018 34D0     		beq	.L176
 1768 001a 2348     		ldr	r0, .L187+8
 1769 001c 50F82C00 		ldr	r0, [r0, ip, lsl #2]
 1770 0020 007D     		ldrb	r0, [r0, #20]	@ zero_extendqisi2
 1771 0022 8842     		cmp	r0, r1
 1772 0024 2ED9     		bls	.L176
 1773              		.loc 1 193 5 discriminator 4 view .LVU517
 194:../Switch/core/yt/yt_storm_ctrl.c **** 
 195:../Switch/core/yt/yt_storm_ctrl.c ****     return YT_DISPATCH(unit)->storm_ctrl_rate_set(unit, port, storm_type, rate);
 1774              		.loc 1 195 5 discriminator 4 view .LVU518
 1775              		.loc 1 195 29 is_stmt 0 discriminator 4 view .LVU519
 1776 0026 D4F82443 		ldr	r4, [r4, #804]
 1777              		.loc 1 195 12 discriminator 4 view .LVU520
 1778 002a 6046     		mov	r0, ip
 1779 002c A047     		blx	r4
 1780              	.LVL253:
 1781              	.L168:
 196:../Switch/core/yt/yt_storm_ctrl.c **** }
 1782              		.loc 1 196 1 view .LVU521
 1783 002e 10BD     		pop	{r4, pc}
 1784              	.LVL254:
 1785              	.L180:
 190:../Switch/core/yt/yt_storm_ctrl.c ****     CMM_PARAM_CHK(NULL == YT_DISPATCH(unit), CMM_ERR_NOT_INIT);
 1786              		.loc 1 190 5 is_stmt 1 discriminator 1 view .LVU522
 190:../Switch/core/yt/yt_storm_ctrl.c ****     CMM_PARAM_CHK(NULL == YT_DISPATCH(unit), CMM_ERR_NOT_INIT);
 1787              		.loc 1 190 5 discriminator 1 view .LVU523
 1788 0030 1E4B     		ldr	r3, .L187+12
 1789              	.LVL255:
 190:../Switch/core/yt/yt_storm_ctrl.c ****     CMM_PARAM_CHK(NULL == YT_DISPATCH(unit), CMM_ERR_NOT_INIT);
 1790              		.loc 1 190 5 is_stmt 0 discriminator 1 view .LVU524
 1791 0032 1B78     		ldrb	r3, [r3]	@ zero_extendqisi2
 1792 0034 012B     		cmp	r3, #1
 1793 0036 01D8     		bhi	.L183
 1794              	.LVL256:
 1795              	.L170:
 190:../Switch/core/yt/yt_storm_ctrl.c ****     CMM_PARAM_CHK(NULL == YT_DISPATCH(unit), CMM_ERR_NOT_INIT);
 1796              		.loc 1 190 5 is_stmt 1 discriminator 5 view .LVU525
 190:../Switch/core/yt/yt_storm_ctrl.c ****     CMM_PARAM_CHK(NULL == YT_DISPATCH(unit), CMM_ERR_NOT_INIT);
 1797              		.loc 1 190 5 discriminator 5 view .LVU526
 190:../Switch/core/yt/yt_storm_ctrl.c ****     CMM_PARAM_CHK(NULL == YT_DISPATCH(unit), CMM_ERR_NOT_INIT);
 1798              		.loc 1 190 5 discriminator 5 view .LVU527
 1799 0038 0520     		movs	r0, #5
 1800 003a F8E7     		b	.L168
 1801              	.LVL257:
 1802              	.L183:
 190:../Switch/core/yt/yt_storm_ctrl.c ****     CMM_PARAM_CHK(NULL == YT_DISPATCH(unit), CMM_ERR_NOT_INIT);
 1803              		.loc 1 190 5 discriminator 3 view .LVU528
 1804              	.LBB35:
 190:../Switch/core/yt/yt_storm_ctrl.c ****     CMM_PARAM_CHK(NULL == YT_DISPATCH(unit), CMM_ERR_NOT_INIT);
 1805              		.loc 1 190 5 discriminator 3 view .LVU529
 1806 003c 1C4B     		ldr	r3, .L187+16
 1807 003e 5A69     		ldr	r2, [r3, #20]
 1808              	.LVL258:
 190:../Switch/core/yt/yt_storm_ctrl.c ****     CMM_PARAM_CHK(NULL == YT_DISPATCH(unit), CMM_ERR_NOT_INIT);
 1809              		.loc 1 190 5 is_stmt 0 discriminator 3 view .LVU530
 1810 0040 1C4B     		ldr	r3, .L187+20
 1811 0042 9968     		ldr	r1, [r3, #8]
 1812              	.LVL259:
 190:../Switch/core/yt/yt_storm_ctrl.c ****     CMM_PARAM_CHK(NULL == YT_DISPATCH(unit), CMM_ERR_NOT_INIT);
 1813              		.loc 1 190 5 discriminator 3 view .LVU531
 1814 0044 1C48     		ldr	r0, .L187+24
 1815              	.LVL260:
 190:../Switch/core/yt/yt_storm_ctrl.c ****     CMM_PARAM_CHK(NULL == YT_DISPATCH(unit), CMM_ERR_NOT_INIT);
 1816              		.loc 1 190 5 discriminator 3 view .LVU532
 1817 0046 FFF7FEFF 		bl	osal_printf
 1818              	.LVL261:
 1819 004a F5E7     		b	.L170
 1820              	.LVL262:
 1821              	.L181:
 190:../Switch/core/yt/yt_storm_ctrl.c ****     CMM_PARAM_CHK(NULL == YT_DISPATCH(unit), CMM_ERR_NOT_INIT);
 1822              		.loc 1 190 5 discriminator 3 view .LVU533
 1823              	.LBE35:
 191:../Switch/core/yt/yt_storm_ctrl.c ****     CMM_PARAM_CHK((!(YT_DISPATCH(unit)->is_inited)), CMM_ERR_NOT_INIT);
 1824              		.loc 1 191 5 is_stmt 1 discriminator 1 view .LVU534
 191:../Switch/core/yt/yt_storm_ctrl.c ****     CMM_PARAM_CHK((!(YT_DISPATCH(unit)->is_inited)), CMM_ERR_NOT_INIT);
 1825              		.loc 1 191 5 discriminator 1 view .LVU535
 1826 004c 174B     		ldr	r3, .L187+12
 1827              	.LVL263:
 191:../Switch/core/yt/yt_storm_ctrl.c ****     CMM_PARAM_CHK((!(YT_DISPATCH(unit)->is_inited)), CMM_ERR_NOT_INIT);
 1828              		.loc 1 191 5 is_stmt 0 discriminator 1 view .LVU536
 1829 004e 1B78     		ldrb	r3, [r3]	@ zero_extendqisi2
 1830 0050 012B     		cmp	r3, #1
 1831 0052 01D8     		bhi	.L184
 1832              	.LVL264:
 1833              	.L173:
 191:../Switch/core/yt/yt_storm_ctrl.c ****     CMM_PARAM_CHK((!(YT_DISPATCH(unit)->is_inited)), CMM_ERR_NOT_INIT);
 1834              		.loc 1 191 5 is_stmt 1 discriminator 5 view .LVU537
 191:../Switch/core/yt/yt_storm_ctrl.c ****     CMM_PARAM_CHK((!(YT_DISPATCH(unit)->is_inited)), CMM_ERR_NOT_INIT);
 1835              		.loc 1 191 5 discriminator 5 view .LVU538
 191:../Switch/core/yt/yt_storm_ctrl.c ****     CMM_PARAM_CHK((!(YT_DISPATCH(unit)->is_inited)), CMM_ERR_NOT_INIT);
 1836              		.loc 1 191 5 discriminator 5 view .LVU539
 1837 0054 0420     		movs	r0, #4
 1838 0056 EAE7     		b	.L168
 1839              	.LVL265:
 1840              	.L184:
 191:../Switch/core/yt/yt_storm_ctrl.c ****     CMM_PARAM_CHK((!(YT_DISPATCH(unit)->is_inited)), CMM_ERR_NOT_INIT);
 1841              		.loc 1 191 5 discriminator 3 view .LVU540
 1842              	.LBB36:
 191:../Switch/core/yt/yt_storm_ctrl.c ****     CMM_PARAM_CHK((!(YT_DISPATCH(unit)->is_inited)), CMM_ERR_NOT_INIT);
 1843              		.loc 1 191 5 discriminator 3 view .LVU541
 1844 0058 154B     		ldr	r3, .L187+16
 1845 005a 1A69     		ldr	r2, [r3, #16]
 1846              	.LVL266:
 191:../Switch/core/yt/yt_storm_ctrl.c ****     CMM_PARAM_CHK((!(YT_DISPATCH(unit)->is_inited)), CMM_ERR_NOT_INIT);
 1847              		.loc 1 191 5 is_stmt 0 discriminator 3 view .LVU542
 1848 005c 154B     		ldr	r3, .L187+20
 1849 005e 9968     		ldr	r1, [r3, #8]
 1850              	.LVL267:
 191:../Switch/core/yt/yt_storm_ctrl.c ****     CMM_PARAM_CHK((!(YT_DISPATCH(unit)->is_inited)), CMM_ERR_NOT_INIT);
 1851              		.loc 1 191 5 discriminator 3 view .LVU543
 1852 0060 1548     		ldr	r0, .L187+24
 1853 0062 FFF7FEFF 		bl	osal_printf
 1854              	.LVL268:
 1855 0066 F5E7     		b	.L173
 1856              	.LVL269:
 1857              	.L182:
 191:../Switch/core/yt/yt_storm_ctrl.c ****     CMM_PARAM_CHK((!(YT_DISPATCH(unit)->is_inited)), CMM_ERR_NOT_INIT);
 1858              		.loc 1 191 5 discriminator 3 view .LVU544
 1859              	.LBE36:
 192:../Switch/core/yt/yt_storm_ctrl.c ****     CMM_PARAM_CHK((!(CMM_PORT_VALID(unit,port))), CMM_ERR_PORT);
 1860              		.loc 1 192 5 is_stmt 1 discriminator 1 view .LVU545
 192:../Switch/core/yt/yt_storm_ctrl.c ****     CMM_PARAM_CHK((!(CMM_PORT_VALID(unit,port))), CMM_ERR_PORT);
 1861              		.loc 1 192 5 discriminator 1 view .LVU546
 1862 0068 104B     		ldr	r3, .L187+12
 1863              	.LVL270:
 192:../Switch/core/yt/yt_storm_ctrl.c ****     CMM_PARAM_CHK((!(CMM_PORT_VALID(unit,port))), CMM_ERR_PORT);
 1864              		.loc 1 192 5 is_stmt 0 discriminator 1 view .LVU547
 1865 006a 1B78     		ldrb	r3, [r3]	@ zero_extendqisi2
 1866 006c 012B     		cmp	r3, #1
 1867 006e 01D8     		bhi	.L185
 1868              	.LVL271:
 1869              	.L175:
 192:../Switch/core/yt/yt_storm_ctrl.c ****     CMM_PARAM_CHK((!(CMM_PORT_VALID(unit,port))), CMM_ERR_PORT);
 1870              		.loc 1 192 5 is_stmt 1 discriminator 5 view .LVU548
 192:../Switch/core/yt/yt_storm_ctrl.c ****     CMM_PARAM_CHK((!(CMM_PORT_VALID(unit,port))), CMM_ERR_PORT);
 1871              		.loc 1 192 5 discriminator 5 view .LVU549
 192:../Switch/core/yt/yt_storm_ctrl.c ****     CMM_PARAM_CHK((!(CMM_PORT_VALID(unit,port))), CMM_ERR_PORT);
 1872              		.loc 1 192 5 discriminator 5 view .LVU550
 1873 0070 0420     		movs	r0, #4
 1874 0072 DCE7     		b	.L168
 1875              	.LVL272:
 1876              	.L185:
 192:../Switch/core/yt/yt_storm_ctrl.c ****     CMM_PARAM_CHK((!(CMM_PORT_VALID(unit,port))), CMM_ERR_PORT);
 1877              		.loc 1 192 5 discriminator 3 view .LVU551
 1878              	.LBB37:
 192:../Switch/core/yt/yt_storm_ctrl.c ****     CMM_PARAM_CHK((!(CMM_PORT_VALID(unit,port))), CMM_ERR_PORT);
 1879              		.loc 1 192 5 discriminator 3 view .LVU552
 1880 0074 0E4B     		ldr	r3, .L187+16
 1881 0076 1A69     		ldr	r2, [r3, #16]
 1882              	.LVL273:
 192:../Switch/core/yt/yt_storm_ctrl.c ****     CMM_PARAM_CHK((!(CMM_PORT_VALID(unit,port))), CMM_ERR_PORT);
 1883              		.loc 1 192 5 is_stmt 0 discriminator 3 view .LVU553
 1884 0078 0E4B     		ldr	r3, .L187+20
 1885 007a 9968     		ldr	r1, [r3, #8]
 1886              	.LVL274:
 192:../Switch/core/yt/yt_storm_ctrl.c ****     CMM_PARAM_CHK((!(CMM_PORT_VALID(unit,port))), CMM_ERR_PORT);
 1887              		.loc 1 192 5 discriminator 3 view .LVU554
 1888 007c 0E48     		ldr	r0, .L187+24
 1889 007e FFF7FEFF 		bl	osal_printf
 1890              	.LVL275:
 1891 0082 F5E7     		b	.L175
 1892              	.LVL276:
 1893              	.L176:
 192:../Switch/core/yt/yt_storm_ctrl.c ****     CMM_PARAM_CHK((!(CMM_PORT_VALID(unit,port))), CMM_ERR_PORT);
 1894              		.loc 1 192 5 discriminator 3 view .LVU555
 1895              	.LBE37:
 193:../Switch/core/yt/yt_storm_ctrl.c **** 
 1896              		.loc 1 193 5 is_stmt 1 discriminator 3 view .LVU556
 193:../Switch/core/yt/yt_storm_ctrl.c **** 
 1897              		.loc 1 193 5 discriminator 3 view .LVU557
 1898 0084 094B     		ldr	r3, .L187+12
 1899              	.LVL277:
 193:../Switch/core/yt/yt_storm_ctrl.c **** 
 1900              		.loc 1 193 5 is_stmt 0 discriminator 3 view .LVU558
 1901 0086 1B78     		ldrb	r3, [r3]	@ zero_extendqisi2
 1902 0088 012B     		cmp	r3, #1
 1903 008a 01D8     		bhi	.L186
 1904              	.LVL278:
 1905              	.L178:
 193:../Switch/core/yt/yt_storm_ctrl.c **** 
 1906              		.loc 1 193 5 is_stmt 1 discriminator 7 view .LVU559
 193:../Switch/core/yt/yt_storm_ctrl.c **** 
 1907              		.loc 1 193 5 discriminator 7 view .LVU560
 193:../Switch/core/yt/yt_storm_ctrl.c **** 
 1908              		.loc 1 193 5 discriminator 7 view .LVU561
 1909 008c 0E20     		movs	r0, #14
 1910 008e CEE7     		b	.L168
 1911              	.LVL279:
 1912              	.L186:
 193:../Switch/core/yt/yt_storm_ctrl.c **** 
 1913              		.loc 1 193 5 discriminator 5 view .LVU562
 1914              	.LBB38:
 193:../Switch/core/yt/yt_storm_ctrl.c **** 
 1915              		.loc 1 193 5 discriminator 5 view .LVU563
 1916 0090 074B     		ldr	r3, .L187+16
 1917 0092 9A6B     		ldr	r2, [r3, #56]
 1918              	.LVL280:
 193:../Switch/core/yt/yt_storm_ctrl.c **** 
 1919              		.loc 1 193 5 is_stmt 0 discriminator 5 view .LVU564
 1920 0094 074B     		ldr	r3, .L187+20
 1921 0096 9968     		ldr	r1, [r3, #8]
 1922              	.LVL281:
 193:../Switch/core/yt/yt_storm_ctrl.c **** 
 1923              		.loc 1 193 5 discriminator 5 view .LVU565
 1924 0098 0748     		ldr	r0, .L187+24
 1925 009a FFF7FEFF 		bl	osal_printf
 1926              	.LVL282:
 1927 009e F5E7     		b	.L178
 1928              	.L188:
 1929              		.align	2
 1930              	.L187:
 1931 00a0 00000000 		.word	gpfal_dispatch
 1932 00a4 00000000 		.word	gcal_inited
 1933 00a8 00000000 		.word	gpSwitchUnit
 1934 00ac 00000000 		.word	yt_debug_level
 1935 00b0 00000000 		.word	_yt_errmsg
 1936 00b4 00000000 		.word	_yt_prompt_msg
 1937 00b8 00000000 		.word	.LC0
 1938              	.LBE38:
 1939              		.cfi_endproc
 1940              	.LFE10:
 1942              		.section	.text.yt_storm_ctrl_rate_get,"ax",%progbits
 1943              		.align	1
 1944              		.global	yt_storm_ctrl_rate_get
 1945              		.syntax unified
 1946              		.thumb
 1947              		.thumb_func
 1949              	yt_storm_ctrl_rate_get:
 1950              	.LVL283:
 1951              	.LFB11:
 197:../Switch/core/yt/yt_storm_ctrl.c **** 
 198:../Switch/core/yt/yt_storm_ctrl.c **** /**
 199:../Switch/core/yt/yt_storm_ctrl.c ****  * @internal      yt_storm_ctrl_rate_get
 200:../Switch/core/yt/yt_storm_ctrl.c ****  * @endinternal
 201:../Switch/core/yt/yt_storm_ctrl.c ****  *
 202:../Switch/core/yt/yt_storm_ctrl.c ****  * @brief         Description
 203:../Switch/core/yt/yt_storm_ctrl.c ****  * @param[in]     unit                -unit id
 204:../Switch/core/yt/yt_storm_ctrl.c ****  * @param[in]     port                -port num
 205:../Switch/core/yt/yt_storm_ctrl.c ****  * @param[in]     storm_type          -storm type,refer to yt_storm_type_t
 206:../Switch/core/yt/yt_storm_ctrl.c ****  * @param[out]    pRate               -x
 207:../Switch/core/yt/yt_storm_ctrl.c ****  * @retval        CMM_ERR_OK          -on success
 208:../Switch/core/yt/yt_storm_ctrl.c ****  * @retval        CMM_ERR_FAIL        -on fail
 209:../Switch/core/yt/yt_storm_ctrl.c ****  */
 210:../Switch/core/yt/yt_storm_ctrl.c **** yt_ret_t yt_storm_ctrl_rate_get(yt_unit_t unit, yt_port_t port, yt_storm_type_t storm_type, uint32_
 211:../Switch/core/yt/yt_storm_ctrl.c **** {
 1952              		.loc 1 211 1 is_stmt 1 view -0
 1953              		.cfi_startproc
 1954              		@ args = 0, pretend = 0, frame = 0
 1955              		@ frame_needed = 0, uses_anonymous_args = 0
 1956              		.loc 1 211 1 is_stmt 0 view .LVU567
 1957 0000 10B5     		push	{r4, lr}
 1958              		.cfi_def_cfa_offset 8
 1959              		.cfi_offset 4, -8
 1960              		.cfi_offset 14, -4
 212:../Switch/core/yt/yt_storm_ctrl.c ****     CMM_PARAM_CHK((YT_UNIT_NUM <= unit), CMM_ERR_INPUT);
 1961              		.loc 1 212 5 is_stmt 1 view .LVU568
 1962              		.loc 1 212 5 view .LVU569
 1963 0002 C0B9     		cbnz	r0, .L203
 1964 0004 8446     		mov	ip, r0
 1965              		.loc 1 212 5 discriminator 2 view .LVU570
 213:../Switch/core/yt/yt_storm_ctrl.c ****     CMM_PARAM_CHK(NULL == YT_DISPATCH(unit), CMM_ERR_NOT_INIT);
 1966              		.loc 1 213 5 discriminator 2 view .LVU571
 1967              		.loc 1 213 5 discriminator 2 view .LVU572
 1968 0006 2F48     		ldr	r0, .L212
 1969              	.LVL284:
 1970              		.loc 1 213 5 is_stmt 0 discriminator 2 view .LVU573
 1971 0008 50F82C40 		ldr	r4, [r0, ip, lsl #2]
 1972 000c 0CB3     		cbz	r4, .L204
 1973              		.loc 1 213 5 is_stmt 1 discriminator 2 view .LVU574
 214:../Switch/core/yt/yt_storm_ctrl.c ****     CMM_PARAM_CHK((!(YT_DISPATCH(unit)->is_inited)), CMM_ERR_NOT_INIT);
 1974              		.loc 1 214 5 discriminator 2 view .LVU575
 1975              		.loc 1 214 5 discriminator 2 view .LVU576
 1976 000e 2078     		ldrb	r0, [r4]	@ zero_extendqisi2
 1977 0010 0028     		cmp	r0, #0
 1978 0012 2CD0     		beq	.L205
 1979              		.loc 1 214 5 discriminator 2 view .LVU577
 215:../Switch/core/yt/yt_storm_ctrl.c ****     CMM_PARAM_CHK((!(CMM_PORT_VALID(unit,port))), CMM_ERR_PORT);
 1980              		.loc 1 215 5 discriminator 2 view .LVU578
 1981              		.loc 1 215 5 discriminator 2 view .LVU579
 1982 0014 2C48     		ldr	r0, .L212+4
 1983 0016 0078     		ldrb	r0, [r0]	@ zero_extendqisi2
 1984 0018 0028     		cmp	r0, #0
 1985 001a 36D0     		beq	.L197
 1986 001c 2B48     		ldr	r0, .L212+8
 1987 001e 50F82C00 		ldr	r0, [r0, ip, lsl #2]
 1988 0022 007D     		ldrb	r0, [r0, #20]	@ zero_extendqisi2
 1989 0024 8842     		cmp	r0, r1
 1990 0026 30D9     		bls	.L197
 1991              		.loc 1 215 5 discriminator 4 view .LVU580
 216:../Switch/core/yt/yt_storm_ctrl.c ****     CMM_PARAM_CHK((NULL == pRate), CMM_ERR_NULL_POINT);
 1992              		.loc 1 216 5 discriminator 4 view .LVU581
 1993              		.loc 1 216 5 discriminator 4 view .LVU582
 1994 0028 002B     		cmp	r3, #0
 1995 002a 3CD0     		beq	.L206
 1996              		.loc 1 216 5 discriminator 2 view .LVU583
 217:../Switch/core/yt/yt_storm_ctrl.c **** 
 218:../Switch/core/yt/yt_storm_ctrl.c ****     return YT_DISPATCH(unit)->storm_ctrl_rate_get(unit, port, storm_type, pRate);
 1997              		.loc 1 218 5 discriminator 2 view .LVU584
 1998              		.loc 1 218 29 is_stmt 0 discriminator 2 view .LVU585
 1999 002c D4F82843 		ldr	r4, [r4, #808]
 2000              		.loc 1 218 12 discriminator 2 view .LVU586
 2001 0030 6046     		mov	r0, ip
 2002 0032 A047     		blx	r4
 2003              	.LVL285:
 2004              	.L189:
 219:../Switch/core/yt/yt_storm_ctrl.c **** }
 2005              		.loc 1 219 1 view .LVU587
 2006 0034 10BD     		pop	{r4, pc}
 2007              	.LVL286:
 2008              	.L203:
 212:../Switch/core/yt/yt_storm_ctrl.c ****     CMM_PARAM_CHK(NULL == YT_DISPATCH(unit), CMM_ERR_NOT_INIT);
 2009              		.loc 1 212 5 is_stmt 1 discriminator 1 view .LVU588
 212:../Switch/core/yt/yt_storm_ctrl.c ****     CMM_PARAM_CHK(NULL == YT_DISPATCH(unit), CMM_ERR_NOT_INIT);
 2010              		.loc 1 212 5 discriminator 1 view .LVU589
 2011 0036 264B     		ldr	r3, .L212+12
 2012              	.LVL287:
 212:../Switch/core/yt/yt_storm_ctrl.c ****     CMM_PARAM_CHK(NULL == YT_DISPATCH(unit), CMM_ERR_NOT_INIT);
 2013              		.loc 1 212 5 is_stmt 0 discriminator 1 view .LVU590
 2014 0038 1B78     		ldrb	r3, [r3]	@ zero_extendqisi2
 2015 003a 012B     		cmp	r3, #1
 2016 003c 01D8     		bhi	.L207
 2017              	.LVL288:
 2018              	.L191:
 212:../Switch/core/yt/yt_storm_ctrl.c ****     CMM_PARAM_CHK(NULL == YT_DISPATCH(unit), CMM_ERR_NOT_INIT);
 2019              		.loc 1 212 5 is_stmt 1 discriminator 5 view .LVU591
 212:../Switch/core/yt/yt_storm_ctrl.c ****     CMM_PARAM_CHK(NULL == YT_DISPATCH(unit), CMM_ERR_NOT_INIT);
 2020              		.loc 1 212 5 discriminator 5 view .LVU592
 212:../Switch/core/yt/yt_storm_ctrl.c ****     CMM_PARAM_CHK(NULL == YT_DISPATCH(unit), CMM_ERR_NOT_INIT);
 2021              		.loc 1 212 5 discriminator 5 view .LVU593
 2022 003e 0520     		movs	r0, #5
 2023 0040 F8E7     		b	.L189
 2024              	.LVL289:
 2025              	.L207:
 212:../Switch/core/yt/yt_storm_ctrl.c ****     CMM_PARAM_CHK(NULL == YT_DISPATCH(unit), CMM_ERR_NOT_INIT);
 2026              		.loc 1 212 5 discriminator 3 view .LVU594
 2027              	.LBB39:
 212:../Switch/core/yt/yt_storm_ctrl.c ****     CMM_PARAM_CHK(NULL == YT_DISPATCH(unit), CMM_ERR_NOT_INIT);
 2028              		.loc 1 212 5 discriminator 3 view .LVU595
 2029 0042 244B     		ldr	r3, .L212+16
 2030 0044 5A69     		ldr	r2, [r3, #20]
 2031              	.LVL290:
 212:../Switch/core/yt/yt_storm_ctrl.c ****     CMM_PARAM_CHK(NULL == YT_DISPATCH(unit), CMM_ERR_NOT_INIT);
 2032              		.loc 1 212 5 is_stmt 0 discriminator 3 view .LVU596
 2033 0046 244B     		ldr	r3, .L212+20
 2034 0048 9968     		ldr	r1, [r3, #8]
 2035              	.LVL291:
 212:../Switch/core/yt/yt_storm_ctrl.c ****     CMM_PARAM_CHK(NULL == YT_DISPATCH(unit), CMM_ERR_NOT_INIT);
 2036              		.loc 1 212 5 discriminator 3 view .LVU597
 2037 004a 2448     		ldr	r0, .L212+24
 2038              	.LVL292:
 212:../Switch/core/yt/yt_storm_ctrl.c ****     CMM_PARAM_CHK(NULL == YT_DISPATCH(unit), CMM_ERR_NOT_INIT);
 2039              		.loc 1 212 5 discriminator 3 view .LVU598
 2040 004c FFF7FEFF 		bl	osal_printf
 2041              	.LVL293:
 2042 0050 F5E7     		b	.L191
 2043              	.LVL294:
 2044              	.L204:
 212:../Switch/core/yt/yt_storm_ctrl.c ****     CMM_PARAM_CHK(NULL == YT_DISPATCH(unit), CMM_ERR_NOT_INIT);
 2045              		.loc 1 212 5 discriminator 3 view .LVU599
 2046              	.LBE39:
 213:../Switch/core/yt/yt_storm_ctrl.c ****     CMM_PARAM_CHK((!(YT_DISPATCH(unit)->is_inited)), CMM_ERR_NOT_INIT);
 2047              		.loc 1 213 5 is_stmt 1 discriminator 1 view .LVU600
 213:../Switch/core/yt/yt_storm_ctrl.c ****     CMM_PARAM_CHK((!(YT_DISPATCH(unit)->is_inited)), CMM_ERR_NOT_INIT);
 2048              		.loc 1 213 5 discriminator 1 view .LVU601
 2049 0052 1F4B     		ldr	r3, .L212+12
 2050              	.LVL295:
 213:../Switch/core/yt/yt_storm_ctrl.c ****     CMM_PARAM_CHK((!(YT_DISPATCH(unit)->is_inited)), CMM_ERR_NOT_INIT);
 2051              		.loc 1 213 5 is_stmt 0 discriminator 1 view .LVU602
 2052 0054 1B78     		ldrb	r3, [r3]	@ zero_extendqisi2
 2053 0056 012B     		cmp	r3, #1
 2054 0058 01D8     		bhi	.L208
 2055              	.LVL296:
 2056              	.L194:
 213:../Switch/core/yt/yt_storm_ctrl.c ****     CMM_PARAM_CHK((!(YT_DISPATCH(unit)->is_inited)), CMM_ERR_NOT_INIT);
 2057              		.loc 1 213 5 is_stmt 1 discriminator 5 view .LVU603
 213:../Switch/core/yt/yt_storm_ctrl.c ****     CMM_PARAM_CHK((!(YT_DISPATCH(unit)->is_inited)), CMM_ERR_NOT_INIT);
 2058              		.loc 1 213 5 discriminator 5 view .LVU604
 213:../Switch/core/yt/yt_storm_ctrl.c ****     CMM_PARAM_CHK((!(YT_DISPATCH(unit)->is_inited)), CMM_ERR_NOT_INIT);
 2059              		.loc 1 213 5 discriminator 5 view .LVU605
 2060 005a 0420     		movs	r0, #4
 2061 005c EAE7     		b	.L189
 2062              	.LVL297:
 2063              	.L208:
 213:../Switch/core/yt/yt_storm_ctrl.c ****     CMM_PARAM_CHK((!(YT_DISPATCH(unit)->is_inited)), CMM_ERR_NOT_INIT);
 2064              		.loc 1 213 5 discriminator 3 view .LVU606
 2065              	.LBB40:
 213:../Switch/core/yt/yt_storm_ctrl.c ****     CMM_PARAM_CHK((!(YT_DISPATCH(unit)->is_inited)), CMM_ERR_NOT_INIT);
 2066              		.loc 1 213 5 discriminator 3 view .LVU607
 2067 005e 1D4B     		ldr	r3, .L212+16
 2068 0060 1A69     		ldr	r2, [r3, #16]
 2069              	.LVL298:
 213:../Switch/core/yt/yt_storm_ctrl.c ****     CMM_PARAM_CHK((!(YT_DISPATCH(unit)->is_inited)), CMM_ERR_NOT_INIT);
 2070              		.loc 1 213 5 is_stmt 0 discriminator 3 view .LVU608
 2071 0062 1D4B     		ldr	r3, .L212+20
 2072 0064 9968     		ldr	r1, [r3, #8]
 2073              	.LVL299:
 213:../Switch/core/yt/yt_storm_ctrl.c ****     CMM_PARAM_CHK((!(YT_DISPATCH(unit)->is_inited)), CMM_ERR_NOT_INIT);
 2074              		.loc 1 213 5 discriminator 3 view .LVU609
 2075 0066 1D48     		ldr	r0, .L212+24
 2076 0068 FFF7FEFF 		bl	osal_printf
 2077              	.LVL300:
 2078 006c F5E7     		b	.L194
 2079              	.LVL301:
 2080              	.L205:
 213:../Switch/core/yt/yt_storm_ctrl.c ****     CMM_PARAM_CHK((!(YT_DISPATCH(unit)->is_inited)), CMM_ERR_NOT_INIT);
 2081              		.loc 1 213 5 discriminator 3 view .LVU610
 2082              	.LBE40:
 214:../Switch/core/yt/yt_storm_ctrl.c ****     CMM_PARAM_CHK((!(CMM_PORT_VALID(unit,port))), CMM_ERR_PORT);
 2083              		.loc 1 214 5 is_stmt 1 discriminator 1 view .LVU611
 214:../Switch/core/yt/yt_storm_ctrl.c ****     CMM_PARAM_CHK((!(CMM_PORT_VALID(unit,port))), CMM_ERR_PORT);
 2084              		.loc 1 214 5 discriminator 1 view .LVU612
 2085 006e 184B     		ldr	r3, .L212+12
 2086              	.LVL302:
 214:../Switch/core/yt/yt_storm_ctrl.c ****     CMM_PARAM_CHK((!(CMM_PORT_VALID(unit,port))), CMM_ERR_PORT);
 2087              		.loc 1 214 5 is_stmt 0 discriminator 1 view .LVU613
 2088 0070 1B78     		ldrb	r3, [r3]	@ zero_extendqisi2
 2089 0072 012B     		cmp	r3, #1
 2090 0074 01D8     		bhi	.L209
 2091              	.LVL303:
 2092              	.L196:
 214:../Switch/core/yt/yt_storm_ctrl.c ****     CMM_PARAM_CHK((!(CMM_PORT_VALID(unit,port))), CMM_ERR_PORT);
 2093              		.loc 1 214 5 is_stmt 1 discriminator 5 view .LVU614
 214:../Switch/core/yt/yt_storm_ctrl.c ****     CMM_PARAM_CHK((!(CMM_PORT_VALID(unit,port))), CMM_ERR_PORT);
 2094              		.loc 1 214 5 discriminator 5 view .LVU615
 214:../Switch/core/yt/yt_storm_ctrl.c ****     CMM_PARAM_CHK((!(CMM_PORT_VALID(unit,port))), CMM_ERR_PORT);
 2095              		.loc 1 214 5 discriminator 5 view .LVU616
 2096 0076 0420     		movs	r0, #4
 2097 0078 DCE7     		b	.L189
 2098              	.LVL304:
 2099              	.L209:
 214:../Switch/core/yt/yt_storm_ctrl.c ****     CMM_PARAM_CHK((!(CMM_PORT_VALID(unit,port))), CMM_ERR_PORT);
 2100              		.loc 1 214 5 discriminator 3 view .LVU617
 2101              	.LBB41:
 214:../Switch/core/yt/yt_storm_ctrl.c ****     CMM_PARAM_CHK((!(CMM_PORT_VALID(unit,port))), CMM_ERR_PORT);
 2102              		.loc 1 214 5 discriminator 3 view .LVU618
 2103 007a 164B     		ldr	r3, .L212+16
 2104 007c 1A69     		ldr	r2, [r3, #16]
 2105              	.LVL305:
 214:../Switch/core/yt/yt_storm_ctrl.c ****     CMM_PARAM_CHK((!(CMM_PORT_VALID(unit,port))), CMM_ERR_PORT);
 2106              		.loc 1 214 5 is_stmt 0 discriminator 3 view .LVU619
 2107 007e 164B     		ldr	r3, .L212+20
 2108 0080 9968     		ldr	r1, [r3, #8]
 2109              	.LVL306:
 214:../Switch/core/yt/yt_storm_ctrl.c ****     CMM_PARAM_CHK((!(CMM_PORT_VALID(unit,port))), CMM_ERR_PORT);
 2110              		.loc 1 214 5 discriminator 3 view .LVU620
 2111 0082 1648     		ldr	r0, .L212+24
 2112 0084 FFF7FEFF 		bl	osal_printf
 2113              	.LVL307:
 2114 0088 F5E7     		b	.L196
 2115              	.LVL308:
 2116              	.L197:
 214:../Switch/core/yt/yt_storm_ctrl.c ****     CMM_PARAM_CHK((!(CMM_PORT_VALID(unit,port))), CMM_ERR_PORT);
 2117              		.loc 1 214 5 discriminator 3 view .LVU621
 2118              	.LBE41:
 215:../Switch/core/yt/yt_storm_ctrl.c ****     CMM_PARAM_CHK((NULL == pRate), CMM_ERR_NULL_POINT);
 2119              		.loc 1 215 5 is_stmt 1 discriminator 3 view .LVU622
 215:../Switch/core/yt/yt_storm_ctrl.c ****     CMM_PARAM_CHK((NULL == pRate), CMM_ERR_NULL_POINT);
 2120              		.loc 1 215 5 discriminator 3 view .LVU623
 2121 008a 114B     		ldr	r3, .L212+12
 2122              	.LVL309:
 215:../Switch/core/yt/yt_storm_ctrl.c ****     CMM_PARAM_CHK((NULL == pRate), CMM_ERR_NULL_POINT);
 2123              		.loc 1 215 5 is_stmt 0 discriminator 3 view .LVU624
 2124 008c 1B78     		ldrb	r3, [r3]	@ zero_extendqisi2
 2125 008e 012B     		cmp	r3, #1
 2126 0090 01D8     		bhi	.L210
 2127              	.LVL310:
 2128              	.L199:
 215:../Switch/core/yt/yt_storm_ctrl.c ****     CMM_PARAM_CHK((NULL == pRate), CMM_ERR_NULL_POINT);
 2129              		.loc 1 215 5 is_stmt 1 discriminator 7 view .LVU625
 215:../Switch/core/yt/yt_storm_ctrl.c ****     CMM_PARAM_CHK((NULL == pRate), CMM_ERR_NULL_POINT);
 2130              		.loc 1 215 5 discriminator 7 view .LVU626
 215:../Switch/core/yt/yt_storm_ctrl.c ****     CMM_PARAM_CHK((NULL == pRate), CMM_ERR_NULL_POINT);
 2131              		.loc 1 215 5 discriminator 7 view .LVU627
 2132 0092 0E20     		movs	r0, #14
 2133 0094 CEE7     		b	.L189
 2134              	.LVL311:
 2135              	.L210:
 215:../Switch/core/yt/yt_storm_ctrl.c ****     CMM_PARAM_CHK((NULL == pRate), CMM_ERR_NULL_POINT);
 2136              		.loc 1 215 5 discriminator 5 view .LVU628
 2137              	.LBB42:
 215:../Switch/core/yt/yt_storm_ctrl.c ****     CMM_PARAM_CHK((NULL == pRate), CMM_ERR_NULL_POINT);
 2138              		.loc 1 215 5 discriminator 5 view .LVU629
 2139 0096 0F4B     		ldr	r3, .L212+16
 2140 0098 9A6B     		ldr	r2, [r3, #56]
 2141              	.LVL312:
 215:../Switch/core/yt/yt_storm_ctrl.c ****     CMM_PARAM_CHK((NULL == pRate), CMM_ERR_NULL_POINT);
 2142              		.loc 1 215 5 is_stmt 0 discriminator 5 view .LVU630
 2143 009a 0F4B     		ldr	r3, .L212+20
 2144 009c 9968     		ldr	r1, [r3, #8]
 2145              	.LVL313:
 215:../Switch/core/yt/yt_storm_ctrl.c ****     CMM_PARAM_CHK((NULL == pRate), CMM_ERR_NULL_POINT);
 2146              		.loc 1 215 5 discriminator 5 view .LVU631
 2147 009e 0F48     		ldr	r0, .L212+24
 2148 00a0 FFF7FEFF 		bl	osal_printf
 2149              	.LVL314:
 2150 00a4 F5E7     		b	.L199
 2151              	.LVL315:
 2152              	.L206:
 215:../Switch/core/yt/yt_storm_ctrl.c ****     CMM_PARAM_CHK((NULL == pRate), CMM_ERR_NULL_POINT);
 2153              		.loc 1 215 5 discriminator 5 view .LVU632
 2154              	.LBE42:
 216:../Switch/core/yt/yt_storm_ctrl.c **** 
 2155              		.loc 1 216 5 is_stmt 1 discriminator 1 view .LVU633
 216:../Switch/core/yt/yt_storm_ctrl.c **** 
 2156              		.loc 1 216 5 discriminator 1 view .LVU634
 2157 00a6 0A4B     		ldr	r3, .L212+12
 2158              	.LVL316:
 216:../Switch/core/yt/yt_storm_ctrl.c **** 
 2159              		.loc 1 216 5 is_stmt 0 discriminator 1 view .LVU635
 2160 00a8 1B78     		ldrb	r3, [r3]	@ zero_extendqisi2
 2161 00aa 012B     		cmp	r3, #1
 2162 00ac 01D8     		bhi	.L211
 2163              	.LVL317:
 2164              	.L201:
 216:../Switch/core/yt/yt_storm_ctrl.c **** 
 2165              		.loc 1 216 5 is_stmt 1 discriminator 5 view .LVU636
 216:../Switch/core/yt/yt_storm_ctrl.c **** 
 2166              		.loc 1 216 5 discriminator 5 view .LVU637
 216:../Switch/core/yt/yt_storm_ctrl.c **** 
 2167              		.loc 1 216 5 discriminator 5 view .LVU638
 2168 00ae 0220     		movs	r0, #2
 2169 00b0 C0E7     		b	.L189
 2170              	.LVL318:
 2171              	.L211:
 216:../Switch/core/yt/yt_storm_ctrl.c **** 
 2172              		.loc 1 216 5 discriminator 3 view .LVU639
 2173              	.LBB43:
 216:../Switch/core/yt/yt_storm_ctrl.c **** 
 2174              		.loc 1 216 5 discriminator 3 view .LVU640
 2175 00b2 084B     		ldr	r3, .L212+16
 2176 00b4 9A68     		ldr	r2, [r3, #8]
 2177              	.LVL319:
 216:../Switch/core/yt/yt_storm_ctrl.c **** 
 2178              		.loc 1 216 5 is_stmt 0 discriminator 3 view .LVU641
 2179 00b6 084B     		ldr	r3, .L212+20
 2180 00b8 9968     		ldr	r1, [r3, #8]
 2181              	.LVL320:
 216:../Switch/core/yt/yt_storm_ctrl.c **** 
 2182              		.loc 1 216 5 discriminator 3 view .LVU642
 2183 00ba 0848     		ldr	r0, .L212+24
 2184 00bc FFF7FEFF 		bl	osal_printf
 2185              	.LVL321:
 2186 00c0 F5E7     		b	.L201
 2187              	.L213:
 2188 00c2 00BF     		.align	2
 2189              	.L212:
 2190 00c4 00000000 		.word	gpfal_dispatch
 2191 00c8 00000000 		.word	gcal_inited
 2192 00cc 00000000 		.word	gpSwitchUnit
 2193 00d0 00000000 		.word	yt_debug_level
 2194 00d4 00000000 		.word	_yt_errmsg
 2195 00d8 00000000 		.word	_yt_prompt_msg
 2196 00dc 00000000 		.word	.LC0
 2197              	.LBE43:
 2198              		.cfi_endproc
 2199              	.LFE11:
 2201              		.text
 2202              	.Letext0:
 2203              		.file 2 "C:\\Users\\Dmitriy\\Desktop\\GD32F10x\\Switch\\common\\include/yt_types.h"
 2204              		.file 3 "C:\\Users\\Dmitriy\\Desktop\\GD32F10x\\Switch\\common\\include/yt_error.h"
 2205              		.file 4 "C:\\Users\\Dmitriy\\Desktop\\GD32F10x\\Switch\\core\\fal\\chipdef/chipdef.h"
 2206              		.file 5 "C:\\Users\\Dmitriy\\Desktop\\GD32F10x\\Switch\\core\\cal/cal_bprofile.h"
 2207              		.file 6 "C:\\Users\\Dmitriy\\Desktop\\GD32F10x\\Switch\\core\\cal/cal_mgm.h"
 2208              		.file 7 "C:\\Users\\Dmitriy\\Desktop\\GD32F10x\\Switch\\include/yt_cmm.h"
 2209              		.file 8 "C:\\Users\\Dmitriy\\Desktop\\GD32F10x\\Switch\\include/yt_storm_ctrl.h"
 2210              		.file 9 "C:\\Users\\Dmitriy\\Desktop\\GD32F10x\\Switch\\include/yt_vlan.h"
 2211              		.file 10 "C:\\Users\\Dmitriy\\Desktop\\GD32F10x\\Switch\\include/yt_vlan_translate.h"
 2212              		.file 11 "C:\\Users\\Dmitriy\\Desktop\\GD32F10x\\Switch\\include/yt_acl.h"
 2213              		.file 12 "C:\\Users\\Dmitriy\\Desktop\\GD32F10x\\Switch\\include/yt_qos.h"
 2214              		.file 13 "C:\\Users\\Dmitriy\\Desktop\\GD32F10x\\Switch\\include/yt_rate.h"
 2215              		.file 14 "C:\\Users\\Dmitriy\\Desktop\\GD32F10x\\Switch\\include/yt_dos.h"
 2216              		.file 15 "C:\\Users\\Dmitriy\\Desktop\\GD32F10x\\Switch\\include/yt_nic.h"
 2217              		.file 16 "C:\\Users\\Dmitriy\\Desktop\\GD32F10x\\Switch\\include/yt_stp.h"
 2218              		.file 17 "C:\\Users\\Dmitriy\\Desktop\\GD32F10x\\Switch\\include/yt_l2.h"
 2219              		.file 18 "C:\\Users\\Dmitriy\\Desktop\\GD32F10x\\Switch\\include/yt_loopdetect.h"
 2220              		.file 19 "C:\\Users\\Dmitriy\\Desktop\\GD32F10x\\Switch\\include/yt_multicast.h"
 2221              		.file 20 "C:\\Users\\Dmitriy\\Desktop\\GD32F10x\\Switch\\include/yt_rma.h"
 2222              		.file 21 "C:\\Users\\Dmitriy\\Desktop\\GD32F10x\\Switch\\include/yt_oam.h"
 2223              		.file 22 "C:\\Users\\Dmitriy\\Desktop\\GD32F10x\\Switch\\include/yt_port.h"
 2224              		.file 23 "C:\\Users\\Dmitriy\\Desktop\\GD32F10x\\Switch\\include/yt_dot1x.h"
 2225              		.file 24 "C:\\Users\\Dmitriy\\Desktop\\GD32F10x\\Switch\\include/yt_ctrlpkt.h"
 2226              		.file 25 "C:\\Users\\Dmitriy\\Desktop\\GD32F10x\\Switch\\include/yt_stat.h"
 2227              		.file 26 "C:\\Users\\Dmitriy\\Desktop\\GD32F10x\\Switch\\include/yt_interrupt.h"
 2228              		.file 27 "C:\\Users\\Dmitriy\\Desktop\\GD32F10x\\Switch\\include/yt_led.h"
 2229              		.file 28 "C:\\Users\\Dmitriy\\Desktop\\GD32F10x\\Switch\\include/yt_sys.h"
 2230              		.file 29 "C:\\Users\\Dmitriy\\Desktop\\GD32F10x\\Switch\\include/yt_debug.h"
 2231              		.file 30 "C:\\Users\\Dmitriy\\Desktop\\GD32F10x\\Switch\\core\\fal/fal_dispatch.h"