   1              		.cpu cortex-m3
   2              		.arch armv7-m
   3              		.fpu softvfp
   4              		.eabi_attribute 20, 1
   5              		.eabi_attribute 21, 1
   6              		.eabi_attribute 23, 3
   7              		.eabi_attribute 24, 1
   8              		.eabi_attribute 25, 1
   9              		.eabi_attribute 26, 1
  10              		.eabi_attribute 30, 1
  11              		.eabi_attribute 34, 1
  12              		.eabi_attribute 18, 4
  13              		.file	"startup.c"
  14              		.text
  15              	.Ltext0:
  16              		.cfi_sections	.debug_frame
  17              		.file 1 "../system/src/newlib/startup.c"
  18              		.section	.text.__initialize_data,"ax",%progbits
  19              		.align	1
  20              		.global	__initialize_data
  21              		.syntax unified
  22              		.thumb
  23              		.thumb_func
  25              	__initialize_data:
  26              	.LVL0:
  27              	.LFB0:
   1:../system/src/newlib/startup.c **** /*
   2:../system/src/newlib/startup.c ****  * This file is part of the µOS++ distribution.
   3:../system/src/newlib/startup.c ****  *   (https://github.com/micro-os-plus)
   4:../system/src/newlib/startup.c ****  * Copyright (c) 2014 Liviu Ionescu.
   5:../system/src/newlib/startup.c ****  *
   6:../system/src/newlib/startup.c ****  * Permission is hereby granted, free of charge, to any person
   7:../system/src/newlib/startup.c ****  * obtaining a copy of this software and associated documentation
   8:../system/src/newlib/startup.c ****  * files (the "Software"), to deal in the Software without
   9:../system/src/newlib/startup.c ****  * restriction, including without limitation the rights to use,
  10:../system/src/newlib/startup.c ****  * copy, modify, merge, publish, distribute, sublicense, and/or
  11:../system/src/newlib/startup.c ****  * sell copies of the Software, and to permit persons to whom
  12:../system/src/newlib/startup.c ****  * the Software is furnished to do so, subject to the following
  13:../system/src/newlib/startup.c ****  * conditions:
  14:../system/src/newlib/startup.c ****  *
  15:../system/src/newlib/startup.c ****  * The above copyright notice and this permission notice shall be
  16:../system/src/newlib/startup.c ****  * included in all copies or substantial portions of the Software.
  17:../system/src/newlib/startup.c ****  *
  18:../system/src/newlib/startup.c ****  * THE SOFTWARE IS PROVIDED "AS IS", WITHOUT WARRANTY OF ANY KIND,
  19:../system/src/newlib/startup.c ****  * EXPRESS OR IMPLIED, INCLUDING BUT NOT LIMITED TO THE WARRANTIES
  20:../system/src/newlib/startup.c ****  * OF MERCHANTABILITY, FITNESS FOR A PARTICULAR PURPOSE AND
  21:../system/src/newlib/startup.c ****  * NONINFRINGEMENT. IN NO EVENT SHALL THE AUTHORS OR COPYRIGHT
  22:../system/src/newlib/startup.c ****  * HOLDERS BE LIABLE FOR ANY CLAIM, DAMAGES OR OTHER LIABILITY,
  23:../system/src/newlib/startup.c ****  * WHETHER IN AN ACTION OF CONTRACT, TORT OR OTHERWISE, ARISING
  24:../system/src/newlib/startup.c ****  * FROM, OUT OF OR IN CONNECTION WITH THE SOFTWARE OR THE USE OR
  25:../system/src/newlib/startup.c ****  * OTHER DEALINGS IN THE SOFTWARE.
  26:../system/src/newlib/startup.c ****  */
  27:../system/src/newlib/startup.c **** 
  28:../system/src/newlib/startup.c **** // ----------------------------------------------------------------------------
  29:../system/src/newlib/startup.c **** 
  30:../system/src/newlib/startup.c **** // This module contains the startup code for a portable embedded
  31:../system/src/newlib/startup.c **** // C/C++ application, built with newlib.
  32:../system/src/newlib/startup.c **** //
  33:../system/src/newlib/startup.c **** // Control reaches here from the reset handler via jump or call.
  34:../system/src/newlib/startup.c **** //
  35:../system/src/newlib/startup.c **** // The actual steps performed by _start are:
  36:../system/src/newlib/startup.c **** // - copy the initialised data region(s)
  37:../system/src/newlib/startup.c **** // - clear the BSS region(s)
  38:../system/src/newlib/startup.c **** // - initialise the system
  39:../system/src/newlib/startup.c **** // - run the preinit/init array (for the C++ static constructors)
  40:../system/src/newlib/startup.c **** // - initialise the arc/argv
  41:../system/src/newlib/startup.c **** // - branch to main()
  42:../system/src/newlib/startup.c **** // - run the fini array (for the C++ static destructors)
  43:../system/src/newlib/startup.c **** // - call _exit(), directly or via exit()
  44:../system/src/newlib/startup.c **** //
  45:../system/src/newlib/startup.c **** // If OS_INCLUDE_STARTUP_INIT_MULTIPLE_RAM_SECTIONS is defined, the
  46:../system/src/newlib/startup.c **** // code is capable of initialising multiple regions.
  47:../system/src/newlib/startup.c **** //
  48:../system/src/newlib/startup.c **** // The normal configuration is standalone, with all support
  49:../system/src/newlib/startup.c **** // functions implemented locally.
  50:../system/src/newlib/startup.c **** //
  51:../system/src/newlib/startup.c **** // For this to be called, the project linker must be configured without
  52:../system/src/newlib/startup.c **** // the startup sequence (-nostartfiles).
  53:../system/src/newlib/startup.c **** 
  54:../system/src/newlib/startup.c **** // ----------------------------------------------------------------------------
  55:../system/src/newlib/startup.c **** 
  56:../system/src/newlib/startup.c **** #include <stdint.h>
  57:../system/src/newlib/startup.c **** #include <sys/types.h>
  58:../system/src/newlib/startup.c **** 
  59:../system/src/newlib/startup.c **** // ----------------------------------------------------------------------------
  60:../system/src/newlib/startup.c **** 
  61:../system/src/newlib/startup.c **** #if !defined(OS_INCLUDE_STARTUP_GUARD_CHECKS)
  62:../system/src/newlib/startup.c **** #define OS_INCLUDE_STARTUP_GUARD_CHECKS (1)
  63:../system/src/newlib/startup.c **** #endif
  64:../system/src/newlib/startup.c **** 
  65:../system/src/newlib/startup.c **** // ----------------------------------------------------------------------------
  66:../system/src/newlib/startup.c **** 
  67:../system/src/newlib/startup.c **** #if !defined(OS_INCLUDE_STARTUP_INIT_MULTIPLE_RAM_SECTIONS)
  68:../system/src/newlib/startup.c **** // Begin address for the initialisation values of the .data section.
  69:../system/src/newlib/startup.c **** // defined in linker script
  70:../system/src/newlib/startup.c **** extern unsigned int _sidata;
  71:../system/src/newlib/startup.c **** // Begin address for the .data section; defined in linker script
  72:../system/src/newlib/startup.c **** extern unsigned int _sdata;
  73:../system/src/newlib/startup.c **** // End address for the .data section; defined in linker script
  74:../system/src/newlib/startup.c **** extern unsigned int _edata;
  75:../system/src/newlib/startup.c **** 
  76:../system/src/newlib/startup.c **** // Begin address for the .bss section; defined in linker script
  77:../system/src/newlib/startup.c **** extern unsigned int __bss_start__;
  78:../system/src/newlib/startup.c **** // End address for the .bss section; defined in linker script
  79:../system/src/newlib/startup.c **** extern unsigned int __bss_end__;
  80:../system/src/newlib/startup.c **** #else
  81:../system/src/newlib/startup.c **** // The following symbols are constructs generated by the linker, indicating
  82:../system/src/newlib/startup.c **** // the location of various points in the "Memory regions initialisation arrays".
  83:../system/src/newlib/startup.c **** // These arrays are created by the linker via the managed linker script
  84:../system/src/newlib/startup.c **** // of each RW data mechanism. It contains the load address, execution address
  85:../system/src/newlib/startup.c **** // and length section and the execution and length of each BSS (zero
  86:../system/src/newlib/startup.c **** // initialised) section.
  87:../system/src/newlib/startup.c **** extern unsigned int __data_regions_array_start;
  88:../system/src/newlib/startup.c **** extern unsigned int __data_regions_array_end;
  89:../system/src/newlib/startup.c **** extern unsigned int __bss_regions_array_start;
  90:../system/src/newlib/startup.c **** extern unsigned int __bss_regions_array_end;
  91:../system/src/newlib/startup.c **** #endif
  92:../system/src/newlib/startup.c **** 
  93:../system/src/newlib/startup.c **** extern void
  94:../system/src/newlib/startup.c **** __initialize_args (int*, char***);
  95:../system/src/newlib/startup.c **** 
  96:../system/src/newlib/startup.c **** // main() is the entry point for newlib based applications.
  97:../system/src/newlib/startup.c **** // By default, there are no arguments, but this can be customised
  98:../system/src/newlib/startup.c **** // by redefining __initialize_args(), which is done when the
  99:../system/src/newlib/startup.c **** // semihosting configurations are used.
 100:../system/src/newlib/startup.c **** extern int
 101:../system/src/newlib/startup.c **** main (int argc, char* argv[]);
 102:../system/src/newlib/startup.c **** 
 103:../system/src/newlib/startup.c **** // The implementation for the exit routine; for embedded
 104:../system/src/newlib/startup.c **** // applications, a system reset will be performed.
 105:../system/src/newlib/startup.c **** extern void
 106:../system/src/newlib/startup.c **** __attribute__((noreturn))
 107:../system/src/newlib/startup.c **** _exit (int);
 108:../system/src/newlib/startup.c **** 
 109:../system/src/newlib/startup.c **** // ----------------------------------------------------------------------------
 110:../system/src/newlib/startup.c **** 
 111:../system/src/newlib/startup.c **** // Forward declarations
 112:../system/src/newlib/startup.c **** 
 113:../system/src/newlib/startup.c **** void
 114:../system/src/newlib/startup.c **** _start (void);
 115:../system/src/newlib/startup.c **** 
 116:../system/src/newlib/startup.c **** void
 117:../system/src/newlib/startup.c **** __initialize_data (unsigned int* from, unsigned int* region_begin,
 118:../system/src/newlib/startup.c **** 		   unsigned int* region_end);
 119:../system/src/newlib/startup.c **** 
 120:../system/src/newlib/startup.c **** void
 121:../system/src/newlib/startup.c **** __initialize_bss (unsigned int* region_begin, unsigned int* region_end);
 122:../system/src/newlib/startup.c **** 
 123:../system/src/newlib/startup.c **** void
 124:../system/src/newlib/startup.c **** __run_init_array (void);
 125:../system/src/newlib/startup.c **** 
 126:../system/src/newlib/startup.c **** void
 127:../system/src/newlib/startup.c **** __run_fini_array (void);
 128:../system/src/newlib/startup.c **** 
 129:../system/src/newlib/startup.c **** void
 130:../system/src/newlib/startup.c **** __initialize_hardware_early (void);
 131:../system/src/newlib/startup.c **** 
 132:../system/src/newlib/startup.c **** void
 133:../system/src/newlib/startup.c **** __initialize_hardware (void);
 134:../system/src/newlib/startup.c **** 
 135:../system/src/newlib/startup.c **** // ----------------------------------------------------------------------------
 136:../system/src/newlib/startup.c **** 
 137:../system/src/newlib/startup.c **** inline void
 138:../system/src/newlib/startup.c **** __attribute__((always_inline))
 139:../system/src/newlib/startup.c **** __initialize_data (unsigned int* from, unsigned int* region_begin,
 140:../system/src/newlib/startup.c **** 		   unsigned int* region_end)
 141:../system/src/newlib/startup.c **** {
  28              		.loc 1 141 1 view -0
  29              		.cfi_startproc
  30              		@ args = 0, pretend = 0, frame = 0
  31              		@ frame_needed = 0, uses_anonymous_args = 0
  32              		@ link register save eliminated.
 142:../system/src/newlib/startup.c ****   // Iterate and copy word by word.
 143:../system/src/newlib/startup.c ****   // It is assumed that the pointers are word aligned.
 144:../system/src/newlib/startup.c ****   unsigned int *p = region_begin;
  33              		.loc 1 144 3 view .LVU1
 145:../system/src/newlib/startup.c ****   while (p < region_end)
  34              		.loc 1 145 3 view .LVU2
  35              		.loc 1 145 9 is_stmt 0 view .LVU3
  36 0000 03E0     		b	.L2
  37              	.LVL1:
  38              	.L3:
 146:../system/src/newlib/startup.c ****     *p++ = *from++;
  39              		.loc 1 146 5 is_stmt 1 view .LVU4
  40              		.loc 1 146 12 is_stmt 0 view .LVU5
  41 0002 50F8043B 		ldr	r3, [r0], #4
  42              	.LVL2:
  43              		.loc 1 146 10 view .LVU6
  44 0006 41F8043B 		str	r3, [r1], #4
  45              	.LVL3:
  46              	.L2:
 145:../system/src/newlib/startup.c ****   while (p < region_end)
  47              		.loc 1 145 12 is_stmt 1 view .LVU7
  48 000a 9142     		cmp	r1, r2
  49 000c F9D3     		bcc	.L3
 147:../system/src/newlib/startup.c **** }
  50              		.loc 1 147 1 is_stmt 0 view .LVU8
  51 000e 7047     		bx	lr
  52              		.cfi_endproc
  53              	.LFE0:
  55              		.section	.text.__initialize_bss,"ax",%progbits
  56              		.align	1
  57              		.global	__initialize_bss
  58              		.syntax unified
  59              		.thumb
  60              		.thumb_func
  62              	__initialize_bss:
  63              	.LVL4:
  64              	.LFB1:
 148:../system/src/newlib/startup.c **** 
 149:../system/src/newlib/startup.c **** inline void
 150:../system/src/newlib/startup.c **** __attribute__((always_inline))
 151:../system/src/newlib/startup.c **** __initialize_bss (unsigned int* region_begin, unsigned int* region_end)
 152:../system/src/newlib/startup.c **** {
  65              		.loc 1 152 1 is_stmt 1 view -0
  66              		.cfi_startproc
  67              		@ args = 0, pretend = 0, frame = 0
  68              		@ frame_needed = 0, uses_anonymous_args = 0
  69              		@ link register save eliminated.
 153:../system/src/newlib/startup.c ****   // Iterate and clear word by word.
 154:../system/src/newlib/startup.c ****   // It is assumed that the pointers are word aligned.
 155:../system/src/newlib/startup.c ****   unsigned int *p = region_begin;
  70              		.loc 1 155 3 view .LVU10
 156:../system/src/newlib/startup.c ****   while (p < region_end)
  71              		.loc 1 156 3 view .LVU11
  72              		.loc 1 156 9 is_stmt 0 view .LVU12
  73 0000 02E0     		b	.L5
  74              	.LVL5:
  75              	.L6:
 157:../system/src/newlib/startup.c ****     *p++ = 0;
  76              		.loc 1 157 5 is_stmt 1 view .LVU13
  77              		.loc 1 157 10 is_stmt 0 view .LVU14
  78 0002 0023     		movs	r3, #0
  79 0004 40F8043B 		str	r3, [r0], #4
  80              	.LVL6:
  81              	.L5:
 156:../system/src/newlib/startup.c ****   while (p < region_end)
  82              		.loc 1 156 12 is_stmt 1 view .LVU15
  83 0008 8842     		cmp	r0, r1
  84 000a FAD3     		bcc	.L6
 158:../system/src/newlib/startup.c **** }
  85              		.loc 1 158 1 is_stmt 0 view .LVU16
  86 000c 7047     		bx	lr
  87              		.cfi_endproc
  88              	.LFE1:
  90              		.section	.text.__run_init_array,"ax",%progbits
  91              		.align	1
  92              		.global	__run_init_array
  93              		.syntax unified
  94              		.thumb
  95              		.thumb_func
  97              	__run_init_array:
  98              	.LFB2:
 159:../system/src/newlib/startup.c **** 
 160:../system/src/newlib/startup.c **** // These magic symbols are provided by the linker.
 161:../system/src/newlib/startup.c **** extern void
 162:../system/src/newlib/startup.c **** (*__preinit_array_start[]) (void) __attribute__((weak));
 163:../system/src/newlib/startup.c **** extern void
 164:../system/src/newlib/startup.c **** (*__preinit_array_end[]) (void) __attribute__((weak));
 165:../system/src/newlib/startup.c **** extern void
 166:../system/src/newlib/startup.c **** (*__init_array_start[]) (void) __attribute__((weak));
 167:../system/src/newlib/startup.c **** extern void
 168:../system/src/newlib/startup.c **** (*__init_array_end[]) (void) __attribute__((weak));
 169:../system/src/newlib/startup.c **** extern void
 170:../system/src/newlib/startup.c **** (*__fini_array_start[]) (void) __attribute__((weak));
 171:../system/src/newlib/startup.c **** extern void
 172:../system/src/newlib/startup.c **** (*__fini_array_end[]) (void) __attribute__((weak));
 173:../system/src/newlib/startup.c **** 
 174:../system/src/newlib/startup.c **** // Iterate over all the preinit/init routines (mainly static constructors).
 175:../system/src/newlib/startup.c **** inline void
 176:../system/src/newlib/startup.c **** __attribute__((always_inline))
 177:../system/src/newlib/startup.c **** __run_init_array (void)
 178:../system/src/newlib/startup.c **** {
  99              		.loc 1 178 1 is_stmt 1 view -0
 100              		.cfi_startproc
 101              		@ args = 0, pretend = 0, frame = 0
 102              		@ frame_needed = 0, uses_anonymous_args = 0
 103 0000 38B5     		push	{r3, r4, r5, lr}
 104              		.cfi_def_cfa_offset 16
 105              		.cfi_offset 3, -16
 106              		.cfi_offset 4, -12
 107              		.cfi_offset 5, -8
 108              		.cfi_offset 14, -4
 179:../system/src/newlib/startup.c ****   int count;
 109              		.loc 1 179 3 view .LVU18
 180:../system/src/newlib/startup.c ****   int i;
 110              		.loc 1 180 3 view .LVU19
 181:../system/src/newlib/startup.c **** 
 182:../system/src/newlib/startup.c ****   count = __preinit_array_end - __preinit_array_start;
 111              		.loc 1 182 3 view .LVU20
 112              		.loc 1 182 31 is_stmt 0 view .LVU21
 113 0002 0D4D     		ldr	r5, .L13
 114 0004 0D4B     		ldr	r3, .L13+4
 115 0006 ED1A     		subs	r5, r5, r3
 116              		.loc 1 182 9 view .LVU22
 117 0008 AD10     		asrs	r5, r5, #2
 118              	.LVL7:
 183:../system/src/newlib/startup.c ****   for (i = 0; i < count; i++)
 119              		.loc 1 183 3 is_stmt 1 view .LVU23
 120              		.loc 1 183 10 is_stmt 0 view .LVU24
 121 000a 0024     		movs	r4, #0
 122              		.loc 1 183 3 view .LVU25
 123 000c 04E0     		b	.L8
 124              	.LVL8:
 125              	.L9:
 184:../system/src/newlib/startup.c ****     __preinit_array_start[i] ();
 126              		.loc 1 184 5 is_stmt 1 discriminator 3 view .LVU26
 127              		.loc 1 184 26 is_stmt 0 discriminator 3 view .LVU27
 128 000e 0B4B     		ldr	r3, .L13+4
 129 0010 53F82430 		ldr	r3, [r3, r4, lsl #2]
 130              		.loc 1 184 5 discriminator 3 view .LVU28
 131 0014 9847     		blx	r3
 132              	.LVL9:
 183:../system/src/newlib/startup.c ****   for (i = 0; i < count; i++)
 133              		.loc 1 183 27 is_stmt 1 discriminator 3 view .LVU29
 134 0016 0134     		adds	r4, r4, #1
 135              	.LVL10:
 136              	.L8:
 183:../system/src/newlib/startup.c ****   for (i = 0; i < count; i++)
 137              		.loc 1 183 17 discriminator 1 view .LVU30
 138 0018 AC42     		cmp	r4, r5
 139 001a F8DB     		blt	.L9
 185:../system/src/newlib/startup.c **** 
 186:../system/src/newlib/startup.c ****   // If you need to run the code in the .init section, please use
 187:../system/src/newlib/startup.c ****   // the startup files, since this requires the code in crti.o and crtn.o
 188:../system/src/newlib/startup.c ****   // to add the function prologue/epilogue.
 189:../system/src/newlib/startup.c ****   //_init(); // DO NOT ENABE THIS!
 190:../system/src/newlib/startup.c **** 
 191:../system/src/newlib/startup.c ****   count = __init_array_end - __init_array_start;
 140              		.loc 1 191 3 view .LVU31
 141              		.loc 1 191 28 is_stmt 0 view .LVU32
 142 001c 084D     		ldr	r5, .L13+8
 143              	.LVL11:
 144              		.loc 1 191 28 view .LVU33
 145 001e 094B     		ldr	r3, .L13+12
 146 0020 ED1A     		subs	r5, r5, r3
 147              		.loc 1 191 9 view .LVU34
 148 0022 AD10     		asrs	r5, r5, #2
 149              	.LVL12:
 192:../system/src/newlib/startup.c ****   for (i = 0; i < count; i++)
 150              		.loc 1 192 3 is_stmt 1 view .LVU35
 151              		.loc 1 192 10 is_stmt 0 view .LVU36
 152 0024 0024     		movs	r4, #0
 153              		.loc 1 192 3 view .LVU37
 154 0026 04E0     		b	.L10
 155              	.LVL13:
 156              	.L11:
 193:../system/src/newlib/startup.c ****     __init_array_start[i] ();
 157              		.loc 1 193 5 is_stmt 1 discriminator 3 view .LVU38
 158              		.loc 1 193 23 is_stmt 0 discriminator 3 view .LVU39
 159 0028 064B     		ldr	r3, .L13+12
 160 002a 53F82430 		ldr	r3, [r3, r4, lsl #2]
 161              		.loc 1 193 5 discriminator 3 view .LVU40
 162 002e 9847     		blx	r3
 163              	.LVL14:
 192:../system/src/newlib/startup.c ****   for (i = 0; i < count; i++)
 164              		.loc 1 192 27 is_stmt 1 discriminator 3 view .LVU41
 165 0030 0134     		adds	r4, r4, #1
 166              	.LVL15:
 167              	.L10:
 192:../system/src/newlib/startup.c ****   for (i = 0; i < count; i++)
 168              		.loc 1 192 17 discriminator 1 view .LVU42
 169 0032 AC42     		cmp	r4, r5
 170 0034 F8DB     		blt	.L11
 194:../system/src/newlib/startup.c **** }
 171              		.loc 1 194 1 is_stmt 0 view .LVU43
 172 0036 38BD     		pop	{r3, r4, r5, pc}
 173              	.LVL16:
 174              	.L14:
 175              		.loc 1 194 1 view .LVU44
 176              		.align	2
 177              	.L13:
 178 0038 00000000 		.word	__preinit_array_end
 179 003c 00000000 		.word	__preinit_array_start
 180 0040 00000000 		.word	__init_array_end
 181 0044 00000000 		.word	__init_array_start
 182              		.cfi_endproc
 183              	.LFE2:
 185              		.section	.text.__run_fini_array,"ax",%progbits
 186              		.align	1
 187              		.global	__run_fini_array
 188              		.syntax unified
 189              		.thumb
 190              		.thumb_func
 192              	__run_fini_array:
 193              	.LFB3:
 195:../system/src/newlib/startup.c **** 
 196:../system/src/newlib/startup.c **** // Run all the cleanup routines (mainly static destructors).
 197:../system/src/newlib/startup.c **** inline void
 198:../system/src/newlib/startup.c **** __attribute__((always_inline))
 199:../system/src/newlib/startup.c **** __run_fini_array (void)
 200:../system/src/newlib/startup.c **** {
 194              		.loc 1 200 1 is_stmt 1 view -0
 195              		.cfi_startproc
 196              		@ args = 0, pretend = 0, frame = 0
 197              		@ frame_needed = 0, uses_anonymous_args = 0
 198 0000 10B5     		push	{r4, lr}
 199              		.cfi_def_cfa_offset 8
 200              		.cfi_offset 4, -8
 201              		.cfi_offset 14, -4
 201:../system/src/newlib/startup.c ****   int count;
 202              		.loc 1 201 3 view .LVU46
 202:../system/src/newlib/startup.c ****   int i;
 203              		.loc 1 202 3 view .LVU47
 203:../system/src/newlib/startup.c **** 
 204:../system/src/newlib/startup.c ****   count = __fini_array_end - __fini_array_start;
 204              		.loc 1 204 3 view .LVU48
 205              		.loc 1 204 28 is_stmt 0 view .LVU49
 206 0002 064C     		ldr	r4, .L19
 207 0004 064B     		ldr	r3, .L19+4
 208 0006 E41A     		subs	r4, r4, r3
 209              		.loc 1 204 9 view .LVU50
 210 0008 A410     		asrs	r4, r4, #2
 211              	.LVL17:
 205:../system/src/newlib/startup.c ****   for (i = count; i > 0; i--)
 212              		.loc 1 205 3 is_stmt 1 view .LVU51
 213              		.loc 1 205 3 is_stmt 0 view .LVU52
 214 000a 04E0     		b	.L16
 215              	.LVL18:
 216              	.L17:
 206:../system/src/newlib/startup.c ****     __fini_array_start[i - 1] ();
 217              		.loc 1 206 5 is_stmt 1 discriminator 3 view .LVU53
 218              		.loc 1 206 26 is_stmt 0 discriminator 3 view .LVU54
 219 000c 013C     		subs	r4, r4, #1
 220              	.LVL19:
 221              		.loc 1 206 23 discriminator 3 view .LVU55
 222 000e 044B     		ldr	r3, .L19+4
 223              	.LVL20:
 224              		.loc 1 206 23 discriminator 3 view .LVU56
 225 0010 53F82430 		ldr	r3, [r3, r4, lsl #2]
 226              	.LVL21:
 227              		.loc 1 206 5 discriminator 3 view .LVU57
 228 0014 9847     		blx	r3
 229              	.LVL22:
 205:../system/src/newlib/startup.c ****   for (i = count; i > 0; i--)
 230              		.loc 1 205 27 is_stmt 1 discriminator 3 view .LVU58
 231              	.L16:
 205:../system/src/newlib/startup.c ****   for (i = count; i > 0; i--)
 232              		.loc 1 205 21 discriminator 1 view .LVU59
 233 0016 002C     		cmp	r4, #0
 234 0018 F8DC     		bgt	.L17
 207:../system/src/newlib/startup.c **** 
 208:../system/src/newlib/startup.c ****   // If you need to run the code in the .fini section, please use
 209:../system/src/newlib/startup.c ****   // the startup files, since this requires the code in crti.o and crtn.o
 210:../system/src/newlib/startup.c ****   // to add the function prologue/epilogue.
 211:../system/src/newlib/startup.c ****   //_fini(); // DO NOT ENABE THIS!
 212:../system/src/newlib/startup.c **** }
 235              		.loc 1 212 1 is_stmt 0 view .LVU60
 236 001a 10BD     		pop	{r4, pc}
 237              	.LVL23:
 238              	.L20:
 239              		.loc 1 212 1 view .LVU61
 240              		.align	2
 241              	.L19:
 242 001c 00000000 		.word	__fini_array_end
 243 0020 00000000 		.word	__fini_array_start
 244              		.cfi_endproc
 245              	.LFE3:
 247              		.section	.after_vectors,"ax",%progbits
 248              		.align	1
 249              		.weak	_start
 250              		.syntax unified
 251              		.thumb
 252              		.thumb_func
 254              	_start:
 255              	.LFB4:
 213:../system/src/newlib/startup.c **** 
 214:../system/src/newlib/startup.c **** #if defined(DEBUG) && (OS_INCLUDE_STARTUP_GUARD_CHECKS)
 215:../system/src/newlib/startup.c **** 
 216:../system/src/newlib/startup.c **** // These definitions are used to check if the routines used to
 217:../system/src/newlib/startup.c **** // clear the BSS and to copy the initialised DATA perform correctly.
 218:../system/src/newlib/startup.c **** 
 219:../system/src/newlib/startup.c **** #define BSS_GUARD_BAD_VALUE (0xCADEBABA)
 220:../system/src/newlib/startup.c **** 
 221:../system/src/newlib/startup.c **** static uint32_t volatile __attribute__ ((section(".bss_begin")))
 222:../system/src/newlib/startup.c **** __bss_begin_guard;
 223:../system/src/newlib/startup.c **** static uint32_t volatile __attribute__ ((section(".bss_end")))
 224:../system/src/newlib/startup.c **** __bss_end_guard;
 225:../system/src/newlib/startup.c **** 
 226:../system/src/newlib/startup.c **** #define DATA_GUARD_BAD_VALUE (0xCADEBABA)
 227:../system/src/newlib/startup.c **** #define DATA_BEGIN_GUARD_VALUE (0x12345678)
 228:../system/src/newlib/startup.c **** #define DATA_END_GUARD_VALUE (0x98765432)
 229:../system/src/newlib/startup.c **** 
 230:../system/src/newlib/startup.c **** static uint32_t volatile __attribute__ ((section(".data_begin")))
 231:../system/src/newlib/startup.c **** __data_begin_guard = DATA_BEGIN_GUARD_VALUE;
 232:../system/src/newlib/startup.c **** 
 233:../system/src/newlib/startup.c **** static uint32_t volatile __attribute__ ((section(".data_end")))
 234:../system/src/newlib/startup.c **** __data_end_guard = DATA_END_GUARD_VALUE;
 235:../system/src/newlib/startup.c **** 
 236:../system/src/newlib/startup.c **** #endif // defined(DEBUG) && (OS_INCLUDE_STARTUP_GUARD_CHECKS)
 237:../system/src/newlib/startup.c **** 
 238:../system/src/newlib/startup.c **** // This is the place where Cortex-M core will go immediately after reset,
 239:../system/src/newlib/startup.c **** // via a call or jump from the Reset_Handler.
 240:../system/src/newlib/startup.c **** //
 241:../system/src/newlib/startup.c **** // For the call to work, and for the call to __initialize_hardware_early()
 242:../system/src/newlib/startup.c **** // to work, the reset stack must point to a valid internal RAM area.
 243:../system/src/newlib/startup.c **** 
 244:../system/src/newlib/startup.c **** void __attribute__ ((section(".after_vectors"),noreturn,weak))
 245:../system/src/newlib/startup.c **** _start (void)
 246:../system/src/newlib/startup.c **** {
 256              		.loc 1 246 1 is_stmt 1 view -0
 257              		.cfi_startproc
 258              		@ Volatile: function does not return.
 259              		@ args = 0, pretend = 0, frame = 8
 260              		@ frame_needed = 0, uses_anonymous_args = 0
 261 0000 00B5     		push	{lr}
 262              		.cfi_def_cfa_offset 4
 263              		.cfi_offset 14, -4
 264 0002 83B0     		sub	sp, sp, #12
 265              		.cfi_def_cfa_offset 16
 247:../system/src/newlib/startup.c **** 
 248:../system/src/newlib/startup.c ****   // Initialise hardware right after reset, to switch clock to higher
 249:../system/src/newlib/startup.c ****   // frequency and have the rest of the initialisations run faster.
 250:../system/src/newlib/startup.c ****   //
 251:../system/src/newlib/startup.c ****   // Mandatory on platforms like Kinetis, which start with the watch dog
 252:../system/src/newlib/startup.c ****   // enabled and require an early sequence to disable it.
 253:../system/src/newlib/startup.c ****   //
 254:../system/src/newlib/startup.c ****   // Also useful on platform with external RAM, that need to be
 255:../system/src/newlib/startup.c ****   // initialised before filling the BSS section.
 256:../system/src/newlib/startup.c **** 
 257:../system/src/newlib/startup.c ****   __initialize_hardware_early ();
 266              		.loc 1 257 3 view .LVU63
 267 0004 FFF7FEFF 		bl	__initialize_hardware_early
 268              	.LVL24:
 258:../system/src/newlib/startup.c **** 
 259:../system/src/newlib/startup.c ****   // Use Old Style DATA and BSS section initialisation,
 260:../system/src/newlib/startup.c ****   // that will manage a single BSS sections.
 261:../system/src/newlib/startup.c **** 
 262:../system/src/newlib/startup.c **** #if defined(DEBUG) && (OS_INCLUDE_STARTUP_GUARD_CHECKS)
 263:../system/src/newlib/startup.c ****   __data_begin_guard = DATA_GUARD_BAD_VALUE;
 269              		.loc 1 263 3 view .LVU64
 270              		.loc 1 263 22 is_stmt 0 view .LVU65
 271 0008 304B     		ldr	r3, .L38
 272 000a 314A     		ldr	r2, .L38+4
 273 000c 1360     		str	r3, [r2]
 264:../system/src/newlib/startup.c ****   __data_end_guard = DATA_GUARD_BAD_VALUE;
 274              		.loc 1 264 3 is_stmt 1 view .LVU66
 275              		.loc 1 264 20 is_stmt 0 view .LVU67
 276 000e 314A     		ldr	r2, .L38+8
 277 0010 1360     		str	r3, [r2]
 265:../system/src/newlib/startup.c **** #endif
 266:../system/src/newlib/startup.c **** 
 267:../system/src/newlib/startup.c **** #if !defined(OS_INCLUDE_STARTUP_INIT_MULTIPLE_RAM_SECTIONS)
 268:../system/src/newlib/startup.c ****   // Copy the DATA segment from Flash to RAM (inlined).
 269:../system/src/newlib/startup.c ****   __initialize_data(&_sidata, &_sdata, &_edata);
 278              		.loc 1 269 3 is_stmt 1 view .LVU68
 279              	.LVL25:
 280              	.LBB10:
 281              	.LBI10:
 139:../system/src/newlib/startup.c **** 		   unsigned int* region_end)
 282              		.loc 1 139 1 view .LVU69
 283              	.LBB11:
 144:../system/src/newlib/startup.c ****   while (p < region_end)
 284              		.loc 1 144 3 view .LVU70
 145:../system/src/newlib/startup.c ****     *p++ = *from++;
 285              		.loc 1 145 3 view .LVU71
 144:../system/src/newlib/startup.c ****   while (p < region_end)
 286              		.loc 1 144 17 is_stmt 0 view .LVU72
 287 0012 314B     		ldr	r3, .L38+12
 145:../system/src/newlib/startup.c ****     *p++ = *from++;
 288              		.loc 1 145 9 view .LVU73
 289 0014 314A     		ldr	r2, .L38+16
 290 0016 03E0     		b	.L22
 291              	.LVL26:
 292              	.L23:
 146:../system/src/newlib/startup.c **** }
 293              		.loc 1 146 5 is_stmt 1 view .LVU74
 146:../system/src/newlib/startup.c **** }
 294              		.loc 1 146 12 is_stmt 0 view .LVU75
 295 0018 52F8041B 		ldr	r1, [r2], #4
 296              	.LVL27:
 146:../system/src/newlib/startup.c **** }
 297              		.loc 1 146 10 view .LVU76
 298 001c 43F8041B 		str	r1, [r3], #4
 299              	.LVL28:
 300              	.L22:
 145:../system/src/newlib/startup.c ****     *p++ = *from++;
 301              		.loc 1 145 12 is_stmt 1 view .LVU77
 302 0020 2F49     		ldr	r1, .L38+20
 303 0022 8B42     		cmp	r3, r1
 304 0024 F8D3     		bcc	.L23
 305              	.LVL29:
 145:../system/src/newlib/startup.c ****     *p++ = *from++;
 306              		.loc 1 145 12 is_stmt 0 view .LVU78
 307              	.LBE11:
 308              	.LBE10:
 270:../system/src/newlib/startup.c **** #else
 271:../system/src/newlib/startup.c **** 
 272:../system/src/newlib/startup.c ****   // Copy the data sections from flash to SRAM.
 273:../system/src/newlib/startup.c ****   for (unsigned int* p = &__data_regions_array_start;
 274:../system/src/newlib/startup.c ****       p < &__data_regions_array_end;)
 275:../system/src/newlib/startup.c ****     {
 276:../system/src/newlib/startup.c ****       unsigned int* from = (unsigned int *) (*p++);
 277:../system/src/newlib/startup.c ****       unsigned int* region_begin = (unsigned int *) (*p++);
 278:../system/src/newlib/startup.c ****       unsigned int* region_end = (unsigned int *) (*p++);
 279:../system/src/newlib/startup.c **** 
 280:../system/src/newlib/startup.c ****       __initialize_data (from, region_begin, region_end);
 281:../system/src/newlib/startup.c ****     }
 282:../system/src/newlib/startup.c **** 
 283:../system/src/newlib/startup.c **** #endif
 284:../system/src/newlib/startup.c **** 
 285:../system/src/newlib/startup.c **** #if defined(DEBUG) && (OS_INCLUDE_STARTUP_GUARD_CHECKS)
 286:../system/src/newlib/startup.c ****   if ((__data_begin_guard != DATA_BEGIN_GUARD_VALUE)
 309              		.loc 1 286 3 is_stmt 1 view .LVU79
 310              		.loc 1 286 27 is_stmt 0 view .LVU80
 311 0026 2A4B     		ldr	r3, .L38+4
 312 0028 1A68     		ldr	r2, [r3]
 313              		.loc 1 286 6 view .LVU81
 314 002a 2E4B     		ldr	r3, .L38+24
 315 002c 9A42     		cmp	r2, r3
 316 002e 00D0     		beq	.L37
 317              	.L24:
 287:../system/src/newlib/startup.c ****       || (__data_end_guard != DATA_END_GUARD_VALUE))
 288:../system/src/newlib/startup.c ****     {
 289:../system/src/newlib/startup.c ****       for (;;)
 318              		.loc 1 289 7 is_stmt 1 discriminator 1 view .LVU82
 319              		.loc 1 289 7 discriminator 1 view .LVU83
 320 0030 FEE7     		b	.L24
 321              	.L37:
 287:../system/src/newlib/startup.c ****       || (__data_end_guard != DATA_END_GUARD_VALUE))
 322              		.loc 1 287 28 is_stmt 0 view .LVU84
 323 0032 284B     		ldr	r3, .L38+8
 324 0034 1A68     		ldr	r2, [r3]
 287:../system/src/newlib/startup.c ****       || (__data_end_guard != DATA_END_GUARD_VALUE))
 325              		.loc 1 287 7 view .LVU85
 326 0036 2C4B     		ldr	r3, .L38+28
 327 0038 9A42     		cmp	r2, r3
 328 003a F9D1     		bne	.L24
 290:../system/src/newlib/startup.c **** 	;
 291:../system/src/newlib/startup.c ****     }
 292:../system/src/newlib/startup.c **** #endif
 293:../system/src/newlib/startup.c **** 
 294:../system/src/newlib/startup.c **** #if defined(DEBUG) && (OS_INCLUDE_STARTUP_GUARD_CHECKS)
 295:../system/src/newlib/startup.c ****   __bss_begin_guard = BSS_GUARD_BAD_VALUE;
 329              		.loc 1 295 3 is_stmt 1 view .LVU86
 330              		.loc 1 295 21 is_stmt 0 view .LVU87
 331 003c 234B     		ldr	r3, .L38
 332 003e 2B4A     		ldr	r2, .L38+32
 333 0040 1360     		str	r3, [r2]
 296:../system/src/newlib/startup.c ****   __bss_end_guard = BSS_GUARD_BAD_VALUE;
 334              		.loc 1 296 3 is_stmt 1 view .LVU88
 335              		.loc 1 296 19 is_stmt 0 view .LVU89
 336 0042 2B4A     		ldr	r2, .L38+36
 337 0044 1360     		str	r3, [r2]
 297:../system/src/newlib/startup.c **** #endif
 298:../system/src/newlib/startup.c **** 
 299:../system/src/newlib/startup.c **** #if !defined(OS_INCLUDE_STARTUP_INIT_MULTIPLE_RAM_SECTIONS)
 300:../system/src/newlib/startup.c ****   // Zero fill the BSS section (inlined).
 301:../system/src/newlib/startup.c ****   __initialize_bss(&__bss_start__, &__bss_end__);
 338              		.loc 1 301 3 is_stmt 1 view .LVU90
 339              	.LVL30:
 340              	.LBB12:
 341              	.LBI12:
 151:../system/src/newlib/startup.c **** {
 342              		.loc 1 151 1 view .LVU91
 343              	.LBB13:
 155:../system/src/newlib/startup.c ****   while (p < region_end)
 344              		.loc 1 155 3 view .LVU92
 156:../system/src/newlib/startup.c ****     *p++ = 0;
 345              		.loc 1 156 3 view .LVU93
 155:../system/src/newlib/startup.c ****   while (p < region_end)
 346              		.loc 1 155 17 is_stmt 0 view .LVU94
 347 0046 2B4B     		ldr	r3, .L38+40
 156:../system/src/newlib/startup.c ****     *p++ = 0;
 348              		.loc 1 156 9 view .LVU95
 349 0048 02E0     		b	.L26
 350              	.LVL31:
 351              	.L27:
 157:../system/src/newlib/startup.c **** }
 352              		.loc 1 157 5 is_stmt 1 view .LVU96
 157:../system/src/newlib/startup.c **** }
 353              		.loc 1 157 10 is_stmt 0 view .LVU97
 354 004a 0022     		movs	r2, #0
 355 004c 43F8042B 		str	r2, [r3], #4
 356              	.LVL32:
 357              	.L26:
 156:../system/src/newlib/startup.c ****     *p++ = 0;
 358              		.loc 1 156 12 is_stmt 1 view .LVU98
 359 0050 294A     		ldr	r2, .L38+44
 360 0052 9342     		cmp	r3, r2
 361 0054 F9D3     		bcc	.L27
 362              	.LVL33:
 156:../system/src/newlib/startup.c ****     *p++ = 0;
 363              		.loc 1 156 12 is_stmt 0 view .LVU99
 364              	.LBE13:
 365              	.LBE12:
 302:../system/src/newlib/startup.c **** #else
 303:../system/src/newlib/startup.c **** 
 304:../system/src/newlib/startup.c ****   // Zero fill all bss segments
 305:../system/src/newlib/startup.c ****   for (unsigned int *p = &__bss_regions_array_start;
 306:../system/src/newlib/startup.c ****       p < &__bss_regions_array_end;)
 307:../system/src/newlib/startup.c ****     {
 308:../system/src/newlib/startup.c ****       unsigned int* region_begin = (unsigned int*) (*p++);
 309:../system/src/newlib/startup.c ****       unsigned int* region_end = (unsigned int*) (*p++);
 310:../system/src/newlib/startup.c ****       __initialize_bss (region_begin, region_end);
 311:../system/src/newlib/startup.c ****     }
 312:../system/src/newlib/startup.c **** #endif
 313:../system/src/newlib/startup.c **** 
 314:../system/src/newlib/startup.c **** #if defined(DEBUG) && (OS_INCLUDE_STARTUP_GUARD_CHECKS)
 315:../system/src/newlib/startup.c ****   if ((__bss_begin_guard != 0) || (__bss_end_guard != 0))
 366              		.loc 1 315 3 is_stmt 1 view .LVU100
 367              		.loc 1 315 26 is_stmt 0 view .LVU101
 368 0056 254B     		ldr	r3, .L38+32
 369 0058 1B68     		ldr	r3, [r3]
 370              		.loc 1 315 6 view .LVU102
 371 005a 13B9     		cbnz	r3, .L28
 372              		.loc 1 315 52 discriminator 1 view .LVU103
 373 005c 244B     		ldr	r3, .L38+36
 374 005e 1B68     		ldr	r3, [r3]
 375              		.loc 1 315 32 discriminator 1 view .LVU104
 376 0060 03B1     		cbz	r3, .L29
 377              	.L28:
 316:../system/src/newlib/startup.c ****     {
 317:../system/src/newlib/startup.c ****       for (;;)
 378              		.loc 1 317 7 is_stmt 1 discriminator 2 view .LVU105
 379              		.loc 1 317 7 discriminator 2 view .LVU106
 380 0062 FEE7     		b	.L28
 381              	.L29:
 318:../system/src/newlib/startup.c **** 	;
 319:../system/src/newlib/startup.c ****     }
 320:../system/src/newlib/startup.c **** #endif
 321:../system/src/newlib/startup.c **** 
 322:../system/src/newlib/startup.c ****   // Hook to continue the initialisations. Usually compute and store the
 323:../system/src/newlib/startup.c ****   // clock frequency in the global CMSIS variable, cleared above.
 324:../system/src/newlib/startup.c ****   __initialize_hardware ();
 382              		.loc 1 324 3 view .LVU107
 383 0064 FFF7FEFF 		bl	__initialize_hardware
 384              	.LVL34:
 325:../system/src/newlib/startup.c **** 
 326:../system/src/newlib/startup.c ****   // Get the argc/argv (useful in semihosting configurations).
 327:../system/src/newlib/startup.c ****   int argc;
 385              		.loc 1 327 3 view .LVU108
 328:../system/src/newlib/startup.c ****   char** argv;
 386              		.loc 1 328 3 view .LVU109
 329:../system/src/newlib/startup.c ****   __initialize_args (&argc, &argv);
 387              		.loc 1 329 3 view .LVU110
 388 0068 6946     		mov	r1, sp
 389 006a 01A8     		add	r0, sp, #4
 390 006c FFF7FEFF 		bl	__initialize_args
 391              	.LVL35:
 330:../system/src/newlib/startup.c **** 
 331:../system/src/newlib/startup.c ****   // Call the standard library initialisation (mandatory for C++ to
 332:../system/src/newlib/startup.c ****   // execute the constructors for the static objects).
 333:../system/src/newlib/startup.c ****   __run_init_array ();
 392              		.loc 1 333 3 view .LVU111
 393              	.LBB14:
 394              	.LBI14:
 177:../system/src/newlib/startup.c **** {
 395              		.loc 1 177 1 view .LVU112
 396              	.LBB15:
 179:../system/src/newlib/startup.c ****   int i;
 397              		.loc 1 179 3 view .LVU113
 180:../system/src/newlib/startup.c **** 
 398              		.loc 1 180 3 view .LVU114
 182:../system/src/newlib/startup.c ****   for (i = 0; i < count; i++)
 399              		.loc 1 182 3 view .LVU115
 182:../system/src/newlib/startup.c ****   for (i = 0; i < count; i++)
 400              		.loc 1 182 31 is_stmt 0 view .LVU116
 401 0070 224C     		ldr	r4, .L38+48
 402 0072 234B     		ldr	r3, .L38+52
 403 0074 E41A     		subs	r4, r4, r3
 182:../system/src/newlib/startup.c ****   for (i = 0; i < count; i++)
 404              		.loc 1 182 9 view .LVU117
 405 0076 A410     		asrs	r4, r4, #2
 406              	.LVL36:
 183:../system/src/newlib/startup.c ****     __preinit_array_start[i] ();
 407              		.loc 1 183 3 is_stmt 1 view .LVU118
 183:../system/src/newlib/startup.c ****     __preinit_array_start[i] ();
 408              		.loc 1 183 10 is_stmt 0 view .LVU119
 409 0078 0025     		movs	r5, #0
 183:../system/src/newlib/startup.c ****     __preinit_array_start[i] ();
 410              		.loc 1 183 3 view .LVU120
 411 007a 04E0     		b	.L30
 412              	.LVL37:
 413              	.L31:
 184:../system/src/newlib/startup.c **** 
 414              		.loc 1 184 5 is_stmt 1 view .LVU121
 184:../system/src/newlib/startup.c **** 
 415              		.loc 1 184 26 is_stmt 0 view .LVU122
 416 007c 204B     		ldr	r3, .L38+52
 417 007e 53F82530 		ldr	r3, [r3, r5, lsl #2]
 184:../system/src/newlib/startup.c **** 
 418              		.loc 1 184 5 view .LVU123
 419 0082 9847     		blx	r3
 420              	.LVL38:
 183:../system/src/newlib/startup.c ****     __preinit_array_start[i] ();
 421              		.loc 1 183 27 is_stmt 1 view .LVU124
 422 0084 0135     		adds	r5, r5, #1
 423              	.LVL39:
 424              	.L30:
 183:../system/src/newlib/startup.c ****     __preinit_array_start[i] ();
 425              		.loc 1 183 17 view .LVU125
 426 0086 AC42     		cmp	r4, r5
 427 0088 F8DC     		bgt	.L31
 191:../system/src/newlib/startup.c ****   for (i = 0; i < count; i++)
 428              		.loc 1 191 3 view .LVU126
 191:../system/src/newlib/startup.c ****   for (i = 0; i < count; i++)
 429              		.loc 1 191 28 is_stmt 0 view .LVU127
 430 008a 1E4C     		ldr	r4, .L38+56
 431              	.LVL40:
 191:../system/src/newlib/startup.c ****   for (i = 0; i < count; i++)
 432              		.loc 1 191 28 view .LVU128
 433 008c 1E4B     		ldr	r3, .L38+60
 434 008e E41A     		subs	r4, r4, r3
 191:../system/src/newlib/startup.c ****   for (i = 0; i < count; i++)
 435              		.loc 1 191 9 view .LVU129
 436 0090 A410     		asrs	r4, r4, #2
 437              	.LVL41:
 192:../system/src/newlib/startup.c ****     __init_array_start[i] ();
 438              		.loc 1 192 3 is_stmt 1 view .LVU130
 192:../system/src/newlib/startup.c ****     __init_array_start[i] ();
 439              		.loc 1 192 10 is_stmt 0 view .LVU131
 440 0092 0025     		movs	r5, #0
 192:../system/src/newlib/startup.c ****     __init_array_start[i] ();
 441              		.loc 1 192 3 view .LVU132
 442 0094 04E0     		b	.L32
 443              	.LVL42:
 444              	.L33:
 193:../system/src/newlib/startup.c **** }
 445              		.loc 1 193 5 is_stmt 1 view .LVU133
 193:../system/src/newlib/startup.c **** }
 446              		.loc 1 193 23 is_stmt 0 view .LVU134
 447 0096 1C4B     		ldr	r3, .L38+60
 448 0098 53F82530 		ldr	r3, [r3, r5, lsl #2]
 193:../system/src/newlib/startup.c **** }
 449              		.loc 1 193 5 view .LVU135
 450 009c 9847     		blx	r3
 451              	.LVL43:
 192:../system/src/newlib/startup.c ****     __init_array_start[i] ();
 452              		.loc 1 192 27 is_stmt 1 view .LVU136
 453 009e 0135     		adds	r5, r5, #1
 454              	.LVL44:
 455              	.L32:
 192:../system/src/newlib/startup.c ****     __init_array_start[i] ();
 456              		.loc 1 192 17 view .LVU137
 457 00a0 AC42     		cmp	r4, r5
 458 00a2 F8DC     		bgt	.L33
 459              	.LVL45:
 192:../system/src/newlib/startup.c ****     __init_array_start[i] ();
 460              		.loc 1 192 17 is_stmt 0 view .LVU138
 461              	.LBE15:
 462              	.LBE14:
 334:../system/src/newlib/startup.c **** 
 335:../system/src/newlib/startup.c ****   // Call the main entry point, and save the exit code.
 336:../system/src/newlib/startup.c ****   int code = main (argc, argv);
 463              		.loc 1 336 3 is_stmt 1 view .LVU139
 464              		.loc 1 336 14 is_stmt 0 view .LVU140
 465 00a4 0099     		ldr	r1, [sp]
 466 00a6 0198     		ldr	r0, [sp, #4]
 467 00a8 FFF7FEFF 		bl	main
 468              	.LVL46:
 469 00ac 0546     		mov	r5, r0
 470              	.LVL47:
 337:../system/src/newlib/startup.c **** 
 338:../system/src/newlib/startup.c ****   // Run the C++ static destructors.
 339:../system/src/newlib/startup.c ****   __run_fini_array ();
 471              		.loc 1 339 3 is_stmt 1 view .LVU141
 472              	.LBB16:
 473              	.LBI16:
 199:../system/src/newlib/startup.c **** {
 474              		.loc 1 199 1 view .LVU142
 475              	.LBB17:
 201:../system/src/newlib/startup.c ****   int i;
 476              		.loc 1 201 3 view .LVU143
 202:../system/src/newlib/startup.c **** 
 477              		.loc 1 202 3 view .LVU144
 204:../system/src/newlib/startup.c ****   for (i = count; i > 0; i--)
 478              		.loc 1 204 3 view .LVU145
 204:../system/src/newlib/startup.c ****   for (i = count; i > 0; i--)
 479              		.loc 1 204 28 is_stmt 0 view .LVU146
 480 00ae 174C     		ldr	r4, .L38+64
 481 00b0 174B     		ldr	r3, .L38+68
 482 00b2 E41A     		subs	r4, r4, r3
 204:../system/src/newlib/startup.c ****   for (i = count; i > 0; i--)
 483              		.loc 1 204 9 view .LVU147
 484 00b4 A410     		asrs	r4, r4, #2
 485              	.LVL48:
 205:../system/src/newlib/startup.c ****     __fini_array_start[i - 1] ();
 486              		.loc 1 205 3 is_stmt 1 view .LVU148
 205:../system/src/newlib/startup.c ****     __fini_array_start[i - 1] ();
 487              		.loc 1 205 3 is_stmt 0 view .LVU149
 488 00b6 04E0     		b	.L34
 489              	.LVL49:
 490              	.L35:
 206:../system/src/newlib/startup.c **** 
 491              		.loc 1 206 5 is_stmt 1 view .LVU150
 206:../system/src/newlib/startup.c **** 
 492              		.loc 1 206 26 is_stmt 0 view .LVU151
 493 00b8 013C     		subs	r4, r4, #1
 494              	.LVL50:
 206:../system/src/newlib/startup.c **** 
 495              		.loc 1 206 23 view .LVU152
 496 00ba 154B     		ldr	r3, .L38+68
 497              	.LVL51:
 206:../system/src/newlib/startup.c **** 
 498              		.loc 1 206 23 view .LVU153
 499 00bc 53F82430 		ldr	r3, [r3, r4, lsl #2]
 500              	.LVL52:
 206:../system/src/newlib/startup.c **** 
 501              		.loc 1 206 5 view .LVU154
 502 00c0 9847     		blx	r3
 503              	.LVL53:
 205:../system/src/newlib/startup.c ****     __fini_array_start[i - 1] ();
 504              		.loc 1 205 27 is_stmt 1 view .LVU155
 505              	.L34:
 205:../system/src/newlib/startup.c ****     __fini_array_start[i - 1] ();
 506              		.loc 1 205 21 view .LVU156
 507 00c2 002C     		cmp	r4, #0
 508 00c4 F8DC     		bgt	.L35
 509              	.LVL54:
 205:../system/src/newlib/startup.c ****     __fini_array_start[i - 1] ();
 510              		.loc 1 205 21 is_stmt 0 view .LVU157
 511              	.LBE17:
 512              	.LBE16:
 340:../system/src/newlib/startup.c **** 
 341:../system/src/newlib/startup.c ****   _exit (code);
 513              		.loc 1 341 3 is_stmt 1 view .LVU158
 514 00c6 2846     		mov	r0, r5
 515 00c8 FFF7FEFF 		bl	_exit
 516              	.LVL55:
 517              	.L39:
 518              		.align	2
 519              	.L38:
 520 00cc BABADECA 		.word	-891372870
 521 00d0 00000000 		.word	__data_begin_guard
 522 00d4 00000000 		.word	__data_end_guard
 523 00d8 00000000 		.word	_sdata
 524 00dc 00000000 		.word	_sidata
 525 00e0 00000000 		.word	_edata
 526 00e4 78563412 		.word	305419896
 527 00e8 32547698 		.word	-1737075662
 528 00ec 00000000 		.word	__bss_begin_guard
 529 00f0 00000000 		.word	__bss_end_guard
 530 00f4 00000000 		.word	__bss_start__
 531 00f8 00000000 		.word	__bss_end__
 532 00fc 00000000 		.word	__preinit_array_end
 533 0100 00000000 		.word	__preinit_array_start
 534 0104 00000000 		.word	__init_array_end
 535 0108 00000000 		.word	__init_array_start
 536 010c 00000000 		.word	__fini_array_end
 537 0110 00000000 		.word	__fini_array_start
 538              		.cfi_endproc
 539              	.LFE4:
 541              		.section	.data_end,"aw"
 542              		.align	2
 545              	__data_end_guard:
 546 0000 32547698 		.word	-1737075662
 547              		.section	.data_begin,"aw"
 548              		.align	2
 551              	__data_begin_guard:
 552 0000 78563412 		.word	305419896
 553              		.section	.bss_end,"aw"
 554              		.align	2
 557              	__bss_end_guard:
 558 0000 00000000 		.space	4
 559              		.section	.bss_begin,"aw"
 560              		.align	2
 563              	__bss_begin_guard:
 564 0000 00000000 		.space	4
 565              		.weak	__fini_array_start
 566              		.weak	__fini_array_end
 567              		.weak	__init_array_start
 568              		.weak	__init_array_end
 569              		.weak	__preinit_array_start
 570              		.weak	__preinit_array_end
 571              		.text
 572              	.Letext0:
 573              		.file 2 "c:\\users\\dmitriy\\appdata\\roaming\\xpacks\\@xpack-dev-tools\\arm-none-eabi-gcc\\12.3.1