   1              		.cpu cortex-m3
   2              		.arch armv7-m
   3              		.fpu softvfp
   4              		.eabi_attribute 20, 1
   5              		.eabi_attribute 21, 1
   6              		.eabi_attribute 23, 3
   7              		.eabi_attribute 24, 1
   8              		.eabi_attribute 25, 1
   9              		.eabi_attribute 26, 1
  10              		.eabi_attribute 30, 1
  11              		.eabi_attribute 34, 1
  12              		.eabi_attribute 18, 4
  13              		.file	"trace-impl.c"
  14              		.text
  15              	.Ltext0:
  16              		.cfi_sections	.debug_frame
  17              		.file 1 "../system/src/diag/trace-impl.c"
  18              		.section	.text._trace_write_semihosting_debug,"ax",%progbits
  19              		.align	1
  20              		.syntax unified
  21              		.thumb
  22              		.thumb_func
  24              	_trace_write_semihosting_debug:
  25              	.LVL0:
  26              	.LFB60:
   1:../system/src/diag/trace-impl.c **** /*
   2:../system/src/diag/trace-impl.c ****  * This file is part of the µOS++ distribution.
   3:../system/src/diag/trace-impl.c ****  *   (https://github.com/micro-os-plus)
   4:../system/src/diag/trace-impl.c ****  * Copyright (c) 2014 Liviu Ionescu.
   5:../system/src/diag/trace-impl.c ****  *
   6:../system/src/diag/trace-impl.c ****  * Permission is hereby granted, free of charge, to any person
   7:../system/src/diag/trace-impl.c ****  * obtaining a copy of this software and associated documentation
   8:../system/src/diag/trace-impl.c ****  * files (the "Software"), to deal in the Software without
   9:../system/src/diag/trace-impl.c ****  * restriction, including without limitation the rights to use,
  10:../system/src/diag/trace-impl.c ****  * copy, modify, merge, publish, distribute, sublicense, and/or
  11:../system/src/diag/trace-impl.c ****  * sell copies of the Software, and to permit persons to whom
  12:../system/src/diag/trace-impl.c ****  * the Software is furnished to do so, subject to the following
  13:../system/src/diag/trace-impl.c ****  * conditions:
  14:../system/src/diag/trace-impl.c ****  *
  15:../system/src/diag/trace-impl.c ****  * The above copyright notice and this permission notice shall be
  16:../system/src/diag/trace-impl.c ****  * included in all copies or substantial portions of the Software.
  17:../system/src/diag/trace-impl.c ****  *
  18:../system/src/diag/trace-impl.c ****  * THE SOFTWARE IS PROVIDED "AS IS", WITHOUT WARRANTY OF ANY KIND,
  19:../system/src/diag/trace-impl.c ****  * EXPRESS OR IMPLIED, INCLUDING BUT NOT LIMITED TO THE WARRANTIES
  20:../system/src/diag/trace-impl.c ****  * OF MERCHANTABILITY, FITNESS FOR A PARTICULAR PURPOSE AND
  21:../system/src/diag/trace-impl.c ****  * NONINFRINGEMENT. IN NO EVENT SHALL THE AUTHORS OR COPYRIGHT
  22:../system/src/diag/trace-impl.c ****  * HOLDERS BE LIABLE FOR ANY CLAIM, DAMAGES OR OTHER LIABILITY,
  23:../system/src/diag/trace-impl.c ****  * WHETHER IN AN ACTION OF CONTRACT, TORT OR OTHERWISE, ARISING
  24:../system/src/diag/trace-impl.c ****  * FROM, OUT OF OR IN CONNECTION WITH THE SOFTWARE OR THE USE OR
  25:../system/src/diag/trace-impl.c ****  * OTHER DEALINGS IN THE SOFTWARE.
  26:../system/src/diag/trace-impl.c ****  */
  27:../system/src/diag/trace-impl.c **** 
  28:../system/src/diag/trace-impl.c **** // ----------------------------------------------------------------------------
  29:../system/src/diag/trace-impl.c **** 
  30:../system/src/diag/trace-impl.c **** #if defined(TRACE)
  31:../system/src/diag/trace-impl.c **** 
  32:../system/src/diag/trace-impl.c **** #include "cmsis_device.h"
  33:../system/src/diag/trace-impl.c **** #include "diag/trace.h"
  34:../system/src/diag/trace-impl.c **** 
  35:../system/src/diag/trace-impl.c **** // ----------------------------------------------------------------------------
  36:../system/src/diag/trace-impl.c **** 
  37:../system/src/diag/trace-impl.c **** // One of these definitions must be passed via the compiler command line
  38:../system/src/diag/trace-impl.c **** // Note: small Cortex-M0/M0+ might implement a simplified debug interface.
  39:../system/src/diag/trace-impl.c **** 
  40:../system/src/diag/trace-impl.c **** //#define OS_USE_TRACE_ITM
  41:../system/src/diag/trace-impl.c **** //#define OS_USE_TRACE_SEMIHOSTING_DEBUG
  42:../system/src/diag/trace-impl.c **** //#define OS_USE_TRACE_SEMIHOSTING_STDOUT
  43:../system/src/diag/trace-impl.c **** 
  44:../system/src/diag/trace-impl.c **** #if !(defined(__ARM_ARCH_7M__) || defined(__ARM_ARCH_7EM__))
  45:../system/src/diag/trace-impl.c **** #if defined(OS_USE_TRACE_ITM)
  46:../system/src/diag/trace-impl.c **** #undef OS_USE_TRACE_ITM
  47:../system/src/diag/trace-impl.c **** #warning "ITM unavailable"
  48:../system/src/diag/trace-impl.c **** #endif // defined(OS_USE_TRACE_ITM)
  49:../system/src/diag/trace-impl.c **** #endif // !(defined(__ARM_ARCH_7M__) || defined(__ARM_ARCH_7EM__))
  50:../system/src/diag/trace-impl.c **** 
  51:../system/src/diag/trace-impl.c **** #if defined(OS_DEBUG_SEMIHOSTING_FAULTS)
  52:../system/src/diag/trace-impl.c **** #if defined(OS_USE_TRACE_SEMIHOSTING_STDOUT) || defined(OS_USE_TRACE_SEMIHOSTING_DEBUG)
  53:../system/src/diag/trace-impl.c **** #error "Cannot debug semihosting using semihosting trace; use OS_USE_TRACE_ITM"
  54:../system/src/diag/trace-impl.c **** #endif
  55:../system/src/diag/trace-impl.c **** #endif
  56:../system/src/diag/trace-impl.c **** 
  57:../system/src/diag/trace-impl.c **** // ----------------------------------------------------------------------------
  58:../system/src/diag/trace-impl.c **** 
  59:../system/src/diag/trace-impl.c **** // Forward definitions.
  60:../system/src/diag/trace-impl.c **** 
  61:../system/src/diag/trace-impl.c **** #if defined(OS_USE_TRACE_ITM)
  62:../system/src/diag/trace-impl.c **** static ssize_t
  63:../system/src/diag/trace-impl.c **** _trace_write_itm (const char* buf, size_t nbyte);
  64:../system/src/diag/trace-impl.c **** #endif
  65:../system/src/diag/trace-impl.c **** 
  66:../system/src/diag/trace-impl.c **** #if defined(OS_USE_TRACE_SEMIHOSTING_STDOUT)
  67:../system/src/diag/trace-impl.c **** static ssize_t
  68:../system/src/diag/trace-impl.c **** _trace_write_semihosting_stdout(const char* buf, size_t nbyte);
  69:../system/src/diag/trace-impl.c **** #endif
  70:../system/src/diag/trace-impl.c **** 
  71:../system/src/diag/trace-impl.c **** #if defined(OS_USE_TRACE_SEMIHOSTING_DEBUG)
  72:../system/src/diag/trace-impl.c **** static ssize_t
  73:../system/src/diag/trace-impl.c **** _trace_write_semihosting_debug(const char* buf, size_t nbyte);
  74:../system/src/diag/trace-impl.c **** #endif
  75:../system/src/diag/trace-impl.c **** 
  76:../system/src/diag/trace-impl.c **** // ----------------------------------------------------------------------------
  77:../system/src/diag/trace-impl.c **** 
  78:../system/src/diag/trace-impl.c **** void
  79:../system/src/diag/trace-impl.c **** trace_initialize(void)
  80:../system/src/diag/trace-impl.c **** {
  81:../system/src/diag/trace-impl.c ****   // For regular ITM / semihosting, no inits required.
  82:../system/src/diag/trace-impl.c **** }
  83:../system/src/diag/trace-impl.c **** 
  84:../system/src/diag/trace-impl.c **** // ----------------------------------------------------------------------------
  85:../system/src/diag/trace-impl.c **** 
  86:../system/src/diag/trace-impl.c **** // This function is called from _write() for fd==1 or fd==2 and from some
  87:../system/src/diag/trace-impl.c **** // of the trace_* functions.
  88:../system/src/diag/trace-impl.c **** 
  89:../system/src/diag/trace-impl.c **** ssize_t
  90:../system/src/diag/trace-impl.c **** trace_write (const char* buf __attribute__((unused)),
  91:../system/src/diag/trace-impl.c **** 	     size_t nbyte __attribute__((unused)))
  92:../system/src/diag/trace-impl.c **** {
  93:../system/src/diag/trace-impl.c **** #if defined(OS_USE_TRACE_ITM)
  94:../system/src/diag/trace-impl.c ****   return _trace_write_itm (buf, nbyte);
  95:../system/src/diag/trace-impl.c **** #elif defined(OS_USE_TRACE_SEMIHOSTING_STDOUT)
  96:../system/src/diag/trace-impl.c ****   return _trace_write_semihosting_stdout(buf, nbyte);
  97:../system/src/diag/trace-impl.c **** #elif defined(OS_USE_TRACE_SEMIHOSTING_DEBUG)
  98:../system/src/diag/trace-impl.c ****   return _trace_write_semihosting_debug(buf, nbyte);
  99:../system/src/diag/trace-impl.c **** #endif
 100:../system/src/diag/trace-impl.c **** 
 101:../system/src/diag/trace-impl.c ****   return -1;
 102:../system/src/diag/trace-impl.c **** }
 103:../system/src/diag/trace-impl.c **** 
 104:../system/src/diag/trace-impl.c **** // ----------------------------------------------------------------------------
 105:../system/src/diag/trace-impl.c **** 
 106:../system/src/diag/trace-impl.c **** #if defined(OS_USE_TRACE_ITM)
 107:../system/src/diag/trace-impl.c **** 
 108:../system/src/diag/trace-impl.c **** #if defined(__ARM_ARCH_7M__) || defined(__ARM_ARCH_7EM__)
 109:../system/src/diag/trace-impl.c **** 
 110:../system/src/diag/trace-impl.c **** // ITM is the ARM standard mechanism, running over SWD/SWO on Cortex-M3/M4
 111:../system/src/diag/trace-impl.c **** // devices, and is the recommended setting, if available.
 112:../system/src/diag/trace-impl.c **** //
 113:../system/src/diag/trace-impl.c **** // The JLink probe and the GDB server fully support SWD/SWO
 114:../system/src/diag/trace-impl.c **** // and the JLink Debugging plug-in enables it by default.
 115:../system/src/diag/trace-impl.c **** // The current OpenOCD does not include support to parse the SWO stream,
 116:../system/src/diag/trace-impl.c **** // so this configuration will not work on OpenOCD (will not crash, but
 117:../system/src/diag/trace-impl.c **** // nothing will be displayed in the output console).
 118:../system/src/diag/trace-impl.c **** 
 119:../system/src/diag/trace-impl.c **** #if !defined(OS_INTEGER_TRACE_ITM_STIMULUS_PORT)
 120:../system/src/diag/trace-impl.c **** #define OS_INTEGER_TRACE_ITM_STIMULUS_PORT     (0)
 121:../system/src/diag/trace-impl.c **** #endif
 122:../system/src/diag/trace-impl.c **** 
 123:../system/src/diag/trace-impl.c **** static ssize_t
 124:../system/src/diag/trace-impl.c **** _trace_write_itm (const char* buf, size_t nbyte)
 125:../system/src/diag/trace-impl.c **** {
 126:../system/src/diag/trace-impl.c ****   for (size_t i = 0; i < nbyte; i++)
 127:../system/src/diag/trace-impl.c ****     {
 128:../system/src/diag/trace-impl.c ****       // Check if ITM or the stimulus port are not enabled
 129:../system/src/diag/trace-impl.c ****       if (((ITM->TCR & ITM_TCR_ITMENA_Msk) == 0)
 130:../system/src/diag/trace-impl.c **** 	  || ((ITM->TER & (1UL << OS_INTEGER_TRACE_ITM_STIMULUS_PORT)) == 0))
 131:../system/src/diag/trace-impl.c **** 	{
 132:../system/src/diag/trace-impl.c **** 	  return (ssize_t)i; // return the number of sent characters (may be 0)
 133:../system/src/diag/trace-impl.c **** 	}
 134:../system/src/diag/trace-impl.c **** 
 135:../system/src/diag/trace-impl.c ****       // Wait until STIMx is ready...
 136:../system/src/diag/trace-impl.c ****       while (ITM->PORT[OS_INTEGER_TRACE_ITM_STIMULUS_PORT].u32 == 0)
 137:../system/src/diag/trace-impl.c **** 	;
 138:../system/src/diag/trace-impl.c ****       // then send data, one byte at a time
 139:../system/src/diag/trace-impl.c ****       ITM->PORT[OS_INTEGER_TRACE_ITM_STIMULUS_PORT].u8 = (uint8_t) (*buf++);
 140:../system/src/diag/trace-impl.c ****     }
 141:../system/src/diag/trace-impl.c **** 
 142:../system/src/diag/trace-impl.c ****   return (ssize_t)nbyte; // all characters successfully sent
 143:../system/src/diag/trace-impl.c **** }
 144:../system/src/diag/trace-impl.c **** 
 145:../system/src/diag/trace-impl.c **** #endif // defined(__ARM_ARCH_7M__) || defined(__ARM_ARCH_7EM__)
 146:../system/src/diag/trace-impl.c **** 
 147:../system/src/diag/trace-impl.c **** #endif // OS_USE_TRACE_ITM
 148:../system/src/diag/trace-impl.c **** 
 149:../system/src/diag/trace-impl.c **** // ----------------------------------------------------------------------------
 150:../system/src/diag/trace-impl.c **** 
 151:../system/src/diag/trace-impl.c **** #if defined(OS_USE_TRACE_SEMIHOSTING_DEBUG) || defined(OS_USE_TRACE_SEMIHOSTING_STDOUT)
 152:../system/src/diag/trace-impl.c **** 
 153:../system/src/diag/trace-impl.c **** #include "arm/semihosting.h"
 154:../system/src/diag/trace-impl.c **** 
 155:../system/src/diag/trace-impl.c **** // Semihosting is the other output channel that can be used for the trace
 156:../system/src/diag/trace-impl.c **** // messages. It comes in two flavours: STDOUT and DEBUG. The STDOUT channel
 157:../system/src/diag/trace-impl.c **** // is the equivalent of the stdout in POSIX and in most cases it is forwarded
 158:../system/src/diag/trace-impl.c **** // to the GDB server stdout stream. The debug channel is a separate
 159:../system/src/diag/trace-impl.c **** // channel. STDOUT is buffered, so nothing is displayed until a \n;
 160:../system/src/diag/trace-impl.c **** // DEBUG is not buffered, but can be slow.
 161:../system/src/diag/trace-impl.c **** //
 162:../system/src/diag/trace-impl.c **** // Choosing between semihosting stdout and debug depends on the capabilities
 163:../system/src/diag/trace-impl.c **** // of your GDB server, and also on specific needs. It is recommended to test
 164:../system/src/diag/trace-impl.c **** // DEBUG first, and if too slow, try STDOUT.
 165:../system/src/diag/trace-impl.c **** //
 166:../system/src/diag/trace-impl.c **** // The JLink GDB server fully support semihosting, and both configurations
 167:../system/src/diag/trace-impl.c **** // are available; to activate it, use "monitor semihosting enable" or check
 168:../system/src/diag/trace-impl.c **** // the corresponding button in the JLink Debugging plug-in.
 169:../system/src/diag/trace-impl.c **** // In OpenOCD, support for semihosting can be enabled using
 170:../system/src/diag/trace-impl.c **** // "monitor arm semihosting enable".
 171:../system/src/diag/trace-impl.c **** //
 172:../system/src/diag/trace-impl.c **** // Note: Applications built with semihosting output active normally cannot
 173:../system/src/diag/trace-impl.c **** // be executed without the debugger connected and active, since they use
 174:../system/src/diag/trace-impl.c **** // BKPT to communicate with the host. However, with a carefully written
 175:../system/src/diag/trace-impl.c **** // HardFault_Handler, the semihosting BKPT calls can be processed, making
 176:../system/src/diag/trace-impl.c **** // possible to run semihosting applications as standalone, without being
 177:../system/src/diag/trace-impl.c **** // terminated with hardware faults.
 178:../system/src/diag/trace-impl.c **** 
 179:../system/src/diag/trace-impl.c **** #endif // OS_USE_TRACE_SEMIHOSTING_DEBUG_*
 180:../system/src/diag/trace-impl.c **** 
 181:../system/src/diag/trace-impl.c **** // ----------------------------------------------------------------------------
 182:../system/src/diag/trace-impl.c **** 
 183:../system/src/diag/trace-impl.c **** #if defined(OS_USE_TRACE_SEMIHOSTING_STDOUT)
 184:../system/src/diag/trace-impl.c **** 
 185:../system/src/diag/trace-impl.c **** static ssize_t
 186:../system/src/diag/trace-impl.c **** _trace_write_semihosting_stdout (const char* buf, size_t nbyte)
 187:../system/src/diag/trace-impl.c **** {
 188:../system/src/diag/trace-impl.c ****   static int handle;
 189:../system/src/diag/trace-impl.c ****   void* block[3];
 190:../system/src/diag/trace-impl.c ****   int ret;
 191:../system/src/diag/trace-impl.c **** 
 192:../system/src/diag/trace-impl.c ****   if (handle == 0)
 193:../system/src/diag/trace-impl.c ****     {
 194:../system/src/diag/trace-impl.c ****       // On the first call get the file handle from the host
 195:../system/src/diag/trace-impl.c ****       block[0] = ":tt"; // special filename to be used for stdin/out/err
 196:../system/src/diag/trace-impl.c ****       block[1] = (void*) 4; // mode "w"
 197:../system/src/diag/trace-impl.c ****       // length of ":tt", except null terminator
 198:../system/src/diag/trace-impl.c ****       block[2] = (void*) (sizeof(":tt") - 1);
 199:../system/src/diag/trace-impl.c **** 
 200:../system/src/diag/trace-impl.c ****       ret = call_host (SEMIHOSTING_SYS_OPEN, (void*) block);
 201:../system/src/diag/trace-impl.c ****       if (ret == -1)
 202:../system/src/diag/trace-impl.c ****         return -1;
 203:../system/src/diag/trace-impl.c **** 
 204:../system/src/diag/trace-impl.c ****       handle = ret;
 205:../system/src/diag/trace-impl.c ****     }
 206:../system/src/diag/trace-impl.c **** 
 207:../system/src/diag/trace-impl.c ****   block[0] = (void*) handle;
 208:../system/src/diag/trace-impl.c ****   block[1] = (void*) buf;
 209:../system/src/diag/trace-impl.c ****   block[2] = (void*) nbyte;
 210:../system/src/diag/trace-impl.c ****   // send character array to host file/device
 211:../system/src/diag/trace-impl.c ****   ret = call_host (SEMIHOSTING_SYS_WRITE, (void*) block);
 212:../system/src/diag/trace-impl.c ****   // this call returns the number of bytes NOT written (0 if all ok)
 213:../system/src/diag/trace-impl.c **** 
 214:../system/src/diag/trace-impl.c ****   // -1 is not a legal value, but SEGGER seems to return it
 215:../system/src/diag/trace-impl.c ****   if (ret == -1)
 216:../system/src/diag/trace-impl.c ****     return -1;
 217:../system/src/diag/trace-impl.c **** 
 218:../system/src/diag/trace-impl.c ****   // The compliant way of returning errors
 219:../system/src/diag/trace-impl.c ****   if (ret == (int) nbyte)
 220:../system/src/diag/trace-impl.c ****     return -1;
 221:../system/src/diag/trace-impl.c **** 
 222:../system/src/diag/trace-impl.c ****   // Return the number of bytes written
 223:../system/src/diag/trace-impl.c ****   return (ssize_t) (nbyte) - (ssize_t) ret;
 224:../system/src/diag/trace-impl.c **** }
 225:../system/src/diag/trace-impl.c **** 
 226:../system/src/diag/trace-impl.c **** #endif // OS_USE_TRACE_SEMIHOSTING_STDOUT
 227:../system/src/diag/trace-impl.c **** 
 228:../system/src/diag/trace-impl.c **** // ----------------------------------------------------------------------------
 229:../system/src/diag/trace-impl.c **** 
 230:../system/src/diag/trace-impl.c **** #if defined(OS_USE_TRACE_SEMIHOSTING_DEBUG)
 231:../system/src/diag/trace-impl.c **** 
 232:../system/src/diag/trace-impl.c **** #define OS_INTEGER_TRACE_TMP_ARRAY_SIZE  (16)
 233:../system/src/diag/trace-impl.c **** 
 234:../system/src/diag/trace-impl.c **** static ssize_t
 235:../system/src/diag/trace-impl.c **** _trace_write_semihosting_debug (const char* buf, size_t nbyte)
 236:../system/src/diag/trace-impl.c **** {
  27              		.loc 1 236 1 view -0
  28              		.cfi_startproc
  29              		@ args = 0, pretend = 0, frame = 16
  30              		@ frame_needed = 0, uses_anonymous_args = 0
  31              		.loc 1 236 1 is_stmt 0 view .LVU1
  32 0000 2DE9F043 		push	{r4, r5, r6, r7, r8, r9, lr}
  33              		.cfi_def_cfa_offset 28
  34              		.cfi_offset 4, -28
  35              		.cfi_offset 5, -24
  36              		.cfi_offset 6, -20
  37              		.cfi_offset 7, -16
  38              		.cfi_offset 8, -12
  39              		.cfi_offset 9, -8
  40              		.cfi_offset 14, -4
  41 0004 85B0     		sub	sp, sp, #20
  42              		.cfi_def_cfa_offset 48
  43 0006 0446     		mov	r4, r0
  44 0008 0F46     		mov	r7, r1
 237:../system/src/diag/trace-impl.c ****   // Since the single character debug channel is quite slow, try to
 238:../system/src/diag/trace-impl.c ****   // optimise and send a null terminated string, if possible.
 239:../system/src/diag/trace-impl.c ****   if (buf[nbyte] == '\0')
  45              		.loc 1 239 3 is_stmt 1 view .LVU2
  46              		.loc 1 239 10 is_stmt 0 view .LVU3
  47 000a 4356     		ldrsb	r3, [r0, r1]
  48              		.loc 1 239 6 view .LVU4
  49 000c 3BBB     		cbnz	r3, .L7
 240:../system/src/diag/trace-impl.c ****     {
 241:../system/src/diag/trace-impl.c ****       // send string
 242:../system/src/diag/trace-impl.c ****       call_host (SEMIHOSTING_SYS_WRITE0, (void*) buf);
  50              		.loc 1 242 7 is_stmt 1 view .LVU5
  51              	.LVL1:
  52              	.LBB8:
  53              	.LBI8:
  54              		.file 2 "../system/inc/arm/semihosting.h"
   1:../system/inc/arm/semihosting.h **** /*
   2:../system/inc/arm/semihosting.h ****  * This file is part of the µOS++ distribution.
   3:../system/inc/arm/semihosting.h ****  *   (https://github.com/micro-os-plus)
   4:../system/inc/arm/semihosting.h ****  * Copyright (c) 2014 Liviu Ionescu.
   5:../system/inc/arm/semihosting.h ****  *
   6:../system/inc/arm/semihosting.h ****  * Permission is hereby granted, free of charge, to any person
   7:../system/inc/arm/semihosting.h ****  * obtaining a copy of this software and associated documentation
   8:../system/inc/arm/semihosting.h ****  * files (the "Software"), to deal in the Software without
   9:../system/inc/arm/semihosting.h ****  * restriction, including without limitation the rights to use,
  10:../system/inc/arm/semihosting.h ****  * copy, modify, merge, publish, distribute, sublicense, and/or
  11:../system/inc/arm/semihosting.h ****  * sell copies of the Software, and to permit persons to whom
  12:../system/inc/arm/semihosting.h ****  * the Software is furnished to do so, subject to the following
  13:../system/inc/arm/semihosting.h ****  * conditions:
  14:../system/inc/arm/semihosting.h ****  *
  15:../system/inc/arm/semihosting.h ****  * The above copyright notice and this permission notice shall be
  16:../system/inc/arm/semihosting.h ****  * included in all copies or substantial portions of the Software.
  17:../system/inc/arm/semihosting.h ****  *
  18:../system/inc/arm/semihosting.h ****  * THE SOFTWARE IS PROVIDED "AS IS", WITHOUT WARRANTY OF ANY KIND,
  19:../system/inc/arm/semihosting.h ****  * EXPRESS OR IMPLIED, INCLUDING BUT NOT LIMITED TO THE WARRANTIES
  20:../system/inc/arm/semihosting.h ****  * OF MERCHANTABILITY, FITNESS FOR A PARTICULAR PURPOSE AND
  21:../system/inc/arm/semihosting.h ****  * NONINFRINGEMENT. IN NO EVENT SHALL THE AUTHORS OR COPYRIGHT
  22:../system/inc/arm/semihosting.h ****  * HOLDERS BE LIABLE FOR ANY CLAIM, DAMAGES OR OTHER LIABILITY,
  23:../system/inc/arm/semihosting.h ****  * WHETHER IN AN ACTION OF CONTRACT, TORT OR OTHERWISE, ARISING
  24:../system/inc/arm/semihosting.h ****  * FROM, OUT OF OR IN CONNECTION WITH THE SOFTWARE OR THE USE OR
  25:../system/inc/arm/semihosting.h ****  * OTHER DEALINGS IN THE SOFTWARE.
  26:../system/inc/arm/semihosting.h ****  */
  27:../system/inc/arm/semihosting.h **** 
  28:../system/inc/arm/semihosting.h **** #ifndef ARM_SEMIHOSTING_H_
  29:../system/inc/arm/semihosting.h **** #define ARM_SEMIHOSTING_H_
  30:../system/inc/arm/semihosting.h **** 
  31:../system/inc/arm/semihosting.h **** // ----------------------------------------------------------------------------
  32:../system/inc/arm/semihosting.h **** 
  33:../system/inc/arm/semihosting.h **** // Semihosting operations.
  34:../system/inc/arm/semihosting.h **** enum OperationNumber
  35:../system/inc/arm/semihosting.h **** {
  36:../system/inc/arm/semihosting.h ****   // Regular operations
  37:../system/inc/arm/semihosting.h ****   SEMIHOSTING_EnterSVC = 0x17,
  38:../system/inc/arm/semihosting.h ****   SEMIHOSTING_ReportException = 0x18,
  39:../system/inc/arm/semihosting.h ****   SEMIHOSTING_SYS_CLOSE = 0x02,
  40:../system/inc/arm/semihosting.h ****   SEMIHOSTING_SYS_CLOCK = 0x10,
  41:../system/inc/arm/semihosting.h ****   SEMIHOSTING_SYS_ELAPSED = 0x30,
  42:../system/inc/arm/semihosting.h ****   SEMIHOSTING_SYS_ERRNO = 0x13,
  43:../system/inc/arm/semihosting.h ****   SEMIHOSTING_SYS_FLEN = 0x0C,
  44:../system/inc/arm/semihosting.h ****   SEMIHOSTING_SYS_GET_CMDLINE = 0x15,
  45:../system/inc/arm/semihosting.h ****   SEMIHOSTING_SYS_HEAPINFO = 0x16,
  46:../system/inc/arm/semihosting.h ****   SEMIHOSTING_SYS_ISERROR = 0x08,
  47:../system/inc/arm/semihosting.h ****   SEMIHOSTING_SYS_ISTTY = 0x09,
  48:../system/inc/arm/semihosting.h ****   SEMIHOSTING_SYS_OPEN = 0x01,
  49:../system/inc/arm/semihosting.h ****   SEMIHOSTING_SYS_READ = 0x06,
  50:../system/inc/arm/semihosting.h ****   SEMIHOSTING_SYS_READC = 0x07,
  51:../system/inc/arm/semihosting.h ****   SEMIHOSTING_SYS_REMOVE = 0x0E,
  52:../system/inc/arm/semihosting.h ****   SEMIHOSTING_SYS_RENAME = 0x0F,
  53:../system/inc/arm/semihosting.h ****   SEMIHOSTING_SYS_SEEK = 0x0A,
  54:../system/inc/arm/semihosting.h ****   SEMIHOSTING_SYS_SYSTEM = 0x12,
  55:../system/inc/arm/semihosting.h ****   SEMIHOSTING_SYS_TICKFREQ = 0x31,
  56:../system/inc/arm/semihosting.h ****   SEMIHOSTING_SYS_TIME = 0x11,
  57:../system/inc/arm/semihosting.h ****   SEMIHOSTING_SYS_TMPNAM = 0x0D,
  58:../system/inc/arm/semihosting.h ****   SEMIHOSTING_SYS_WRITE = 0x05,
  59:../system/inc/arm/semihosting.h ****   SEMIHOSTING_SYS_WRITEC = 0x03,
  60:../system/inc/arm/semihosting.h ****   SEMIHOSTING_SYS_WRITE0 = 0x04,
  61:../system/inc/arm/semihosting.h **** 
  62:../system/inc/arm/semihosting.h ****   // Codes returned by SEMIHOSTING_ReportException
  63:../system/inc/arm/semihosting.h ****   ADP_Stopped_ApplicationExit = ((2 << 16) + 38),
  64:../system/inc/arm/semihosting.h ****   ADP_Stopped_RunTimeError = ((2 << 16) + 35),
  65:../system/inc/arm/semihosting.h **** 
  66:../system/inc/arm/semihosting.h **** };
  67:../system/inc/arm/semihosting.h **** 
  68:../system/inc/arm/semihosting.h **** // ----------------------------------------------------------------------------
  69:../system/inc/arm/semihosting.h **** 
  70:../system/inc/arm/semihosting.h **** // SWI numbers and reason codes for RDI (Angel) monitors.
  71:../system/inc/arm/semihosting.h **** #define AngelSWI_ARM                    0x123456
  72:../system/inc/arm/semihosting.h **** #ifdef __thumb__
  73:../system/inc/arm/semihosting.h **** #define AngelSWI                        0xAB
  74:../system/inc/arm/semihosting.h **** #else
  75:../system/inc/arm/semihosting.h **** #define AngelSWI                        AngelSWI_ARM
  76:../system/inc/arm/semihosting.h **** #endif
  77:../system/inc/arm/semihosting.h **** // For thumb only architectures use the BKPT instruction instead of SWI.
  78:../system/inc/arm/semihosting.h **** #if defined(__ARM_ARCH_7M__)     \
  79:../system/inc/arm/semihosting.h ****     || defined(__ARM_ARCH_7EM__) \
  80:../system/inc/arm/semihosting.h ****     || defined(__ARM_ARCH_6M__)
  81:../system/inc/arm/semihosting.h **** #define AngelSWIInsn                    "bkpt"
  82:../system/inc/arm/semihosting.h **** #define AngelSWIAsm                     bkpt
  83:../system/inc/arm/semihosting.h **** #else
  84:../system/inc/arm/semihosting.h **** #define AngelSWIInsn                    "swi"
  85:../system/inc/arm/semihosting.h **** #define AngelSWIAsm                     swi
  86:../system/inc/arm/semihosting.h **** #endif
  87:../system/inc/arm/semihosting.h **** 
  88:../system/inc/arm/semihosting.h **** #if defined(OS_DEBUG_SEMIHOSTING_FAULTS)
  89:../system/inc/arm/semihosting.h **** // Testing the local semihosting handler cannot use another BKPT, since this
  90:../system/inc/arm/semihosting.h **** // configuration cannot trigger HaedFault exceptions while the debugger is
  91:../system/inc/arm/semihosting.h **** // connected, so we use an illegal op code, that will trigger an
  92:../system/inc/arm/semihosting.h **** // UsageFault exception.
  93:../system/inc/arm/semihosting.h **** #define AngelSWITestFault       "setend be"
  94:../system/inc/arm/semihosting.h **** #define AngelSWITestFaultOpCode (0xB658)
  95:../system/inc/arm/semihosting.h **** #endif
  96:../system/inc/arm/semihosting.h **** 
  97:../system/inc/arm/semihosting.h **** static inline int
  98:../system/inc/arm/semihosting.h **** __attribute__ ((always_inline))
  99:../system/inc/arm/semihosting.h **** call_host (int reason, void* arg)
  55              		.loc 2 99 1 view .LVU6
  56              	.LBB9:
 100:../system/inc/arm/semihosting.h **** {
 101:../system/inc/arm/semihosting.h ****   int value;
  57              		.loc 2 101 3 view .LVU7
 102:../system/inc/arm/semihosting.h ****   asm volatile (
  58              		.loc 2 102 3 view .LVU8
  59 000e 0425     		movs	r5, #4
  60              		.syntax unified
  61              	@ 102 "../system/inc/arm/semihosting.h" 1
  62 0010 2846     		 mov r0, r5  
  63 0012 2146     	 mov r1, r4  
  64 0014 ABBE     	 bkpt #171 
  65 0016 0546     	 mov r5, r0
  66              	@ 0 "" 2
  67              	.LVL2:
 103:../system/inc/arm/semihosting.h **** 
 104:../system/inc/arm/semihosting.h ****       " mov r0, %[rsn]  \n"
 105:../system/inc/arm/semihosting.h ****       " mov r1, %[arg]  \n"
 106:../system/inc/arm/semihosting.h **** #if defined(OS_DEBUG_SEMIHOSTING_FAULTS)
 107:../system/inc/arm/semihosting.h ****       " " AngelSWITestFault " \n"
 108:../system/inc/arm/semihosting.h **** #else
 109:../system/inc/arm/semihosting.h ****       " " AngelSWIInsn " %[swi] \n"
 110:../system/inc/arm/semihosting.h **** #endif
 111:../system/inc/arm/semihosting.h ****       " mov %[val], r0"
 112:../system/inc/arm/semihosting.h **** 
 113:../system/inc/arm/semihosting.h ****       : [val] "=r" (value) /* Outputs */
 114:../system/inc/arm/semihosting.h ****       : [rsn] "r" (reason), [arg] "r" (arg), [swi] "i" (AngelSWI) /* Inputs */
 115:../system/inc/arm/semihosting.h ****       : "r0", "r1", "r2", "r3", "ip", "lr", "memory", "cc"
 116:../system/inc/arm/semihosting.h ****       // Clobbers r0 and r1, and lr if in supervisor mode
 117:../system/inc/arm/semihosting.h ****   );
 118:../system/inc/arm/semihosting.h **** 
 119:../system/inc/arm/semihosting.h ****   // Accordingly to page 13-77 of ARM DUI 0040D other registers
 120:../system/inc/arm/semihosting.h ****   // can also be clobbered. Some memory positions may also be
 121:../system/inc/arm/semihosting.h ****   // changed by a system call, so they should not be kept in
 122:../system/inc/arm/semihosting.h ****   // registers. Note: we are assuming the manual is right and
 123:../system/inc/arm/semihosting.h ****   // Angel is respecting the APCS.
 124:../system/inc/arm/semihosting.h ****   return value;
  68              		.loc 2 124 3 view .LVU9
  69              		.thumb
  70              		.syntax unified
  71              	.L3:
  72              		.loc 2 124 3 is_stmt 0 view .LVU10
  73              	.LBE9:
  74              	.LBE8:
 243:../system/src/diag/trace-impl.c ****     }
 244:../system/src/diag/trace-impl.c ****   else
 245:../system/src/diag/trace-impl.c ****     {
 246:../system/src/diag/trace-impl.c ****       // If not, use a local buffer to speed things up
 247:../system/src/diag/trace-impl.c ****       char tmp[OS_INTEGER_TRACE_TMP_ARRAY_SIZE];
 248:../system/src/diag/trace-impl.c ****       size_t togo = nbyte;
 249:../system/src/diag/trace-impl.c ****       while (togo > 0)
 250:../system/src/diag/trace-impl.c ****         {
 251:../system/src/diag/trace-impl.c ****           unsigned int n = ((togo < sizeof(tmp)) ? togo : sizeof(tmp));
 252:../system/src/diag/trace-impl.c ****           unsigned int i = 0;
 253:../system/src/diag/trace-impl.c ****           for (; i < n; ++i, ++buf)
 254:../system/src/diag/trace-impl.c ****             {
 255:../system/src/diag/trace-impl.c ****               tmp[i] = *buf;
 256:../system/src/diag/trace-impl.c ****             }
 257:../system/src/diag/trace-impl.c ****           tmp[i] = '\0';
 258:../system/src/diag/trace-impl.c **** 
 259:../system/src/diag/trace-impl.c ****           call_host (SEMIHOSTING_SYS_WRITE0, (void*) tmp);
 260:../system/src/diag/trace-impl.c **** 
 261:../system/src/diag/trace-impl.c ****           togo -= n;
 262:../system/src/diag/trace-impl.c ****         }
 263:../system/src/diag/trace-impl.c ****     }
 264:../system/src/diag/trace-impl.c **** 
 265:../system/src/diag/trace-impl.c ****   // All bytes written
 266:../system/src/diag/trace-impl.c ****   return (ssize_t) nbyte;
  75              		.loc 1 266 3 is_stmt 1 view .LVU11
 267:../system/src/diag/trace-impl.c **** }
  76              		.loc 1 267 1 is_stmt 0 view .LVU12
  77 0018 3846     		mov	r0, r7
  78 001a 05B0     		add	sp, sp, #20
  79              		.cfi_remember_state
  80              		.cfi_def_cfa_offset 28
  81              		@ sp needed
  82 001c BDE8F083 		pop	{r4, r5, r6, r7, r8, r9, pc}
  83              	.LVL3:
  84              	.L5:
  85              		.cfi_restore_state
  86              	.LBB10:
  87              	.LBB11:
 255:../system/src/diag/trace-impl.c ****             }
  88              		.loc 1 255 15 is_stmt 1 discriminator 2 view .LVU13
 255:../system/src/diag/trace-impl.c ****             }
  89              		.loc 1 255 24 is_stmt 0 discriminator 2 view .LVU14
  90 0020 14F901CB 		ldrsb	ip, [r4], #1
  91              	.LVL4:
 255:../system/src/diag/trace-impl.c ****             }
  92              		.loc 1 255 22 discriminator 2 view .LVU15
  93 0024 03F11002 		add	r2, r3, #16
  94 0028 6A44     		add	r2, sp, r2
  95 002a 02F810CC 		strb	ip, [r2, #-16]
 253:../system/src/diag/trace-impl.c ****             {
  96              		.loc 1 253 28 is_stmt 1 discriminator 2 view .LVU16
 253:../system/src/diag/trace-impl.c ****             {
  97              		.loc 1 253 25 is_stmt 0 discriminator 2 view .LVU17
  98 002e 0133     		adds	r3, r3, #1
  99              	.LVL5:
 100              	.L4:
 253:../system/src/diag/trace-impl.c ****             {
 101              		.loc 1 253 20 is_stmt 1 discriminator 1 view .LVU18
 102 0030 AB42     		cmp	r3, r5
 103 0032 F5D3     		bcc	.L5
 257:../system/src/diag/trace-impl.c **** 
 104              		.loc 1 257 11 view .LVU19
 257:../system/src/diag/trace-impl.c **** 
 105              		.loc 1 257 18 is_stmt 0 view .LVU20
 106 0034 1033     		adds	r3, r3, #16
 107              	.LVL6:
 257:../system/src/diag/trace-impl.c **** 
 108              		.loc 1 257 18 view .LVU21
 109 0036 6B44     		add	r3, sp, r3
 110              	.LVL7:
 257:../system/src/diag/trace-impl.c **** 
 111              		.loc 1 257 18 view .LVU22
 112 0038 0022     		movs	r2, #0
 113 003a 03F8102C 		strb	r2, [r3, #-16]
 259:../system/src/diag/trace-impl.c **** 
 114              		.loc 1 259 11 is_stmt 1 view .LVU23
 115              	.LVL8:
 116              	.LBB12:
 117              	.LBI12:
  99:../system/inc/arm/semihosting.h **** {
 118              		.loc 2 99 1 view .LVU24
 119              	.LBB13:
 101:../system/inc/arm/semihosting.h ****   asm volatile (
 120              		.loc 2 101 3 view .LVU25
 102:../system/inc/arm/semihosting.h **** 
 121              		.loc 2 102 3 view .LVU26
 122 003e 4FF00408 		mov	r8, #4
 123 0042 E946     		mov	r9, sp
 124              		.syntax unified
 125              	@ 102 "../system/inc/arm/semihosting.h" 1
 126 0044 4046     		 mov r0, r8  
 127 0046 4946     	 mov r1, r9  
 128 0048 ABBE     	 bkpt #171 
 129 004a 8046     	 mov r8, r0
 130              	@ 0 "" 2
 131              	.LVL9:
 132              		.loc 2 124 3 view .LVU27
 133              		.loc 2 124 3 is_stmt 0 view .LVU28
 134              		.thumb
 135              		.syntax unified
 136              	.LBE13:
 137              	.LBE12:
 261:../system/src/diag/trace-impl.c ****         }
 138              		.loc 1 261 11 is_stmt 1 view .LVU29
 261:../system/src/diag/trace-impl.c ****         }
 139              		.loc 1 261 16 is_stmt 0 view .LVU30
 140 004c 761B     		subs	r6, r6, r5
 141              	.LVL10:
 142              	.L2:
 261:../system/src/diag/trace-impl.c ****         }
 143              		.loc 1 261 16 view .LVU31
 144              	.LBE11:
 249:../system/src/diag/trace-impl.c ****         {
 145              		.loc 1 249 19 is_stmt 1 view .LVU32
 146 004e 002E     		cmp	r6, #0
 147 0050 E2D0     		beq	.L3
 148              	.LBB14:
 251:../system/src/diag/trace-impl.c ****           unsigned int i = 0;
 149              		.loc 1 251 11 view .LVU33
 251:../system/src/diag/trace-impl.c ****           unsigned int i = 0;
 150              		.loc 1 251 24 is_stmt 0 view .LVU34
 151 0052 3546     		mov	r5, r6
 152 0054 102E     		cmp	r6, #16
 153 0056 28BF     		it	cs
 154 0058 1025     		movcs	r5, #16
 155              	.LVL11:
 252:../system/src/diag/trace-impl.c ****           for (; i < n; ++i, ++buf)
 156              		.loc 1 252 11 is_stmt 1 view .LVU35
 253:../system/src/diag/trace-impl.c ****             {
 157              		.loc 1 253 11 view .LVU36
 252:../system/src/diag/trace-impl.c ****           for (; i < n; ++i, ++buf)
 158              		.loc 1 252 24 is_stmt 0 view .LVU37
 159 005a 0023     		movs	r3, #0
 253:../system/src/diag/trace-impl.c ****             {
 160              		.loc 1 253 11 view .LVU38
 161 005c E8E7     		b	.L4
 162              	.LVL12:
 163              	.L7:
 253:../system/src/diag/trace-impl.c ****             {
 164              		.loc 1 253 11 view .LVU39
 165              	.LBE14:
 248:../system/src/diag/trace-impl.c ****       while (togo > 0)
 166              		.loc 1 248 14 view .LVU40
 167 005e 0E46     		mov	r6, r1
 168 0060 F5E7     		b	.L2
 169              	.LBE10:
 170              		.cfi_endproc
 171              	.LFE60:
 173              		.section	.text.trace_initialize,"ax",%progbits
 174              		.align	1
 175              		.global	trace_initialize
 176              		.syntax unified
 177              		.thumb
 178              		.thumb_func
 180              	trace_initialize:
 181              	.LFB56:
  80:../system/src/diag/trace-impl.c ****   // For regular ITM / semihosting, no inits required.
 182              		.loc 1 80 1 is_stmt 1 view -0
 183              		.cfi_startproc
 184              		@ args = 0, pretend = 0, frame = 0
 185              		@ frame_needed = 0, uses_anonymous_args = 0
 186              		@ link register save eliminated.
  82:../system/src/diag/trace-impl.c **** 
 187              		.loc 1 82 1 view .LVU42
 188 0000 7047     		bx	lr
 189              		.cfi_endproc
 190              	.LFE56:
 192              		.section	.text.trace_write,"ax",%progbits
 193              		.align	1
 194              		.global	trace_write
 195              		.syntax unified
 196              		.thumb
 197              		.thumb_func
 199              	trace_write:
 200              	.LVL13:
 201              	.LFB57:
  92:../system/src/diag/trace-impl.c **** #if defined(OS_USE_TRACE_ITM)
 202              		.loc 1 92 1 view -0
 203              		.cfi_startproc
 204              		@ args = 0, pretend = 0, frame = 0
 205              		@ frame_needed = 0, uses_anonymous_args = 0
  92:../system/src/diag/trace-impl.c **** #if defined(OS_USE_TRACE_ITM)
 206              		.loc 1 92 1 is_stmt 0 view .LVU44
 207 0000 08B5     		push	{r3, lr}
 208              		.cfi_def_cfa_offset 8
 209              		.cfi_offset 3, -8
 210              		.cfi_offset 14, -4
  98:../system/src/diag/trace-impl.c **** #endif
 211              		.loc 1 98 3 is_stmt 1 view .LVU45
  98:../system/src/diag/trace-impl.c **** #endif
 212              		.loc 1 98 10 is_stmt 0 view .LVU46
 213 0002 FFF7FEFF 		bl	_trace_write_semihosting_debug
 214              	.LVL14:
 102:../system/src/diag/trace-impl.c **** 
 215              		.loc 1 102 1 view .LVU47
 216 0006 08BD     		pop	{r3, pc}
 217              		.cfi_endproc
 218              	.LFE57:
 220              		.text
 221              	.Letext0:
 222              		.file 3 "c:\\users\\dmitriy\\appdata\\roaming\\xpacks\\@xpack-dev-tools\\arm-none-eabi-gcc\\12.3.1
 223              		.file 4 "c:\\users\\dmitriy\\appdata\\roaming\\xpacks\\@xpack-dev-tools\\arm-none-eabi-gcc\\12.3.1
 224              		.file 5 "c:\\users\\dmitriy\\appdata\\roaming\\xpacks\\@xpack-dev-tools\\arm-none-eabi-gcc\\12.3.1