   1              		.cpu cortex-m3
   2              		.arch armv7-m
   3              		.fpu softvfp
   4              		.eabi_attribute 20, 1
   5              		.eabi_attribute 21, 1
   6              		.eabi_attribute 23, 3
   7              		.eabi_attribute 24, 1
   8              		.eabi_attribute 25, 1
   9              		.eabi_attribute 26, 1
  10              		.eabi_attribute 30, 1
  11              		.eabi_attribute 34, 1
  12              		.eabi_attribute 18, 4
  13              		.file	"gd32f10x_wwdgt.c"
  14              		.text
  15              	.Ltext0:
  16              		.cfi_sections	.debug_frame
  17              		.file 1 "../system/src/gd32f10x/gd32f10x_wwdgt.c"
  18              		.section	.text.wwdgt_deinit,"ax",%progbits
  19              		.align	1
  20              		.global	wwdgt_deinit
  21              		.syntax unified
  22              		.thumb
  23              		.thumb_func
  25              	wwdgt_deinit:
  26              	.LFB56:
   1:../system/src/gd32f10x/gd32f10x_wwdgt.c **** /*!
   2:../system/src/gd32f10x/gd32f10x_wwdgt.c ****     \file    gd32f10x_wwdgt.c
   3:../system/src/gd32f10x/gd32f10x_wwdgt.c ****     \brief   WWDGT driver
   4:../system/src/gd32f10x/gd32f10x_wwdgt.c **** 
   5:../system/src/gd32f10x/gd32f10x_wwdgt.c ****     \version 2014-12-26, V1.0.0, firmware for GD32F10x
   6:../system/src/gd32f10x/gd32f10x_wwdgt.c ****     \version 2017-06-20, V2.0.0, firmware for GD32F10x
   7:../system/src/gd32f10x/gd32f10x_wwdgt.c ****     \version 2018-07-31, V2.1.0, firmware for GD32F10x
   8:../system/src/gd32f10x/gd32f10x_wwdgt.c ****     \version 2020-09-30, V2.2.0, firmware for GD32F10x
   9:../system/src/gd32f10x/gd32f10x_wwdgt.c **** */
  10:../system/src/gd32f10x/gd32f10x_wwdgt.c **** 
  11:../system/src/gd32f10x/gd32f10x_wwdgt.c **** /*
  12:../system/src/gd32f10x/gd32f10x_wwdgt.c ****     Copyright (c) 2020, GigaDevice Semiconductor Inc.
  13:../system/src/gd32f10x/gd32f10x_wwdgt.c **** 
  14:../system/src/gd32f10x/gd32f10x_wwdgt.c ****     Redistribution and use in source and binary forms, with or without modification,
  15:../system/src/gd32f10x/gd32f10x_wwdgt.c **** are permitted provided that the following conditions are met:
  16:../system/src/gd32f10x/gd32f10x_wwdgt.c **** 
  17:../system/src/gd32f10x/gd32f10x_wwdgt.c ****     1. Redistributions of source code must retain the above copyright notice, this
  18:../system/src/gd32f10x/gd32f10x_wwdgt.c ****        list of conditions and the following disclaimer.
  19:../system/src/gd32f10x/gd32f10x_wwdgt.c ****     2. Redistributions in binary form must reproduce the above copyright notice,
  20:../system/src/gd32f10x/gd32f10x_wwdgt.c ****        this list of conditions and the following disclaimer in the documentation
  21:../system/src/gd32f10x/gd32f10x_wwdgt.c ****        and/or other materials provided with the distribution.
  22:../system/src/gd32f10x/gd32f10x_wwdgt.c ****     3. Neither the name of the copyright holder nor the names of its contributors
  23:../system/src/gd32f10x/gd32f10x_wwdgt.c ****        may be used to endorse or promote products derived from this software without
  24:../system/src/gd32f10x/gd32f10x_wwdgt.c ****        specific prior written permission.
  25:../system/src/gd32f10x/gd32f10x_wwdgt.c **** 
  26:../system/src/gd32f10x/gd32f10x_wwdgt.c ****     THIS SOFTWARE IS PROVIDED BY THE COPYRIGHT HOLDERS AND CONTRIBUTORS "AS IS"
  27:../system/src/gd32f10x/gd32f10x_wwdgt.c **** AND ANY EXPRESS OR IMPLIED WARRANTIES, INCLUDING, BUT NOT LIMITED TO, THE IMPLIED
  28:../system/src/gd32f10x/gd32f10x_wwdgt.c **** WARRANTIES OF MERCHANTABILITY AND FITNESS FOR A PARTICULAR PURPOSE ARE DISCLAIMED.
  29:../system/src/gd32f10x/gd32f10x_wwdgt.c **** IN NO EVENT SHALL THE COPYRIGHT HOLDER OR CONTRIBUTORS BE LIABLE FOR ANY DIRECT,
  30:../system/src/gd32f10x/gd32f10x_wwdgt.c **** INDIRECT, INCIDENTAL, SPECIAL, EXEMPLARY, OR CONSEQUENTIAL DAMAGES (INCLUDING, BUT
  31:../system/src/gd32f10x/gd32f10x_wwdgt.c **** NOT LIMITED TO, PROCUREMENT OF SUBSTITUTE GOODS OR SERVICES; LOSS OF USE, DATA, OR
  32:../system/src/gd32f10x/gd32f10x_wwdgt.c **** PROFITS; OR BUSINESS INTERRUPTION) HOWEVER CAUSED AND ON ANY THEORY OF LIABILITY,
  33:../system/src/gd32f10x/gd32f10x_wwdgt.c **** WHETHER IN CONTRACT, STRICT LIABILITY, OR TORT (INCLUDING NEGLIGENCE OR OTHERWISE)
  34:../system/src/gd32f10x/gd32f10x_wwdgt.c **** ARISING IN ANY WAY OUT OF THE USE OF THIS SOFTWARE, EVEN IF ADVISED OF THE POSSIBILITY
  35:../system/src/gd32f10x/gd32f10x_wwdgt.c **** OF SUCH DAMAGE.
  36:../system/src/gd32f10x/gd32f10x_wwdgt.c **** */
  37:../system/src/gd32f10x/gd32f10x_wwdgt.c **** 
  38:../system/src/gd32f10x/gd32f10x_wwdgt.c **** #include "gd32f10x_wwdgt.h"
  39:../system/src/gd32f10x/gd32f10x_wwdgt.c **** 
  40:../system/src/gd32f10x/gd32f10x_wwdgt.c **** /*!
  41:../system/src/gd32f10x/gd32f10x_wwdgt.c ****     \brief      reset the window watchdog timer configuration
  42:../system/src/gd32f10x/gd32f10x_wwdgt.c ****     \param[in]  none
  43:../system/src/gd32f10x/gd32f10x_wwdgt.c ****     \param[out] none
  44:../system/src/gd32f10x/gd32f10x_wwdgt.c ****     \retval     none
  45:../system/src/gd32f10x/gd32f10x_wwdgt.c **** */
  46:../system/src/gd32f10x/gd32f10x_wwdgt.c **** void wwdgt_deinit(void)
  47:../system/src/gd32f10x/gd32f10x_wwdgt.c **** {
  27              		.loc 1 47 1 view -0
  28              		.cfi_startproc
  29              		@ args = 0, pretend = 0, frame = 0
  30              		@ frame_needed = 0, uses_anonymous_args = 0
  31 0000 08B5     		push	{r3, lr}
  32              		.cfi_def_cfa_offset 8
  33              		.cfi_offset 3, -8
  34              		.cfi_offset 14, -4
  48:../system/src/gd32f10x/gd32f10x_wwdgt.c ****     rcu_periph_reset_enable(RCU_WWDGTRST);
  35              		.loc 1 48 5 view .LVU1
  36 0002 40F20B40 		movw	r0, #1035
  37 0006 FFF7FEFF 		bl	rcu_periph_reset_enable
  38              	.LVL0:
  49:../system/src/gd32f10x/gd32f10x_wwdgt.c ****     rcu_periph_reset_disable(RCU_WWDGTRST);
  39              		.loc 1 49 5 view .LVU2
  40 000a 40F20B40 		movw	r0, #1035
  41 000e FFF7FEFF 		bl	rcu_periph_reset_disable
  42              	.LVL1:
  50:../system/src/gd32f10x/gd32f10x_wwdgt.c **** }
  43              		.loc 1 50 1 is_stmt 0 view .LVU3
  44 0012 08BD     		pop	{r3, pc}
  45              		.cfi_endproc
  46              	.LFE56:
  48              		.section	.text.wwdgt_enable,"ax",%progbits
  49              		.align	1
  50              		.global	wwdgt_enable
  51              		.syntax unified
  52              		.thumb
  53              		.thumb_func
  55              	wwdgt_enable:
  56              	.LFB57:
  51:../system/src/gd32f10x/gd32f10x_wwdgt.c **** 
  52:../system/src/gd32f10x/gd32f10x_wwdgt.c **** /*!
  53:../system/src/gd32f10x/gd32f10x_wwdgt.c ****     \brief      start the window watchdog timer counter
  54:../system/src/gd32f10x/gd32f10x_wwdgt.c ****     \param[in]  none
  55:../system/src/gd32f10x/gd32f10x_wwdgt.c ****     \param[out] none
  56:../system/src/gd32f10x/gd32f10x_wwdgt.c ****     \retval     none
  57:../system/src/gd32f10x/gd32f10x_wwdgt.c **** */
  58:../system/src/gd32f10x/gd32f10x_wwdgt.c **** void wwdgt_enable(void)
  59:../system/src/gd32f10x/gd32f10x_wwdgt.c **** {
  57              		.loc 1 59 1 is_stmt 1 view -0
  58              		.cfi_startproc
  59              		@ args = 0, pretend = 0, frame = 0
  60              		@ frame_needed = 0, uses_anonymous_args = 0
  61              		@ link register save eliminated.
  60:../system/src/gd32f10x/gd32f10x_wwdgt.c ****     WWDGT_CTL |= WWDGT_CTL_WDGTEN;
  62              		.loc 1 60 5 view .LVU5
  63 0000 034A     		ldr	r2, .L4
  64 0002 D2F8003C 		ldr	r3, [r2, #3072]
  65              		.loc 1 60 15 is_stmt 0 view .LVU6
  66 0006 43F08003 		orr	r3, r3, #128
  67 000a C2F8003C 		str	r3, [r2, #3072]
  61:../system/src/gd32f10x/gd32f10x_wwdgt.c **** }
  68              		.loc 1 61 1 view .LVU7
  69 000e 7047     		bx	lr
  70              	.L5:
  71              		.align	2
  72              	.L4:
  73 0010 00200040 		.word	1073750016
  74              		.cfi_endproc
  75              	.LFE57:
  77              		.section	.text.wwdgt_counter_update,"ax",%progbits
  78              		.align	1
  79              		.global	wwdgt_counter_update
  80              		.syntax unified
  81              		.thumb
  82              		.thumb_func
  84              	wwdgt_counter_update:
  85              	.LVL2:
  86              	.LFB58:
  62:../system/src/gd32f10x/gd32f10x_wwdgt.c **** 
  63:../system/src/gd32f10x/gd32f10x_wwdgt.c **** /*!
  64:../system/src/gd32f10x/gd32f10x_wwdgt.c ****     \brief      configure the window watchdog timer counter value
  65:../system/src/gd32f10x/gd32f10x_wwdgt.c ****     \param[in]  counter_value: 0x00 - 0x7F
  66:../system/src/gd32f10x/gd32f10x_wwdgt.c ****     \param[out] none
  67:../system/src/gd32f10x/gd32f10x_wwdgt.c ****     \retval     none
  68:../system/src/gd32f10x/gd32f10x_wwdgt.c **** */
  69:../system/src/gd32f10x/gd32f10x_wwdgt.c **** void wwdgt_counter_update(uint16_t counter_value)
  70:../system/src/gd32f10x/gd32f10x_wwdgt.c **** {
  87              		.loc 1 70 1 is_stmt 1 view -0
  88              		.cfi_startproc
  89              		@ args = 0, pretend = 0, frame = 0
  90              		@ frame_needed = 0, uses_anonymous_args = 0
  91              		@ link register save eliminated.
  71:../system/src/gd32f10x/gd32f10x_wwdgt.c ****     WWDGT_CTL = (uint32_t)(CTL_CNT(counter_value));
  92              		.loc 1 71 5 view .LVU9
  93              		.loc 1 71 17 is_stmt 0 view .LVU10
  94 0000 00F07F00 		and	r0, r0, #127
  95              	.LVL3:
  96              		.loc 1 71 15 view .LVU11
  97 0004 014B     		ldr	r3, .L7
  98 0006 C3F8000C 		str	r0, [r3, #3072]
  72:../system/src/gd32f10x/gd32f10x_wwdgt.c **** }
  99              		.loc 1 72 1 view .LVU12
 100 000a 7047     		bx	lr
 101              	.L8:
 102              		.align	2
 103              	.L7:
 104 000c 00200040 		.word	1073750016
 105              		.cfi_endproc
 106              	.LFE58:
 108              		.section	.text.wwdgt_config,"ax",%progbits
 109              		.align	1
 110              		.global	wwdgt_config
 111              		.syntax unified
 112              		.thumb
 113              		.thumb_func
 115              	wwdgt_config:
 116              	.LVL4:
 117              	.LFB59:
  73:../system/src/gd32f10x/gd32f10x_wwdgt.c **** 
  74:../system/src/gd32f10x/gd32f10x_wwdgt.c **** /*!
  75:../system/src/gd32f10x/gd32f10x_wwdgt.c ****     \brief      configure counter value, window value, and prescaler divider value
  76:../system/src/gd32f10x/gd32f10x_wwdgt.c ****     \param[in]  counter: 0x00 - 0x7F
  77:../system/src/gd32f10x/gd32f10x_wwdgt.c ****     \param[in]  window: 0x00 - 0x7F
  78:../system/src/gd32f10x/gd32f10x_wwdgt.c ****     \param[in]  prescaler: wwdgt prescaler value
  79:../system/src/gd32f10x/gd32f10x_wwdgt.c ****                 only one parameter can be selected which is shown as below:
  80:../system/src/gd32f10x/gd32f10x_wwdgt.c ****       \arg        WWDGT_CFG_PSC_DIV1: the time base of window watchdog counter = (PCLK1/4096)/1
  81:../system/src/gd32f10x/gd32f10x_wwdgt.c ****       \arg        WWDGT_CFG_PSC_DIV2: the time base of window watchdog counter = (PCLK1/4096)/2
  82:../system/src/gd32f10x/gd32f10x_wwdgt.c ****       \arg        WWDGT_CFG_PSC_DIV4: the time base of window watchdog counter = (PCLK1/4096)/4
  83:../system/src/gd32f10x/gd32f10x_wwdgt.c ****       \arg        WWDGT_CFG_PSC_DIV8: the time base of window watchdog counter = (PCLK1/4096)/8
  84:../system/src/gd32f10x/gd32f10x_wwdgt.c ****     \param[out] none
  85:../system/src/gd32f10x/gd32f10x_wwdgt.c ****     \retval     none
  86:../system/src/gd32f10x/gd32f10x_wwdgt.c **** */
  87:../system/src/gd32f10x/gd32f10x_wwdgt.c **** void wwdgt_config(uint16_t counter, uint16_t window, uint32_t prescaler)
  88:../system/src/gd32f10x/gd32f10x_wwdgt.c **** {
 118              		.loc 1 88 1 is_stmt 1 view -0
 119              		.cfi_startproc
 120              		@ args = 0, pretend = 0, frame = 0
 121              		@ frame_needed = 0, uses_anonymous_args = 0
 122              		@ link register save eliminated.
  89:../system/src/gd32f10x/gd32f10x_wwdgt.c ****     WWDGT_CTL = (uint32_t)(CTL_CNT(counter));
 123              		.loc 1 89 5 view .LVU14
 124              		.loc 1 89 17 is_stmt 0 view .LVU15
 125 0000 00F07F00 		and	r0, r0, #127
 126              	.LVL5:
 127              		.loc 1 89 15 view .LVU16
 128 0004 044B     		ldr	r3, .L10
 129 0006 C3F8000C 		str	r0, [r3, #3072]
  90:../system/src/gd32f10x/gd32f10x_wwdgt.c ****     WWDGT_CFG = (uint32_t)(CFG_WIN(window) | prescaler);
 130              		.loc 1 90 5 is_stmt 1 view .LVU17
 131              		.loc 1 90 28 is_stmt 0 view .LVU18
 132 000a 01F07F01 		and	r1, r1, #127
 133              	.LVL6:
 134              		.loc 1 90 17 view .LVU19
 135 000e 1143     		orrs	r1, r1, r2
 136              		.loc 1 90 15 view .LVU20
 137 0010 C3F8041C 		str	r1, [r3, #3076]
  91:../system/src/gd32f10x/gd32f10x_wwdgt.c **** }
 138              		.loc 1 91 1 view .LVU21
 139 0014 7047     		bx	lr
 140              	.L11:
 141 0016 00BF     		.align	2
 142              	.L10:
 143 0018 00200040 		.word	1073750016
 144              		.cfi_endproc
 145              	.LFE59:
 147              		.section	.text.wwdgt_flag_get,"ax",%progbits
 148              		.align	1
 149              		.global	wwdgt_flag_get
 150              		.syntax unified
 151              		.thumb
 152              		.thumb_func
 154              	wwdgt_flag_get:
 155              	.LFB60:
  92:../system/src/gd32f10x/gd32f10x_wwdgt.c **** 
  93:../system/src/gd32f10x/gd32f10x_wwdgt.c **** /*!
  94:../system/src/gd32f10x/gd32f10x_wwdgt.c ****     \brief      check early wakeup interrupt state of WWDGT
  95:../system/src/gd32f10x/gd32f10x_wwdgt.c ****     \param[in]  none
  96:../system/src/gd32f10x/gd32f10x_wwdgt.c ****     \param[out] none
  97:../system/src/gd32f10x/gd32f10x_wwdgt.c ****     \retval     FlagStatus: SET or RESET
  98:../system/src/gd32f10x/gd32f10x_wwdgt.c **** */
  99:../system/src/gd32f10x/gd32f10x_wwdgt.c **** FlagStatus wwdgt_flag_get(void)
 100:../system/src/gd32f10x/gd32f10x_wwdgt.c **** {
 156              		.loc 1 100 1 is_stmt 1 view -0
 157              		.cfi_startproc
 158              		@ args = 0, pretend = 0, frame = 0
 159              		@ frame_needed = 0, uses_anonymous_args = 0
 160              		@ link register save eliminated.
 101:../system/src/gd32f10x/gd32f10x_wwdgt.c ****     if(WWDGT_STAT & WWDGT_STAT_EWIF) {
 161              		.loc 1 101 5 view .LVU23
 162              		.loc 1 101 8 is_stmt 0 view .LVU24
 163 0000 044B     		ldr	r3, .L15
 164 0002 D3F8083C 		ldr	r3, [r3, #3080]
 165              		.loc 1 101 7 view .LVU25
 166 0006 13F0010F 		tst	r3, #1
 167 000a 01D1     		bne	.L14
 102:../system/src/gd32f10x/gd32f10x_wwdgt.c ****         return SET;
 103:../system/src/gd32f10x/gd32f10x_wwdgt.c ****     }
 104:../system/src/gd32f10x/gd32f10x_wwdgt.c **** 
 105:../system/src/gd32f10x/gd32f10x_wwdgt.c ****     return RESET;
 168              		.loc 1 105 12 view .LVU26
 169 000c 0020     		movs	r0, #0
 170 000e 7047     		bx	lr
 171              	.L14:
 102:../system/src/gd32f10x/gd32f10x_wwdgt.c ****         return SET;
 172              		.loc 1 102 16 view .LVU27
 173 0010 0120     		movs	r0, #1
 106:../system/src/gd32f10x/gd32f10x_wwdgt.c **** }
 174              		.loc 1 106 1 view .LVU28
 175 0012 7047     		bx	lr
 176              	.L16:
 177              		.align	2
 178              	.L15:
 179 0014 00200040 		.word	1073750016
 180              		.cfi_endproc
 181              	.LFE60:
 183              		.section	.text.wwdgt_flag_clear,"ax",%progbits
 184              		.align	1
 185              		.global	wwdgt_flag_clear
 186              		.syntax unified
 187              		.thumb
 188              		.thumb_func
 190              	wwdgt_flag_clear:
 191              	.LFB61:
 107:../system/src/gd32f10x/gd32f10x_wwdgt.c **** 
 108:../system/src/gd32f10x/gd32f10x_wwdgt.c **** /*!
 109:../system/src/gd32f10x/gd32f10x_wwdgt.c ****     \brief      clear early wakeup interrupt state of WWDGT
 110:../system/src/gd32f10x/gd32f10x_wwdgt.c ****     \param[in]  none
 111:../system/src/gd32f10x/gd32f10x_wwdgt.c ****     \param[out] none
 112:../system/src/gd32f10x/gd32f10x_wwdgt.c ****     \retval     none
 113:../system/src/gd32f10x/gd32f10x_wwdgt.c **** */
 114:../system/src/gd32f10x/gd32f10x_wwdgt.c **** void wwdgt_flag_clear(void)
 115:../system/src/gd32f10x/gd32f10x_wwdgt.c **** {
 192              		.loc 1 115 1 is_stmt 1 view -0
 193              		.cfi_startproc
 194              		@ args = 0, pretend = 0, frame = 0
 195              		@ frame_needed = 0, uses_anonymous_args = 0
 196              		@ link register save eliminated.
 116:../system/src/gd32f10x/gd32f10x_wwdgt.c ****     WWDGT_STAT = (uint32_t)(RESET);
 197              		.loc 1 116 5 view .LVU30
 198              		.loc 1 116 16 is_stmt 0 view .LVU31
 199 0000 024B     		ldr	r3, .L18
 200 0002 0022     		movs	r2, #0
 201 0004 C3F8082C 		str	r2, [r3, #3080]
 117:../system/src/gd32f10x/gd32f10x_wwdgt.c **** }
 202              		.loc 1 117 1 view .LVU32
 203 0008 7047     		bx	lr
 204              	.L19:
 205 000a 00BF     		.align	2
 206              	.L18:
 207 000c 00200040 		.word	1073750016
 208              		.cfi_endproc
 209              	.LFE61:
 211              		.section	.text.wwdgt_interrupt_enable,"ax",%progbits
 212              		.align	1
 213              		.global	wwdgt_interrupt_enable
 214              		.syntax unified
 215              		.thumb
 216              		.thumb_func
 218              	wwdgt_interrupt_enable:
 219              	.LFB62:
 118:../system/src/gd32f10x/gd32f10x_wwdgt.c **** 
 119:../system/src/gd32f10x/gd32f10x_wwdgt.c **** /*!
 120:../system/src/gd32f10x/gd32f10x_wwdgt.c ****     \brief      enable early wakeup interrupt of WWDGT
 121:../system/src/gd32f10x/gd32f10x_wwdgt.c ****     \param[in]  none
 122:../system/src/gd32f10x/gd32f10x_wwdgt.c ****     \param[out] none
 123:../system/src/gd32f10x/gd32f10x_wwdgt.c ****     \retval     none
 124:../system/src/gd32f10x/gd32f10x_wwdgt.c **** */
 125:../system/src/gd32f10x/gd32f10x_wwdgt.c **** void wwdgt_interrupt_enable(void)
 126:../system/src/gd32f10x/gd32f10x_wwdgt.c **** {
 220              		.loc 1 126 1 is_stmt 1 view -0
 221              		.cfi_startproc
 222              		@ args = 0, pretend = 0, frame = 0
 223              		@ frame_needed = 0, uses_anonymous_args = 0
 224              		@ link register save eliminated.
 127:../system/src/gd32f10x/gd32f10x_wwdgt.c ****     WWDGT_CFG |= WWDGT_CFG_EWIE;
 225              		.loc 1 127 5 view .LVU34
 226 0000 034A     		ldr	r2, .L21
 227 0002 D2F8043C 		ldr	r3, [r2, #3076]
 228              		.loc 1 127 15 is_stmt 0 view .LVU35
 229 0006 43F40073 		orr	r3, r3, #512
 230 000a C2F8043C 		str	r3, [r2, #3076]
 128:../system/src/gd32f10x/gd32f10x_wwdgt.c **** }
 231              		.loc 1 128 1 view .LVU36
 232 000e 7047     		bx	lr
 233              	.L22:
 234              		.align	2
 235              	.L21:
 236 0010 00200040 		.word	1073750016
 237              		.cfi_endproc
 238              	.LFE62:
 240              		.text
 241              	.Letext0:
 242              		.file 2 "c:\\users\\dmitriy\\appdata\\roaming\\xpacks\\@xpack-dev-tools\\arm-none-eabi-gcc\\12.3.1
 243              		.file 3 "../system/inc/cmsis/gd32f10x.h"
 244              		.file 4 "../system/inc/gd32f10x/gd32f10x_rcu.h"