   1              		.cpu cortex-m3
   2              		.arch armv7-m
   3              		.fpu softvfp
   4              		.eabi_attribute 20, 1
   5              		.eabi_attribute 21, 1
   6              		.eabi_attribute 23, 3
   7              		.eabi_attribute 24, 1
   8              		.eabi_attribute 25, 1
   9              		.eabi_attribute 26, 1
  10              		.eabi_attribute 30, 1
  11              		.eabi_attribute 34, 1
  12              		.eabi_attribute 18, 4
  13              		.file	"gd32f10x_sdio.c"
  14              		.text
  15              	.Ltext0:
  16              		.cfi_sections	.debug_frame
  17              		.file 1 "../system/src/gd32f10x/gd32f10x_sdio.c"
  18              		.section	.text.sdio_deinit,"ax",%progbits
  19              		.align	1
  20              		.global	sdio_deinit
  21              		.syntax unified
  22              		.thumb
  23              		.thumb_func
  25              	sdio_deinit:
  26              	.LFB56:
   1:../system/src/gd32f10x/gd32f10x_sdio.c **** /*!
   2:../system/src/gd32f10x/gd32f10x_sdio.c ****     \file    gd32f10x_sdio.c
   3:../system/src/gd32f10x/gd32f10x_sdio.c ****     \brief   SDIO driver
   4:../system/src/gd32f10x/gd32f10x_sdio.c **** 
   5:../system/src/gd32f10x/gd32f10x_sdio.c ****     \version 2014-12-26, V1.0.0, firmware for GD32F10x
   6:../system/src/gd32f10x/gd32f10x_sdio.c ****     \version 2017-06-20, V2.0.0, firmware for GD32F10x
   7:../system/src/gd32f10x/gd32f10x_sdio.c ****     \version 2018-07-31, V2.1.0, firmware for GD32F10x
   8:../system/src/gd32f10x/gd32f10x_sdio.c ****     \version 2020-09-30, V2.2.0, firmware for GD32F10x
   9:../system/src/gd32f10x/gd32f10x_sdio.c **** */
  10:../system/src/gd32f10x/gd32f10x_sdio.c **** 
  11:../system/src/gd32f10x/gd32f10x_sdio.c **** /*
  12:../system/src/gd32f10x/gd32f10x_sdio.c ****     Copyright (c) 2020, GigaDevice Semiconductor Inc.
  13:../system/src/gd32f10x/gd32f10x_sdio.c **** 
  14:../system/src/gd32f10x/gd32f10x_sdio.c ****     Redistribution and use in source and binary forms, with or without modification, 
  15:../system/src/gd32f10x/gd32f10x_sdio.c **** are permitted provided that the following conditions are met:
  16:../system/src/gd32f10x/gd32f10x_sdio.c **** 
  17:../system/src/gd32f10x/gd32f10x_sdio.c ****     1. Redistributions of source code must retain the above copyright notice, this 
  18:../system/src/gd32f10x/gd32f10x_sdio.c ****        list of conditions and the following disclaimer.
  19:../system/src/gd32f10x/gd32f10x_sdio.c ****     2. Redistributions in binary form must reproduce the above copyright notice, 
  20:../system/src/gd32f10x/gd32f10x_sdio.c ****        this list of conditions and the following disclaimer in the documentation 
  21:../system/src/gd32f10x/gd32f10x_sdio.c ****        and/or other materials provided with the distribution.
  22:../system/src/gd32f10x/gd32f10x_sdio.c ****     3. Neither the name of the copyright holder nor the names of its contributors 
  23:../system/src/gd32f10x/gd32f10x_sdio.c ****        may be used to endorse or promote products derived from this software without 
  24:../system/src/gd32f10x/gd32f10x_sdio.c ****        specific prior written permission.
  25:../system/src/gd32f10x/gd32f10x_sdio.c **** 
  26:../system/src/gd32f10x/gd32f10x_sdio.c ****     THIS SOFTWARE IS PROVIDED BY THE COPYRIGHT HOLDERS AND CONTRIBUTORS "AS IS" 
  27:../system/src/gd32f10x/gd32f10x_sdio.c **** AND ANY EXPRESS OR IMPLIED WARRANTIES, INCLUDING, BUT NOT LIMITED TO, THE IMPLIED 
  28:../system/src/gd32f10x/gd32f10x_sdio.c **** WARRANTIES OF MERCHANTABILITY AND FITNESS FOR A PARTICULAR PURPOSE ARE DISCLAIMED. 
  29:../system/src/gd32f10x/gd32f10x_sdio.c **** IN NO EVENT SHALL THE COPYRIGHT HOLDER OR CONTRIBUTORS BE LIABLE FOR ANY DIRECT, 
  30:../system/src/gd32f10x/gd32f10x_sdio.c **** INDIRECT, INCIDENTAL, SPECIAL, EXEMPLARY, OR CONSEQUENTIAL DAMAGES (INCLUDING, BUT 
  31:../system/src/gd32f10x/gd32f10x_sdio.c **** NOT LIMITED TO, PROCUREMENT OF SUBSTITUTE GOODS OR SERVICES; LOSS OF USE, DATA, OR 
  32:../system/src/gd32f10x/gd32f10x_sdio.c **** PROFITS; OR BUSINESS INTERRUPTION) HOWEVER CAUSED AND ON ANY THEORY OF LIABILITY, 
  33:../system/src/gd32f10x/gd32f10x_sdio.c **** WHETHER IN CONTRACT, STRICT LIABILITY, OR TORT (INCLUDING NEGLIGENCE OR OTHERWISE) 
  34:../system/src/gd32f10x/gd32f10x_sdio.c **** ARISING IN ANY WAY OUT OF THE USE OF THIS SOFTWARE, EVEN IF ADVISED OF THE POSSIBILITY 
  35:../system/src/gd32f10x/gd32f10x_sdio.c **** OF SUCH DAMAGE.
  36:../system/src/gd32f10x/gd32f10x_sdio.c **** */
  37:../system/src/gd32f10x/gd32f10x_sdio.c **** 
  38:../system/src/gd32f10x/gd32f10x_sdio.c **** #include "gd32f10x_sdio.h"
  39:../system/src/gd32f10x/gd32f10x_sdio.c **** 
  40:../system/src/gd32f10x/gd32f10x_sdio.c **** #define DEFAULT_RESET_VALUE 0x00000000U
  41:../system/src/gd32f10x/gd32f10x_sdio.c **** 
  42:../system/src/gd32f10x/gd32f10x_sdio.c **** /*!
  43:../system/src/gd32f10x/gd32f10x_sdio.c ****     \brief      deinitialize the SDIO
  44:../system/src/gd32f10x/gd32f10x_sdio.c ****     \param[in]  none
  45:../system/src/gd32f10x/gd32f10x_sdio.c ****     \param[out] none
  46:../system/src/gd32f10x/gd32f10x_sdio.c ****     \retval     none
  47:../system/src/gd32f10x/gd32f10x_sdio.c **** */
  48:../system/src/gd32f10x/gd32f10x_sdio.c **** void sdio_deinit(void)
  49:../system/src/gd32f10x/gd32f10x_sdio.c **** {
  27              		.loc 1 49 1 view -0
  28              		.cfi_startproc
  29              		@ args = 0, pretend = 0, frame = 0
  30              		@ frame_needed = 0, uses_anonymous_args = 0
  31              		@ link register save eliminated.
  50:../system/src/gd32f10x/gd32f10x_sdio.c ****     SDIO_PWRCTL  = DEFAULT_RESET_VALUE;
  32              		.loc 1 50 5 view .LVU1
  33              		.loc 1 50 18 is_stmt 0 view .LVU2
  34 0000 054B     		ldr	r3, .L2
  35 0002 0022     		movs	r2, #0
  36 0004 1A60     		str	r2, [r3]
  51:../system/src/gd32f10x/gd32f10x_sdio.c ****     SDIO_CLKCTL  = DEFAULT_RESET_VALUE;
  37              		.loc 1 51 5 is_stmt 1 view .LVU3
  38              		.loc 1 51 18 is_stmt 0 view .LVU4
  39 0006 5A60     		str	r2, [r3, #4]
  52:../system/src/gd32f10x/gd32f10x_sdio.c ****     SDIO_CMDAGMT = DEFAULT_RESET_VALUE;
  40              		.loc 1 52 5 is_stmt 1 view .LVU5
  41              		.loc 1 52 18 is_stmt 0 view .LVU6
  42 0008 9A60     		str	r2, [r3, #8]
  53:../system/src/gd32f10x/gd32f10x_sdio.c ****     SDIO_CMDCTL  = DEFAULT_RESET_VALUE;
  43              		.loc 1 53 5 is_stmt 1 view .LVU7
  44              		.loc 1 53 18 is_stmt 0 view .LVU8
  45 000a DA60     		str	r2, [r3, #12]
  54:../system/src/gd32f10x/gd32f10x_sdio.c ****     SDIO_DATATO  = DEFAULT_RESET_VALUE;
  46              		.loc 1 54 5 is_stmt 1 view .LVU9
  47              		.loc 1 54 18 is_stmt 0 view .LVU10
  48 000c 5A62     		str	r2, [r3, #36]
  55:../system/src/gd32f10x/gd32f10x_sdio.c ****     SDIO_DATALEN = DEFAULT_RESET_VALUE;
  49              		.loc 1 55 5 is_stmt 1 view .LVU11
  50              		.loc 1 55 18 is_stmt 0 view .LVU12
  51 000e 9A62     		str	r2, [r3, #40]
  56:../system/src/gd32f10x/gd32f10x_sdio.c ****     SDIO_DATACTL = DEFAULT_RESET_VALUE;
  52              		.loc 1 56 5 is_stmt 1 view .LVU13
  53              		.loc 1 56 18 is_stmt 0 view .LVU14
  54 0010 DA62     		str	r2, [r3, #44]
  57:../system/src/gd32f10x/gd32f10x_sdio.c ****     SDIO_INTC    = DEFAULT_RESET_VALUE;
  55              		.loc 1 57 5 is_stmt 1 view .LVU15
  56              		.loc 1 57 18 is_stmt 0 view .LVU16
  57 0012 9A63     		str	r2, [r3, #56]
  58:../system/src/gd32f10x/gd32f10x_sdio.c ****     SDIO_INTEN   = DEFAULT_RESET_VALUE;
  58              		.loc 1 58 5 is_stmt 1 view .LVU17
  59              		.loc 1 58 18 is_stmt 0 view .LVU18
  60 0014 DA63     		str	r2, [r3, #60]
  59:../system/src/gd32f10x/gd32f10x_sdio.c **** }
  61              		.loc 1 59 1 view .LVU19
  62 0016 7047     		bx	lr
  63              	.L3:
  64              		.align	2
  65              	.L2:
  66 0018 00800140 		.word	1073840128
  67              		.cfi_endproc
  68              	.LFE56:
  70              		.section	.text.sdio_clock_config,"ax",%progbits
  71              		.align	1
  72              		.global	sdio_clock_config
  73              		.syntax unified
  74              		.thumb
  75              		.thumb_func
  77              	sdio_clock_config:
  78              	.LVL0:
  79              	.LFB57:
  60:../system/src/gd32f10x/gd32f10x_sdio.c **** 
  61:../system/src/gd32f10x/gd32f10x_sdio.c **** /*!
  62:../system/src/gd32f10x/gd32f10x_sdio.c ****     \brief      configure the SDIO clock
  63:../system/src/gd32f10x/gd32f10x_sdio.c ****     \param[in]  clock_edge: SDIO_CLK clock edge
  64:../system/src/gd32f10x/gd32f10x_sdio.c ****                 only one parameter can be selected which is shown as below:
  65:../system/src/gd32f10x/gd32f10x_sdio.c ****       \arg        SDIO_SDIOCLKEDGE_RISING: select the rising edge of the SDIOCLK to generate SDIO_C
  66:../system/src/gd32f10x/gd32f10x_sdio.c ****       \arg        SDIO_SDIOCLKEDGE_FALLING: select the falling edge of the SDIOCLK to generate SDIO
  67:../system/src/gd32f10x/gd32f10x_sdio.c ****     \param[in]  clock_bypass: clock bypass
  68:../system/src/gd32f10x/gd32f10x_sdio.c ****                 only one parameter can be selected which is shown as below:
  69:../system/src/gd32f10x/gd32f10x_sdio.c ****       \arg        SDIO_CLOCKBYPASS_ENABLE: clock bypass
  70:../system/src/gd32f10x/gd32f10x_sdio.c ****       \arg        SDIO_CLOCKBYPASS_DISABLE: no bypass
  71:../system/src/gd32f10x/gd32f10x_sdio.c ****     \param[in]  clock_powersave: SDIO_CLK clock dynamic switch on/off for power saving
  72:../system/src/gd32f10x/gd32f10x_sdio.c ****                 only one parameter can be selected which is shown as below:
  73:../system/src/gd32f10x/gd32f10x_sdio.c ****       \arg        SDIO_CLOCKPWRSAVE_ENABLE: SDIO_CLK closed when bus is idle
  74:../system/src/gd32f10x/gd32f10x_sdio.c ****       \arg        SDIO_CLOCKPWRSAVE_DISABLE: SDIO_CLK clock is always on
  75:../system/src/gd32f10x/gd32f10x_sdio.c ****     \param[in]  clock_division: clock division, less than 256
  76:../system/src/gd32f10x/gd32f10x_sdio.c ****     \param[out] none
  77:../system/src/gd32f10x/gd32f10x_sdio.c ****     \retval     none
  78:../system/src/gd32f10x/gd32f10x_sdio.c **** */
  79:../system/src/gd32f10x/gd32f10x_sdio.c **** void sdio_clock_config(uint32_t clock_edge, uint32_t clock_bypass, uint32_t clock_powersave, uint16
  80:../system/src/gd32f10x/gd32f10x_sdio.c **** {
  80              		.loc 1 80 1 is_stmt 1 view -0
  81              		.cfi_startproc
  82              		@ args = 0, pretend = 0, frame = 0
  83              		@ frame_needed = 0, uses_anonymous_args = 0
  84              		@ link register save eliminated.
  85              		.loc 1 80 1 is_stmt 0 view .LVU21
  86 0000 30B4     		push	{r4, r5}
  87              		.cfi_def_cfa_offset 8
  88              		.cfi_offset 4, -8
  89              		.cfi_offset 5, -4
  81:../system/src/gd32f10x/gd32f10x_sdio.c ****     uint32_t clock_config = 0U;
  90              		.loc 1 81 5 is_stmt 1 view .LVU22
  91              	.LVL1:
  82:../system/src/gd32f10x/gd32f10x_sdio.c ****     clock_config = SDIO_CLKCTL;
  92              		.loc 1 82 5 view .LVU23
  93              		.loc 1 82 18 is_stmt 0 view .LVU24
  94 0002 074D     		ldr	r5, .L6
  95 0004 6C68     		ldr	r4, [r5, #4]
  96              	.LVL2:
  83:../system/src/gd32f10x/gd32f10x_sdio.c ****     /* reset the CLKEDGE, CLKBYP, CLKPWRSAV, DIV */
  84:../system/src/gd32f10x/gd32f10x_sdio.c ****     clock_config &= ~(SDIO_CLKCTL_CLKEDGE | SDIO_CLKCTL_CLKBYP | SDIO_CLKCTL_CLKPWRSAV | SDIO_CLKCT
  97              		.loc 1 84 5 is_stmt 1 view .LVU25
  98              		.loc 1 84 18 is_stmt 0 view .LVU26
  99 0006 24F41B5C 		bic	ip, r4, #9920
 100 000a 2CF03F0C 		bic	ip, ip, #63
 101              	.LVL3:
  85:../system/src/gd32f10x/gd32f10x_sdio.c **** 
  86:../system/src/gd32f10x/gd32f10x_sdio.c ****     /* configure the SDIO_CLKCTL according to the parameters */
  87:../system/src/gd32f10x/gd32f10x_sdio.c ****     clock_config |= (clock_edge | clock_bypass | clock_powersave | clock_division);
 102              		.loc 1 87 5 is_stmt 1 view .LVU27
 103              		.loc 1 87 33 is_stmt 0 view .LVU28
 104 000e 0843     		orrs	r0, r0, r1
 105              	.LVL4:
 106              		.loc 1 87 48 view .LVU29
 107 0010 1043     		orrs	r0, r0, r2
 108              		.loc 1 87 66 view .LVU30
 109 0012 0343     		orrs	r3, r3, r0
 110              	.LVL5:
 111              		.loc 1 87 18 view .LVU31
 112 0014 43EA0C03 		orr	r3, r3, ip
 113              	.LVL6:
  88:../system/src/gd32f10x/gd32f10x_sdio.c ****     SDIO_CLKCTL = clock_config;
 114              		.loc 1 88 5 is_stmt 1 view .LVU32
 115              		.loc 1 88 17 is_stmt 0 view .LVU33
 116 0018 6B60     		str	r3, [r5, #4]
  89:../system/src/gd32f10x/gd32f10x_sdio.c **** }
 117              		.loc 1 89 1 view .LVU34
 118 001a 30BC     		pop	{r4, r5}
 119              		.cfi_restore 5
 120              		.cfi_restore 4
 121              		.cfi_def_cfa_offset 0
 122 001c 7047     		bx	lr
 123              	.L7:
 124 001e 00BF     		.align	2
 125              	.L6:
 126 0020 00800140 		.word	1073840128
 127              		.cfi_endproc
 128              	.LFE57:
 130              		.section	.text.sdio_hardware_clock_enable,"ax",%progbits
 131              		.align	1
 132              		.global	sdio_hardware_clock_enable
 133              		.syntax unified
 134              		.thumb
 135              		.thumb_func
 137              	sdio_hardware_clock_enable:
 138              	.LFB58:
  90:../system/src/gd32f10x/gd32f10x_sdio.c **** 
  91:../system/src/gd32f10x/gd32f10x_sdio.c **** /*!
  92:../system/src/gd32f10x/gd32f10x_sdio.c ****     \brief      enable hardware clock control
  93:../system/src/gd32f10x/gd32f10x_sdio.c ****     \param[in]  none
  94:../system/src/gd32f10x/gd32f10x_sdio.c ****     \param[out] none
  95:../system/src/gd32f10x/gd32f10x_sdio.c ****     \retval     none
  96:../system/src/gd32f10x/gd32f10x_sdio.c **** */
  97:../system/src/gd32f10x/gd32f10x_sdio.c **** void sdio_hardware_clock_enable(void)
  98:../system/src/gd32f10x/gd32f10x_sdio.c **** {
 139              		.loc 1 98 1 is_stmt 1 view -0
 140              		.cfi_startproc
 141              		@ args = 0, pretend = 0, frame = 0
 142              		@ frame_needed = 0, uses_anonymous_args = 0
 143              		@ link register save eliminated.
  99:../system/src/gd32f10x/gd32f10x_sdio.c ****     SDIO_CLKCTL |= SDIO_CLKCTL_HWCLKEN;
 144              		.loc 1 99 5 view .LVU36
 145 0000 024A     		ldr	r2, .L9
 146 0002 5368     		ldr	r3, [r2, #4]
 147              		.loc 1 99 17 is_stmt 0 view .LVU37
 148 0004 43F48043 		orr	r3, r3, #16384
 149 0008 5360     		str	r3, [r2, #4]
 100:../system/src/gd32f10x/gd32f10x_sdio.c **** }
 150              		.loc 1 100 1 view .LVU38
 151 000a 7047     		bx	lr
 152              	.L10:
 153              		.align	2
 154              	.L9:
 155 000c 00800140 		.word	1073840128
 156              		.cfi_endproc
 157              	.LFE58:
 159              		.section	.text.sdio_hardware_clock_disable,"ax",%progbits
 160              		.align	1
 161              		.global	sdio_hardware_clock_disable
 162              		.syntax unified
 163              		.thumb
 164              		.thumb_func
 166              	sdio_hardware_clock_disable:
 167              	.LFB59:
 101:../system/src/gd32f10x/gd32f10x_sdio.c **** 
 102:../system/src/gd32f10x/gd32f10x_sdio.c **** /*!
 103:../system/src/gd32f10x/gd32f10x_sdio.c ****     \brief      disable hardware clock control
 104:../system/src/gd32f10x/gd32f10x_sdio.c ****     \param[in]  none
 105:../system/src/gd32f10x/gd32f10x_sdio.c ****     \param[out] none
 106:../system/src/gd32f10x/gd32f10x_sdio.c ****     \retval     none
 107:../system/src/gd32f10x/gd32f10x_sdio.c **** */
 108:../system/src/gd32f10x/gd32f10x_sdio.c **** void sdio_hardware_clock_disable(void)
 109:../system/src/gd32f10x/gd32f10x_sdio.c **** {
 168              		.loc 1 109 1 is_stmt 1 view -0
 169              		.cfi_startproc
 170              		@ args = 0, pretend = 0, frame = 0
 171              		@ frame_needed = 0, uses_anonymous_args = 0
 172              		@ link register save eliminated.
 110:../system/src/gd32f10x/gd32f10x_sdio.c ****     SDIO_CLKCTL &= ~SDIO_CLKCTL_HWCLKEN;
 173              		.loc 1 110 5 view .LVU40
 174 0000 024A     		ldr	r2, .L12
 175 0002 5368     		ldr	r3, [r2, #4]
 176              		.loc 1 110 17 is_stmt 0 view .LVU41
 177 0004 23F48043 		bic	r3, r3, #16384
 178 0008 5360     		str	r3, [r2, #4]
 111:../system/src/gd32f10x/gd32f10x_sdio.c **** }
 179              		.loc 1 111 1 view .LVU42
 180 000a 7047     		bx	lr
 181              	.L13:
 182              		.align	2
 183              	.L12:
 184 000c 00800140 		.word	1073840128
 185              		.cfi_endproc
 186              	.LFE59:
 188              		.section	.text.sdio_bus_mode_set,"ax",%progbits
 189              		.align	1
 190              		.global	sdio_bus_mode_set
 191              		.syntax unified
 192              		.thumb
 193              		.thumb_func
 195              	sdio_bus_mode_set:
 196              	.LVL7:
 197              	.LFB60:
 112:../system/src/gd32f10x/gd32f10x_sdio.c **** 
 113:../system/src/gd32f10x/gd32f10x_sdio.c **** /*!
 114:../system/src/gd32f10x/gd32f10x_sdio.c ****     \brief      set different SDIO card bus mode
 115:../system/src/gd32f10x/gd32f10x_sdio.c ****     \param[in]  bus_mode: SDIO card bus mode
 116:../system/src/gd32f10x/gd32f10x_sdio.c ****                 only one parameter can be selected which is shown as below:
 117:../system/src/gd32f10x/gd32f10x_sdio.c ****       \arg        SDIO_BUSMODE_1BIT: 1-bit SDIO card bus mode
 118:../system/src/gd32f10x/gd32f10x_sdio.c ****       \arg        SDIO_BUSMODE_4BIT: 4-bit SDIO card bus mode
 119:../system/src/gd32f10x/gd32f10x_sdio.c ****       \arg        SDIO_BUSMODE_8BIT: 8-bit SDIO card bus mode
 120:../system/src/gd32f10x/gd32f10x_sdio.c ****     \param[out] none
 121:../system/src/gd32f10x/gd32f10x_sdio.c ****     \retval     none
 122:../system/src/gd32f10x/gd32f10x_sdio.c **** */
 123:../system/src/gd32f10x/gd32f10x_sdio.c **** void sdio_bus_mode_set(uint32_t bus_mode)
 124:../system/src/gd32f10x/gd32f10x_sdio.c **** {
 198              		.loc 1 124 1 is_stmt 1 view -0
 199              		.cfi_startproc
 200              		@ args = 0, pretend = 0, frame = 0
 201              		@ frame_needed = 0, uses_anonymous_args = 0
 202              		@ link register save eliminated.
 125:../system/src/gd32f10x/gd32f10x_sdio.c ****     /* reset the SDIO card bus mode bits and set according to bus_mode */
 126:../system/src/gd32f10x/gd32f10x_sdio.c ****     SDIO_CLKCTL &= ~SDIO_CLKCTL_BUSMODE;
 203              		.loc 1 126 5 view .LVU44
 204 0000 044B     		ldr	r3, .L15
 205 0002 5A68     		ldr	r2, [r3, #4]
 206              		.loc 1 126 17 is_stmt 0 view .LVU45
 207 0004 22F4C052 		bic	r2, r2, #6144
 208 0008 5A60     		str	r2, [r3, #4]
 127:../system/src/gd32f10x/gd32f10x_sdio.c ****     SDIO_CLKCTL |= bus_mode;
 209              		.loc 1 127 5 is_stmt 1 view .LVU46
 210 000a 5A68     		ldr	r2, [r3, #4]
 211              		.loc 1 127 17 is_stmt 0 view .LVU47
 212 000c 0243     		orrs	r2, r2, r0
 213 000e 5A60     		str	r2, [r3, #4]
 128:../system/src/gd32f10x/gd32f10x_sdio.c **** }
 214              		.loc 1 128 1 view .LVU48
 215 0010 7047     		bx	lr
 216              	.L16:
 217 0012 00BF     		.align	2
 218              	.L15:
 219 0014 00800140 		.word	1073840128
 220              		.cfi_endproc
 221              	.LFE60:
 223              		.section	.text.sdio_power_state_set,"ax",%progbits
 224              		.align	1
 225              		.global	sdio_power_state_set
 226              		.syntax unified
 227              		.thumb
 228              		.thumb_func
 230              	sdio_power_state_set:
 231              	.LVL8:
 232              	.LFB61:
 129:../system/src/gd32f10x/gd32f10x_sdio.c **** 
 130:../system/src/gd32f10x/gd32f10x_sdio.c **** /*!
 131:../system/src/gd32f10x/gd32f10x_sdio.c ****     \brief      set the SDIO power state
 132:../system/src/gd32f10x/gd32f10x_sdio.c ****     \param[in]  power_state: SDIO power state
 133:../system/src/gd32f10x/gd32f10x_sdio.c ****                 only one parameter can be selected which is shown as below:
 134:../system/src/gd32f10x/gd32f10x_sdio.c ****       \arg        SDIO_POWER_ON: SDIO power on
 135:../system/src/gd32f10x/gd32f10x_sdio.c ****       \arg        SDIO_POWER_OFF: SDIO power off
 136:../system/src/gd32f10x/gd32f10x_sdio.c ****     \param[out] none
 137:../system/src/gd32f10x/gd32f10x_sdio.c ****     \retval     none
 138:../system/src/gd32f10x/gd32f10x_sdio.c **** */
 139:../system/src/gd32f10x/gd32f10x_sdio.c **** void sdio_power_state_set(uint32_t power_state)
 140:../system/src/gd32f10x/gd32f10x_sdio.c **** {
 233              		.loc 1 140 1 is_stmt 1 view -0
 234              		.cfi_startproc
 235              		@ args = 0, pretend = 0, frame = 0
 236              		@ frame_needed = 0, uses_anonymous_args = 0
 237              		@ link register save eliminated.
 141:../system/src/gd32f10x/gd32f10x_sdio.c ****     SDIO_PWRCTL = power_state;
 238              		.loc 1 141 5 view .LVU50
 239              		.loc 1 141 17 is_stmt 0 view .LVU51
 240 0000 014B     		ldr	r3, .L18
 241 0002 1860     		str	r0, [r3]
 142:../system/src/gd32f10x/gd32f10x_sdio.c **** }
 242              		.loc 1 142 1 view .LVU52
 243 0004 7047     		bx	lr
 244              	.L19:
 245 0006 00BF     		.align	2
 246              	.L18:
 247 0008 00800140 		.word	1073840128
 248              		.cfi_endproc
 249              	.LFE61:
 251              		.section	.text.sdio_power_state_get,"ax",%progbits
 252              		.align	1
 253              		.global	sdio_power_state_get
 254              		.syntax unified
 255              		.thumb
 256              		.thumb_func
 258              	sdio_power_state_get:
 259              	.LFB62:
 143:../system/src/gd32f10x/gd32f10x_sdio.c **** 
 144:../system/src/gd32f10x/gd32f10x_sdio.c **** /*!
 145:../system/src/gd32f10x/gd32f10x_sdio.c ****     \brief      get the SDIO power state
 146:../system/src/gd32f10x/gd32f10x_sdio.c ****     \param[in]  none
 147:../system/src/gd32f10x/gd32f10x_sdio.c ****     \param[out] none
 148:../system/src/gd32f10x/gd32f10x_sdio.c ****     \retval     SDIO power state
 149:../system/src/gd32f10x/gd32f10x_sdio.c ****                 only one parameter can be selected which is shown as below:
 150:../system/src/gd32f10x/gd32f10x_sdio.c ****       \arg        SDIO_POWER_ON: SDIO power on
 151:../system/src/gd32f10x/gd32f10x_sdio.c ****       \arg        SDIO_POWER_OFF: SDIO power off
 152:../system/src/gd32f10x/gd32f10x_sdio.c **** */
 153:../system/src/gd32f10x/gd32f10x_sdio.c **** uint32_t sdio_power_state_get(void)
 154:../system/src/gd32f10x/gd32f10x_sdio.c **** {
 260              		.loc 1 154 1 is_stmt 1 view -0
 261              		.cfi_startproc
 262              		@ args = 0, pretend = 0, frame = 0
 263              		@ frame_needed = 0, uses_anonymous_args = 0
 264              		@ link register save eliminated.
 155:../system/src/gd32f10x/gd32f10x_sdio.c ****     return SDIO_PWRCTL;
 265              		.loc 1 155 5 view .LVU54
 266              		.loc 1 155 12 is_stmt 0 view .LVU55
 267 0000 014B     		ldr	r3, .L21
 268 0002 1868     		ldr	r0, [r3]
 156:../system/src/gd32f10x/gd32f10x_sdio.c **** }
 269              		.loc 1 156 1 view .LVU56
 270 0004 7047     		bx	lr
 271              	.L22:
 272 0006 00BF     		.align	2
 273              	.L21:
 274 0008 00800140 		.word	1073840128
 275              		.cfi_endproc
 276              	.LFE62:
 278              		.section	.text.sdio_clock_enable,"ax",%progbits
 279              		.align	1
 280              		.global	sdio_clock_enable
 281              		.syntax unified
 282              		.thumb
 283              		.thumb_func
 285              	sdio_clock_enable:
 286              	.LFB63:
 157:../system/src/gd32f10x/gd32f10x_sdio.c **** 
 158:../system/src/gd32f10x/gd32f10x_sdio.c **** /*!
 159:../system/src/gd32f10x/gd32f10x_sdio.c ****     \brief      enable SDIO_CLK clock output
 160:../system/src/gd32f10x/gd32f10x_sdio.c ****     \param[in]  none
 161:../system/src/gd32f10x/gd32f10x_sdio.c ****     \param[out] none
 162:../system/src/gd32f10x/gd32f10x_sdio.c ****     \retval     none
 163:../system/src/gd32f10x/gd32f10x_sdio.c **** */
 164:../system/src/gd32f10x/gd32f10x_sdio.c **** void sdio_clock_enable(void)
 165:../system/src/gd32f10x/gd32f10x_sdio.c **** {
 287              		.loc 1 165 1 is_stmt 1 view -0
 288              		.cfi_startproc
 289              		@ args = 0, pretend = 0, frame = 0
 290              		@ frame_needed = 0, uses_anonymous_args = 0
 291              		@ link register save eliminated.
 166:../system/src/gd32f10x/gd32f10x_sdio.c ****     SDIO_CLKCTL |= SDIO_CLKCTL_CLKEN;
 292              		.loc 1 166 5 view .LVU58
 293 0000 024A     		ldr	r2, .L24
 294 0002 5368     		ldr	r3, [r2, #4]
 295              		.loc 1 166 17 is_stmt 0 view .LVU59
 296 0004 43F48073 		orr	r3, r3, #256
 297 0008 5360     		str	r3, [r2, #4]
 167:../system/src/gd32f10x/gd32f10x_sdio.c **** }
 298              		.loc 1 167 1 view .LVU60
 299 000a 7047     		bx	lr
 300              	.L25:
 301              		.align	2
 302              	.L24:
 303 000c 00800140 		.word	1073840128
 304              		.cfi_endproc
 305              	.LFE63:
 307              		.section	.text.sdio_clock_disable,"ax",%progbits
 308              		.align	1
 309              		.global	sdio_clock_disable
 310              		.syntax unified
 311              		.thumb
 312              		.thumb_func
 314              	sdio_clock_disable:
 315              	.LFB64:
 168:../system/src/gd32f10x/gd32f10x_sdio.c **** 
 169:../system/src/gd32f10x/gd32f10x_sdio.c **** /*!
 170:../system/src/gd32f10x/gd32f10x_sdio.c ****     \brief      disable SDIO_CLK clock output
 171:../system/src/gd32f10x/gd32f10x_sdio.c ****     \param[in]  none
 172:../system/src/gd32f10x/gd32f10x_sdio.c ****     \param[out] none
 173:../system/src/gd32f10x/gd32f10x_sdio.c ****     \retval     none
 174:../system/src/gd32f10x/gd32f10x_sdio.c **** */
 175:../system/src/gd32f10x/gd32f10x_sdio.c **** void sdio_clock_disable(void)
 176:../system/src/gd32f10x/gd32f10x_sdio.c **** {
 316              		.loc 1 176 1 is_stmt 1 view -0
 317              		.cfi_startproc
 318              		@ args = 0, pretend = 0, frame = 0
 319              		@ frame_needed = 0, uses_anonymous_args = 0
 320              		@ link register save eliminated.
 177:../system/src/gd32f10x/gd32f10x_sdio.c ****     SDIO_CLKCTL &= ~SDIO_CLKCTL_CLKEN;
 321              		.loc 1 177 5 view .LVU62
 322 0000 024A     		ldr	r2, .L27
 323 0002 5368     		ldr	r3, [r2, #4]
 324              		.loc 1 177 17 is_stmt 0 view .LVU63
 325 0004 23F48073 		bic	r3, r3, #256
 326 0008 5360     		str	r3, [r2, #4]
 178:../system/src/gd32f10x/gd32f10x_sdio.c **** }
 327              		.loc 1 178 1 view .LVU64
 328 000a 7047     		bx	lr
 329              	.L28:
 330              		.align	2
 331              	.L27:
 332 000c 00800140 		.word	1073840128
 333              		.cfi_endproc
 334              	.LFE64:
 336              		.section	.text.sdio_command_response_config,"ax",%progbits
 337              		.align	1
 338              		.global	sdio_command_response_config
 339              		.syntax unified
 340              		.thumb
 341              		.thumb_func
 343              	sdio_command_response_config:
 344              	.LVL9:
 345              	.LFB65:
 179:../system/src/gd32f10x/gd32f10x_sdio.c **** 
 180:../system/src/gd32f10x/gd32f10x_sdio.c **** /*!
 181:../system/src/gd32f10x/gd32f10x_sdio.c ****     \brief      configure the command and response
 182:../system/src/gd32f10x/gd32f10x_sdio.c ****     \param[in]  cmd_index: command index, refer to the related specifications
 183:../system/src/gd32f10x/gd32f10x_sdio.c ****     \param[in]  cmd_argument: command argument, refer to the related specifications
 184:../system/src/gd32f10x/gd32f10x_sdio.c ****     \param[in]  response_type: response type
 185:../system/src/gd32f10x/gd32f10x_sdio.c ****                 only one parameter can be selected which is shown as below:
 186:../system/src/gd32f10x/gd32f10x_sdio.c ****       \arg        SDIO_RESPONSETYPE_NO: no response
 187:../system/src/gd32f10x/gd32f10x_sdio.c ****       \arg        SDIO_RESPONSETYPE_SHORT: short response
 188:../system/src/gd32f10x/gd32f10x_sdio.c ****       \arg        SDIO_RESPONSETYPE_LONG: long response
 189:../system/src/gd32f10x/gd32f10x_sdio.c ****     \param[out] none
 190:../system/src/gd32f10x/gd32f10x_sdio.c ****     \retval     none
 191:../system/src/gd32f10x/gd32f10x_sdio.c **** */
 192:../system/src/gd32f10x/gd32f10x_sdio.c **** void sdio_command_response_config(uint32_t cmd_index, uint32_t cmd_argument, uint32_t response_type
 193:../system/src/gd32f10x/gd32f10x_sdio.c **** {
 346              		.loc 1 193 1 is_stmt 1 view -0
 347              		.cfi_startproc
 348              		@ args = 0, pretend = 0, frame = 0
 349              		@ frame_needed = 0, uses_anonymous_args = 0
 350              		@ link register save eliminated.
 351              		.loc 1 193 1 is_stmt 0 view .LVU66
 352 0000 10B4     		push	{r4}
 353              		.cfi_def_cfa_offset 4
 354              		.cfi_offset 4, -4
 194:../system/src/gd32f10x/gd32f10x_sdio.c ****     uint32_t cmd_config = 0U;
 355              		.loc 1 194 5 is_stmt 1 view .LVU67
 356              	.LVL10:
 195:../system/src/gd32f10x/gd32f10x_sdio.c ****     /* reset the command index, command argument and response type */
 196:../system/src/gd32f10x/gd32f10x_sdio.c ****     SDIO_CMDAGMT &= ~SDIO_CMDAGMT_CMDAGMT;
 357              		.loc 1 196 5 view .LVU68
 358 0002 064B     		ldr	r3, .L31
 359 0004 9C68     		ldr	r4, [r3, #8]
 360              		.loc 1 196 18 is_stmt 0 view .LVU69
 361 0006 0024     		movs	r4, #0
 362 0008 9C60     		str	r4, [r3, #8]
 197:../system/src/gd32f10x/gd32f10x_sdio.c ****     SDIO_CMDAGMT = cmd_argument;
 363              		.loc 1 197 5 is_stmt 1 view .LVU70
 364              		.loc 1 197 18 is_stmt 0 view .LVU71
 365 000a 9960     		str	r1, [r3, #8]
 198:../system/src/gd32f10x/gd32f10x_sdio.c ****     cmd_config = SDIO_CMDCTL;
 366              		.loc 1 198 5 is_stmt 1 view .LVU72
 367              		.loc 1 198 16 is_stmt 0 view .LVU73
 368 000c D968     		ldr	r1, [r3, #12]
 369              	.LVL11:
 199:../system/src/gd32f10x/gd32f10x_sdio.c ****     cmd_config &= ~(SDIO_CMDCTL_CMDIDX | SDIO_CMDCTL_CMDRESP);
 370              		.loc 1 199 5 is_stmt 1 view .LVU74
 371              		.loc 1 199 16 is_stmt 0 view .LVU75
 372 000e 21F0FF01 		bic	r1, r1, #255
 373              	.LVL12:
 200:../system/src/gd32f10x/gd32f10x_sdio.c ****     /* configure SDIO_CMDCTL and SDIO_CMDAGMT according to the parameters */
 201:../system/src/gd32f10x/gd32f10x_sdio.c ****     cmd_config |= (cmd_index | response_type);
 374              		.loc 1 201 5 is_stmt 1 view .LVU76
 375              		.loc 1 201 30 is_stmt 0 view .LVU77
 376 0012 1043     		orrs	r0, r0, r2
 377              	.LVL13:
 378              		.loc 1 201 16 view .LVU78
 379 0014 0843     		orrs	r0, r0, r1
 380              	.LVL14:
 202:../system/src/gd32f10x/gd32f10x_sdio.c ****     SDIO_CMDCTL = cmd_config;
 381              		.loc 1 202 5 is_stmt 1 view .LVU79
 382              		.loc 1 202 17 is_stmt 0 view .LVU80
 383 0016 D860     		str	r0, [r3, #12]
 384              	.LVL15:
 203:../system/src/gd32f10x/gd32f10x_sdio.c **** }
 385              		.loc 1 203 1 view .LVU81
 386 0018 10BC     		pop	{r4}
 387              		.cfi_restore 4
 388              		.cfi_def_cfa_offset 0
 389 001a 7047     		bx	lr
 390              	.L32:
 391              		.align	2
 392              	.L31:
 393 001c 00800140 		.word	1073840128
 394              		.cfi_endproc
 395              	.LFE65:
 397              		.section	.text.sdio_wait_type_set,"ax",%progbits
 398              		.align	1
 399              		.global	sdio_wait_type_set
 400              		.syntax unified
 401              		.thumb
 402              		.thumb_func
 404              	sdio_wait_type_set:
 405              	.LVL16:
 406              	.LFB66:
 204:../system/src/gd32f10x/gd32f10x_sdio.c **** 
 205:../system/src/gd32f10x/gd32f10x_sdio.c **** /*!
 206:../system/src/gd32f10x/gd32f10x_sdio.c ****     \brief      set the command state machine wait type
 207:../system/src/gd32f10x/gd32f10x_sdio.c ****     \param[in]  wait_type: wait type
 208:../system/src/gd32f10x/gd32f10x_sdio.c ****                 only one parameter can be selected which is shown as below:
 209:../system/src/gd32f10x/gd32f10x_sdio.c ****       \arg        SDIO_WAITTYPE_NO: not wait interrupt
 210:../system/src/gd32f10x/gd32f10x_sdio.c ****       \arg        SDIO_WAITTYPE_INTERRUPT: wait interrupt
 211:../system/src/gd32f10x/gd32f10x_sdio.c ****       \arg        SDIO_WAITTYPE_DATAEND: wait the end of data transfer
 212:../system/src/gd32f10x/gd32f10x_sdio.c ****     \param[out] none
 213:../system/src/gd32f10x/gd32f10x_sdio.c ****     \retval     none
 214:../system/src/gd32f10x/gd32f10x_sdio.c **** */
 215:../system/src/gd32f10x/gd32f10x_sdio.c **** void sdio_wait_type_set(uint32_t wait_type)
 216:../system/src/gd32f10x/gd32f10x_sdio.c **** {
 407              		.loc 1 216 1 is_stmt 1 view -0
 408              		.cfi_startproc
 409              		@ args = 0, pretend = 0, frame = 0
 410              		@ frame_needed = 0, uses_anonymous_args = 0
 411              		@ link register save eliminated.
 217:../system/src/gd32f10x/gd32f10x_sdio.c ****     /* reset INTWAIT and WAITDEND */
 218:../system/src/gd32f10x/gd32f10x_sdio.c ****     SDIO_CMDCTL &= ~(SDIO_CMDCTL_INTWAIT | SDIO_CMDCTL_WAITDEND);
 412              		.loc 1 218 5 view .LVU83
 413 0000 044B     		ldr	r3, .L34
 414 0002 DA68     		ldr	r2, [r3, #12]
 415              		.loc 1 218 17 is_stmt 0 view .LVU84
 416 0004 22F44072 		bic	r2, r2, #768
 417 0008 DA60     		str	r2, [r3, #12]
 219:../system/src/gd32f10x/gd32f10x_sdio.c ****     /* set the wait type according to wait_type */
 220:../system/src/gd32f10x/gd32f10x_sdio.c ****     SDIO_CMDCTL |= wait_type;
 418              		.loc 1 220 5 is_stmt 1 view .LVU85
 419 000a DA68     		ldr	r2, [r3, #12]
 420              		.loc 1 220 17 is_stmt 0 view .LVU86
 421 000c 0243     		orrs	r2, r2, r0
 422 000e DA60     		str	r2, [r3, #12]
 221:../system/src/gd32f10x/gd32f10x_sdio.c **** }
 423              		.loc 1 221 1 view .LVU87
 424 0010 7047     		bx	lr
 425              	.L35:
 426 0012 00BF     		.align	2
 427              	.L34:
 428 0014 00800140 		.word	1073840128
 429              		.cfi_endproc
 430              	.LFE66:
 432              		.section	.text.sdio_csm_enable,"ax",%progbits
 433              		.align	1
 434              		.global	sdio_csm_enable
 435              		.syntax unified
 436              		.thumb
 437              		.thumb_func
 439              	sdio_csm_enable:
 440              	.LFB67:
 222:../system/src/gd32f10x/gd32f10x_sdio.c **** 
 223:../system/src/gd32f10x/gd32f10x_sdio.c **** /*!
 224:../system/src/gd32f10x/gd32f10x_sdio.c ****     \brief      enable the CSM(command state machine)
 225:../system/src/gd32f10x/gd32f10x_sdio.c ****     \param[in]  none
 226:../system/src/gd32f10x/gd32f10x_sdio.c ****     \param[out] none
 227:../system/src/gd32f10x/gd32f10x_sdio.c ****     \retval     none
 228:../system/src/gd32f10x/gd32f10x_sdio.c **** */
 229:../system/src/gd32f10x/gd32f10x_sdio.c **** void sdio_csm_enable(void)
 230:../system/src/gd32f10x/gd32f10x_sdio.c **** {
 441              		.loc 1 230 1 is_stmt 1 view -0
 442              		.cfi_startproc
 443              		@ args = 0, pretend = 0, frame = 0
 444              		@ frame_needed = 0, uses_anonymous_args = 0
 445              		@ link register save eliminated.
 231:../system/src/gd32f10x/gd32f10x_sdio.c ****     SDIO_CMDCTL |= SDIO_CMDCTL_CSMEN;
 446              		.loc 1 231 5 view .LVU89
 447 0000 024A     		ldr	r2, .L37
 448 0002 D368     		ldr	r3, [r2, #12]
 449              		.loc 1 231 17 is_stmt 0 view .LVU90
 450 0004 43F48063 		orr	r3, r3, #1024
 451 0008 D360     		str	r3, [r2, #12]
 232:../system/src/gd32f10x/gd32f10x_sdio.c **** }
 452              		.loc 1 232 1 view .LVU91
 453 000a 7047     		bx	lr
 454              	.L38:
 455              		.align	2
 456              	.L37:
 457 000c 00800140 		.word	1073840128
 458              		.cfi_endproc
 459              	.LFE67:
 461              		.section	.text.sdio_csm_disable,"ax",%progbits
 462              		.align	1
 463              		.global	sdio_csm_disable
 464              		.syntax unified
 465              		.thumb
 466              		.thumb_func
 468              	sdio_csm_disable:
 469              	.LFB68:
 233:../system/src/gd32f10x/gd32f10x_sdio.c **** 
 234:../system/src/gd32f10x/gd32f10x_sdio.c **** /*!
 235:../system/src/gd32f10x/gd32f10x_sdio.c ****     \brief      disable the CSM(command state machine)
 236:../system/src/gd32f10x/gd32f10x_sdio.c ****     \param[in]  none
 237:../system/src/gd32f10x/gd32f10x_sdio.c ****     \param[out] none
 238:../system/src/gd32f10x/gd32f10x_sdio.c ****     \retval     none
 239:../system/src/gd32f10x/gd32f10x_sdio.c **** */
 240:../system/src/gd32f10x/gd32f10x_sdio.c **** void sdio_csm_disable(void)
 241:../system/src/gd32f10x/gd32f10x_sdio.c **** {
 470              		.loc 1 241 1 is_stmt 1 view -0
 471              		.cfi_startproc
 472              		@ args = 0, pretend = 0, frame = 0
 473              		@ frame_needed = 0, uses_anonymous_args = 0
 474              		@ link register save eliminated.
 242:../system/src/gd32f10x/gd32f10x_sdio.c ****     SDIO_CMDCTL &= ~SDIO_CMDCTL_CSMEN;
 475              		.loc 1 242 5 view .LVU93
 476 0000 024A     		ldr	r2, .L40
 477 0002 D368     		ldr	r3, [r2, #12]
 478              		.loc 1 242 17 is_stmt 0 view .LVU94
 479 0004 23F48063 		bic	r3, r3, #1024
 480 0008 D360     		str	r3, [r2, #12]
 243:../system/src/gd32f10x/gd32f10x_sdio.c **** }
 481              		.loc 1 243 1 view .LVU95
 482 000a 7047     		bx	lr
 483              	.L41:
 484              		.align	2
 485              	.L40:
 486 000c 00800140 		.word	1073840128
 487              		.cfi_endproc
 488              	.LFE68:
 490              		.section	.text.sdio_command_index_get,"ax",%progbits
 491              		.align	1
 492              		.global	sdio_command_index_get
 493              		.syntax unified
 494              		.thumb
 495              		.thumb_func
 497              	sdio_command_index_get:
 498              	.LFB69:
 244:../system/src/gd32f10x/gd32f10x_sdio.c **** 
 245:../system/src/gd32f10x/gd32f10x_sdio.c **** /*!
 246:../system/src/gd32f10x/gd32f10x_sdio.c ****     \brief      get the last response command index
 247:../system/src/gd32f10x/gd32f10x_sdio.c ****     \param[in]  none
 248:../system/src/gd32f10x/gd32f10x_sdio.c ****     \param[out] none
 249:../system/src/gd32f10x/gd32f10x_sdio.c ****     \retval     last response command index
 250:../system/src/gd32f10x/gd32f10x_sdio.c **** */
 251:../system/src/gd32f10x/gd32f10x_sdio.c **** uint8_t sdio_command_index_get(void)
 252:../system/src/gd32f10x/gd32f10x_sdio.c **** {
 499              		.loc 1 252 1 is_stmt 1 view -0
 500              		.cfi_startproc
 501              		@ args = 0, pretend = 0, frame = 0
 502              		@ frame_needed = 0, uses_anonymous_args = 0
 503              		@ link register save eliminated.
 253:../system/src/gd32f10x/gd32f10x_sdio.c ****     return (uint8_t)SDIO_RSPCMDIDX;
 504              		.loc 1 253 5 view .LVU97
 505              		.loc 1 253 21 is_stmt 0 view .LVU98
 506 0000 014B     		ldr	r3, .L43
 507 0002 1869     		ldr	r0, [r3, #16]
 254:../system/src/gd32f10x/gd32f10x_sdio.c **** }
 508              		.loc 1 254 1 view .LVU99
 509 0004 C0B2     		uxtb	r0, r0
 510 0006 7047     		bx	lr
 511              	.L44:
 512              		.align	2
 513              	.L43:
 514 0008 00800140 		.word	1073840128
 515              		.cfi_endproc
 516              	.LFE69:
 518              		.section	.text.sdio_response_get,"ax",%progbits
 519              		.align	1
 520              		.global	sdio_response_get
 521              		.syntax unified
 522              		.thumb
 523              		.thumb_func
 525              	sdio_response_get:
 526              	.LVL17:
 527              	.LFB70:
 255:../system/src/gd32f10x/gd32f10x_sdio.c **** 
 256:../system/src/gd32f10x/gd32f10x_sdio.c **** /*!
 257:../system/src/gd32f10x/gd32f10x_sdio.c ****     \brief      get the response for the last received command
 258:../system/src/gd32f10x/gd32f10x_sdio.c ****     \param[in]  responsex: SDIO response
 259:../system/src/gd32f10x/gd32f10x_sdio.c ****                 only one parameter can be selected which is shown as below:
 260:../system/src/gd32f10x/gd32f10x_sdio.c ****       \arg       SDIO_RESPONSE0: card response[31:0]/card response[127:96]
 261:../system/src/gd32f10x/gd32f10x_sdio.c ****       \arg       SDIO_RESPONSE1: card response[95:64]
 262:../system/src/gd32f10x/gd32f10x_sdio.c ****       \arg       SDIO_RESPONSE2: card response[63:32]
 263:../system/src/gd32f10x/gd32f10x_sdio.c ****       \arg       SDIO_RESPONSE3: card response[31:1], plus bit 0
 264:../system/src/gd32f10x/gd32f10x_sdio.c ****     \param[out] none
 265:../system/src/gd32f10x/gd32f10x_sdio.c ****     \retval     response for the last received command
 266:../system/src/gd32f10x/gd32f10x_sdio.c **** */
 267:../system/src/gd32f10x/gd32f10x_sdio.c **** uint32_t sdio_response_get(uint32_t responsex)
 268:../system/src/gd32f10x/gd32f10x_sdio.c **** {
 528              		.loc 1 268 1 is_stmt 1 view -0
 529              		.cfi_startproc
 530              		@ args = 0, pretend = 0, frame = 0
 531              		@ frame_needed = 0, uses_anonymous_args = 0
 532              		@ link register save eliminated.
 269:../system/src/gd32f10x/gd32f10x_sdio.c ****     uint32_t resp_content = 0U;
 533              		.loc 1 269 5 view .LVU101
 270:../system/src/gd32f10x/gd32f10x_sdio.c ****     switch(responsex){
 534              		.loc 1 270 5 view .LVU102
 535 0000 0328     		cmp	r0, #3
 536 0002 0FD8     		bhi	.L52
 537 0004 DFE800F0 		tbb	[pc, r0]
 538              	.L48:
 539 0008 02       		.byte	(.L51-.L48)/2
 540 0009 05       		.byte	(.L50-.L48)/2
 541 000a 08       		.byte	(.L49-.L48)/2
 542 000b 0B       		.byte	(.L47-.L48)/2
 543              		.p2align 1
 544              	.L51:
 271:../system/src/gd32f10x/gd32f10x_sdio.c ****     case SDIO_RESPONSE0:
 272:../system/src/gd32f10x/gd32f10x_sdio.c ****         resp_content = SDIO_RESP0;
 545              		.loc 1 272 9 view .LVU103
 546              		.loc 1 272 22 is_stmt 0 view .LVU104
 547 000c 064B     		ldr	r3, .L53
 548 000e 5869     		ldr	r0, [r3, #20]
 549              	.LVL18:
 273:../system/src/gd32f10x/gd32f10x_sdio.c ****         break;
 550              		.loc 1 273 9 is_stmt 1 view .LVU105
 551 0010 7047     		bx	lr
 552              	.LVL19:
 553              	.L50:
 274:../system/src/gd32f10x/gd32f10x_sdio.c ****     case SDIO_RESPONSE1:
 275:../system/src/gd32f10x/gd32f10x_sdio.c ****         resp_content = SDIO_RESP1;
 554              		.loc 1 275 9 view .LVU106
 555              		.loc 1 275 22 is_stmt 0 view .LVU107
 556 0012 054B     		ldr	r3, .L53
 557 0014 9869     		ldr	r0, [r3, #24]
 558              	.LVL20:
 276:../system/src/gd32f10x/gd32f10x_sdio.c ****         break;
 559              		.loc 1 276 9 is_stmt 1 view .LVU108
 560 0016 7047     		bx	lr
 561              	.LVL21:
 562              	.L49:
 277:../system/src/gd32f10x/gd32f10x_sdio.c ****     case SDIO_RESPONSE2:
 278:../system/src/gd32f10x/gd32f10x_sdio.c ****         resp_content = SDIO_RESP2;
 563              		.loc 1 278 9 view .LVU109
 564              		.loc 1 278 22 is_stmt 0 view .LVU110
 565 0018 034B     		ldr	r3, .L53
 566 001a D869     		ldr	r0, [r3, #28]
 567              	.LVL22:
 279:../system/src/gd32f10x/gd32f10x_sdio.c ****         break;
 568              		.loc 1 279 9 is_stmt 1 view .LVU111
 569 001c 7047     		bx	lr
 570              	.LVL23:
 571              	.L47:
 280:../system/src/gd32f10x/gd32f10x_sdio.c ****     case SDIO_RESPONSE3:
 281:../system/src/gd32f10x/gd32f10x_sdio.c ****         resp_content = SDIO_RESP3;
 572              		.loc 1 281 9 view .LVU112
 573              		.loc 1 281 22 is_stmt 0 view .LVU113
 574 001e 024B     		ldr	r3, .L53
 575 0020 186A     		ldr	r0, [r3, #32]
 576              	.LVL24:
 282:../system/src/gd32f10x/gd32f10x_sdio.c ****         break;
 577              		.loc 1 282 9 is_stmt 1 view .LVU114
 578 0022 7047     		bx	lr
 579              	.LVL25:
 580              	.L52:
 270:../system/src/gd32f10x/gd32f10x_sdio.c ****     case SDIO_RESPONSE0:
 581              		.loc 1 270 5 is_stmt 0 view .LVU115
 582 0024 0020     		movs	r0, #0
 583              	.LVL26:
 283:../system/src/gd32f10x/gd32f10x_sdio.c ****     default:
 284:../system/src/gd32f10x/gd32f10x_sdio.c ****         break;
 285:../system/src/gd32f10x/gd32f10x_sdio.c ****     }
 286:../system/src/gd32f10x/gd32f10x_sdio.c ****     return resp_content;
 584              		.loc 1 286 5 is_stmt 1 view .LVU116
 287:../system/src/gd32f10x/gd32f10x_sdio.c **** }
 585              		.loc 1 287 1 is_stmt 0 view .LVU117
 586 0026 7047     		bx	lr
 587              	.L54:
 588              		.align	2
 589              	.L53:
 590 0028 00800140 		.word	1073840128
 591              		.cfi_endproc
 592              	.LFE70:
 594              		.section	.text.sdio_data_config,"ax",%progbits
 595              		.align	1
 596              		.global	sdio_data_config
 597              		.syntax unified
 598              		.thumb
 599              		.thumb_func
 601              	sdio_data_config:
 602              	.LVL27:
 603              	.LFB71:
 288:../system/src/gd32f10x/gd32f10x_sdio.c **** 
 289:../system/src/gd32f10x/gd32f10x_sdio.c **** /*!
 290:../system/src/gd32f10x/gd32f10x_sdio.c ****     \brief      configure the data timeout, data length and data block size
 291:../system/src/gd32f10x/gd32f10x_sdio.c ****     \param[in]  data_timeout: data timeout period in card bus clock periods
 292:../system/src/gd32f10x/gd32f10x_sdio.c ****     \param[in]  data_length: number of data bytes to be transferred
 293:../system/src/gd32f10x/gd32f10x_sdio.c ****     \param[in]  data_blocksize: size of data block for block transfer
 294:../system/src/gd32f10x/gd32f10x_sdio.c ****                 only one parameter can be selected which is shown as below:
 295:../system/src/gd32f10x/gd32f10x_sdio.c ****       \arg        SDIO_DATABLOCKSIZE_1BYTE: block size = 1 byte
 296:../system/src/gd32f10x/gd32f10x_sdio.c ****       \arg        SDIO_DATABLOCKSIZE_2BYTES: block size = 2 bytes
 297:../system/src/gd32f10x/gd32f10x_sdio.c ****       \arg        SDIO_DATABLOCKSIZE_4BYTES: block size = 4 bytes
 298:../system/src/gd32f10x/gd32f10x_sdio.c ****       \arg        SDIO_DATABLOCKSIZE_8BYTES: block size = 8 bytes
 299:../system/src/gd32f10x/gd32f10x_sdio.c ****       \arg        SDIO_DATABLOCKSIZE_16BYTES: block size = 16 bytes
 300:../system/src/gd32f10x/gd32f10x_sdio.c ****       \arg        SDIO_DATABLOCKSIZE_32BYTES: block size = 32 bytes
 301:../system/src/gd32f10x/gd32f10x_sdio.c ****       \arg        SDIO_DATABLOCKSIZE_64BYTES: block size = 64 bytes
 302:../system/src/gd32f10x/gd32f10x_sdio.c ****       \arg        SDIO_DATABLOCKSIZE_128BYTES: block size = 128 bytes
 303:../system/src/gd32f10x/gd32f10x_sdio.c ****       \arg        SDIO_DATABLOCKSIZE_256BYTES: block size = 256 bytes
 304:../system/src/gd32f10x/gd32f10x_sdio.c ****       \arg        SDIO_DATABLOCKSIZE_512BYTES: block size = 512 bytes
 305:../system/src/gd32f10x/gd32f10x_sdio.c ****       \arg        SDIO_DATABLOCKSIZE_1024BYTES: block size = 1024 bytes
 306:../system/src/gd32f10x/gd32f10x_sdio.c ****       \arg        SDIO_DATABLOCKSIZE_2048BYTES: block size = 2048 bytes
 307:../system/src/gd32f10x/gd32f10x_sdio.c ****       \arg        SDIO_DATABLOCKSIZE_4096BYTES: block size = 4096 bytes
 308:../system/src/gd32f10x/gd32f10x_sdio.c ****       \arg        SDIO_DATABLOCKSIZE_8192BYTES: block size = 8192 bytes
 309:../system/src/gd32f10x/gd32f10x_sdio.c ****       \arg        SDIO_DATABLOCKSIZE_16384BYTES: block size = 16384 bytes
 310:../system/src/gd32f10x/gd32f10x_sdio.c ****     \param[out] none
 311:../system/src/gd32f10x/gd32f10x_sdio.c ****     \retval     none
 312:../system/src/gd32f10x/gd32f10x_sdio.c **** */
 313:../system/src/gd32f10x/gd32f10x_sdio.c **** void sdio_data_config(uint32_t data_timeout, uint32_t data_length, uint32_t data_blocksize)
 314:../system/src/gd32f10x/gd32f10x_sdio.c **** {
 604              		.loc 1 314 1 is_stmt 1 view -0
 605              		.cfi_startproc
 606              		@ args = 0, pretend = 0, frame = 0
 607              		@ frame_needed = 0, uses_anonymous_args = 0
 608              		@ link register save eliminated.
 609              		.loc 1 314 1 is_stmt 0 view .LVU119
 610 0000 10B4     		push	{r4}
 611              		.cfi_def_cfa_offset 4
 612              		.cfi_offset 4, -4
 315:../system/src/gd32f10x/gd32f10x_sdio.c ****     /* reset data timeout, data length and data block size */
 316:../system/src/gd32f10x/gd32f10x_sdio.c ****     SDIO_DATATO &= ~SDIO_DATATO_DATATO;
 613              		.loc 1 316 5 is_stmt 1 view .LVU120
 614 0002 094B     		ldr	r3, .L57
 615 0004 5C6A     		ldr	r4, [r3, #36]
 616              		.loc 1 316 17 is_stmt 0 view .LVU121
 617 0006 0024     		movs	r4, #0
 618 0008 5C62     		str	r4, [r3, #36]
 317:../system/src/gd32f10x/gd32f10x_sdio.c ****     SDIO_DATALEN &= ~SDIO_DATALEN_DATALEN;
 619              		.loc 1 317 5 is_stmt 1 view .LVU122
 620 000a 9C6A     		ldr	r4, [r3, #40]
 621              		.loc 1 317 18 is_stmt 0 view .LVU123
 622 000c 04F07E44 		and	r4, r4, #-33554432
 623 0010 9C62     		str	r4, [r3, #40]
 318:../system/src/gd32f10x/gd32f10x_sdio.c ****     SDIO_DATACTL &= ~SDIO_DATACTL_BLKSZ;
 624              		.loc 1 318 5 is_stmt 1 view .LVU124
 625 0012 DC6A     		ldr	r4, [r3, #44]
 626              		.loc 1 318 18 is_stmt 0 view .LVU125
 627 0014 24F0F004 		bic	r4, r4, #240
 628 0018 DC62     		str	r4, [r3, #44]
 319:../system/src/gd32f10x/gd32f10x_sdio.c ****     /* configure the related parameters of data */
 320:../system/src/gd32f10x/gd32f10x_sdio.c ****     SDIO_DATATO = data_timeout;
 629              		.loc 1 320 5 is_stmt 1 view .LVU126
 630              		.loc 1 320 17 is_stmt 0 view .LVU127
 631 001a 5862     		str	r0, [r3, #36]
 321:../system/src/gd32f10x/gd32f10x_sdio.c ****     SDIO_DATALEN = data_length;
 632              		.loc 1 321 5 is_stmt 1 view .LVU128
 633              		.loc 1 321 18 is_stmt 0 view .LVU129
 634 001c 9962     		str	r1, [r3, #40]
 322:../system/src/gd32f10x/gd32f10x_sdio.c ****     SDIO_DATACTL |= data_blocksize;
 635              		.loc 1 322 5 is_stmt 1 view .LVU130
 636 001e D96A     		ldr	r1, [r3, #44]
 637              	.LVL28:
 638              		.loc 1 322 18 is_stmt 0 view .LVU131
 639 0020 1143     		orrs	r1, r1, r2
 640 0022 D962     		str	r1, [r3, #44]
 641              	.LVL29:
 323:../system/src/gd32f10x/gd32f10x_sdio.c **** }
 642              		.loc 1 323 1 view .LVU132
 643 0024 10BC     		pop	{r4}
 644              		.cfi_restore 4
 645              		.cfi_def_cfa_offset 0
 646 0026 7047     		bx	lr
 647              	.L58:
 648              		.align	2
 649              	.L57:
 650 0028 00800140 		.word	1073840128
 651              		.cfi_endproc
 652              	.LFE71:
 654              		.section	.text.sdio_data_transfer_config,"ax",%progbits
 655              		.align	1
 656              		.global	sdio_data_transfer_config
 657              		.syntax unified
 658              		.thumb
 659              		.thumb_func
 661              	sdio_data_transfer_config:
 662              	.LVL30:
 663              	.LFB72:
 324:../system/src/gd32f10x/gd32f10x_sdio.c **** 
 325:../system/src/gd32f10x/gd32f10x_sdio.c **** /*!
 326:../system/src/gd32f10x/gd32f10x_sdio.c ****     \brief      configure the data transfer mode and direction
 327:../system/src/gd32f10x/gd32f10x_sdio.c ****     \param[in]  transfer_mode: mode of data transfer
 328:../system/src/gd32f10x/gd32f10x_sdio.c ****                 only one parameter can be selected which is shown as below:
 329:../system/src/gd32f10x/gd32f10x_sdio.c ****       \arg       SDIO_TRANSMODE_BLOCK: block transfer
 330:../system/src/gd32f10x/gd32f10x_sdio.c ****       \arg       SDIO_TRANSMODE_STREAM: stream transfer or SDIO multibyte transfer
 331:../system/src/gd32f10x/gd32f10x_sdio.c ****     \param[in]  transfer_direction: data transfer direction, read or write
 332:../system/src/gd32f10x/gd32f10x_sdio.c ****                 only one parameter can be selected which is shown as below:
 333:../system/src/gd32f10x/gd32f10x_sdio.c ****       \arg       SDIO_TRANSDIRECTION_TOCARD: write data to card
 334:../system/src/gd32f10x/gd32f10x_sdio.c ****       \arg       SDIO_TRANSDIRECTION_TOSDIO: read data from card
 335:../system/src/gd32f10x/gd32f10x_sdio.c ****     \param[out] none
 336:../system/src/gd32f10x/gd32f10x_sdio.c ****     \retval     none
 337:../system/src/gd32f10x/gd32f10x_sdio.c **** */
 338:../system/src/gd32f10x/gd32f10x_sdio.c **** void sdio_data_transfer_config(uint32_t transfer_mode, uint32_t transfer_direction)
 339:../system/src/gd32f10x/gd32f10x_sdio.c **** {
 664              		.loc 1 339 1 is_stmt 1 view -0
 665              		.cfi_startproc
 666              		@ args = 0, pretend = 0, frame = 0
 667              		@ frame_needed = 0, uses_anonymous_args = 0
 668              		@ link register save eliminated.
 340:../system/src/gd32f10x/gd32f10x_sdio.c ****     uint32_t data_trans = 0U;
 669              		.loc 1 340 5 view .LVU134
 341:../system/src/gd32f10x/gd32f10x_sdio.c ****     /* reset the data transfer mode, transfer direction and set according to the parameters */
 342:../system/src/gd32f10x/gd32f10x_sdio.c ****     data_trans = SDIO_DATACTL;
 670              		.loc 1 342 5 view .LVU135
 671              		.loc 1 342 16 is_stmt 0 view .LVU136
 672 0000 034A     		ldr	r2, .L60
 673 0002 D36A     		ldr	r3, [r2, #44]
 674              	.LVL31:
 343:../system/src/gd32f10x/gd32f10x_sdio.c ****     data_trans &= ~(SDIO_DATACTL_TRANSMOD | SDIO_DATACTL_DATADIR);
 675              		.loc 1 343 5 is_stmt 1 view .LVU137
 676              		.loc 1 343 16 is_stmt 0 view .LVU138
 677 0004 23F00603 		bic	r3, r3, #6
 678              	.LVL32:
 344:../system/src/gd32f10x/gd32f10x_sdio.c ****     data_trans |= (transfer_mode | transfer_direction);
 679              		.loc 1 344 5 is_stmt 1 view .LVU139
 680              		.loc 1 344 34 is_stmt 0 view .LVU140
 681 0008 0843     		orrs	r0, r0, r1
 682              	.LVL33:
 683              		.loc 1 344 16 view .LVU141
 684 000a 1843     		orrs	r0, r0, r3
 685              	.LVL34:
 345:../system/src/gd32f10x/gd32f10x_sdio.c ****     SDIO_DATACTL = data_trans;
 686              		.loc 1 345 5 is_stmt 1 view .LVU142
 687              		.loc 1 345 18 is_stmt 0 view .LVU143
 688 000c D062     		str	r0, [r2, #44]
 346:../system/src/gd32f10x/gd32f10x_sdio.c **** }
 689              		.loc 1 346 1 view .LVU144
 690 000e 7047     		bx	lr
 691              	.L61:
 692              		.align	2
 693              	.L60:
 694 0010 00800140 		.word	1073840128
 695              		.cfi_endproc
 696              	.LFE72:
 698              		.section	.text.sdio_dsm_enable,"ax",%progbits
 699              		.align	1
 700              		.global	sdio_dsm_enable
 701              		.syntax unified
 702              		.thumb
 703              		.thumb_func
 705              	sdio_dsm_enable:
 706              	.LFB73:
 347:../system/src/gd32f10x/gd32f10x_sdio.c **** 
 348:../system/src/gd32f10x/gd32f10x_sdio.c **** /*!
 349:../system/src/gd32f10x/gd32f10x_sdio.c ****     \brief      enable the DSM(data state machine) for data transfer
 350:../system/src/gd32f10x/gd32f10x_sdio.c ****     \param[in]  none
 351:../system/src/gd32f10x/gd32f10x_sdio.c ****     \param[out] none
 352:../system/src/gd32f10x/gd32f10x_sdio.c ****     \retval     none
 353:../system/src/gd32f10x/gd32f10x_sdio.c **** */
 354:../system/src/gd32f10x/gd32f10x_sdio.c **** void sdio_dsm_enable(void)
 355:../system/src/gd32f10x/gd32f10x_sdio.c **** {
 707              		.loc 1 355 1 is_stmt 1 view -0
 708              		.cfi_startproc
 709              		@ args = 0, pretend = 0, frame = 0
 710              		@ frame_needed = 0, uses_anonymous_args = 0
 711              		@ link register save eliminated.
 356:../system/src/gd32f10x/gd32f10x_sdio.c ****     SDIO_DATACTL |= SDIO_DATACTL_DATAEN;
 712              		.loc 1 356 5 view .LVU146
 713 0000 024A     		ldr	r2, .L63
 714 0002 D36A     		ldr	r3, [r2, #44]
 715              		.loc 1 356 18 is_stmt 0 view .LVU147
 716 0004 43F00103 		orr	r3, r3, #1
 717 0008 D362     		str	r3, [r2, #44]
 357:../system/src/gd32f10x/gd32f10x_sdio.c **** }
 718              		.loc 1 357 1 view .LVU148
 719 000a 7047     		bx	lr
 720              	.L64:
 721              		.align	2
 722              	.L63:
 723 000c 00800140 		.word	1073840128
 724              		.cfi_endproc
 725              	.LFE73:
 727              		.section	.text.sdio_dsm_disable,"ax",%progbits
 728              		.align	1
 729              		.global	sdio_dsm_disable
 730              		.syntax unified
 731              		.thumb
 732              		.thumb_func
 734              	sdio_dsm_disable:
 735              	.LFB74:
 358:../system/src/gd32f10x/gd32f10x_sdio.c **** 
 359:../system/src/gd32f10x/gd32f10x_sdio.c **** /*!
 360:../system/src/gd32f10x/gd32f10x_sdio.c ****     \brief      disable the DSM(data state machine)
 361:../system/src/gd32f10x/gd32f10x_sdio.c ****     \param[in]  none
 362:../system/src/gd32f10x/gd32f10x_sdio.c ****     \param[out] none
 363:../system/src/gd32f10x/gd32f10x_sdio.c ****     \retval     none
 364:../system/src/gd32f10x/gd32f10x_sdio.c **** */
 365:../system/src/gd32f10x/gd32f10x_sdio.c **** void sdio_dsm_disable(void)
 366:../system/src/gd32f10x/gd32f10x_sdio.c **** {
 736              		.loc 1 366 1 is_stmt 1 view -0
 737              		.cfi_startproc
 738              		@ args = 0, pretend = 0, frame = 0
 739              		@ frame_needed = 0, uses_anonymous_args = 0
 740              		@ link register save eliminated.
 367:../system/src/gd32f10x/gd32f10x_sdio.c ****     SDIO_DATACTL &= ~SDIO_DATACTL_DATAEN;
 741              		.loc 1 367 5 view .LVU150
 742 0000 024A     		ldr	r2, .L66
 743 0002 D36A     		ldr	r3, [r2, #44]
 744              		.loc 1 367 18 is_stmt 0 view .LVU151
 745 0004 23F00103 		bic	r3, r3, #1
 746 0008 D362     		str	r3, [r2, #44]
 368:../system/src/gd32f10x/gd32f10x_sdio.c **** }
 747              		.loc 1 368 1 view .LVU152
 748 000a 7047     		bx	lr
 749              	.L67:
 750              		.align	2
 751              	.L66:
 752 000c 00800140 		.word	1073840128
 753              		.cfi_endproc
 754              	.LFE74:
 756              		.section	.text.sdio_data_write,"ax",%progbits
 757              		.align	1
 758              		.global	sdio_data_write
 759              		.syntax unified
 760              		.thumb
 761              		.thumb_func
 763              	sdio_data_write:
 764              	.LVL35:
 765              	.LFB75:
 369:../system/src/gd32f10x/gd32f10x_sdio.c **** 
 370:../system/src/gd32f10x/gd32f10x_sdio.c **** /*!
 371:../system/src/gd32f10x/gd32f10x_sdio.c ****     \brief      write data(one word) to the transmit FIFO
 372:../system/src/gd32f10x/gd32f10x_sdio.c ****     \param[in]  data: 32-bit data write to card
 373:../system/src/gd32f10x/gd32f10x_sdio.c ****     \param[out] none
 374:../system/src/gd32f10x/gd32f10x_sdio.c ****     \retval     none
 375:../system/src/gd32f10x/gd32f10x_sdio.c **** */
 376:../system/src/gd32f10x/gd32f10x_sdio.c **** void sdio_data_write(uint32_t data)
 377:../system/src/gd32f10x/gd32f10x_sdio.c **** {
 766              		.loc 1 377 1 is_stmt 1 view -0
 767              		.cfi_startproc
 768              		@ args = 0, pretend = 0, frame = 0
 769              		@ frame_needed = 0, uses_anonymous_args = 0
 770              		@ link register save eliminated.
 378:../system/src/gd32f10x/gd32f10x_sdio.c ****     SDIO_FIFO = data;
 771              		.loc 1 378 5 view .LVU154
 772              		.loc 1 378 15 is_stmt 0 view .LVU155
 773 0000 014B     		ldr	r3, .L69
 774 0002 C3F88000 		str	r0, [r3, #128]
 379:../system/src/gd32f10x/gd32f10x_sdio.c **** }
 775              		.loc 1 379 1 view .LVU156
 776 0006 7047     		bx	lr
 777              	.L70:
 778              		.align	2
 779              	.L69:
 780 0008 00800140 		.word	1073840128
 781              		.cfi_endproc
 782              	.LFE75:
 784              		.section	.text.sdio_data_read,"ax",%progbits
 785              		.align	1
 786              		.global	sdio_data_read
 787              		.syntax unified
 788              		.thumb
 789              		.thumb_func
 791              	sdio_data_read:
 792              	.LFB76:
 380:../system/src/gd32f10x/gd32f10x_sdio.c **** 
 381:../system/src/gd32f10x/gd32f10x_sdio.c **** /*!
 382:../system/src/gd32f10x/gd32f10x_sdio.c ****     \brief      read data(one word) from the receive FIFO
 383:../system/src/gd32f10x/gd32f10x_sdio.c ****     \param[in]  none
 384:../system/src/gd32f10x/gd32f10x_sdio.c ****     \param[out] none
 385:../system/src/gd32f10x/gd32f10x_sdio.c ****     \retval     received data
 386:../system/src/gd32f10x/gd32f10x_sdio.c **** */
 387:../system/src/gd32f10x/gd32f10x_sdio.c **** uint32_t sdio_data_read(void)
 388:../system/src/gd32f10x/gd32f10x_sdio.c **** {
 793              		.loc 1 388 1 is_stmt 1 view -0
 794              		.cfi_startproc
 795              		@ args = 0, pretend = 0, frame = 0
 796              		@ frame_needed = 0, uses_anonymous_args = 0
 797              		@ link register save eliminated.
 389:../system/src/gd32f10x/gd32f10x_sdio.c ****     return SDIO_FIFO;
 798              		.loc 1 389 5 view .LVU158
 799              		.loc 1 389 12 is_stmt 0 view .LVU159
 800 0000 014B     		ldr	r3, .L72
 801 0002 D3F88000 		ldr	r0, [r3, #128]
 390:../system/src/gd32f10x/gd32f10x_sdio.c **** }
 802              		.loc 1 390 1 view .LVU160
 803 0006 7047     		bx	lr
 804              	.L73:
 805              		.align	2
 806              	.L72:
 807 0008 00800140 		.word	1073840128
 808              		.cfi_endproc
 809              	.LFE76:
 811              		.section	.text.sdio_data_counter_get,"ax",%progbits
 812              		.align	1
 813              		.global	sdio_data_counter_get
 814              		.syntax unified
 815              		.thumb
 816              		.thumb_func
 818              	sdio_data_counter_get:
 819              	.LFB77:
 391:../system/src/gd32f10x/gd32f10x_sdio.c **** 
 392:../system/src/gd32f10x/gd32f10x_sdio.c **** /*!
 393:../system/src/gd32f10x/gd32f10x_sdio.c ****     \brief      get the number of remaining data bytes to be transferred to card
 394:../system/src/gd32f10x/gd32f10x_sdio.c ****     \param[in]  none
 395:../system/src/gd32f10x/gd32f10x_sdio.c ****     \param[out] none
 396:../system/src/gd32f10x/gd32f10x_sdio.c ****     \retval     number of remaining data bytes to be transferred
 397:../system/src/gd32f10x/gd32f10x_sdio.c **** */
 398:../system/src/gd32f10x/gd32f10x_sdio.c **** uint32_t sdio_data_counter_get(void)
 399:../system/src/gd32f10x/gd32f10x_sdio.c **** {
 820              		.loc 1 399 1 is_stmt 1 view -0
 821              		.cfi_startproc
 822              		@ args = 0, pretend = 0, frame = 0
 823              		@ frame_needed = 0, uses_anonymous_args = 0
 824              		@ link register save eliminated.
 400:../system/src/gd32f10x/gd32f10x_sdio.c ****     return SDIO_DATACNT;
 825              		.loc 1 400 5 view .LVU162
 826              		.loc 1 400 12 is_stmt 0 view .LVU163
 827 0000 014B     		ldr	r3, .L75
 828 0002 186B     		ldr	r0, [r3, #48]
 401:../system/src/gd32f10x/gd32f10x_sdio.c **** }
 829              		.loc 1 401 1 view .LVU164
 830 0004 7047     		bx	lr
 831              	.L76:
 832 0006 00BF     		.align	2
 833              	.L75:
 834 0008 00800140 		.word	1073840128
 835              		.cfi_endproc
 836              	.LFE77:
 838              		.section	.text.sdio_fifo_counter_get,"ax",%progbits
 839              		.align	1
 840              		.global	sdio_fifo_counter_get
 841              		.syntax unified
 842              		.thumb
 843              		.thumb_func
 845              	sdio_fifo_counter_get:
 846              	.LFB78:
 402:../system/src/gd32f10x/gd32f10x_sdio.c **** 
 403:../system/src/gd32f10x/gd32f10x_sdio.c **** /*!
 404:../system/src/gd32f10x/gd32f10x_sdio.c ****     \brief      get the number of words remaining to be written or read from FIFO
 405:../system/src/gd32f10x/gd32f10x_sdio.c ****     \param[in]  none
 406:../system/src/gd32f10x/gd32f10x_sdio.c ****     \param[out] none
 407:../system/src/gd32f10x/gd32f10x_sdio.c ****     \retval     remaining number of words
 408:../system/src/gd32f10x/gd32f10x_sdio.c **** */
 409:../system/src/gd32f10x/gd32f10x_sdio.c **** uint32_t sdio_fifo_counter_get(void)
 410:../system/src/gd32f10x/gd32f10x_sdio.c **** {
 847              		.loc 1 410 1 is_stmt 1 view -0
 848              		.cfi_startproc
 849              		@ args = 0, pretend = 0, frame = 0
 850              		@ frame_needed = 0, uses_anonymous_args = 0
 851              		@ link register save eliminated.
 411:../system/src/gd32f10x/gd32f10x_sdio.c ****     return SDIO_FIFOCNT;
 852              		.loc 1 411 5 view .LVU166
 853              		.loc 1 411 12 is_stmt 0 view .LVU167
 854 0000 014B     		ldr	r3, .L78
 855 0002 986C     		ldr	r0, [r3, #72]
 412:../system/src/gd32f10x/gd32f10x_sdio.c **** }
 856              		.loc 1 412 1 view .LVU168
 857 0004 7047     		bx	lr
 858              	.L79:
 859 0006 00BF     		.align	2
 860              	.L78:
 861 0008 00800140 		.word	1073840128
 862              		.cfi_endproc
 863              	.LFE78:
 865              		.section	.text.sdio_dma_enable,"ax",%progbits
 866              		.align	1
 867              		.global	sdio_dma_enable
 868              		.syntax unified
 869              		.thumb
 870              		.thumb_func
 872              	sdio_dma_enable:
 873              	.LFB79:
 413:../system/src/gd32f10x/gd32f10x_sdio.c **** 
 414:../system/src/gd32f10x/gd32f10x_sdio.c **** /*!
 415:../system/src/gd32f10x/gd32f10x_sdio.c ****     \brief      enable the DMA request for SDIO
 416:../system/src/gd32f10x/gd32f10x_sdio.c ****     \param[in]  none
 417:../system/src/gd32f10x/gd32f10x_sdio.c ****     \param[out] none
 418:../system/src/gd32f10x/gd32f10x_sdio.c ****     \retval     none
 419:../system/src/gd32f10x/gd32f10x_sdio.c **** */
 420:../system/src/gd32f10x/gd32f10x_sdio.c **** void sdio_dma_enable(void)
 421:../system/src/gd32f10x/gd32f10x_sdio.c **** {
 874              		.loc 1 421 1 is_stmt 1 view -0
 875              		.cfi_startproc
 876              		@ args = 0, pretend = 0, frame = 0
 877              		@ frame_needed = 0, uses_anonymous_args = 0
 878              		@ link register save eliminated.
 422:../system/src/gd32f10x/gd32f10x_sdio.c ****     SDIO_DATACTL |= SDIO_DATACTL_DMAEN;
 879              		.loc 1 422 5 view .LVU170
 880 0000 024A     		ldr	r2, .L81
 881 0002 D36A     		ldr	r3, [r2, #44]
 882              		.loc 1 422 18 is_stmt 0 view .LVU171
 883 0004 43F00803 		orr	r3, r3, #8
 884 0008 D362     		str	r3, [r2, #44]
 423:../system/src/gd32f10x/gd32f10x_sdio.c **** }
 885              		.loc 1 423 1 view .LVU172
 886 000a 7047     		bx	lr
 887              	.L82:
 888              		.align	2
 889              	.L81:
 890 000c 00800140 		.word	1073840128
 891              		.cfi_endproc
 892              	.LFE79:
 894              		.section	.text.sdio_dma_disable,"ax",%progbits
 895              		.align	1
 896              		.global	sdio_dma_disable
 897              		.syntax unified
 898              		.thumb
 899              		.thumb_func
 901              	sdio_dma_disable:
 902              	.LFB80:
 424:../system/src/gd32f10x/gd32f10x_sdio.c **** 
 425:../system/src/gd32f10x/gd32f10x_sdio.c **** /*!
 426:../system/src/gd32f10x/gd32f10x_sdio.c ****     \brief      disable the DMA request for SDIO
 427:../system/src/gd32f10x/gd32f10x_sdio.c ****     \param[in]  none
 428:../system/src/gd32f10x/gd32f10x_sdio.c ****     \param[out] none
 429:../system/src/gd32f10x/gd32f10x_sdio.c ****     \retval     none
 430:../system/src/gd32f10x/gd32f10x_sdio.c **** */
 431:../system/src/gd32f10x/gd32f10x_sdio.c **** void sdio_dma_disable(void)
 432:../system/src/gd32f10x/gd32f10x_sdio.c **** {
 903              		.loc 1 432 1 is_stmt 1 view -0
 904              		.cfi_startproc
 905              		@ args = 0, pretend = 0, frame = 0
 906              		@ frame_needed = 0, uses_anonymous_args = 0
 907              		@ link register save eliminated.
 433:../system/src/gd32f10x/gd32f10x_sdio.c ****     SDIO_DATACTL &= ~SDIO_DATACTL_DMAEN;
 908              		.loc 1 433 5 view .LVU174
 909 0000 024A     		ldr	r2, .L84
 910 0002 D36A     		ldr	r3, [r2, #44]
 911              		.loc 1 433 18 is_stmt 0 view .LVU175
 912 0004 23F00803 		bic	r3, r3, #8
 913 0008 D362     		str	r3, [r2, #44]
 434:../system/src/gd32f10x/gd32f10x_sdio.c **** }
 914              		.loc 1 434 1 view .LVU176
 915 000a 7047     		bx	lr
 916              	.L85:
 917              		.align	2
 918              	.L84:
 919 000c 00800140 		.word	1073840128
 920              		.cfi_endproc
 921              	.LFE80:
 923              		.section	.text.sdio_flag_get,"ax",%progbits
 924              		.align	1
 925              		.global	sdio_flag_get
 926              		.syntax unified
 927              		.thumb
 928              		.thumb_func
 930              	sdio_flag_get:
 931              	.LVL36:
 932              	.LFB81:
 435:../system/src/gd32f10x/gd32f10x_sdio.c **** 
 436:../system/src/gd32f10x/gd32f10x_sdio.c **** /*!
 437:../system/src/gd32f10x/gd32f10x_sdio.c ****     \brief      get the flags state of SDIO
 438:../system/src/gd32f10x/gd32f10x_sdio.c ****     \param[in]  flag: flags state of SDIO
 439:../system/src/gd32f10x/gd32f10x_sdio.c ****                 one or more parameters can be selected which are shown as below:
 440:../system/src/gd32f10x/gd32f10x_sdio.c ****       \arg        SDIO_FLAG_CCRCERR: command response received (CRC check failed) flag
 441:../system/src/gd32f10x/gd32f10x_sdio.c ****       \arg        SDIO_FLAG_DTCRCERR: data block sent/received (CRC check failed) flag
 442:../system/src/gd32f10x/gd32f10x_sdio.c ****       \arg        SDIO_FLAG_CMDTMOUT: command response timeout flag
 443:../system/src/gd32f10x/gd32f10x_sdio.c ****       \arg        SDIO_FLAG_DTTMOUT: data timeout flag
 444:../system/src/gd32f10x/gd32f10x_sdio.c ****       \arg        SDIO_FLAG_TXURE: transmit FIFO underrun error occurs flag
 445:../system/src/gd32f10x/gd32f10x_sdio.c ****       \arg        SDIO_FLAG_RXORE: received FIFO overrun error occurs flag
 446:../system/src/gd32f10x/gd32f10x_sdio.c ****       \arg        SDIO_FLAG_CMDRECV: command response received (CRC check passed) flag
 447:../system/src/gd32f10x/gd32f10x_sdio.c ****       \arg        SDIO_FLAG_CMDSEND: command sent (no response required) flag
 448:../system/src/gd32f10x/gd32f10x_sdio.c ****       \arg        SDIO_FLAG_DTEND: data end (data counter, SDIO_DATACNT, is zero) flag
 449:../system/src/gd32f10x/gd32f10x_sdio.c ****       \arg        SDIO_FLAG_STBITE: start bit error in the bus flag
 450:../system/src/gd32f10x/gd32f10x_sdio.c ****       \arg        SDIO_FLAG_DTBLKEND: data block sent/received (CRC check passed) flag
 451:../system/src/gd32f10x/gd32f10x_sdio.c ****       \arg        SDIO_FLAG_CMDRUN: command transmission in progress flag
 452:../system/src/gd32f10x/gd32f10x_sdio.c ****       \arg        SDIO_FLAG_TXRUN: data transmission in progress flag
 453:../system/src/gd32f10x/gd32f10x_sdio.c ****       \arg        SDIO_FLAG_RXRUN: data reception in progress flag
 454:../system/src/gd32f10x/gd32f10x_sdio.c ****       \arg        SDIO_FLAG_TFH: transmit FIFO is half empty flag: at least 8 words can be written 
 455:../system/src/gd32f10x/gd32f10x_sdio.c ****       \arg        SDIO_FLAG_RFH: receive FIFO is half full flag: at least 8 words can be read in th
 456:../system/src/gd32f10x/gd32f10x_sdio.c ****       \arg        SDIO_FLAG_TFF: transmit FIFO is full flag
 457:../system/src/gd32f10x/gd32f10x_sdio.c ****       \arg        SDIO_FLAG_RFF: receive FIFO is full flag
 458:../system/src/gd32f10x/gd32f10x_sdio.c ****       \arg        SDIO_FLAG_TFE: transmit FIFO is empty flag
 459:../system/src/gd32f10x/gd32f10x_sdio.c ****       \arg        SDIO_FLAG_RFE: receive FIFO is empty flag
 460:../system/src/gd32f10x/gd32f10x_sdio.c ****       \arg        SDIO_FLAG_TXDTVAL: data is valid in transmit FIFO flag
 461:../system/src/gd32f10x/gd32f10x_sdio.c ****       \arg        SDIO_FLAG_RXDTVAL: data is valid in receive FIFO flag
 462:../system/src/gd32f10x/gd32f10x_sdio.c ****       \arg        SDIO_FLAG_SDIOINT: SD I/O interrupt received flag
 463:../system/src/gd32f10x/gd32f10x_sdio.c ****       \arg        SDIO_FLAG_ATAEND: CE-ATA command completion signal received (only for CMD61) flag
 464:../system/src/gd32f10x/gd32f10x_sdio.c ****     \param[out] none
 465:../system/src/gd32f10x/gd32f10x_sdio.c ****     \retval     FlagStatus: SET or RESET
 466:../system/src/gd32f10x/gd32f10x_sdio.c **** */
 467:../system/src/gd32f10x/gd32f10x_sdio.c **** FlagStatus sdio_flag_get(uint32_t flag)
 468:../system/src/gd32f10x/gd32f10x_sdio.c **** {
 933              		.loc 1 468 1 is_stmt 1 view -0
 934              		.cfi_startproc
 935              		@ args = 0, pretend = 0, frame = 0
 936              		@ frame_needed = 0, uses_anonymous_args = 0
 937              		@ link register save eliminated.
 469:../system/src/gd32f10x/gd32f10x_sdio.c ****     FlagStatus temp_flag = RESET;
 938              		.loc 1 469 5 view .LVU178
 470:../system/src/gd32f10x/gd32f10x_sdio.c ****     if(RESET != (SDIO_STAT & flag)){
 939              		.loc 1 470 5 view .LVU179
 940              		.loc 1 470 18 is_stmt 0 view .LVU180
 941 0000 034B     		ldr	r3, .L89
 942 0002 5B6B     		ldr	r3, [r3, #52]
 943              		.loc 1 470 7 view .LVU181
 944 0004 0342     		tst	r3, r0
 945 0006 01D1     		bne	.L88
 469:../system/src/gd32f10x/gd32f10x_sdio.c ****     FlagStatus temp_flag = RESET;
 946              		.loc 1 469 16 view .LVU182
 947 0008 0020     		movs	r0, #0
 948              	.LVL37:
 469:../system/src/gd32f10x/gd32f10x_sdio.c ****     FlagStatus temp_flag = RESET;
 949              		.loc 1 469 16 view .LVU183
 950 000a 7047     		bx	lr
 951              	.LVL38:
 952              	.L88:
 471:../system/src/gd32f10x/gd32f10x_sdio.c ****         temp_flag = SET;
 953              		.loc 1 471 19 view .LVU184
 954 000c 0120     		movs	r0, #1
 955              	.LVL39:
 472:../system/src/gd32f10x/gd32f10x_sdio.c ****     }
 473:../system/src/gd32f10x/gd32f10x_sdio.c ****     return temp_flag;
 956              		.loc 1 473 5 is_stmt 1 view .LVU185
 474:../system/src/gd32f10x/gd32f10x_sdio.c **** }
 957              		.loc 1 474 1 is_stmt 0 view .LVU186
 958 000e 7047     		bx	lr
 959              	.L90:
 960              		.align	2
 961              	.L89:
 962 0010 00800140 		.word	1073840128
 963              		.cfi_endproc
 964              	.LFE81:
 966              		.section	.text.sdio_flag_clear,"ax",%progbits
 967              		.align	1
 968              		.global	sdio_flag_clear
 969              		.syntax unified
 970              		.thumb
 971              		.thumb_func
 973              	sdio_flag_clear:
 974              	.LVL40:
 975              	.LFB82:
 475:../system/src/gd32f10x/gd32f10x_sdio.c **** 
 476:../system/src/gd32f10x/gd32f10x_sdio.c **** /*!
 477:../system/src/gd32f10x/gd32f10x_sdio.c ****     \brief      clear the pending flags of SDIO
 478:../system/src/gd32f10x/gd32f10x_sdio.c ****     \param[in]  flag: flags state of SDIO
 479:../system/src/gd32f10x/gd32f10x_sdio.c ****                 one or more parameters can be selected which are shown as below:
 480:../system/src/gd32f10x/gd32f10x_sdio.c ****       \arg        SDIO_FLAG_CCRCERR: command response received (CRC check failed) flag
 481:../system/src/gd32f10x/gd32f10x_sdio.c ****       \arg        SDIO_FLAG_DTCRCERR: data block sent/received (CRC check failed) flag
 482:../system/src/gd32f10x/gd32f10x_sdio.c ****       \arg        SDIO_FLAG_CMDTMOUT: command response timeout flag
 483:../system/src/gd32f10x/gd32f10x_sdio.c ****       \arg        SDIO_FLAG_DTTMOUT: data timeout flag
 484:../system/src/gd32f10x/gd32f10x_sdio.c ****       \arg        SDIO_FLAG_TXURE: transmit FIFO underrun error occurs flag
 485:../system/src/gd32f10x/gd32f10x_sdio.c ****       \arg        SDIO_FLAG_RXORE: received FIFO overrun error occurs flag
 486:../system/src/gd32f10x/gd32f10x_sdio.c ****       \arg        SDIO_FLAG_CMDRECV: command response received (CRC check passed) flag
 487:../system/src/gd32f10x/gd32f10x_sdio.c ****       \arg        SDIO_FLAG_CMDSEND: command sent (no response required) flag
 488:../system/src/gd32f10x/gd32f10x_sdio.c ****       \arg        SDIO_FLAG_DTEND: data end (data counter, SDIO_DATACNT, is zero) flag
 489:../system/src/gd32f10x/gd32f10x_sdio.c ****       \arg        SDIO_FLAG_STBITE: start bit error in the bus flag
 490:../system/src/gd32f10x/gd32f10x_sdio.c ****       \arg        SDIO_FLAG_DTBLKEND: data block sent/received (CRC check passed) flag
 491:../system/src/gd32f10x/gd32f10x_sdio.c ****       \arg        SDIO_FLAG_SDIOINT: SD I/O interrupt received flag
 492:../system/src/gd32f10x/gd32f10x_sdio.c ****       \arg        SDIO_FLAG_ATAEND: CE-ATA command completion signal received (only for CMD61) flag
 493:../system/src/gd32f10x/gd32f10x_sdio.c ****     \param[out] none
 494:../system/src/gd32f10x/gd32f10x_sdio.c ****     \retval     none
 495:../system/src/gd32f10x/gd32f10x_sdio.c **** */
 496:../system/src/gd32f10x/gd32f10x_sdio.c **** void sdio_flag_clear(uint32_t flag)
 497:../system/src/gd32f10x/gd32f10x_sdio.c **** {
 976              		.loc 1 497 1 is_stmt 1 view -0
 977              		.cfi_startproc
 978              		@ args = 0, pretend = 0, frame = 0
 979              		@ frame_needed = 0, uses_anonymous_args = 0
 980              		@ link register save eliminated.
 498:../system/src/gd32f10x/gd32f10x_sdio.c ****     SDIO_INTC = flag;
 981              		.loc 1 498 5 view .LVU188
 982              		.loc 1 498 15 is_stmt 0 view .LVU189
 983 0000 014B     		ldr	r3, .L92
 984 0002 9863     		str	r0, [r3, #56]
 499:../system/src/gd32f10x/gd32f10x_sdio.c **** }
 985              		.loc 1 499 1 view .LVU190
 986 0004 7047     		bx	lr
 987              	.L93:
 988 0006 00BF     		.align	2
 989              	.L92:
 990 0008 00800140 		.word	1073840128
 991              		.cfi_endproc
 992              	.LFE82:
 994              		.section	.text.sdio_interrupt_enable,"ax",%progbits
 995              		.align	1
 996              		.global	sdio_interrupt_enable
 997              		.syntax unified
 998              		.thumb
 999              		.thumb_func
 1001              	sdio_interrupt_enable:
 1002              	.LVL41:
 1003              	.LFB83:
 500:../system/src/gd32f10x/gd32f10x_sdio.c **** 
 501:../system/src/gd32f10x/gd32f10x_sdio.c **** /*!
 502:../system/src/gd32f10x/gd32f10x_sdio.c ****     \brief      enable the SDIO interrupt
 503:../system/src/gd32f10x/gd32f10x_sdio.c ****     \param[in]  int_flag: interrupt flags state of SDIO
 504:../system/src/gd32f10x/gd32f10x_sdio.c ****                 one or more parameters can be selected which are shown as below:
 505:../system/src/gd32f10x/gd32f10x_sdio.c ****       \arg        SDIO_INT_CCRCERR: SDIO CCRCERR interrupt
 506:../system/src/gd32f10x/gd32f10x_sdio.c ****       \arg        SDIO_INT_DTCRCERR: SDIO DTCRCERR interrupt
 507:../system/src/gd32f10x/gd32f10x_sdio.c ****       \arg        SDIO_INT_CMDTMOUT: SDIO CMDTMOUT interrupt
 508:../system/src/gd32f10x/gd32f10x_sdio.c ****       \arg        SDIO_INT_DTTMOUT: SDIO DTTMOUT interrupt
 509:../system/src/gd32f10x/gd32f10x_sdio.c ****       \arg        SDIO_INT_TXURE: SDIO TXURE interrupt
 510:../system/src/gd32f10x/gd32f10x_sdio.c ****       \arg        SDIO_INT_RXORE: SDIO RXORE interrupt
 511:../system/src/gd32f10x/gd32f10x_sdio.c ****       \arg        SDIO_INT_CMDRECV: SDIO CMDRECV interrupt
 512:../system/src/gd32f10x/gd32f10x_sdio.c ****       \arg        SDIO_INT_CMDSEND: SDIO CMDSEND interrupt
 513:../system/src/gd32f10x/gd32f10x_sdio.c ****       \arg        SDIO_INT_DTEND: SDIO DTEND interrupt
 514:../system/src/gd32f10x/gd32f10x_sdio.c ****       \arg        SDIO_INT_STBITE: SDIO STBITE interrupt
 515:../system/src/gd32f10x/gd32f10x_sdio.c ****       \arg        SDIO_INT_DTBLKEND: SDIO DTBLKEND interrupt
 516:../system/src/gd32f10x/gd32f10x_sdio.c ****       \arg        SDIO_INT_CMDRUN: SDIO CMDRUN interrupt
 517:../system/src/gd32f10x/gd32f10x_sdio.c ****       \arg        SDIO_INT_TXRUN: SDIO TXRUN interrupt
 518:../system/src/gd32f10x/gd32f10x_sdio.c ****       \arg        SDIO_INT_RXRUN: SDIO RXRUN interrupt
 519:../system/src/gd32f10x/gd32f10x_sdio.c ****       \arg        SDIO_INT_TFH: SDIO TFH interrupt
 520:../system/src/gd32f10x/gd32f10x_sdio.c ****       \arg        SDIO_INT_RFH: SDIO RFH interrupt
 521:../system/src/gd32f10x/gd32f10x_sdio.c ****       \arg        SDIO_INT_TFF: SDIO TFF interrupt
 522:../system/src/gd32f10x/gd32f10x_sdio.c ****       \arg        SDIO_INT_RFF: SDIO RFF interrupt
 523:../system/src/gd32f10x/gd32f10x_sdio.c ****       \arg        SDIO_INT_TFE: SDIO TFE interrupt
 524:../system/src/gd32f10x/gd32f10x_sdio.c ****       \arg        SDIO_INT_RFE: SDIO RFE interrupt
 525:../system/src/gd32f10x/gd32f10x_sdio.c ****       \arg        SDIO_INT_TXDTVAL: SDIO TXDTVAL interrupt
 526:../system/src/gd32f10x/gd32f10x_sdio.c ****       \arg        SDIO_INT_RXDTVAL: SDIO RXDTVAL interrupt
 527:../system/src/gd32f10x/gd32f10x_sdio.c ****       \arg        SDIO_INT_SDIOINT: SDIO SDIOINT interrupt
 528:../system/src/gd32f10x/gd32f10x_sdio.c ****       \arg        SDIO_INT_ATAEND: SDIO ATAEND interrupt
 529:../system/src/gd32f10x/gd32f10x_sdio.c ****     \param[out] none
 530:../system/src/gd32f10x/gd32f10x_sdio.c ****     \retval     none
 531:../system/src/gd32f10x/gd32f10x_sdio.c **** */
 532:../system/src/gd32f10x/gd32f10x_sdio.c **** void sdio_interrupt_enable(uint32_t int_flag)
 533:../system/src/gd32f10x/gd32f10x_sdio.c **** {
 1004              		.loc 1 533 1 is_stmt 1 view -0
 1005              		.cfi_startproc
 1006              		@ args = 0, pretend = 0, frame = 0
 1007              		@ frame_needed = 0, uses_anonymous_args = 0
 1008              		@ link register save eliminated.
 534:../system/src/gd32f10x/gd32f10x_sdio.c ****     SDIO_INTEN |= int_flag;
 1009              		.loc 1 534 5 view .LVU192
 1010 0000 024A     		ldr	r2, .L95
 1011 0002 D36B     		ldr	r3, [r2, #60]
 1012              		.loc 1 534 16 is_stmt 0 view .LVU193
 1013 0004 0343     		orrs	r3, r3, r0
 1014 0006 D363     		str	r3, [r2, #60]
 535:../system/src/gd32f10x/gd32f10x_sdio.c **** }
 1015              		.loc 1 535 1 view .LVU194
 1016 0008 7047     		bx	lr
 1017              	.L96:
 1018 000a 00BF     		.align	2
 1019              	.L95:
 1020 000c 00800140 		.word	1073840128
 1021              		.cfi_endproc
 1022              	.LFE83:
 1024              		.section	.text.sdio_interrupt_disable,"ax",%progbits
 1025              		.align	1
 1026              		.global	sdio_interrupt_disable
 1027              		.syntax unified
 1028              		.thumb
 1029              		.thumb_func
 1031              	sdio_interrupt_disable:
 1032              	.LVL42:
 1033              	.LFB84:
 536:../system/src/gd32f10x/gd32f10x_sdio.c **** 
 537:../system/src/gd32f10x/gd32f10x_sdio.c **** /*!
 538:../system/src/gd32f10x/gd32f10x_sdio.c ****     \brief      disable the SDIO interrupt
 539:../system/src/gd32f10x/gd32f10x_sdio.c ****     \param[in]  int_flag: interrupt flags state of SDIO
 540:../system/src/gd32f10x/gd32f10x_sdio.c ****                 one or more parameters can be selected which are shown as below:
 541:../system/src/gd32f10x/gd32f10x_sdio.c ****       \arg        SDIO_INT_CCRCERR: SDIO CCRCERR interrupt
 542:../system/src/gd32f10x/gd32f10x_sdio.c ****       \arg        SDIO_INT_DTCRCERR: SDIO DTCRCERR interrupt
 543:../system/src/gd32f10x/gd32f10x_sdio.c ****       \arg        SDIO_INT_CMDTMOUT: SDIO CMDTMOUT interrupt
 544:../system/src/gd32f10x/gd32f10x_sdio.c ****       \arg        SDIO_INT_DTTMOUT: SDIO DTTMOUT interrupt
 545:../system/src/gd32f10x/gd32f10x_sdio.c ****       \arg        SDIO_INT_TXURE: SDIO TXURE interrupt
 546:../system/src/gd32f10x/gd32f10x_sdio.c ****       \arg        SDIO_INT_RXORE: SDIO RXORE interrupt
 547:../system/src/gd32f10x/gd32f10x_sdio.c ****       \arg        SDIO_INT_CMDRECV: SDIO CMDRECV interrupt
 548:../system/src/gd32f10x/gd32f10x_sdio.c ****       \arg        SDIO_INT_CMDSEND: SDIO CMDSEND interrupt
 549:../system/src/gd32f10x/gd32f10x_sdio.c ****       \arg        SDIO_INT_DTEND: SDIO DTEND interrupt
 550:../system/src/gd32f10x/gd32f10x_sdio.c ****       \arg        SDIO_INT_STBITE: SDIO STBITE interrupt
 551:../system/src/gd32f10x/gd32f10x_sdio.c ****       \arg        SDIO_INT_DTBLKEND: SDIO DTBLKEND interrupt
 552:../system/src/gd32f10x/gd32f10x_sdio.c ****       \arg        SDIO_INT_CMDRUN: SDIO CMDRUN interrupt
 553:../system/src/gd32f10x/gd32f10x_sdio.c ****       \arg        SDIO_INT_TXRUN: SDIO TXRUN interrupt
 554:../system/src/gd32f10x/gd32f10x_sdio.c ****       \arg        SDIO_INT_RXRUN: SDIO RXRUN interrupt
 555:../system/src/gd32f10x/gd32f10x_sdio.c ****       \arg        SDIO_INT_TFH: SDIO TFH interrupt
 556:../system/src/gd32f10x/gd32f10x_sdio.c ****       \arg        SDIO_INT_RFH: SDIO RFH interrupt
 557:../system/src/gd32f10x/gd32f10x_sdio.c ****       \arg        SDIO_INT_TFF: SDIO TFF interrupt
 558:../system/src/gd32f10x/gd32f10x_sdio.c ****       \arg        SDIO_INT_RFF: SDIO RFF interrupt
 559:../system/src/gd32f10x/gd32f10x_sdio.c ****       \arg        SDIO_INT_TFE: SDIO TFE interrupt
 560:../system/src/gd32f10x/gd32f10x_sdio.c ****       \arg        SDIO_INT_RFE: SDIO RFE interrupt
 561:../system/src/gd32f10x/gd32f10x_sdio.c ****       \arg        SDIO_INT_TXDTVAL: SDIO TXDTVAL interrupt
 562:../system/src/gd32f10x/gd32f10x_sdio.c ****       \arg        SDIO_INT_RXDTVAL: SDIO RXDTVAL interrupt
 563:../system/src/gd32f10x/gd32f10x_sdio.c ****       \arg        SDIO_INT_SDIOINT: SDIO SDIOINT interrupt
 564:../system/src/gd32f10x/gd32f10x_sdio.c ****       \arg        SDIO_INT_ATAEND: SDIO ATAEND interrupt
 565:../system/src/gd32f10x/gd32f10x_sdio.c ****     \param[out] none
 566:../system/src/gd32f10x/gd32f10x_sdio.c ****     \retval     none
 567:../system/src/gd32f10x/gd32f10x_sdio.c **** */
 568:../system/src/gd32f10x/gd32f10x_sdio.c **** void sdio_interrupt_disable(uint32_t int_flag)
 569:../system/src/gd32f10x/gd32f10x_sdio.c **** {
 1034              		.loc 1 569 1 is_stmt 1 view -0
 1035              		.cfi_startproc
 1036              		@ args = 0, pretend = 0, frame = 0
 1037              		@ frame_needed = 0, uses_anonymous_args = 0
 1038              		@ link register save eliminated.
 570:../system/src/gd32f10x/gd32f10x_sdio.c ****     SDIO_INTEN &= ~int_flag;
 1039              		.loc 1 570 5 view .LVU196
 1040 0000 024A     		ldr	r2, .L98
 1041 0002 D36B     		ldr	r3, [r2, #60]
 1042              		.loc 1 570 16 is_stmt 0 view .LVU197
 1043 0004 23EA0003 		bic	r3, r3, r0
 1044 0008 D363     		str	r3, [r2, #60]
 571:../system/src/gd32f10x/gd32f10x_sdio.c **** }
 1045              		.loc 1 571 1 view .LVU198
 1046 000a 7047     		bx	lr
 1047              	.L99:
 1048              		.align	2
 1049              	.L98:
 1050 000c 00800140 		.word	1073840128
 1051              		.cfi_endproc
 1052              	.LFE84:
 1054              		.section	.text.sdio_interrupt_flag_get,"ax",%progbits
 1055              		.align	1
 1056              		.global	sdio_interrupt_flag_get
 1057              		.syntax unified
 1058              		.thumb
 1059              		.thumb_func
 1061              	sdio_interrupt_flag_get:
 1062              	.LVL43:
 1063              	.LFB85:
 572:../system/src/gd32f10x/gd32f10x_sdio.c **** 
 573:../system/src/gd32f10x/gd32f10x_sdio.c **** /*!
 574:../system/src/gd32f10x/gd32f10x_sdio.c ****     \brief      get the interrupt flags state of SDIO
 575:../system/src/gd32f10x/gd32f10x_sdio.c ****     \param[in]  int_flag: interrupt flags state of SDIO
 576:../system/src/gd32f10x/gd32f10x_sdio.c ****                 one or more parameters can be selected which are shown as below:
 577:../system/src/gd32f10x/gd32f10x_sdio.c ****       \arg        SDIO_INT_FLAG_CCRCERR: SDIO CCRCERR interrupt flag
 578:../system/src/gd32f10x/gd32f10x_sdio.c ****       \arg        SDIO_INT_FLAG_DTCRCERR: SDIO DTCRCERR interrupt flag
 579:../system/src/gd32f10x/gd32f10x_sdio.c ****       \arg        SDIO_INT_FLAG_CMDTMOUT: SDIO CMDTMOUT interrupt flag
 580:../system/src/gd32f10x/gd32f10x_sdio.c ****       \arg        SDIO_INT_FLAG_DTTMOUT: SDIO DTTMOUT interrupt flag
 581:../system/src/gd32f10x/gd32f10x_sdio.c ****       \arg        SDIO_INT_FLAG_TXURE: SDIO TXURE interrupt flag
 582:../system/src/gd32f10x/gd32f10x_sdio.c ****       \arg        SDIO_INT_FLAG_RXORE: SDIO RXORE interrupt flag
 583:../system/src/gd32f10x/gd32f10x_sdio.c ****       \arg        SDIO_INT_FLAG_CMDRECV: SDIO CMDRECV interrupt flag
 584:../system/src/gd32f10x/gd32f10x_sdio.c ****       \arg        SDIO_INT_FLAG_CMDSEND: SDIO CMDSEND interrupt flag
 585:../system/src/gd32f10x/gd32f10x_sdio.c ****       \arg        SDIO_INT_FLAG_DTEND: SDIO DTEND interrupt flag
 586:../system/src/gd32f10x/gd32f10x_sdio.c ****       \arg        SDIO_INT_FLAG_STBITE: SDIO STBITE interrupt flag
 587:../system/src/gd32f10x/gd32f10x_sdio.c ****       \arg        SDIO_INT_FLAG_DTBLKEND: SDIO DTBLKEND interrupt flag
 588:../system/src/gd32f10x/gd32f10x_sdio.c ****       \arg        SDIO_INT_FLAG_CMDRUN: SDIO CMDRUN interrupt flag
 589:../system/src/gd32f10x/gd32f10x_sdio.c ****       \arg        SDIO_INT_FLAG_TXRUN: SDIO TXRUN interrupt flag
 590:../system/src/gd32f10x/gd32f10x_sdio.c ****       \arg        SDIO_INT_FLAG_RXRUN: SDIO RXRUN interrupt flag
 591:../system/src/gd32f10x/gd32f10x_sdio.c ****       \arg        SDIO_INT_FLAG_TFH: SDIO TFH interrupt flag
 592:../system/src/gd32f10x/gd32f10x_sdio.c ****       \arg        SDIO_INT_FLAG_RFH: SDIO RFH interrupt flag
 593:../system/src/gd32f10x/gd32f10x_sdio.c ****       \arg        SDIO_INT_FLAG_TFF: SDIO TFF interrupt flag
 594:../system/src/gd32f10x/gd32f10x_sdio.c ****       \arg        SDIO_INT_FLAG_RFF: SDIO RFF interrupt flag
 595:../system/src/gd32f10x/gd32f10x_sdio.c ****       \arg        SDIO_INT_FLAG_TFE: SDIO TFE interrupt flag
 596:../system/src/gd32f10x/gd32f10x_sdio.c ****       \arg        SDIO_INT_FLAG_RFE: SDIO RFE interrupt flag
 597:../system/src/gd32f10x/gd32f10x_sdio.c ****       \arg        SDIO_INT_FLAG_TXDTVAL: SDIO TXDTVAL interrupt flag
 598:../system/src/gd32f10x/gd32f10x_sdio.c ****       \arg        SDIO_INT_FLAG_RXDTVAL: SDIO RXDTVAL interrupt flag
 599:../system/src/gd32f10x/gd32f10x_sdio.c ****       \arg        SDIO_INT_FLAG_SDIOINT: SDIO SDIOINT interrupt flag
 600:../system/src/gd32f10x/gd32f10x_sdio.c ****       \arg        SDIO_INT_FLAG_ATAEND: SDIO ATAEND interrupt flag
 601:../system/src/gd32f10x/gd32f10x_sdio.c ****     \param[out] none
 602:../system/src/gd32f10x/gd32f10x_sdio.c ****     \retval     FlagStatus: SET or RESET
 603:../system/src/gd32f10x/gd32f10x_sdio.c **** */
 604:../system/src/gd32f10x/gd32f10x_sdio.c **** FlagStatus sdio_interrupt_flag_get(uint32_t int_flag)
 605:../system/src/gd32f10x/gd32f10x_sdio.c **** {
 1064              		.loc 1 605 1 is_stmt 1 view -0
 1065              		.cfi_startproc
 1066              		@ args = 0, pretend = 0, frame = 0
 1067              		@ frame_needed = 0, uses_anonymous_args = 0
 1068              		@ link register save eliminated.
 606:../system/src/gd32f10x/gd32f10x_sdio.c ****     if(RESET != (SDIO_STAT & int_flag)){
 1069              		.loc 1 606 5 view .LVU200
 1070              		.loc 1 606 18 is_stmt 0 view .LVU201
 1071 0000 034B     		ldr	r3, .L103
 1072 0002 5B6B     		ldr	r3, [r3, #52]
 1073              		.loc 1 606 7 view .LVU202
 1074 0004 0342     		tst	r3, r0
 1075 0006 01D1     		bne	.L102
 607:../system/src/gd32f10x/gd32f10x_sdio.c ****         return SET;
 608:../system/src/gd32f10x/gd32f10x_sdio.c ****     }
 609:../system/src/gd32f10x/gd32f10x_sdio.c ****     return RESET;
 1076              		.loc 1 609 12 view .LVU203
 1077 0008 0020     		movs	r0, #0
 1078              	.LVL44:
 1079              		.loc 1 609 12 view .LVU204
 1080 000a 7047     		bx	lr
 1081              	.LVL45:
 1082              	.L102:
 607:../system/src/gd32f10x/gd32f10x_sdio.c ****         return SET;
 1083              		.loc 1 607 16 view .LVU205
 1084 000c 0120     		movs	r0, #1
 1085              	.LVL46:
 610:../system/src/gd32f10x/gd32f10x_sdio.c **** }
 1086              		.loc 1 610 1 view .LVU206
 1087 000e 7047     		bx	lr
 1088              	.L104:
 1089              		.align	2
 1090              	.L103:
 1091 0010 00800140 		.word	1073840128
 1092              		.cfi_endproc
 1093              	.LFE85:
 1095              		.section	.text.sdio_interrupt_flag_clear,"ax",%progbits
 1096              		.align	1
 1097              		.global	sdio_interrupt_flag_clear
 1098              		.syntax unified
 1099              		.thumb
 1100              		.thumb_func
 1102              	sdio_interrupt_flag_clear:
 1103              	.LVL47:
 1104              	.LFB86:
 611:../system/src/gd32f10x/gd32f10x_sdio.c **** 
 612:../system/src/gd32f10x/gd32f10x_sdio.c **** /*!
 613:../system/src/gd32f10x/gd32f10x_sdio.c ****     \brief      clear the interrupt pending flags of SDIO
 614:../system/src/gd32f10x/gd32f10x_sdio.c ****     \param[in]  int_flag: interrupt flags state of SDIO
 615:../system/src/gd32f10x/gd32f10x_sdio.c ****                 one or more parameters can be selected which are shown as below:
 616:../system/src/gd32f10x/gd32f10x_sdio.c ****       \arg        SDIO_INT_FLAG_CCRCERR: command response received (CRC check failed) flag
 617:../system/src/gd32f10x/gd32f10x_sdio.c ****       \arg        SDIO_INT_FLAG_DTCRCERR: data block sent/received (CRC check failed) flag
 618:../system/src/gd32f10x/gd32f10x_sdio.c ****       \arg        SDIO_INT_FLAG_CMDTMOUT: command response timeout flag
 619:../system/src/gd32f10x/gd32f10x_sdio.c ****       \arg        SDIO_INT_FLAG_DTTMOUT: data timeout flag
 620:../system/src/gd32f10x/gd32f10x_sdio.c ****       \arg        SDIO_INT_FLAG_TXURE: transmit FIFO underrun error occurs flag
 621:../system/src/gd32f10x/gd32f10x_sdio.c ****       \arg        SDIO_INT_FLAG_RXORE: received FIFO overrun error occurs flag
 622:../system/src/gd32f10x/gd32f10x_sdio.c ****       \arg        SDIO_INT_FLAG_CMDRECV: command response received (CRC check passed) flag
 623:../system/src/gd32f10x/gd32f10x_sdio.c ****       \arg        SDIO_INT_FLAG_CMDSEND: command sent (no response required) flag
 624:../system/src/gd32f10x/gd32f10x_sdio.c ****       \arg        SDIO_INT_FLAG_DTEND: data end (data counter, SDIO_DATACNT, is zero) flag
 625:../system/src/gd32f10x/gd32f10x_sdio.c ****       \arg        SDIO_INT_FLAG_STBITE: start bit error in the bus flag
 626:../system/src/gd32f10x/gd32f10x_sdio.c ****       \arg        SDIO_INT_FLAG_DTBLKEND: data block sent/received (CRC check passed) flag
 627:../system/src/gd32f10x/gd32f10x_sdio.c ****       \arg        SDIO_INT_FLAG_SDIOINT: SD I/O interrupt received flag
 628:../system/src/gd32f10x/gd32f10x_sdio.c ****       \arg        SDIO_INT_FLAG_ATAEND: CE-ATA command completion signal received (only for CMD61) 
 629:../system/src/gd32f10x/gd32f10x_sdio.c ****     \param[out] none
 630:../system/src/gd32f10x/gd32f10x_sdio.c ****     \retval     none
 631:../system/src/gd32f10x/gd32f10x_sdio.c **** */
 632:../system/src/gd32f10x/gd32f10x_sdio.c **** void sdio_interrupt_flag_clear(uint32_t int_flag)
 633:../system/src/gd32f10x/gd32f10x_sdio.c **** {
 1105              		.loc 1 633 1 is_stmt 1 view -0
 1106              		.cfi_startproc
 1107              		@ args = 0, pretend = 0, frame = 0
 1108              		@ frame_needed = 0, uses_anonymous_args = 0
 1109              		@ link register save eliminated.
 634:../system/src/gd32f10x/gd32f10x_sdio.c ****     SDIO_INTC = int_flag;
 1110              		.loc 1 634 5 view .LVU208
 1111              		.loc 1 634 15 is_stmt 0 view .LVU209
 1112 0000 014B     		ldr	r3, .L106
 1113 0002 9863     		str	r0, [r3, #56]
 635:../system/src/gd32f10x/gd32f10x_sdio.c **** }
 1114              		.loc 1 635 1 view .LVU210
 1115 0004 7047     		bx	lr
 1116              	.L107:
 1117 0006 00BF     		.align	2
 1118              	.L106:
 1119 0008 00800140 		.word	1073840128
 1120              		.cfi_endproc
 1121              	.LFE86:
 1123              		.section	.text.sdio_readwait_enable,"ax",%progbits
 1124              		.align	1
 1125              		.global	sdio_readwait_enable
 1126              		.syntax unified
 1127              		.thumb
 1128              		.thumb_func
 1130              	sdio_readwait_enable:
 1131              	.LFB87:
 636:../system/src/gd32f10x/gd32f10x_sdio.c **** 
 637:../system/src/gd32f10x/gd32f10x_sdio.c **** /*!
 638:../system/src/gd32f10x/gd32f10x_sdio.c ****     \brief      enable the read wait mode(SD I/O only)
 639:../system/src/gd32f10x/gd32f10x_sdio.c ****     \param[in]  none
 640:../system/src/gd32f10x/gd32f10x_sdio.c ****     \param[out] none
 641:../system/src/gd32f10x/gd32f10x_sdio.c ****     \retval     none
 642:../system/src/gd32f10x/gd32f10x_sdio.c **** */
 643:../system/src/gd32f10x/gd32f10x_sdio.c **** void sdio_readwait_enable(void)
 644:../system/src/gd32f10x/gd32f10x_sdio.c **** {
 1132              		.loc 1 644 1 is_stmt 1 view -0
 1133              		.cfi_startproc
 1134              		@ args = 0, pretend = 0, frame = 0
 1135              		@ frame_needed = 0, uses_anonymous_args = 0
 1136              		@ link register save eliminated.
 645:../system/src/gd32f10x/gd32f10x_sdio.c ****     SDIO_DATACTL |= SDIO_DATACTL_RWEN;
 1137              		.loc 1 645 5 view .LVU212
 1138 0000 024A     		ldr	r2, .L109
 1139 0002 D36A     		ldr	r3, [r2, #44]
 1140              		.loc 1 645 18 is_stmt 0 view .LVU213
 1141 0004 43F48073 		orr	r3, r3, #256
 1142 0008 D362     		str	r3, [r2, #44]
 646:../system/src/gd32f10x/gd32f10x_sdio.c **** }
 1143              		.loc 1 646 1 view .LVU214
 1144 000a 7047     		bx	lr
 1145              	.L110:
 1146              		.align	2
 1147              	.L109:
 1148 000c 00800140 		.word	1073840128
 1149              		.cfi_endproc
 1150              	.LFE87:
 1152              		.section	.text.sdio_readwait_disable,"ax",%progbits
 1153              		.align	1
 1154              		.global	sdio_readwait_disable
 1155              		.syntax unified
 1156              		.thumb
 1157              		.thumb_func
 1159              	sdio_readwait_disable:
 1160              	.LFB88:
 647:../system/src/gd32f10x/gd32f10x_sdio.c **** 
 648:../system/src/gd32f10x/gd32f10x_sdio.c **** /*!
 649:../system/src/gd32f10x/gd32f10x_sdio.c ****     \brief      disable the read wait mode(SD I/O only)
 650:../system/src/gd32f10x/gd32f10x_sdio.c ****     \param[in]  none
 651:../system/src/gd32f10x/gd32f10x_sdio.c ****     \param[out] none
 652:../system/src/gd32f10x/gd32f10x_sdio.c ****     \retval     none
 653:../system/src/gd32f10x/gd32f10x_sdio.c **** */
 654:../system/src/gd32f10x/gd32f10x_sdio.c **** void sdio_readwait_disable(void)
 655:../system/src/gd32f10x/gd32f10x_sdio.c **** {
 1161              		.loc 1 655 1 is_stmt 1 view -0
 1162              		.cfi_startproc
 1163              		@ args = 0, pretend = 0, frame = 0
 1164              		@ frame_needed = 0, uses_anonymous_args = 0
 1165              		@ link register save eliminated.
 656:../system/src/gd32f10x/gd32f10x_sdio.c ****     SDIO_DATACTL &= ~SDIO_DATACTL_RWEN;
 1166              		.loc 1 656 5 view .LVU216
 1167 0000 024A     		ldr	r2, .L112
 1168 0002 D36A     		ldr	r3, [r2, #44]
 1169              		.loc 1 656 18 is_stmt 0 view .LVU217
 1170 0004 23F48073 		bic	r3, r3, #256
 1171 0008 D362     		str	r3, [r2, #44]
 657:../system/src/gd32f10x/gd32f10x_sdio.c **** }
 1172              		.loc 1 657 1 view .LVU218
 1173 000a 7047     		bx	lr
 1174              	.L113:
 1175              		.align	2
 1176              	.L112:
 1177 000c 00800140 		.word	1073840128
 1178              		.cfi_endproc
 1179              	.LFE88:
 1181              		.section	.text.sdio_stop_readwait_enable,"ax",%progbits
 1182              		.align	1
 1183              		.global	sdio_stop_readwait_enable
 1184              		.syntax unified
 1185              		.thumb
 1186              		.thumb_func
 1188              	sdio_stop_readwait_enable:
 1189              	.LFB89:
 658:../system/src/gd32f10x/gd32f10x_sdio.c **** 
 659:../system/src/gd32f10x/gd32f10x_sdio.c **** /*!
 660:../system/src/gd32f10x/gd32f10x_sdio.c ****     \brief      enable the function that stop the read wait process(SD I/O only)
 661:../system/src/gd32f10x/gd32f10x_sdio.c ****     \param[in]  none
 662:../system/src/gd32f10x/gd32f10x_sdio.c ****     \param[out] none
 663:../system/src/gd32f10x/gd32f10x_sdio.c ****     \retval     none
 664:../system/src/gd32f10x/gd32f10x_sdio.c **** */
 665:../system/src/gd32f10x/gd32f10x_sdio.c **** void sdio_stop_readwait_enable(void)
 666:../system/src/gd32f10x/gd32f10x_sdio.c **** {
 1190              		.loc 1 666 1 is_stmt 1 view -0
 1191              		.cfi_startproc
 1192              		@ args = 0, pretend = 0, frame = 0
 1193              		@ frame_needed = 0, uses_anonymous_args = 0
 1194              		@ link register save eliminated.
 667:../system/src/gd32f10x/gd32f10x_sdio.c ****     SDIO_DATACTL |= SDIO_DATACTL_RWSTOP;
 1195              		.loc 1 667 5 view .LVU220
 1196 0000 024A     		ldr	r2, .L115
 1197 0002 D36A     		ldr	r3, [r2, #44]
 1198              		.loc 1 667 18 is_stmt 0 view .LVU221
 1199 0004 43F40073 		orr	r3, r3, #512
 1200 0008 D362     		str	r3, [r2, #44]
 668:../system/src/gd32f10x/gd32f10x_sdio.c **** }
 1201              		.loc 1 668 1 view .LVU222
 1202 000a 7047     		bx	lr
 1203              	.L116:
 1204              		.align	2
 1205              	.L115:
 1206 000c 00800140 		.word	1073840128
 1207              		.cfi_endproc
 1208              	.LFE89:
 1210              		.section	.text.sdio_stop_readwait_disable,"ax",%progbits
 1211              		.align	1
 1212              		.global	sdio_stop_readwait_disable
 1213              		.syntax unified
 1214              		.thumb
 1215              		.thumb_func
 1217              	sdio_stop_readwait_disable:
 1218              	.LFB90:
 669:../system/src/gd32f10x/gd32f10x_sdio.c **** 
 670:../system/src/gd32f10x/gd32f10x_sdio.c **** /*!
 671:../system/src/gd32f10x/gd32f10x_sdio.c ****     \brief      disable the function that stop the read wait process(SD I/O only)
 672:../system/src/gd32f10x/gd32f10x_sdio.c ****     \param[in]  none
 673:../system/src/gd32f10x/gd32f10x_sdio.c ****     \param[out] none
 674:../system/src/gd32f10x/gd32f10x_sdio.c ****     \retval     none
 675:../system/src/gd32f10x/gd32f10x_sdio.c **** */
 676:../system/src/gd32f10x/gd32f10x_sdio.c **** void sdio_stop_readwait_disable(void)
 677:../system/src/gd32f10x/gd32f10x_sdio.c **** {
 1219              		.loc 1 677 1 is_stmt 1 view -0
 1220              		.cfi_startproc
 1221              		@ args = 0, pretend = 0, frame = 0
 1222              		@ frame_needed = 0, uses_anonymous_args = 0
 1223              		@ link register save eliminated.
 678:../system/src/gd32f10x/gd32f10x_sdio.c ****     SDIO_DATACTL &= ~SDIO_DATACTL_RWSTOP;
 1224              		.loc 1 678 5 view .LVU224
 1225 0000 024A     		ldr	r2, .L118
 1226 0002 D36A     		ldr	r3, [r2, #44]
 1227              		.loc 1 678 18 is_stmt 0 view .LVU225
 1228 0004 23F40073 		bic	r3, r3, #512
 1229 0008 D362     		str	r3, [r2, #44]
 679:../system/src/gd32f10x/gd32f10x_sdio.c **** }
 1230              		.loc 1 679 1 view .LVU226
 1231 000a 7047     		bx	lr
 1232              	.L119:
 1233              		.align	2
 1234              	.L118:
 1235 000c 00800140 		.word	1073840128
 1236              		.cfi_endproc
 1237              	.LFE90:
 1239              		.section	.text.sdio_readwait_type_set,"ax",%progbits
 1240              		.align	1
 1241              		.global	sdio_readwait_type_set
 1242              		.syntax unified
 1243              		.thumb
 1244              		.thumb_func
 1246              	sdio_readwait_type_set:
 1247              	.LVL48:
 1248              	.LFB91:
 680:../system/src/gd32f10x/gd32f10x_sdio.c **** 
 681:../system/src/gd32f10x/gd32f10x_sdio.c **** /*!
 682:../system/src/gd32f10x/gd32f10x_sdio.c ****     \brief      set the read wait type(SD I/O only)
 683:../system/src/gd32f10x/gd32f10x_sdio.c ****     \param[in]  readwait_type: SD I/O read wait type
 684:../system/src/gd32f10x/gd32f10x_sdio.c ****                 only one parameter can be selected which is shown as below:
 685:../system/src/gd32f10x/gd32f10x_sdio.c ****       \arg        SDIO_READWAITTYPE_CLK: read wait control by stopping SDIO_CLK
 686:../system/src/gd32f10x/gd32f10x_sdio.c ****       \arg        SDIO_READWAITTYPE_DAT2: read wait control using SDIO_DAT[2]
 687:../system/src/gd32f10x/gd32f10x_sdio.c ****     \param[out] none
 688:../system/src/gd32f10x/gd32f10x_sdio.c ****     \retval     none
 689:../system/src/gd32f10x/gd32f10x_sdio.c **** */
 690:../system/src/gd32f10x/gd32f10x_sdio.c **** void sdio_readwait_type_set(uint32_t readwait_type)
 691:../system/src/gd32f10x/gd32f10x_sdio.c **** {
 1249              		.loc 1 691 1 is_stmt 1 view -0
 1250              		.cfi_startproc
 1251              		@ args = 0, pretend = 0, frame = 0
 1252              		@ frame_needed = 0, uses_anonymous_args = 0
 1253              		@ link register save eliminated.
 692:../system/src/gd32f10x/gd32f10x_sdio.c ****     if(SDIO_READWAITTYPE_CLK == readwait_type){
 1254              		.loc 1 692 5 view .LVU228
 1255              		.loc 1 692 7 is_stmt 0 view .LVU229
 1256 0000 B0F5806F 		cmp	r0, #1024
 1257 0004 05D0     		beq	.L123
 693:../system/src/gd32f10x/gd32f10x_sdio.c ****         SDIO_DATACTL |= SDIO_DATACTL_RWTYPE;
 694:../system/src/gd32f10x/gd32f10x_sdio.c ****     }else{
 695:../system/src/gd32f10x/gd32f10x_sdio.c ****         SDIO_DATACTL &= ~SDIO_DATACTL_RWTYPE;
 1258              		.loc 1 695 9 is_stmt 1 view .LVU230
 1259 0006 064A     		ldr	r2, .L124
 1260 0008 D36A     		ldr	r3, [r2, #44]
 1261              		.loc 1 695 22 is_stmt 0 view .LVU231
 1262 000a 23F48063 		bic	r3, r3, #1024
 1263 000e D362     		str	r3, [r2, #44]
 696:../system/src/gd32f10x/gd32f10x_sdio.c ****     }
 697:../system/src/gd32f10x/gd32f10x_sdio.c **** }
 1264              		.loc 1 697 1 view .LVU232
 1265 0010 7047     		bx	lr
 1266              	.L123:
 693:../system/src/gd32f10x/gd32f10x_sdio.c ****         SDIO_DATACTL |= SDIO_DATACTL_RWTYPE;
 1267              		.loc 1 693 9 is_stmt 1 view .LVU233
 1268 0012 034A     		ldr	r2, .L124
 1269 0014 D36A     		ldr	r3, [r2, #44]
 693:../system/src/gd32f10x/gd32f10x_sdio.c ****         SDIO_DATACTL |= SDIO_DATACTL_RWTYPE;
 1270              		.loc 1 693 22 is_stmt 0 view .LVU234
 1271 0016 43F48063 		orr	r3, r3, #1024
 1272 001a D362     		str	r3, [r2, #44]
 1273 001c 7047     		bx	lr
 1274              	.L125:
 1275 001e 00BF     		.align	2
 1276              	.L124:
 1277 0020 00800140 		.word	1073840128
 1278              		.cfi_endproc
 1279              	.LFE91:
 1281              		.section	.text.sdio_operation_enable,"ax",%progbits
 1282              		.align	1
 1283              		.global	sdio_operation_enable
 1284              		.syntax unified
 1285              		.thumb
 1286              		.thumb_func
 1288              	sdio_operation_enable:
 1289              	.LFB92:
 698:../system/src/gd32f10x/gd32f10x_sdio.c **** 
 699:../system/src/gd32f10x/gd32f10x_sdio.c **** /*!
 700:../system/src/gd32f10x/gd32f10x_sdio.c ****     \brief      enable the SD I/O mode specific operation(SD I/O only)
 701:../system/src/gd32f10x/gd32f10x_sdio.c ****     \param[in]  none
 702:../system/src/gd32f10x/gd32f10x_sdio.c ****     \param[out] none
 703:../system/src/gd32f10x/gd32f10x_sdio.c ****     \retval     none
 704:../system/src/gd32f10x/gd32f10x_sdio.c **** */
 705:../system/src/gd32f10x/gd32f10x_sdio.c **** void sdio_operation_enable(void)
 706:../system/src/gd32f10x/gd32f10x_sdio.c **** {
 1290              		.loc 1 706 1 is_stmt 1 view -0
 1291              		.cfi_startproc
 1292              		@ args = 0, pretend = 0, frame = 0
 1293              		@ frame_needed = 0, uses_anonymous_args = 0
 1294              		@ link register save eliminated.
 707:../system/src/gd32f10x/gd32f10x_sdio.c ****     SDIO_DATACTL |= SDIO_DATACTL_IOEN;
 1295              		.loc 1 707 5 view .LVU236
 1296 0000 024A     		ldr	r2, .L127
 1297 0002 D36A     		ldr	r3, [r2, #44]
 1298              		.loc 1 707 18 is_stmt 0 view .LVU237
 1299 0004 43F40063 		orr	r3, r3, #2048
 1300 0008 D362     		str	r3, [r2, #44]
 708:../system/src/gd32f10x/gd32f10x_sdio.c **** }
 1301              		.loc 1 708 1 view .LVU238
 1302 000a 7047     		bx	lr
 1303              	.L128:
 1304              		.align	2
 1305              	.L127:
 1306 000c 00800140 		.word	1073840128
 1307              		.cfi_endproc
 1308              	.LFE92:
 1310              		.section	.text.sdio_operation_disable,"ax",%progbits
 1311              		.align	1
 1312              		.global	sdio_operation_disable
 1313              		.syntax unified
 1314              		.thumb
 1315              		.thumb_func
 1317              	sdio_operation_disable:
 1318              	.LFB93:
 709:../system/src/gd32f10x/gd32f10x_sdio.c **** 
 710:../system/src/gd32f10x/gd32f10x_sdio.c **** /*!
 711:../system/src/gd32f10x/gd32f10x_sdio.c ****     \brief      disable the SD I/O mode specific operation(SD I/O only)
 712:../system/src/gd32f10x/gd32f10x_sdio.c ****     \param[in]  none
 713:../system/src/gd32f10x/gd32f10x_sdio.c ****     \param[out] none
 714:../system/src/gd32f10x/gd32f10x_sdio.c ****     \retval     none
 715:../system/src/gd32f10x/gd32f10x_sdio.c **** */
 716:../system/src/gd32f10x/gd32f10x_sdio.c **** void sdio_operation_disable(void)
 717:../system/src/gd32f10x/gd32f10x_sdio.c **** {
 1319              		.loc 1 717 1 is_stmt 1 view -0
 1320              		.cfi_startproc
 1321              		@ args = 0, pretend = 0, frame = 0
 1322              		@ frame_needed = 0, uses_anonymous_args = 0
 1323              		@ link register save eliminated.
 718:../system/src/gd32f10x/gd32f10x_sdio.c ****     SDIO_DATACTL &= ~SDIO_DATACTL_IOEN;
 1324              		.loc 1 718 5 view .LVU240
 1325 0000 024A     		ldr	r2, .L130
 1326 0002 D36A     		ldr	r3, [r2, #44]
 1327              		.loc 1 718 18 is_stmt 0 view .LVU241
 1328 0004 23F40063 		bic	r3, r3, #2048
 1329 0008 D362     		str	r3, [r2, #44]
 719:../system/src/gd32f10x/gd32f10x_sdio.c **** }
 1330              		.loc 1 719 1 view .LVU242
 1331 000a 7047     		bx	lr
 1332              	.L131:
 1333              		.align	2
 1334              	.L130:
 1335 000c 00800140 		.word	1073840128
 1336              		.cfi_endproc
 1337              	.LFE93:
 1339              		.section	.text.sdio_suspend_enable,"ax",%progbits
 1340              		.align	1
 1341              		.global	sdio_suspend_enable
 1342              		.syntax unified
 1343              		.thumb
 1344              		.thumb_func
 1346              	sdio_suspend_enable:
 1347              	.LFB94:
 720:../system/src/gd32f10x/gd32f10x_sdio.c **** 
 721:../system/src/gd32f10x/gd32f10x_sdio.c **** /*!
 722:../system/src/gd32f10x/gd32f10x_sdio.c ****     \brief      enable the SD I/O suspend operation(SD I/O only)
 723:../system/src/gd32f10x/gd32f10x_sdio.c ****     \param[in]  none
 724:../system/src/gd32f10x/gd32f10x_sdio.c ****     \param[out] none
 725:../system/src/gd32f10x/gd32f10x_sdio.c ****     \retval     none
 726:../system/src/gd32f10x/gd32f10x_sdio.c **** */
 727:../system/src/gd32f10x/gd32f10x_sdio.c **** void sdio_suspend_enable(void)
 728:../system/src/gd32f10x/gd32f10x_sdio.c **** {
 1348              		.loc 1 728 1 is_stmt 1 view -0
 1349              		.cfi_startproc
 1350              		@ args = 0, pretend = 0, frame = 0
 1351              		@ frame_needed = 0, uses_anonymous_args = 0
 1352              		@ link register save eliminated.
 729:../system/src/gd32f10x/gd32f10x_sdio.c ****     SDIO_CMDCTL |= SDIO_CMDCTL_SUSPEND;
 1353              		.loc 1 729 5 view .LVU244
 1354 0000 024A     		ldr	r2, .L133
 1355 0002 D368     		ldr	r3, [r2, #12]
 1356              		.loc 1 729 17 is_stmt 0 view .LVU245
 1357 0004 43F40063 		orr	r3, r3, #2048
 1358 0008 D360     		str	r3, [r2, #12]
 730:../system/src/gd32f10x/gd32f10x_sdio.c **** }
 1359              		.loc 1 730 1 view .LVU246
 1360 000a 7047     		bx	lr
 1361              	.L134:
 1362              		.align	2
 1363              	.L133:
 1364 000c 00800140 		.word	1073840128
 1365              		.cfi_endproc
 1366              	.LFE94:
 1368              		.section	.text.sdio_suspend_disable,"ax",%progbits
 1369              		.align	1
 1370              		.global	sdio_suspend_disable
 1371              		.syntax unified
 1372              		.thumb
 1373              		.thumb_func
 1375              	sdio_suspend_disable:
 1376              	.LFB95:
 731:../system/src/gd32f10x/gd32f10x_sdio.c **** 
 732:../system/src/gd32f10x/gd32f10x_sdio.c **** /*!
 733:../system/src/gd32f10x/gd32f10x_sdio.c ****     \brief      disable the SD I/O suspend operation(SD I/O only)
 734:../system/src/gd32f10x/gd32f10x_sdio.c ****     \param[in]  none
 735:../system/src/gd32f10x/gd32f10x_sdio.c ****     \param[out] none
 736:../system/src/gd32f10x/gd32f10x_sdio.c ****     \retval     none
 737:../system/src/gd32f10x/gd32f10x_sdio.c **** */
 738:../system/src/gd32f10x/gd32f10x_sdio.c **** void sdio_suspend_disable(void)
 739:../system/src/gd32f10x/gd32f10x_sdio.c **** {
 1377              		.loc 1 739 1 is_stmt 1 view -0
 1378              		.cfi_startproc
 1379              		@ args = 0, pretend = 0, frame = 0
 1380              		@ frame_needed = 0, uses_anonymous_args = 0
 1381              		@ link register save eliminated.
 740:../system/src/gd32f10x/gd32f10x_sdio.c ****     SDIO_CMDCTL &= ~SDIO_CMDCTL_SUSPEND;
 1382              		.loc 1 740 5 view .LVU248
 1383 0000 024A     		ldr	r2, .L136
 1384 0002 D368     		ldr	r3, [r2, #12]
 1385              		.loc 1 740 17 is_stmt 0 view .LVU249
 1386 0004 23F40063 		bic	r3, r3, #2048
 1387 0008 D360     		str	r3, [r2, #12]
 741:../system/src/gd32f10x/gd32f10x_sdio.c **** }
 1388              		.loc 1 741 1 view .LVU250
 1389 000a 7047     		bx	lr
 1390              	.L137:
 1391              		.align	2
 1392              	.L136:
 1393 000c 00800140 		.word	1073840128
 1394              		.cfi_endproc
 1395              	.LFE95:
 1397              		.section	.text.sdio_ceata_command_enable,"ax",%progbits
 1398              		.align	1
 1399              		.global	sdio_ceata_command_enable
 1400              		.syntax unified
 1401              		.thumb
 1402              		.thumb_func
 1404              	sdio_ceata_command_enable:
 1405              	.LFB96:
 742:../system/src/gd32f10x/gd32f10x_sdio.c **** 
 743:../system/src/gd32f10x/gd32f10x_sdio.c **** /*!
 744:../system/src/gd32f10x/gd32f10x_sdio.c ****     \brief      enable the CE-ATA command(CE-ATA only)
 745:../system/src/gd32f10x/gd32f10x_sdio.c ****     \param[in]  none
 746:../system/src/gd32f10x/gd32f10x_sdio.c ****     \param[out] none
 747:../system/src/gd32f10x/gd32f10x_sdio.c ****     \retval     none
 748:../system/src/gd32f10x/gd32f10x_sdio.c **** */
 749:../system/src/gd32f10x/gd32f10x_sdio.c **** void sdio_ceata_command_enable(void)
 750:../system/src/gd32f10x/gd32f10x_sdio.c **** {
 1406              		.loc 1 750 1 is_stmt 1 view -0
 1407              		.cfi_startproc
 1408              		@ args = 0, pretend = 0, frame = 0
 1409              		@ frame_needed = 0, uses_anonymous_args = 0
 1410              		@ link register save eliminated.
 751:../system/src/gd32f10x/gd32f10x_sdio.c ****     SDIO_CMDCTL |= SDIO_CMDCTL_ATAEN;
 1411              		.loc 1 751 5 view .LVU252
 1412 0000 024A     		ldr	r2, .L139
 1413 0002 D368     		ldr	r3, [r2, #12]
 1414              		.loc 1 751 17 is_stmt 0 view .LVU253
 1415 0004 43F48043 		orr	r3, r3, #16384
 1416 0008 D360     		str	r3, [r2, #12]
 752:../system/src/gd32f10x/gd32f10x_sdio.c **** }
 1417              		.loc 1 752 1 view .LVU254
 1418 000a 7047     		bx	lr
 1419              	.L140:
 1420              		.align	2
 1421              	.L139:
 1422 000c 00800140 		.word	1073840128
 1423              		.cfi_endproc
 1424              	.LFE96:
 1426              		.section	.text.sdio_ceata_command_disable,"ax",%progbits
 1427              		.align	1
 1428              		.global	sdio_ceata_command_disable
 1429              		.syntax unified
 1430              		.thumb
 1431              		.thumb_func
 1433              	sdio_ceata_command_disable:
 1434              	.LFB97:
 753:../system/src/gd32f10x/gd32f10x_sdio.c **** 
 754:../system/src/gd32f10x/gd32f10x_sdio.c **** /*!
 755:../system/src/gd32f10x/gd32f10x_sdio.c ****     \brief      disable the CE-ATA command(CE-ATA only)
 756:../system/src/gd32f10x/gd32f10x_sdio.c ****     \param[in]  none
 757:../system/src/gd32f10x/gd32f10x_sdio.c ****     \param[out] none
 758:../system/src/gd32f10x/gd32f10x_sdio.c ****     \retval     none
 759:../system/src/gd32f10x/gd32f10x_sdio.c **** */
 760:../system/src/gd32f10x/gd32f10x_sdio.c **** void sdio_ceata_command_disable(void)
 761:../system/src/gd32f10x/gd32f10x_sdio.c **** {
 1435              		.loc 1 761 1 is_stmt 1 view -0
 1436              		.cfi_startproc
 1437              		@ args = 0, pretend = 0, frame = 0
 1438              		@ frame_needed = 0, uses_anonymous_args = 0
 1439              		@ link register save eliminated.
 762:../system/src/gd32f10x/gd32f10x_sdio.c ****     SDIO_CMDCTL &= ~SDIO_CMDCTL_ATAEN;
 1440              		.loc 1 762 5 view .LVU256
 1441 0000 024A     		ldr	r2, .L142
 1442 0002 D368     		ldr	r3, [r2, #12]
 1443              		.loc 1 762 17 is_stmt 0 view .LVU257
 1444 0004 23F48043 		bic	r3, r3, #16384
 1445 0008 D360     		str	r3, [r2, #12]
 763:../system/src/gd32f10x/gd32f10x_sdio.c **** }
 1446              		.loc 1 763 1 view .LVU258
 1447 000a 7047     		bx	lr
 1448              	.L143:
 1449              		.align	2
 1450              	.L142:
 1451 000c 00800140 		.word	1073840128
 1452              		.cfi_endproc
 1453              	.LFE97:
 1455              		.section	.text.sdio_ceata_interrupt_enable,"ax",%progbits
 1456              		.align	1
 1457              		.global	sdio_ceata_interrupt_enable
 1458              		.syntax unified
 1459              		.thumb
 1460              		.thumb_func
 1462              	sdio_ceata_interrupt_enable:
 1463              	.LFB98:
 764:../system/src/gd32f10x/gd32f10x_sdio.c **** 
 765:../system/src/gd32f10x/gd32f10x_sdio.c **** /*!
 766:../system/src/gd32f10x/gd32f10x_sdio.c ****     \brief      enable the CE-ATA interrupt(CE-ATA only)
 767:../system/src/gd32f10x/gd32f10x_sdio.c ****     \param[in]  none
 768:../system/src/gd32f10x/gd32f10x_sdio.c ****     \param[out] none
 769:../system/src/gd32f10x/gd32f10x_sdio.c ****     \retval     none
 770:../system/src/gd32f10x/gd32f10x_sdio.c **** */
 771:../system/src/gd32f10x/gd32f10x_sdio.c **** void sdio_ceata_interrupt_enable(void)
 772:../system/src/gd32f10x/gd32f10x_sdio.c **** {
 1464              		.loc 1 772 1 is_stmt 1 view -0
 1465              		.cfi_startproc
 1466              		@ args = 0, pretend = 0, frame = 0
 1467              		@ frame_needed = 0, uses_anonymous_args = 0
 1468              		@ link register save eliminated.
 773:../system/src/gd32f10x/gd32f10x_sdio.c ****     SDIO_CMDCTL &= ~SDIO_CMDCTL_NINTEN;
 1469              		.loc 1 773 5 view .LVU260
 1470 0000 024A     		ldr	r2, .L145
 1471 0002 D368     		ldr	r3, [r2, #12]
 1472              		.loc 1 773 17 is_stmt 0 view .LVU261
 1473 0004 23F40053 		bic	r3, r3, #8192
 1474 0008 D360     		str	r3, [r2, #12]
 774:../system/src/gd32f10x/gd32f10x_sdio.c **** }
 1475              		.loc 1 774 1 view .LVU262
 1476 000a 7047     		bx	lr
 1477              	.L146:
 1478              		.align	2
 1479              	.L145:
 1480 000c 00800140 		.word	1073840128
 1481              		.cfi_endproc
 1482              	.LFE98:
 1484              		.section	.text.sdio_ceata_interrupt_disable,"ax",%progbits
 1485              		.align	1
 1486              		.global	sdio_ceata_interrupt_disable
 1487              		.syntax unified
 1488              		.thumb
 1489              		.thumb_func
 1491              	sdio_ceata_interrupt_disable:
 1492              	.LFB99:
 775:../system/src/gd32f10x/gd32f10x_sdio.c **** 
 776:../system/src/gd32f10x/gd32f10x_sdio.c **** /*!
 777:../system/src/gd32f10x/gd32f10x_sdio.c ****     \brief      disable the CE-ATA interrupt(CE-ATA only)
 778:../system/src/gd32f10x/gd32f10x_sdio.c ****     \param[in]  none
 779:../system/src/gd32f10x/gd32f10x_sdio.c ****     \param[out] none
 780:../system/src/gd32f10x/gd32f10x_sdio.c ****     \retval     none
 781:../system/src/gd32f10x/gd32f10x_sdio.c **** */
 782:../system/src/gd32f10x/gd32f10x_sdio.c **** void sdio_ceata_interrupt_disable(void)
 783:../system/src/gd32f10x/gd32f10x_sdio.c **** {
 1493              		.loc 1 783 1 is_stmt 1 view -0
 1494              		.cfi_startproc
 1495              		@ args = 0, pretend = 0, frame = 0
 1496              		@ frame_needed = 0, uses_anonymous_args = 0
 1497              		@ link register save eliminated.
 784:../system/src/gd32f10x/gd32f10x_sdio.c ****     SDIO_CMDCTL |= SDIO_CMDCTL_NINTEN;
 1498              		.loc 1 784 5 view .LVU264
 1499 0000 024A     		ldr	r2, .L148
 1500 0002 D368     		ldr	r3, [r2, #12]
 1501              		.loc 1 784 17 is_stmt 0 view .LVU265
 1502 0004 43F40053 		orr	r3, r3, #8192
 1503 0008 D360     		str	r3, [r2, #12]
 785:../system/src/gd32f10x/gd32f10x_sdio.c **** }
 1504              		.loc 1 785 1 view .LVU266
 1505 000a 7047     		bx	lr
 1506              	.L149:
 1507              		.align	2
 1508              	.L148:
 1509 000c 00800140 		.word	1073840128
 1510              		.cfi_endproc
 1511              	.LFE99:
 1513              		.section	.text.sdio_ceata_command_completion_enable,"ax",%progbits
 1514              		.align	1
 1515              		.global	sdio_ceata_command_completion_enable
 1516              		.syntax unified
 1517              		.thumb
 1518              		.thumb_func
 1520              	sdio_ceata_command_completion_enable:
 1521              	.LFB100:
 786:../system/src/gd32f10x/gd32f10x_sdio.c **** 
 787:../system/src/gd32f10x/gd32f10x_sdio.c **** /*!
 788:../system/src/gd32f10x/gd32f10x_sdio.c ****     \brief      enable the CE-ATA command completion signal(CE-ATA only)
 789:../system/src/gd32f10x/gd32f10x_sdio.c ****     \param[in]  none
 790:../system/src/gd32f10x/gd32f10x_sdio.c ****     \param[out] none
 791:../system/src/gd32f10x/gd32f10x_sdio.c ****     \retval     none
 792:../system/src/gd32f10x/gd32f10x_sdio.c **** */
 793:../system/src/gd32f10x/gd32f10x_sdio.c **** void sdio_ceata_command_completion_enable(void)
 794:../system/src/gd32f10x/gd32f10x_sdio.c **** {
 1522              		.loc 1 794 1 is_stmt 1 view -0
 1523              		.cfi_startproc
 1524              		@ args = 0, pretend = 0, frame = 0
 1525              		@ frame_needed = 0, uses_anonymous_args = 0
 1526              		@ link register save eliminated.
 795:../system/src/gd32f10x/gd32f10x_sdio.c ****     SDIO_CMDCTL |= SDIO_CMDCTL_ENCMDC;
 1527              		.loc 1 795 5 view .LVU268
 1528 0000 024A     		ldr	r2, .L151
 1529 0002 D368     		ldr	r3, [r2, #12]
 1530              		.loc 1 795 17 is_stmt 0 view .LVU269
 1531 0004 43F48053 		orr	r3, r3, #4096
 1532 0008 D360     		str	r3, [r2, #12]
 796:../system/src/gd32f10x/gd32f10x_sdio.c **** }
 1533              		.loc 1 796 1 view .LVU270
 1534 000a 7047     		bx	lr
 1535              	.L152:
 1536              		.align	2
 1537              	.L151:
 1538 000c 00800140 		.word	1073840128
 1539              		.cfi_endproc
 1540              	.LFE100:
 1542              		.section	.text.sdio_ceata_command_completion_disable,"ax",%progbits
 1543              		.align	1
 1544              		.global	sdio_ceata_command_completion_disable
 1545              		.syntax unified
 1546              		.thumb
 1547              		.thumb_func
 1549              	sdio_ceata_command_completion_disable:
 1550              	.LFB101:
 797:../system/src/gd32f10x/gd32f10x_sdio.c **** 
 798:../system/src/gd32f10x/gd32f10x_sdio.c **** /*!
 799:../system/src/gd32f10x/gd32f10x_sdio.c ****     \brief      disable the CE-ATA command completion signal(CE-ATA only)
 800:../system/src/gd32f10x/gd32f10x_sdio.c ****     \param[in]  none
 801:../system/src/gd32f10x/gd32f10x_sdio.c ****     \param[out] none
 802:../system/src/gd32f10x/gd32f10x_sdio.c ****     \retval     none
 803:../system/src/gd32f10x/gd32f10x_sdio.c **** */
 804:../system/src/gd32f10x/gd32f10x_sdio.c **** void sdio_ceata_command_completion_disable(void)
 805:../system/src/gd32f10x/gd32f10x_sdio.c **** {
 1551              		.loc 1 805 1 is_stmt 1 view -0
 1552              		.cfi_startproc
 1553              		@ args = 0, pretend = 0, frame = 0
 1554              		@ frame_needed = 0, uses_anonymous_args = 0
 1555              		@ link register save eliminated.
 806:../system/src/gd32f10x/gd32f10x_sdio.c ****     SDIO_CMDCTL &= ~SDIO_CMDCTL_ENCMDC;
 1556              		.loc 1 806 5 view .LVU272
 1557 0000 024A     		ldr	r2, .L154
 1558 0002 D368     		ldr	r3, [r2, #12]
 1559              		.loc 1 806 17 is_stmt 0 view .LVU273
 1560 0004 23F48053 		bic	r3, r3, #4096
 1561 0008 D360     		str	r3, [r2, #12]
 807:../system/src/gd32f10x/gd32f10x_sdio.c **** }
 1562              		.loc 1 807 1 view .LVU274
 1563 000a 7047     		bx	lr
 1564              	.L155:
 1565              		.align	2
 1566              	.L154:
 1567 000c 00800140 		.word	1073840128
 1568              		.cfi_endproc
 1569              	.LFE101:
 1571              		.text
 1572              	.Letext0:
 1573              		.file 2 "c:\\users\\dmitriy\\appdata\\roaming\\xpacks\\@xpack-dev-tools\\arm-none-eabi-gcc\\12.3.1
 1574              		.file 3 "../system/inc/cmsis/gd32f10x.h"
DEFINED SYMBOLS
                            *ABS*:00000000 gd32f10x_sdio.c
C:\Users\Dmitriy\AppData\Local\Temp\cc3alRCd.s:19     .text.sdio_deinit:00000000 $t
C:\Users\Dmitriy\AppData\Local\Temp\cc3alRCd.s:25     .text.sdio_deinit:00000000 sdio_deinit
C:\Users\Dmitriy\AppData\Local\Temp\cc3alRCd.s:66     .text.sdio_deinit:00000018 $d
C:\Users\Dmitriy\AppData\Local\Temp\cc3alRCd.s:71     .text.sdio_clock_config:00000000 $t
C:\Users\Dmitriy\AppData\Local\Temp\cc3alRCd.s:77     .text.sdio_clock_config:00000000 sdio_clock_config
C:\Users\Dmitriy\AppData\Local\Temp\cc3alRCd.s:126    .text.sdio_clock_config:00000020 $d
C:\Users\Dmitriy\AppData\Local\Temp\cc3alRCd.s:131    .text.sdio_hardware_clock_enable:00000000 $t
C:\Users\Dmitriy\AppData\Local\Temp\cc3alRCd.s:137    .text.sdio_hardware_clock_enable:00000000 sdio_hardware_clock_enable
C:\Users\Dmitriy\AppData\Local\Temp\cc3alRCd.s:155    .text.sdio_hardware_clock_enable:0000000c $d
C:\Users\Dmitriy\AppData\Local\Temp\cc3alRCd.s:160    .text.sdio_hardware_clock_disable:00000000 $t
C:\Users\Dmitriy\AppData\Local\Temp\cc3alRCd.s:166    .text.sdio_hardware_clock_disable:00000000 sdio_hardware_clock_disable
C:\Users\Dmitriy\AppData\Local\Temp\cc3alRCd.s:184    .text.sdio_hardware_clock_disable:0000000c $d
C:\Users\Dmitriy\AppData\Local\Temp\cc3alRCd.s:189    .text.sdio_bus_mode_set:00000000 $t
C:\Users\Dmitriy\AppData\Local\Temp\cc3alRCd.s:195    .text.sdio_bus_mode_set:00000000 sdio_bus_mode_set
C:\Users\Dmitriy\AppData\Local\Temp\cc3alRCd.s:219    .text.sdio_bus_mode_set:00000014 $d
C:\Users\Dmitriy\AppData\Local\Temp\cc3alRCd.s:224    .text.sdio_power_state_set:00000000 $t
C:\Users\Dmitriy\AppData\Local\Temp\cc3alRCd.s:230    .text.sdio_power_state_set:00000000 sdio_power_state_set
C:\Users\Dmitriy\AppData\Local\Temp\cc3alRCd.s:247    .text.sdio_power_state_set:00000008 $d
C:\Users\Dmitriy\AppData\Local\Temp\cc3alRCd.s:252    .text.sdio_power_state_get:00000000 $t
C:\Users\Dmitriy\AppData\Local\Temp\cc3alRCd.s:258    .text.sdio_power_state_get:00000000 sdio_power_state_get
C:\Users\Dmitriy\AppData\Local\Temp\cc3alRCd.s:274    .text.sdio_power_state_get:00000008 $d
C:\Users\Dmitriy\AppData\Local\Temp\cc3alRCd.s:279    .text.sdio_clock_enable:00000000 $t
C:\Users\Dmitriy\AppData\Local\Temp\cc3alRCd.s:285    .text.sdio_clock_enable:00000000 sdio_clock_enable
C:\Users\Dmitriy\AppData\Local\Temp\cc3alRCd.s:303    .text.sdio_clock_enable:0000000c $d
C:\Users\Dmitriy\AppData\Local\Temp\cc3alRCd.s:308    .text.sdio_clock_disable:00000000 $t
C:\Users\Dmitriy\AppData\Local\Temp\cc3alRCd.s:314    .text.sdio_clock_disable:00000000 sdio_clock_disable
C:\Users\Dmitriy\AppData\Local\Temp\cc3alRCd.s:332    .text.sdio_clock_disable:0000000c $d
C:\Users\Dmitriy\AppData\Local\Temp\cc3alRCd.s:337    .text.sdio_command_response_config:00000000 $t
C:\Users\Dmitriy\AppData\Local\Temp\cc3alRCd.s:343    .text.sdio_command_response_config:00000000 sdio_command_response_config
C:\Users\Dmitriy\AppData\Local\Temp\cc3alRCd.s:393    .text.sdio_command_response_config:0000001c $d
C:\Users\Dmitriy\AppData\Local\Temp\cc3alRCd.s:398    .text.sdio_wait_type_set:00000000 $t
C:\Users\Dmitriy\AppData\Local\Temp\cc3alRCd.s:404    .text.sdio_wait_type_set:00000000 sdio_wait_type_set
C:\Users\Dmitriy\AppData\Local\Temp\cc3alRCd.s:428    .text.sdio_wait_type_set:00000014 $d
C:\Users\Dmitriy\AppData\Local\Temp\cc3alRCd.s:433    .text.sdio_csm_enable:00000000 $t
C:\Users\Dmitriy\AppData\Local\Temp\cc3alRCd.s:439    .text.sdio_csm_enable:00000000 sdio_csm_enable
C:\Users\Dmitriy\AppData\Local\Temp\cc3alRCd.s:457    .text.sdio_csm_enable:0000000c $d
C:\Users\Dmitriy\AppData\Local\Temp\cc3alRCd.s:462    .text.sdio_csm_disable:00000000 $t
C:\Users\Dmitriy\AppData\Local\Temp\cc3alRCd.s:468    .text.sdio_csm_disable:00000000 sdio_csm_disable
C:\Users\Dmitriy\AppData\Local\Temp\cc3alRCd.s:486    .text.sdio_csm_disable:0000000c $d
C:\Users\Dmitriy\AppData\Local\Temp\cc3alRCd.s:491    .text.sdio_command_index_get:00000000 $t
C:\Users\Dmitriy\AppData\Local\Temp\cc3alRCd.s:497    .text.sdio_command_index_get:00000000 sdio_command_index_get
C:\Users\Dmitriy\AppData\Local\Temp\cc3alRCd.s:514    .text.sdio_command_index_get:00000008 $d
C:\Users\Dmitriy\AppData\Local\Temp\cc3alRCd.s:519    .text.sdio_response_get:00000000 $t
C:\Users\Dmitriy\AppData\Local\Temp\cc3alRCd.s:525    .text.sdio_response_get:00000000 sdio_response_get
C:\Users\Dmitriy\AppData\Local\Temp\cc3alRCd.s:539    .text.sdio_response_get:00000008 $d
C:\Users\Dmitriy\AppData\Local\Temp\cc3alRCd.s:543    .text.sdio_response_get:0000000c $t
C:\Users\Dmitriy\AppData\Local\Temp\cc3alRCd.s:590    .text.sdio_response_get:00000028 $d
C:\Users\Dmitriy\AppData\Local\Temp\cc3alRCd.s:595    .text.sdio_data_config:00000000 $t
C:\Users\Dmitriy\AppData\Local\Temp\cc3alRCd.s:601    .text.sdio_data_config:00000000 sdio_data_config
C:\Users\Dmitriy\AppData\Local\Temp\cc3alRCd.s:650    .text.sdio_data_config:00000028 $d
C:\Users\Dmitriy\AppData\Local\Temp\cc3alRCd.s:655    .text.sdio_data_transfer_config:00000000 $t
C:\Users\Dmitriy\AppData\Local\Temp\cc3alRCd.s:661    .text.sdio_data_transfer_config:00000000 sdio_data_transfer_config
C:\Users\Dmitriy\AppData\Local\Temp\cc3alRCd.s:694    .text.sdio_data_transfer_config:00000010 $d
C:\Users\Dmitriy\AppData\Local\Temp\cc3alRCd.s:699    .text.sdio_dsm_enable:00000000 $t
C:\Users\Dmitriy\AppData\Local\Temp\cc3alRCd.s:705    .text.sdio_dsm_enable:00000000 sdio_dsm_enable
C:\Users\Dmitriy\AppData\Local\Temp\cc3alRCd.s:723    .text.sdio_dsm_enable:0000000c $d
C:\Users\Dmitriy\AppData\Local\Temp\cc3alRCd.s:728    .text.sdio_dsm_disable:00000000 $t
C:\Users\Dmitriy\AppData\Local\Temp\cc3alRCd.s:734    .text.sdio_dsm_disable:00000000 sdio_dsm_disable
C:\Users\Dmitriy\AppData\Local\Temp\cc3alRCd.s:752    .text.sdio_dsm_disable:0000000c $d
C:\Users\Dmitriy\AppData\Local\Temp\cc3alRCd.s:757    .text.sdio_data_write:00000000 $t
C:\Users\Dmitriy\AppData\Local\Temp\cc3alRCd.s:763    .text.sdio_data_write:00000000 sdio_data_write
C:\Users\Dmitriy\AppData\Local\Temp\cc3alRCd.s:780    .text.sdio_data_write:00000008 $d
C:\Users\Dmitriy\AppData\Local\Temp\cc3alRCd.s:785    .text.sdio_data_read:00000000 $t
C:\Users\Dmitriy\AppData\Local\Temp\cc3alRCd.s:791    .text.sdio_data_read:00000000 sdio_data_read
C:\Users\Dmitriy\AppData\Local\Temp\cc3alRCd.s:807    .text.sdio_data_read:00000008 $d
C:\Users\Dmitriy\AppData\Local\Temp\cc3alRCd.s:812    .text.sdio_data_counter_get:00000000 $t
C:\Users\Dmitriy\AppData\Local\Temp\cc3alRCd.s:818    .text.sdio_data_counter_get:00000000 sdio_data_counter_get
C:\Users\Dmitriy\AppData\Local\Temp\cc3alRCd.s:834    .text.sdio_data_counter_get:00000008 $d
C:\Users\Dmitriy\AppData\Local\Temp\cc3alRCd.s:839    .text.sdio_fifo_counter_get:00000000 $t
C:\Users\Dmitriy\AppData\Local\Temp\cc3alRCd.s:845    .text.sdio_fifo_counter_get:00000000 sdio_fifo_counter_get
C:\Users\Dmitriy\AppData\Local\Temp\cc3alRCd.s:861    .text.sdio_fifo_counter_get:00000008 $d
C:\Users\Dmitriy\AppData\Local\Temp\cc3alRCd.s:866    .text.sdio_dma_enable:00000000 $t
C:\Users\Dmitriy\AppData\Local\Temp\cc3alRCd.s:872    .text.sdio_dma_enable:00000000 sdio_dma_enable
C:\Users\Dmitriy\AppData\Local\Temp\cc3alRCd.s:890    .text.sdio_dma_enable:0000000c $d
C:\Users\Dmitriy\AppData\Local\Temp\cc3alRCd.s:895    .text.sdio_dma_disable:00000000 $t
C:\Users\Dmitriy\AppData\Local\Temp\cc3alRCd.s:901    .text.sdio_dma_disable:00000000 sdio_dma_disable
C:\Users\Dmitriy\AppData\Local\Temp\cc3alRCd.s:919    .text.sdio_dma_disable:0000000c $d
C:\Users\Dmitriy\AppData\Local\Temp\cc3alRCd.s:924    .text.sdio_flag_get:00000000 $t
C:\Users\Dmitriy\AppData\Local\Temp\cc3alRCd.s:930    .text.sdio_flag_get:00000000 sdio_flag_get
C:\Users\Dmitriy\AppData\Local\Temp\cc3alRCd.s:962    .text.sdio_flag_get:00000010 $d
C:\Users\Dmitriy\AppData\Local\Temp\cc3alRCd.s:967    .text.sdio_flag_clear:00000000 $t
C:\Users\Dmitriy\AppData\Local\Temp\cc3alRCd.s:973    .text.sdio_flag_clear:00000000 sdio_flag_clear
C:\Users\Dmitriy\AppData\Local\Temp\cc3alRCd.s:990    .text.sdio_flag_clear:00000008 $d
C:\Users\Dmitriy\AppData\Local\Temp\cc3alRCd.s:995    .text.sdio_interrupt_enable:00000000 $t
C:\Users\Dmitriy\AppData\Local\Temp\cc3alRCd.s:1001   .text.sdio_interrupt_enable:00000000 sdio_interrupt_enable
C:\Users\Dmitriy\AppData\Local\Temp\cc3alRCd.s:1020   .text.sdio_interrupt_enable:0000000c $d
C:\Users\Dmitriy\AppData\Local\Temp\cc3alRCd.s:1025   .text.sdio_interrupt_disable:00000000 $t
C:\Users\Dmitriy\AppData\Local\Temp\cc3alRCd.s:1031   .text.sdio_interrupt_disable:00000000 sdio_interrupt_disable
C:\Users\Dmitriy\AppData\Local\Temp\cc3alRCd.s:1050   .text.sdio_interrupt_disable:0000000c $d
C:\Users\Dmitriy\AppData\Local\Temp\cc3alRCd.s:1055   .text.sdio_interrupt_flag_get:00000000 $t
C:\Users\Dmitriy\AppData\Local\Temp\cc3alRCd.s:1061   .text.sdio_interrupt_flag_get:00000000 sdio_interrupt_flag_get
C:\Users\Dmitriy\AppData\Local\Temp\cc3alRCd.s:1091   .text.sdio_interrupt_flag_get:00000010 $d
C:\Users\Dmitriy\AppData\Local\Temp\cc3alRCd.s:1096   .text.sdio_interrupt_flag_clear:00000000 $t
C:\Users\Dmitriy\AppData\Local\Temp\cc3alRCd.s:1102   .text.sdio_interrupt_flag_clear:00000000 sdio_interrupt_flag_clear
C:\Users\Dmitriy\AppData\Local\Temp\cc3alRCd.s:1119   .text.sdio_interrupt_flag_clear:00000008 $d
C:\Users\Dmitriy\AppData\Local\Temp\cc3alRCd.s:1124   .text.sdio_readwait_enable:00000000 $t
C:\Users\Dmitriy\AppData\Local\Temp\cc3alRCd.s:1130   .text.sdio_readwait_enable:00000000 sdio_readwait_enable
C:\Users\Dmitriy\AppData\Local\Temp\cc3alRCd.s:1148   .text.sdio_readwait_enable:0000000c $d
C:\Users\Dmitriy\AppData\Local\Temp\cc3alRCd.s:1153   .text.sdio_readwait_disable:00000000 $t
C:\Users\Dmitriy\AppData\Local\Temp\cc3alRCd.s:1159   .text.sdio_readwait_disable:00000000 sdio_readwait_disable
C:\Users\Dmitriy\AppData\Local\Temp\cc3alRCd.s:1177   .text.sdio_readwait_disable:0000000c $d
C:\Users\Dmitriy\AppData\Local\Temp\cc3alRCd.s:1182   .text.sdio_stop_readwait_enable:00000000 $t
C:\Users\Dmitriy\AppData\Local\Temp\cc3alRCd.s:1188   .text.sdio_stop_readwait_enable:00000000 sdio_stop_readwait_enable
C:\Users\Dmitriy\AppData\Local\Temp\cc3alRCd.s:1206   .text.sdio_stop_readwait_enable:0000000c $d
C:\Users\Dmitriy\AppData\Local\Temp\cc3alRCd.s:1211   .text.sdio_stop_readwait_disable:00000000 $t
C:\Users\Dmitriy\AppData\Local\Temp\cc3alRCd.s:1217   .text.sdio_stop_readwait_disable:00000000 sdio_stop_readwait_disable
C:\Users\Dmitriy\AppData\Local\Temp\cc3alRCd.s:1235   .text.sdio_stop_readwait_disable:0000000c $d
C:\Users\Dmitriy\AppData\Local\Temp\cc3alRCd.s:1240   .text.sdio_readwait_type_set:00000000 $t
C:\Users\Dmitriy\AppData\Local\Temp\cc3alRCd.s:1246   .text.sdio_readwait_type_set:00000000 sdio_readwait_type_set
C:\Users\Dmitriy\AppData\Local\Temp\cc3alRCd.s:1277   .text.sdio_readwait_type_set:00000020 $d
C:\Users\Dmitriy\AppData\Local\Temp\cc3alRCd.s:1282   .text.sdio_operation_enable:00000000 $t
C:\Users\Dmitriy\AppData\Local\Temp\cc3alRCd.s:1288   .text.sdio_operation_enable:00000000 sdio_operation_enable
C:\Users\Dmitriy\AppData\Local\Temp\cc3alRCd.s:1306   .text.sdio_operation_enable:0000000c $d
C:\Users\Dmitriy\AppData\Local\Temp\cc3alRCd.s:1311   .text.sdio_operation_disable:00000000 $t
C:\Users\Dmitriy\AppData\Local\Temp\cc3alRCd.s:1317   .text.sdio_operation_disable:00000000 sdio_operation_disable
C:\Users\Dmitriy\AppData\Local\Temp\cc3alRCd.s:1335   .text.sdio_operation_disable:0000000c $d
C:\Users\Dmitriy\AppData\Local\Temp\cc3alRCd.s:1340   .text.sdio_suspend_enable:00000000 $t
C:\Users\Dmitriy\AppData\Local\Temp\cc3alRCd.s:1346   .text.sdio_suspend_enable:00000000 sdio_suspend_enable
C:\Users\Dmitriy\AppData\Local\Temp\cc3alRCd.s:1364   .text.sdio_suspend_enable:0000000c $d
C:\Users\Dmitriy\AppData\Local\Temp\cc3alRCd.s:1369   .text.sdio_suspend_disable:00000000 $t
C:\Users\Dmitriy\AppData\Local\Temp\cc3alRCd.s:1375   .text.sdio_suspend_disable:00000000 sdio_suspend_disable
C:\Users\Dmitriy\AppData\Local\Temp\cc3alRCd.s:1393   .text.sdio_suspend_disable:0000000c $d
C:\Users\Dmitriy\AppData\Local\Temp\cc3alRCd.s:1398   .text.sdio_ceata_command_enable:00000000 $t
C:\Users\Dmitriy\AppData\Local\Temp\cc3alRCd.s:1404   .text.sdio_ceata_command_enable:00000000 sdio_ceata_command_enable
C:\Users\Dmitriy\AppData\Local\Temp\cc3alRCd.s:1422   .text.sdio_ceata_command_enable:0000000c $d
C:\Users\Dmitriy\AppData\Local\Temp\cc3alRCd.s:1427   .text.sdio_ceata_command_disable:00000000 $t
C:\Users\Dmitriy\AppData\Local\Temp\cc3alRCd.s:1433   .text.sdio_ceata_command_disable:00000000 sdio_ceata_command_disable
C:\Users\Dmitriy\AppData\Local\Temp\cc3alRCd.s:1451   .text.sdio_ceata_command_disable:0000000c $d
C:\Users\Dmitriy\AppData\Local\Temp\cc3alRCd.s:1456   .text.sdio_ceata_interrupt_enable:00000000 $t
C:\Users\Dmitriy\AppData\Local\Temp\cc3alRCd.s:1462   .text.sdio_ceata_interrupt_enable:00000000 sdio_ceata_interrupt_enable
C:\Users\Dmitriy\AppData\Local\Temp\cc3alRCd.s:1480   .text.sdio_ceata_interrupt_enable:0000000c $d
C:\Users\Dmitriy\AppData\Local\Temp\cc3alRCd.s:1485   .text.sdio_ceata_interrupt_disable:00000000 $t
C:\Users\Dmitriy\AppData\Local\Temp\cc3alRCd.s:1491   .text.sdio_ceata_interrupt_disable:00000000 sdio_ceata_interrupt_disable
C:\Users\Dmitriy\AppData\Local\Temp\cc3alRCd.s:1509   .text.sdio_ceata_interrupt_disable:0000000c $d
C:\Users\Dmitriy\AppData\Local\Temp\cc3alRCd.s:1514   .text.sdio_ceata_command_completion_enable:00000000 $t
C:\Users\Dmitriy\AppData\Local\Temp\cc3alRCd.s:1520   .text.sdio_ceata_command_completion_enable:00000000 sdio_ceata_command_completion_enable
C:\Users\Dmitriy\AppData\Local\Temp\cc3alRCd.s:1538   .text.sdio_ceata_command_completion_enable:0000000c $d
C:\Users\Dmitriy\AppData\Local\Temp\cc3alRCd.s:1543   .text.sdio_ceata_command_completion_disable:00000000 $t
C:\Users\Dmitriy\AppData\Local\Temp\cc3alRCd.s:1549   .text.sdio_ceata_command_completion_disable:00000000 sdio_ceata_command_completion_disable
C:\Users\Dmitriy\AppData\Local\Temp\cc3alRCd.s:1567   .text.sdio_ceata_command_completion_disable:0000000c $d
                           .group:00000000 wm4.0.3ac34e011645c1b8d95761511e5c0518
                           .group:00000000 wm4.gd32f10x.h.39.34aa79a68d44b3fc31805fff8eeec626
                           .group:00000000 wm4.core_cm3.h.47.f403a0b1a9e3f5bd328e41f4fa5fc23b
                           .group:00000000 wm4.stdintgcc.h.29.6d480f4ba0f60596e88234283d42444f
                           .group:00000000 wm4.core_cmInstr.h.39.c66a1c911732cf6be44e58f2bee25308
                           .group:00000000 wm4.core_cm3.h.155.db3dfdf4b365cc230a717221b218ddd5
                           .group:00000000 wm4.gd32f10x.h.320.528bbe72ec64ad23b6e5473e267247b4
                           .group:00000000 wm4.gd32f10x_adc.h.44.619483e99e32c90a5f7c6ed512bbf95b
                           .group:00000000 wm4.gd32f10x_bkp.h.39.4da6e92b74c7310fa25e26e16145cf9d
                           .group:00000000 wm4.gd32f10x_can.h.41.99143e9b2de50f71c3392eea2d9e706b
                           .group:00000000 wm4.gd32f10x_crc.h.39.4c0c7ace19ba22146d7643de7dde24e0
                           .group:00000000 wm4.gd32f10x_dac.h.39.a3dd044652013a67f3cc1bbd4333b1f5
                           .group:00000000 wm4.gd32f10x_dma.h.40.e0e420e6b56a4398ac3aa49fe3f1eb37
                           .group:00000000 wm4.ieeefp.h.77.0ee3146e9d892bb10bc0066c30189af1
                           .group:00000000 wm4._newlib_version.h.4.6d111ab2e95434b664b53815e5c8ccba
                           .group:00000000 wm4.newlib.h.27.d4bf77c18f14f545101dac22f0b54118
                           .group:00000000 wm4.features.h.22.7877b139107948f7dadcf3660cc79cfd
                           .group:00000000 wm4.config.h.224.10ee1ad185d877c6e334e6581faab44d
                           .group:00000000 wm4._ansi.h.31.de524f58584151836e90d8620a16f8e8
                           .group:00000000 wm4.stdlib.h.13.4ed386f5c1a80d71e72172885d946ef2
                           .group:00000000 wm4.stddef.h.185.882514a1a6169ceba9142f401cbe27c6
                           .group:00000000 wm4.stddef.h.39.f07083f9b666a9e5c52a336c758fdd72
                           .group:00000000 wm4._types.h.20.dd0d04dca3800a0d2a6129b87f3adbb2
                           .group:00000000 wm4.stddef.h.158.5f30652bb2ea05b142c1bbee9108c999
                           .group:00000000 wm4._default_types.h.6.959254cf5f09734ea7516c89e8bb21bd
                           .group:00000000 wm4._types.h.127.3bdfe3ff8ea2d0985b03d9cbe93480e3
                           .group:00000000 wm4.reent.h.17.e292bf8b0bec6c96e131a54347145a30
                           .group:00000000 wm4.lock.h.2.1461d1fff82dffe8bfddc23307f6484f
                           .group:00000000 wm4.reent.h.77.89f7dde66c62b1f1dee32bdb6ab2d544
                           .group:00000000 wm4.cdefs.h.49.f93868eb904b9ca05b5c0257d31128ca
                           .group:00000000 wm4.alloca.h.8.dfc0c703c47ec3e69746825b17d9e66d
                           .group:00000000 wm4.stdlib.h.56.f4862cfbf4363a1db01842d5bdf72c18
                           .group:00000000 wm4.gd32f10x_enet.h.44.638fb20a727f17a9f45c8bef0e4dc155
                           .group:00000000 wm4.gd32f10x_exmc.h.39.cd31f13ab884fb77a3b2d0dd19135c79
                           .group:00000000 wm4.gd32f10x_exti.h.39.f641ba5efef75aed967e0eca0d908b22
                           .group:00000000 wm4.gd32f10x_fmc.h.39.7e6aa836f91030dd1ff3782a069962bf
                           .group:00000000 wm4.gd32f10x_gpio.h.39.80b4d0c5aa2b4bb9a76b4f0ed7eb4f37
                           .group:00000000 wm4.gd32f10x_i2c.h.40.8897e5891a1cbe807de60657ffffdeb4
                           .group:00000000 wm4.gd32f10x_fwdgt.h.39.98d7bcc523d52c51b47267d3aa630510
                           .group:00000000 wm4.gd32f10x_dbg.h.40.7f011e3bfaf652db4fef79974773282c
                           .group:00000000 wm4.gd32f10x_misc.h.39.02269a148ed2e3625e137e1efd69eb5b
                           .group:00000000 wm4.gd32f10x_pmu.h.39.74926372d4607639ac6680132fe98aa1
                           .group:00000000 wm4.gd32f10x_rcu.h.39.8a90a017c64bad5f5bd02c211060734d
                           .group:00000000 wm4.gd32f10x_rtc.h.39.8a002d392eec882fcd681ea51f1c73a0
                           .group:00000000 wm4.gd32f10x_spi.h.39.902664de8fc67c732b453548a8b810bf
                           .group:00000000 wm4.gd32f10x_timer.h.39.bb5f06befe0b01a2e83ec1dec4ea7722
                           .group:00000000 wm4.gd32f10x_usart.h.39.77325e272b5abf9a7b4cf37f2c34644a
                           .group:00000000 wm4.gd32f10x_wwdgt.h.39.3fa1c00ac1b6c8ed1fb1e9f65bb3835a
                           .group:00000000 wm4.gd32f10x_sdio.h.44.536b6ec91f04fd8e4ce8fa5a3068e44a

NO UNDEFINED SYMBOLS
