   1              		.cpu cortex-m3
   2              		.arch armv7-m
   3              		.fpu softvfp
   4              		.eabi_attribute 20, 1
   5              		.eabi_attribute 21, 1
   6              		.eabi_attribute 23, 3
   7              		.eabi_attribute 24, 1
   8              		.eabi_attribute 25, 1
   9              		.eabi_attribute 26, 1
  10              		.eabi_attribute 30, 1
  11              		.eabi_attribute 34, 1
  12              		.eabi_attribute 18, 4
  13              		.file	"gd32f10x_i2c.c"
  14              		.text
  15              	.Ltext0:
  16              		.cfi_sections	.debug_frame
  17              		.file 1 "../system/src/gd32f10x/gd32f10x_i2c.c"
  18              		.section	.text.i2c_deinit,"ax",%progbits
  19              		.align	1
  20              		.global	i2c_deinit
  21              		.syntax unified
  22              		.thumb
  23              		.thumb_func
  25              	i2c_deinit:
  26              	.LVL0:
  27              	.LFB56:
   1:../system/src/gd32f10x/gd32f10x_i2c.c **** /*!
   2:../system/src/gd32f10x/gd32f10x_i2c.c ****     \file    gd32f10x_i2c.c
   3:../system/src/gd32f10x/gd32f10x_i2c.c ****     \brief   I2C driver
   4:../system/src/gd32f10x/gd32f10x_i2c.c ****     
   5:../system/src/gd32f10x/gd32f10x_i2c.c ****     \version 2014-12-26, V1.0.0, firmware for GD32F10x
   6:../system/src/gd32f10x/gd32f10x_i2c.c ****     \version 2017-06-20, V2.0.0, firmware for GD32F10x
   7:../system/src/gd32f10x/gd32f10x_i2c.c ****     \version 2018-07-31, V2.1.0, firmware for GD32F10x
   8:../system/src/gd32f10x/gd32f10x_i2c.c ****     \version 2019-04-16, V2.1.1, firmware for GD32F10x
   9:../system/src/gd32f10x/gd32f10x_i2c.c ****     \version 2020-09-30, V2.2.0, firmware for GD32F10x
  10:../system/src/gd32f10x/gd32f10x_i2c.c **** */
  11:../system/src/gd32f10x/gd32f10x_i2c.c **** 
  12:../system/src/gd32f10x/gd32f10x_i2c.c **** /*
  13:../system/src/gd32f10x/gd32f10x_i2c.c ****     Copyright (c) 2020, GigaDevice Semiconductor Inc.
  14:../system/src/gd32f10x/gd32f10x_i2c.c **** 
  15:../system/src/gd32f10x/gd32f10x_i2c.c ****     Redistribution and use in source and binary forms, with or without modification, 
  16:../system/src/gd32f10x/gd32f10x_i2c.c **** are permitted provided that the following conditions are met:
  17:../system/src/gd32f10x/gd32f10x_i2c.c **** 
  18:../system/src/gd32f10x/gd32f10x_i2c.c ****     1. Redistributions of source code must retain the above copyright notice, this 
  19:../system/src/gd32f10x/gd32f10x_i2c.c ****        list of conditions and the following disclaimer.
  20:../system/src/gd32f10x/gd32f10x_i2c.c ****     2. Redistributions in binary form must reproduce the above copyright notice, 
  21:../system/src/gd32f10x/gd32f10x_i2c.c ****        this list of conditions and the following disclaimer in the documentation 
  22:../system/src/gd32f10x/gd32f10x_i2c.c ****        and/or other materials provided with the distribution.
  23:../system/src/gd32f10x/gd32f10x_i2c.c ****     3. Neither the name of the copyright holder nor the names of its contributors 
  24:../system/src/gd32f10x/gd32f10x_i2c.c ****        may be used to endorse or promote products derived from this software without 
  25:../system/src/gd32f10x/gd32f10x_i2c.c ****        specific prior written permission.
  26:../system/src/gd32f10x/gd32f10x_i2c.c **** 
  27:../system/src/gd32f10x/gd32f10x_i2c.c ****     THIS SOFTWARE IS PROVIDED BY THE COPYRIGHT HOLDERS AND CONTRIBUTORS "AS IS" 
  28:../system/src/gd32f10x/gd32f10x_i2c.c **** AND ANY EXPRESS OR IMPLIED WARRANTIES, INCLUDING, BUT NOT LIMITED TO, THE IMPLIED 
  29:../system/src/gd32f10x/gd32f10x_i2c.c **** WARRANTIES OF MERCHANTABILITY AND FITNESS FOR A PARTICULAR PURPOSE ARE DISCLAIMED. 
  30:../system/src/gd32f10x/gd32f10x_i2c.c **** IN NO EVENT SHALL THE COPYRIGHT HOLDER OR CONTRIBUTORS BE LIABLE FOR ANY DIRECT, 
  31:../system/src/gd32f10x/gd32f10x_i2c.c **** INDIRECT, INCIDENTAL, SPECIAL, EXEMPLARY, OR CONSEQUENTIAL DAMAGES (INCLUDING, BUT 
  32:../system/src/gd32f10x/gd32f10x_i2c.c **** NOT LIMITED TO, PROCUREMENT OF SUBSTITUTE GOODS OR SERVICES; LOSS OF USE, DATA, OR 
  33:../system/src/gd32f10x/gd32f10x_i2c.c **** PROFITS; OR BUSINESS INTERRUPTION) HOWEVER CAUSED AND ON ANY THEORY OF LIABILITY, 
  34:../system/src/gd32f10x/gd32f10x_i2c.c **** WHETHER IN CONTRACT, STRICT LIABILITY, OR TORT (INCLUDING NEGLIGENCE OR OTHERWISE) 
  35:../system/src/gd32f10x/gd32f10x_i2c.c **** ARISING IN ANY WAY OUT OF THE USE OF THIS SOFTWARE, EVEN IF ADVISED OF THE POSSIBILITY 
  36:../system/src/gd32f10x/gd32f10x_i2c.c **** OF SUCH DAMAGE.
  37:../system/src/gd32f10x/gd32f10x_i2c.c **** */
  38:../system/src/gd32f10x/gd32f10x_i2c.c **** 
  39:../system/src/gd32f10x/gd32f10x_i2c.c **** #include "gd32f10x_i2c.h"
  40:../system/src/gd32f10x/gd32f10x_i2c.c **** 
  41:../system/src/gd32f10x/gd32f10x_i2c.c **** /* I2C register bit mask */
  42:../system/src/gd32f10x/gd32f10x_i2c.c **** #define I2CCLK_MAX                    ((uint32_t)0x00000036U)             /*!< i2cclk maximum value
  43:../system/src/gd32f10x/gd32f10x_i2c.c **** #define I2CCLK_MIN                    ((uint32_t)0x00000002U)             /*!< i2cclk minimum value
  44:../system/src/gd32f10x/gd32f10x_i2c.c **** #define I2C_FLAG_MASK                 ((uint32_t)0x0000FFFFU)             /*!< i2c flag mask */
  45:../system/src/gd32f10x/gd32f10x_i2c.c **** #define I2C_ADDRESS_MASK              ((uint32_t)0x000003FFU)             /*!< i2c address mask */
  46:../system/src/gd32f10x/gd32f10x_i2c.c **** #define I2C_ADDRESS2_MASK             ((uint32_t)0x000000FEU)             /*!< the second i2c addre
  47:../system/src/gd32f10x/gd32f10x_i2c.c **** 
  48:../system/src/gd32f10x/gd32f10x_i2c.c **** /* I2C register bit offset */
  49:../system/src/gd32f10x/gd32f10x_i2c.c **** #define STAT1_PECV_OFFSET             ((uint32_t)0x00000008U)             /* bit offset of PECV in 
  50:../system/src/gd32f10x/gd32f10x_i2c.c **** 
  51:../system/src/gd32f10x/gd32f10x_i2c.c **** /*!
  52:../system/src/gd32f10x/gd32f10x_i2c.c ****     \brief      reset I2C
  53:../system/src/gd32f10x/gd32f10x_i2c.c ****     \param[in]  i2c_periph: I2Cx(x=0,1)
  54:../system/src/gd32f10x/gd32f10x_i2c.c ****     \param[out] none
  55:../system/src/gd32f10x/gd32f10x_i2c.c ****     \retval     none
  56:../system/src/gd32f10x/gd32f10x_i2c.c **** */
  57:../system/src/gd32f10x/gd32f10x_i2c.c **** void i2c_deinit(uint32_t i2c_periph)
  58:../system/src/gd32f10x/gd32f10x_i2c.c **** {
  28              		.loc 1 58 1 view -0
  29              		.cfi_startproc
  30              		@ args = 0, pretend = 0, frame = 0
  31              		@ frame_needed = 0, uses_anonymous_args = 0
  32              		.loc 1 58 1 is_stmt 0 view .LVU1
  33 0000 08B5     		push	{r3, lr}
  34              		.cfi_def_cfa_offset 8
  35              		.cfi_offset 3, -8
  36              		.cfi_offset 14, -4
  59:../system/src/gd32f10x/gd32f10x_i2c.c ****     switch(i2c_periph){
  37              		.loc 1 59 5 is_stmt 1 view .LVU2
  38 0002 0D4B     		ldr	r3, .L6
  39 0004 9842     		cmp	r0, r3
  40 0006 04D0     		beq	.L2
  41 0008 03F58063 		add	r3, r3, #1024
  42 000c 9842     		cmp	r0, r3
  43 000e 09D0     		beq	.L3
  44              	.LVL1:
  45              	.L1:
  60:../system/src/gd32f10x/gd32f10x_i2c.c ****     case I2C0:
  61:../system/src/gd32f10x/gd32f10x_i2c.c ****         /* reset I2C0 */
  62:../system/src/gd32f10x/gd32f10x_i2c.c ****         rcu_periph_reset_enable(RCU_I2C0RST);
  63:../system/src/gd32f10x/gd32f10x_i2c.c ****         rcu_periph_reset_disable(RCU_I2C0RST);
  64:../system/src/gd32f10x/gd32f10x_i2c.c ****         break;
  65:../system/src/gd32f10x/gd32f10x_i2c.c ****     case I2C1:
  66:../system/src/gd32f10x/gd32f10x_i2c.c ****         /* reset I2C1 */
  67:../system/src/gd32f10x/gd32f10x_i2c.c ****         rcu_periph_reset_enable(RCU_I2C1RST);
  68:../system/src/gd32f10x/gd32f10x_i2c.c ****         rcu_periph_reset_disable(RCU_I2C1RST);
  69:../system/src/gd32f10x/gd32f10x_i2c.c ****         break;
  70:../system/src/gd32f10x/gd32f10x_i2c.c ****     default:
  71:../system/src/gd32f10x/gd32f10x_i2c.c ****         break;
  72:../system/src/gd32f10x/gd32f10x_i2c.c ****     }
  73:../system/src/gd32f10x/gd32f10x_i2c.c **** }
  46              		.loc 1 73 1 is_stmt 0 view .LVU3
  47 0010 08BD     		pop	{r3, pc}
  48              	.LVL2:
  49              	.L2:
  62:../system/src/gd32f10x/gd32f10x_i2c.c ****         rcu_periph_reset_disable(RCU_I2C0RST);
  50              		.loc 1 62 9 is_stmt 1 view .LVU4
  51 0012 40F21540 		movw	r0, #1045
  52              	.LVL3:
  62:../system/src/gd32f10x/gd32f10x_i2c.c ****         rcu_periph_reset_disable(RCU_I2C0RST);
  53              		.loc 1 62 9 is_stmt 0 view .LVU5
  54 0016 FFF7FEFF 		bl	rcu_periph_reset_enable
  55              	.LVL4:
  63:../system/src/gd32f10x/gd32f10x_i2c.c ****         break;
  56              		.loc 1 63 9 is_stmt 1 view .LVU6
  57 001a 40F21540 		movw	r0, #1045
  58 001e FFF7FEFF 		bl	rcu_periph_reset_disable
  59              	.LVL5:
  64:../system/src/gd32f10x/gd32f10x_i2c.c ****     case I2C1:
  60              		.loc 1 64 9 view .LVU7
  61 0022 F5E7     		b	.L1
  62              	.LVL6:
  63              	.L3:
  67:../system/src/gd32f10x/gd32f10x_i2c.c ****         rcu_periph_reset_disable(RCU_I2C1RST);
  64              		.loc 1 67 9 view .LVU8
  65 0024 40F21640 		movw	r0, #1046
  66              	.LVL7:
  67:../system/src/gd32f10x/gd32f10x_i2c.c ****         rcu_periph_reset_disable(RCU_I2C1RST);
  67              		.loc 1 67 9 is_stmt 0 view .LVU9
  68 0028 FFF7FEFF 		bl	rcu_periph_reset_enable
  69              	.LVL8:
  68:../system/src/gd32f10x/gd32f10x_i2c.c ****         break;
  70              		.loc 1 68 9 is_stmt 1 view .LVU10
  71 002c 40F21640 		movw	r0, #1046
  72 0030 FFF7FEFF 		bl	rcu_periph_reset_disable
  73              	.LVL9:
  69:../system/src/gd32f10x/gd32f10x_i2c.c ****     default:
  74              		.loc 1 69 9 view .LVU11
  75              		.loc 1 73 1 is_stmt 0 view .LVU12
  76 0034 ECE7     		b	.L1
  77              	.L7:
  78 0036 00BF     		.align	2
  79              	.L6:
  80 0038 00540040 		.word	1073763328
  81              		.cfi_endproc
  82              	.LFE56:
  84              		.section	.text.i2c_clock_config,"ax",%progbits
  85              		.align	1
  86              		.global	i2c_clock_config
  87              		.syntax unified
  88              		.thumb
  89              		.thumb_func
  91              	i2c_clock_config:
  92              	.LVL10:
  93              	.LFB57:
  74:../system/src/gd32f10x/gd32f10x_i2c.c **** 
  75:../system/src/gd32f10x/gd32f10x_i2c.c **** /*!
  76:../system/src/gd32f10x/gd32f10x_i2c.c ****     \brief      configure I2C clock
  77:../system/src/gd32f10x/gd32f10x_i2c.c ****     \param[in]  i2c_periph: I2Cx(x=0,1)
  78:../system/src/gd32f10x/gd32f10x_i2c.c ****     \param[in]  clkspeed: I2C clock speed, supports standard mode (up to 100 kHz), fast mode (up to
  79:../system/src/gd32f10x/gd32f10x_i2c.c ****     \param[in]  dutycyc: duty cycle in fast mode
  80:../system/src/gd32f10x/gd32f10x_i2c.c ****                 only one parameter can be selected which is shown as below:
  81:../system/src/gd32f10x/gd32f10x_i2c.c ****       \arg        I2C_DTCY_2: T_low/T_high=2 
  82:../system/src/gd32f10x/gd32f10x_i2c.c ****       \arg        I2C_DTCY_16_9: T_low/T_high=16/9
  83:../system/src/gd32f10x/gd32f10x_i2c.c ****     \param[out] none
  84:../system/src/gd32f10x/gd32f10x_i2c.c ****     \retval     none
  85:../system/src/gd32f10x/gd32f10x_i2c.c **** */
  86:../system/src/gd32f10x/gd32f10x_i2c.c **** void i2c_clock_config(uint32_t i2c_periph, uint32_t clkspeed, uint32_t dutycyc)
  87:../system/src/gd32f10x/gd32f10x_i2c.c **** {
  94              		.loc 1 87 1 is_stmt 1 view -0
  95              		.cfi_startproc
  96              		@ args = 0, pretend = 0, frame = 0
  97              		@ frame_needed = 0, uses_anonymous_args = 0
  98              		.loc 1 87 1 is_stmt 0 view .LVU14
  99 0000 70B5     		push	{r4, r5, r6, lr}
 100              		.cfi_def_cfa_offset 16
 101              		.cfi_offset 4, -16
 102              		.cfi_offset 5, -12
 103              		.cfi_offset 6, -8
 104              		.cfi_offset 14, -4
 105 0002 0546     		mov	r5, r0
 106 0004 0C46     		mov	r4, r1
 107 0006 1646     		mov	r6, r2
  88:../system/src/gd32f10x/gd32f10x_i2c.c ****     uint32_t pclk1, clkc, freq, risetime;
 108              		.loc 1 88 5 is_stmt 1 view .LVU15
  89:../system/src/gd32f10x/gd32f10x_i2c.c ****     uint32_t temp;
 109              		.loc 1 89 5 view .LVU16
  90:../system/src/gd32f10x/gd32f10x_i2c.c ****     
  91:../system/src/gd32f10x/gd32f10x_i2c.c ****     pclk1 = rcu_clock_freq_get(CK_APB1);
 110              		.loc 1 91 5 view .LVU17
 111              		.loc 1 91 13 is_stmt 0 view .LVU18
 112 0008 0220     		movs	r0, #2
 113              	.LVL11:
 114              		.loc 1 91 13 view .LVU19
 115 000a FFF7FEFF 		bl	rcu_clock_freq_get
 116              	.LVL12:
  92:../system/src/gd32f10x/gd32f10x_i2c.c ****     /* I2C peripheral clock frequency */
  93:../system/src/gd32f10x/gd32f10x_i2c.c ****     freq = (uint32_t)(pclk1/1000000U);
 117              		.loc 1 93 5 is_stmt 1 view .LVU20
 118              		.loc 1 93 10 is_stmt 0 view .LVU21
 119 000e 2C4B     		ldr	r3, .L22
 120 0010 A3FB0023 		umull	r2, r3, r3, r0
 121 0014 9B0C     		lsrs	r3, r3, #18
 122              	.LVL13:
  94:../system/src/gd32f10x/gd32f10x_i2c.c ****     if(freq >= I2CCLK_MAX){
 123              		.loc 1 94 5 is_stmt 1 view .LVU22
 124              		.loc 1 94 7 is_stmt 0 view .LVU23
 125 0016 2B4A     		ldr	r2, .L22+4
 126 0018 9042     		cmp	r0, r2
 127 001a 19D2     		bcs	.L19
  93:../system/src/gd32f10x/gd32f10x_i2c.c ****     if(freq >= I2CCLK_MAX){
 128              		.loc 1 93 10 view .LVU24
 129 001c 1A46     		mov	r2, r3
 130              	.L9:
 131              	.LVL14:
  95:../system/src/gd32f10x/gd32f10x_i2c.c ****         freq = I2CCLK_MAX;
  96:../system/src/gd32f10x/gd32f10x_i2c.c ****     }
  97:../system/src/gd32f10x/gd32f10x_i2c.c ****     temp = I2C_CTL1(i2c_periph);
 132              		.loc 1 97 5 is_stmt 1 view .LVU25
 133              		.loc 1 97 10 is_stmt 0 view .LVU26
 134 001e 6968     		ldr	r1, [r5, #4]
 135              	.LVL15:
  98:../system/src/gd32f10x/gd32f10x_i2c.c ****     temp &= ~I2C_CTL1_I2CCLK;
 136              		.loc 1 98 5 is_stmt 1 view .LVU27
 137              		.loc 1 98 10 is_stmt 0 view .LVU28
 138 0020 21F03F01 		bic	r1, r1, #63
 139              	.LVL16:
  99:../system/src/gd32f10x/gd32f10x_i2c.c ****     temp |= freq;
 140              		.loc 1 99 5 is_stmt 1 view .LVU29
 141              		.loc 1 99 10 is_stmt 0 view .LVU30
 142 0024 1143     		orrs	r1, r1, r2
 143              	.LVL17:
 100:../system/src/gd32f10x/gd32f10x_i2c.c ****     
 101:../system/src/gd32f10x/gd32f10x_i2c.c ****     I2C_CTL1(i2c_periph) = temp;
 144              		.loc 1 101 5 is_stmt 1 view .LVU31
 145              		.loc 1 101 26 is_stmt 0 view .LVU32
 146 0026 6960     		str	r1, [r5, #4]
 102:../system/src/gd32f10x/gd32f10x_i2c.c ****     
 103:../system/src/gd32f10x/gd32f10x_i2c.c ****     if(100000U >= clkspeed){
 147              		.loc 1 103 5 is_stmt 1 view .LVU33
 148              		.loc 1 103 7 is_stmt 0 view .LVU34
 149 0028 2749     		ldr	r1, .L22+8
 150              	.LVL18:
 151              		.loc 1 103 7 view .LVU35
 152 002a 8C42     		cmp	r4, r1
 153 002c 19D8     		bhi	.L10
 104:../system/src/gd32f10x/gd32f10x_i2c.c ****         /* the maximum SCL rise time is 1000ns in standard mode */
 105:../system/src/gd32f10x/gd32f10x_i2c.c ****         risetime = (uint32_t)((pclk1/1000000U)+1U);
 154              		.loc 1 105 9 is_stmt 1 view .LVU36
 155              		.loc 1 105 18 is_stmt 0 view .LVU37
 156 002e 0133     		adds	r3, r3, #1
 157              	.LVL19:
 106:../system/src/gd32f10x/gd32f10x_i2c.c ****         if(risetime >= I2CCLK_MAX){
 158              		.loc 1 106 9 is_stmt 1 view .LVU38
 159              		.loc 1 106 11 is_stmt 0 view .LVU39
 160 0030 352B     		cmp	r3, #53
 161 0032 0FD9     		bls	.L11
 107:../system/src/gd32f10x/gd32f10x_i2c.c ****             I2C_RT(i2c_periph) = I2CCLK_MAX;
 162              		.loc 1 107 13 is_stmt 1 view .LVU40
 163              		.loc 1 107 32 is_stmt 0 view .LVU41
 164 0034 3623     		movs	r3, #54
 165              	.LVL20:
 166              		.loc 1 107 32 view .LVU42
 167 0036 2B62     		str	r3, [r5, #32]
 168              	.LVL21:
 169              	.L12:
 108:../system/src/gd32f10x/gd32f10x_i2c.c ****         }else if(risetime <= I2CCLK_MIN){
 109:../system/src/gd32f10x/gd32f10x_i2c.c ****             I2C_RT(i2c_periph) = I2CCLK_MIN;
 110:../system/src/gd32f10x/gd32f10x_i2c.c ****         }else{
 111:../system/src/gd32f10x/gd32f10x_i2c.c ****             I2C_RT(i2c_periph) = risetime;
 112:../system/src/gd32f10x/gd32f10x_i2c.c ****         }
 113:../system/src/gd32f10x/gd32f10x_i2c.c ****         clkc = (uint32_t)(pclk1/(clkspeed*2U)); 
 170              		.loc 1 113 9 is_stmt 1 view .LVU43
 171              		.loc 1 113 42 is_stmt 0 view .LVU44
 172 0038 6400     		lsls	r4, r4, #1
 173              	.LVL22:
 174              		.loc 1 113 14 view .LVU45
 175 003a B0FBF4F4 		udiv	r4, r0, r4
 176              	.LVL23:
 114:../system/src/gd32f10x/gd32f10x_i2c.c ****         if(clkc < 0x04U){
 177              		.loc 1 114 9 is_stmt 1 view .LVU46
 178              		.loc 1 114 11 is_stmt 0 view .LVU47
 179 003e 032C     		cmp	r4, #3
 180 0040 00D8     		bhi	.L14
 115:../system/src/gd32f10x/gd32f10x_i2c.c ****             /* the CLKC in standard mode minmum value is 4 */
 116:../system/src/gd32f10x/gd32f10x_i2c.c ****             clkc = 0x04U;
 181              		.loc 1 116 18 view .LVU48
 182 0042 0424     		movs	r4, #4
 183              	.LVL24:
 184              	.L14:
 117:../system/src/gd32f10x/gd32f10x_i2c.c ****         }
 118:../system/src/gd32f10x/gd32f10x_i2c.c ****         I2C_CKCFG(i2c_periph) |= (I2C_CKCFG_CLKC & clkc);
 185              		.loc 1 118 9 is_stmt 1 view .LVU49
 186 0044 EB69     		ldr	r3, [r5, #28]
 187              		.loc 1 118 50 is_stmt 0 view .LVU50
 188 0046 C4F30B04 		ubfx	r4, r4, #0, #12
 189              	.LVL25:
 190              		.loc 1 118 31 view .LVU51
 191 004a 2343     		orrs	r3, r3, r4
 192 004c EB61     		str	r3, [r5, #28]
 193              	.LVL26:
 194              	.L8:
 119:../system/src/gd32f10x/gd32f10x_i2c.c **** 
 120:../system/src/gd32f10x/gd32f10x_i2c.c ****     }else if(400000U >= clkspeed){
 121:../system/src/gd32f10x/gd32f10x_i2c.c ****         /* the maximum SCL rise time is 300ns in fast mode */
 122:../system/src/gd32f10x/gd32f10x_i2c.c ****         I2C_RT(i2c_periph) = (uint32_t)(((freq*(uint32_t)300U)/(uint32_t)1000U)+(uint32_t)1U);
 123:../system/src/gd32f10x/gd32f10x_i2c.c ****         if(I2C_DTCY_2 == dutycyc){
 124:../system/src/gd32f10x/gd32f10x_i2c.c ****             /* I2C duty cycle is 2 */
 125:../system/src/gd32f10x/gd32f10x_i2c.c ****             clkc = (uint32_t)(pclk1/(clkspeed*3U));
 126:../system/src/gd32f10x/gd32f10x_i2c.c ****             I2C_CKCFG(i2c_periph) &= ~I2C_CKCFG_DTCY;
 127:../system/src/gd32f10x/gd32f10x_i2c.c ****         }else{
 128:../system/src/gd32f10x/gd32f10x_i2c.c ****             /* I2C duty cycle is 16/9 */
 129:../system/src/gd32f10x/gd32f10x_i2c.c ****             clkc = (uint32_t)(pclk1/(clkspeed*25U));
 130:../system/src/gd32f10x/gd32f10x_i2c.c ****             I2C_CKCFG(i2c_periph) |= I2C_CKCFG_DTCY;
 131:../system/src/gd32f10x/gd32f10x_i2c.c ****         }
 132:../system/src/gd32f10x/gd32f10x_i2c.c ****         if(0U == (clkc & I2C_CKCFG_CLKC)){
 133:../system/src/gd32f10x/gd32f10x_i2c.c ****             /* the CLKC in fast mode minmum value is 1 */
 134:../system/src/gd32f10x/gd32f10x_i2c.c ****             clkc |= 0x0001U;  
 135:../system/src/gd32f10x/gd32f10x_i2c.c ****         }
 136:../system/src/gd32f10x/gd32f10x_i2c.c ****         I2C_CKCFG(i2c_periph) |= I2C_CKCFG_FAST;
 137:../system/src/gd32f10x/gd32f10x_i2c.c ****         I2C_CKCFG(i2c_periph) |= clkc;
 138:../system/src/gd32f10x/gd32f10x_i2c.c ****     }else{
 139:../system/src/gd32f10x/gd32f10x_i2c.c ****     }
 140:../system/src/gd32f10x/gd32f10x_i2c.c **** }
 195              		.loc 1 140 1 view .LVU52
 196 004e 70BD     		pop	{r4, r5, r6, pc}
 197              	.LVL27:
 198              	.L19:
  95:../system/src/gd32f10x/gd32f10x_i2c.c ****     }
 199              		.loc 1 95 14 view .LVU53
 200 0050 3622     		movs	r2, #54
 201 0052 E4E7     		b	.L9
 202              	.LVL28:
 203              	.L11:
 108:../system/src/gd32f10x/gd32f10x_i2c.c ****             I2C_RT(i2c_periph) = I2CCLK_MIN;
 204              		.loc 1 108 15 is_stmt 1 view .LVU54
 108:../system/src/gd32f10x/gd32f10x_i2c.c ****             I2C_RT(i2c_periph) = I2CCLK_MIN;
 205              		.loc 1 108 17 is_stmt 0 view .LVU55
 206 0054 022B     		cmp	r3, #2
 207 0056 02D8     		bhi	.L13
 109:../system/src/gd32f10x/gd32f10x_i2c.c ****         }else{
 208              		.loc 1 109 13 is_stmt 1 view .LVU56
 109:../system/src/gd32f10x/gd32f10x_i2c.c ****         }else{
 209              		.loc 1 109 32 is_stmt 0 view .LVU57
 210 0058 0223     		movs	r3, #2
 211              	.LVL29:
 109:../system/src/gd32f10x/gd32f10x_i2c.c ****         }else{
 212              		.loc 1 109 32 view .LVU58
 213 005a 2B62     		str	r3, [r5, #32]
 214              	.LVL30:
 109:../system/src/gd32f10x/gd32f10x_i2c.c ****         }else{
 215              		.loc 1 109 32 view .LVU59
 216 005c ECE7     		b	.L12
 217              	.LVL31:
 218              	.L13:
 111:../system/src/gd32f10x/gd32f10x_i2c.c ****         }
 219              		.loc 1 111 13 is_stmt 1 view .LVU60
 111:../system/src/gd32f10x/gd32f10x_i2c.c ****         }
 220              		.loc 1 111 32 is_stmt 0 view .LVU61
 221 005e 2B62     		str	r3, [r5, #32]
 222              	.LVL32:
 111:../system/src/gd32f10x/gd32f10x_i2c.c ****         }
 223              		.loc 1 111 32 view .LVU62
 224 0060 EAE7     		b	.L12
 225              	.LVL33:
 226              	.L10:
 120:../system/src/gd32f10x/gd32f10x_i2c.c ****         /* the maximum SCL rise time is 300ns in fast mode */
 227              		.loc 1 120 11 is_stmt 1 view .LVU63
 120:../system/src/gd32f10x/gd32f10x_i2c.c ****         /* the maximum SCL rise time is 300ns in fast mode */
 228              		.loc 1 120 13 is_stmt 0 view .LVU64
 229 0062 1A4B     		ldr	r3, .L22+12
 230 0064 9C42     		cmp	r4, r3
 231 0066 F2D8     		bhi	.L8
 122:../system/src/gd32f10x/gd32f10x_i2c.c ****         if(I2C_DTCY_2 == dutycyc){
 232              		.loc 1 122 9 is_stmt 1 view .LVU65
 122:../system/src/gd32f10x/gd32f10x_i2c.c ****         if(I2C_DTCY_2 == dutycyc){
 233              		.loc 1 122 47 is_stmt 0 view .LVU66
 234 0068 4FF49673 		mov	r3, #300
 235 006c 02FB03F3 		mul	r3, r2, r3
 122:../system/src/gd32f10x/gd32f10x_i2c.c ****         if(I2C_DTCY_2 == dutycyc){
 236              		.loc 1 122 63 view .LVU67
 237 0070 174A     		ldr	r2, .L22+16
 238              	.LVL34:
 122:../system/src/gd32f10x/gd32f10x_i2c.c ****         if(I2C_DTCY_2 == dutycyc){
 239              		.loc 1 122 63 view .LVU68
 240 0072 A2FB0323 		umull	r2, r3, r2, r3
 241 0076 9B09     		lsrs	r3, r3, #6
 122:../system/src/gd32f10x/gd32f10x_i2c.c ****         if(I2C_DTCY_2 == dutycyc){
 242              		.loc 1 122 30 view .LVU69
 243 0078 0133     		adds	r3, r3, #1
 122:../system/src/gd32f10x/gd32f10x_i2c.c ****         if(I2C_DTCY_2 == dutycyc){
 244              		.loc 1 122 28 view .LVU70
 245 007a 2B62     		str	r3, [r5, #32]
 246              	.LVL35:
 123:../system/src/gd32f10x/gd32f10x_i2c.c ****             /* I2C duty cycle is 2 */
 247              		.loc 1 123 9 is_stmt 1 view .LVU71
 123:../system/src/gd32f10x/gd32f10x_i2c.c ****             /* I2C duty cycle is 2 */
 248              		.loc 1 123 11 is_stmt 0 view .LVU72
 249 007c A6B9     		cbnz	r6, .L16
 125:../system/src/gd32f10x/gd32f10x_i2c.c ****             I2C_CKCFG(i2c_periph) &= ~I2C_CKCFG_DTCY;
 250              		.loc 1 125 13 is_stmt 1 view .LVU73
 125:../system/src/gd32f10x/gd32f10x_i2c.c ****             I2C_CKCFG(i2c_periph) &= ~I2C_CKCFG_DTCY;
 251              		.loc 1 125 46 is_stmt 0 view .LVU74
 252 007e 04EB4404 		add	r4, r4, r4, lsl #1
 253              	.LVL36:
 125:../system/src/gd32f10x/gd32f10x_i2c.c ****             I2C_CKCFG(i2c_periph) &= ~I2C_CKCFG_DTCY;
 254              		.loc 1 125 18 view .LVU75
 255 0082 B0FBF4F0 		udiv	r0, r0, r4
 256              	.LVL37:
 126:../system/src/gd32f10x/gd32f10x_i2c.c ****         }else{
 257              		.loc 1 126 13 is_stmt 1 view .LVU76
 258 0086 EB69     		ldr	r3, [r5, #28]
 126:../system/src/gd32f10x/gd32f10x_i2c.c ****         }else{
 259              		.loc 1 126 35 is_stmt 0 view .LVU77
 260 0088 23F48043 		bic	r3, r3, #16384
 261 008c EB61     		str	r3, [r5, #28]
 262              	.L17:
 132:../system/src/gd32f10x/gd32f10x_i2c.c ****             /* the CLKC in fast mode minmum value is 1 */
 263              		.loc 1 132 9 is_stmt 1 view .LVU78
 132:../system/src/gd32f10x/gd32f10x_i2c.c ****             /* the CLKC in fast mode minmum value is 1 */
 264              		.loc 1 132 24 is_stmt 0 view .LVU79
 265 008e C0F30B03 		ubfx	r3, r0, #0, #12
 132:../system/src/gd32f10x/gd32f10x_i2c.c ****             /* the CLKC in fast mode minmum value is 1 */
 266              		.loc 1 132 11 view .LVU80
 267 0092 0BB9     		cbnz	r3, .L18
 134:../system/src/gd32f10x/gd32f10x_i2c.c ****         }
 268              		.loc 1 134 13 is_stmt 1 view .LVU81
 134:../system/src/gd32f10x/gd32f10x_i2c.c ****         }
 269              		.loc 1 134 18 is_stmt 0 view .LVU82
 270 0094 40F00100 		orr	r0, r0, #1
 271              	.LVL38:
 272              	.L18:
 136:../system/src/gd32f10x/gd32f10x_i2c.c ****         I2C_CKCFG(i2c_periph) |= clkc;
 273              		.loc 1 136 9 is_stmt 1 view .LVU83
 274 0098 EB69     		ldr	r3, [r5, #28]
 136:../system/src/gd32f10x/gd32f10x_i2c.c ****         I2C_CKCFG(i2c_periph) |= clkc;
 275              		.loc 1 136 31 is_stmt 0 view .LVU84
 276 009a 43F40043 		orr	r3, r3, #32768
 277 009e EB61     		str	r3, [r5, #28]
 137:../system/src/gd32f10x/gd32f10x_i2c.c ****     }else{
 278              		.loc 1 137 9 is_stmt 1 view .LVU85
 279 00a0 EB69     		ldr	r3, [r5, #28]
 137:../system/src/gd32f10x/gd32f10x_i2c.c ****     }else{
 280              		.loc 1 137 31 is_stmt 0 view .LVU86
 281 00a2 0343     		orrs	r3, r3, r0
 282 00a4 EB61     		str	r3, [r5, #28]
 139:../system/src/gd32f10x/gd32f10x_i2c.c **** }
 283              		.loc 1 139 5 is_stmt 1 view .LVU87
 284              		.loc 1 140 1 is_stmt 0 view .LVU88
 285 00a6 D2E7     		b	.L8
 286              	.LVL39:
 287              	.L16:
 129:../system/src/gd32f10x/gd32f10x_i2c.c ****             I2C_CKCFG(i2c_periph) |= I2C_CKCFG_DTCY;
 288              		.loc 1 129 13 is_stmt 1 view .LVU89
 129:../system/src/gd32f10x/gd32f10x_i2c.c ****             I2C_CKCFG(i2c_periph) |= I2C_CKCFG_DTCY;
 289              		.loc 1 129 46 is_stmt 0 view .LVU90
 290 00a8 04EB8404 		add	r4, r4, r4, lsl #2
 291              	.LVL40:
 129:../system/src/gd32f10x/gd32f10x_i2c.c ****             I2C_CKCFG(i2c_periph) |= I2C_CKCFG_DTCY;
 292              		.loc 1 129 46 view .LVU91
 293 00ac 04EB8404 		add	r4, r4, r4, lsl #2
 129:../system/src/gd32f10x/gd32f10x_i2c.c ****             I2C_CKCFG(i2c_periph) |= I2C_CKCFG_DTCY;
 294              		.loc 1 129 18 view .LVU92
 295 00b0 B0FBF4F0 		udiv	r0, r0, r4
 296              	.LVL41:
 130:../system/src/gd32f10x/gd32f10x_i2c.c ****         }
 297              		.loc 1 130 13 is_stmt 1 view .LVU93
 298 00b4 EB69     		ldr	r3, [r5, #28]
 130:../system/src/gd32f10x/gd32f10x_i2c.c ****         }
 299              		.loc 1 130 35 is_stmt 0 view .LVU94
 300 00b6 43F48043 		orr	r3, r3, #16384
 301 00ba EB61     		str	r3, [r5, #28]
 302 00bc E7E7     		b	.L17
 303              	.L23:
 304 00be 00BF     		.align	2
 305              	.L22:
 306 00c0 83DE1B43 		.word	1125899907
 307 00c4 80F93703 		.word	54000000
 308 00c8 A0860100 		.word	100000
 309 00cc 801A0600 		.word	400000
 310 00d0 D34D6210 		.word	274877907
 311              		.cfi_endproc
 312              	.LFE57:
 314              		.section	.text.i2c_mode_addr_config,"ax",%progbits
 315              		.align	1
 316              		.global	i2c_mode_addr_config
 317              		.syntax unified
 318              		.thumb
 319              		.thumb_func
 321              	i2c_mode_addr_config:
 322              	.LVL42:
 323              	.LFB58:
 141:../system/src/gd32f10x/gd32f10x_i2c.c **** 
 142:../system/src/gd32f10x/gd32f10x_i2c.c **** /*!
 143:../system/src/gd32f10x/gd32f10x_i2c.c ****     \brief      configure I2C address 
 144:../system/src/gd32f10x/gd32f10x_i2c.c ****     \param[in]  i2c_periph: I2Cx(x=0,1)
 145:../system/src/gd32f10x/gd32f10x_i2c.c ****     \param[in]  mode:
 146:../system/src/gd32f10x/gd32f10x_i2c.c ****                 only one parameter can be selected which is shown as below:
 147:../system/src/gd32f10x/gd32f10x_i2c.c ****       \arg        I2C_I2CMODE_ENABLE: I2C mode
 148:../system/src/gd32f10x/gd32f10x_i2c.c ****       \arg        I2C_SMBUSMODE_ENABLE: SMBus mode
 149:../system/src/gd32f10x/gd32f10x_i2c.c ****     \param[in]  addformat: 7bits or 10bits
 150:../system/src/gd32f10x/gd32f10x_i2c.c ****                 only one parameter can be selected which is shown as below:
 151:../system/src/gd32f10x/gd32f10x_i2c.c ****       \arg        I2C_ADDFORMAT_7BITS: address format is 7bits
 152:../system/src/gd32f10x/gd32f10x_i2c.c ****       \arg        I2C_ADDFORMAT_10BITS: address format is 10bits
 153:../system/src/gd32f10x/gd32f10x_i2c.c ****     \param[in]  addr: I2C address
 154:../system/src/gd32f10x/gd32f10x_i2c.c ****     \param[out] none
 155:../system/src/gd32f10x/gd32f10x_i2c.c ****     \retval     none
 156:../system/src/gd32f10x/gd32f10x_i2c.c **** */
 157:../system/src/gd32f10x/gd32f10x_i2c.c **** void i2c_mode_addr_config(uint32_t i2c_periph, uint32_t mode, uint32_t addformat, uint32_t addr)
 158:../system/src/gd32f10x/gd32f10x_i2c.c **** {
 324              		.loc 1 158 1 is_stmt 1 view -0
 325              		.cfi_startproc
 326              		@ args = 0, pretend = 0, frame = 0
 327              		@ frame_needed = 0, uses_anonymous_args = 0
 328              		@ link register save eliminated.
 329              		.loc 1 158 1 is_stmt 0 view .LVU96
 330 0000 10B4     		push	{r4}
 331              		.cfi_def_cfa_offset 4
 332              		.cfi_offset 4, -4
 159:../system/src/gd32f10x/gd32f10x_i2c.c ****     /* SMBus/I2C mode selected */
 160:../system/src/gd32f10x/gd32f10x_i2c.c ****     uint32_t ctl = 0U;
 333              		.loc 1 160 5 is_stmt 1 view .LVU97
 334              	.LVL43:
 161:../system/src/gd32f10x/gd32f10x_i2c.c ****     
 162:../system/src/gd32f10x/gd32f10x_i2c.c ****     ctl = I2C_CTL0(i2c_periph);
 335              		.loc 1 162 5 view .LVU98
 336              		.loc 1 162 9 is_stmt 0 view .LVU99
 337 0002 0468     		ldr	r4, [r0]
 338              	.LVL44:
 163:../system/src/gd32f10x/gd32f10x_i2c.c ****     ctl &= ~(I2C_CTL0_SMBEN); 
 339              		.loc 1 163 5 is_stmt 1 view .LVU100
 340              		.loc 1 163 9 is_stmt 0 view .LVU101
 341 0004 24F0020C 		bic	ip, r4, #2
 342              	.LVL45:
 164:../system/src/gd32f10x/gd32f10x_i2c.c ****     ctl |= mode;
 343              		.loc 1 164 5 is_stmt 1 view .LVU102
 344              		.loc 1 164 9 is_stmt 0 view .LVU103
 345 0008 4CEA0101 		orr	r1, ip, r1
 346              	.LVL46:
 165:../system/src/gd32f10x/gd32f10x_i2c.c ****     I2C_CTL0(i2c_periph) = ctl;
 347              		.loc 1 165 5 is_stmt 1 view .LVU104
 348              		.loc 1 165 26 is_stmt 0 view .LVU105
 349 000c 0160     		str	r1, [r0]
 166:../system/src/gd32f10x/gd32f10x_i2c.c ****     /* configure address */
 167:../system/src/gd32f10x/gd32f10x_i2c.c ****     addr = addr & I2C_ADDRESS_MASK;
 350              		.loc 1 167 5 is_stmt 1 view .LVU106
 351              		.loc 1 167 10 is_stmt 0 view .LVU107
 352 000e C3F30903 		ubfx	r3, r3, #0, #10
 353              	.LVL47:
 168:../system/src/gd32f10x/gd32f10x_i2c.c ****     I2C_SADDR0(i2c_periph) = (addformat | addr);
 354              		.loc 1 168 5 is_stmt 1 view .LVU108
 355              		.loc 1 168 41 is_stmt 0 view .LVU109
 356 0012 1343     		orrs	r3, r3, r2
 357              	.LVL48:
 358              		.loc 1 168 28 view .LVU110
 359 0014 8360     		str	r3, [r0, #8]
 169:../system/src/gd32f10x/gd32f10x_i2c.c **** }
 360              		.loc 1 169 1 view .LVU111
 361 0016 10BC     		pop	{r4}
 362              		.cfi_restore 4
 363              		.cfi_def_cfa_offset 0
 364 0018 7047     		bx	lr
 365              		.cfi_endproc
 366              	.LFE58:
 368              		.section	.text.i2c_smbus_type_config,"ax",%progbits
 369              		.align	1
 370              		.global	i2c_smbus_type_config
 371              		.syntax unified
 372              		.thumb
 373              		.thumb_func
 375              	i2c_smbus_type_config:
 376              	.LVL49:
 377              	.LFB59:
 170:../system/src/gd32f10x/gd32f10x_i2c.c **** 
 171:../system/src/gd32f10x/gd32f10x_i2c.c **** /*!
 172:../system/src/gd32f10x/gd32f10x_i2c.c ****     \brief      select SMBus type
 173:../system/src/gd32f10x/gd32f10x_i2c.c ****     \param[in]  i2c_periph: I2Cx(x=0,1)
 174:../system/src/gd32f10x/gd32f10x_i2c.c ****     \param[in]  type:
 175:../system/src/gd32f10x/gd32f10x_i2c.c ****                 only one parameter can be selected which is shown as below:
 176:../system/src/gd32f10x/gd32f10x_i2c.c ****       \arg        I2C_SMBUS_DEVICE: device
 177:../system/src/gd32f10x/gd32f10x_i2c.c ****       \arg        I2C_SMBUS_HOST: host
 178:../system/src/gd32f10x/gd32f10x_i2c.c ****     \param[out] none
 179:../system/src/gd32f10x/gd32f10x_i2c.c ****     \retval     none
 180:../system/src/gd32f10x/gd32f10x_i2c.c **** */
 181:../system/src/gd32f10x/gd32f10x_i2c.c **** void i2c_smbus_type_config(uint32_t i2c_periph, uint32_t type)
 182:../system/src/gd32f10x/gd32f10x_i2c.c **** {
 378              		.loc 1 182 1 is_stmt 1 view -0
 379              		.cfi_startproc
 380              		@ args = 0, pretend = 0, frame = 0
 381              		@ frame_needed = 0, uses_anonymous_args = 0
 382              		@ link register save eliminated.
 183:../system/src/gd32f10x/gd32f10x_i2c.c ****     if(I2C_SMBUS_HOST == type){
 383              		.loc 1 183 5 view .LVU113
 384              		.loc 1 183 7 is_stmt 0 view .LVU114
 385 0000 0829     		cmp	r1, #8
 386 0002 04D0     		beq	.L29
 184:../system/src/gd32f10x/gd32f10x_i2c.c ****         I2C_CTL0(i2c_periph) |= I2C_CTL0_SMBSEL;
 185:../system/src/gd32f10x/gd32f10x_i2c.c ****     }else{
 186:../system/src/gd32f10x/gd32f10x_i2c.c ****         I2C_CTL0(i2c_periph) &= ~(I2C_CTL0_SMBSEL);
 387              		.loc 1 186 9 is_stmt 1 view .LVU115
 388 0004 0368     		ldr	r3, [r0]
 389              		.loc 1 186 30 is_stmt 0 view .LVU116
 390 0006 23F00803 		bic	r3, r3, #8
 391 000a 0360     		str	r3, [r0]
 187:../system/src/gd32f10x/gd32f10x_i2c.c ****     }
 188:../system/src/gd32f10x/gd32f10x_i2c.c **** }
 392              		.loc 1 188 1 view .LVU117
 393 000c 7047     		bx	lr
 394              	.L29:
 184:../system/src/gd32f10x/gd32f10x_i2c.c ****         I2C_CTL0(i2c_periph) |= I2C_CTL0_SMBSEL;
 395              		.loc 1 184 9 is_stmt 1 view .LVU118
 396 000e 0368     		ldr	r3, [r0]
 184:../system/src/gd32f10x/gd32f10x_i2c.c ****         I2C_CTL0(i2c_periph) |= I2C_CTL0_SMBSEL;
 397              		.loc 1 184 30 is_stmt 0 view .LVU119
 398 0010 43F00803 		orr	r3, r3, #8
 399 0014 0360     		str	r3, [r0]
 400 0016 7047     		bx	lr
 401              		.cfi_endproc
 402              	.LFE59:
 404              		.section	.text.i2c_ack_config,"ax",%progbits
 405              		.align	1
 406              		.global	i2c_ack_config
 407              		.syntax unified
 408              		.thumb
 409              		.thumb_func
 411              	i2c_ack_config:
 412              	.LVL50:
 413              	.LFB60:
 189:../system/src/gd32f10x/gd32f10x_i2c.c **** 
 190:../system/src/gd32f10x/gd32f10x_i2c.c **** /*!
 191:../system/src/gd32f10x/gd32f10x_i2c.c ****     \brief      whether or not to send an ACK
 192:../system/src/gd32f10x/gd32f10x_i2c.c ****     \param[in]  i2c_periph: I2Cx(x=0,1)
 193:../system/src/gd32f10x/gd32f10x_i2c.c ****     \param[in]  ack:
 194:../system/src/gd32f10x/gd32f10x_i2c.c ****                 only one parameter can be selected which is shown as below:
 195:../system/src/gd32f10x/gd32f10x_i2c.c ****       \arg        I2C_ACK_ENABLE: ACK will be sent
 196:../system/src/gd32f10x/gd32f10x_i2c.c ****       \arg        I2C_ACK_DISABLE: ACK will not be sent
 197:../system/src/gd32f10x/gd32f10x_i2c.c ****     \param[out] none
 198:../system/src/gd32f10x/gd32f10x_i2c.c ****     \retval     none
 199:../system/src/gd32f10x/gd32f10x_i2c.c **** */
 200:../system/src/gd32f10x/gd32f10x_i2c.c **** void i2c_ack_config(uint32_t i2c_periph, uint32_t ack)
 201:../system/src/gd32f10x/gd32f10x_i2c.c **** {
 414              		.loc 1 201 1 is_stmt 1 view -0
 415              		.cfi_startproc
 416              		@ args = 0, pretend = 0, frame = 0
 417              		@ frame_needed = 0, uses_anonymous_args = 0
 418              		@ link register save eliminated.
 202:../system/src/gd32f10x/gd32f10x_i2c.c ****     uint32_t ctl = 0U;
 419              		.loc 1 202 5 view .LVU121
 203:../system/src/gd32f10x/gd32f10x_i2c.c **** 
 204:../system/src/gd32f10x/gd32f10x_i2c.c ****     ctl = I2C_CTL0(i2c_periph);
 420              		.loc 1 204 5 view .LVU122
 421              		.loc 1 204 9 is_stmt 0 view .LVU123
 422 0000 0368     		ldr	r3, [r0]
 423              	.LVL51:
 205:../system/src/gd32f10x/gd32f10x_i2c.c ****     ctl &= ~(I2C_CTL0_ACKEN);
 424              		.loc 1 205 5 is_stmt 1 view .LVU124
 425              		.loc 1 205 9 is_stmt 0 view .LVU125
 426 0002 23F48063 		bic	r3, r3, #1024
 427              	.LVL52:
 206:../system/src/gd32f10x/gd32f10x_i2c.c ****     ctl |= ack;
 428              		.loc 1 206 5 is_stmt 1 view .LVU126
 429              		.loc 1 206 9 is_stmt 0 view .LVU127
 430 0006 0B43     		orrs	r3, r3, r1
 431              	.LVL53:
 207:../system/src/gd32f10x/gd32f10x_i2c.c ****     I2C_CTL0(i2c_periph) = ctl;
 432              		.loc 1 207 5 is_stmt 1 view .LVU128
 433              		.loc 1 207 26 is_stmt 0 view .LVU129
 434 0008 0360     		str	r3, [r0]
 208:../system/src/gd32f10x/gd32f10x_i2c.c **** }
 435              		.loc 1 208 1 view .LVU130
 436 000a 7047     		bx	lr
 437              		.cfi_endproc
 438              	.LFE60:
 440              		.section	.text.i2c_ackpos_config,"ax",%progbits
 441              		.align	1
 442              		.global	i2c_ackpos_config
 443              		.syntax unified
 444              		.thumb
 445              		.thumb_func
 447              	i2c_ackpos_config:
 448              	.LVL54:
 449              	.LFB61:
 209:../system/src/gd32f10x/gd32f10x_i2c.c **** 
 210:../system/src/gd32f10x/gd32f10x_i2c.c **** /*!
 211:../system/src/gd32f10x/gd32f10x_i2c.c ****     \brief      configure I2C POAP position
 212:../system/src/gd32f10x/gd32f10x_i2c.c ****     \param[in]  i2c_periph: I2Cx(x=0,1)
 213:../system/src/gd32f10x/gd32f10x_i2c.c ****     \param[in]  pos:
 214:../system/src/gd32f10x/gd32f10x_i2c.c ****                 only one parameter can be selected which is shown as below:
 215:../system/src/gd32f10x/gd32f10x_i2c.c ****       \arg        I2C_ACKPOS_CURRENT: ACKEN bit decides whether or not to send ACK or not for the c
 216:../system/src/gd32f10x/gd32f10x_i2c.c ****       \arg        I2C_ACKPOS_NEXT: ACKEN bit decides whether or not to send ACK for the next byte
 217:../system/src/gd32f10x/gd32f10x_i2c.c ****     \param[out] none
 218:../system/src/gd32f10x/gd32f10x_i2c.c ****     \retval     none
 219:../system/src/gd32f10x/gd32f10x_i2c.c **** */
 220:../system/src/gd32f10x/gd32f10x_i2c.c **** void i2c_ackpos_config(uint32_t i2c_periph, uint32_t pos)
 221:../system/src/gd32f10x/gd32f10x_i2c.c **** {
 450              		.loc 1 221 1 is_stmt 1 view -0
 451              		.cfi_startproc
 452              		@ args = 0, pretend = 0, frame = 0
 453              		@ frame_needed = 0, uses_anonymous_args = 0
 454              		@ link register save eliminated.
 222:../system/src/gd32f10x/gd32f10x_i2c.c ****     uint32_t ctl = 0U;
 455              		.loc 1 222 5 view .LVU132
 223:../system/src/gd32f10x/gd32f10x_i2c.c ****     /* configure I2C POAP position */
 224:../system/src/gd32f10x/gd32f10x_i2c.c ****     ctl = I2C_CTL0(i2c_periph);
 456              		.loc 1 224 5 view .LVU133
 457              		.loc 1 224 9 is_stmt 0 view .LVU134
 458 0000 0368     		ldr	r3, [r0]
 459              	.LVL55:
 225:../system/src/gd32f10x/gd32f10x_i2c.c ****     ctl &= ~(I2C_CTL0_POAP);
 460              		.loc 1 225 5 is_stmt 1 view .LVU135
 461              		.loc 1 225 9 is_stmt 0 view .LVU136
 462 0002 23F40063 		bic	r3, r3, #2048
 463              	.LVL56:
 226:../system/src/gd32f10x/gd32f10x_i2c.c ****     ctl |= pos;
 464              		.loc 1 226 5 is_stmt 1 view .LVU137
 465              		.loc 1 226 9 is_stmt 0 view .LVU138
 466 0006 0B43     		orrs	r3, r3, r1
 467              	.LVL57:
 227:../system/src/gd32f10x/gd32f10x_i2c.c ****     I2C_CTL0(i2c_periph) = ctl;
 468              		.loc 1 227 5 is_stmt 1 view .LVU139
 469              		.loc 1 227 26 is_stmt 0 view .LVU140
 470 0008 0360     		str	r3, [r0]
 228:../system/src/gd32f10x/gd32f10x_i2c.c **** }
 471              		.loc 1 228 1 view .LVU141
 472 000a 7047     		bx	lr
 473              		.cfi_endproc
 474              	.LFE61:
 476              		.section	.text.i2c_master_addressing,"ax",%progbits
 477              		.align	1
 478              		.global	i2c_master_addressing
 479              		.syntax unified
 480              		.thumb
 481              		.thumb_func
 483              	i2c_master_addressing:
 484              	.LVL58:
 485              	.LFB62:
 229:../system/src/gd32f10x/gd32f10x_i2c.c **** 
 230:../system/src/gd32f10x/gd32f10x_i2c.c **** /*!
 231:../system/src/gd32f10x/gd32f10x_i2c.c ****     \brief      master sends slave address
 232:../system/src/gd32f10x/gd32f10x_i2c.c ****     \param[in]  i2c_periph: I2Cx(x=0,1)
 233:../system/src/gd32f10x/gd32f10x_i2c.c ****     \param[in]  addr: slave address  
 234:../system/src/gd32f10x/gd32f10x_i2c.c ****     \param[in]  trandirection: transmitter or receiver
 235:../system/src/gd32f10x/gd32f10x_i2c.c ****                 only one parameter can be selected which is shown as below:
 236:../system/src/gd32f10x/gd32f10x_i2c.c ****       \arg        I2C_TRANSMITTER: transmitter  
 237:../system/src/gd32f10x/gd32f10x_i2c.c ****       \arg        I2C_RECEIVER: receiver  
 238:../system/src/gd32f10x/gd32f10x_i2c.c ****     \param[out] none
 239:../system/src/gd32f10x/gd32f10x_i2c.c ****     \retval     none
 240:../system/src/gd32f10x/gd32f10x_i2c.c **** */
 241:../system/src/gd32f10x/gd32f10x_i2c.c **** void i2c_master_addressing(uint32_t i2c_periph, uint32_t addr, uint32_t trandirection)
 242:../system/src/gd32f10x/gd32f10x_i2c.c **** {
 486              		.loc 1 242 1 is_stmt 1 view -0
 487              		.cfi_startproc
 488              		@ args = 0, pretend = 0, frame = 0
 489              		@ frame_needed = 0, uses_anonymous_args = 0
 490              		@ link register save eliminated.
 243:../system/src/gd32f10x/gd32f10x_i2c.c ****     /* master is a transmitter or a receiver */
 244:../system/src/gd32f10x/gd32f10x_i2c.c ****     if(I2C_TRANSMITTER == trandirection){
 491              		.loc 1 244 5 view .LVU143
 492              		.loc 1 244 7 is_stmt 0 view .LVU144
 493 0000 12F1020F 		cmn	r2, #2
 494 0004 03D0     		beq	.L35
 245:../system/src/gd32f10x/gd32f10x_i2c.c ****         addr = addr & I2C_TRANSMITTER;
 246:../system/src/gd32f10x/gd32f10x_i2c.c ****     }else{
 247:../system/src/gd32f10x/gd32f10x_i2c.c ****         addr = addr | I2C_RECEIVER;
 495              		.loc 1 247 9 is_stmt 1 view .LVU145
 496              		.loc 1 247 14 is_stmt 0 view .LVU146
 497 0006 41F00101 		orr	r1, r1, #1
 498              	.LVL59:
 499              	.L34:
 248:../system/src/gd32f10x/gd32f10x_i2c.c ****     }
 249:../system/src/gd32f10x/gd32f10x_i2c.c ****     /* send slave address */
 250:../system/src/gd32f10x/gd32f10x_i2c.c ****     I2C_DATA(i2c_periph) = addr;
 500              		.loc 1 250 5 is_stmt 1 view .LVU147
 501              		.loc 1 250 26 is_stmt 0 view .LVU148
 502 000a 0161     		str	r1, [r0, #16]
 251:../system/src/gd32f10x/gd32f10x_i2c.c **** }
 503              		.loc 1 251 1 view .LVU149
 504 000c 7047     		bx	lr
 505              	.L35:
 245:../system/src/gd32f10x/gd32f10x_i2c.c ****         addr = addr & I2C_TRANSMITTER;
 506              		.loc 1 245 9 is_stmt 1 view .LVU150
 245:../system/src/gd32f10x/gd32f10x_i2c.c ****         addr = addr & I2C_TRANSMITTER;
 507              		.loc 1 245 14 is_stmt 0 view .LVU151
 508 000e 21F00101 		bic	r1, r1, #1
 509              	.LVL60:
 245:../system/src/gd32f10x/gd32f10x_i2c.c ****         addr = addr & I2C_TRANSMITTER;
 510              		.loc 1 245 14 view .LVU152
 511 0012 FAE7     		b	.L34
 512              		.cfi_endproc
 513              	.LFE62:
 515              		.section	.text.i2c_dualaddr_enable,"ax",%progbits
 516              		.align	1
 517              		.global	i2c_dualaddr_enable
 518              		.syntax unified
 519              		.thumb
 520              		.thumb_func
 522              	i2c_dualaddr_enable:
 523              	.LVL61:
 524              	.LFB63:
 252:../system/src/gd32f10x/gd32f10x_i2c.c **** 
 253:../system/src/gd32f10x/gd32f10x_i2c.c **** /*!
 254:../system/src/gd32f10x/gd32f10x_i2c.c ****     \brief      enable dual-address mode
 255:../system/src/gd32f10x/gd32f10x_i2c.c ****     \param[in]  i2c_periph: I2Cx(x=0,1)
 256:../system/src/gd32f10x/gd32f10x_i2c.c ****     \param[in]  addr: the second address in dual-address mode
 257:../system/src/gd32f10x/gd32f10x_i2c.c ****     \param[out] none
 258:../system/src/gd32f10x/gd32f10x_i2c.c ****     \retval     none
 259:../system/src/gd32f10x/gd32f10x_i2c.c **** */
 260:../system/src/gd32f10x/gd32f10x_i2c.c **** void i2c_dualaddr_enable(uint32_t i2c_periph, uint32_t addr)
 261:../system/src/gd32f10x/gd32f10x_i2c.c **** {
 525              		.loc 1 261 1 is_stmt 1 view -0
 526              		.cfi_startproc
 527              		@ args = 0, pretend = 0, frame = 0
 528              		@ frame_needed = 0, uses_anonymous_args = 0
 529              		@ link register save eliminated.
 262:../system/src/gd32f10x/gd32f10x_i2c.c ****     /* configure address */
 263:../system/src/gd32f10x/gd32f10x_i2c.c ****     addr = addr & I2C_ADDRESS2_MASK;
 530              		.loc 1 263 5 view .LVU154
 531              		.loc 1 263 10 is_stmt 0 view .LVU155
 532 0000 01F0FE01 		and	r1, r1, #254
 533              	.LVL62:
 264:../system/src/gd32f10x/gd32f10x_i2c.c ****     I2C_SADDR1(i2c_periph) = (I2C_SADDR1_DUADEN | addr);
 534              		.loc 1 264 5 is_stmt 1 view .LVU156
 535              		.loc 1 264 49 is_stmt 0 view .LVU157
 536 0004 41F00101 		orr	r1, r1, #1
 537              	.LVL63:
 538              		.loc 1 264 28 view .LVU158
 539 0008 C160     		str	r1, [r0, #12]
 265:../system/src/gd32f10x/gd32f10x_i2c.c **** }
 540              		.loc 1 265 1 view .LVU159
 541 000a 7047     		bx	lr
 542              		.cfi_endproc
 543              	.LFE63:
 545              		.section	.text.i2c_dualaddr_disable,"ax",%progbits
 546              		.align	1
 547              		.global	i2c_dualaddr_disable
 548              		.syntax unified
 549              		.thumb
 550              		.thumb_func
 552              	i2c_dualaddr_disable:
 553              	.LVL64:
 554              	.LFB64:
 266:../system/src/gd32f10x/gd32f10x_i2c.c **** 
 267:../system/src/gd32f10x/gd32f10x_i2c.c **** /*!
 268:../system/src/gd32f10x/gd32f10x_i2c.c ****     \brief      disable dual-address mode
 269:../system/src/gd32f10x/gd32f10x_i2c.c ****     \param[in]  i2c_periph: I2Cx(x=0,1) 
 270:../system/src/gd32f10x/gd32f10x_i2c.c ****     \param[out] none
 271:../system/src/gd32f10x/gd32f10x_i2c.c ****     \retval     none
 272:../system/src/gd32f10x/gd32f10x_i2c.c **** */
 273:../system/src/gd32f10x/gd32f10x_i2c.c **** void i2c_dualaddr_disable(uint32_t i2c_periph)
 274:../system/src/gd32f10x/gd32f10x_i2c.c **** {
 555              		.loc 1 274 1 is_stmt 1 view -0
 556              		.cfi_startproc
 557              		@ args = 0, pretend = 0, frame = 0
 558              		@ frame_needed = 0, uses_anonymous_args = 0
 559              		@ link register save eliminated.
 275:../system/src/gd32f10x/gd32f10x_i2c.c ****     I2C_SADDR1(i2c_periph) &= ~(I2C_SADDR1_DUADEN);
 560              		.loc 1 275 5 view .LVU161
 561 0000 C368     		ldr	r3, [r0, #12]
 562              		.loc 1 275 28 is_stmt 0 view .LVU162
 563 0002 23F00103 		bic	r3, r3, #1
 564 0006 C360     		str	r3, [r0, #12]
 276:../system/src/gd32f10x/gd32f10x_i2c.c **** }
 565              		.loc 1 276 1 view .LVU163
 566 0008 7047     		bx	lr
 567              		.cfi_endproc
 568              	.LFE64:
 570              		.section	.text.i2c_enable,"ax",%progbits
 571              		.align	1
 572              		.global	i2c_enable
 573              		.syntax unified
 574              		.thumb
 575              		.thumb_func
 577              	i2c_enable:
 578              	.LVL65:
 579              	.LFB65:
 277:../system/src/gd32f10x/gd32f10x_i2c.c **** 
 278:../system/src/gd32f10x/gd32f10x_i2c.c **** /*!
 279:../system/src/gd32f10x/gd32f10x_i2c.c ****     \brief      enable I2C
 280:../system/src/gd32f10x/gd32f10x_i2c.c ****     \param[in]  i2c_periph: I2Cx(x=0,1) 
 281:../system/src/gd32f10x/gd32f10x_i2c.c ****     \param[out] none
 282:../system/src/gd32f10x/gd32f10x_i2c.c ****     \retval     none
 283:../system/src/gd32f10x/gd32f10x_i2c.c **** */
 284:../system/src/gd32f10x/gd32f10x_i2c.c **** void i2c_enable(uint32_t i2c_periph)
 285:../system/src/gd32f10x/gd32f10x_i2c.c **** {
 580              		.loc 1 285 1 is_stmt 1 view -0
 581              		.cfi_startproc
 582              		@ args = 0, pretend = 0, frame = 0
 583              		@ frame_needed = 0, uses_anonymous_args = 0
 584              		@ link register save eliminated.
 286:../system/src/gd32f10x/gd32f10x_i2c.c ****     I2C_CTL0(i2c_periph) |= I2C_CTL0_I2CEN;
 585              		.loc 1 286 5 view .LVU165
 586 0000 0368     		ldr	r3, [r0]
 587              		.loc 1 286 26 is_stmt 0 view .LVU166
 588 0002 43F00103 		orr	r3, r3, #1
 589 0006 0360     		str	r3, [r0]
 287:../system/src/gd32f10x/gd32f10x_i2c.c **** }
 590              		.loc 1 287 1 view .LVU167
 591 0008 7047     		bx	lr
 592              		.cfi_endproc
 593              	.LFE65:
 595              		.section	.text.i2c_disable,"ax",%progbits
 596              		.align	1
 597              		.global	i2c_disable
 598              		.syntax unified
 599              		.thumb
 600              		.thumb_func
 602              	i2c_disable:
 603              	.LVL66:
 604              	.LFB66:
 288:../system/src/gd32f10x/gd32f10x_i2c.c **** 
 289:../system/src/gd32f10x/gd32f10x_i2c.c **** /*!
 290:../system/src/gd32f10x/gd32f10x_i2c.c ****     \brief      disable I2C
 291:../system/src/gd32f10x/gd32f10x_i2c.c ****     \param[in]  i2c_periph: I2Cx(x=0,1) 
 292:../system/src/gd32f10x/gd32f10x_i2c.c ****     \param[out] none
 293:../system/src/gd32f10x/gd32f10x_i2c.c ****     \retval     none
 294:../system/src/gd32f10x/gd32f10x_i2c.c **** */
 295:../system/src/gd32f10x/gd32f10x_i2c.c **** void i2c_disable(uint32_t i2c_periph)
 296:../system/src/gd32f10x/gd32f10x_i2c.c **** {
 605              		.loc 1 296 1 is_stmt 1 view -0
 606              		.cfi_startproc
 607              		@ args = 0, pretend = 0, frame = 0
 608              		@ frame_needed = 0, uses_anonymous_args = 0
 609              		@ link register save eliminated.
 297:../system/src/gd32f10x/gd32f10x_i2c.c ****     I2C_CTL0(i2c_periph) &= ~(I2C_CTL0_I2CEN);
 610              		.loc 1 297 5 view .LVU169
 611 0000 0368     		ldr	r3, [r0]
 612              		.loc 1 297 26 is_stmt 0 view .LVU170
 613 0002 23F00103 		bic	r3, r3, #1
 614 0006 0360     		str	r3, [r0]
 298:../system/src/gd32f10x/gd32f10x_i2c.c **** }
 615              		.loc 1 298 1 view .LVU171
 616 0008 7047     		bx	lr
 617              		.cfi_endproc
 618              	.LFE66:
 620              		.section	.text.i2c_start_on_bus,"ax",%progbits
 621              		.align	1
 622              		.global	i2c_start_on_bus
 623              		.syntax unified
 624              		.thumb
 625              		.thumb_func
 627              	i2c_start_on_bus:
 628              	.LVL67:
 629              	.LFB67:
 299:../system/src/gd32f10x/gd32f10x_i2c.c **** 
 300:../system/src/gd32f10x/gd32f10x_i2c.c **** /*!
 301:../system/src/gd32f10x/gd32f10x_i2c.c ****     \brief      generate a START condition on I2C bus
 302:../system/src/gd32f10x/gd32f10x_i2c.c ****     \param[in]  i2c_periph: I2Cx(x=0,1)
 303:../system/src/gd32f10x/gd32f10x_i2c.c ****     \param[out] none
 304:../system/src/gd32f10x/gd32f10x_i2c.c ****     \retval     none
 305:../system/src/gd32f10x/gd32f10x_i2c.c **** */
 306:../system/src/gd32f10x/gd32f10x_i2c.c **** void i2c_start_on_bus(uint32_t i2c_periph)
 307:../system/src/gd32f10x/gd32f10x_i2c.c **** {
 630              		.loc 1 307 1 is_stmt 1 view -0
 631              		.cfi_startproc
 632              		@ args = 0, pretend = 0, frame = 0
 633              		@ frame_needed = 0, uses_anonymous_args = 0
 634              		@ link register save eliminated.
 308:../system/src/gd32f10x/gd32f10x_i2c.c ****     I2C_CTL0(i2c_periph) |= I2C_CTL0_START;
 635              		.loc 1 308 5 view .LVU173
 636 0000 0368     		ldr	r3, [r0]
 637              		.loc 1 308 26 is_stmt 0 view .LVU174
 638 0002 43F48073 		orr	r3, r3, #256
 639 0006 0360     		str	r3, [r0]
 309:../system/src/gd32f10x/gd32f10x_i2c.c **** }
 640              		.loc 1 309 1 view .LVU175
 641 0008 7047     		bx	lr
 642              		.cfi_endproc
 643              	.LFE67:
 645              		.section	.text.i2c_stop_on_bus,"ax",%progbits
 646              		.align	1
 647              		.global	i2c_stop_on_bus
 648              		.syntax unified
 649              		.thumb
 650              		.thumb_func
 652              	i2c_stop_on_bus:
 653              	.LVL68:
 654              	.LFB68:
 310:../system/src/gd32f10x/gd32f10x_i2c.c **** 
 311:../system/src/gd32f10x/gd32f10x_i2c.c **** /*!
 312:../system/src/gd32f10x/gd32f10x_i2c.c ****     \brief      generate a STOP condition on I2C bus
 313:../system/src/gd32f10x/gd32f10x_i2c.c ****     \param[in]  i2c_periph: I2Cx(x=0,1)
 314:../system/src/gd32f10x/gd32f10x_i2c.c ****     \param[out] none
 315:../system/src/gd32f10x/gd32f10x_i2c.c ****     \retval     none
 316:../system/src/gd32f10x/gd32f10x_i2c.c **** */
 317:../system/src/gd32f10x/gd32f10x_i2c.c **** void i2c_stop_on_bus(uint32_t i2c_periph)
 318:../system/src/gd32f10x/gd32f10x_i2c.c **** {
 655              		.loc 1 318 1 is_stmt 1 view -0
 656              		.cfi_startproc
 657              		@ args = 0, pretend = 0, frame = 0
 658              		@ frame_needed = 0, uses_anonymous_args = 0
 659              		@ link register save eliminated.
 319:../system/src/gd32f10x/gd32f10x_i2c.c ****     I2C_CTL0(i2c_periph) |= I2C_CTL0_STOP;
 660              		.loc 1 319 5 view .LVU177
 661 0000 0368     		ldr	r3, [r0]
 662              		.loc 1 319 26 is_stmt 0 view .LVU178
 663 0002 43F40073 		orr	r3, r3, #512
 664 0006 0360     		str	r3, [r0]
 320:../system/src/gd32f10x/gd32f10x_i2c.c **** }
 665              		.loc 1 320 1 view .LVU179
 666 0008 7047     		bx	lr
 667              		.cfi_endproc
 668              	.LFE68:
 670              		.section	.text.i2c_data_transmit,"ax",%progbits
 671              		.align	1
 672              		.global	i2c_data_transmit
 673              		.syntax unified
 674              		.thumb
 675              		.thumb_func
 677              	i2c_data_transmit:
 678              	.LVL69:
 679              	.LFB69:
 321:../system/src/gd32f10x/gd32f10x_i2c.c **** 
 322:../system/src/gd32f10x/gd32f10x_i2c.c **** /*!
 323:../system/src/gd32f10x/gd32f10x_i2c.c ****     \brief      I2C transmit data function
 324:../system/src/gd32f10x/gd32f10x_i2c.c ****     \param[in]  i2c_periph: I2Cx(x=0,1)
 325:../system/src/gd32f10x/gd32f10x_i2c.c ****     \param[in]  data: data of transmission 
 326:../system/src/gd32f10x/gd32f10x_i2c.c ****     \param[out] none
 327:../system/src/gd32f10x/gd32f10x_i2c.c ****     \retval     none
 328:../system/src/gd32f10x/gd32f10x_i2c.c **** */
 329:../system/src/gd32f10x/gd32f10x_i2c.c **** void i2c_data_transmit(uint32_t i2c_periph, uint8_t data)
 330:../system/src/gd32f10x/gd32f10x_i2c.c **** {
 680              		.loc 1 330 1 is_stmt 1 view -0
 681              		.cfi_startproc
 682              		@ args = 0, pretend = 0, frame = 0
 683              		@ frame_needed = 0, uses_anonymous_args = 0
 684              		@ link register save eliminated.
 331:../system/src/gd32f10x/gd32f10x_i2c.c ****     I2C_DATA(i2c_periph) = DATA_TRANS(data);
 685              		.loc 1 331 5 view .LVU181
 686              		.loc 1 331 26 is_stmt 0 view .LVU182
 687 0000 0161     		str	r1, [r0, #16]
 332:../system/src/gd32f10x/gd32f10x_i2c.c **** }
 688              		.loc 1 332 1 view .LVU183
 689 0002 7047     		bx	lr
 690              		.cfi_endproc
 691              	.LFE69:
 693              		.section	.text.i2c_data_receive,"ax",%progbits
 694              		.align	1
 695              		.global	i2c_data_receive
 696              		.syntax unified
 697              		.thumb
 698              		.thumb_func
 700              	i2c_data_receive:
 701              	.LVL70:
 702              	.LFB70:
 333:../system/src/gd32f10x/gd32f10x_i2c.c **** 
 334:../system/src/gd32f10x/gd32f10x_i2c.c **** /*!
 335:../system/src/gd32f10x/gd32f10x_i2c.c ****     \brief      I2C receive data function
 336:../system/src/gd32f10x/gd32f10x_i2c.c ****     \param[in]  i2c_periph: I2Cx(x=0,1)
 337:../system/src/gd32f10x/gd32f10x_i2c.c ****     \param[out] none
 338:../system/src/gd32f10x/gd32f10x_i2c.c ****     \retval     data of received
 339:../system/src/gd32f10x/gd32f10x_i2c.c **** */
 340:../system/src/gd32f10x/gd32f10x_i2c.c **** uint8_t i2c_data_receive(uint32_t i2c_periph)
 341:../system/src/gd32f10x/gd32f10x_i2c.c **** {
 703              		.loc 1 341 1 is_stmt 1 view -0
 704              		.cfi_startproc
 705              		@ args = 0, pretend = 0, frame = 0
 706              		@ frame_needed = 0, uses_anonymous_args = 0
 707              		@ link register save eliminated.
 342:../system/src/gd32f10x/gd32f10x_i2c.c ****     return (uint8_t)DATA_RECV(I2C_DATA(i2c_periph));
 708              		.loc 1 342 5 view .LVU185
 709              		.loc 1 342 21 is_stmt 0 view .LVU186
 710 0000 0069     		ldr	r0, [r0, #16]
 711              	.LVL71:
 343:../system/src/gd32f10x/gd32f10x_i2c.c **** }
 712              		.loc 1 343 1 view .LVU187
 713 0002 C0B2     		uxtb	r0, r0
 714 0004 7047     		bx	lr
 715              		.cfi_endproc
 716              	.LFE70:
 718              		.section	.text.i2c_dma_config,"ax",%progbits
 719              		.align	1
 720              		.global	i2c_dma_config
 721              		.syntax unified
 722              		.thumb
 723              		.thumb_func
 725              	i2c_dma_config:
 726              	.LVL72:
 727              	.LFB71:
 344:../system/src/gd32f10x/gd32f10x_i2c.c **** 
 345:../system/src/gd32f10x/gd32f10x_i2c.c **** /*!
 346:../system/src/gd32f10x/gd32f10x_i2c.c ****     \brief      configure I2C DMA mode
 347:../system/src/gd32f10x/gd32f10x_i2c.c ****     \param[in]  i2c_periph: I2Cx(x=0,1)
 348:../system/src/gd32f10x/gd32f10x_i2c.c ****     \param[in]  dmastate:
 349:../system/src/gd32f10x/gd32f10x_i2c.c ****                 only one parameter can be selected which is shown as below:
 350:../system/src/gd32f10x/gd32f10x_i2c.c ****       \arg        I2C_DMA_ON: enable DMA mode
 351:../system/src/gd32f10x/gd32f10x_i2c.c ****       \arg        I2C_DMA_OFF: disable DMA mode
 352:../system/src/gd32f10x/gd32f10x_i2c.c ****     \param[out] none
 353:../system/src/gd32f10x/gd32f10x_i2c.c ****     \retval     none
 354:../system/src/gd32f10x/gd32f10x_i2c.c **** */
 355:../system/src/gd32f10x/gd32f10x_i2c.c **** void i2c_dma_config(uint32_t i2c_periph, uint32_t dmastate)
 356:../system/src/gd32f10x/gd32f10x_i2c.c **** {
 728              		.loc 1 356 1 is_stmt 1 view -0
 729              		.cfi_startproc
 730              		@ args = 0, pretend = 0, frame = 0
 731              		@ frame_needed = 0, uses_anonymous_args = 0
 732              		@ link register save eliminated.
 357:../system/src/gd32f10x/gd32f10x_i2c.c ****     /* configure I2C DMA function */
 358:../system/src/gd32f10x/gd32f10x_i2c.c ****     uint32_t ctl = 0U;
 733              		.loc 1 358 5 view .LVU189
 359:../system/src/gd32f10x/gd32f10x_i2c.c ****     
 360:../system/src/gd32f10x/gd32f10x_i2c.c ****     ctl = I2C_CTL1(i2c_periph);
 734              		.loc 1 360 5 view .LVU190
 735              		.loc 1 360 9 is_stmt 0 view .LVU191
 736 0000 4368     		ldr	r3, [r0, #4]
 737              	.LVL73:
 361:../system/src/gd32f10x/gd32f10x_i2c.c ****     ctl &= ~(I2C_CTL1_DMAON); 
 738              		.loc 1 361 5 is_stmt 1 view .LVU192
 739              		.loc 1 361 9 is_stmt 0 view .LVU193
 740 0002 23F40063 		bic	r3, r3, #2048
 741              	.LVL74:
 362:../system/src/gd32f10x/gd32f10x_i2c.c ****     ctl |= dmastate;
 742              		.loc 1 362 5 is_stmt 1 view .LVU194
 743              		.loc 1 362 9 is_stmt 0 view .LVU195
 744 0006 0B43     		orrs	r3, r3, r1
 745              	.LVL75:
 363:../system/src/gd32f10x/gd32f10x_i2c.c ****     I2C_CTL1(i2c_periph) = ctl;
 746              		.loc 1 363 5 is_stmt 1 view .LVU196
 747              		.loc 1 363 26 is_stmt 0 view .LVU197
 748 0008 4360     		str	r3, [r0, #4]
 364:../system/src/gd32f10x/gd32f10x_i2c.c **** }
 749              		.loc 1 364 1 view .LVU198
 750 000a 7047     		bx	lr
 751              		.cfi_endproc
 752              	.LFE71:
 754              		.section	.text.i2c_dma_last_transfer_config,"ax",%progbits
 755              		.align	1
 756              		.global	i2c_dma_last_transfer_config
 757              		.syntax unified
 758              		.thumb
 759              		.thumb_func
 761              	i2c_dma_last_transfer_config:
 762              	.LVL76:
 763              	.LFB72:
 365:../system/src/gd32f10x/gd32f10x_i2c.c **** 
 366:../system/src/gd32f10x/gd32f10x_i2c.c **** /*!
 367:../system/src/gd32f10x/gd32f10x_i2c.c ****     \brief      configure whether next DMA EOT is DMA last transfer or not
 368:../system/src/gd32f10x/gd32f10x_i2c.c ****     \param[in]  i2c_periph: I2Cx(x=0,1)
 369:../system/src/gd32f10x/gd32f10x_i2c.c ****     \param[in]  dmalast:
 370:../system/src/gd32f10x/gd32f10x_i2c.c ****                 only one parameter can be selected which is shown as below:
 371:../system/src/gd32f10x/gd32f10x_i2c.c ****       \arg        I2C_DMALST_ON: next DMA EOT is the last transfer
 372:../system/src/gd32f10x/gd32f10x_i2c.c ****       \arg        I2C_DMALST_OFF: next DMA EOT is not the last transfer
 373:../system/src/gd32f10x/gd32f10x_i2c.c ****     \param[out] none
 374:../system/src/gd32f10x/gd32f10x_i2c.c ****     \retval     none
 375:../system/src/gd32f10x/gd32f10x_i2c.c **** */
 376:../system/src/gd32f10x/gd32f10x_i2c.c **** void i2c_dma_last_transfer_config(uint32_t i2c_periph, uint32_t dmalast)
 377:../system/src/gd32f10x/gd32f10x_i2c.c **** {
 764              		.loc 1 377 1 is_stmt 1 view -0
 765              		.cfi_startproc
 766              		@ args = 0, pretend = 0, frame = 0
 767              		@ frame_needed = 0, uses_anonymous_args = 0
 768              		@ link register save eliminated.
 378:../system/src/gd32f10x/gd32f10x_i2c.c ****     /* configure DMA last transfer */
 379:../system/src/gd32f10x/gd32f10x_i2c.c ****     uint32_t ctl = 0U;
 769              		.loc 1 379 5 view .LVU200
 380:../system/src/gd32f10x/gd32f10x_i2c.c ****     
 381:../system/src/gd32f10x/gd32f10x_i2c.c ****     ctl = I2C_CTL1(i2c_periph);
 770              		.loc 1 381 5 view .LVU201
 771              		.loc 1 381 9 is_stmt 0 view .LVU202
 772 0000 4368     		ldr	r3, [r0, #4]
 773              	.LVL77:
 382:../system/src/gd32f10x/gd32f10x_i2c.c ****     ctl &= ~(I2C_CTL1_DMALST); 
 774              		.loc 1 382 5 is_stmt 1 view .LVU203
 775              		.loc 1 382 9 is_stmt 0 view .LVU204
 776 0002 23F48053 		bic	r3, r3, #4096
 777              	.LVL78:
 383:../system/src/gd32f10x/gd32f10x_i2c.c ****     ctl |= dmalast;
 778              		.loc 1 383 5 is_stmt 1 view .LVU205
 779              		.loc 1 383 9 is_stmt 0 view .LVU206
 780 0006 0B43     		orrs	r3, r3, r1
 781              	.LVL79:
 384:../system/src/gd32f10x/gd32f10x_i2c.c ****     I2C_CTL1(i2c_periph) = ctl;
 782              		.loc 1 384 5 is_stmt 1 view .LVU207
 783              		.loc 1 384 26 is_stmt 0 view .LVU208
 784 0008 4360     		str	r3, [r0, #4]
 385:../system/src/gd32f10x/gd32f10x_i2c.c **** }
 785              		.loc 1 385 1 view .LVU209
 786 000a 7047     		bx	lr
 787              		.cfi_endproc
 788              	.LFE72:
 790              		.section	.text.i2c_stretch_scl_low_config,"ax",%progbits
 791              		.align	1
 792              		.global	i2c_stretch_scl_low_config
 793              		.syntax unified
 794              		.thumb
 795              		.thumb_func
 797              	i2c_stretch_scl_low_config:
 798              	.LVL80:
 799              	.LFB73:
 386:../system/src/gd32f10x/gd32f10x_i2c.c **** 
 387:../system/src/gd32f10x/gd32f10x_i2c.c **** /*!
 388:../system/src/gd32f10x/gd32f10x_i2c.c ****     \brief      whether to stretch SCL low when data is not ready in slave mode
 389:../system/src/gd32f10x/gd32f10x_i2c.c ****     \param[in]  i2c_periph: I2Cx(x=0,1)
 390:../system/src/gd32f10x/gd32f10x_i2c.c ****     \param[in]  stretchpara:
 391:../system/src/gd32f10x/gd32f10x_i2c.c ****                 only one parameter can be selected which is shown as below:
 392:../system/src/gd32f10x/gd32f10x_i2c.c ****       \arg        I2C_SCLSTRETCH_ENABLE: enable SCL stretching
 393:../system/src/gd32f10x/gd32f10x_i2c.c ****       \arg        I2C_SCLSTRETCH_DISABLE: disable SCL stretching
 394:../system/src/gd32f10x/gd32f10x_i2c.c ****     \param[out] none
 395:../system/src/gd32f10x/gd32f10x_i2c.c ****     \retval     none
 396:../system/src/gd32f10x/gd32f10x_i2c.c **** */
 397:../system/src/gd32f10x/gd32f10x_i2c.c **** void i2c_stretch_scl_low_config(uint32_t i2c_periph, uint32_t stretchpara)
 398:../system/src/gd32f10x/gd32f10x_i2c.c **** {
 800              		.loc 1 398 1 is_stmt 1 view -0
 801              		.cfi_startproc
 802              		@ args = 0, pretend = 0, frame = 0
 803              		@ frame_needed = 0, uses_anonymous_args = 0
 804              		@ link register save eliminated.
 399:../system/src/gd32f10x/gd32f10x_i2c.c ****     /* configure I2C SCL strerching */
 400:../system/src/gd32f10x/gd32f10x_i2c.c ****     uint32_t ctl = 0U;
 805              		.loc 1 400 5 view .LVU211
 401:../system/src/gd32f10x/gd32f10x_i2c.c ****     
 402:../system/src/gd32f10x/gd32f10x_i2c.c ****     ctl = I2C_CTL0(i2c_periph);
 806              		.loc 1 402 5 view .LVU212
 807              		.loc 1 402 9 is_stmt 0 view .LVU213
 808 0000 0368     		ldr	r3, [r0]
 809              	.LVL81:
 403:../system/src/gd32f10x/gd32f10x_i2c.c ****     ctl &= ~(I2C_CTL0_SS); 
 810              		.loc 1 403 5 is_stmt 1 view .LVU214
 811              		.loc 1 403 9 is_stmt 0 view .LVU215
 812 0002 23F08003 		bic	r3, r3, #128
 813              	.LVL82:
 404:../system/src/gd32f10x/gd32f10x_i2c.c ****     ctl |= stretchpara;
 814              		.loc 1 404 5 is_stmt 1 view .LVU216
 815              		.loc 1 404 9 is_stmt 0 view .LVU217
 816 0006 0B43     		orrs	r3, r3, r1
 817              	.LVL83:
 405:../system/src/gd32f10x/gd32f10x_i2c.c ****     I2C_CTL0(i2c_periph) = ctl;
 818              		.loc 1 405 5 is_stmt 1 view .LVU218
 819              		.loc 1 405 26 is_stmt 0 view .LVU219
 820 0008 0360     		str	r3, [r0]
 406:../system/src/gd32f10x/gd32f10x_i2c.c **** }
 821              		.loc 1 406 1 view .LVU220
 822 000a 7047     		bx	lr
 823              		.cfi_endproc
 824              	.LFE73:
 826              		.section	.text.i2c_slave_response_to_gcall_config,"ax",%progbits
 827              		.align	1
 828              		.global	i2c_slave_response_to_gcall_config
 829              		.syntax unified
 830              		.thumb
 831              		.thumb_func
 833              	i2c_slave_response_to_gcall_config:
 834              	.LVL84:
 835              	.LFB74:
 407:../system/src/gd32f10x/gd32f10x_i2c.c **** 
 408:../system/src/gd32f10x/gd32f10x_i2c.c **** /*!
 409:../system/src/gd32f10x/gd32f10x_i2c.c ****     \brief      whether or not to response to a general call
 410:../system/src/gd32f10x/gd32f10x_i2c.c ****     \param[in]  i2c_periph: I2Cx(x=0,1)
 411:../system/src/gd32f10x/gd32f10x_i2c.c ****     \param[in]  gcallpara:
 412:../system/src/gd32f10x/gd32f10x_i2c.c ****                 only one parameter can be selected which is shown as below:
 413:../system/src/gd32f10x/gd32f10x_i2c.c ****       \arg        I2C_GCEN_ENABLE: slave will response to a general call
 414:../system/src/gd32f10x/gd32f10x_i2c.c ****       \arg        I2C_GCEN_DISABLE: slave will not response to a general call
 415:../system/src/gd32f10x/gd32f10x_i2c.c ****     \param[out] none
 416:../system/src/gd32f10x/gd32f10x_i2c.c ****     \retval     none
 417:../system/src/gd32f10x/gd32f10x_i2c.c **** */
 418:../system/src/gd32f10x/gd32f10x_i2c.c **** void i2c_slave_response_to_gcall_config(uint32_t i2c_periph, uint32_t gcallpara)
 419:../system/src/gd32f10x/gd32f10x_i2c.c **** {
 836              		.loc 1 419 1 is_stmt 1 view -0
 837              		.cfi_startproc
 838              		@ args = 0, pretend = 0, frame = 0
 839              		@ frame_needed = 0, uses_anonymous_args = 0
 840              		@ link register save eliminated.
 420:../system/src/gd32f10x/gd32f10x_i2c.c ****     /* configure slave response to a general call enable or disable */
 421:../system/src/gd32f10x/gd32f10x_i2c.c ****     uint32_t ctl = 0U;
 841              		.loc 1 421 5 view .LVU222
 422:../system/src/gd32f10x/gd32f10x_i2c.c ****     
 423:../system/src/gd32f10x/gd32f10x_i2c.c ****     ctl = I2C_CTL0(i2c_periph);
 842              		.loc 1 423 5 view .LVU223
 843              		.loc 1 423 9 is_stmt 0 view .LVU224
 844 0000 0368     		ldr	r3, [r0]
 845              	.LVL85:
 424:../system/src/gd32f10x/gd32f10x_i2c.c ****     ctl &= ~(I2C_CTL0_GCEN); 
 846              		.loc 1 424 5 is_stmt 1 view .LVU225
 847              		.loc 1 424 9 is_stmt 0 view .LVU226
 848 0002 23F04003 		bic	r3, r3, #64
 849              	.LVL86:
 425:../system/src/gd32f10x/gd32f10x_i2c.c ****     ctl |= gcallpara;
 850              		.loc 1 425 5 is_stmt 1 view .LVU227
 851              		.loc 1 425 9 is_stmt 0 view .LVU228
 852 0006 0B43     		orrs	r3, r3, r1
 853              	.LVL87:
 426:../system/src/gd32f10x/gd32f10x_i2c.c ****     I2C_CTL0(i2c_periph) = ctl;
 854              		.loc 1 426 5 is_stmt 1 view .LVU229
 855              		.loc 1 426 26 is_stmt 0 view .LVU230
 856 0008 0360     		str	r3, [r0]
 427:../system/src/gd32f10x/gd32f10x_i2c.c **** }
 857              		.loc 1 427 1 view .LVU231
 858 000a 7047     		bx	lr
 859              		.cfi_endproc
 860              	.LFE74:
 862              		.section	.text.i2c_software_reset_config,"ax",%progbits
 863              		.align	1
 864              		.global	i2c_software_reset_config
 865              		.syntax unified
 866              		.thumb
 867              		.thumb_func
 869              	i2c_software_reset_config:
 870              	.LVL88:
 871              	.LFB75:
 428:../system/src/gd32f10x/gd32f10x_i2c.c **** 
 429:../system/src/gd32f10x/gd32f10x_i2c.c **** /*!
 430:../system/src/gd32f10x/gd32f10x_i2c.c ****     \brief      configure software reset of I2C
 431:../system/src/gd32f10x/gd32f10x_i2c.c ****     \param[in]  i2c_periph: I2Cx(x=0,1)
 432:../system/src/gd32f10x/gd32f10x_i2c.c ****     \param[in]  sreset:
 433:../system/src/gd32f10x/gd32f10x_i2c.c ****                 only one parameter can be selected which is shown as below:
 434:../system/src/gd32f10x/gd32f10x_i2c.c ****       \arg        I2C_SRESET_SET: I2C is under reset
 435:../system/src/gd32f10x/gd32f10x_i2c.c ****       \arg        I2C_SRESET_RESET: I2C is not under reset
 436:../system/src/gd32f10x/gd32f10x_i2c.c ****     \param[out] none
 437:../system/src/gd32f10x/gd32f10x_i2c.c ****     \retval     none
 438:../system/src/gd32f10x/gd32f10x_i2c.c **** */
 439:../system/src/gd32f10x/gd32f10x_i2c.c **** void i2c_software_reset_config(uint32_t i2c_periph, uint32_t sreset)
 440:../system/src/gd32f10x/gd32f10x_i2c.c **** {
 872              		.loc 1 440 1 is_stmt 1 view -0
 873              		.cfi_startproc
 874              		@ args = 0, pretend = 0, frame = 0
 875              		@ frame_needed = 0, uses_anonymous_args = 0
 876              		@ link register save eliminated.
 441:../system/src/gd32f10x/gd32f10x_i2c.c ****     /* modify CTL0 and configure software reset I2C state */
 442:../system/src/gd32f10x/gd32f10x_i2c.c ****     uint32_t ctl = 0U;
 877              		.loc 1 442 5 view .LVU233
 443:../system/src/gd32f10x/gd32f10x_i2c.c ****     
 444:../system/src/gd32f10x/gd32f10x_i2c.c ****     ctl = I2C_CTL0(i2c_periph);
 878              		.loc 1 444 5 view .LVU234
 879              		.loc 1 444 9 is_stmt 0 view .LVU235
 880 0000 0368     		ldr	r3, [r0]
 881              	.LVL89:
 445:../system/src/gd32f10x/gd32f10x_i2c.c ****     ctl &= ~(I2C_CTL0_SRESET); 
 882              		.loc 1 445 5 is_stmt 1 view .LVU236
 883              		.loc 1 445 9 is_stmt 0 view .LVU237
 884 0002 23F40043 		bic	r3, r3, #32768
 885              	.LVL90:
 446:../system/src/gd32f10x/gd32f10x_i2c.c ****     ctl |= sreset;
 886              		.loc 1 446 5 is_stmt 1 view .LVU238
 887              		.loc 1 446 9 is_stmt 0 view .LVU239
 888 0006 0B43     		orrs	r3, r3, r1
 889              	.LVL91:
 447:../system/src/gd32f10x/gd32f10x_i2c.c ****     I2C_CTL0(i2c_periph) = ctl;
 890              		.loc 1 447 5 is_stmt 1 view .LVU240
 891              		.loc 1 447 26 is_stmt 0 view .LVU241
 892 0008 0360     		str	r3, [r0]
 448:../system/src/gd32f10x/gd32f10x_i2c.c **** }
 893              		.loc 1 448 1 view .LVU242
 894 000a 7047     		bx	lr
 895              		.cfi_endproc
 896              	.LFE75:
 898              		.section	.text.i2c_pec_config,"ax",%progbits
 899              		.align	1
 900              		.global	i2c_pec_config
 901              		.syntax unified
 902              		.thumb
 903              		.thumb_func
 905              	i2c_pec_config:
 906              	.LVL92:
 907              	.LFB76:
 449:../system/src/gd32f10x/gd32f10x_i2c.c **** 
 450:../system/src/gd32f10x/gd32f10x_i2c.c **** /*!
 451:../system/src/gd32f10x/gd32f10x_i2c.c ****     \brief      configure I2C PEC calculation
 452:../system/src/gd32f10x/gd32f10x_i2c.c ****     \param[in]  i2c_periph: I2Cx(x=0,1)
 453:../system/src/gd32f10x/gd32f10x_i2c.c ****     \param[in]  pecstate:
 454:../system/src/gd32f10x/gd32f10x_i2c.c ****                 only one parameter can be selected which is shown as below:
 455:../system/src/gd32f10x/gd32f10x_i2c.c ****       \arg        I2C_PEC_ENABLE: PEC calculation on 
 456:../system/src/gd32f10x/gd32f10x_i2c.c ****       \arg        I2C_PEC_DISABLE: PEC calculation off 
 457:../system/src/gd32f10x/gd32f10x_i2c.c ****     \param[out] none
 458:../system/src/gd32f10x/gd32f10x_i2c.c ****     \retval     none
 459:../system/src/gd32f10x/gd32f10x_i2c.c **** */
 460:../system/src/gd32f10x/gd32f10x_i2c.c **** void i2c_pec_config(uint32_t i2c_periph, uint32_t pecstate)
 461:../system/src/gd32f10x/gd32f10x_i2c.c **** {
 908              		.loc 1 461 1 is_stmt 1 view -0
 909              		.cfi_startproc
 910              		@ args = 0, pretend = 0, frame = 0
 911              		@ frame_needed = 0, uses_anonymous_args = 0
 912              		@ link register save eliminated.
 462:../system/src/gd32f10x/gd32f10x_i2c.c ****     /* on/off PEC calculation */
 463:../system/src/gd32f10x/gd32f10x_i2c.c ****     uint32_t ctl = 0U;
 913              		.loc 1 463 5 view .LVU244
 464:../system/src/gd32f10x/gd32f10x_i2c.c ****     
 465:../system/src/gd32f10x/gd32f10x_i2c.c ****     ctl = I2C_CTL0(i2c_periph);
 914              		.loc 1 465 5 view .LVU245
 915              		.loc 1 465 9 is_stmt 0 view .LVU246
 916 0000 0368     		ldr	r3, [r0]
 917              	.LVL93:
 466:../system/src/gd32f10x/gd32f10x_i2c.c ****     ctl &= ~(I2C_CTL0_PECEN);
 918              		.loc 1 466 5 is_stmt 1 view .LVU247
 919              		.loc 1 466 9 is_stmt 0 view .LVU248
 920 0002 23F02003 		bic	r3, r3, #32
 921              	.LVL94:
 467:../system/src/gd32f10x/gd32f10x_i2c.c ****     ctl |= pecstate;
 922              		.loc 1 467 5 is_stmt 1 view .LVU249
 923              		.loc 1 467 9 is_stmt 0 view .LVU250
 924 0006 0B43     		orrs	r3, r3, r1
 925              	.LVL95:
 468:../system/src/gd32f10x/gd32f10x_i2c.c ****     I2C_CTL0(i2c_periph) = ctl;
 926              		.loc 1 468 5 is_stmt 1 view .LVU251
 927              		.loc 1 468 26 is_stmt 0 view .LVU252
 928 0008 0360     		str	r3, [r0]
 469:../system/src/gd32f10x/gd32f10x_i2c.c **** }
 929              		.loc 1 469 1 view .LVU253
 930 000a 7047     		bx	lr
 931              		.cfi_endproc
 932              	.LFE76:
 934              		.section	.text.i2c_pec_transfer_config,"ax",%progbits
 935              		.align	1
 936              		.global	i2c_pec_transfer_config
 937              		.syntax unified
 938              		.thumb
 939              		.thumb_func
 941              	i2c_pec_transfer_config:
 942              	.LVL96:
 943              	.LFB77:
 470:../system/src/gd32f10x/gd32f10x_i2c.c **** 
 471:../system/src/gd32f10x/gd32f10x_i2c.c **** /*!
 472:../system/src/gd32f10x/gd32f10x_i2c.c ****     \brief      configure whether to transfer PEC value
 473:../system/src/gd32f10x/gd32f10x_i2c.c ****     \param[in]  i2c_periph: I2Cx(x=0,1)
 474:../system/src/gd32f10x/gd32f10x_i2c.c ****     \param[in]  pecpara:
 475:../system/src/gd32f10x/gd32f10x_i2c.c ****                 only one parameter can be selected which is shown as below:
 476:../system/src/gd32f10x/gd32f10x_i2c.c ****       \arg        I2C_PECTRANS_ENABLE: transfer PEC 
 477:../system/src/gd32f10x/gd32f10x_i2c.c ****       \arg        I2C_PECTRANS_DISABLE: not transfer PEC 
 478:../system/src/gd32f10x/gd32f10x_i2c.c ****     \param[out] none
 479:../system/src/gd32f10x/gd32f10x_i2c.c ****     \retval     none
 480:../system/src/gd32f10x/gd32f10x_i2c.c **** */
 481:../system/src/gd32f10x/gd32f10x_i2c.c **** void i2c_pec_transfer_config(uint32_t i2c_periph, uint32_t pecpara)
 482:../system/src/gd32f10x/gd32f10x_i2c.c **** {
 944              		.loc 1 482 1 is_stmt 1 view -0
 945              		.cfi_startproc
 946              		@ args = 0, pretend = 0, frame = 0
 947              		@ frame_needed = 0, uses_anonymous_args = 0
 948              		@ link register save eliminated.
 483:../system/src/gd32f10x/gd32f10x_i2c.c ****     /* whether to transfer PEC */
 484:../system/src/gd32f10x/gd32f10x_i2c.c ****     uint32_t ctl = 0U;
 949              		.loc 1 484 5 view .LVU255
 485:../system/src/gd32f10x/gd32f10x_i2c.c ****     
 486:../system/src/gd32f10x/gd32f10x_i2c.c ****     ctl = I2C_CTL0(i2c_periph);
 950              		.loc 1 486 5 view .LVU256
 951              		.loc 1 486 9 is_stmt 0 view .LVU257
 952 0000 0368     		ldr	r3, [r0]
 953              	.LVL97:
 487:../system/src/gd32f10x/gd32f10x_i2c.c ****     ctl &= ~(I2C_CTL0_PECTRANS);
 954              		.loc 1 487 5 is_stmt 1 view .LVU258
 955              		.loc 1 487 9 is_stmt 0 view .LVU259
 956 0002 23F48053 		bic	r3, r3, #4096
 957              	.LVL98:
 488:../system/src/gd32f10x/gd32f10x_i2c.c ****     ctl |= pecpara;
 958              		.loc 1 488 5 is_stmt 1 view .LVU260
 959              		.loc 1 488 9 is_stmt 0 view .LVU261
 960 0006 0B43     		orrs	r3, r3, r1
 961              	.LVL99:
 489:../system/src/gd32f10x/gd32f10x_i2c.c ****     I2C_CTL0(i2c_periph) = ctl;
 962              		.loc 1 489 5 is_stmt 1 view .LVU262
 963              		.loc 1 489 26 is_stmt 0 view .LVU263
 964 0008 0360     		str	r3, [r0]
 490:../system/src/gd32f10x/gd32f10x_i2c.c **** }
 965              		.loc 1 490 1 view .LVU264
 966 000a 7047     		bx	lr
 967              		.cfi_endproc
 968              	.LFE77:
 970              		.section	.text.i2c_pec_value_get,"ax",%progbits
 971              		.align	1
 972              		.global	i2c_pec_value_get
 973              		.syntax unified
 974              		.thumb
 975              		.thumb_func
 977              	i2c_pec_value_get:
 978              	.LVL100:
 979              	.LFB78:
 491:../system/src/gd32f10x/gd32f10x_i2c.c **** 
 492:../system/src/gd32f10x/gd32f10x_i2c.c **** /*!
 493:../system/src/gd32f10x/gd32f10x_i2c.c ****     \brief      get packet error checking value
 494:../system/src/gd32f10x/gd32f10x_i2c.c ****     \param[in]  i2c_periph: I2Cx(x=0,1)
 495:../system/src/gd32f10x/gd32f10x_i2c.c ****     \param[out] none
 496:../system/src/gd32f10x/gd32f10x_i2c.c ****     \retval     PEC value
 497:../system/src/gd32f10x/gd32f10x_i2c.c **** */
 498:../system/src/gd32f10x/gd32f10x_i2c.c **** uint8_t i2c_pec_value_get(uint32_t i2c_periph)
 499:../system/src/gd32f10x/gd32f10x_i2c.c **** {
 980              		.loc 1 499 1 is_stmt 1 view -0
 981              		.cfi_startproc
 982              		@ args = 0, pretend = 0, frame = 0
 983              		@ frame_needed = 0, uses_anonymous_args = 0
 984              		@ link register save eliminated.
 500:../system/src/gd32f10x/gd32f10x_i2c.c ****     return (uint8_t)((I2C_STAT1(i2c_periph) & I2C_STAT1_PECV)>>STAT1_PECV_OFFSET);
 985              		.loc 1 500 5 view .LVU266
 986              		.loc 1 500 23 is_stmt 0 view .LVU267
 987 0000 8069     		ldr	r0, [r0, #24]
 988              	.LVL101:
 501:../system/src/gd32f10x/gd32f10x_i2c.c **** }
 989              		.loc 1 501 1 view .LVU268
 990 0002 C0F30720 		ubfx	r0, r0, #8, #8
 991 0006 7047     		bx	lr
 992              		.cfi_endproc
 993              	.LFE78:
 995              		.section	.text.i2c_smbus_alert_config,"ax",%progbits
 996              		.align	1
 997              		.global	i2c_smbus_alert_config
 998              		.syntax unified
 999              		.thumb
 1000              		.thumb_func
 1002              	i2c_smbus_alert_config:
 1003              	.LVL102:
 1004              	.LFB79:
 502:../system/src/gd32f10x/gd32f10x_i2c.c **** 
 503:../system/src/gd32f10x/gd32f10x_i2c.c **** /*!
 504:../system/src/gd32f10x/gd32f10x_i2c.c ****     \brief      configure I2C alert through SMBA pin
 505:../system/src/gd32f10x/gd32f10x_i2c.c ****     \param[in]  i2c_periph: I2Cx(x=0,1)
 506:../system/src/gd32f10x/gd32f10x_i2c.c ****     \param[in]  smbuspara:
 507:../system/src/gd32f10x/gd32f10x_i2c.c ****                 only one parameter can be selected which is shown as below:
 508:../system/src/gd32f10x/gd32f10x_i2c.c ****       \arg        I2C_SALTSEND_ENABLE: issue alert through SMBA pin 
 509:../system/src/gd32f10x/gd32f10x_i2c.c ****       \arg        I2C_SALTSEND_DISABLE: not issue alert through SMBA pin 
 510:../system/src/gd32f10x/gd32f10x_i2c.c ****     \param[out] none
 511:../system/src/gd32f10x/gd32f10x_i2c.c ****     \retval     none
 512:../system/src/gd32f10x/gd32f10x_i2c.c **** */
 513:../system/src/gd32f10x/gd32f10x_i2c.c **** void i2c_smbus_alert_config(uint32_t i2c_periph, uint32_t smbuspara)
 514:../system/src/gd32f10x/gd32f10x_i2c.c **** {
 1005              		.loc 1 514 1 is_stmt 1 view -0
 1006              		.cfi_startproc
 1007              		@ args = 0, pretend = 0, frame = 0
 1008              		@ frame_needed = 0, uses_anonymous_args = 0
 1009              		@ link register save eliminated.
 515:../system/src/gd32f10x/gd32f10x_i2c.c ****     /* issue alert through SMBA pin configure*/
 516:../system/src/gd32f10x/gd32f10x_i2c.c ****     uint32_t ctl = 0U;
 1010              		.loc 1 516 5 view .LVU270
 517:../system/src/gd32f10x/gd32f10x_i2c.c ****     
 518:../system/src/gd32f10x/gd32f10x_i2c.c ****     ctl = I2C_CTL0(i2c_periph);
 1011              		.loc 1 518 5 view .LVU271
 1012              		.loc 1 518 9 is_stmt 0 view .LVU272
 1013 0000 0368     		ldr	r3, [r0]
 1014              	.LVL103:
 519:../system/src/gd32f10x/gd32f10x_i2c.c ****     ctl &= ~(I2C_CTL0_SALT);
 1015              		.loc 1 519 5 is_stmt 1 view .LVU273
 1016              		.loc 1 519 9 is_stmt 0 view .LVU274
 1017 0002 23F40053 		bic	r3, r3, #8192
 1018              	.LVL104:
 520:../system/src/gd32f10x/gd32f10x_i2c.c ****     ctl |= smbuspara;
 1019              		.loc 1 520 5 is_stmt 1 view .LVU275
 1020              		.loc 1 520 9 is_stmt 0 view .LVU276
 1021 0006 0B43     		orrs	r3, r3, r1
 1022              	.LVL105:
 521:../system/src/gd32f10x/gd32f10x_i2c.c ****     I2C_CTL0(i2c_periph) = ctl;
 1023              		.loc 1 521 5 is_stmt 1 view .LVU277
 1024              		.loc 1 521 26 is_stmt 0 view .LVU278
 1025 0008 0360     		str	r3, [r0]
 522:../system/src/gd32f10x/gd32f10x_i2c.c **** }
 1026              		.loc 1 522 1 view .LVU279
 1027 000a 7047     		bx	lr
 1028              		.cfi_endproc
 1029              	.LFE79:
 1031              		.section	.text.i2c_smbus_arp_config,"ax",%progbits
 1032              		.align	1
 1033              		.global	i2c_smbus_arp_config
 1034              		.syntax unified
 1035              		.thumb
 1036              		.thumb_func
 1038              	i2c_smbus_arp_config:
 1039              	.LVL106:
 1040              	.LFB80:
 523:../system/src/gd32f10x/gd32f10x_i2c.c **** 
 524:../system/src/gd32f10x/gd32f10x_i2c.c **** /*!
 525:../system/src/gd32f10x/gd32f10x_i2c.c ****     \brief      configure I2C ARP protocol in SMBus
 526:../system/src/gd32f10x/gd32f10x_i2c.c ****     \param[in]  i2c_periph: I2Cx(x=0,1)
 527:../system/src/gd32f10x/gd32f10x_i2c.c ****     \param[in]  arpstate:
 528:../system/src/gd32f10x/gd32f10x_i2c.c ****                 only one parameter can be selected which is shown as below:
 529:../system/src/gd32f10x/gd32f10x_i2c.c ****       \arg        I2C_ARP_ENABLE: enable ARP
 530:../system/src/gd32f10x/gd32f10x_i2c.c ****       \arg        I2C_ARP_DISABLE: disable ARP
 531:../system/src/gd32f10x/gd32f10x_i2c.c ****     \param[out] none
 532:../system/src/gd32f10x/gd32f10x_i2c.c ****     \retval     none
 533:../system/src/gd32f10x/gd32f10x_i2c.c **** */
 534:../system/src/gd32f10x/gd32f10x_i2c.c **** void i2c_smbus_arp_config(uint32_t i2c_periph, uint32_t arpstate)
 535:../system/src/gd32f10x/gd32f10x_i2c.c **** {
 1041              		.loc 1 535 1 is_stmt 1 view -0
 1042              		.cfi_startproc
 1043              		@ args = 0, pretend = 0, frame = 0
 1044              		@ frame_needed = 0, uses_anonymous_args = 0
 1045              		@ link register save eliminated.
 536:../system/src/gd32f10x/gd32f10x_i2c.c ****     /* enable or disable I2C ARP protocol*/
 537:../system/src/gd32f10x/gd32f10x_i2c.c ****     uint32_t ctl = 0U;
 1046              		.loc 1 537 5 view .LVU281
 538:../system/src/gd32f10x/gd32f10x_i2c.c ****     
 539:../system/src/gd32f10x/gd32f10x_i2c.c ****     ctl = I2C_CTL0(i2c_periph);
 1047              		.loc 1 539 5 view .LVU282
 1048              		.loc 1 539 9 is_stmt 0 view .LVU283
 1049 0000 0368     		ldr	r3, [r0]
 1050              	.LVL107:
 540:../system/src/gd32f10x/gd32f10x_i2c.c ****     ctl &= ~(I2C_CTL0_ARPEN);
 1051              		.loc 1 540 5 is_stmt 1 view .LVU284
 1052              		.loc 1 540 9 is_stmt 0 view .LVU285
 1053 0002 23F01003 		bic	r3, r3, #16
 1054              	.LVL108:
 541:../system/src/gd32f10x/gd32f10x_i2c.c ****     ctl |= arpstate;
 1055              		.loc 1 541 5 is_stmt 1 view .LVU286
 1056              		.loc 1 541 9 is_stmt 0 view .LVU287
 1057 0006 0B43     		orrs	r3, r3, r1
 1058              	.LVL109:
 542:../system/src/gd32f10x/gd32f10x_i2c.c ****     I2C_CTL0(i2c_periph) = ctl;
 1059              		.loc 1 542 5 is_stmt 1 view .LVU288
 1060              		.loc 1 542 26 is_stmt 0 view .LVU289
 1061 0008 0360     		str	r3, [r0]
 543:../system/src/gd32f10x/gd32f10x_i2c.c **** }
 1062              		.loc 1 543 1 view .LVU290
 1063 000a 7047     		bx	lr
 1064              		.cfi_endproc
 1065              	.LFE80:
 1067              		.section	.text.i2c_flag_get,"ax",%progbits
 1068              		.align	1
 1069              		.global	i2c_flag_get
 1070              		.syntax unified
 1071              		.thumb
 1072              		.thumb_func
 1074              	i2c_flag_get:
 1075              	.LVL110:
 1076              	.LFB81:
 544:../system/src/gd32f10x/gd32f10x_i2c.c **** 
 545:../system/src/gd32f10x/gd32f10x_i2c.c **** /*!
 546:../system/src/gd32f10x/gd32f10x_i2c.c ****     \brief      get I2C flag status
 547:../system/src/gd32f10x/gd32f10x_i2c.c ****     \param[in]  i2c_periph: I2Cx(x=0,1)
 548:../system/src/gd32f10x/gd32f10x_i2c.c ****     \param[in]  flag: I2C flags, refer to i2c_flag_enum
 549:../system/src/gd32f10x/gd32f10x_i2c.c ****                 only one parameter can be selected which is shown as below:
 550:../system/src/gd32f10x/gd32f10x_i2c.c ****       \arg        I2C_FLAG_SBSEND: start condition sent out in master mode
 551:../system/src/gd32f10x/gd32f10x_i2c.c ****       \arg        I2C_FLAG_ADDSEND: address is sent in master mode or received and matches in slave
 552:../system/src/gd32f10x/gd32f10x_i2c.c ****       \arg        I2C_FLAG_BTC: byte transmission finishes
 553:../system/src/gd32f10x/gd32f10x_i2c.c ****       \arg        I2C_FLAG_ADD10SEND: header of 10-bit address is sent in master mode
 554:../system/src/gd32f10x/gd32f10x_i2c.c ****       \arg        I2C_FLAG_STPDET: stop condition detected in slave mode
 555:../system/src/gd32f10x/gd32f10x_i2c.c ****       \arg        I2C_FLAG_RBNE: I2C_DATA is not empty during receiving
 556:../system/src/gd32f10x/gd32f10x_i2c.c ****       \arg        I2C_FLAG_TBE: I2C_DATA is empty during transmitting
 557:../system/src/gd32f10x/gd32f10x_i2c.c ****       \arg        I2C_FLAG_BERR: a bus error occurs indication a unexpected start or stop condition
 558:../system/src/gd32f10x/gd32f10x_i2c.c ****       \arg        I2C_FLAG_LOSTARB: arbitration lost in master mode
 559:../system/src/gd32f10x/gd32f10x_i2c.c ****       \arg        I2C_FLAG_AERR: acknowledge error
 560:../system/src/gd32f10x/gd32f10x_i2c.c ****       \arg        I2C_FLAG_OUERR: over-run or underrun situation occurs in slave mode
 561:../system/src/gd32f10x/gd32f10x_i2c.c ****       \arg        I2C_FLAG_PECERR: PEC error when receiving data
 562:../system/src/gd32f10x/gd32f10x_i2c.c ****       \arg        I2C_FLAG_SMBTO: timeout signal in SMBus mode
 563:../system/src/gd32f10x/gd32f10x_i2c.c ****       \arg        I2C_FLAG_SMBALT: SMBus alert status
 564:../system/src/gd32f10x/gd32f10x_i2c.c ****       \arg        I2C_FLAG_MASTER: a flag indicating whether I2C block is in master or slave mode
 565:../system/src/gd32f10x/gd32f10x_i2c.c ****       \arg        I2C_FLAG_I2CBSY: busy flag
 566:../system/src/gd32f10x/gd32f10x_i2c.c ****       \arg        I2C_FLAG_TRS: whether the I2C is a transmitter or a receiver
 567:../system/src/gd32f10x/gd32f10x_i2c.c ****       \arg        I2C_FLAG_RXGC: general call address (00h) received
 568:../system/src/gd32f10x/gd32f10x_i2c.c ****       \arg        I2C_FLAG_DEFSMB: default address of SMBus device
 569:../system/src/gd32f10x/gd32f10x_i2c.c ****       \arg        I2C_FLAG_HSTSMB: SMBus host header detected in slave mode
 570:../system/src/gd32f10x/gd32f10x_i2c.c ****       \arg        I2C_FLAG_DUMOD: dual flag in slave mode indicating which address is matched in du
 571:../system/src/gd32f10x/gd32f10x_i2c.c ****     \param[out] none
 572:../system/src/gd32f10x/gd32f10x_i2c.c ****     \retval     FlagStatus: SET or RESET
 573:../system/src/gd32f10x/gd32f10x_i2c.c **** */
 574:../system/src/gd32f10x/gd32f10x_i2c.c **** FlagStatus i2c_flag_get(uint32_t i2c_periph, i2c_flag_enum flag)
 575:../system/src/gd32f10x/gd32f10x_i2c.c **** {
 1077              		.loc 1 575 1 is_stmt 1 view -0
 1078              		.cfi_startproc
 1079              		@ args = 0, pretend = 0, frame = 0
 1080              		@ frame_needed = 0, uses_anonymous_args = 0
 1081              		@ link register save eliminated.
 576:../system/src/gd32f10x/gd32f10x_i2c.c ****     if(RESET != (I2C_REG_VAL(i2c_periph, flag) & BIT(I2C_BIT_POS(flag)))){
 1082              		.loc 1 576 5 view .LVU292
 1083              		.loc 1 576 18 is_stmt 0 view .LVU293
 1084 0000 8B09     		lsrs	r3, r1, #6
 1085 0002 1B58     		ldr	r3, [r3, r0]
 1086              		.loc 1 576 50 view .LVU294
 1087 0004 01F01F01 		and	r1, r1, #31
 1088              	.LVL111:
 1089              		.loc 1 576 14 view .LVU295
 1090 0008 CB40     		lsrs	r3, r3, r1
 1091              		.loc 1 576 7 view .LVU296
 1092 000a 13F0010F 		tst	r3, #1
 1093 000e 01D0     		beq	.L56
 577:../system/src/gd32f10x/gd32f10x_i2c.c ****         return SET;
 1094              		.loc 1 577 16 view .LVU297
 1095 0010 0120     		movs	r0, #1
 1096              	.LVL112:
 1097              		.loc 1 577 16 view .LVU298
 1098 0012 7047     		bx	lr
 1099              	.LVL113:
 1100              	.L56:
 578:../system/src/gd32f10x/gd32f10x_i2c.c ****     }else{
 579:../system/src/gd32f10x/gd32f10x_i2c.c ****         return RESET;
 1101              		.loc 1 579 16 view .LVU299
 1102 0014 0020     		movs	r0, #0
 1103              	.LVL114:
 580:../system/src/gd32f10x/gd32f10x_i2c.c ****     }
 581:../system/src/gd32f10x/gd32f10x_i2c.c **** }
 1104              		.loc 1 581 1 view .LVU300
 1105 0016 7047     		bx	lr
 1106              		.cfi_endproc
 1107              	.LFE81:
 1109              		.section	.text.i2c_flag_clear,"ax",%progbits
 1110              		.align	1
 1111              		.global	i2c_flag_clear
 1112              		.syntax unified
 1113              		.thumb
 1114              		.thumb_func
 1116              	i2c_flag_clear:
 1117              	.LVL115:
 1118              	.LFB82:
 582:../system/src/gd32f10x/gd32f10x_i2c.c **** 
 583:../system/src/gd32f10x/gd32f10x_i2c.c **** /*!
 584:../system/src/gd32f10x/gd32f10x_i2c.c ****     \brief      clear I2C flag status
 585:../system/src/gd32f10x/gd32f10x_i2c.c ****     \param[in]  i2c_periph: I2Cx(x=0,1)
 586:../system/src/gd32f10x/gd32f10x_i2c.c ****     \param[in]  flag: I2C flags, refer to i2c_flag_enum
 587:../system/src/gd32f10x/gd32f10x_i2c.c ****                 only one parameter can be selected which is shown as below:
 588:../system/src/gd32f10x/gd32f10x_i2c.c ****       \arg       I2C_FLAG_SMBALT: SMBus alert status
 589:../system/src/gd32f10x/gd32f10x_i2c.c ****       \arg       I2C_FLAG_SMBTO: timeout signal in SMBus mode
 590:../system/src/gd32f10x/gd32f10x_i2c.c ****       \arg       I2C_FLAG_PECERR: PEC error when receiving data
 591:../system/src/gd32f10x/gd32f10x_i2c.c ****       \arg       I2C_FLAG_OUERR: over-run or under-run situation occurs in slave mode    
 592:../system/src/gd32f10x/gd32f10x_i2c.c ****       \arg       I2C_FLAG_AERR: acknowledge error
 593:../system/src/gd32f10x/gd32f10x_i2c.c ****       \arg       I2C_FLAG_LOSTARB: arbitration lost in master mode   
 594:../system/src/gd32f10x/gd32f10x_i2c.c ****       \arg       I2C_FLAG_BERR: a bus error occurs indication a unexpected start or stop condition 
 595:../system/src/gd32f10x/gd32f10x_i2c.c ****       \arg       I2C_FLAG_ADDSEND: address is sent in master mode or received and matches in slave 
 596:../system/src/gd32f10x/gd32f10x_i2c.c ****     \param[out] none
 597:../system/src/gd32f10x/gd32f10x_i2c.c ****     \retval     none
 598:../system/src/gd32f10x/gd32f10x_i2c.c **** */
 599:../system/src/gd32f10x/gd32f10x_i2c.c **** void i2c_flag_clear(uint32_t i2c_periph, i2c_flag_enum flag)
 600:../system/src/gd32f10x/gd32f10x_i2c.c **** {
 1119              		.loc 1 600 1 is_stmt 1 view -0
 1120              		.cfi_startproc
 1121              		@ args = 0, pretend = 0, frame = 0
 1122              		@ frame_needed = 0, uses_anonymous_args = 0
 1123              		@ link register save eliminated.
 601:../system/src/gd32f10x/gd32f10x_i2c.c ****     if(I2C_FLAG_ADDSEND == flag){
 1124              		.loc 1 601 5 view .LVU302
 1125              		.loc 1 601 7 is_stmt 0 view .LVU303
 1126 0000 40F20153 		movw	r3, #1281
 1127 0004 9942     		cmp	r1, r3
 1128 0006 0CD0     		beq	.L60
 602:../system/src/gd32f10x/gd32f10x_i2c.c ****         /* read I2C_STAT0 and then read I2C_STAT1 to clear ADDSEND */
 603:../system/src/gd32f10x/gd32f10x_i2c.c ****         I2C_STAT0(i2c_periph);
 604:../system/src/gd32f10x/gd32f10x_i2c.c ****         I2C_STAT1(i2c_periph);
 605:../system/src/gd32f10x/gd32f10x_i2c.c ****     }else{
 606:../system/src/gd32f10x/gd32f10x_i2c.c ****         I2C_REG_VAL(i2c_periph, flag) &= ~BIT(I2C_BIT_POS(flag));
 1129              		.loc 1 606 9 is_stmt 1 view .LVU304
 1130 0008 4FEA911C 		lsr	ip, r1, #6
 1131 000c 5CF80030 		ldr	r3, [ip, r0]
 1132              		.loc 1 606 43 is_stmt 0 view .LVU305
 1133 0010 01F01F01 		and	r1, r1, #31
 1134              	.LVL116:
 1135              		.loc 1 606 43 view .LVU306
 1136 0014 0122     		movs	r2, #1
 1137 0016 8A40     		lsls	r2, r2, r1
 1138              		.loc 1 606 39 view .LVU307
 1139 0018 23EA0203 		bic	r3, r3, r2
 1140 001c 4CF80030 		str	r3, [ip, r0]
 607:../system/src/gd32f10x/gd32f10x_i2c.c ****     }
 608:../system/src/gd32f10x/gd32f10x_i2c.c **** }
 1141              		.loc 1 608 1 view .LVU308
 1142 0020 7047     		bx	lr
 1143              	.LVL117:
 1144              	.L60:
 603:../system/src/gd32f10x/gd32f10x_i2c.c ****         I2C_STAT1(i2c_periph);
 1145              		.loc 1 603 9 is_stmt 1 view .LVU309
 1146 0022 4369     		ldr	r3, [r0, #20]
 604:../system/src/gd32f10x/gd32f10x_i2c.c ****     }else{
 1147              		.loc 1 604 9 view .LVU310
 1148 0024 8369     		ldr	r3, [r0, #24]
 1149 0026 7047     		bx	lr
 1150              		.cfi_endproc
 1151              	.LFE82:
 1153              		.section	.text.i2c_interrupt_enable,"ax",%progbits
 1154              		.align	1
 1155              		.global	i2c_interrupt_enable
 1156              		.syntax unified
 1157              		.thumb
 1158              		.thumb_func
 1160              	i2c_interrupt_enable:
 1161              	.LVL118:
 1162              	.LFB83:
 609:../system/src/gd32f10x/gd32f10x_i2c.c **** 
 610:../system/src/gd32f10x/gd32f10x_i2c.c **** /*!
 611:../system/src/gd32f10x/gd32f10x_i2c.c ****     \brief      enable I2C interrupt
 612:../system/src/gd32f10x/gd32f10x_i2c.c ****     \param[in]  i2c_periph: I2Cx(x=0,1)
 613:../system/src/gd32f10x/gd32f10x_i2c.c ****     \param[in]  interrupt: I2C interrupts, refer to i2c_interrupt_enum
 614:../system/src/gd32f10x/gd32f10x_i2c.c ****                 only one parameter can be selected which is shown as below:
 615:../system/src/gd32f10x/gd32f10x_i2c.c ****       \arg        I2C_INT_ERR: error interrupt
 616:../system/src/gd32f10x/gd32f10x_i2c.c ****       \arg        I2C_INT_EV: event interrupt 
 617:../system/src/gd32f10x/gd32f10x_i2c.c ****       \arg        I2C_INT_BUF: buffer interrupt
 618:../system/src/gd32f10x/gd32f10x_i2c.c ****     \param[out] none
 619:../system/src/gd32f10x/gd32f10x_i2c.c ****     \retval     none
 620:../system/src/gd32f10x/gd32f10x_i2c.c **** */
 621:../system/src/gd32f10x/gd32f10x_i2c.c **** void i2c_interrupt_enable(uint32_t i2c_periph, i2c_interrupt_enum interrupt)
 622:../system/src/gd32f10x/gd32f10x_i2c.c **** {
 1163              		.loc 1 622 1 view -0
 1164              		.cfi_startproc
 1165              		@ args = 0, pretend = 0, frame = 0
 1166              		@ frame_needed = 0, uses_anonymous_args = 0
 1167              		@ link register save eliminated.
 623:../system/src/gd32f10x/gd32f10x_i2c.c ****     I2C_REG_VAL(i2c_periph, interrupt) |= BIT(I2C_BIT_POS(interrupt));
 1168              		.loc 1 623 5 view .LVU312
 1169 0000 4FEA911C 		lsr	ip, r1, #6
 1170 0004 5CF80030 		ldr	r3, [ip, r0]
 1171              		.loc 1 623 43 is_stmt 0 view .LVU313
 1172 0008 01F01F01 		and	r1, r1, #31
 1173              	.LVL119:
 1174              		.loc 1 623 43 view .LVU314
 1175 000c 0122     		movs	r2, #1
 1176 000e 8A40     		lsls	r2, r2, r1
 1177              		.loc 1 623 40 view .LVU315
 1178 0010 1343     		orrs	r3, r3, r2
 1179 0012 4CF80030 		str	r3, [ip, r0]
 624:../system/src/gd32f10x/gd32f10x_i2c.c **** }
 1180              		.loc 1 624 1 view .LVU316
 1181 0016 7047     		bx	lr
 1182              		.cfi_endproc
 1183              	.LFE83:
 1185              		.section	.text.i2c_interrupt_disable,"ax",%progbits
 1186              		.align	1
 1187              		.global	i2c_interrupt_disable
 1188              		.syntax unified
 1189              		.thumb
 1190              		.thumb_func
 1192              	i2c_interrupt_disable:
 1193              	.LVL120:
 1194              	.LFB84:
 625:../system/src/gd32f10x/gd32f10x_i2c.c **** 
 626:../system/src/gd32f10x/gd32f10x_i2c.c **** /*!
 627:../system/src/gd32f10x/gd32f10x_i2c.c ****     \brief      disable I2C interrupt
 628:../system/src/gd32f10x/gd32f10x_i2c.c ****     \param[in]  i2c_periph: I2Cx(x=0,1)
 629:../system/src/gd32f10x/gd32f10x_i2c.c ****     \param[in]  interrupt: I2C interrupts, refer to i2c_flag_enum
 630:../system/src/gd32f10x/gd32f10x_i2c.c ****                 only one parameter can be selected which is shown as below:
 631:../system/src/gd32f10x/gd32f10x_i2c.c ****       \arg        I2C_INT_ERR: error interrupt enable 
 632:../system/src/gd32f10x/gd32f10x_i2c.c ****       \arg        I2C_INT_EV: event interrupt enable 
 633:../system/src/gd32f10x/gd32f10x_i2c.c ****       \arg        I2C_INT_BUF: buffer interrupt enable
 634:../system/src/gd32f10x/gd32f10x_i2c.c ****     \param[out] none
 635:../system/src/gd32f10x/gd32f10x_i2c.c ****     \retval     none
 636:../system/src/gd32f10x/gd32f10x_i2c.c **** */
 637:../system/src/gd32f10x/gd32f10x_i2c.c **** void i2c_interrupt_disable(uint32_t i2c_periph, i2c_interrupt_enum interrupt)
 638:../system/src/gd32f10x/gd32f10x_i2c.c **** {
 1195              		.loc 1 638 1 is_stmt 1 view -0
 1196              		.cfi_startproc
 1197              		@ args = 0, pretend = 0, frame = 0
 1198              		@ frame_needed = 0, uses_anonymous_args = 0
 1199              		@ link register save eliminated.
 639:../system/src/gd32f10x/gd32f10x_i2c.c ****     I2C_REG_VAL(i2c_periph, interrupt) &= ~BIT(I2C_BIT_POS(interrupt));
 1200              		.loc 1 639 5 view .LVU318
 1201 0000 4FEA911C 		lsr	ip, r1, #6
 1202 0004 5CF80030 		ldr	r3, [ip, r0]
 1203              		.loc 1 639 44 is_stmt 0 view .LVU319
 1204 0008 01F01F01 		and	r1, r1, #31
 1205              	.LVL121:
 1206              		.loc 1 639 44 view .LVU320
 1207 000c 0122     		movs	r2, #1
 1208 000e 8A40     		lsls	r2, r2, r1
 1209              		.loc 1 639 40 view .LVU321
 1210 0010 23EA0203 		bic	r3, r3, r2
 1211 0014 4CF80030 		str	r3, [ip, r0]
 640:../system/src/gd32f10x/gd32f10x_i2c.c **** }
 1212              		.loc 1 640 1 view .LVU322
 1213 0018 7047     		bx	lr
 1214              		.cfi_endproc
 1215              	.LFE84:
 1217              		.section	.text.i2c_interrupt_flag_get,"ax",%progbits
 1218              		.align	1
 1219              		.global	i2c_interrupt_flag_get
 1220              		.syntax unified
 1221              		.thumb
 1222              		.thumb_func
 1224              	i2c_interrupt_flag_get:
 1225              	.LVL122:
 1226              	.LFB85:
 641:../system/src/gd32f10x/gd32f10x_i2c.c **** 
 642:../system/src/gd32f10x/gd32f10x_i2c.c **** /*!
 643:../system/src/gd32f10x/gd32f10x_i2c.c ****     \brief      get I2C interrupt flag status
 644:../system/src/gd32f10x/gd32f10x_i2c.c ****     \param[in]  i2c_periph: I2Cx(x=0,1)
 645:../system/src/gd32f10x/gd32f10x_i2c.c ****     \param[in]  int_flag: I2C interrupt flags, refer to i2c_interrupt_flag_enum
 646:../system/src/gd32f10x/gd32f10x_i2c.c ****                 only one parameter can be selected which is shown as below:
 647:../system/src/gd32f10x/gd32f10x_i2c.c ****       \arg        I2C_INT_FLAG_SBSEND: start condition sent out in master mode interrupt flag
 648:../system/src/gd32f10x/gd32f10x_i2c.c ****       \arg        I2C_INT_FLAG_ADDSEND: address is sent in master mode or received and matches in s
 649:../system/src/gd32f10x/gd32f10x_i2c.c ****       \arg        I2C_INT_FLAG_BTC: byte transmission finishes
 650:../system/src/gd32f10x/gd32f10x_i2c.c ****       \arg        I2C_INT_FLAG_ADD10SEND: header of 10-bit address is sent in master mode interrupt
 651:../system/src/gd32f10x/gd32f10x_i2c.c ****       \arg        I2C_INT_FLAG_STPDET: etop condition detected in slave mode interrupt flag
 652:../system/src/gd32f10x/gd32f10x_i2c.c ****       \arg        I2C_INT_FLAG_RBNE: I2C_DATA is not Empty during receiving interrupt flag
 653:../system/src/gd32f10x/gd32f10x_i2c.c ****       \arg        I2C_INT_FLAG_TBE: I2C_DATA is empty during transmitting interrupt flag
 654:../system/src/gd32f10x/gd32f10x_i2c.c ****       \arg        I2C_INT_FLAG_BERR: a bus error occurs indication a unexpected start or stop condi
 655:../system/src/gd32f10x/gd32f10x_i2c.c ****       \arg        I2C_INT_FLAG_LOSTARB: arbitration lost in master mode interrupt flag
 656:../system/src/gd32f10x/gd32f10x_i2c.c ****       \arg        I2C_INT_FLAG_AERR: acknowledge error interrupt flag
 657:../system/src/gd32f10x/gd32f10x_i2c.c ****       \arg        I2C_INT_FLAG_OUERR: over-run or under-run situation occurs in slave mode interrup
 658:../system/src/gd32f10x/gd32f10x_i2c.c ****       \arg        I2C_INT_FLAG_PECERR: PEC error when receiving data interrupt flag
 659:../system/src/gd32f10x/gd32f10x_i2c.c ****       \arg        I2C_INT_FLAG_SMBTO: timeout signal in SMBus mode interrupt flag
 660:../system/src/gd32f10x/gd32f10x_i2c.c ****       \arg        I2C_INT_FLAG_SMBALT: SMBus alert status interrupt flag
 661:../system/src/gd32f10x/gd32f10x_i2c.c ****     \param[out] none
 662:../system/src/gd32f10x/gd32f10x_i2c.c ****     \retval     FlagStatus: SET or RESET
 663:../system/src/gd32f10x/gd32f10x_i2c.c **** */
 664:../system/src/gd32f10x/gd32f10x_i2c.c **** FlagStatus i2c_interrupt_flag_get(uint32_t i2c_periph, i2c_interrupt_flag_enum int_flag)
 665:../system/src/gd32f10x/gd32f10x_i2c.c **** {
 1227              		.loc 1 665 1 is_stmt 1 view -0
 1228              		.cfi_startproc
 1229              		@ args = 0, pretend = 0, frame = 0
 1230              		@ frame_needed = 0, uses_anonymous_args = 0
 1231              		@ link register save eliminated.
 1232              		.loc 1 665 1 is_stmt 0 view .LVU324
 1233 0000 10B4     		push	{r4}
 1234              		.cfi_def_cfa_offset 4
 1235              		.cfi_offset 4, -4
 666:../system/src/gd32f10x/gd32f10x_i2c.c ****     uint32_t intenable = 0U, flagstatus = 0U, bufie;
 1236              		.loc 1 666 5 is_stmt 1 view .LVU325
 1237              	.LVL123:
 667:../system/src/gd32f10x/gd32f10x_i2c.c ****     
 668:../system/src/gd32f10x/gd32f10x_i2c.c ****     /* check BUFIE */
 669:../system/src/gd32f10x/gd32f10x_i2c.c ****     bufie = I2C_CTL1(i2c_periph)&I2C_CTL1_BUFIE;
 1238              		.loc 1 669 5 view .LVU326
 1239              		.loc 1 669 13 is_stmt 0 view .LVU327
 1240 0002 4468     		ldr	r4, [r0, #4]
 1241              		.loc 1 669 11 view .LVU328
 1242 0004 04F48064 		and	r4, r4, #1024
 1243              	.LVL124:
 670:../system/src/gd32f10x/gd32f10x_i2c.c ****     
 671:../system/src/gd32f10x/gd32f10x_i2c.c ****     /* get the interrupt enable bit status */
 672:../system/src/gd32f10x/gd32f10x_i2c.c ****     intenable = (I2C_REG_VAL(i2c_periph, int_flag) & BIT(I2C_BIT_POS(int_flag)));
 1244              		.loc 1 672 5 is_stmt 1 view .LVU329
 1245              		.loc 1 672 18 is_stmt 0 view .LVU330
 1246 0008 C1F38913 		ubfx	r3, r1, #6, #10
 1247 000c 1A58     		ldr	r2, [r3, r0]
 1248              		.loc 1 672 54 view .LVU331
 1249 000e 01F01F0C 		and	ip, r1, #31
 1250 0012 0123     		movs	r3, #1
 1251 0014 03FA0CFC 		lsl	ip, r3, ip
 1252              		.loc 1 672 15 view .LVU332
 1253 0018 02EA0C02 		and	r2, r2, ip
 1254              	.LVL125:
 673:../system/src/gd32f10x/gd32f10x_i2c.c ****     /* get the corresponding flag bit status */
 674:../system/src/gd32f10x/gd32f10x_i2c.c ****     flagstatus = (I2C_REG_VAL2(i2c_periph, int_flag) & BIT(I2C_BIT_POS2(int_flag)));
 1255              		.loc 1 674 5 is_stmt 1 view .LVU333
 1256              		.loc 1 674 19 is_stmt 0 view .LVU334
 1257 001c 4FEA915C 		lsr	ip, r1, #22
 1258 0020 5CF80000 		ldr	r0, [ip, r0]
 1259              	.LVL126:
 1260              		.loc 1 674 56 view .LVU335
 1261 0024 C1F3044C 		ubfx	ip, r1, #16, #5
 1262 0028 03FA0CF3 		lsl	r3, r3, ip
 1263              		.loc 1 674 16 view .LVU336
 1264 002c 0340     		ands	r3, r3, r0
 1265              	.LVL127:
 675:../system/src/gd32f10x/gd32f10x_i2c.c **** 
 676:../system/src/gd32f10x/gd32f10x_i2c.c ****     if((I2C_INT_FLAG_RBNE == int_flag) || (I2C_INT_FLAG_TBE == int_flag)){
 1266              		.loc 1 676 5 is_stmt 1 view .LVU337
 1267              		.loc 1 676 7 is_stmt 0 view .LVU338
 1268 002e 0C48     		ldr	r0, .L72
 1269 0030 8142     		cmp	r1, r0
 1270 0032 07D0     		beq	.L64
 1271              		.loc 1 676 40 discriminator 1 view .LVU339
 1272 0034 00F58030 		add	r0, r0, #65536
 1273 0038 8142     		cmp	r1, r0
 1274 003a 03D0     		beq	.L64
 1275              	.LVL128:
 1276              	.L65:
 677:../system/src/gd32f10x/gd32f10x_i2c.c ****         if(intenable && bufie){
 678:../system/src/gd32f10x/gd32f10x_i2c.c ****             intenable = 1U;                       
 679:../system/src/gd32f10x/gd32f10x_i2c.c ****         }else{
 680:../system/src/gd32f10x/gd32f10x_i2c.c ****             intenable = 0U;
 681:../system/src/gd32f10x/gd32f10x_i2c.c ****         }
 682:../system/src/gd32f10x/gd32f10x_i2c.c ****     }
 683:../system/src/gd32f10x/gd32f10x_i2c.c ****     if((0U != flagstatus) && (0U != intenable)){
 1277              		.loc 1 683 5 is_stmt 1 view .LVU340
 1278              		.loc 1 683 7 is_stmt 0 view .LVU341
 1279 003c 53B1     		cbz	r3, .L69
 1280              		.loc 1 683 27 discriminator 1 view .LVU342
 1281 003e 62B9     		cbnz	r2, .L70
 684:../system/src/gd32f10x/gd32f10x_i2c.c ****         return SET;
 685:../system/src/gd32f10x/gd32f10x_i2c.c ****     }else{
 686:../system/src/gd32f10x/gd32f10x_i2c.c ****         return RESET; 
 1282              		.loc 1 686 16 view .LVU343
 1283 0040 0020     		movs	r0, #0
 1284 0042 08E0     		b	.L66
 1285              	.L64:
 677:../system/src/gd32f10x/gd32f10x_i2c.c ****         if(intenable && bufie){
 1286              		.loc 1 677 9 is_stmt 1 view .LVU344
 677:../system/src/gd32f10x/gd32f10x_i2c.c ****         if(intenable && bufie){
 1287              		.loc 1 677 11 is_stmt 0 view .LVU345
 1288 0044 12B1     		cbz	r2, .L67
 677:../system/src/gd32f10x/gd32f10x_i2c.c ****         if(intenable && bufie){
 1289              		.loc 1 677 22 discriminator 1 view .LVU346
 1290 0046 1CB9     		cbnz	r4, .L68
 680:../system/src/gd32f10x/gd32f10x_i2c.c ****         }
 1291              		.loc 1 680 23 view .LVU347
 1292 0048 0022     		movs	r2, #0
 1293              	.LVL129:
 680:../system/src/gd32f10x/gd32f10x_i2c.c ****         }
 1294              		.loc 1 680 23 view .LVU348
 1295 004a F7E7     		b	.L65
 1296              	.LVL130:
 1297              	.L67:
 680:../system/src/gd32f10x/gd32f10x_i2c.c ****         }
 1298              		.loc 1 680 23 view .LVU349
 1299 004c 0022     		movs	r2, #0
 1300              	.LVL131:
 680:../system/src/gd32f10x/gd32f10x_i2c.c ****         }
 1301              		.loc 1 680 23 view .LVU350
 1302 004e F5E7     		b	.L65
 1303              	.LVL132:
 1304              	.L68:
 678:../system/src/gd32f10x/gd32f10x_i2c.c ****         }else{
 1305              		.loc 1 678 23 view .LVU351
 1306 0050 0122     		movs	r2, #1
 1307              	.LVL133:
 678:../system/src/gd32f10x/gd32f10x_i2c.c ****         }else{
 1308              		.loc 1 678 23 view .LVU352
 1309 0052 F3E7     		b	.L65
 1310              	.LVL134:
 1311              	.L69:
 1312              		.loc 1 686 16 view .LVU353
 1313 0054 0020     		movs	r0, #0
 1314              	.L66:
 687:../system/src/gd32f10x/gd32f10x_i2c.c ****     }
 688:../system/src/gd32f10x/gd32f10x_i2c.c **** }
 1315              		.loc 1 688 1 view .LVU354
 1316 0056 10BC     		pop	{r4}
 1317              		.cfi_remember_state
 1318              		.cfi_restore 4
 1319              		.cfi_def_cfa_offset 0
 1320              	.LVL135:
 1321              		.loc 1 688 1 view .LVU355
 1322 0058 7047     		bx	lr
 1323              	.LVL136:
 1324              	.L70:
 1325              		.cfi_restore_state
 684:../system/src/gd32f10x/gd32f10x_i2c.c ****     }else{
 1326              		.loc 1 684 16 view .LVU356
 1327 005a 0120     		movs	r0, #1
 1328 005c FBE7     		b	.L66
 1329              	.L73:
 1330 005e 00BF     		.align	2
 1331              	.L72:
 1332 0060 09010605 		.word	84279561
 1333              		.cfi_endproc
 1334              	.LFE85:
 1336              		.section	.text.i2c_interrupt_flag_clear,"ax",%progbits
 1337              		.align	1
 1338              		.global	i2c_interrupt_flag_clear
 1339              		.syntax unified
 1340              		.thumb
 1341              		.thumb_func
 1343              	i2c_interrupt_flag_clear:
 1344              	.LVL137:
 1345              	.LFB86:
 689:../system/src/gd32f10x/gd32f10x_i2c.c **** 
 690:../system/src/gd32f10x/gd32f10x_i2c.c **** /*!
 691:../system/src/gd32f10x/gd32f10x_i2c.c ****     \brief      clear I2C interrupt flag status
 692:../system/src/gd32f10x/gd32f10x_i2c.c ****     \param[in]  i2c_periph: I2Cx(x=0,1)
 693:../system/src/gd32f10x/gd32f10x_i2c.c ****     \param[in]  int_flag: I2C interrupt flags, refer to i2c_interrupt_flag_enum
 694:../system/src/gd32f10x/gd32f10x_i2c.c ****                 only one parameter can be selected which is shown as below:
 695:../system/src/gd32f10x/gd32f10x_i2c.c ****       \arg        I2C_INT_FLAG_ADDSEND: address is sent in master mode or received and matches in s
 696:../system/src/gd32f10x/gd32f10x_i2c.c ****       \arg        I2C_INT_FLAG_BERR: a bus error occurs indication a unexpected start or stop condi
 697:../system/src/gd32f10x/gd32f10x_i2c.c ****       \arg        I2C_INT_FLAG_LOSTARB: arbitration lost in master mode interrupt flag
 698:../system/src/gd32f10x/gd32f10x_i2c.c ****       \arg        I2C_INT_FLAG_AERR: acknowledge error interrupt flag
 699:../system/src/gd32f10x/gd32f10x_i2c.c ****       \arg        I2C_INT_FLAG_OUERR: over-run or under-run situation occurs in slave mode interrup
 700:../system/src/gd32f10x/gd32f10x_i2c.c ****       \arg        I2C_INT_FLAG_PECERR: PEC error when receiving data interrupt flag
 701:../system/src/gd32f10x/gd32f10x_i2c.c ****       \arg        I2C_INT_FLAG_SMBTO: timeout signal in SMBus mode interrupt flag
 702:../system/src/gd32f10x/gd32f10x_i2c.c ****       \arg        I2C_INT_FLAG_SMBALT: SMBus alert status interrupt flag
 703:../system/src/gd32f10x/gd32f10x_i2c.c ****     \param[out] none
 704:../system/src/gd32f10x/gd32f10x_i2c.c ****     \retval     none
 705:../system/src/gd32f10x/gd32f10x_i2c.c **** */
 706:../system/src/gd32f10x/gd32f10x_i2c.c **** void i2c_interrupt_flag_clear(uint32_t i2c_periph, i2c_interrupt_flag_enum int_flag)
 707:../system/src/gd32f10x/gd32f10x_i2c.c **** {
 1346              		.loc 1 707 1 is_stmt 1 view -0
 1347              		.cfi_startproc
 1348              		@ args = 0, pretend = 0, frame = 0
 1349              		@ frame_needed = 0, uses_anonymous_args = 0
 1350              		@ link register save eliminated.
 708:../system/src/gd32f10x/gd32f10x_i2c.c ****     if(I2C_INT_FLAG_ADDSEND == int_flag){
 1351              		.loc 1 708 5 view .LVU358
 1352              		.loc 1 708 7 is_stmt 0 view .LVU359
 1353 0000 094B     		ldr	r3, .L78
 1354 0002 9942     		cmp	r1, r3
 1355 0004 0CD0     		beq	.L77
 709:../system/src/gd32f10x/gd32f10x_i2c.c ****         /* read I2C_STAT0 and then read I2C_STAT1 to clear ADDSEND */
 710:../system/src/gd32f10x/gd32f10x_i2c.c ****         I2C_STAT0(i2c_periph);
 711:../system/src/gd32f10x/gd32f10x_i2c.c ****         I2C_STAT1(i2c_periph);
 712:../system/src/gd32f10x/gd32f10x_i2c.c ****     }else{
 713:../system/src/gd32f10x/gd32f10x_i2c.c ****         I2C_REG_VAL2(i2c_periph, int_flag) &= ~BIT(I2C_BIT_POS2(int_flag));
 1356              		.loc 1 713 9 is_stmt 1 view .LVU360
 1357 0006 4FEA915C 		lsr	ip, r1, #22
 1358 000a 5CF80030 		ldr	r3, [ip, r0]
 1359              		.loc 1 713 48 is_stmt 0 view .LVU361
 1360 000e C1F30441 		ubfx	r1, r1, #16, #5
 1361              	.LVL138:
 1362              		.loc 1 713 48 view .LVU362
 1363 0012 0122     		movs	r2, #1
 1364 0014 8A40     		lsls	r2, r2, r1
 1365              		.loc 1 713 44 view .LVU363
 1366 0016 23EA0203 		bic	r3, r3, r2
 1367 001a 4CF80030 		str	r3, [ip, r0]
 714:../system/src/gd32f10x/gd32f10x_i2c.c ****     }
 715:../system/src/gd32f10x/gd32f10x_i2c.c **** }
 1368              		.loc 1 715 1 view .LVU364
 1369 001e 7047     		bx	lr
 1370              	.LVL139:
 1371              	.L77:
 710:../system/src/gd32f10x/gd32f10x_i2c.c ****         I2C_STAT1(i2c_periph);
 1372              		.loc 1 710 9 is_stmt 1 view .LVU365
 1373 0020 4369     		ldr	r3, [r0, #20]
 711:../system/src/gd32f10x/gd32f10x_i2c.c ****     }else{
 1374              		.loc 1 711 9 view .LVU366
 1375 0022 8369     		ldr	r3, [r0, #24]
 1376 0024 7047     		bx	lr
 1377              	.L79:
 1378 0026 00BF     		.align	2
 1379              	.L78:
 1380 0028 09010105 		.word	83951881
 1381              		.cfi_endproc
 1382              	.LFE86:
 1384              		.text
 1385              	.Letext0:
 1386              		.file 2 "c:\\users\\dmitriy\\appdata\\roaming\\xpacks\\@xpack-dev-tools\\arm-none-eabi-gcc\\12.3.1
 1387              		.file 3 "../system/inc/cmsis/gd32f10x.h"
 1388              		.file 4 "../system/inc/gd32f10x/gd32f10x_rcu.h"
 1389              		.file 5 "../system/inc/gd32f10x/gd32f10x_i2c.h"