   1              		.cpu cortex-m3
   2              		.arch armv7-m
   3              		.fpu softvfp
   4              		.eabi_attribute 20, 1
   5              		.eabi_attribute 21, 1
   6              		.eabi_attribute 23, 3
   7              		.eabi_attribute 24, 1
   8              		.eabi_attribute 25, 1
   9              		.eabi_attribute 26, 1
  10              		.eabi_attribute 30, 1
  11              		.eabi_attribute 34, 1
  12              		.eabi_attribute 18, 4
  13              		.file	"gd32f10x_bkp.c"
  14              		.text
  15              	.Ltext0:
  16              		.cfi_sections	.debug_frame
  17              		.file 1 "../system/src/gd32f10x/gd32f10x_bkp.c"
  18              		.section	.text.bkp_deinit,"ax",%progbits
  19              		.align	1
  20              		.global	bkp_deinit
  21              		.syntax unified
  22              		.thumb
  23              		.thumb_func
  25              	bkp_deinit:
  26              	.LFB56:
   1:../system/src/gd32f10x/gd32f10x_bkp.c **** /*!
   2:../system/src/gd32f10x/gd32f10x_bkp.c ****     \file    gd32f10x_bkp.c
   3:../system/src/gd32f10x/gd32f10x_bkp.c ****     \brief   BKP driver
   4:../system/src/gd32f10x/gd32f10x_bkp.c **** 
   5:../system/src/gd32f10x/gd32f10x_bkp.c ****     \version 2014-12-26, V1.0.0, firmware for GD32F10x
   6:../system/src/gd32f10x/gd32f10x_bkp.c ****     \version 2017-06-20, V2.0.0, firmware for GD32F10x
   7:../system/src/gd32f10x/gd32f10x_bkp.c ****     \version 2018-07-31, V2.1.0, firmware for GD32F10x
   8:../system/src/gd32f10x/gd32f10x_bkp.c ****     \version 2020-09-30, V2.2.0, firmware for GD32F10x
   9:../system/src/gd32f10x/gd32f10x_bkp.c **** */
  10:../system/src/gd32f10x/gd32f10x_bkp.c **** 
  11:../system/src/gd32f10x/gd32f10x_bkp.c **** /*
  12:../system/src/gd32f10x/gd32f10x_bkp.c ****     Copyright (c) 2020, GigaDevice Semiconductor Inc.
  13:../system/src/gd32f10x/gd32f10x_bkp.c **** 
  14:../system/src/gd32f10x/gd32f10x_bkp.c ****     Redistribution and use in source and binary forms, with or without modification, 
  15:../system/src/gd32f10x/gd32f10x_bkp.c **** are permitted provided that the following conditions are met:
  16:../system/src/gd32f10x/gd32f10x_bkp.c **** 
  17:../system/src/gd32f10x/gd32f10x_bkp.c ****     1. Redistributions of source code must retain the above copyright notice, this 
  18:../system/src/gd32f10x/gd32f10x_bkp.c ****        list of conditions and the following disclaimer.
  19:../system/src/gd32f10x/gd32f10x_bkp.c ****     2. Redistributions in binary form must reproduce the above copyright notice, 
  20:../system/src/gd32f10x/gd32f10x_bkp.c ****        this list of conditions and the following disclaimer in the documentation 
  21:../system/src/gd32f10x/gd32f10x_bkp.c ****        and/or other materials provided with the distribution.
  22:../system/src/gd32f10x/gd32f10x_bkp.c ****     3. Neither the name of the copyright holder nor the names of its contributors 
  23:../system/src/gd32f10x/gd32f10x_bkp.c ****        may be used to endorse or promote products derived from this software without 
  24:../system/src/gd32f10x/gd32f10x_bkp.c ****        specific prior written permission.
  25:../system/src/gd32f10x/gd32f10x_bkp.c **** 
  26:../system/src/gd32f10x/gd32f10x_bkp.c ****     THIS SOFTWARE IS PROVIDED BY THE COPYRIGHT HOLDERS AND CONTRIBUTORS "AS IS" 
  27:../system/src/gd32f10x/gd32f10x_bkp.c **** AND ANY EXPRESS OR IMPLIED WARRANTIES, INCLUDING, BUT NOT LIMITED TO, THE IMPLIED 
  28:../system/src/gd32f10x/gd32f10x_bkp.c **** WARRANTIES OF MERCHANTABILITY AND FITNESS FOR A PARTICULAR PURPOSE ARE DISCLAIMED. 
  29:../system/src/gd32f10x/gd32f10x_bkp.c **** IN NO EVENT SHALL THE COPYRIGHT HOLDER OR CONTRIBUTORS BE LIABLE FOR ANY DIRECT, 
  30:../system/src/gd32f10x/gd32f10x_bkp.c **** INDIRECT, INCIDENTAL, SPECIAL, EXEMPLARY, OR CONSEQUENTIAL DAMAGES (INCLUDING, BUT 
  31:../system/src/gd32f10x/gd32f10x_bkp.c **** NOT LIMITED TO, PROCUREMENT OF SUBSTITUTE GOODS OR SERVICES; LOSS OF USE, DATA, OR 
  32:../system/src/gd32f10x/gd32f10x_bkp.c **** PROFITS; OR BUSINESS INTERRUPTION) HOWEVER CAUSED AND ON ANY THEORY OF LIABILITY, 
  33:../system/src/gd32f10x/gd32f10x_bkp.c **** WHETHER IN CONTRACT, STRICT LIABILITY, OR TORT (INCLUDING NEGLIGENCE OR OTHERWISE) 
  34:../system/src/gd32f10x/gd32f10x_bkp.c **** ARISING IN ANY WAY OUT OF THE USE OF THIS SOFTWARE, EVEN IF ADVISED OF THE POSSIBILITY 
  35:../system/src/gd32f10x/gd32f10x_bkp.c **** OF SUCH DAMAGE.
  36:../system/src/gd32f10x/gd32f10x_bkp.c **** */
  37:../system/src/gd32f10x/gd32f10x_bkp.c **** 
  38:../system/src/gd32f10x/gd32f10x_bkp.c **** #include "gd32f10x_bkp.h"
  39:../system/src/gd32f10x/gd32f10x_bkp.c **** 
  40:../system/src/gd32f10x/gd32f10x_bkp.c **** /* BKP register bits offset */
  41:../system/src/gd32f10x/gd32f10x_bkp.c **** #define BKP_TAMPER_BITS_OFFSET          ((uint32_t)8U)
  42:../system/src/gd32f10x/gd32f10x_bkp.c **** 
  43:../system/src/gd32f10x/gd32f10x_bkp.c **** /*!
  44:../system/src/gd32f10x/gd32f10x_bkp.c ****     \brief      reset BKP registers
  45:../system/src/gd32f10x/gd32f10x_bkp.c ****     \param[in]  none
  46:../system/src/gd32f10x/gd32f10x_bkp.c ****     \param[out] none
  47:../system/src/gd32f10x/gd32f10x_bkp.c ****     \retval     none
  48:../system/src/gd32f10x/gd32f10x_bkp.c **** */
  49:../system/src/gd32f10x/gd32f10x_bkp.c **** void bkp_deinit(void)
  50:../system/src/gd32f10x/gd32f10x_bkp.c **** {
  27              		.loc 1 50 1 view -0
  28              		.cfi_startproc
  29              		@ args = 0, pretend = 0, frame = 0
  30              		@ frame_needed = 0, uses_anonymous_args = 0
  31 0000 08B5     		push	{r3, lr}
  32              		.cfi_def_cfa_offset 8
  33              		.cfi_offset 3, -8
  34              		.cfi_offset 14, -4
  51:../system/src/gd32f10x/gd32f10x_bkp.c ****     /* reset BKP domain register*/
  52:../system/src/gd32f10x/gd32f10x_bkp.c ****     rcu_bkp_reset_enable();
  35              		.loc 1 52 5 view .LVU1
  36 0002 FFF7FEFF 		bl	rcu_bkp_reset_enable
  37              	.LVL0:
  53:../system/src/gd32f10x/gd32f10x_bkp.c ****     rcu_bkp_reset_disable();
  38              		.loc 1 53 5 view .LVU2
  39 0006 FFF7FEFF 		bl	rcu_bkp_reset_disable
  40              	.LVL1:
  54:../system/src/gd32f10x/gd32f10x_bkp.c **** }
  41              		.loc 1 54 1 is_stmt 0 view .LVU3
  42 000a 08BD     		pop	{r3, pc}
  43              		.cfi_endproc
  44              	.LFE56:
  46              		.section	.text.bkp_data_write,"ax",%progbits
  47              		.align	1
  48              		.global	bkp_data_write
  49              		.syntax unified
  50              		.thumb
  51              		.thumb_func
  53              	bkp_data_write:
  54              	.LVL2:
  55              	.LFB57:
  55:../system/src/gd32f10x/gd32f10x_bkp.c **** 
  56:../system/src/gd32f10x/gd32f10x_bkp.c **** /*!
  57:../system/src/gd32f10x/gd32f10x_bkp.c ****     \brief      write BKP data register
  58:../system/src/gd32f10x/gd32f10x_bkp.c ****     \param[in]  register_number: refer to bkp_data_register_enum
  59:../system/src/gd32f10x/gd32f10x_bkp.c ****                 only one parameter can be selected which is shown as below:
  60:../system/src/gd32f10x/gd32f10x_bkp.c ****       \arg        BKP_DATA_x(x = 0..41): bkp data register number x
  61:../system/src/gd32f10x/gd32f10x_bkp.c ****     \param[in]  data: the data to be write in BKP data register
  62:../system/src/gd32f10x/gd32f10x_bkp.c ****     \param[out] none
  63:../system/src/gd32f10x/gd32f10x_bkp.c ****     \retval     none
  64:../system/src/gd32f10x/gd32f10x_bkp.c **** */
  65:../system/src/gd32f10x/gd32f10x_bkp.c **** void bkp_data_write(bkp_data_register_enum register_number, uint16_t data)
  66:../system/src/gd32f10x/gd32f10x_bkp.c **** {
  56              		.loc 1 66 1 is_stmt 1 view -0
  57              		.cfi_startproc
  58              		@ args = 0, pretend = 0, frame = 0
  59              		@ frame_needed = 0, uses_anonymous_args = 0
  60              		@ link register save eliminated.
  67:../system/src/gd32f10x/gd32f10x_bkp.c ****     if((register_number >= BKP_DATA_10) && (register_number <= BKP_DATA_41)){
  61              		.loc 1 67 5 view .LVU5
  62              		.loc 1 67 41 is_stmt 0 view .LVU6
  63 0000 A0F10B03 		sub	r3, r0, #11
  64 0004 DBB2     		uxtb	r3, r3
  65              		.loc 1 67 7 view .LVU7
  66 0006 1F2B     		cmp	r3, #31
  67 0008 04D8     		bhi	.L4
  68:../system/src/gd32f10x/gd32f10x_bkp.c ****         BKP_DATA10_41(register_number - 1U) = data;
  68              		.loc 1 68 9 is_stmt 1 view .LVU8
  69 000a 084B     		ldr	r3, .L6
  70 000c 0344     		add	r3, r3, r0
  71 000e 9B00     		lsls	r3, r3, #2
  72              		.loc 1 68 45 is_stmt 0 view .LVU9
  73 0010 1980     		strh	r1, [r3]	@ movhi
  74 0012 7047     		bx	lr
  75              	.L4:
  69:../system/src/gd32f10x/gd32f10x_bkp.c ****     }else if((register_number >= BKP_DATA_0) && (register_number <= BKP_DATA_9)){
  76              		.loc 1 69 11 is_stmt 1 view .LVU10
  77              		.loc 1 69 46 is_stmt 0 view .LVU11
  78 0014 431E     		subs	r3, r0, #1
  79 0016 DBB2     		uxtb	r3, r3
  80              		.loc 1 69 13 view .LVU12
  81 0018 092B     		cmp	r3, #9
  82 001a 05D8     		bhi	.L3
  70:../system/src/gd32f10x/gd32f10x_bkp.c ****         BKP_DATA0_9(register_number - 1U) = data;
  83              		.loc 1 70 9 is_stmt 1 view .LVU13
  84 001c 00F18050 		add	r0, r0, #268435456
  85              	.LVL3:
  86              		.loc 1 70 9 is_stmt 0 view .LVU14
  87 0020 00F5D850 		add	r0, r0, #6912
  88 0024 8000     		lsls	r0, r0, #2
  89              		.loc 1 70 43 view .LVU15
  90 0026 0180     		strh	r1, [r0]	@ movhi
  71:../system/src/gd32f10x/gd32f10x_bkp.c ****     }else{
  72:../system/src/gd32f10x/gd32f10x_bkp.c ****         /* illegal parameters */
  73:../system/src/gd32f10x/gd32f10x_bkp.c ****     }
  91              		.loc 1 73 5 is_stmt 1 view .LVU16
  92              	.L3:
  74:../system/src/gd32f10x/gd32f10x_bkp.c **** }
  93              		.loc 1 74 1 is_stmt 0 view .LVU17
  94 0028 7047     		bx	lr
  95              	.L7:
  96 002a 00BF     		.align	2
  97              	.L6:
  98 002c 051B0010 		.word	268442373
  99              		.cfi_endproc
 100              	.LFE57:
 102              		.section	.text.bkp_data_read,"ax",%progbits
 103              		.align	1
 104              		.global	bkp_data_read
 105              		.syntax unified
 106              		.thumb
 107              		.thumb_func
 109              	bkp_data_read:
 110              	.LVL4:
 111              	.LFB58:
  75:../system/src/gd32f10x/gd32f10x_bkp.c **** 
  76:../system/src/gd32f10x/gd32f10x_bkp.c **** /*!
  77:../system/src/gd32f10x/gd32f10x_bkp.c ****     \brief      read BKP data register
  78:../system/src/gd32f10x/gd32f10x_bkp.c ****     \param[in]  register_number: refer to bkp_data_register_enum
  79:../system/src/gd32f10x/gd32f10x_bkp.c ****                 only one parameter can be selected which is shown as below:
  80:../system/src/gd32f10x/gd32f10x_bkp.c ****       \arg        BKP_DATA_x(x = 0..41): bkp data register number x
  81:../system/src/gd32f10x/gd32f10x_bkp.c ****     \param[out] none
  82:../system/src/gd32f10x/gd32f10x_bkp.c ****     \retval     data of BKP data register
  83:../system/src/gd32f10x/gd32f10x_bkp.c **** */
  84:../system/src/gd32f10x/gd32f10x_bkp.c **** uint16_t bkp_data_read(bkp_data_register_enum register_number)
  85:../system/src/gd32f10x/gd32f10x_bkp.c **** {
 112              		.loc 1 85 1 is_stmt 1 view -0
 113              		.cfi_startproc
 114              		@ args = 0, pretend = 0, frame = 0
 115              		@ frame_needed = 0, uses_anonymous_args = 0
 116              		@ link register save eliminated.
  86:../system/src/gd32f10x/gd32f10x_bkp.c ****     uint16_t data = 0U;
 117              		.loc 1 86 5 view .LVU19
  87:../system/src/gd32f10x/gd32f10x_bkp.c ****     
  88:../system/src/gd32f10x/gd32f10x_bkp.c ****     /* get the data from the BKP data register */
  89:../system/src/gd32f10x/gd32f10x_bkp.c ****     if((register_number >= BKP_DATA_10) && (register_number <= BKP_DATA_41)){
 118              		.loc 1 89 5 view .LVU20
 119              		.loc 1 89 41 is_stmt 0 view .LVU21
 120 0000 A0F10B03 		sub	r3, r0, #11
 121 0004 DBB2     		uxtb	r3, r3
 122              		.loc 1 89 7 view .LVU22
 123 0006 1F2B     		cmp	r3, #31
 124 0008 05D8     		bhi	.L9
  90:../system/src/gd32f10x/gd32f10x_bkp.c ****         data = BKP_DATA10_41(register_number - 1U);
 125              		.loc 1 90 9 is_stmt 1 view .LVU23
 126              		.loc 1 90 16 is_stmt 0 view .LVU24
 127 000a 0A4B     		ldr	r3, .L12
 128 000c 0344     		add	r3, r3, r0
 129 000e 9B00     		lsls	r3, r3, #2
 130              		.loc 1 90 14 view .LVU25
 131 0010 1888     		ldrh	r0, [r3]
 132              	.LVL5:
 133              		.loc 1 90 14 view .LVU26
 134 0012 80B2     		uxth	r0, r0
 135              	.LVL6:
 136              		.loc 1 90 14 view .LVU27
 137 0014 7047     		bx	lr
 138              	.LVL7:
 139              	.L9:
  91:../system/src/gd32f10x/gd32f10x_bkp.c ****     }else if((register_number >= BKP_DATA_0) && (register_number <= BKP_DATA_9)){
 140              		.loc 1 91 11 is_stmt 1 view .LVU28
 141              		.loc 1 91 46 is_stmt 0 view .LVU29
 142 0016 431E     		subs	r3, r0, #1
 143 0018 DBB2     		uxtb	r3, r3
 144              		.loc 1 91 13 view .LVU30
 145 001a 092B     		cmp	r3, #9
 146 001c 07D8     		bhi	.L11
  92:../system/src/gd32f10x/gd32f10x_bkp.c ****         data = BKP_DATA0_9(register_number - 1U);
 147              		.loc 1 92 9 is_stmt 1 view .LVU31
 148              		.loc 1 92 16 is_stmt 0 view .LVU32
 149 001e 00F18050 		add	r0, r0, #268435456
 150              	.LVL8:
 151              		.loc 1 92 16 view .LVU33
 152 0022 00F5D850 		add	r0, r0, #6912
 153 0026 8000     		lsls	r0, r0, #2
 154              		.loc 1 92 14 view .LVU34
 155 0028 0088     		ldrh	r0, [r0]
 156 002a 80B2     		uxth	r0, r0
 157              	.LVL9:
 158              		.loc 1 92 14 view .LVU35
 159 002c 7047     		bx	lr
 160              	.LVL10:
 161              	.L11:
  86:../system/src/gd32f10x/gd32f10x_bkp.c ****     
 162              		.loc 1 86 14 view .LVU36
 163 002e 0020     		movs	r0, #0
 164              	.LVL11:
  93:../system/src/gd32f10x/gd32f10x_bkp.c ****     }else{
  94:../system/src/gd32f10x/gd32f10x_bkp.c ****         /* illegal parameters */
  95:../system/src/gd32f10x/gd32f10x_bkp.c ****     }
 165              		.loc 1 95 5 is_stmt 1 view .LVU37
  96:../system/src/gd32f10x/gd32f10x_bkp.c ****     return data;
 166              		.loc 1 96 5 view .LVU38
  97:../system/src/gd32f10x/gd32f10x_bkp.c **** }
 167              		.loc 1 97 1 is_stmt 0 view .LVU39
 168 0030 7047     		bx	lr
 169              	.L13:
 170 0032 00BF     		.align	2
 171              	.L12:
 172 0034 051B0010 		.word	268442373
 173              		.cfi_endproc
 174              	.LFE58:
 176              		.section	.text.bkp_rtc_calibration_output_enable,"ax",%progbits
 177              		.align	1
 178              		.global	bkp_rtc_calibration_output_enable
 179              		.syntax unified
 180              		.thumb
 181              		.thumb_func
 183              	bkp_rtc_calibration_output_enable:
 184              	.LFB59:
  98:../system/src/gd32f10x/gd32f10x_bkp.c **** 
  99:../system/src/gd32f10x/gd32f10x_bkp.c **** /*!
 100:../system/src/gd32f10x/gd32f10x_bkp.c ****     \brief      enable RTC clock calibration output
 101:../system/src/gd32f10x/gd32f10x_bkp.c ****     \param[in]  none
 102:../system/src/gd32f10x/gd32f10x_bkp.c ****     \param[out] none
 103:../system/src/gd32f10x/gd32f10x_bkp.c ****     \retval     none
 104:../system/src/gd32f10x/gd32f10x_bkp.c **** */
 105:../system/src/gd32f10x/gd32f10x_bkp.c **** void bkp_rtc_calibration_output_enable(void)
 106:../system/src/gd32f10x/gd32f10x_bkp.c **** {
 185              		.loc 1 106 1 is_stmt 1 view -0
 186              		.cfi_startproc
 187              		@ args = 0, pretend = 0, frame = 0
 188              		@ frame_needed = 0, uses_anonymous_args = 0
 189              		@ link register save eliminated.
 107:../system/src/gd32f10x/gd32f10x_bkp.c ****     BKP_OCTL |= (uint16_t)BKP_OCTL_COEN;
 190              		.loc 1 107 5 view .LVU41
 191 0000 034A     		ldr	r2, .L15
 192 0002 938D     		ldrh	r3, [r2, #44]
 193 0004 9BB2     		uxth	r3, r3
 194              		.loc 1 107 14 is_stmt 0 view .LVU42
 195 0006 43F08003 		orr	r3, r3, #128
 196 000a 9385     		strh	r3, [r2, #44]	@ movhi
 108:../system/src/gd32f10x/gd32f10x_bkp.c **** }
 197              		.loc 1 108 1 view .LVU43
 198 000c 7047     		bx	lr
 199              	.L16:
 200 000e 00BF     		.align	2
 201              	.L15:
 202 0010 006C0040 		.word	1073769472
 203              		.cfi_endproc
 204              	.LFE59:
 206              		.section	.text.bkp_rtc_calibration_output_disable,"ax",%progbits
 207              		.align	1
 208              		.global	bkp_rtc_calibration_output_disable
 209              		.syntax unified
 210              		.thumb
 211              		.thumb_func
 213              	bkp_rtc_calibration_output_disable:
 214              	.LFB60:
 109:../system/src/gd32f10x/gd32f10x_bkp.c **** 
 110:../system/src/gd32f10x/gd32f10x_bkp.c **** /*!
 111:../system/src/gd32f10x/gd32f10x_bkp.c ****     \brief      disable RTC clock calibration output
 112:../system/src/gd32f10x/gd32f10x_bkp.c ****     \param[in]  none
 113:../system/src/gd32f10x/gd32f10x_bkp.c ****     \param[out] none
 114:../system/src/gd32f10x/gd32f10x_bkp.c ****     \retval     none
 115:../system/src/gd32f10x/gd32f10x_bkp.c **** */
 116:../system/src/gd32f10x/gd32f10x_bkp.c **** void bkp_rtc_calibration_output_disable(void)
 117:../system/src/gd32f10x/gd32f10x_bkp.c **** {
 215              		.loc 1 117 1 is_stmt 1 view -0
 216              		.cfi_startproc
 217              		@ args = 0, pretend = 0, frame = 0
 218              		@ frame_needed = 0, uses_anonymous_args = 0
 219              		@ link register save eliminated.
 118:../system/src/gd32f10x/gd32f10x_bkp.c ****     BKP_OCTL &= (uint16_t)~BKP_OCTL_COEN;
 220              		.loc 1 118 5 view .LVU45
 221              		.loc 1 118 14 is_stmt 0 view .LVU46
 222 0000 034A     		ldr	r2, .L18
 223 0002 938D     		ldrh	r3, [r2, #44]
 224 0004 9BB2     		uxth	r3, r3
 225 0006 23F08003 		bic	r3, r3, #128
 226 000a 9BB2     		uxth	r3, r3
 227 000c 9385     		strh	r3, [r2, #44]	@ movhi
 119:../system/src/gd32f10x/gd32f10x_bkp.c **** }
 228              		.loc 1 119 1 view .LVU47
 229 000e 7047     		bx	lr
 230              	.L19:
 231              		.align	2
 232              	.L18:
 233 0010 006C0040 		.word	1073769472
 234              		.cfi_endproc
 235              	.LFE60:
 237              		.section	.text.bkp_rtc_signal_output_enable,"ax",%progbits
 238              		.align	1
 239              		.global	bkp_rtc_signal_output_enable
 240              		.syntax unified
 241              		.thumb
 242              		.thumb_func
 244              	bkp_rtc_signal_output_enable:
 245              	.LFB61:
 120:../system/src/gd32f10x/gd32f10x_bkp.c **** 
 121:../system/src/gd32f10x/gd32f10x_bkp.c **** /*!
 122:../system/src/gd32f10x/gd32f10x_bkp.c ****     \brief      enable RTC alarm or second signal output
 123:../system/src/gd32f10x/gd32f10x_bkp.c ****     \param[in]  none
 124:../system/src/gd32f10x/gd32f10x_bkp.c ****     \param[out] none
 125:../system/src/gd32f10x/gd32f10x_bkp.c ****     \retval     none
 126:../system/src/gd32f10x/gd32f10x_bkp.c **** */
 127:../system/src/gd32f10x/gd32f10x_bkp.c **** void bkp_rtc_signal_output_enable(void)
 128:../system/src/gd32f10x/gd32f10x_bkp.c **** {
 246              		.loc 1 128 1 is_stmt 1 view -0
 247              		.cfi_startproc
 248              		@ args = 0, pretend = 0, frame = 0
 249              		@ frame_needed = 0, uses_anonymous_args = 0
 250              		@ link register save eliminated.
 129:../system/src/gd32f10x/gd32f10x_bkp.c ****     BKP_OCTL |= (uint16_t)BKP_OCTL_ASOEN;
 251              		.loc 1 129 5 view .LVU49
 252 0000 034A     		ldr	r2, .L21
 253 0002 938D     		ldrh	r3, [r2, #44]
 254 0004 9BB2     		uxth	r3, r3
 255              		.loc 1 129 14 is_stmt 0 view .LVU50
 256 0006 43F48073 		orr	r3, r3, #256
 257 000a 9385     		strh	r3, [r2, #44]	@ movhi
 130:../system/src/gd32f10x/gd32f10x_bkp.c **** }
 258              		.loc 1 130 1 view .LVU51
 259 000c 7047     		bx	lr
 260              	.L22:
 261 000e 00BF     		.align	2
 262              	.L21:
 263 0010 006C0040 		.word	1073769472
 264              		.cfi_endproc
 265              	.LFE61:
 267              		.section	.text.bkp_rtc_signal_output_disable,"ax",%progbits
 268              		.align	1
 269              		.global	bkp_rtc_signal_output_disable
 270              		.syntax unified
 271              		.thumb
 272              		.thumb_func
 274              	bkp_rtc_signal_output_disable:
 275              	.LFB62:
 131:../system/src/gd32f10x/gd32f10x_bkp.c **** 
 132:../system/src/gd32f10x/gd32f10x_bkp.c **** /*!
 133:../system/src/gd32f10x/gd32f10x_bkp.c ****     \brief      disable RTC alarm or second signal output
 134:../system/src/gd32f10x/gd32f10x_bkp.c ****     \param[in]  none
 135:../system/src/gd32f10x/gd32f10x_bkp.c ****     \param[out] none
 136:../system/src/gd32f10x/gd32f10x_bkp.c ****     \retval     none
 137:../system/src/gd32f10x/gd32f10x_bkp.c **** */
 138:../system/src/gd32f10x/gd32f10x_bkp.c **** void bkp_rtc_signal_output_disable(void)
 139:../system/src/gd32f10x/gd32f10x_bkp.c **** {
 276              		.loc 1 139 1 is_stmt 1 view -0
 277              		.cfi_startproc
 278              		@ args = 0, pretend = 0, frame = 0
 279              		@ frame_needed = 0, uses_anonymous_args = 0
 280              		@ link register save eliminated.
 140:../system/src/gd32f10x/gd32f10x_bkp.c ****     BKP_OCTL &= (uint16_t)~BKP_OCTL_ASOEN;
 281              		.loc 1 140 5 view .LVU53
 282              		.loc 1 140 14 is_stmt 0 view .LVU54
 283 0000 034A     		ldr	r2, .L24
 284 0002 938D     		ldrh	r3, [r2, #44]
 285 0004 9BB2     		uxth	r3, r3
 286 0006 23F48073 		bic	r3, r3, #256
 287 000a 9BB2     		uxth	r3, r3
 288 000c 9385     		strh	r3, [r2, #44]	@ movhi
 141:../system/src/gd32f10x/gd32f10x_bkp.c **** }
 289              		.loc 1 141 1 view .LVU55
 290 000e 7047     		bx	lr
 291              	.L25:
 292              		.align	2
 293              	.L24:
 294 0010 006C0040 		.word	1073769472
 295              		.cfi_endproc
 296              	.LFE62:
 298              		.section	.text.bkp_rtc_output_select,"ax",%progbits
 299              		.align	1
 300              		.global	bkp_rtc_output_select
 301              		.syntax unified
 302              		.thumb
 303              		.thumb_func
 305              	bkp_rtc_output_select:
 306              	.LVL12:
 307              	.LFB63:
 142:../system/src/gd32f10x/gd32f10x_bkp.c **** 
 143:../system/src/gd32f10x/gd32f10x_bkp.c **** /*!
 144:../system/src/gd32f10x/gd32f10x_bkp.c ****     \brief      select RTC output
 145:../system/src/gd32f10x/gd32f10x_bkp.c ****     \param[in]  outputsel: RTC output selection
 146:../system/src/gd32f10x/gd32f10x_bkp.c ****                 only one parameter can be selected which is shown as below:
 147:../system/src/gd32f10x/gd32f10x_bkp.c ****       \arg        RTC_OUTPUT_ALARM_PULSE: RTC alarm pulse is selected as the RTC output
 148:../system/src/gd32f10x/gd32f10x_bkp.c ****       \arg        RTC_OUTPUT_SECOND_PULSE: RTC second pulse is selected as the RTC output
 149:../system/src/gd32f10x/gd32f10x_bkp.c ****     \param[out] none
 150:../system/src/gd32f10x/gd32f10x_bkp.c ****     \retval     none
 151:../system/src/gd32f10x/gd32f10x_bkp.c **** */
 152:../system/src/gd32f10x/gd32f10x_bkp.c **** void bkp_rtc_output_select(uint16_t outputsel)
 153:../system/src/gd32f10x/gd32f10x_bkp.c **** {
 308              		.loc 1 153 1 is_stmt 1 view -0
 309              		.cfi_startproc
 310              		@ args = 0, pretend = 0, frame = 0
 311              		@ frame_needed = 0, uses_anonymous_args = 0
 312              		@ link register save eliminated.
 154:../system/src/gd32f10x/gd32f10x_bkp.c ****     uint16_t ctl = 0U;
 313              		.loc 1 154 5 view .LVU57
 155:../system/src/gd32f10x/gd32f10x_bkp.c ****     
 156:../system/src/gd32f10x/gd32f10x_bkp.c ****     /* configure BKP_OCTL_ROSEL with outputsel */
 157:../system/src/gd32f10x/gd32f10x_bkp.c ****     ctl = BKP_OCTL;
 314              		.loc 1 157 5 view .LVU58
 315              		.loc 1 157 9 is_stmt 0 view .LVU59
 316 0000 034A     		ldr	r2, .L27
 317 0002 938D     		ldrh	r3, [r2, #44]
 318 0004 9BB2     		uxth	r3, r3
 319              	.LVL13:
 158:../system/src/gd32f10x/gd32f10x_bkp.c ****     ctl &= (uint16_t)~BKP_OCTL_ROSEL;
 320              		.loc 1 158 5 is_stmt 1 view .LVU60
 321              		.loc 1 158 9 is_stmt 0 view .LVU61
 322 0006 23F40073 		bic	r3, r3, #512
 323              	.LVL14:
 159:../system/src/gd32f10x/gd32f10x_bkp.c ****     ctl |= outputsel;
 324              		.loc 1 159 5 is_stmt 1 view .LVU62
 325              		.loc 1 159 9 is_stmt 0 view .LVU63
 326 000a 0343     		orrs	r3, r3, r0
 327              	.LVL15:
 160:../system/src/gd32f10x/gd32f10x_bkp.c ****     BKP_OCTL = ctl;
 328              		.loc 1 160 5 is_stmt 1 view .LVU64
 329              		.loc 1 160 14 is_stmt 0 view .LVU65
 330 000c 9385     		strh	r3, [r2, #44]	@ movhi
 161:../system/src/gd32f10x/gd32f10x_bkp.c **** }
 331              		.loc 1 161 1 view .LVU66
 332 000e 7047     		bx	lr
 333              	.L28:
 334              		.align	2
 335              	.L27:
 336 0010 006C0040 		.word	1073769472
 337              		.cfi_endproc
 338              	.LFE63:
 340              		.section	.text.bkp_rtc_calibration_value_set,"ax",%progbits
 341              		.align	1
 342              		.global	bkp_rtc_calibration_value_set
 343              		.syntax unified
 344              		.thumb
 345              		.thumb_func
 347              	bkp_rtc_calibration_value_set:
 348              	.LVL16:
 349              	.LFB64:
 162:../system/src/gd32f10x/gd32f10x_bkp.c **** 
 163:../system/src/gd32f10x/gd32f10x_bkp.c **** /*!
 164:../system/src/gd32f10x/gd32f10x_bkp.c ****     \brief      set RTC clock calibration value 
 165:../system/src/gd32f10x/gd32f10x_bkp.c ****     \param[in]  value: RTC clock calibration value
 166:../system/src/gd32f10x/gd32f10x_bkp.c ****       \arg        0x00 - 0x7F
 167:../system/src/gd32f10x/gd32f10x_bkp.c ****     \param[out] none
 168:../system/src/gd32f10x/gd32f10x_bkp.c ****     \retval     none
 169:../system/src/gd32f10x/gd32f10x_bkp.c **** */
 170:../system/src/gd32f10x/gd32f10x_bkp.c **** void bkp_rtc_calibration_value_set(uint8_t value)
 171:../system/src/gd32f10x/gd32f10x_bkp.c **** {
 350              		.loc 1 171 1 is_stmt 1 view -0
 351              		.cfi_startproc
 352              		@ args = 0, pretend = 0, frame = 0
 353              		@ frame_needed = 0, uses_anonymous_args = 0
 354              		@ link register save eliminated.
 172:../system/src/gd32f10x/gd32f10x_bkp.c ****     uint16_t ctl;
 355              		.loc 1 172 5 view .LVU68
 173:../system/src/gd32f10x/gd32f10x_bkp.c ****     
 174:../system/src/gd32f10x/gd32f10x_bkp.c ****     /* configure BKP_OCTL_RCCV with value */
 175:../system/src/gd32f10x/gd32f10x_bkp.c ****     ctl = BKP_OCTL;
 356              		.loc 1 175 5 view .LVU69
 357              		.loc 1 175 9 is_stmt 0 view .LVU70
 358 0000 044A     		ldr	r2, .L30
 359 0002 938D     		ldrh	r3, [r2, #44]
 360 0004 9BB2     		uxth	r3, r3
 361              	.LVL17:
 176:../system/src/gd32f10x/gd32f10x_bkp.c ****     ctl &= (uint16_t)~BKP_OCTL_RCCV;
 362              		.loc 1 176 5 is_stmt 1 view .LVU71
 363              		.loc 1 176 9 is_stmt 0 view .LVU72
 364 0006 23F07F03 		bic	r3, r3, #127
 365              	.LVL18:
 177:../system/src/gd32f10x/gd32f10x_bkp.c ****     ctl |= (uint16_t)OCTL_RCCV(value);
 366              		.loc 1 177 5 is_stmt 1 view .LVU73
 367              		.loc 1 177 9 is_stmt 0 view .LVU74
 368 000a 00F07F00 		and	r0, r0, #127
 369              	.LVL19:
 370              		.loc 1 177 9 view .LVU75
 371 000e 0343     		orrs	r3, r3, r0
 372              	.LVL20:
 178:../system/src/gd32f10x/gd32f10x_bkp.c ****     BKP_OCTL = ctl;
 373              		.loc 1 178 5 is_stmt 1 view .LVU76
 374              		.loc 1 178 14 is_stmt 0 view .LVU77
 375 0010 9385     		strh	r3, [r2, #44]	@ movhi
 179:../system/src/gd32f10x/gd32f10x_bkp.c **** }
 376              		.loc 1 179 1 view .LVU78
 377 0012 7047     		bx	lr
 378              	.L31:
 379              		.align	2
 380              	.L30:
 381 0014 006C0040 		.word	1073769472
 382              		.cfi_endproc
 383              	.LFE64:
 385              		.section	.text.bkp_tamper_detection_enable,"ax",%progbits
 386              		.align	1
 387              		.global	bkp_tamper_detection_enable
 388              		.syntax unified
 389              		.thumb
 390              		.thumb_func
 392              	bkp_tamper_detection_enable:
 393              	.LFB65:
 180:../system/src/gd32f10x/gd32f10x_bkp.c **** 
 181:../system/src/gd32f10x/gd32f10x_bkp.c **** /*!
 182:../system/src/gd32f10x/gd32f10x_bkp.c ****     \brief      enable tamper detection
 183:../system/src/gd32f10x/gd32f10x_bkp.c ****     \param[in]  none
 184:../system/src/gd32f10x/gd32f10x_bkp.c ****     \param[out] none
 185:../system/src/gd32f10x/gd32f10x_bkp.c ****     \retval     none
 186:../system/src/gd32f10x/gd32f10x_bkp.c **** */
 187:../system/src/gd32f10x/gd32f10x_bkp.c **** void bkp_tamper_detection_enable(void)
 188:../system/src/gd32f10x/gd32f10x_bkp.c **** {
 394              		.loc 1 188 1 is_stmt 1 view -0
 395              		.cfi_startproc
 396              		@ args = 0, pretend = 0, frame = 0
 397              		@ frame_needed = 0, uses_anonymous_args = 0
 398              		@ link register save eliminated.
 189:../system/src/gd32f10x/gd32f10x_bkp.c ****     BKP_TPCTL |= (uint16_t)BKP_TPCTL_TPEN;
 399              		.loc 1 189 5 view .LVU80
 400 0000 034A     		ldr	r2, .L33
 401 0002 138E     		ldrh	r3, [r2, #48]
 402 0004 9BB2     		uxth	r3, r3
 403              		.loc 1 189 15 is_stmt 0 view .LVU81
 404 0006 43F00103 		orr	r3, r3, #1
 405 000a 1386     		strh	r3, [r2, #48]	@ movhi
 190:../system/src/gd32f10x/gd32f10x_bkp.c **** }
 406              		.loc 1 190 1 view .LVU82
 407 000c 7047     		bx	lr
 408              	.L34:
 409 000e 00BF     		.align	2
 410              	.L33:
 411 0010 006C0040 		.word	1073769472
 412              		.cfi_endproc
 413              	.LFE65:
 415              		.section	.text.bkp_tamper_detection_disable,"ax",%progbits
 416              		.align	1
 417              		.global	bkp_tamper_detection_disable
 418              		.syntax unified
 419              		.thumb
 420              		.thumb_func
 422              	bkp_tamper_detection_disable:
 423              	.LFB66:
 191:../system/src/gd32f10x/gd32f10x_bkp.c **** 
 192:../system/src/gd32f10x/gd32f10x_bkp.c **** /*!
 193:../system/src/gd32f10x/gd32f10x_bkp.c ****     \brief      disable tamper detection
 194:../system/src/gd32f10x/gd32f10x_bkp.c ****     \param[in]  none
 195:../system/src/gd32f10x/gd32f10x_bkp.c ****     \param[out] none
 196:../system/src/gd32f10x/gd32f10x_bkp.c ****     \retval     none
 197:../system/src/gd32f10x/gd32f10x_bkp.c **** */
 198:../system/src/gd32f10x/gd32f10x_bkp.c **** void bkp_tamper_detection_disable(void)
 199:../system/src/gd32f10x/gd32f10x_bkp.c **** {
 424              		.loc 1 199 1 is_stmt 1 view -0
 425              		.cfi_startproc
 426              		@ args = 0, pretend = 0, frame = 0
 427              		@ frame_needed = 0, uses_anonymous_args = 0
 428              		@ link register save eliminated.
 200:../system/src/gd32f10x/gd32f10x_bkp.c ****     BKP_TPCTL &= (uint16_t)~BKP_TPCTL_TPEN;
 429              		.loc 1 200 5 view .LVU84
 430              		.loc 1 200 15 is_stmt 0 view .LVU85
 431 0000 034A     		ldr	r2, .L36
 432 0002 138E     		ldrh	r3, [r2, #48]
 433 0004 9BB2     		uxth	r3, r3
 434 0006 23F00103 		bic	r3, r3, #1
 435 000a 9BB2     		uxth	r3, r3
 436 000c 1386     		strh	r3, [r2, #48]	@ movhi
 201:../system/src/gd32f10x/gd32f10x_bkp.c **** }
 437              		.loc 1 201 1 view .LVU86
 438 000e 7047     		bx	lr
 439              	.L37:
 440              		.align	2
 441              	.L36:
 442 0010 006C0040 		.word	1073769472
 443              		.cfi_endproc
 444              	.LFE66:
 446              		.section	.text.bkp_tamper_active_level_set,"ax",%progbits
 447              		.align	1
 448              		.global	bkp_tamper_active_level_set
 449              		.syntax unified
 450              		.thumb
 451              		.thumb_func
 453              	bkp_tamper_active_level_set:
 454              	.LVL21:
 455              	.LFB67:
 202:../system/src/gd32f10x/gd32f10x_bkp.c **** 
 203:../system/src/gd32f10x/gd32f10x_bkp.c **** /*!
 204:../system/src/gd32f10x/gd32f10x_bkp.c ****     \brief      set tamper pin active level
 205:../system/src/gd32f10x/gd32f10x_bkp.c ****     \param[in]  level: tamper active level
 206:../system/src/gd32f10x/gd32f10x_bkp.c ****                 only one parameter can be selected which is shown as below:
 207:../system/src/gd32f10x/gd32f10x_bkp.c ****       \arg        TAMPER_PIN_ACTIVE_HIGH: the tamper pin is active high
 208:../system/src/gd32f10x/gd32f10x_bkp.c ****       \arg        TAMPER_PIN_ACTIVE_LOW: the tamper pin is active low
 209:../system/src/gd32f10x/gd32f10x_bkp.c ****     \param[out] none
 210:../system/src/gd32f10x/gd32f10x_bkp.c ****     \retval     none
 211:../system/src/gd32f10x/gd32f10x_bkp.c **** */
 212:../system/src/gd32f10x/gd32f10x_bkp.c **** void bkp_tamper_active_level_set(uint16_t level)
 213:../system/src/gd32f10x/gd32f10x_bkp.c **** {
 456              		.loc 1 213 1 is_stmt 1 view -0
 457              		.cfi_startproc
 458              		@ args = 0, pretend = 0, frame = 0
 459              		@ frame_needed = 0, uses_anonymous_args = 0
 460              		@ link register save eliminated.
 214:../system/src/gd32f10x/gd32f10x_bkp.c ****     uint16_t ctl = 0U;
 461              		.loc 1 214 5 view .LVU88
 215:../system/src/gd32f10x/gd32f10x_bkp.c ****     
 216:../system/src/gd32f10x/gd32f10x_bkp.c ****     /* configure BKP_TPCTL_TPAL with level */
 217:../system/src/gd32f10x/gd32f10x_bkp.c ****     ctl = BKP_TPCTL;
 462              		.loc 1 217 5 view .LVU89
 463              		.loc 1 217 9 is_stmt 0 view .LVU90
 464 0000 034A     		ldr	r2, .L39
 465 0002 138E     		ldrh	r3, [r2, #48]
 466 0004 9BB2     		uxth	r3, r3
 467              	.LVL22:
 218:../system/src/gd32f10x/gd32f10x_bkp.c ****     ctl &= (uint16_t)~BKP_TPCTL_TPAL;
 468              		.loc 1 218 5 is_stmt 1 view .LVU91
 469              		.loc 1 218 9 is_stmt 0 view .LVU92
 470 0006 23F00203 		bic	r3, r3, #2
 471              	.LVL23:
 219:../system/src/gd32f10x/gd32f10x_bkp.c ****     ctl |= level;
 472              		.loc 1 219 5 is_stmt 1 view .LVU93
 473              		.loc 1 219 9 is_stmt 0 view .LVU94
 474 000a 0343     		orrs	r3, r3, r0
 475              	.LVL24:
 220:../system/src/gd32f10x/gd32f10x_bkp.c ****     BKP_TPCTL = ctl;
 476              		.loc 1 220 5 is_stmt 1 view .LVU95
 477              		.loc 1 220 15 is_stmt 0 view .LVU96
 478 000c 1386     		strh	r3, [r2, #48]	@ movhi
 221:../system/src/gd32f10x/gd32f10x_bkp.c **** }
 479              		.loc 1 221 1 view .LVU97
 480 000e 7047     		bx	lr
 481              	.L40:
 482              		.align	2
 483              	.L39:
 484 0010 006C0040 		.word	1073769472
 485              		.cfi_endproc
 486              	.LFE67:
 488              		.section	.text.bkp_interrupt_enable,"ax",%progbits
 489              		.align	1
 490              		.global	bkp_interrupt_enable
 491              		.syntax unified
 492              		.thumb
 493              		.thumb_func
 495              	bkp_interrupt_enable:
 496              	.LFB68:
 222:../system/src/gd32f10x/gd32f10x_bkp.c **** 
 223:../system/src/gd32f10x/gd32f10x_bkp.c **** /*!
 224:../system/src/gd32f10x/gd32f10x_bkp.c ****     \brief      enable tamper interrupt
 225:../system/src/gd32f10x/gd32f10x_bkp.c ****     \param[in]  none
 226:../system/src/gd32f10x/gd32f10x_bkp.c ****     \param[out] none
 227:../system/src/gd32f10x/gd32f10x_bkp.c ****     \retval     none
 228:../system/src/gd32f10x/gd32f10x_bkp.c **** */
 229:../system/src/gd32f10x/gd32f10x_bkp.c **** void bkp_interrupt_enable(void)
 230:../system/src/gd32f10x/gd32f10x_bkp.c **** {
 497              		.loc 1 230 1 is_stmt 1 view -0
 498              		.cfi_startproc
 499              		@ args = 0, pretend = 0, frame = 0
 500              		@ frame_needed = 0, uses_anonymous_args = 0
 501              		@ link register save eliminated.
 231:../system/src/gd32f10x/gd32f10x_bkp.c ****     BKP_TPCS |= (uint16_t)BKP_TPCS_TPIE;
 502              		.loc 1 231 5 view .LVU99
 503 0000 034A     		ldr	r2, .L42
 504 0002 938E     		ldrh	r3, [r2, #52]
 505 0004 9BB2     		uxth	r3, r3
 506              		.loc 1 231 14 is_stmt 0 view .LVU100
 507 0006 43F00403 		orr	r3, r3, #4
 508 000a 9386     		strh	r3, [r2, #52]	@ movhi
 232:../system/src/gd32f10x/gd32f10x_bkp.c **** }
 509              		.loc 1 232 1 view .LVU101
 510 000c 7047     		bx	lr
 511              	.L43:
 512 000e 00BF     		.align	2
 513              	.L42:
 514 0010 006C0040 		.word	1073769472
 515              		.cfi_endproc
 516              	.LFE68:
 518              		.section	.text.bkp_interrupt_disable,"ax",%progbits
 519              		.align	1
 520              		.global	bkp_interrupt_disable
 521              		.syntax unified
 522              		.thumb
 523              		.thumb_func
 525              	bkp_interrupt_disable:
 526              	.LFB69:
 233:../system/src/gd32f10x/gd32f10x_bkp.c **** 
 234:../system/src/gd32f10x/gd32f10x_bkp.c **** /*!
 235:../system/src/gd32f10x/gd32f10x_bkp.c ****     \brief      disable tamper interrupt
 236:../system/src/gd32f10x/gd32f10x_bkp.c ****     \param[in]  none
 237:../system/src/gd32f10x/gd32f10x_bkp.c ****     \param[out] none
 238:../system/src/gd32f10x/gd32f10x_bkp.c ****     \retval     none
 239:../system/src/gd32f10x/gd32f10x_bkp.c **** */
 240:../system/src/gd32f10x/gd32f10x_bkp.c **** void bkp_interrupt_disable(void)
 241:../system/src/gd32f10x/gd32f10x_bkp.c **** {
 527              		.loc 1 241 1 is_stmt 1 view -0
 528              		.cfi_startproc
 529              		@ args = 0, pretend = 0, frame = 0
 530              		@ frame_needed = 0, uses_anonymous_args = 0
 531              		@ link register save eliminated.
 242:../system/src/gd32f10x/gd32f10x_bkp.c ****     BKP_TPCS &= (uint16_t)~BKP_TPCS_TPIE;
 532              		.loc 1 242 5 view .LVU103
 533              		.loc 1 242 14 is_stmt 0 view .LVU104
 534 0000 034A     		ldr	r2, .L45
 535 0002 938E     		ldrh	r3, [r2, #52]
 536 0004 9BB2     		uxth	r3, r3
 537 0006 23F00403 		bic	r3, r3, #4
 538 000a 9BB2     		uxth	r3, r3
 539 000c 9386     		strh	r3, [r2, #52]	@ movhi
 243:../system/src/gd32f10x/gd32f10x_bkp.c **** }
 540              		.loc 1 243 1 view .LVU105
 541 000e 7047     		bx	lr
 542              	.L46:
 543              		.align	2
 544              	.L45:
 545 0010 006C0040 		.word	1073769472
 546              		.cfi_endproc
 547              	.LFE69:
 549              		.section	.text.bkp_flag_get,"ax",%progbits
 550              		.align	1
 551              		.global	bkp_flag_get
 552              		.syntax unified
 553              		.thumb
 554              		.thumb_func
 556              	bkp_flag_get:
 557              	.LFB70:
 244:../system/src/gd32f10x/gd32f10x_bkp.c **** 
 245:../system/src/gd32f10x/gd32f10x_bkp.c **** /*!
 246:../system/src/gd32f10x/gd32f10x_bkp.c ****     \brief      get tamper flag state
 247:../system/src/gd32f10x/gd32f10x_bkp.c ****     \param[in]  none
 248:../system/src/gd32f10x/gd32f10x_bkp.c ****     \param[out] none
 249:../system/src/gd32f10x/gd32f10x_bkp.c ****     \retval     FlagStatus: SET or RESET
 250:../system/src/gd32f10x/gd32f10x_bkp.c **** */
 251:../system/src/gd32f10x/gd32f10x_bkp.c **** FlagStatus bkp_flag_get(void)
 252:../system/src/gd32f10x/gd32f10x_bkp.c **** {
 558              		.loc 1 252 1 is_stmt 1 view -0
 559              		.cfi_startproc
 560              		@ args = 0, pretend = 0, frame = 0
 561              		@ frame_needed = 0, uses_anonymous_args = 0
 562              		@ link register save eliminated.
 253:../system/src/gd32f10x/gd32f10x_bkp.c ****     if(RESET != (BKP_TPCS & BKP_FLAG_TAMPER)){
 563              		.loc 1 253 5 view .LVU107
 564              		.loc 1 253 18 is_stmt 0 view .LVU108
 565 0000 044B     		ldr	r3, .L50
 566 0002 9B8E     		ldrh	r3, [r3, #52]
 567              		.loc 1 253 7 view .LVU109
 568 0004 13F4807F 		tst	r3, #256
 569 0008 01D0     		beq	.L49
 254:../system/src/gd32f10x/gd32f10x_bkp.c ****         return SET;
 570              		.loc 1 254 16 view .LVU110
 571 000a 0120     		movs	r0, #1
 572 000c 7047     		bx	lr
 573              	.L49:
 255:../system/src/gd32f10x/gd32f10x_bkp.c ****     }else{
 256:../system/src/gd32f10x/gd32f10x_bkp.c ****         return RESET;
 574              		.loc 1 256 16 view .LVU111
 575 000e 0020     		movs	r0, #0
 257:../system/src/gd32f10x/gd32f10x_bkp.c ****     }
 258:../system/src/gd32f10x/gd32f10x_bkp.c **** }
 576              		.loc 1 258 1 view .LVU112
 577 0010 7047     		bx	lr
 578              	.L51:
 579 0012 00BF     		.align	2
 580              	.L50:
 581 0014 006C0040 		.word	1073769472
 582              		.cfi_endproc
 583              	.LFE70:
 585              		.section	.text.bkp_flag_clear,"ax",%progbits
 586              		.align	1
 587              		.global	bkp_flag_clear
 588              		.syntax unified
 589              		.thumb
 590              		.thumb_func
 592              	bkp_flag_clear:
 593              	.LFB71:
 259:../system/src/gd32f10x/gd32f10x_bkp.c **** 
 260:../system/src/gd32f10x/gd32f10x_bkp.c **** /*!
 261:../system/src/gd32f10x/gd32f10x_bkp.c ****     \brief      clear tamper flag state
 262:../system/src/gd32f10x/gd32f10x_bkp.c ****     \param[in]  none
 263:../system/src/gd32f10x/gd32f10x_bkp.c ****     \param[out] none
 264:../system/src/gd32f10x/gd32f10x_bkp.c ****     \retval     none
 265:../system/src/gd32f10x/gd32f10x_bkp.c **** */
 266:../system/src/gd32f10x/gd32f10x_bkp.c **** void bkp_flag_clear(void)
 267:../system/src/gd32f10x/gd32f10x_bkp.c **** {
 594              		.loc 1 267 1 is_stmt 1 view -0
 595              		.cfi_startproc
 596              		@ args = 0, pretend = 0, frame = 0
 597              		@ frame_needed = 0, uses_anonymous_args = 0
 598              		@ link register save eliminated.
 268:../system/src/gd32f10x/gd32f10x_bkp.c ****     BKP_TPCS |= (uint16_t)(BKP_FLAG_TAMPER >> BKP_TAMPER_BITS_OFFSET);
 599              		.loc 1 268 5 view .LVU114
 600 0000 034A     		ldr	r2, .L53
 601 0002 938E     		ldrh	r3, [r2, #52]
 602 0004 9BB2     		uxth	r3, r3
 603              		.loc 1 268 14 is_stmt 0 view .LVU115
 604 0006 43F00103 		orr	r3, r3, #1
 605 000a 9386     		strh	r3, [r2, #52]	@ movhi
 269:../system/src/gd32f10x/gd32f10x_bkp.c **** }
 606              		.loc 1 269 1 view .LVU116
 607 000c 7047     		bx	lr
 608              	.L54:
 609 000e 00BF     		.align	2
 610              	.L53:
 611 0010 006C0040 		.word	1073769472
 612              		.cfi_endproc
 613              	.LFE71:
 615              		.section	.text.bkp_interrupt_flag_get,"ax",%progbits
 616              		.align	1
 617              		.global	bkp_interrupt_flag_get
 618              		.syntax unified
 619              		.thumb
 620              		.thumb_func
 622              	bkp_interrupt_flag_get:
 623              	.LFB72:
 270:../system/src/gd32f10x/gd32f10x_bkp.c **** 
 271:../system/src/gd32f10x/gd32f10x_bkp.c **** /*!
 272:../system/src/gd32f10x/gd32f10x_bkp.c ****     \brief      get tamper interrupt flag state
 273:../system/src/gd32f10x/gd32f10x_bkp.c ****     \param[in]  none
 274:../system/src/gd32f10x/gd32f10x_bkp.c ****     \param[out] none
 275:../system/src/gd32f10x/gd32f10x_bkp.c ****     \retval     FlagStatus: SET or RESET
 276:../system/src/gd32f10x/gd32f10x_bkp.c **** */
 277:../system/src/gd32f10x/gd32f10x_bkp.c **** FlagStatus bkp_interrupt_flag_get(void)
 278:../system/src/gd32f10x/gd32f10x_bkp.c **** {
 624              		.loc 1 278 1 is_stmt 1 view -0
 625              		.cfi_startproc
 626              		@ args = 0, pretend = 0, frame = 0
 627              		@ frame_needed = 0, uses_anonymous_args = 0
 628              		@ link register save eliminated.
 279:../system/src/gd32f10x/gd32f10x_bkp.c ****     if(RESET != (BKP_TPCS & BKP_INT_FLAG_TAMPER)){
 629              		.loc 1 279 5 view .LVU118
 630              		.loc 1 279 18 is_stmt 0 view .LVU119
 631 0000 044B     		ldr	r3, .L58
 632 0002 9B8E     		ldrh	r3, [r3, #52]
 633              		.loc 1 279 7 view .LVU120
 634 0004 13F4007F 		tst	r3, #512
 635 0008 01D0     		beq	.L57
 280:../system/src/gd32f10x/gd32f10x_bkp.c ****         return SET;
 636              		.loc 1 280 16 view .LVU121
 637 000a 0120     		movs	r0, #1
 638 000c 7047     		bx	lr
 639              	.L57:
 281:../system/src/gd32f10x/gd32f10x_bkp.c ****     }else{
 282:../system/src/gd32f10x/gd32f10x_bkp.c ****         return RESET;
 640              		.loc 1 282 16 view .LVU122
 641 000e 0020     		movs	r0, #0
 283:../system/src/gd32f10x/gd32f10x_bkp.c ****     }
 284:../system/src/gd32f10x/gd32f10x_bkp.c **** }
 642              		.loc 1 284 1 view .LVU123
 643 0010 7047     		bx	lr
 644              	.L59:
 645 0012 00BF     		.align	2
 646              	.L58:
 647 0014 006C0040 		.word	1073769472
 648              		.cfi_endproc
 649              	.LFE72:
 651              		.section	.text.bkp_interrupt_flag_clear,"ax",%progbits
 652              		.align	1
 653              		.global	bkp_interrupt_flag_clear
 654              		.syntax unified
 655              		.thumb
 656              		.thumb_func
 658              	bkp_interrupt_flag_clear:
 659              	.LFB73:
 285:../system/src/gd32f10x/gd32f10x_bkp.c **** 
 286:../system/src/gd32f10x/gd32f10x_bkp.c **** /*!
 287:../system/src/gd32f10x/gd32f10x_bkp.c ****     \brief      clear tamper interrupt flag state
 288:../system/src/gd32f10x/gd32f10x_bkp.c ****     \param[in]  none
 289:../system/src/gd32f10x/gd32f10x_bkp.c ****     \param[out] none
 290:../system/src/gd32f10x/gd32f10x_bkp.c ****     \retval     none
 291:../system/src/gd32f10x/gd32f10x_bkp.c **** */
 292:../system/src/gd32f10x/gd32f10x_bkp.c **** void bkp_interrupt_flag_clear(void)
 293:../system/src/gd32f10x/gd32f10x_bkp.c **** {
 660              		.loc 1 293 1 is_stmt 1 view -0
 661              		.cfi_startproc
 662              		@ args = 0, pretend = 0, frame = 0
 663              		@ frame_needed = 0, uses_anonymous_args = 0
 664              		@ link register save eliminated.
 294:../system/src/gd32f10x/gd32f10x_bkp.c ****     BKP_TPCS |= (uint16_t)(BKP_INT_FLAG_TAMPER >> BKP_TAMPER_BITS_OFFSET);
 665              		.loc 1 294 5 view .LVU125
 666 0000 034A     		ldr	r2, .L61
 667 0002 938E     		ldrh	r3, [r2, #52]
 668 0004 9BB2     		uxth	r3, r3
 669              		.loc 1 294 14 is_stmt 0 view .LVU126
 670 0006 43F00203 		orr	r3, r3, #2
 671 000a 9386     		strh	r3, [r2, #52]	@ movhi
 295:../system/src/gd32f10x/gd32f10x_bkp.c **** }
 672              		.loc 1 295 1 view .LVU127
 673 000c 7047     		bx	lr
 674              	.L62:
 675 000e 00BF     		.align	2
 676              	.L61:
 677 0010 006C0040 		.word	1073769472
 678              		.cfi_endproc
 679              	.LFE73:
 681              		.text
 682              	.Letext0:
 683              		.file 2 "c:\\users\\dmitriy\\appdata\\roaming\\xpacks\\@xpack-dev-tools\\arm-none-eabi-gcc\\12.3.1
 684              		.file 3 "../system/inc/cmsis/gd32f10x.h"
 685              		.file 4 "../system/inc/gd32f10x/gd32f10x_bkp.h"
 686              		.file 5 "../system/inc/gd32f10x/gd32f10x_rcu.h"