   1              		.cpu cortex-m3
   2              		.arch armv7-m
   3              		.fpu softvfp
   4              		.eabi_attribute 20, 1
   5              		.eabi_attribute 21, 1
   6              		.eabi_attribute 23, 3
   7              		.eabi_attribute 24, 1
   8              		.eabi_attribute 25, 1
   9              		.eabi_attribute 26, 1
  10              		.eabi_attribute 30, 1
  11              		.eabi_attribute 34, 1
  12              		.eabi_attribute 18, 4
  13              		.file	"yt_ctrlpkt.c"
  14              		.text
  15              	.Ltext0:
  16              		.cfi_sections	.debug_frame
  17              		.file 1 "../switch_sdk/core/yt/yt_ctrlpkt.c"
  18              		.section	.rodata.yt_ctrlpkt_unknown_ucast_act_set.str1.4,"aMS",%progbits,1
  19              		.align	2
  20              	.LC0:
  21 0000 25732573 		.ascii	"%s%s\015\012\000"
  21      0D0A00
  22              		.section	.text.yt_ctrlpkt_unknown_ucast_act_set,"ax",%progbits
  23              		.align	1
  24              		.global	yt_ctrlpkt_unknown_ucast_act_set
  25              		.syntax unified
  26              		.thumb
  27              		.thumb_func
  29              	yt_ctrlpkt_unknown_ucast_act_set:
  30              	.LVL0:
  31              	.LFB3:
   1:../switch_sdk/core/yt/yt_ctrlpkt.c **** /*******************************************************************************
   2:../switch_sdk/core/yt/yt_ctrlpkt.c **** *                                                                              *
   3:../switch_sdk/core/yt/yt_ctrlpkt.c **** *  Copyright (c), 2022, Motorcomm Electronic Technology Co.,Ltd.               *
   4:../switch_sdk/core/yt/yt_ctrlpkt.c **** *  Motorcomm Confidential and Proprietary.                                     *
   5:../switch_sdk/core/yt/yt_ctrlpkt.c **** *                                                                              *
   6:../switch_sdk/core/yt/yt_ctrlpkt.c **** ********************************************************************************
   7:../switch_sdk/core/yt/yt_ctrlpkt.c **** */
   8:../switch_sdk/core/yt/yt_ctrlpkt.c **** /**
   9:../switch_sdk/core/yt/yt_ctrlpkt.c **** ********************************************************************************
  10:../switch_sdk/core/yt/yt_ctrlpkt.c **** * @file yt_ctrlpkt.c
  11:../switch_sdk/core/yt/yt_ctrlpkt.c **** *
  12:../switch_sdk/core/yt/yt_ctrlpkt.c **** * @brief x
  13:../switch_sdk/core/yt/yt_ctrlpkt.c **** *
  14:../switch_sdk/core/yt/yt_ctrlpkt.c **** ********************************************************************************
  15:../switch_sdk/core/yt/yt_ctrlpkt.c **** */
  16:../switch_sdk/core/yt/yt_ctrlpkt.c **** #include "yt_ctrlpkt.h"
  17:../switch_sdk/core/yt/yt_ctrlpkt.c **** #include "fal_dispatch.h"
  18:../switch_sdk/core/yt/yt_ctrlpkt.c **** 
  19:../switch_sdk/core/yt/yt_ctrlpkt.c **** 
  20:../switch_sdk/core/yt/yt_ctrlpkt.c **** /**
  21:../switch_sdk/core/yt/yt_ctrlpkt.c ****  * @internal      yt_ctrlpkt_unknown_ucast_act_set
  22:../switch_sdk/core/yt/yt_ctrlpkt.c ****  * @endinternal
  23:../switch_sdk/core/yt/yt_ctrlpkt.c ****  *
  24:../switch_sdk/core/yt/yt_ctrlpkt.c ****  * @brief         Description
  25:../switch_sdk/core/yt/yt_ctrlpkt.c ****  * @param[in]     unit                -unit id
  26:../switch_sdk/core/yt/yt_ctrlpkt.c ****  * @param[in]     port                -port num
  27:../switch_sdk/core/yt/yt_ctrlpkt.c ****  * @param[in]     act_ctrl            -l2 packet action,FWD,TRAP,DROP,COPY
  28:../switch_sdk/core/yt/yt_ctrlpkt.c ****  * @retval        CMM_ERR_OK          -on success
  29:../switch_sdk/core/yt/yt_ctrlpkt.c ****  * @retval        CMM_ERR_FAIL        -on fail
  30:../switch_sdk/core/yt/yt_ctrlpkt.c ****  */
  31:../switch_sdk/core/yt/yt_ctrlpkt.c **** yt_ret_t  yt_ctrlpkt_unknown_ucast_act_set(yt_unit_t unit, yt_port_t port, yt_ctrlpkt_l2_action_t a
  32:../switch_sdk/core/yt/yt_ctrlpkt.c **** {
  32              		.loc 1 32 1 view -0
  33              		.cfi_startproc
  34              		@ args = 0, pretend = 0, frame = 0
  35              		@ frame_needed = 0, uses_anonymous_args = 0
  36              		.loc 1 32 1 is_stmt 0 view .LVU1
  37 0000 08B5     		push	{r3, lr}
  38              		.cfi_def_cfa_offset 8
  39              		.cfi_offset 3, -8
  40              		.cfi_offset 14, -4
  33:../switch_sdk/core/yt/yt_ctrlpkt.c ****     CMM_PARAM_CHK((YT_UNIT_NUM <= unit), CMM_ERR_INPUT);
  41              		.loc 1 33 5 is_stmt 1 view .LVU2
  42              		.loc 1 33 5 view .LVU3
  43 0002 C0B9     		cbnz	r0, .L15
  44 0004 8446     		mov	ip, r0
  45              		.loc 1 33 5 discriminator 2 view .LVU4
  34:../switch_sdk/core/yt/yt_ctrlpkt.c ****     CMM_PARAM_CHK(NULL == YT_DISPATCH(unit), CMM_ERR_NOT_INIT);
  46              		.loc 1 34 5 discriminator 2 view .LVU5
  47              		.loc 1 34 5 discriminator 2 view .LVU6
  48 0006 2F4B     		ldr	r3, .L24
  49 0008 53F82030 		ldr	r3, [r3, r0, lsl #2]
  50 000c 0BB3     		cbz	r3, .L16
  51              		.loc 1 34 5 discriminator 2 view .LVU7
  35:../switch_sdk/core/yt/yt_ctrlpkt.c ****     CMM_PARAM_CHK((!(YT_DISPATCH(unit)->is_inited)), CMM_ERR_NOT_INIT);
  52              		.loc 1 35 5 discriminator 2 view .LVU8
  53              		.loc 1 35 5 discriminator 2 view .LVU9
  54 000e 1878     		ldrb	r0, [r3]	@ zero_extendqisi2
  55              	.LVL1:
  56              		.loc 1 35 5 is_stmt 0 discriminator 2 view .LVU10
  57 0010 0028     		cmp	r0, #0
  58 0012 2CD0     		beq	.L17
  59              		.loc 1 35 5 is_stmt 1 discriminator 2 view .LVU11
  36:../switch_sdk/core/yt/yt_ctrlpkt.c ****     CMM_PARAM_CHK((!(CMM_PORT_VALID(unit,port))), CMM_ERR_PORT);
  60              		.loc 1 36 5 discriminator 2 view .LVU12
  61              		.loc 1 36 5 discriminator 2 view .LVU13
  62 0014 2C48     		ldr	r0, .L24+4
  63 0016 0078     		ldrb	r0, [r0]	@ zero_extendqisi2
  64 0018 0028     		cmp	r0, #0
  65 001a 36D0     		beq	.L9
  66 001c 2B48     		ldr	r0, .L24+8
  67 001e 50F82C00 		ldr	r0, [r0, ip, lsl #2]
  68 0022 007D     		ldrb	r0, [r0, #20]	@ zero_extendqisi2
  69 0024 8842     		cmp	r0, r1
  70 0026 30D9     		bls	.L9
  71              		.loc 1 36 5 discriminator 4 view .LVU14
  37:../switch_sdk/core/yt/yt_ctrlpkt.c ****     CMM_PARAM_CHK((L2_ACTION_COPY < act_ctrl || L2_ACTION_FWD > act_ctrl), CMM_ERR_INPUT);
  72              		.loc 1 37 5 discriminator 4 view .LVU15
  73              		.loc 1 37 5 discriminator 4 view .LVU16
  74 0028 032A     		cmp	r2, #3
  75 002a 3CD8     		bhi	.L18
  76              		.loc 1 37 5 discriminator 2 view .LVU17
  38:../switch_sdk/core/yt/yt_ctrlpkt.c **** 
  39:../switch_sdk/core/yt/yt_ctrlpkt.c ****     return YT_DISPATCH(unit)->ctrlpkt_unknown_ucast_act_set(unit, port, act_ctrl);
  77              		.loc 1 39 5 discriminator 2 view .LVU18
  78              		.loc 1 39 29 is_stmt 0 discriminator 2 view .LVU19
  79 002c D3F81836 		ldr	r3, [r3, #1560]
  80              		.loc 1 39 12 discriminator 2 view .LVU20
  81 0030 6046     		mov	r0, ip
  82 0032 9847     		blx	r3
  83              	.LVL2:
  84              	.L1:
  40:../switch_sdk/core/yt/yt_ctrlpkt.c **** }
  85              		.loc 1 40 1 view .LVU21
  86 0034 08BD     		pop	{r3, pc}
  87              	.LVL3:
  88              	.L15:
  33:../switch_sdk/core/yt/yt_ctrlpkt.c ****     CMM_PARAM_CHK(NULL == YT_DISPATCH(unit), CMM_ERR_NOT_INIT);
  89              		.loc 1 33 5 is_stmt 1 discriminator 1 view .LVU22
  33:../switch_sdk/core/yt/yt_ctrlpkt.c ****     CMM_PARAM_CHK(NULL == YT_DISPATCH(unit), CMM_ERR_NOT_INIT);
  90              		.loc 1 33 5 discriminator 1 view .LVU23
  91 0036 264B     		ldr	r3, .L24+12
  92 0038 1B78     		ldrb	r3, [r3]	@ zero_extendqisi2
  93 003a 012B     		cmp	r3, #1
  94 003c 01D8     		bhi	.L19
  95              	.LVL4:
  96              	.L3:
  33:../switch_sdk/core/yt/yt_ctrlpkt.c ****     CMM_PARAM_CHK(NULL == YT_DISPATCH(unit), CMM_ERR_NOT_INIT);
  97              		.loc 1 33 5 discriminator 5 view .LVU24
  33:../switch_sdk/core/yt/yt_ctrlpkt.c ****     CMM_PARAM_CHK(NULL == YT_DISPATCH(unit), CMM_ERR_NOT_INIT);
  98              		.loc 1 33 5 discriminator 5 view .LVU25
  33:../switch_sdk/core/yt/yt_ctrlpkt.c ****     CMM_PARAM_CHK(NULL == YT_DISPATCH(unit), CMM_ERR_NOT_INIT);
  99              		.loc 1 33 5 discriminator 5 view .LVU26
 100 003e 0520     		movs	r0, #5
 101 0040 F8E7     		b	.L1
 102              	.LVL5:
 103              	.L19:
  33:../switch_sdk/core/yt/yt_ctrlpkt.c ****     CMM_PARAM_CHK(NULL == YT_DISPATCH(unit), CMM_ERR_NOT_INIT);
 104              		.loc 1 33 5 discriminator 3 view .LVU27
 105              	.LBB2:
  33:../switch_sdk/core/yt/yt_ctrlpkt.c ****     CMM_PARAM_CHK(NULL == YT_DISPATCH(unit), CMM_ERR_NOT_INIT);
 106              		.loc 1 33 5 discriminator 3 view .LVU28
 107 0042 244B     		ldr	r3, .L24+16
 108 0044 5A69     		ldr	r2, [r3, #20]
 109              	.LVL6:
  33:../switch_sdk/core/yt/yt_ctrlpkt.c ****     CMM_PARAM_CHK(NULL == YT_DISPATCH(unit), CMM_ERR_NOT_INIT);
 110              		.loc 1 33 5 is_stmt 0 discriminator 3 view .LVU29
 111 0046 244B     		ldr	r3, .L24+20
 112 0048 9968     		ldr	r1, [r3, #8]
 113              	.LVL7:
  33:../switch_sdk/core/yt/yt_ctrlpkt.c ****     CMM_PARAM_CHK(NULL == YT_DISPATCH(unit), CMM_ERR_NOT_INIT);
 114              		.loc 1 33 5 discriminator 3 view .LVU30
 115 004a 2448     		ldr	r0, .L24+24
 116              	.LVL8:
  33:../switch_sdk/core/yt/yt_ctrlpkt.c ****     CMM_PARAM_CHK(NULL == YT_DISPATCH(unit), CMM_ERR_NOT_INIT);
 117              		.loc 1 33 5 discriminator 3 view .LVU31
 118 004c FFF7FEFF 		bl	osal_printf
 119              	.LVL9:
 120 0050 F5E7     		b	.L3
 121              	.LVL10:
 122              	.L16:
  33:../switch_sdk/core/yt/yt_ctrlpkt.c ****     CMM_PARAM_CHK(NULL == YT_DISPATCH(unit), CMM_ERR_NOT_INIT);
 123              		.loc 1 33 5 discriminator 3 view .LVU32
 124              	.LBE2:
  34:../switch_sdk/core/yt/yt_ctrlpkt.c ****     CMM_PARAM_CHK((!(YT_DISPATCH(unit)->is_inited)), CMM_ERR_NOT_INIT);
 125              		.loc 1 34 5 is_stmt 1 discriminator 1 view .LVU33
  34:../switch_sdk/core/yt/yt_ctrlpkt.c ****     CMM_PARAM_CHK((!(YT_DISPATCH(unit)->is_inited)), CMM_ERR_NOT_INIT);
 126              		.loc 1 34 5 discriminator 1 view .LVU34
 127 0052 1F4B     		ldr	r3, .L24+12
 128 0054 1B78     		ldrb	r3, [r3]	@ zero_extendqisi2
 129 0056 012B     		cmp	r3, #1
 130 0058 01D8     		bhi	.L20
 131              	.LVL11:
 132              	.L6:
  34:../switch_sdk/core/yt/yt_ctrlpkt.c ****     CMM_PARAM_CHK((!(YT_DISPATCH(unit)->is_inited)), CMM_ERR_NOT_INIT);
 133              		.loc 1 34 5 discriminator 5 view .LVU35
  34:../switch_sdk/core/yt/yt_ctrlpkt.c ****     CMM_PARAM_CHK((!(YT_DISPATCH(unit)->is_inited)), CMM_ERR_NOT_INIT);
 134              		.loc 1 34 5 discriminator 5 view .LVU36
  34:../switch_sdk/core/yt/yt_ctrlpkt.c ****     CMM_PARAM_CHK((!(YT_DISPATCH(unit)->is_inited)), CMM_ERR_NOT_INIT);
 135              		.loc 1 34 5 discriminator 5 view .LVU37
 136 005a 0420     		movs	r0, #4
 137 005c EAE7     		b	.L1
 138              	.LVL12:
 139              	.L20:
  34:../switch_sdk/core/yt/yt_ctrlpkt.c ****     CMM_PARAM_CHK((!(YT_DISPATCH(unit)->is_inited)), CMM_ERR_NOT_INIT);
 140              		.loc 1 34 5 discriminator 3 view .LVU38
 141              	.LBB3:
  34:../switch_sdk/core/yt/yt_ctrlpkt.c ****     CMM_PARAM_CHK((!(YT_DISPATCH(unit)->is_inited)), CMM_ERR_NOT_INIT);
 142              		.loc 1 34 5 discriminator 3 view .LVU39
 143 005e 1D4B     		ldr	r3, .L24+16
 144 0060 1A69     		ldr	r2, [r3, #16]
 145              	.LVL13:
  34:../switch_sdk/core/yt/yt_ctrlpkt.c ****     CMM_PARAM_CHK((!(YT_DISPATCH(unit)->is_inited)), CMM_ERR_NOT_INIT);
 146              		.loc 1 34 5 is_stmt 0 discriminator 3 view .LVU40
 147 0062 1D4B     		ldr	r3, .L24+20
 148 0064 9968     		ldr	r1, [r3, #8]
 149              	.LVL14:
  34:../switch_sdk/core/yt/yt_ctrlpkt.c ****     CMM_PARAM_CHK((!(YT_DISPATCH(unit)->is_inited)), CMM_ERR_NOT_INIT);
 150              		.loc 1 34 5 discriminator 3 view .LVU41
 151 0066 1D48     		ldr	r0, .L24+24
 152              	.LVL15:
  34:../switch_sdk/core/yt/yt_ctrlpkt.c ****     CMM_PARAM_CHK((!(YT_DISPATCH(unit)->is_inited)), CMM_ERR_NOT_INIT);
 153              		.loc 1 34 5 discriminator 3 view .LVU42
 154 0068 FFF7FEFF 		bl	osal_printf
 155              	.LVL16:
 156 006c F5E7     		b	.L6
 157              	.LVL17:
 158              	.L17:
  34:../switch_sdk/core/yt/yt_ctrlpkt.c ****     CMM_PARAM_CHK((!(YT_DISPATCH(unit)->is_inited)), CMM_ERR_NOT_INIT);
 159              		.loc 1 34 5 discriminator 3 view .LVU43
 160              	.LBE3:
  35:../switch_sdk/core/yt/yt_ctrlpkt.c ****     CMM_PARAM_CHK((!(CMM_PORT_VALID(unit,port))), CMM_ERR_PORT);
 161              		.loc 1 35 5 is_stmt 1 discriminator 1 view .LVU44
  35:../switch_sdk/core/yt/yt_ctrlpkt.c ****     CMM_PARAM_CHK((!(CMM_PORT_VALID(unit,port))), CMM_ERR_PORT);
 162              		.loc 1 35 5 discriminator 1 view .LVU45
 163 006e 184B     		ldr	r3, .L24+12
 164 0070 1B78     		ldrb	r3, [r3]	@ zero_extendqisi2
 165 0072 012B     		cmp	r3, #1
 166 0074 01D8     		bhi	.L21
 167              	.LVL18:
 168              	.L8:
  35:../switch_sdk/core/yt/yt_ctrlpkt.c ****     CMM_PARAM_CHK((!(CMM_PORT_VALID(unit,port))), CMM_ERR_PORT);
 169              		.loc 1 35 5 discriminator 5 view .LVU46
  35:../switch_sdk/core/yt/yt_ctrlpkt.c ****     CMM_PARAM_CHK((!(CMM_PORT_VALID(unit,port))), CMM_ERR_PORT);
 170              		.loc 1 35 5 discriminator 5 view .LVU47
  35:../switch_sdk/core/yt/yt_ctrlpkt.c ****     CMM_PARAM_CHK((!(CMM_PORT_VALID(unit,port))), CMM_ERR_PORT);
 171              		.loc 1 35 5 discriminator 5 view .LVU48
 172 0076 0420     		movs	r0, #4
 173 0078 DCE7     		b	.L1
 174              	.LVL19:
 175              	.L21:
  35:../switch_sdk/core/yt/yt_ctrlpkt.c ****     CMM_PARAM_CHK((!(CMM_PORT_VALID(unit,port))), CMM_ERR_PORT);
 176              		.loc 1 35 5 discriminator 3 view .LVU49
 177              	.LBB4:
  35:../switch_sdk/core/yt/yt_ctrlpkt.c ****     CMM_PARAM_CHK((!(CMM_PORT_VALID(unit,port))), CMM_ERR_PORT);
 178              		.loc 1 35 5 discriminator 3 view .LVU50
 179 007a 164B     		ldr	r3, .L24+16
 180 007c 1A69     		ldr	r2, [r3, #16]
 181              	.LVL20:
  35:../switch_sdk/core/yt/yt_ctrlpkt.c ****     CMM_PARAM_CHK((!(CMM_PORT_VALID(unit,port))), CMM_ERR_PORT);
 182              		.loc 1 35 5 is_stmt 0 discriminator 3 view .LVU51
 183 007e 164B     		ldr	r3, .L24+20
 184 0080 9968     		ldr	r1, [r3, #8]
 185              	.LVL21:
  35:../switch_sdk/core/yt/yt_ctrlpkt.c ****     CMM_PARAM_CHK((!(CMM_PORT_VALID(unit,port))), CMM_ERR_PORT);
 186              		.loc 1 35 5 discriminator 3 view .LVU52
 187 0082 1648     		ldr	r0, .L24+24
 188 0084 FFF7FEFF 		bl	osal_printf
 189              	.LVL22:
 190 0088 F5E7     		b	.L8
 191              	.LVL23:
 192              	.L9:
  35:../switch_sdk/core/yt/yt_ctrlpkt.c ****     CMM_PARAM_CHK((!(CMM_PORT_VALID(unit,port))), CMM_ERR_PORT);
 193              		.loc 1 35 5 discriminator 3 view .LVU53
 194              	.LBE4:
  36:../switch_sdk/core/yt/yt_ctrlpkt.c ****     CMM_PARAM_CHK((L2_ACTION_COPY < act_ctrl || L2_ACTION_FWD > act_ctrl), CMM_ERR_INPUT);
 195              		.loc 1 36 5 is_stmt 1 discriminator 3 view .LVU54
  36:../switch_sdk/core/yt/yt_ctrlpkt.c ****     CMM_PARAM_CHK((L2_ACTION_COPY < act_ctrl || L2_ACTION_FWD > act_ctrl), CMM_ERR_INPUT);
 196              		.loc 1 36 5 discriminator 3 view .LVU55
 197 008a 114B     		ldr	r3, .L24+12
 198 008c 1B78     		ldrb	r3, [r3]	@ zero_extendqisi2
 199 008e 012B     		cmp	r3, #1
 200 0090 01D8     		bhi	.L22
 201              	.LVL24:
 202              	.L11:
  36:../switch_sdk/core/yt/yt_ctrlpkt.c ****     CMM_PARAM_CHK((L2_ACTION_COPY < act_ctrl || L2_ACTION_FWD > act_ctrl), CMM_ERR_INPUT);
 203              		.loc 1 36 5 discriminator 7 view .LVU56
  36:../switch_sdk/core/yt/yt_ctrlpkt.c ****     CMM_PARAM_CHK((L2_ACTION_COPY < act_ctrl || L2_ACTION_FWD > act_ctrl), CMM_ERR_INPUT);
 204              		.loc 1 36 5 discriminator 7 view .LVU57
  36:../switch_sdk/core/yt/yt_ctrlpkt.c ****     CMM_PARAM_CHK((L2_ACTION_COPY < act_ctrl || L2_ACTION_FWD > act_ctrl), CMM_ERR_INPUT);
 205              		.loc 1 36 5 discriminator 7 view .LVU58
 206 0092 0E20     		movs	r0, #14
 207 0094 CEE7     		b	.L1
 208              	.LVL25:
 209              	.L22:
  36:../switch_sdk/core/yt/yt_ctrlpkt.c ****     CMM_PARAM_CHK((L2_ACTION_COPY < act_ctrl || L2_ACTION_FWD > act_ctrl), CMM_ERR_INPUT);
 210              		.loc 1 36 5 discriminator 5 view .LVU59
 211              	.LBB5:
  36:../switch_sdk/core/yt/yt_ctrlpkt.c ****     CMM_PARAM_CHK((L2_ACTION_COPY < act_ctrl || L2_ACTION_FWD > act_ctrl), CMM_ERR_INPUT);
 212              		.loc 1 36 5 discriminator 5 view .LVU60
 213 0096 0F4B     		ldr	r3, .L24+16
 214 0098 9A6B     		ldr	r2, [r3, #56]
 215              	.LVL26:
  36:../switch_sdk/core/yt/yt_ctrlpkt.c ****     CMM_PARAM_CHK((L2_ACTION_COPY < act_ctrl || L2_ACTION_FWD > act_ctrl), CMM_ERR_INPUT);
 216              		.loc 1 36 5 is_stmt 0 discriminator 5 view .LVU61
 217 009a 0F4B     		ldr	r3, .L24+20
 218 009c 9968     		ldr	r1, [r3, #8]
 219              	.LVL27:
  36:../switch_sdk/core/yt/yt_ctrlpkt.c ****     CMM_PARAM_CHK((L2_ACTION_COPY < act_ctrl || L2_ACTION_FWD > act_ctrl), CMM_ERR_INPUT);
 220              		.loc 1 36 5 discriminator 5 view .LVU62
 221 009e 0F48     		ldr	r0, .L24+24
 222 00a0 FFF7FEFF 		bl	osal_printf
 223              	.LVL28:
 224 00a4 F5E7     		b	.L11
 225              	.LVL29:
 226              	.L18:
  36:../switch_sdk/core/yt/yt_ctrlpkt.c ****     CMM_PARAM_CHK((L2_ACTION_COPY < act_ctrl || L2_ACTION_FWD > act_ctrl), CMM_ERR_INPUT);
 227              		.loc 1 36 5 discriminator 5 view .LVU63
 228              	.LBE5:
  37:../switch_sdk/core/yt/yt_ctrlpkt.c **** 
 229              		.loc 1 37 5 is_stmt 1 discriminator 1 view .LVU64
  37:../switch_sdk/core/yt/yt_ctrlpkt.c **** 
 230              		.loc 1 37 5 discriminator 1 view .LVU65
 231 00a6 0A4B     		ldr	r3, .L24+12
 232 00a8 1B78     		ldrb	r3, [r3]	@ zero_extendqisi2
 233 00aa 012B     		cmp	r3, #1
 234 00ac 01D8     		bhi	.L23
 235              	.LVL30:
 236              	.L13:
  37:../switch_sdk/core/yt/yt_ctrlpkt.c **** 
 237              		.loc 1 37 5 discriminator 5 view .LVU66
  37:../switch_sdk/core/yt/yt_ctrlpkt.c **** 
 238              		.loc 1 37 5 discriminator 5 view .LVU67
  37:../switch_sdk/core/yt/yt_ctrlpkt.c **** 
 239              		.loc 1 37 5 discriminator 5 view .LVU68
 240 00ae 0520     		movs	r0, #5
 241 00b0 C0E7     		b	.L1
 242              	.LVL31:
 243              	.L23:
  37:../switch_sdk/core/yt/yt_ctrlpkt.c **** 
 244              		.loc 1 37 5 discriminator 3 view .LVU69
 245              	.LBB6:
  37:../switch_sdk/core/yt/yt_ctrlpkt.c **** 
 246              		.loc 1 37 5 discriminator 3 view .LVU70
 247 00b2 084B     		ldr	r3, .L24+16
 248 00b4 5A69     		ldr	r2, [r3, #20]
 249              	.LVL32:
  37:../switch_sdk/core/yt/yt_ctrlpkt.c **** 
 250              		.loc 1 37 5 is_stmt 0 discriminator 3 view .LVU71
 251 00b6 084B     		ldr	r3, .L24+20
 252 00b8 9968     		ldr	r1, [r3, #8]
 253              	.LVL33:
  37:../switch_sdk/core/yt/yt_ctrlpkt.c **** 
 254              		.loc 1 37 5 discriminator 3 view .LVU72
 255 00ba 0848     		ldr	r0, .L24+24
 256 00bc FFF7FEFF 		bl	osal_printf
 257              	.LVL34:
 258 00c0 F5E7     		b	.L13
 259              	.L25:
 260 00c2 00BF     		.align	2
 261              	.L24:
 262 00c4 00000000 		.word	gpfal_dispatch
 263 00c8 00000000 		.word	gcal_inited
 264 00cc 00000000 		.word	gpSwitchUnit
 265 00d0 00000000 		.word	yt_debug_level
 266 00d4 00000000 		.word	_yt_errmsg
 267 00d8 00000000 		.word	_yt_prompt_msg
 268 00dc 00000000 		.word	.LC0
 269              	.LBE6:
 270              		.cfi_endproc
 271              	.LFE3:
 273              		.section	.text.yt_ctrlpkt_unknown_ucast_act_get,"ax",%progbits
 274              		.align	1
 275              		.global	yt_ctrlpkt_unknown_ucast_act_get
 276              		.syntax unified
 277              		.thumb
 278              		.thumb_func
 280              	yt_ctrlpkt_unknown_ucast_act_get:
 281              	.LVL35:
 282              	.LFB4:
  41:../switch_sdk/core/yt/yt_ctrlpkt.c **** 
  42:../switch_sdk/core/yt/yt_ctrlpkt.c **** /**
  43:../switch_sdk/core/yt/yt_ctrlpkt.c ****  * @internal      yt_ctrlpkt_unknown_ucast_act_get
  44:../switch_sdk/core/yt/yt_ctrlpkt.c ****  * @endinternal
  45:../switch_sdk/core/yt/yt_ctrlpkt.c ****  *
  46:../switch_sdk/core/yt/yt_ctrlpkt.c ****  * @brief         Description
  47:../switch_sdk/core/yt/yt_ctrlpkt.c ****  * @param[in]     unit                -unit id
  48:../switch_sdk/core/yt/yt_ctrlpkt.c ****  * @param[in]     port                -port num
  49:../switch_sdk/core/yt/yt_ctrlpkt.c ****  * @param[out]    pAct_ctrl           -l2 packet action,FWD,TRAP,DROP,COPY
  50:../switch_sdk/core/yt/yt_ctrlpkt.c ****  * @retval        CMM_ERR_OK          -on success
  51:../switch_sdk/core/yt/yt_ctrlpkt.c ****  * @retval        CMM_ERR_FAIL        -on fail
  52:../switch_sdk/core/yt/yt_ctrlpkt.c ****  */
  53:../switch_sdk/core/yt/yt_ctrlpkt.c **** yt_ret_t  yt_ctrlpkt_unknown_ucast_act_get(yt_unit_t unit, yt_port_t port, yt_ctrlpkt_l2_action_t *
  54:../switch_sdk/core/yt/yt_ctrlpkt.c **** {
 283              		.loc 1 54 1 is_stmt 1 view -0
 284              		.cfi_startproc
 285              		@ args = 0, pretend = 0, frame = 0
 286              		@ frame_needed = 0, uses_anonymous_args = 0
 287              		.loc 1 54 1 is_stmt 0 view .LVU74
 288 0000 08B5     		push	{r3, lr}
 289              		.cfi_def_cfa_offset 8
 290              		.cfi_offset 3, -8
 291              		.cfi_offset 14, -4
  55:../switch_sdk/core/yt/yt_ctrlpkt.c ****     CMM_PARAM_CHK((YT_UNIT_NUM <= unit), CMM_ERR_INPUT);
 292              		.loc 1 55 5 is_stmt 1 view .LVU75
 293              		.loc 1 55 5 view .LVU76
 294 0002 C0B9     		cbnz	r0, .L40
 295 0004 8446     		mov	ip, r0
 296              		.loc 1 55 5 discriminator 2 view .LVU77
  56:../switch_sdk/core/yt/yt_ctrlpkt.c ****     CMM_PARAM_CHK(NULL == YT_DISPATCH(unit), CMM_ERR_NOT_INIT);
 297              		.loc 1 56 5 discriminator 2 view .LVU78
 298              		.loc 1 56 5 discriminator 2 view .LVU79
 299 0006 2F4B     		ldr	r3, .L49
 300 0008 53F82030 		ldr	r3, [r3, r0, lsl #2]
 301 000c 0BB3     		cbz	r3, .L41
 302              		.loc 1 56 5 discriminator 2 view .LVU80
  57:../switch_sdk/core/yt/yt_ctrlpkt.c ****     CMM_PARAM_CHK((!(YT_DISPATCH(unit)->is_inited)), CMM_ERR_NOT_INIT);
 303              		.loc 1 57 5 discriminator 2 view .LVU81
 304              		.loc 1 57 5 discriminator 2 view .LVU82
 305 000e 1878     		ldrb	r0, [r3]	@ zero_extendqisi2
 306              	.LVL36:
 307              		.loc 1 57 5 is_stmt 0 discriminator 2 view .LVU83
 308 0010 0028     		cmp	r0, #0
 309 0012 2CD0     		beq	.L42
 310              		.loc 1 57 5 is_stmt 1 discriminator 2 view .LVU84
  58:../switch_sdk/core/yt/yt_ctrlpkt.c ****     CMM_PARAM_CHK((!(CMM_PORT_VALID(unit,port))), CMM_ERR_PORT);
 311              		.loc 1 58 5 discriminator 2 view .LVU85
 312              		.loc 1 58 5 discriminator 2 view .LVU86
 313 0014 2C48     		ldr	r0, .L49+4
 314 0016 0078     		ldrb	r0, [r0]	@ zero_extendqisi2
 315 0018 0028     		cmp	r0, #0
 316 001a 36D0     		beq	.L34
 317 001c 2B48     		ldr	r0, .L49+8
 318 001e 50F82C00 		ldr	r0, [r0, ip, lsl #2]
 319 0022 007D     		ldrb	r0, [r0, #20]	@ zero_extendqisi2
 320 0024 8842     		cmp	r0, r1
 321 0026 30D9     		bls	.L34
 322              		.loc 1 58 5 discriminator 4 view .LVU87
  59:../switch_sdk/core/yt/yt_ctrlpkt.c ****     CMM_PARAM_CHK((NULL == pAct_ctrl), CMM_ERR_NULL_POINT);
 323              		.loc 1 59 5 discriminator 4 view .LVU88
 324              		.loc 1 59 5 discriminator 4 view .LVU89
 325 0028 002A     		cmp	r2, #0
 326 002a 3CD0     		beq	.L43
 327              		.loc 1 59 5 discriminator 2 view .LVU90
  60:../switch_sdk/core/yt/yt_ctrlpkt.c **** 
  61:../switch_sdk/core/yt/yt_ctrlpkt.c ****     return YT_DISPATCH(unit)->ctrlpkt_unknown_ucast_act_get(unit, port, pAct_ctrl);
 328              		.loc 1 61 5 discriminator 2 view .LVU91
 329              		.loc 1 61 29 is_stmt 0 discriminator 2 view .LVU92
 330 002c D3F81C36 		ldr	r3, [r3, #1564]
 331              		.loc 1 61 12 discriminator 2 view .LVU93
 332 0030 6046     		mov	r0, ip
 333 0032 9847     		blx	r3
 334              	.LVL37:
 335              	.L26:
  62:../switch_sdk/core/yt/yt_ctrlpkt.c **** }
 336              		.loc 1 62 1 view .LVU94
 337 0034 08BD     		pop	{r3, pc}
 338              	.LVL38:
 339              	.L40:
  55:../switch_sdk/core/yt/yt_ctrlpkt.c ****     CMM_PARAM_CHK(NULL == YT_DISPATCH(unit), CMM_ERR_NOT_INIT);
 340              		.loc 1 55 5 is_stmt 1 discriminator 1 view .LVU95
  55:../switch_sdk/core/yt/yt_ctrlpkt.c ****     CMM_PARAM_CHK(NULL == YT_DISPATCH(unit), CMM_ERR_NOT_INIT);
 341              		.loc 1 55 5 discriminator 1 view .LVU96
 342 0036 264B     		ldr	r3, .L49+12
 343 0038 1B78     		ldrb	r3, [r3]	@ zero_extendqisi2
 344 003a 012B     		cmp	r3, #1
 345 003c 01D8     		bhi	.L44
 346              	.LVL39:
 347              	.L28:
  55:../switch_sdk/core/yt/yt_ctrlpkt.c ****     CMM_PARAM_CHK(NULL == YT_DISPATCH(unit), CMM_ERR_NOT_INIT);
 348              		.loc 1 55 5 discriminator 5 view .LVU97
  55:../switch_sdk/core/yt/yt_ctrlpkt.c ****     CMM_PARAM_CHK(NULL == YT_DISPATCH(unit), CMM_ERR_NOT_INIT);
 349              		.loc 1 55 5 discriminator 5 view .LVU98
  55:../switch_sdk/core/yt/yt_ctrlpkt.c ****     CMM_PARAM_CHK(NULL == YT_DISPATCH(unit), CMM_ERR_NOT_INIT);
 350              		.loc 1 55 5 discriminator 5 view .LVU99
 351 003e 0520     		movs	r0, #5
 352 0040 F8E7     		b	.L26
 353              	.LVL40:
 354              	.L44:
  55:../switch_sdk/core/yt/yt_ctrlpkt.c ****     CMM_PARAM_CHK(NULL == YT_DISPATCH(unit), CMM_ERR_NOT_INIT);
 355              		.loc 1 55 5 discriminator 3 view .LVU100
 356              	.LBB7:
  55:../switch_sdk/core/yt/yt_ctrlpkt.c ****     CMM_PARAM_CHK(NULL == YT_DISPATCH(unit), CMM_ERR_NOT_INIT);
 357              		.loc 1 55 5 discriminator 3 view .LVU101
 358 0042 244B     		ldr	r3, .L49+16
 359 0044 5A69     		ldr	r2, [r3, #20]
 360              	.LVL41:
  55:../switch_sdk/core/yt/yt_ctrlpkt.c ****     CMM_PARAM_CHK(NULL == YT_DISPATCH(unit), CMM_ERR_NOT_INIT);
 361              		.loc 1 55 5 is_stmt 0 discriminator 3 view .LVU102
 362 0046 244B     		ldr	r3, .L49+20
 363 0048 9968     		ldr	r1, [r3, #8]
 364              	.LVL42:
  55:../switch_sdk/core/yt/yt_ctrlpkt.c ****     CMM_PARAM_CHK(NULL == YT_DISPATCH(unit), CMM_ERR_NOT_INIT);
 365              		.loc 1 55 5 discriminator 3 view .LVU103
 366 004a 2448     		ldr	r0, .L49+24
 367              	.LVL43:
  55:../switch_sdk/core/yt/yt_ctrlpkt.c ****     CMM_PARAM_CHK(NULL == YT_DISPATCH(unit), CMM_ERR_NOT_INIT);
 368              		.loc 1 55 5 discriminator 3 view .LVU104
 369 004c FFF7FEFF 		bl	osal_printf
 370              	.LVL44:
 371 0050 F5E7     		b	.L28
 372              	.LVL45:
 373              	.L41:
  55:../switch_sdk/core/yt/yt_ctrlpkt.c ****     CMM_PARAM_CHK(NULL == YT_DISPATCH(unit), CMM_ERR_NOT_INIT);
 374              		.loc 1 55 5 discriminator 3 view .LVU105
 375              	.LBE7:
  56:../switch_sdk/core/yt/yt_ctrlpkt.c ****     CMM_PARAM_CHK((!(YT_DISPATCH(unit)->is_inited)), CMM_ERR_NOT_INIT);
 376              		.loc 1 56 5 is_stmt 1 discriminator 1 view .LVU106
  56:../switch_sdk/core/yt/yt_ctrlpkt.c ****     CMM_PARAM_CHK((!(YT_DISPATCH(unit)->is_inited)), CMM_ERR_NOT_INIT);
 377              		.loc 1 56 5 discriminator 1 view .LVU107
 378 0052 1F4B     		ldr	r3, .L49+12
 379 0054 1B78     		ldrb	r3, [r3]	@ zero_extendqisi2
 380 0056 012B     		cmp	r3, #1
 381 0058 01D8     		bhi	.L45
 382              	.LVL46:
 383              	.L31:
  56:../switch_sdk/core/yt/yt_ctrlpkt.c ****     CMM_PARAM_CHK((!(YT_DISPATCH(unit)->is_inited)), CMM_ERR_NOT_INIT);
 384              		.loc 1 56 5 discriminator 5 view .LVU108
  56:../switch_sdk/core/yt/yt_ctrlpkt.c ****     CMM_PARAM_CHK((!(YT_DISPATCH(unit)->is_inited)), CMM_ERR_NOT_INIT);
 385              		.loc 1 56 5 discriminator 5 view .LVU109
  56:../switch_sdk/core/yt/yt_ctrlpkt.c ****     CMM_PARAM_CHK((!(YT_DISPATCH(unit)->is_inited)), CMM_ERR_NOT_INIT);
 386              		.loc 1 56 5 discriminator 5 view .LVU110
 387 005a 0420     		movs	r0, #4
 388 005c EAE7     		b	.L26
 389              	.LVL47:
 390              	.L45:
  56:../switch_sdk/core/yt/yt_ctrlpkt.c ****     CMM_PARAM_CHK((!(YT_DISPATCH(unit)->is_inited)), CMM_ERR_NOT_INIT);
 391              		.loc 1 56 5 discriminator 3 view .LVU111
 392              	.LBB8:
  56:../switch_sdk/core/yt/yt_ctrlpkt.c ****     CMM_PARAM_CHK((!(YT_DISPATCH(unit)->is_inited)), CMM_ERR_NOT_INIT);
 393              		.loc 1 56 5 discriminator 3 view .LVU112
 394 005e 1D4B     		ldr	r3, .L49+16
 395 0060 1A69     		ldr	r2, [r3, #16]
 396              	.LVL48:
  56:../switch_sdk/core/yt/yt_ctrlpkt.c ****     CMM_PARAM_CHK((!(YT_DISPATCH(unit)->is_inited)), CMM_ERR_NOT_INIT);
 397              		.loc 1 56 5 is_stmt 0 discriminator 3 view .LVU113
 398 0062 1D4B     		ldr	r3, .L49+20
 399 0064 9968     		ldr	r1, [r3, #8]
 400              	.LVL49:
  56:../switch_sdk/core/yt/yt_ctrlpkt.c ****     CMM_PARAM_CHK((!(YT_DISPATCH(unit)->is_inited)), CMM_ERR_NOT_INIT);
 401              		.loc 1 56 5 discriminator 3 view .LVU114
 402 0066 1D48     		ldr	r0, .L49+24
 403              	.LVL50:
  56:../switch_sdk/core/yt/yt_ctrlpkt.c ****     CMM_PARAM_CHK((!(YT_DISPATCH(unit)->is_inited)), CMM_ERR_NOT_INIT);
 404              		.loc 1 56 5 discriminator 3 view .LVU115
 405 0068 FFF7FEFF 		bl	osal_printf
 406              	.LVL51:
 407 006c F5E7     		b	.L31
 408              	.LVL52:
 409              	.L42:
  56:../switch_sdk/core/yt/yt_ctrlpkt.c ****     CMM_PARAM_CHK((!(YT_DISPATCH(unit)->is_inited)), CMM_ERR_NOT_INIT);
 410              		.loc 1 56 5 discriminator 3 view .LVU116
 411              	.LBE8:
  57:../switch_sdk/core/yt/yt_ctrlpkt.c ****     CMM_PARAM_CHK((!(CMM_PORT_VALID(unit,port))), CMM_ERR_PORT);
 412              		.loc 1 57 5 is_stmt 1 discriminator 1 view .LVU117
  57:../switch_sdk/core/yt/yt_ctrlpkt.c ****     CMM_PARAM_CHK((!(CMM_PORT_VALID(unit,port))), CMM_ERR_PORT);
 413              		.loc 1 57 5 discriminator 1 view .LVU118
 414 006e 184B     		ldr	r3, .L49+12
 415 0070 1B78     		ldrb	r3, [r3]	@ zero_extendqisi2
 416 0072 012B     		cmp	r3, #1
 417 0074 01D8     		bhi	.L46
 418              	.LVL53:
 419              	.L33:
  57:../switch_sdk/core/yt/yt_ctrlpkt.c ****     CMM_PARAM_CHK((!(CMM_PORT_VALID(unit,port))), CMM_ERR_PORT);
 420              		.loc 1 57 5 discriminator 5 view .LVU119
  57:../switch_sdk/core/yt/yt_ctrlpkt.c ****     CMM_PARAM_CHK((!(CMM_PORT_VALID(unit,port))), CMM_ERR_PORT);
 421              		.loc 1 57 5 discriminator 5 view .LVU120
  57:../switch_sdk/core/yt/yt_ctrlpkt.c ****     CMM_PARAM_CHK((!(CMM_PORT_VALID(unit,port))), CMM_ERR_PORT);
 422              		.loc 1 57 5 discriminator 5 view .LVU121
 423 0076 0420     		movs	r0, #4
 424 0078 DCE7     		b	.L26
 425              	.LVL54:
 426              	.L46:
  57:../switch_sdk/core/yt/yt_ctrlpkt.c ****     CMM_PARAM_CHK((!(CMM_PORT_VALID(unit,port))), CMM_ERR_PORT);
 427              		.loc 1 57 5 discriminator 3 view .LVU122
 428              	.LBB9:
  57:../switch_sdk/core/yt/yt_ctrlpkt.c ****     CMM_PARAM_CHK((!(CMM_PORT_VALID(unit,port))), CMM_ERR_PORT);
 429              		.loc 1 57 5 discriminator 3 view .LVU123
 430 007a 164B     		ldr	r3, .L49+16
 431 007c 1A69     		ldr	r2, [r3, #16]
 432              	.LVL55:
  57:../switch_sdk/core/yt/yt_ctrlpkt.c ****     CMM_PARAM_CHK((!(CMM_PORT_VALID(unit,port))), CMM_ERR_PORT);
 433              		.loc 1 57 5 is_stmt 0 discriminator 3 view .LVU124
 434 007e 164B     		ldr	r3, .L49+20
 435 0080 9968     		ldr	r1, [r3, #8]
 436              	.LVL56:
  57:../switch_sdk/core/yt/yt_ctrlpkt.c ****     CMM_PARAM_CHK((!(CMM_PORT_VALID(unit,port))), CMM_ERR_PORT);
 437              		.loc 1 57 5 discriminator 3 view .LVU125
 438 0082 1648     		ldr	r0, .L49+24
 439 0084 FFF7FEFF 		bl	osal_printf
 440              	.LVL57:
 441 0088 F5E7     		b	.L33
 442              	.LVL58:
 443              	.L34:
  57:../switch_sdk/core/yt/yt_ctrlpkt.c ****     CMM_PARAM_CHK((!(CMM_PORT_VALID(unit,port))), CMM_ERR_PORT);
 444              		.loc 1 57 5 discriminator 3 view .LVU126
 445              	.LBE9:
  58:../switch_sdk/core/yt/yt_ctrlpkt.c ****     CMM_PARAM_CHK((NULL == pAct_ctrl), CMM_ERR_NULL_POINT);
 446              		.loc 1 58 5 is_stmt 1 discriminator 3 view .LVU127
  58:../switch_sdk/core/yt/yt_ctrlpkt.c ****     CMM_PARAM_CHK((NULL == pAct_ctrl), CMM_ERR_NULL_POINT);
 447              		.loc 1 58 5 discriminator 3 view .LVU128
 448 008a 114B     		ldr	r3, .L49+12
 449 008c 1B78     		ldrb	r3, [r3]	@ zero_extendqisi2
 450 008e 012B     		cmp	r3, #1
 451 0090 01D8     		bhi	.L47
 452              	.LVL59:
 453              	.L36:
  58:../switch_sdk/core/yt/yt_ctrlpkt.c ****     CMM_PARAM_CHK((NULL == pAct_ctrl), CMM_ERR_NULL_POINT);
 454              		.loc 1 58 5 discriminator 7 view .LVU129
  58:../switch_sdk/core/yt/yt_ctrlpkt.c ****     CMM_PARAM_CHK((NULL == pAct_ctrl), CMM_ERR_NULL_POINT);
 455              		.loc 1 58 5 discriminator 7 view .LVU130
  58:../switch_sdk/core/yt/yt_ctrlpkt.c ****     CMM_PARAM_CHK((NULL == pAct_ctrl), CMM_ERR_NULL_POINT);
 456              		.loc 1 58 5 discriminator 7 view .LVU131
 457 0092 0E20     		movs	r0, #14
 458 0094 CEE7     		b	.L26
 459              	.LVL60:
 460              	.L47:
  58:../switch_sdk/core/yt/yt_ctrlpkt.c ****     CMM_PARAM_CHK((NULL == pAct_ctrl), CMM_ERR_NULL_POINT);
 461              		.loc 1 58 5 discriminator 5 view .LVU132
 462              	.LBB10:
  58:../switch_sdk/core/yt/yt_ctrlpkt.c ****     CMM_PARAM_CHK((NULL == pAct_ctrl), CMM_ERR_NULL_POINT);
 463              		.loc 1 58 5 discriminator 5 view .LVU133
 464 0096 0F4B     		ldr	r3, .L49+16
 465 0098 9A6B     		ldr	r2, [r3, #56]
 466              	.LVL61:
  58:../switch_sdk/core/yt/yt_ctrlpkt.c ****     CMM_PARAM_CHK((NULL == pAct_ctrl), CMM_ERR_NULL_POINT);
 467              		.loc 1 58 5 is_stmt 0 discriminator 5 view .LVU134
 468 009a 0F4B     		ldr	r3, .L49+20
 469 009c 9968     		ldr	r1, [r3, #8]
 470              	.LVL62:
  58:../switch_sdk/core/yt/yt_ctrlpkt.c ****     CMM_PARAM_CHK((NULL == pAct_ctrl), CMM_ERR_NULL_POINT);
 471              		.loc 1 58 5 discriminator 5 view .LVU135
 472 009e 0F48     		ldr	r0, .L49+24
 473 00a0 FFF7FEFF 		bl	osal_printf
 474              	.LVL63:
 475 00a4 F5E7     		b	.L36
 476              	.LVL64:
 477              	.L43:
  58:../switch_sdk/core/yt/yt_ctrlpkt.c ****     CMM_PARAM_CHK((NULL == pAct_ctrl), CMM_ERR_NULL_POINT);
 478              		.loc 1 58 5 discriminator 5 view .LVU136
 479              	.LBE10:
  59:../switch_sdk/core/yt/yt_ctrlpkt.c **** 
 480              		.loc 1 59 5 is_stmt 1 discriminator 1 view .LVU137
  59:../switch_sdk/core/yt/yt_ctrlpkt.c **** 
 481              		.loc 1 59 5 discriminator 1 view .LVU138
 482 00a6 0A4B     		ldr	r3, .L49+12
 483 00a8 1B78     		ldrb	r3, [r3]	@ zero_extendqisi2
 484 00aa 012B     		cmp	r3, #1
 485 00ac 01D8     		bhi	.L48
 486              	.LVL65:
 487              	.L38:
  59:../switch_sdk/core/yt/yt_ctrlpkt.c **** 
 488              		.loc 1 59 5 discriminator 5 view .LVU139
  59:../switch_sdk/core/yt/yt_ctrlpkt.c **** 
 489              		.loc 1 59 5 discriminator 5 view .LVU140
  59:../switch_sdk/core/yt/yt_ctrlpkt.c **** 
 490              		.loc 1 59 5 discriminator 5 view .LVU141
 491 00ae 0220     		movs	r0, #2
 492 00b0 C0E7     		b	.L26
 493              	.LVL66:
 494              	.L48:
  59:../switch_sdk/core/yt/yt_ctrlpkt.c **** 
 495              		.loc 1 59 5 discriminator 3 view .LVU142
 496              	.LBB11:
  59:../switch_sdk/core/yt/yt_ctrlpkt.c **** 
 497              		.loc 1 59 5 discriminator 3 view .LVU143
 498 00b2 084B     		ldr	r3, .L49+16
 499 00b4 9A68     		ldr	r2, [r3, #8]
 500              	.LVL67:
  59:../switch_sdk/core/yt/yt_ctrlpkt.c **** 
 501              		.loc 1 59 5 is_stmt 0 discriminator 3 view .LVU144
 502 00b6 084B     		ldr	r3, .L49+20
 503 00b8 9968     		ldr	r1, [r3, #8]
 504              	.LVL68:
  59:../switch_sdk/core/yt/yt_ctrlpkt.c **** 
 505              		.loc 1 59 5 discriminator 3 view .LVU145
 506 00ba 0848     		ldr	r0, .L49+24
 507 00bc FFF7FEFF 		bl	osal_printf
 508              	.LVL69:
 509 00c0 F5E7     		b	.L38
 510              	.L50:
 511 00c2 00BF     		.align	2
 512              	.L49:
 513 00c4 00000000 		.word	gpfal_dispatch
 514 00c8 00000000 		.word	gcal_inited
 515 00cc 00000000 		.word	gpSwitchUnit
 516 00d0 00000000 		.word	yt_debug_level
 517 00d4 00000000 		.word	_yt_errmsg
 518 00d8 00000000 		.word	_yt_prompt_msg
 519 00dc 00000000 		.word	.LC0
 520              	.LBE11:
 521              		.cfi_endproc
 522              	.LFE4:
 524              		.section	.text.yt_ctrlpkt_unknown_mcast_act_set,"ax",%progbits
 525              		.align	1
 526              		.global	yt_ctrlpkt_unknown_mcast_act_set
 527              		.syntax unified
 528              		.thumb
 529              		.thumb_func
 531              	yt_ctrlpkt_unknown_mcast_act_set:
 532              	.LVL70:
 533              	.LFB5:
  63:../switch_sdk/core/yt/yt_ctrlpkt.c **** 
  64:../switch_sdk/core/yt/yt_ctrlpkt.c **** /**
  65:../switch_sdk/core/yt/yt_ctrlpkt.c ****  * @internal      yt_ctrlpkt_unknown_mcast_act_set
  66:../switch_sdk/core/yt/yt_ctrlpkt.c ****  * @endinternal
  67:../switch_sdk/core/yt/yt_ctrlpkt.c ****  *
  68:../switch_sdk/core/yt/yt_ctrlpkt.c ****  * @brief         Description
  69:../switch_sdk/core/yt/yt_ctrlpkt.c ****  * @param[in]     unit                -unit id
  70:../switch_sdk/core/yt/yt_ctrlpkt.c ****  * @param[in]     port                -port num
  71:../switch_sdk/core/yt/yt_ctrlpkt.c ****  * @param[in]     act_ctrl            -l2 packet action,FWD,TRAP,DROP,COPY
  72:../switch_sdk/core/yt/yt_ctrlpkt.c ****  * @retval        CMM_ERR_OK          -on success
  73:../switch_sdk/core/yt/yt_ctrlpkt.c ****  * @retval        CMM_ERR_FAIL        -on fail
  74:../switch_sdk/core/yt/yt_ctrlpkt.c ****  */
  75:../switch_sdk/core/yt/yt_ctrlpkt.c **** yt_ret_t  yt_ctrlpkt_unknown_mcast_act_set(yt_unit_t unit, yt_port_t port, yt_ctrlpkt_l2_action_t a
  76:../switch_sdk/core/yt/yt_ctrlpkt.c **** {
 534              		.loc 1 76 1 is_stmt 1 view -0
 535              		.cfi_startproc
 536              		@ args = 0, pretend = 0, frame = 0
 537              		@ frame_needed = 0, uses_anonymous_args = 0
 538              		.loc 1 76 1 is_stmt 0 view .LVU147
 539 0000 08B5     		push	{r3, lr}
 540              		.cfi_def_cfa_offset 8
 541              		.cfi_offset 3, -8
 542              		.cfi_offset 14, -4
  77:../switch_sdk/core/yt/yt_ctrlpkt.c ****     CMM_PARAM_CHK((YT_UNIT_NUM <= unit), CMM_ERR_INPUT);
 543              		.loc 1 77 5 is_stmt 1 view .LVU148
 544              		.loc 1 77 5 view .LVU149
 545 0002 C0B9     		cbnz	r0, .L65
 546 0004 8446     		mov	ip, r0
 547              		.loc 1 77 5 discriminator 2 view .LVU150
  78:../switch_sdk/core/yt/yt_ctrlpkt.c ****     CMM_PARAM_CHK(NULL == YT_DISPATCH(unit), CMM_ERR_NOT_INIT);
 548              		.loc 1 78 5 discriminator 2 view .LVU151
 549              		.loc 1 78 5 discriminator 2 view .LVU152
 550 0006 2F4B     		ldr	r3, .L74
 551 0008 53F82030 		ldr	r3, [r3, r0, lsl #2]
 552 000c 0BB3     		cbz	r3, .L66
 553              		.loc 1 78 5 discriminator 2 view .LVU153
  79:../switch_sdk/core/yt/yt_ctrlpkt.c ****     CMM_PARAM_CHK((!(YT_DISPATCH(unit)->is_inited)), CMM_ERR_NOT_INIT);
 554              		.loc 1 79 5 discriminator 2 view .LVU154
 555              		.loc 1 79 5 discriminator 2 view .LVU155
 556 000e 1878     		ldrb	r0, [r3]	@ zero_extendqisi2
 557              	.LVL71:
 558              		.loc 1 79 5 is_stmt 0 discriminator 2 view .LVU156
 559 0010 0028     		cmp	r0, #0
 560 0012 2CD0     		beq	.L67
 561              		.loc 1 79 5 is_stmt 1 discriminator 2 view .LVU157
  80:../switch_sdk/core/yt/yt_ctrlpkt.c ****     CMM_PARAM_CHK((!(CMM_PORT_VALID(unit,port))), CMM_ERR_PORT);
 562              		.loc 1 80 5 discriminator 2 view .LVU158
 563              		.loc 1 80 5 discriminator 2 view .LVU159
 564 0014 2C48     		ldr	r0, .L74+4
 565 0016 0078     		ldrb	r0, [r0]	@ zero_extendqisi2
 566 0018 0028     		cmp	r0, #0
 567 001a 36D0     		beq	.L59
 568 001c 2B48     		ldr	r0, .L74+8
 569 001e 50F82C00 		ldr	r0, [r0, ip, lsl #2]
 570 0022 007D     		ldrb	r0, [r0, #20]	@ zero_extendqisi2
 571 0024 8842     		cmp	r0, r1
 572 0026 30D9     		bls	.L59
 573              		.loc 1 80 5 discriminator 4 view .LVU160
  81:../switch_sdk/core/yt/yt_ctrlpkt.c ****     CMM_PARAM_CHK((L2_ACTION_COPY < act_ctrl || L2_ACTION_FWD > act_ctrl), CMM_ERR_INPUT);
 574              		.loc 1 81 5 discriminator 4 view .LVU161
 575              		.loc 1 81 5 discriminator 4 view .LVU162
 576 0028 032A     		cmp	r2, #3
 577 002a 3CD8     		bhi	.L68
 578              		.loc 1 81 5 discriminator 2 view .LVU163
  82:../switch_sdk/core/yt/yt_ctrlpkt.c **** 
  83:../switch_sdk/core/yt/yt_ctrlpkt.c ****     return YT_DISPATCH(unit)->ctrlpkt_unknown_mcast_act_set(unit, port, act_ctrl);
 579              		.loc 1 83 5 discriminator 2 view .LVU164
 580              		.loc 1 83 29 is_stmt 0 discriminator 2 view .LVU165
 581 002c D3F82036 		ldr	r3, [r3, #1568]
 582              		.loc 1 83 12 discriminator 2 view .LVU166
 583 0030 6046     		mov	r0, ip
 584 0032 9847     		blx	r3
 585              	.LVL72:
 586              	.L51:
  84:../switch_sdk/core/yt/yt_ctrlpkt.c **** }
 587              		.loc 1 84 1 view .LVU167
 588 0034 08BD     		pop	{r3, pc}
 589              	.LVL73:
 590              	.L65:
  77:../switch_sdk/core/yt/yt_ctrlpkt.c ****     CMM_PARAM_CHK(NULL == YT_DISPATCH(unit), CMM_ERR_NOT_INIT);
 591              		.loc 1 77 5 is_stmt 1 discriminator 1 view .LVU168
  77:../switch_sdk/core/yt/yt_ctrlpkt.c ****     CMM_PARAM_CHK(NULL == YT_DISPATCH(unit), CMM_ERR_NOT_INIT);
 592              		.loc 1 77 5 discriminator 1 view .LVU169
 593 0036 264B     		ldr	r3, .L74+12
 594 0038 1B78     		ldrb	r3, [r3]	@ zero_extendqisi2
 595 003a 012B     		cmp	r3, #1
 596 003c 01D8     		bhi	.L69
 597              	.LVL74:
 598              	.L53:
  77:../switch_sdk/core/yt/yt_ctrlpkt.c ****     CMM_PARAM_CHK(NULL == YT_DISPATCH(unit), CMM_ERR_NOT_INIT);
 599              		.loc 1 77 5 discriminator 5 view .LVU170
  77:../switch_sdk/core/yt/yt_ctrlpkt.c ****     CMM_PARAM_CHK(NULL == YT_DISPATCH(unit), CMM_ERR_NOT_INIT);
 600              		.loc 1 77 5 discriminator 5 view .LVU171
  77:../switch_sdk/core/yt/yt_ctrlpkt.c ****     CMM_PARAM_CHK(NULL == YT_DISPATCH(unit), CMM_ERR_NOT_INIT);
 601              		.loc 1 77 5 discriminator 5 view .LVU172
 602 003e 0520     		movs	r0, #5
 603 0040 F8E7     		b	.L51
 604              	.LVL75:
 605              	.L69:
  77:../switch_sdk/core/yt/yt_ctrlpkt.c ****     CMM_PARAM_CHK(NULL == YT_DISPATCH(unit), CMM_ERR_NOT_INIT);
 606              		.loc 1 77 5 discriminator 3 view .LVU173
 607              	.LBB12:
  77:../switch_sdk/core/yt/yt_ctrlpkt.c ****     CMM_PARAM_CHK(NULL == YT_DISPATCH(unit), CMM_ERR_NOT_INIT);
 608              		.loc 1 77 5 discriminator 3 view .LVU174
 609 0042 244B     		ldr	r3, .L74+16
 610 0044 5A69     		ldr	r2, [r3, #20]
 611              	.LVL76:
  77:../switch_sdk/core/yt/yt_ctrlpkt.c ****     CMM_PARAM_CHK(NULL == YT_DISPATCH(unit), CMM_ERR_NOT_INIT);
 612              		.loc 1 77 5 is_stmt 0 discriminator 3 view .LVU175
 613 0046 244B     		ldr	r3, .L74+20
 614 0048 9968     		ldr	r1, [r3, #8]
 615              	.LVL77:
  77:../switch_sdk/core/yt/yt_ctrlpkt.c ****     CMM_PARAM_CHK(NULL == YT_DISPATCH(unit), CMM_ERR_NOT_INIT);
 616              		.loc 1 77 5 discriminator 3 view .LVU176
 617 004a 2448     		ldr	r0, .L74+24
 618              	.LVL78:
  77:../switch_sdk/core/yt/yt_ctrlpkt.c ****     CMM_PARAM_CHK(NULL == YT_DISPATCH(unit), CMM_ERR_NOT_INIT);
 619              		.loc 1 77 5 discriminator 3 view .LVU177
 620 004c FFF7FEFF 		bl	osal_printf
 621              	.LVL79:
 622 0050 F5E7     		b	.L53
 623              	.LVL80:
 624              	.L66:
  77:../switch_sdk/core/yt/yt_ctrlpkt.c ****     CMM_PARAM_CHK(NULL == YT_DISPATCH(unit), CMM_ERR_NOT_INIT);
 625              		.loc 1 77 5 discriminator 3 view .LVU178
 626              	.LBE12:
  78:../switch_sdk/core/yt/yt_ctrlpkt.c ****     CMM_PARAM_CHK((!(YT_DISPATCH(unit)->is_inited)), CMM_ERR_NOT_INIT);
 627              		.loc 1 78 5 is_stmt 1 discriminator 1 view .LVU179
  78:../switch_sdk/core/yt/yt_ctrlpkt.c ****     CMM_PARAM_CHK((!(YT_DISPATCH(unit)->is_inited)), CMM_ERR_NOT_INIT);
 628              		.loc 1 78 5 discriminator 1 view .LVU180
 629 0052 1F4B     		ldr	r3, .L74+12
 630 0054 1B78     		ldrb	r3, [r3]	@ zero_extendqisi2
 631 0056 012B     		cmp	r3, #1
 632 0058 01D8     		bhi	.L70
 633              	.LVL81:
 634              	.L56:
  78:../switch_sdk/core/yt/yt_ctrlpkt.c ****     CMM_PARAM_CHK((!(YT_DISPATCH(unit)->is_inited)), CMM_ERR_NOT_INIT);
 635              		.loc 1 78 5 discriminator 5 view .LVU181
  78:../switch_sdk/core/yt/yt_ctrlpkt.c ****     CMM_PARAM_CHK((!(YT_DISPATCH(unit)->is_inited)), CMM_ERR_NOT_INIT);
 636              		.loc 1 78 5 discriminator 5 view .LVU182
  78:../switch_sdk/core/yt/yt_ctrlpkt.c ****     CMM_PARAM_CHK((!(YT_DISPATCH(unit)->is_inited)), CMM_ERR_NOT_INIT);
 637              		.loc 1 78 5 discriminator 5 view .LVU183
 638 005a 0420     		movs	r0, #4
 639 005c EAE7     		b	.L51
 640              	.LVL82:
 641              	.L70:
  78:../switch_sdk/core/yt/yt_ctrlpkt.c ****     CMM_PARAM_CHK((!(YT_DISPATCH(unit)->is_inited)), CMM_ERR_NOT_INIT);
 642              		.loc 1 78 5 discriminator 3 view .LVU184
 643              	.LBB13:
  78:../switch_sdk/core/yt/yt_ctrlpkt.c ****     CMM_PARAM_CHK((!(YT_DISPATCH(unit)->is_inited)), CMM_ERR_NOT_INIT);
 644              		.loc 1 78 5 discriminator 3 view .LVU185
 645 005e 1D4B     		ldr	r3, .L74+16
 646 0060 1A69     		ldr	r2, [r3, #16]
 647              	.LVL83:
  78:../switch_sdk/core/yt/yt_ctrlpkt.c ****     CMM_PARAM_CHK((!(YT_DISPATCH(unit)->is_inited)), CMM_ERR_NOT_INIT);
 648              		.loc 1 78 5 is_stmt 0 discriminator 3 view .LVU186
 649 0062 1D4B     		ldr	r3, .L74+20
 650 0064 9968     		ldr	r1, [r3, #8]
 651              	.LVL84:
  78:../switch_sdk/core/yt/yt_ctrlpkt.c ****     CMM_PARAM_CHK((!(YT_DISPATCH(unit)->is_inited)), CMM_ERR_NOT_INIT);
 652              		.loc 1 78 5 discriminator 3 view .LVU187
 653 0066 1D48     		ldr	r0, .L74+24
 654              	.LVL85:
  78:../switch_sdk/core/yt/yt_ctrlpkt.c ****     CMM_PARAM_CHK((!(YT_DISPATCH(unit)->is_inited)), CMM_ERR_NOT_INIT);
 655              		.loc 1 78 5 discriminator 3 view .LVU188
 656 0068 FFF7FEFF 		bl	osal_printf
 657              	.LVL86:
 658 006c F5E7     		b	.L56
 659              	.LVL87:
 660              	.L67:
  78:../switch_sdk/core/yt/yt_ctrlpkt.c ****     CMM_PARAM_CHK((!(YT_DISPATCH(unit)->is_inited)), CMM_ERR_NOT_INIT);
 661              		.loc 1 78 5 discriminator 3 view .LVU189
 662              	.LBE13:
  79:../switch_sdk/core/yt/yt_ctrlpkt.c ****     CMM_PARAM_CHK((!(CMM_PORT_VALID(unit,port))), CMM_ERR_PORT);
 663              		.loc 1 79 5 is_stmt 1 discriminator 1 view .LVU190
  79:../switch_sdk/core/yt/yt_ctrlpkt.c ****     CMM_PARAM_CHK((!(CMM_PORT_VALID(unit,port))), CMM_ERR_PORT);
 664              		.loc 1 79 5 discriminator 1 view .LVU191
 665 006e 184B     		ldr	r3, .L74+12
 666 0070 1B78     		ldrb	r3, [r3]	@ zero_extendqisi2
 667 0072 012B     		cmp	r3, #1
 668 0074 01D8     		bhi	.L71
 669              	.LVL88:
 670              	.L58:
  79:../switch_sdk/core/yt/yt_ctrlpkt.c ****     CMM_PARAM_CHK((!(CMM_PORT_VALID(unit,port))), CMM_ERR_PORT);
 671              		.loc 1 79 5 discriminator 5 view .LVU192
  79:../switch_sdk/core/yt/yt_ctrlpkt.c ****     CMM_PARAM_CHK((!(CMM_PORT_VALID(unit,port))), CMM_ERR_PORT);
 672              		.loc 1 79 5 discriminator 5 view .LVU193
  79:../switch_sdk/core/yt/yt_ctrlpkt.c ****     CMM_PARAM_CHK((!(CMM_PORT_VALID(unit,port))), CMM_ERR_PORT);
 673              		.loc 1 79 5 discriminator 5 view .LVU194
 674 0076 0420     		movs	r0, #4
 675 0078 DCE7     		b	.L51
 676              	.LVL89:
 677              	.L71:
  79:../switch_sdk/core/yt/yt_ctrlpkt.c ****     CMM_PARAM_CHK((!(CMM_PORT_VALID(unit,port))), CMM_ERR_PORT);
 678              		.loc 1 79 5 discriminator 3 view .LVU195
 679              	.LBB14:
  79:../switch_sdk/core/yt/yt_ctrlpkt.c ****     CMM_PARAM_CHK((!(CMM_PORT_VALID(unit,port))), CMM_ERR_PORT);
 680              		.loc 1 79 5 discriminator 3 view .LVU196
 681 007a 164B     		ldr	r3, .L74+16
 682 007c 1A69     		ldr	r2, [r3, #16]
 683              	.LVL90:
  79:../switch_sdk/core/yt/yt_ctrlpkt.c ****     CMM_PARAM_CHK((!(CMM_PORT_VALID(unit,port))), CMM_ERR_PORT);
 684              		.loc 1 79 5 is_stmt 0 discriminator 3 view .LVU197
 685 007e 164B     		ldr	r3, .L74+20
 686 0080 9968     		ldr	r1, [r3, #8]
 687              	.LVL91:
  79:../switch_sdk/core/yt/yt_ctrlpkt.c ****     CMM_PARAM_CHK((!(CMM_PORT_VALID(unit,port))), CMM_ERR_PORT);
 688              		.loc 1 79 5 discriminator 3 view .LVU198
 689 0082 1648     		ldr	r0, .L74+24
 690 0084 FFF7FEFF 		bl	osal_printf
 691              	.LVL92:
 692 0088 F5E7     		b	.L58
 693              	.LVL93:
 694              	.L59:
  79:../switch_sdk/core/yt/yt_ctrlpkt.c ****     CMM_PARAM_CHK((!(CMM_PORT_VALID(unit,port))), CMM_ERR_PORT);
 695              		.loc 1 79 5 discriminator 3 view .LVU199
 696              	.LBE14:
  80:../switch_sdk/core/yt/yt_ctrlpkt.c ****     CMM_PARAM_CHK((L2_ACTION_COPY < act_ctrl || L2_ACTION_FWD > act_ctrl), CMM_ERR_INPUT);
 697              		.loc 1 80 5 is_stmt 1 discriminator 3 view .LVU200
  80:../switch_sdk/core/yt/yt_ctrlpkt.c ****     CMM_PARAM_CHK((L2_ACTION_COPY < act_ctrl || L2_ACTION_FWD > act_ctrl), CMM_ERR_INPUT);
 698              		.loc 1 80 5 discriminator 3 view .LVU201
 699 008a 114B     		ldr	r3, .L74+12
 700 008c 1B78     		ldrb	r3, [r3]	@ zero_extendqisi2
 701 008e 012B     		cmp	r3, #1
 702 0090 01D8     		bhi	.L72
 703              	.LVL94:
 704              	.L61:
  80:../switch_sdk/core/yt/yt_ctrlpkt.c ****     CMM_PARAM_CHK((L2_ACTION_COPY < act_ctrl || L2_ACTION_FWD > act_ctrl), CMM_ERR_INPUT);
 705              		.loc 1 80 5 discriminator 7 view .LVU202
  80:../switch_sdk/core/yt/yt_ctrlpkt.c ****     CMM_PARAM_CHK((L2_ACTION_COPY < act_ctrl || L2_ACTION_FWD > act_ctrl), CMM_ERR_INPUT);
 706              		.loc 1 80 5 discriminator 7 view .LVU203
  80:../switch_sdk/core/yt/yt_ctrlpkt.c ****     CMM_PARAM_CHK((L2_ACTION_COPY < act_ctrl || L2_ACTION_FWD > act_ctrl), CMM_ERR_INPUT);
 707              		.loc 1 80 5 discriminator 7 view .LVU204
 708 0092 0E20     		movs	r0, #14
 709 0094 CEE7     		b	.L51
 710              	.LVL95:
 711              	.L72:
  80:../switch_sdk/core/yt/yt_ctrlpkt.c ****     CMM_PARAM_CHK((L2_ACTION_COPY < act_ctrl || L2_ACTION_FWD > act_ctrl), CMM_ERR_INPUT);
 712              		.loc 1 80 5 discriminator 5 view .LVU205
 713              	.LBB15:
  80:../switch_sdk/core/yt/yt_ctrlpkt.c ****     CMM_PARAM_CHK((L2_ACTION_COPY < act_ctrl || L2_ACTION_FWD > act_ctrl), CMM_ERR_INPUT);
 714              		.loc 1 80 5 discriminator 5 view .LVU206
 715 0096 0F4B     		ldr	r3, .L74+16
 716 0098 9A6B     		ldr	r2, [r3, #56]
 717              	.LVL96:
  80:../switch_sdk/core/yt/yt_ctrlpkt.c ****     CMM_PARAM_CHK((L2_ACTION_COPY < act_ctrl || L2_ACTION_FWD > act_ctrl), CMM_ERR_INPUT);
 718              		.loc 1 80 5 is_stmt 0 discriminator 5 view .LVU207
 719 009a 0F4B     		ldr	r3, .L74+20
 720 009c 9968     		ldr	r1, [r3, #8]
 721              	.LVL97:
  80:../switch_sdk/core/yt/yt_ctrlpkt.c ****     CMM_PARAM_CHK((L2_ACTION_COPY < act_ctrl || L2_ACTION_FWD > act_ctrl), CMM_ERR_INPUT);
 722              		.loc 1 80 5 discriminator 5 view .LVU208
 723 009e 0F48     		ldr	r0, .L74+24
 724 00a0 FFF7FEFF 		bl	osal_printf
 725              	.LVL98:
 726 00a4 F5E7     		b	.L61
 727              	.LVL99:
 728              	.L68:
  80:../switch_sdk/core/yt/yt_ctrlpkt.c ****     CMM_PARAM_CHK((L2_ACTION_COPY < act_ctrl || L2_ACTION_FWD > act_ctrl), CMM_ERR_INPUT);
 729              		.loc 1 80 5 discriminator 5 view .LVU209
 730              	.LBE15:
  81:../switch_sdk/core/yt/yt_ctrlpkt.c **** 
 731              		.loc 1 81 5 is_stmt 1 discriminator 1 view .LVU210
  81:../switch_sdk/core/yt/yt_ctrlpkt.c **** 
 732              		.loc 1 81 5 discriminator 1 view .LVU211
 733 00a6 0A4B     		ldr	r3, .L74+12
 734 00a8 1B78     		ldrb	r3, [r3]	@ zero_extendqisi2
 735 00aa 012B     		cmp	r3, #1
 736 00ac 01D8     		bhi	.L73
 737              	.LVL100:
 738              	.L63:
  81:../switch_sdk/core/yt/yt_ctrlpkt.c **** 
 739              		.loc 1 81 5 discriminator 5 view .LVU212
  81:../switch_sdk/core/yt/yt_ctrlpkt.c **** 
 740              		.loc 1 81 5 discriminator 5 view .LVU213
  81:../switch_sdk/core/yt/yt_ctrlpkt.c **** 
 741              		.loc 1 81 5 discriminator 5 view .LVU214
 742 00ae 0520     		movs	r0, #5
 743 00b0 C0E7     		b	.L51
 744              	.LVL101:
 745              	.L73:
  81:../switch_sdk/core/yt/yt_ctrlpkt.c **** 
 746              		.loc 1 81 5 discriminator 3 view .LVU215
 747              	.LBB16:
  81:../switch_sdk/core/yt/yt_ctrlpkt.c **** 
 748              		.loc 1 81 5 discriminator 3 view .LVU216
 749 00b2 084B     		ldr	r3, .L74+16
 750 00b4 5A69     		ldr	r2, [r3, #20]
 751              	.LVL102:
  81:../switch_sdk/core/yt/yt_ctrlpkt.c **** 
 752              		.loc 1 81 5 is_stmt 0 discriminator 3 view .LVU217
 753 00b6 084B     		ldr	r3, .L74+20
 754 00b8 9968     		ldr	r1, [r3, #8]
 755              	.LVL103:
  81:../switch_sdk/core/yt/yt_ctrlpkt.c **** 
 756              		.loc 1 81 5 discriminator 3 view .LVU218
 757 00ba 0848     		ldr	r0, .L74+24
 758 00bc FFF7FEFF 		bl	osal_printf
 759              	.LVL104:
 760 00c0 F5E7     		b	.L63
 761              	.L75:
 762 00c2 00BF     		.align	2
 763              	.L74:
 764 00c4 00000000 		.word	gpfal_dispatch
 765 00c8 00000000 		.word	gcal_inited
 766 00cc 00000000 		.word	gpSwitchUnit
 767 00d0 00000000 		.word	yt_debug_level
 768 00d4 00000000 		.word	_yt_errmsg
 769 00d8 00000000 		.word	_yt_prompt_msg
 770 00dc 00000000 		.word	.LC0
 771              	.LBE16:
 772              		.cfi_endproc
 773              	.LFE5:
 775              		.section	.text.yt_ctrlpkt_unknown_mcast_act_get,"ax",%progbits
 776              		.align	1
 777              		.global	yt_ctrlpkt_unknown_mcast_act_get
 778              		.syntax unified
 779              		.thumb
 780              		.thumb_func
 782              	yt_ctrlpkt_unknown_mcast_act_get:
 783              	.LVL105:
 784              	.LFB6:
  85:../switch_sdk/core/yt/yt_ctrlpkt.c **** 
  86:../switch_sdk/core/yt/yt_ctrlpkt.c **** /**
  87:../switch_sdk/core/yt/yt_ctrlpkt.c ****  * @internal      yt_ctrlpkt_unknown_mcast_act_get
  88:../switch_sdk/core/yt/yt_ctrlpkt.c ****  * @endinternal
  89:../switch_sdk/core/yt/yt_ctrlpkt.c ****  *
  90:../switch_sdk/core/yt/yt_ctrlpkt.c ****  * @brief         Description
  91:../switch_sdk/core/yt/yt_ctrlpkt.c ****  * @param[in]     unit                -unit id
  92:../switch_sdk/core/yt/yt_ctrlpkt.c ****  * @param[in]     port                -port num
  93:../switch_sdk/core/yt/yt_ctrlpkt.c ****  * @param[out]    pAct_ctrl           -l2 packet action,FWD,TRAP,DROP,COPY
  94:../switch_sdk/core/yt/yt_ctrlpkt.c ****  * @retval        CMM_ERR_OK          -on success
  95:../switch_sdk/core/yt/yt_ctrlpkt.c ****  * @retval        CMM_ERR_FAIL        -on fail
  96:../switch_sdk/core/yt/yt_ctrlpkt.c ****  */
  97:../switch_sdk/core/yt/yt_ctrlpkt.c **** yt_ret_t  yt_ctrlpkt_unknown_mcast_act_get(yt_unit_t unit, yt_port_t port, yt_ctrlpkt_l2_action_t *
  98:../switch_sdk/core/yt/yt_ctrlpkt.c **** {
 785              		.loc 1 98 1 is_stmt 1 view -0
 786              		.cfi_startproc
 787              		@ args = 0, pretend = 0, frame = 0
 788              		@ frame_needed = 0, uses_anonymous_args = 0
 789              		.loc 1 98 1 is_stmt 0 view .LVU220
 790 0000 08B5     		push	{r3, lr}
 791              		.cfi_def_cfa_offset 8
 792              		.cfi_offset 3, -8
 793              		.cfi_offset 14, -4
  99:../switch_sdk/core/yt/yt_ctrlpkt.c ****     CMM_PARAM_CHK((YT_UNIT_NUM <= unit), CMM_ERR_INPUT);
 794              		.loc 1 99 5 is_stmt 1 view .LVU221
 795              		.loc 1 99 5 view .LVU222
 796 0002 C0B9     		cbnz	r0, .L90
 797 0004 8446     		mov	ip, r0
 798              		.loc 1 99 5 discriminator 2 view .LVU223
 100:../switch_sdk/core/yt/yt_ctrlpkt.c ****     CMM_PARAM_CHK(NULL == YT_DISPATCH(unit), CMM_ERR_NOT_INIT);
 799              		.loc 1 100 5 discriminator 2 view .LVU224
 800              		.loc 1 100 5 discriminator 2 view .LVU225
 801 0006 2F4B     		ldr	r3, .L99
 802 0008 53F82030 		ldr	r3, [r3, r0, lsl #2]
 803 000c 0BB3     		cbz	r3, .L91
 804              		.loc 1 100 5 discriminator 2 view .LVU226
 101:../switch_sdk/core/yt/yt_ctrlpkt.c ****     CMM_PARAM_CHK((!(YT_DISPATCH(unit)->is_inited)), CMM_ERR_NOT_INIT);
 805              		.loc 1 101 5 discriminator 2 view .LVU227
 806              		.loc 1 101 5 discriminator 2 view .LVU228
 807 000e 1878     		ldrb	r0, [r3]	@ zero_extendqisi2
 808              	.LVL106:
 809              		.loc 1 101 5 is_stmt 0 discriminator 2 view .LVU229
 810 0010 0028     		cmp	r0, #0
 811 0012 2CD0     		beq	.L92
 812              		.loc 1 101 5 is_stmt 1 discriminator 2 view .LVU230
 102:../switch_sdk/core/yt/yt_ctrlpkt.c ****     CMM_PARAM_CHK((!(CMM_PORT_VALID(unit,port))), CMM_ERR_PORT);
 813              		.loc 1 102 5 discriminator 2 view .LVU231
 814              		.loc 1 102 5 discriminator 2 view .LVU232
 815 0014 2C48     		ldr	r0, .L99+4
 816 0016 0078     		ldrb	r0, [r0]	@ zero_extendqisi2
 817 0018 0028     		cmp	r0, #0
 818 001a 36D0     		beq	.L84
 819 001c 2B48     		ldr	r0, .L99+8
 820 001e 50F82C00 		ldr	r0, [r0, ip, lsl #2]
 821 0022 007D     		ldrb	r0, [r0, #20]	@ zero_extendqisi2
 822 0024 8842     		cmp	r0, r1
 823 0026 30D9     		bls	.L84
 824              		.loc 1 102 5 discriminator 4 view .LVU233
 103:../switch_sdk/core/yt/yt_ctrlpkt.c ****     CMM_PARAM_CHK((NULL == pAct_ctrl), CMM_ERR_NULL_POINT);
 825              		.loc 1 103 5 discriminator 4 view .LVU234
 826              		.loc 1 103 5 discriminator 4 view .LVU235
 827 0028 002A     		cmp	r2, #0
 828 002a 3CD0     		beq	.L93
 829              		.loc 1 103 5 discriminator 2 view .LVU236
 104:../switch_sdk/core/yt/yt_ctrlpkt.c **** 
 105:../switch_sdk/core/yt/yt_ctrlpkt.c ****     return YT_DISPATCH(unit)->ctrlpkt_unknown_mcast_act_get(unit, port, pAct_ctrl);
 830              		.loc 1 105 5 discriminator 2 view .LVU237
 831              		.loc 1 105 29 is_stmt 0 discriminator 2 view .LVU238
 832 002c D3F82436 		ldr	r3, [r3, #1572]
 833              		.loc 1 105 12 discriminator 2 view .LVU239
 834 0030 6046     		mov	r0, ip
 835 0032 9847     		blx	r3
 836              	.LVL107:
 837              	.L76:
 106:../switch_sdk/core/yt/yt_ctrlpkt.c **** }
 838              		.loc 1 106 1 view .LVU240
 839 0034 08BD     		pop	{r3, pc}
 840              	.LVL108:
 841              	.L90:
  99:../switch_sdk/core/yt/yt_ctrlpkt.c ****     CMM_PARAM_CHK(NULL == YT_DISPATCH(unit), CMM_ERR_NOT_INIT);
 842              		.loc 1 99 5 is_stmt 1 discriminator 1 view .LVU241
  99:../switch_sdk/core/yt/yt_ctrlpkt.c ****     CMM_PARAM_CHK(NULL == YT_DISPATCH(unit), CMM_ERR_NOT_INIT);
 843              		.loc 1 99 5 discriminator 1 view .LVU242
 844 0036 264B     		ldr	r3, .L99+12
 845 0038 1B78     		ldrb	r3, [r3]	@ zero_extendqisi2
 846 003a 012B     		cmp	r3, #1
 847 003c 01D8     		bhi	.L94
 848              	.LVL109:
 849              	.L78:
  99:../switch_sdk/core/yt/yt_ctrlpkt.c ****     CMM_PARAM_CHK(NULL == YT_DISPATCH(unit), CMM_ERR_NOT_INIT);
 850              		.loc 1 99 5 discriminator 5 view .LVU243
  99:../switch_sdk/core/yt/yt_ctrlpkt.c ****     CMM_PARAM_CHK(NULL == YT_DISPATCH(unit), CMM_ERR_NOT_INIT);
 851              		.loc 1 99 5 discriminator 5 view .LVU244
  99:../switch_sdk/core/yt/yt_ctrlpkt.c ****     CMM_PARAM_CHK(NULL == YT_DISPATCH(unit), CMM_ERR_NOT_INIT);
 852              		.loc 1 99 5 discriminator 5 view .LVU245
 853 003e 0520     		movs	r0, #5
 854 0040 F8E7     		b	.L76
 855              	.LVL110:
 856              	.L94:
  99:../switch_sdk/core/yt/yt_ctrlpkt.c ****     CMM_PARAM_CHK(NULL == YT_DISPATCH(unit), CMM_ERR_NOT_INIT);
 857              		.loc 1 99 5 discriminator 3 view .LVU246
 858              	.LBB17:
  99:../switch_sdk/core/yt/yt_ctrlpkt.c ****     CMM_PARAM_CHK(NULL == YT_DISPATCH(unit), CMM_ERR_NOT_INIT);
 859              		.loc 1 99 5 discriminator 3 view .LVU247
 860 0042 244B     		ldr	r3, .L99+16
 861 0044 5A69     		ldr	r2, [r3, #20]
 862              	.LVL111:
  99:../switch_sdk/core/yt/yt_ctrlpkt.c ****     CMM_PARAM_CHK(NULL == YT_DISPATCH(unit), CMM_ERR_NOT_INIT);
 863              		.loc 1 99 5 is_stmt 0 discriminator 3 view .LVU248
 864 0046 244B     		ldr	r3, .L99+20
 865 0048 9968     		ldr	r1, [r3, #8]
 866              	.LVL112:
  99:../switch_sdk/core/yt/yt_ctrlpkt.c ****     CMM_PARAM_CHK(NULL == YT_DISPATCH(unit), CMM_ERR_NOT_INIT);
 867              		.loc 1 99 5 discriminator 3 view .LVU249
 868 004a 2448     		ldr	r0, .L99+24
 869              	.LVL113:
  99:../switch_sdk/core/yt/yt_ctrlpkt.c ****     CMM_PARAM_CHK(NULL == YT_DISPATCH(unit), CMM_ERR_NOT_INIT);
 870              		.loc 1 99 5 discriminator 3 view .LVU250
 871 004c FFF7FEFF 		bl	osal_printf
 872              	.LVL114:
 873 0050 F5E7     		b	.L78
 874              	.LVL115:
 875              	.L91:
  99:../switch_sdk/core/yt/yt_ctrlpkt.c ****     CMM_PARAM_CHK(NULL == YT_DISPATCH(unit), CMM_ERR_NOT_INIT);
 876              		.loc 1 99 5 discriminator 3 view .LVU251
 877              	.LBE17:
 100:../switch_sdk/core/yt/yt_ctrlpkt.c ****     CMM_PARAM_CHK((!(YT_DISPATCH(unit)->is_inited)), CMM_ERR_NOT_INIT);
 878              		.loc 1 100 5 is_stmt 1 discriminator 1 view .LVU252
 100:../switch_sdk/core/yt/yt_ctrlpkt.c ****     CMM_PARAM_CHK((!(YT_DISPATCH(unit)->is_inited)), CMM_ERR_NOT_INIT);
 879              		.loc 1 100 5 discriminator 1 view .LVU253
 880 0052 1F4B     		ldr	r3, .L99+12
 881 0054 1B78     		ldrb	r3, [r3]	@ zero_extendqisi2
 882 0056 012B     		cmp	r3, #1
 883 0058 01D8     		bhi	.L95
 884              	.LVL116:
 885              	.L81:
 100:../switch_sdk/core/yt/yt_ctrlpkt.c ****     CMM_PARAM_CHK((!(YT_DISPATCH(unit)->is_inited)), CMM_ERR_NOT_INIT);
 886              		.loc 1 100 5 discriminator 5 view .LVU254
 100:../switch_sdk/core/yt/yt_ctrlpkt.c ****     CMM_PARAM_CHK((!(YT_DISPATCH(unit)->is_inited)), CMM_ERR_NOT_INIT);
 887              		.loc 1 100 5 discriminator 5 view .LVU255
 100:../switch_sdk/core/yt/yt_ctrlpkt.c ****     CMM_PARAM_CHK((!(YT_DISPATCH(unit)->is_inited)), CMM_ERR_NOT_INIT);
 888              		.loc 1 100 5 discriminator 5 view .LVU256
 889 005a 0420     		movs	r0, #4
 890 005c EAE7     		b	.L76
 891              	.LVL117:
 892              	.L95:
 100:../switch_sdk/core/yt/yt_ctrlpkt.c ****     CMM_PARAM_CHK((!(YT_DISPATCH(unit)->is_inited)), CMM_ERR_NOT_INIT);
 893              		.loc 1 100 5 discriminator 3 view .LVU257
 894              	.LBB18:
 100:../switch_sdk/core/yt/yt_ctrlpkt.c ****     CMM_PARAM_CHK((!(YT_DISPATCH(unit)->is_inited)), CMM_ERR_NOT_INIT);
 895              		.loc 1 100 5 discriminator 3 view .LVU258
 896 005e 1D4B     		ldr	r3, .L99+16
 897 0060 1A69     		ldr	r2, [r3, #16]
 898              	.LVL118:
 100:../switch_sdk/core/yt/yt_ctrlpkt.c ****     CMM_PARAM_CHK((!(YT_DISPATCH(unit)->is_inited)), CMM_ERR_NOT_INIT);
 899              		.loc 1 100 5 is_stmt 0 discriminator 3 view .LVU259
 900 0062 1D4B     		ldr	r3, .L99+20
 901 0064 9968     		ldr	r1, [r3, #8]
 902              	.LVL119:
 100:../switch_sdk/core/yt/yt_ctrlpkt.c ****     CMM_PARAM_CHK((!(YT_DISPATCH(unit)->is_inited)), CMM_ERR_NOT_INIT);
 903              		.loc 1 100 5 discriminator 3 view .LVU260
 904 0066 1D48     		ldr	r0, .L99+24
 905              	.LVL120:
 100:../switch_sdk/core/yt/yt_ctrlpkt.c ****     CMM_PARAM_CHK((!(YT_DISPATCH(unit)->is_inited)), CMM_ERR_NOT_INIT);
 906              		.loc 1 100 5 discriminator 3 view .LVU261
 907 0068 FFF7FEFF 		bl	osal_printf
 908              	.LVL121:
 909 006c F5E7     		b	.L81
 910              	.LVL122:
 911              	.L92:
 100:../switch_sdk/core/yt/yt_ctrlpkt.c ****     CMM_PARAM_CHK((!(YT_DISPATCH(unit)->is_inited)), CMM_ERR_NOT_INIT);
 912              		.loc 1 100 5 discriminator 3 view .LVU262
 913              	.LBE18:
 101:../switch_sdk/core/yt/yt_ctrlpkt.c ****     CMM_PARAM_CHK((!(CMM_PORT_VALID(unit,port))), CMM_ERR_PORT);
 914              		.loc 1 101 5 is_stmt 1 discriminator 1 view .LVU263
 101:../switch_sdk/core/yt/yt_ctrlpkt.c ****     CMM_PARAM_CHK((!(CMM_PORT_VALID(unit,port))), CMM_ERR_PORT);
 915              		.loc 1 101 5 discriminator 1 view .LVU264
 916 006e 184B     		ldr	r3, .L99+12
 917 0070 1B78     		ldrb	r3, [r3]	@ zero_extendqisi2
 918 0072 012B     		cmp	r3, #1
 919 0074 01D8     		bhi	.L96
 920              	.LVL123:
 921              	.L83:
 101:../switch_sdk/core/yt/yt_ctrlpkt.c ****     CMM_PARAM_CHK((!(CMM_PORT_VALID(unit,port))), CMM_ERR_PORT);
 922              		.loc 1 101 5 discriminator 5 view .LVU265
 101:../switch_sdk/core/yt/yt_ctrlpkt.c ****     CMM_PARAM_CHK((!(CMM_PORT_VALID(unit,port))), CMM_ERR_PORT);
 923              		.loc 1 101 5 discriminator 5 view .LVU266
 101:../switch_sdk/core/yt/yt_ctrlpkt.c ****     CMM_PARAM_CHK((!(CMM_PORT_VALID(unit,port))), CMM_ERR_PORT);
 924              		.loc 1 101 5 discriminator 5 view .LVU267
 925 0076 0420     		movs	r0, #4
 926 0078 DCE7     		b	.L76
 927              	.LVL124:
 928              	.L96:
 101:../switch_sdk/core/yt/yt_ctrlpkt.c ****     CMM_PARAM_CHK((!(CMM_PORT_VALID(unit,port))), CMM_ERR_PORT);
 929              		.loc 1 101 5 discriminator 3 view .LVU268
 930              	.LBB19:
 101:../switch_sdk/core/yt/yt_ctrlpkt.c ****     CMM_PARAM_CHK((!(CMM_PORT_VALID(unit,port))), CMM_ERR_PORT);
 931              		.loc 1 101 5 discriminator 3 view .LVU269
 932 007a 164B     		ldr	r3, .L99+16
 933 007c 1A69     		ldr	r2, [r3, #16]
 934              	.LVL125:
 101:../switch_sdk/core/yt/yt_ctrlpkt.c ****     CMM_PARAM_CHK((!(CMM_PORT_VALID(unit,port))), CMM_ERR_PORT);
 935              		.loc 1 101 5 is_stmt 0 discriminator 3 view .LVU270
 936 007e 164B     		ldr	r3, .L99+20
 937 0080 9968     		ldr	r1, [r3, #8]
 938              	.LVL126:
 101:../switch_sdk/core/yt/yt_ctrlpkt.c ****     CMM_PARAM_CHK((!(CMM_PORT_VALID(unit,port))), CMM_ERR_PORT);
 939              		.loc 1 101 5 discriminator 3 view .LVU271
 940 0082 1648     		ldr	r0, .L99+24
 941 0084 FFF7FEFF 		bl	osal_printf
 942              	.LVL127:
 943 0088 F5E7     		b	.L83
 944              	.LVL128:
 945              	.L84:
 101:../switch_sdk/core/yt/yt_ctrlpkt.c ****     CMM_PARAM_CHK((!(CMM_PORT_VALID(unit,port))), CMM_ERR_PORT);
 946              		.loc 1 101 5 discriminator 3 view .LVU272
 947              	.LBE19:
 102:../switch_sdk/core/yt/yt_ctrlpkt.c ****     CMM_PARAM_CHK((NULL == pAct_ctrl), CMM_ERR_NULL_POINT);
 948              		.loc 1 102 5 is_stmt 1 discriminator 3 view .LVU273
 102:../switch_sdk/core/yt/yt_ctrlpkt.c ****     CMM_PARAM_CHK((NULL == pAct_ctrl), CMM_ERR_NULL_POINT);
 949              		.loc 1 102 5 discriminator 3 view .LVU274
 950 008a 114B     		ldr	r3, .L99+12
 951 008c 1B78     		ldrb	r3, [r3]	@ zero_extendqisi2
 952 008e 012B     		cmp	r3, #1
 953 0090 01D8     		bhi	.L97
 954              	.LVL129:
 955              	.L86:
 102:../switch_sdk/core/yt/yt_ctrlpkt.c ****     CMM_PARAM_CHK((NULL == pAct_ctrl), CMM_ERR_NULL_POINT);
 956              		.loc 1 102 5 discriminator 7 view .LVU275
 102:../switch_sdk/core/yt/yt_ctrlpkt.c ****     CMM_PARAM_CHK((NULL == pAct_ctrl), CMM_ERR_NULL_POINT);
 957              		.loc 1 102 5 discriminator 7 view .LVU276
 102:../switch_sdk/core/yt/yt_ctrlpkt.c ****     CMM_PARAM_CHK((NULL == pAct_ctrl), CMM_ERR_NULL_POINT);
 958              		.loc 1 102 5 discriminator 7 view .LVU277
 959 0092 0E20     		movs	r0, #14
 960 0094 CEE7     		b	.L76
 961              	.LVL130:
 962              	.L97:
 102:../switch_sdk/core/yt/yt_ctrlpkt.c ****     CMM_PARAM_CHK((NULL == pAct_ctrl), CMM_ERR_NULL_POINT);
 963              		.loc 1 102 5 discriminator 5 view .LVU278
 964              	.LBB20:
 102:../switch_sdk/core/yt/yt_ctrlpkt.c ****     CMM_PARAM_CHK((NULL == pAct_ctrl), CMM_ERR_NULL_POINT);
 965              		.loc 1 102 5 discriminator 5 view .LVU279
 966 0096 0F4B     		ldr	r3, .L99+16
 967 0098 9A6B     		ldr	r2, [r3, #56]
 968              	.LVL131:
 102:../switch_sdk/core/yt/yt_ctrlpkt.c ****     CMM_PARAM_CHK((NULL == pAct_ctrl), CMM_ERR_NULL_POINT);
 969              		.loc 1 102 5 is_stmt 0 discriminator 5 view .LVU280
 970 009a 0F4B     		ldr	r3, .L99+20
 971 009c 9968     		ldr	r1, [r3, #8]
 972              	.LVL132:
 102:../switch_sdk/core/yt/yt_ctrlpkt.c ****     CMM_PARAM_CHK((NULL == pAct_ctrl), CMM_ERR_NULL_POINT);
 973              		.loc 1 102 5 discriminator 5 view .LVU281
 974 009e 0F48     		ldr	r0, .L99+24
 975 00a0 FFF7FEFF 		bl	osal_printf
 976              	.LVL133:
 977 00a4 F5E7     		b	.L86
 978              	.LVL134:
 979              	.L93:
 102:../switch_sdk/core/yt/yt_ctrlpkt.c ****     CMM_PARAM_CHK((NULL == pAct_ctrl), CMM_ERR_NULL_POINT);
 980              		.loc 1 102 5 discriminator 5 view .LVU282
 981              	.LBE20:
 103:../switch_sdk/core/yt/yt_ctrlpkt.c **** 
 982              		.loc 1 103 5 is_stmt 1 discriminator 1 view .LVU283
 103:../switch_sdk/core/yt/yt_ctrlpkt.c **** 
 983              		.loc 1 103 5 discriminator 1 view .LVU284
 984 00a6 0A4B     		ldr	r3, .L99+12
 985 00a8 1B78     		ldrb	r3, [r3]	@ zero_extendqisi2
 986 00aa 012B     		cmp	r3, #1
 987 00ac 01D8     		bhi	.L98
 988              	.LVL135:
 989              	.L88:
 103:../switch_sdk/core/yt/yt_ctrlpkt.c **** 
 990              		.loc 1 103 5 discriminator 5 view .LVU285
 103:../switch_sdk/core/yt/yt_ctrlpkt.c **** 
 991              		.loc 1 103 5 discriminator 5 view .LVU286
 103:../switch_sdk/core/yt/yt_ctrlpkt.c **** 
 992              		.loc 1 103 5 discriminator 5 view .LVU287
 993 00ae 0220     		movs	r0, #2
 994 00b0 C0E7     		b	.L76
 995              	.LVL136:
 996              	.L98:
 103:../switch_sdk/core/yt/yt_ctrlpkt.c **** 
 997              		.loc 1 103 5 discriminator 3 view .LVU288
 998              	.LBB21:
 103:../switch_sdk/core/yt/yt_ctrlpkt.c **** 
 999              		.loc 1 103 5 discriminator 3 view .LVU289
 1000 00b2 084B     		ldr	r3, .L99+16
 1001 00b4 9A68     		ldr	r2, [r3, #8]
 1002              	.LVL137:
 103:../switch_sdk/core/yt/yt_ctrlpkt.c **** 
 1003              		.loc 1 103 5 is_stmt 0 discriminator 3 view .LVU290
 1004 00b6 084B     		ldr	r3, .L99+20
 1005 00b8 9968     		ldr	r1, [r3, #8]
 1006              	.LVL138:
 103:../switch_sdk/core/yt/yt_ctrlpkt.c **** 
 1007              		.loc 1 103 5 discriminator 3 view .LVU291
 1008 00ba 0848     		ldr	r0, .L99+24
 1009 00bc FFF7FEFF 		bl	osal_printf
 1010              	.LVL139:
 1011 00c0 F5E7     		b	.L88
 1012              	.L100:
 1013 00c2 00BF     		.align	2
 1014              	.L99:
 1015 00c4 00000000 		.word	gpfal_dispatch
 1016 00c8 00000000 		.word	gcal_inited
 1017 00cc 00000000 		.word	gpSwitchUnit
 1018 00d0 00000000 		.word	yt_debug_level
 1019 00d4 00000000 		.word	_yt_errmsg
 1020 00d8 00000000 		.word	_yt_prompt_msg
 1021 00dc 00000000 		.word	.LC0
 1022              	.LBE21:
 1023              		.cfi_endproc
 1024              	.LFE6:
 1026              		.section	.text.yt_ctrlpkt_arp_act_set,"ax",%progbits
 1027              		.align	1
 1028              		.global	yt_ctrlpkt_arp_act_set
 1029              		.syntax unified
 1030              		.thumb
 1031              		.thumb_func
 1033              	yt_ctrlpkt_arp_act_set:
 1034              	.LVL140:
 1035              	.LFB7:
 107:../switch_sdk/core/yt/yt_ctrlpkt.c **** 
 108:../switch_sdk/core/yt/yt_ctrlpkt.c **** /**
 109:../switch_sdk/core/yt/yt_ctrlpkt.c ****  * @internal      yt_ctrlpkt_arp_act_set
 110:../switch_sdk/core/yt/yt_ctrlpkt.c ****  * @endinternal
 111:../switch_sdk/core/yt/yt_ctrlpkt.c ****  *
 112:../switch_sdk/core/yt/yt_ctrlpkt.c ****  * @brief         Description
 113:../switch_sdk/core/yt/yt_ctrlpkt.c ****  * @param[in]     unit                -unit id
 114:../switch_sdk/core/yt/yt_ctrlpkt.c ****  * @param[in]     port                -port num
 115:../switch_sdk/core/yt/yt_ctrlpkt.c ****  * @param[in]     act_ctrl            -l2 packet action,FWD,TRAP,DROP,COPY
 116:../switch_sdk/core/yt/yt_ctrlpkt.c ****  * @retval        CMM_ERR_OK          -on success
 117:../switch_sdk/core/yt/yt_ctrlpkt.c ****  * @retval        CMM_ERR_FAIL        -on fail
 118:../switch_sdk/core/yt/yt_ctrlpkt.c ****  */
 119:../switch_sdk/core/yt/yt_ctrlpkt.c **** yt_ret_t yt_ctrlpkt_arp_act_set(yt_unit_t unit, yt_port_t port, yt_ctrlpkt_l2_action_t act_ctrl)
 120:../switch_sdk/core/yt/yt_ctrlpkt.c **** {
 1036              		.loc 1 120 1 is_stmt 1 view -0
 1037              		.cfi_startproc
 1038              		@ args = 0, pretend = 0, frame = 0
 1039              		@ frame_needed = 0, uses_anonymous_args = 0
 1040              		.loc 1 120 1 is_stmt 0 view .LVU293
 1041 0000 08B5     		push	{r3, lr}
 1042              		.cfi_def_cfa_offset 8
 1043              		.cfi_offset 3, -8
 1044              		.cfi_offset 14, -4
 121:../switch_sdk/core/yt/yt_ctrlpkt.c ****     CMM_PARAM_CHK((YT_UNIT_NUM <= unit), CMM_ERR_INPUT);
 1045              		.loc 1 121 5 is_stmt 1 view .LVU294
 1046              		.loc 1 121 5 view .LVU295
 1047 0002 C0B9     		cbnz	r0, .L115
 1048 0004 8446     		mov	ip, r0
 1049              		.loc 1 121 5 discriminator 2 view .LVU296
 122:../switch_sdk/core/yt/yt_ctrlpkt.c ****     CMM_PARAM_CHK(NULL == YT_DISPATCH(unit), CMM_ERR_NOT_INIT);
 1050              		.loc 1 122 5 discriminator 2 view .LVU297
 1051              		.loc 1 122 5 discriminator 2 view .LVU298
 1052 0006 2F4B     		ldr	r3, .L124
 1053 0008 53F82030 		ldr	r3, [r3, r0, lsl #2]
 1054 000c 0BB3     		cbz	r3, .L116
 1055              		.loc 1 122 5 discriminator 2 view .LVU299
 123:../switch_sdk/core/yt/yt_ctrlpkt.c ****     CMM_PARAM_CHK((!(YT_DISPATCH(unit)->is_inited)), CMM_ERR_NOT_INIT);
 1056              		.loc 1 123 5 discriminator 2 view .LVU300
 1057              		.loc 1 123 5 discriminator 2 view .LVU301
 1058 000e 1878     		ldrb	r0, [r3]	@ zero_extendqisi2
 1059              	.LVL141:
 1060              		.loc 1 123 5 is_stmt 0 discriminator 2 view .LVU302
 1061 0010 0028     		cmp	r0, #0
 1062 0012 2CD0     		beq	.L117
 1063              		.loc 1 123 5 is_stmt 1 discriminator 2 view .LVU303
 124:../switch_sdk/core/yt/yt_ctrlpkt.c ****     CMM_PARAM_CHK((!(CMM_PORT_VALID(unit,port))), CMM_ERR_PORT);
 1064              		.loc 1 124 5 discriminator 2 view .LVU304
 1065              		.loc 1 124 5 discriminator 2 view .LVU305
 1066 0014 2C48     		ldr	r0, .L124+4
 1067 0016 0078     		ldrb	r0, [r0]	@ zero_extendqisi2
 1068 0018 0028     		cmp	r0, #0
 1069 001a 36D0     		beq	.L109
 1070 001c 2B48     		ldr	r0, .L124+8
 1071 001e 50F82C00 		ldr	r0, [r0, ip, lsl #2]
 1072 0022 007D     		ldrb	r0, [r0, #20]	@ zero_extendqisi2
 1073 0024 8842     		cmp	r0, r1
 1074 0026 30D9     		bls	.L109
 1075              		.loc 1 124 5 discriminator 4 view .LVU306
 125:../switch_sdk/core/yt/yt_ctrlpkt.c ****     CMM_PARAM_CHK((L2_ACTION_COPY < act_ctrl || L2_ACTION_FWD > act_ctrl), CMM_ERR_INPUT);
 1076              		.loc 1 125 5 discriminator 4 view .LVU307
 1077              		.loc 1 125 5 discriminator 4 view .LVU308
 1078 0028 032A     		cmp	r2, #3
 1079 002a 3CD8     		bhi	.L118
 1080              		.loc 1 125 5 discriminator 2 view .LVU309
 126:../switch_sdk/core/yt/yt_ctrlpkt.c **** 
 127:../switch_sdk/core/yt/yt_ctrlpkt.c ****     return YT_DISPATCH(unit)->ctrlpkt_arp_act_set(unit, port, act_ctrl);
 1081              		.loc 1 127 5 discriminator 2 view .LVU310
 1082              		.loc 1 127 29 is_stmt 0 discriminator 2 view .LVU311
 1083 002c D3F82836 		ldr	r3, [r3, #1576]
 1084              		.loc 1 127 12 discriminator 2 view .LVU312
 1085 0030 6046     		mov	r0, ip
 1086 0032 9847     		blx	r3
 1087              	.LVL142:
 1088              	.L101:
 128:../switch_sdk/core/yt/yt_ctrlpkt.c **** }
 1089              		.loc 1 128 1 view .LVU313
 1090 0034 08BD     		pop	{r3, pc}
 1091              	.LVL143:
 1092              	.L115:
 121:../switch_sdk/core/yt/yt_ctrlpkt.c ****     CMM_PARAM_CHK(NULL == YT_DISPATCH(unit), CMM_ERR_NOT_INIT);
 1093              		.loc 1 121 5 is_stmt 1 discriminator 1 view .LVU314
 121:../switch_sdk/core/yt/yt_ctrlpkt.c ****     CMM_PARAM_CHK(NULL == YT_DISPATCH(unit), CMM_ERR_NOT_INIT);
 1094              		.loc 1 121 5 discriminator 1 view .LVU315
 1095 0036 264B     		ldr	r3, .L124+12
 1096 0038 1B78     		ldrb	r3, [r3]	@ zero_extendqisi2
 1097 003a 012B     		cmp	r3, #1
 1098 003c 01D8     		bhi	.L119
 1099              	.LVL144:
 1100              	.L103:
 121:../switch_sdk/core/yt/yt_ctrlpkt.c ****     CMM_PARAM_CHK(NULL == YT_DISPATCH(unit), CMM_ERR_NOT_INIT);
 1101              		.loc 1 121 5 discriminator 5 view .LVU316
 121:../switch_sdk/core/yt/yt_ctrlpkt.c ****     CMM_PARAM_CHK(NULL == YT_DISPATCH(unit), CMM_ERR_NOT_INIT);
 1102              		.loc 1 121 5 discriminator 5 view .LVU317
 121:../switch_sdk/core/yt/yt_ctrlpkt.c ****     CMM_PARAM_CHK(NULL == YT_DISPATCH(unit), CMM_ERR_NOT_INIT);
 1103              		.loc 1 121 5 discriminator 5 view .LVU318
 1104 003e 0520     		movs	r0, #5
 1105 0040 F8E7     		b	.L101
 1106              	.LVL145:
 1107              	.L119:
 121:../switch_sdk/core/yt/yt_ctrlpkt.c ****     CMM_PARAM_CHK(NULL == YT_DISPATCH(unit), CMM_ERR_NOT_INIT);
 1108              		.loc 1 121 5 discriminator 3 view .LVU319
 1109              	.LBB22:
 121:../switch_sdk/core/yt/yt_ctrlpkt.c ****     CMM_PARAM_CHK(NULL == YT_DISPATCH(unit), CMM_ERR_NOT_INIT);
 1110              		.loc 1 121 5 discriminator 3 view .LVU320
 1111 0042 244B     		ldr	r3, .L124+16
 1112 0044 5A69     		ldr	r2, [r3, #20]
 1113              	.LVL146:
 121:../switch_sdk/core/yt/yt_ctrlpkt.c ****     CMM_PARAM_CHK(NULL == YT_DISPATCH(unit), CMM_ERR_NOT_INIT);
 1114              		.loc 1 121 5 is_stmt 0 discriminator 3 view .LVU321
 1115 0046 244B     		ldr	r3, .L124+20
 1116 0048 9968     		ldr	r1, [r3, #8]
 1117              	.LVL147:
 121:../switch_sdk/core/yt/yt_ctrlpkt.c ****     CMM_PARAM_CHK(NULL == YT_DISPATCH(unit), CMM_ERR_NOT_INIT);
 1118              		.loc 1 121 5 discriminator 3 view .LVU322
 1119 004a 2448     		ldr	r0, .L124+24
 1120              	.LVL148:
 121:../switch_sdk/core/yt/yt_ctrlpkt.c ****     CMM_PARAM_CHK(NULL == YT_DISPATCH(unit), CMM_ERR_NOT_INIT);
 1121              		.loc 1 121 5 discriminator 3 view .LVU323
 1122 004c FFF7FEFF 		bl	osal_printf
 1123              	.LVL149:
 1124 0050 F5E7     		b	.L103
 1125              	.LVL150:
 1126              	.L116:
 121:../switch_sdk/core/yt/yt_ctrlpkt.c ****     CMM_PARAM_CHK(NULL == YT_DISPATCH(unit), CMM_ERR_NOT_INIT);
 1127              		.loc 1 121 5 discriminator 3 view .LVU324
 1128              	.LBE22:
 122:../switch_sdk/core/yt/yt_ctrlpkt.c ****     CMM_PARAM_CHK((!(YT_DISPATCH(unit)->is_inited)), CMM_ERR_NOT_INIT);
 1129              		.loc 1 122 5 is_stmt 1 discriminator 1 view .LVU325
 122:../switch_sdk/core/yt/yt_ctrlpkt.c ****     CMM_PARAM_CHK((!(YT_DISPATCH(unit)->is_inited)), CMM_ERR_NOT_INIT);
 1130              		.loc 1 122 5 discriminator 1 view .LVU326
 1131 0052 1F4B     		ldr	r3, .L124+12
 1132 0054 1B78     		ldrb	r3, [r3]	@ zero_extendqisi2
 1133 0056 012B     		cmp	r3, #1
 1134 0058 01D8     		bhi	.L120
 1135              	.LVL151:
 1136              	.L106:
 122:../switch_sdk/core/yt/yt_ctrlpkt.c ****     CMM_PARAM_CHK((!(YT_DISPATCH(unit)->is_inited)), CMM_ERR_NOT_INIT);
 1137              		.loc 1 122 5 discriminator 5 view .LVU327
 122:../switch_sdk/core/yt/yt_ctrlpkt.c ****     CMM_PARAM_CHK((!(YT_DISPATCH(unit)->is_inited)), CMM_ERR_NOT_INIT);
 1138              		.loc 1 122 5 discriminator 5 view .LVU328
 122:../switch_sdk/core/yt/yt_ctrlpkt.c ****     CMM_PARAM_CHK((!(YT_DISPATCH(unit)->is_inited)), CMM_ERR_NOT_INIT);
 1139              		.loc 1 122 5 discriminator 5 view .LVU329
 1140 005a 0420     		movs	r0, #4
 1141 005c EAE7     		b	.L101
 1142              	.LVL152:
 1143              	.L120:
 122:../switch_sdk/core/yt/yt_ctrlpkt.c ****     CMM_PARAM_CHK((!(YT_DISPATCH(unit)->is_inited)), CMM_ERR_NOT_INIT);
 1144              		.loc 1 122 5 discriminator 3 view .LVU330
 1145              	.LBB23:
 122:../switch_sdk/core/yt/yt_ctrlpkt.c ****     CMM_PARAM_CHK((!(YT_DISPATCH(unit)->is_inited)), CMM_ERR_NOT_INIT);
 1146              		.loc 1 122 5 discriminator 3 view .LVU331
 1147 005e 1D4B     		ldr	r3, .L124+16
 1148 0060 1A69     		ldr	r2, [r3, #16]
 1149              	.LVL153:
 122:../switch_sdk/core/yt/yt_ctrlpkt.c ****     CMM_PARAM_CHK((!(YT_DISPATCH(unit)->is_inited)), CMM_ERR_NOT_INIT);
 1150              		.loc 1 122 5 is_stmt 0 discriminator 3 view .LVU332
 1151 0062 1D4B     		ldr	r3, .L124+20
 1152 0064 9968     		ldr	r1, [r3, #8]
 1153              	.LVL154:
 122:../switch_sdk/core/yt/yt_ctrlpkt.c ****     CMM_PARAM_CHK((!(YT_DISPATCH(unit)->is_inited)), CMM_ERR_NOT_INIT);
 1154              		.loc 1 122 5 discriminator 3 view .LVU333
 1155 0066 1D48     		ldr	r0, .L124+24
 1156              	.LVL155:
 122:../switch_sdk/core/yt/yt_ctrlpkt.c ****     CMM_PARAM_CHK((!(YT_DISPATCH(unit)->is_inited)), CMM_ERR_NOT_INIT);
 1157              		.loc 1 122 5 discriminator 3 view .LVU334
 1158 0068 FFF7FEFF 		bl	osal_printf
 1159              	.LVL156:
 1160 006c F5E7     		b	.L106
 1161              	.LVL157:
 1162              	.L117:
 122:../switch_sdk/core/yt/yt_ctrlpkt.c ****     CMM_PARAM_CHK((!(YT_DISPATCH(unit)->is_inited)), CMM_ERR_NOT_INIT);
 1163              		.loc 1 122 5 discriminator 3 view .LVU335
 1164              	.LBE23:
 123:../switch_sdk/core/yt/yt_ctrlpkt.c ****     CMM_PARAM_CHK((!(CMM_PORT_VALID(unit,port))), CMM_ERR_PORT);
 1165              		.loc 1 123 5 is_stmt 1 discriminator 1 view .LVU336
 123:../switch_sdk/core/yt/yt_ctrlpkt.c ****     CMM_PARAM_CHK((!(CMM_PORT_VALID(unit,port))), CMM_ERR_PORT);
 1166              		.loc 1 123 5 discriminator 1 view .LVU337
 1167 006e 184B     		ldr	r3, .L124+12
 1168 0070 1B78     		ldrb	r3, [r3]	@ zero_extendqisi2
 1169 0072 012B     		cmp	r3, #1
 1170 0074 01D8     		bhi	.L121
 1171              	.LVL158:
 1172              	.L108:
 123:../switch_sdk/core/yt/yt_ctrlpkt.c ****     CMM_PARAM_CHK((!(CMM_PORT_VALID(unit,port))), CMM_ERR_PORT);
 1173              		.loc 1 123 5 discriminator 5 view .LVU338
 123:../switch_sdk/core/yt/yt_ctrlpkt.c ****     CMM_PARAM_CHK((!(CMM_PORT_VALID(unit,port))), CMM_ERR_PORT);
 1174              		.loc 1 123 5 discriminator 5 view .LVU339
 123:../switch_sdk/core/yt/yt_ctrlpkt.c ****     CMM_PARAM_CHK((!(CMM_PORT_VALID(unit,port))), CMM_ERR_PORT);
 1175              		.loc 1 123 5 discriminator 5 view .LVU340
 1176 0076 0420     		movs	r0, #4
 1177 0078 DCE7     		b	.L101
 1178              	.LVL159:
 1179              	.L121:
 123:../switch_sdk/core/yt/yt_ctrlpkt.c ****     CMM_PARAM_CHK((!(CMM_PORT_VALID(unit,port))), CMM_ERR_PORT);
 1180              		.loc 1 123 5 discriminator 3 view .LVU341
 1181              	.LBB24:
 123:../switch_sdk/core/yt/yt_ctrlpkt.c ****     CMM_PARAM_CHK((!(CMM_PORT_VALID(unit,port))), CMM_ERR_PORT);
 1182              		.loc 1 123 5 discriminator 3 view .LVU342
 1183 007a 164B     		ldr	r3, .L124+16
 1184 007c 1A69     		ldr	r2, [r3, #16]
 1185              	.LVL160:
 123:../switch_sdk/core/yt/yt_ctrlpkt.c ****     CMM_PARAM_CHK((!(CMM_PORT_VALID(unit,port))), CMM_ERR_PORT);
 1186              		.loc 1 123 5 is_stmt 0 discriminator 3 view .LVU343
 1187 007e 164B     		ldr	r3, .L124+20
 1188 0080 9968     		ldr	r1, [r3, #8]
 1189              	.LVL161:
 123:../switch_sdk/core/yt/yt_ctrlpkt.c ****     CMM_PARAM_CHK((!(CMM_PORT_VALID(unit,port))), CMM_ERR_PORT);
 1190              		.loc 1 123 5 discriminator 3 view .LVU344
 1191 0082 1648     		ldr	r0, .L124+24
 1192 0084 FFF7FEFF 		bl	osal_printf
 1193              	.LVL162:
 1194 0088 F5E7     		b	.L108
 1195              	.LVL163:
 1196              	.L109:
 123:../switch_sdk/core/yt/yt_ctrlpkt.c ****     CMM_PARAM_CHK((!(CMM_PORT_VALID(unit,port))), CMM_ERR_PORT);
 1197              		.loc 1 123 5 discriminator 3 view .LVU345
 1198              	.LBE24:
 124:../switch_sdk/core/yt/yt_ctrlpkt.c ****     CMM_PARAM_CHK((L2_ACTION_COPY < act_ctrl || L2_ACTION_FWD > act_ctrl), CMM_ERR_INPUT);
 1199              		.loc 1 124 5 is_stmt 1 discriminator 3 view .LVU346
 124:../switch_sdk/core/yt/yt_ctrlpkt.c ****     CMM_PARAM_CHK((L2_ACTION_COPY < act_ctrl || L2_ACTION_FWD > act_ctrl), CMM_ERR_INPUT);
 1200              		.loc 1 124 5 discriminator 3 view .LVU347
 1201 008a 114B     		ldr	r3, .L124+12
 1202 008c 1B78     		ldrb	r3, [r3]	@ zero_extendqisi2
 1203 008e 012B     		cmp	r3, #1
 1204 0090 01D8     		bhi	.L122
 1205              	.LVL164:
 1206              	.L111:
 124:../switch_sdk/core/yt/yt_ctrlpkt.c ****     CMM_PARAM_CHK((L2_ACTION_COPY < act_ctrl || L2_ACTION_FWD > act_ctrl), CMM_ERR_INPUT);
 1207              		.loc 1 124 5 discriminator 7 view .LVU348
 124:../switch_sdk/core/yt/yt_ctrlpkt.c ****     CMM_PARAM_CHK((L2_ACTION_COPY < act_ctrl || L2_ACTION_FWD > act_ctrl), CMM_ERR_INPUT);
 1208              		.loc 1 124 5 discriminator 7 view .LVU349
 124:../switch_sdk/core/yt/yt_ctrlpkt.c ****     CMM_PARAM_CHK((L2_ACTION_COPY < act_ctrl || L2_ACTION_FWD > act_ctrl), CMM_ERR_INPUT);
 1209              		.loc 1 124 5 discriminator 7 view .LVU350
 1210 0092 0E20     		movs	r0, #14
 1211 0094 CEE7     		b	.L101
 1212              	.LVL165:
 1213              	.L122:
 124:../switch_sdk/core/yt/yt_ctrlpkt.c ****     CMM_PARAM_CHK((L2_ACTION_COPY < act_ctrl || L2_ACTION_FWD > act_ctrl), CMM_ERR_INPUT);
 1214              		.loc 1 124 5 discriminator 5 view .LVU351
 1215              	.LBB25:
 124:../switch_sdk/core/yt/yt_ctrlpkt.c ****     CMM_PARAM_CHK((L2_ACTION_COPY < act_ctrl || L2_ACTION_FWD > act_ctrl), CMM_ERR_INPUT);
 1216              		.loc 1 124 5 discriminator 5 view .LVU352
 1217 0096 0F4B     		ldr	r3, .L124+16
 1218 0098 9A6B     		ldr	r2, [r3, #56]
 1219              	.LVL166:
 124:../switch_sdk/core/yt/yt_ctrlpkt.c ****     CMM_PARAM_CHK((L2_ACTION_COPY < act_ctrl || L2_ACTION_FWD > act_ctrl), CMM_ERR_INPUT);
 1220              		.loc 1 124 5 is_stmt 0 discriminator 5 view .LVU353
 1221 009a 0F4B     		ldr	r3, .L124+20
 1222 009c 9968     		ldr	r1, [r3, #8]
 1223              	.LVL167:
 124:../switch_sdk/core/yt/yt_ctrlpkt.c ****     CMM_PARAM_CHK((L2_ACTION_COPY < act_ctrl || L2_ACTION_FWD > act_ctrl), CMM_ERR_INPUT);
 1224              		.loc 1 124 5 discriminator 5 view .LVU354
 1225 009e 0F48     		ldr	r0, .L124+24
 1226 00a0 FFF7FEFF 		bl	osal_printf
 1227              	.LVL168:
 1228 00a4 F5E7     		b	.L111
 1229              	.LVL169:
 1230              	.L118:
 124:../switch_sdk/core/yt/yt_ctrlpkt.c ****     CMM_PARAM_CHK((L2_ACTION_COPY < act_ctrl || L2_ACTION_FWD > act_ctrl), CMM_ERR_INPUT);
 1231              		.loc 1 124 5 discriminator 5 view .LVU355
 1232              	.LBE25:
 125:../switch_sdk/core/yt/yt_ctrlpkt.c **** 
 1233              		.loc 1 125 5 is_stmt 1 discriminator 1 view .LVU356
 125:../switch_sdk/core/yt/yt_ctrlpkt.c **** 
 1234              		.loc 1 125 5 discriminator 1 view .LVU357
 1235 00a6 0A4B     		ldr	r3, .L124+12
 1236 00a8 1B78     		ldrb	r3, [r3]	@ zero_extendqisi2
 1237 00aa 012B     		cmp	r3, #1
 1238 00ac 01D8     		bhi	.L123
 1239              	.LVL170:
 1240              	.L113:
 125:../switch_sdk/core/yt/yt_ctrlpkt.c **** 
 1241              		.loc 1 125 5 discriminator 5 view .LVU358
 125:../switch_sdk/core/yt/yt_ctrlpkt.c **** 
 1242              		.loc 1 125 5 discriminator 5 view .LVU359
 125:../switch_sdk/core/yt/yt_ctrlpkt.c **** 
 1243              		.loc 1 125 5 discriminator 5 view .LVU360
 1244 00ae 0520     		movs	r0, #5
 1245 00b0 C0E7     		b	.L101
 1246              	.LVL171:
 1247              	.L123:
 125:../switch_sdk/core/yt/yt_ctrlpkt.c **** 
 1248              		.loc 1 125 5 discriminator 3 view .LVU361
 1249              	.LBB26:
 125:../switch_sdk/core/yt/yt_ctrlpkt.c **** 
 1250              		.loc 1 125 5 discriminator 3 view .LVU362
 1251 00b2 084B     		ldr	r3, .L124+16
 1252 00b4 5A69     		ldr	r2, [r3, #20]
 1253              	.LVL172:
 125:../switch_sdk/core/yt/yt_ctrlpkt.c **** 
 1254              		.loc 1 125 5 is_stmt 0 discriminator 3 view .LVU363
 1255 00b6 084B     		ldr	r3, .L124+20
 1256 00b8 9968     		ldr	r1, [r3, #8]
 1257              	.LVL173:
 125:../switch_sdk/core/yt/yt_ctrlpkt.c **** 
 1258              		.loc 1 125 5 discriminator 3 view .LVU364
 1259 00ba 0848     		ldr	r0, .L124+24
 1260 00bc FFF7FEFF 		bl	osal_printf
 1261              	.LVL174:
 1262 00c0 F5E7     		b	.L113
 1263              	.L125:
 1264 00c2 00BF     		.align	2
 1265              	.L124:
 1266 00c4 00000000 		.word	gpfal_dispatch
 1267 00c8 00000000 		.word	gcal_inited
 1268 00cc 00000000 		.word	gpSwitchUnit
 1269 00d0 00000000 		.word	yt_debug_level
 1270 00d4 00000000 		.word	_yt_errmsg
 1271 00d8 00000000 		.word	_yt_prompt_msg
 1272 00dc 00000000 		.word	.LC0
 1273              	.LBE26:
 1274              		.cfi_endproc
 1275              	.LFE7:
 1277              		.section	.text.yt_ctrlpkt_arp_act_get,"ax",%progbits
 1278              		.align	1
 1279              		.global	yt_ctrlpkt_arp_act_get
 1280              		.syntax unified
 1281              		.thumb
 1282              		.thumb_func
 1284              	yt_ctrlpkt_arp_act_get:
 1285              	.LVL175:
 1286              	.LFB8:
 129:../switch_sdk/core/yt/yt_ctrlpkt.c **** 
 130:../switch_sdk/core/yt/yt_ctrlpkt.c **** /**
 131:../switch_sdk/core/yt/yt_ctrlpkt.c ****  * @internal      yt_ctrlpkt_arp_act_get
 132:../switch_sdk/core/yt/yt_ctrlpkt.c ****  * @endinternal
 133:../switch_sdk/core/yt/yt_ctrlpkt.c ****  *
 134:../switch_sdk/core/yt/yt_ctrlpkt.c ****  * @brief         Description
 135:../switch_sdk/core/yt/yt_ctrlpkt.c ****  * @param[in]     unit                -unit id
 136:../switch_sdk/core/yt/yt_ctrlpkt.c ****  * @param[in]     port                -port num
 137:../switch_sdk/core/yt/yt_ctrlpkt.c ****  * @param[out]    pAct_ctrl           -l2 packet action,FWD,TRAP,DROP,COPY
 138:../switch_sdk/core/yt/yt_ctrlpkt.c ****  * @retval        CMM_ERR_OK          -on success
 139:../switch_sdk/core/yt/yt_ctrlpkt.c ****  * @retval        CMM_ERR_FAIL        -on fail
 140:../switch_sdk/core/yt/yt_ctrlpkt.c ****  */
 141:../switch_sdk/core/yt/yt_ctrlpkt.c **** yt_ret_t yt_ctrlpkt_arp_act_get(yt_unit_t unit, yt_port_t port, yt_ctrlpkt_l2_action_t *pAct_ctrl)
 142:../switch_sdk/core/yt/yt_ctrlpkt.c **** {
 1287              		.loc 1 142 1 is_stmt 1 view -0
 1288              		.cfi_startproc
 1289              		@ args = 0, pretend = 0, frame = 0
 1290              		@ frame_needed = 0, uses_anonymous_args = 0
 1291              		.loc 1 142 1 is_stmt 0 view .LVU366
 1292 0000 08B5     		push	{r3, lr}
 1293              		.cfi_def_cfa_offset 8
 1294              		.cfi_offset 3, -8
 1295              		.cfi_offset 14, -4
 143:../switch_sdk/core/yt/yt_ctrlpkt.c ****     CMM_PARAM_CHK((YT_UNIT_NUM <= unit), CMM_ERR_INPUT);
 1296              		.loc 1 143 5 is_stmt 1 view .LVU367
 1297              		.loc 1 143 5 view .LVU368
 1298 0002 C0B9     		cbnz	r0, .L140
 1299 0004 8446     		mov	ip, r0
 1300              		.loc 1 143 5 discriminator 2 view .LVU369
 144:../switch_sdk/core/yt/yt_ctrlpkt.c ****     CMM_PARAM_CHK(NULL == YT_DISPATCH(unit), CMM_ERR_NOT_INIT);
 1301              		.loc 1 144 5 discriminator 2 view .LVU370
 1302              		.loc 1 144 5 discriminator 2 view .LVU371
 1303 0006 2F4B     		ldr	r3, .L149
 1304 0008 53F82030 		ldr	r3, [r3, r0, lsl #2]
 1305 000c 0BB3     		cbz	r3, .L141
 1306              		.loc 1 144 5 discriminator 2 view .LVU372
 145:../switch_sdk/core/yt/yt_ctrlpkt.c ****     CMM_PARAM_CHK((!(YT_DISPATCH(unit)->is_inited)), CMM_ERR_NOT_INIT);
 1307              		.loc 1 145 5 discriminator 2 view .LVU373
 1308              		.loc 1 145 5 discriminator 2 view .LVU374
 1309 000e 1878     		ldrb	r0, [r3]	@ zero_extendqisi2
 1310              	.LVL176:
 1311              		.loc 1 145 5 is_stmt 0 discriminator 2 view .LVU375
 1312 0010 0028     		cmp	r0, #0
 1313 0012 2CD0     		beq	.L142
 1314              		.loc 1 145 5 is_stmt 1 discriminator 2 view .LVU376
 146:../switch_sdk/core/yt/yt_ctrlpkt.c ****     CMM_PARAM_CHK((!(CMM_PORT_VALID(unit,port))), CMM_ERR_PORT);
 1315              		.loc 1 146 5 discriminator 2 view .LVU377
 1316              		.loc 1 146 5 discriminator 2 view .LVU378
 1317 0014 2C48     		ldr	r0, .L149+4
 1318 0016 0078     		ldrb	r0, [r0]	@ zero_extendqisi2
 1319 0018 0028     		cmp	r0, #0
 1320 001a 36D0     		beq	.L134
 1321 001c 2B48     		ldr	r0, .L149+8
 1322 001e 50F82C00 		ldr	r0, [r0, ip, lsl #2]
 1323 0022 007D     		ldrb	r0, [r0, #20]	@ zero_extendqisi2
 1324 0024 8842     		cmp	r0, r1
 1325 0026 30D9     		bls	.L134
 1326              		.loc 1 146 5 discriminator 4 view .LVU379
 147:../switch_sdk/core/yt/yt_ctrlpkt.c ****     CMM_PARAM_CHK((NULL == pAct_ctrl), CMM_ERR_NULL_POINT);
 1327              		.loc 1 147 5 discriminator 4 view .LVU380
 1328              		.loc 1 147 5 discriminator 4 view .LVU381
 1329 0028 002A     		cmp	r2, #0
 1330 002a 3CD0     		beq	.L143
 1331              		.loc 1 147 5 discriminator 2 view .LVU382
 148:../switch_sdk/core/yt/yt_ctrlpkt.c **** 
 149:../switch_sdk/core/yt/yt_ctrlpkt.c ****     return YT_DISPATCH(unit)->ctrlpkt_arp_act_get(unit, port, pAct_ctrl);
 1332              		.loc 1 149 5 discriminator 2 view .LVU383
 1333              		.loc 1 149 29 is_stmt 0 discriminator 2 view .LVU384
 1334 002c D3F82C36 		ldr	r3, [r3, #1580]
 1335              		.loc 1 149 12 discriminator 2 view .LVU385
 1336 0030 6046     		mov	r0, ip
 1337 0032 9847     		blx	r3
 1338              	.LVL177:
 1339              	.L126:
 150:../switch_sdk/core/yt/yt_ctrlpkt.c **** }
 1340              		.loc 1 150 1 view .LVU386
 1341 0034 08BD     		pop	{r3, pc}
 1342              	.LVL178:
 1343              	.L140:
 143:../switch_sdk/core/yt/yt_ctrlpkt.c ****     CMM_PARAM_CHK(NULL == YT_DISPATCH(unit), CMM_ERR_NOT_INIT);
 1344              		.loc 1 143 5 is_stmt 1 discriminator 1 view .LVU387
 143:../switch_sdk/core/yt/yt_ctrlpkt.c ****     CMM_PARAM_CHK(NULL == YT_DISPATCH(unit), CMM_ERR_NOT_INIT);
 1345              		.loc 1 143 5 discriminator 1 view .LVU388
 1346 0036 264B     		ldr	r3, .L149+12
 1347 0038 1B78     		ldrb	r3, [r3]	@ zero_extendqisi2
 1348 003a 012B     		cmp	r3, #1
 1349 003c 01D8     		bhi	.L144
 1350              	.LVL179:
 1351              	.L128:
 143:../switch_sdk/core/yt/yt_ctrlpkt.c ****     CMM_PARAM_CHK(NULL == YT_DISPATCH(unit), CMM_ERR_NOT_INIT);
 1352              		.loc 1 143 5 discriminator 5 view .LVU389
 143:../switch_sdk/core/yt/yt_ctrlpkt.c ****     CMM_PARAM_CHK(NULL == YT_DISPATCH(unit), CMM_ERR_NOT_INIT);
 1353              		.loc 1 143 5 discriminator 5 view .LVU390
 143:../switch_sdk/core/yt/yt_ctrlpkt.c ****     CMM_PARAM_CHK(NULL == YT_DISPATCH(unit), CMM_ERR_NOT_INIT);
 1354              		.loc 1 143 5 discriminator 5 view .LVU391
 1355 003e 0520     		movs	r0, #5
 1356 0040 F8E7     		b	.L126
 1357              	.LVL180:
 1358              	.L144:
 143:../switch_sdk/core/yt/yt_ctrlpkt.c ****     CMM_PARAM_CHK(NULL == YT_DISPATCH(unit), CMM_ERR_NOT_INIT);
 1359              		.loc 1 143 5 discriminator 3 view .LVU392
 1360              	.LBB27:
 143:../switch_sdk/core/yt/yt_ctrlpkt.c ****     CMM_PARAM_CHK(NULL == YT_DISPATCH(unit), CMM_ERR_NOT_INIT);
 1361              		.loc 1 143 5 discriminator 3 view .LVU393
 1362 0042 244B     		ldr	r3, .L149+16
 1363 0044 5A69     		ldr	r2, [r3, #20]
 1364              	.LVL181:
 143:../switch_sdk/core/yt/yt_ctrlpkt.c ****     CMM_PARAM_CHK(NULL == YT_DISPATCH(unit), CMM_ERR_NOT_INIT);
 1365              		.loc 1 143 5 is_stmt 0 discriminator 3 view .LVU394
 1366 0046 244B     		ldr	r3, .L149+20
 1367 0048 9968     		ldr	r1, [r3, #8]
 1368              	.LVL182:
 143:../switch_sdk/core/yt/yt_ctrlpkt.c ****     CMM_PARAM_CHK(NULL == YT_DISPATCH(unit), CMM_ERR_NOT_INIT);
 1369              		.loc 1 143 5 discriminator 3 view .LVU395
 1370 004a 2448     		ldr	r0, .L149+24
 1371              	.LVL183:
 143:../switch_sdk/core/yt/yt_ctrlpkt.c ****     CMM_PARAM_CHK(NULL == YT_DISPATCH(unit), CMM_ERR_NOT_INIT);
 1372              		.loc 1 143 5 discriminator 3 view .LVU396
 1373 004c FFF7FEFF 		bl	osal_printf
 1374              	.LVL184:
 1375 0050 F5E7     		b	.L128
 1376              	.LVL185:
 1377              	.L141:
 143:../switch_sdk/core/yt/yt_ctrlpkt.c ****     CMM_PARAM_CHK(NULL == YT_DISPATCH(unit), CMM_ERR_NOT_INIT);
 1378              		.loc 1 143 5 discriminator 3 view .LVU397
 1379              	.LBE27:
 144:../switch_sdk/core/yt/yt_ctrlpkt.c ****     CMM_PARAM_CHK((!(YT_DISPATCH(unit)->is_inited)), CMM_ERR_NOT_INIT);
 1380              		.loc 1 144 5 is_stmt 1 discriminator 1 view .LVU398
 144:../switch_sdk/core/yt/yt_ctrlpkt.c ****     CMM_PARAM_CHK((!(YT_DISPATCH(unit)->is_inited)), CMM_ERR_NOT_INIT);
 1381              		.loc 1 144 5 discriminator 1 view .LVU399
 1382 0052 1F4B     		ldr	r3, .L149+12
 1383 0054 1B78     		ldrb	r3, [r3]	@ zero_extendqisi2
 1384 0056 012B     		cmp	r3, #1
 1385 0058 01D8     		bhi	.L145
 1386              	.LVL186:
 1387              	.L131:
 144:../switch_sdk/core/yt/yt_ctrlpkt.c ****     CMM_PARAM_CHK((!(YT_DISPATCH(unit)->is_inited)), CMM_ERR_NOT_INIT);
 1388              		.loc 1 144 5 discriminator 5 view .LVU400
 144:../switch_sdk/core/yt/yt_ctrlpkt.c ****     CMM_PARAM_CHK((!(YT_DISPATCH(unit)->is_inited)), CMM_ERR_NOT_INIT);
 1389              		.loc 1 144 5 discriminator 5 view .LVU401
 144:../switch_sdk/core/yt/yt_ctrlpkt.c ****     CMM_PARAM_CHK((!(YT_DISPATCH(unit)->is_inited)), CMM_ERR_NOT_INIT);
 1390              		.loc 1 144 5 discriminator 5 view .LVU402
 1391 005a 0420     		movs	r0, #4
 1392 005c EAE7     		b	.L126
 1393              	.LVL187:
 1394              	.L145:
 144:../switch_sdk/core/yt/yt_ctrlpkt.c ****     CMM_PARAM_CHK((!(YT_DISPATCH(unit)->is_inited)), CMM_ERR_NOT_INIT);
 1395              		.loc 1 144 5 discriminator 3 view .LVU403
 1396              	.LBB28:
 144:../switch_sdk/core/yt/yt_ctrlpkt.c ****     CMM_PARAM_CHK((!(YT_DISPATCH(unit)->is_inited)), CMM_ERR_NOT_INIT);
 1397              		.loc 1 144 5 discriminator 3 view .LVU404
 1398 005e 1D4B     		ldr	r3, .L149+16
 1399 0060 1A69     		ldr	r2, [r3, #16]
 1400              	.LVL188:
 144:../switch_sdk/core/yt/yt_ctrlpkt.c ****     CMM_PARAM_CHK((!(YT_DISPATCH(unit)->is_inited)), CMM_ERR_NOT_INIT);
 1401              		.loc 1 144 5 is_stmt 0 discriminator 3 view .LVU405
 1402 0062 1D4B     		ldr	r3, .L149+20
 1403 0064 9968     		ldr	r1, [r3, #8]
 1404              	.LVL189:
 144:../switch_sdk/core/yt/yt_ctrlpkt.c ****     CMM_PARAM_CHK((!(YT_DISPATCH(unit)->is_inited)), CMM_ERR_NOT_INIT);
 1405              		.loc 1 144 5 discriminator 3 view .LVU406
 1406 0066 1D48     		ldr	r0, .L149+24
 1407              	.LVL190:
 144:../switch_sdk/core/yt/yt_ctrlpkt.c ****     CMM_PARAM_CHK((!(YT_DISPATCH(unit)->is_inited)), CMM_ERR_NOT_INIT);
 1408              		.loc 1 144 5 discriminator 3 view .LVU407
 1409 0068 FFF7FEFF 		bl	osal_printf
 1410              	.LVL191:
 1411 006c F5E7     		b	.L131
 1412              	.LVL192:
 1413              	.L142:
 144:../switch_sdk/core/yt/yt_ctrlpkt.c ****     CMM_PARAM_CHK((!(YT_DISPATCH(unit)->is_inited)), CMM_ERR_NOT_INIT);
 1414              		.loc 1 144 5 discriminator 3 view .LVU408
 1415              	.LBE28:
 145:../switch_sdk/core/yt/yt_ctrlpkt.c ****     CMM_PARAM_CHK((!(CMM_PORT_VALID(unit,port))), CMM_ERR_PORT);
 1416              		.loc 1 145 5 is_stmt 1 discriminator 1 view .LVU409
 145:../switch_sdk/core/yt/yt_ctrlpkt.c ****     CMM_PARAM_CHK((!(CMM_PORT_VALID(unit,port))), CMM_ERR_PORT);
 1417              		.loc 1 145 5 discriminator 1 view .LVU410
 1418 006e 184B     		ldr	r3, .L149+12
 1419 0070 1B78     		ldrb	r3, [r3]	@ zero_extendqisi2
 1420 0072 012B     		cmp	r3, #1
 1421 0074 01D8     		bhi	.L146
 1422              	.LVL193:
 1423              	.L133:
 145:../switch_sdk/core/yt/yt_ctrlpkt.c ****     CMM_PARAM_CHK((!(CMM_PORT_VALID(unit,port))), CMM_ERR_PORT);
 1424              		.loc 1 145 5 discriminator 5 view .LVU411
 145:../switch_sdk/core/yt/yt_ctrlpkt.c ****     CMM_PARAM_CHK((!(CMM_PORT_VALID(unit,port))), CMM_ERR_PORT);
 1425              		.loc 1 145 5 discriminator 5 view .LVU412
 145:../switch_sdk/core/yt/yt_ctrlpkt.c ****     CMM_PARAM_CHK((!(CMM_PORT_VALID(unit,port))), CMM_ERR_PORT);
 1426              		.loc 1 145 5 discriminator 5 view .LVU413
 1427 0076 0420     		movs	r0, #4
 1428 0078 DCE7     		b	.L126
 1429              	.LVL194:
 1430              	.L146:
 145:../switch_sdk/core/yt/yt_ctrlpkt.c ****     CMM_PARAM_CHK((!(CMM_PORT_VALID(unit,port))), CMM_ERR_PORT);
 1431              		.loc 1 145 5 discriminator 3 view .LVU414
 1432              	.LBB29:
 145:../switch_sdk/core/yt/yt_ctrlpkt.c ****     CMM_PARAM_CHK((!(CMM_PORT_VALID(unit,port))), CMM_ERR_PORT);
 1433              		.loc 1 145 5 discriminator 3 view .LVU415
 1434 007a 164B     		ldr	r3, .L149+16
 1435 007c 1A69     		ldr	r2, [r3, #16]
 1436              	.LVL195:
 145:../switch_sdk/core/yt/yt_ctrlpkt.c ****     CMM_PARAM_CHK((!(CMM_PORT_VALID(unit,port))), CMM_ERR_PORT);
 1437              		.loc 1 145 5 is_stmt 0 discriminator 3 view .LVU416
 1438 007e 164B     		ldr	r3, .L149+20
 1439 0080 9968     		ldr	r1, [r3, #8]
 1440              	.LVL196:
 145:../switch_sdk/core/yt/yt_ctrlpkt.c ****     CMM_PARAM_CHK((!(CMM_PORT_VALID(unit,port))), CMM_ERR_PORT);
 1441              		.loc 1 145 5 discriminator 3 view .LVU417
 1442 0082 1648     		ldr	r0, .L149+24
 1443 0084 FFF7FEFF 		bl	osal_printf
 1444              	.LVL197:
 1445 0088 F5E7     		b	.L133
 1446              	.LVL198:
 1447              	.L134:
 145:../switch_sdk/core/yt/yt_ctrlpkt.c ****     CMM_PARAM_CHK((!(CMM_PORT_VALID(unit,port))), CMM_ERR_PORT);
 1448              		.loc 1 145 5 discriminator 3 view .LVU418
 1449              	.LBE29:
 146:../switch_sdk/core/yt/yt_ctrlpkt.c ****     CMM_PARAM_CHK((NULL == pAct_ctrl), CMM_ERR_NULL_POINT);
 1450              		.loc 1 146 5 is_stmt 1 discriminator 3 view .LVU419
 146:../switch_sdk/core/yt/yt_ctrlpkt.c ****     CMM_PARAM_CHK((NULL == pAct_ctrl), CMM_ERR_NULL_POINT);
 1451              		.loc 1 146 5 discriminator 3 view .LVU420
 1452 008a 114B     		ldr	r3, .L149+12
 1453 008c 1B78     		ldrb	r3, [r3]	@ zero_extendqisi2
 1454 008e 012B     		cmp	r3, #1
 1455 0090 01D8     		bhi	.L147
 1456              	.LVL199:
 1457              	.L136:
 146:../switch_sdk/core/yt/yt_ctrlpkt.c ****     CMM_PARAM_CHK((NULL == pAct_ctrl), CMM_ERR_NULL_POINT);
 1458              		.loc 1 146 5 discriminator 7 view .LVU421
 146:../switch_sdk/core/yt/yt_ctrlpkt.c ****     CMM_PARAM_CHK((NULL == pAct_ctrl), CMM_ERR_NULL_POINT);
 1459              		.loc 1 146 5 discriminator 7 view .LVU422
 146:../switch_sdk/core/yt/yt_ctrlpkt.c ****     CMM_PARAM_CHK((NULL == pAct_ctrl), CMM_ERR_NULL_POINT);
 1460              		.loc 1 146 5 discriminator 7 view .LVU423
 1461 0092 0E20     		movs	r0, #14
 1462 0094 CEE7     		b	.L126
 1463              	.LVL200:
 1464              	.L147:
 146:../switch_sdk/core/yt/yt_ctrlpkt.c ****     CMM_PARAM_CHK((NULL == pAct_ctrl), CMM_ERR_NULL_POINT);
 1465              		.loc 1 146 5 discriminator 5 view .LVU424
 1466              	.LBB30:
 146:../switch_sdk/core/yt/yt_ctrlpkt.c ****     CMM_PARAM_CHK((NULL == pAct_ctrl), CMM_ERR_NULL_POINT);
 1467              		.loc 1 146 5 discriminator 5 view .LVU425
 1468 0096 0F4B     		ldr	r3, .L149+16
 1469 0098 9A6B     		ldr	r2, [r3, #56]
 1470              	.LVL201:
 146:../switch_sdk/core/yt/yt_ctrlpkt.c ****     CMM_PARAM_CHK((NULL == pAct_ctrl), CMM_ERR_NULL_POINT);
 1471              		.loc 1 146 5 is_stmt 0 discriminator 5 view .LVU426
 1472 009a 0F4B     		ldr	r3, .L149+20
 1473 009c 9968     		ldr	r1, [r3, #8]
 1474              	.LVL202:
 146:../switch_sdk/core/yt/yt_ctrlpkt.c ****     CMM_PARAM_CHK((NULL == pAct_ctrl), CMM_ERR_NULL_POINT);
 1475              		.loc 1 146 5 discriminator 5 view .LVU427
 1476 009e 0F48     		ldr	r0, .L149+24
 1477 00a0 FFF7FEFF 		bl	osal_printf
 1478              	.LVL203:
 1479 00a4 F5E7     		b	.L136
 1480              	.LVL204:
 1481              	.L143:
 146:../switch_sdk/core/yt/yt_ctrlpkt.c ****     CMM_PARAM_CHK((NULL == pAct_ctrl), CMM_ERR_NULL_POINT);
 1482              		.loc 1 146 5 discriminator 5 view .LVU428
 1483              	.LBE30:
 147:../switch_sdk/core/yt/yt_ctrlpkt.c **** 
 1484              		.loc 1 147 5 is_stmt 1 discriminator 1 view .LVU429
 147:../switch_sdk/core/yt/yt_ctrlpkt.c **** 
 1485              		.loc 1 147 5 discriminator 1 view .LVU430
 1486 00a6 0A4B     		ldr	r3, .L149+12
 1487 00a8 1B78     		ldrb	r3, [r3]	@ zero_extendqisi2
 1488 00aa 012B     		cmp	r3, #1
 1489 00ac 01D8     		bhi	.L148
 1490              	.LVL205:
 1491              	.L138:
 147:../switch_sdk/core/yt/yt_ctrlpkt.c **** 
 1492              		.loc 1 147 5 discriminator 5 view .LVU431
 147:../switch_sdk/core/yt/yt_ctrlpkt.c **** 
 1493              		.loc 1 147 5 discriminator 5 view .LVU432
 147:../switch_sdk/core/yt/yt_ctrlpkt.c **** 
 1494              		.loc 1 147 5 discriminator 5 view .LVU433
 1495 00ae 0220     		movs	r0, #2
 1496 00b0 C0E7     		b	.L126
 1497              	.LVL206:
 1498              	.L148:
 147:../switch_sdk/core/yt/yt_ctrlpkt.c **** 
 1499              		.loc 1 147 5 discriminator 3 view .LVU434
 1500              	.LBB31:
 147:../switch_sdk/core/yt/yt_ctrlpkt.c **** 
 1501              		.loc 1 147 5 discriminator 3 view .LVU435
 1502 00b2 084B     		ldr	r3, .L149+16
 1503 00b4 9A68     		ldr	r2, [r3, #8]
 1504              	.LVL207:
 147:../switch_sdk/core/yt/yt_ctrlpkt.c **** 
 1505              		.loc 1 147 5 is_stmt 0 discriminator 3 view .LVU436
 1506 00b6 084B     		ldr	r3, .L149+20
 1507 00b8 9968     		ldr	r1, [r3, #8]
 1508              	.LVL208:
 147:../switch_sdk/core/yt/yt_ctrlpkt.c **** 
 1509              		.loc 1 147 5 discriminator 3 view .LVU437
 1510 00ba 0848     		ldr	r0, .L149+24
 1511 00bc FFF7FEFF 		bl	osal_printf
 1512              	.LVL209:
 1513 00c0 F5E7     		b	.L138
 1514              	.L150:
 1515 00c2 00BF     		.align	2
 1516              	.L149:
 1517 00c4 00000000 		.word	gpfal_dispatch
 1518 00c8 00000000 		.word	gcal_inited
 1519 00cc 00000000 		.word	gpSwitchUnit
 1520 00d0 00000000 		.word	yt_debug_level
 1521 00d4 00000000 		.word	_yt_errmsg
 1522 00d8 00000000 		.word	_yt_prompt_msg
 1523 00dc 00000000 		.word	.LC0
 1524              	.LBE31:
 1525              		.cfi_endproc
 1526              	.LFE8:
 1528              		.section	.text.yt_ctrlpkt_nd_act_set,"ax",%progbits
 1529              		.align	1
 1530              		.global	yt_ctrlpkt_nd_act_set
 1531              		.syntax unified
 1532              		.thumb
 1533              		.thumb_func
 1535              	yt_ctrlpkt_nd_act_set:
 1536              	.LVL210:
 1537              	.LFB9:
 151:../switch_sdk/core/yt/yt_ctrlpkt.c **** 
 152:../switch_sdk/core/yt/yt_ctrlpkt.c **** /**
 153:../switch_sdk/core/yt/yt_ctrlpkt.c ****  * @internal      yt_ctrlpkt_nd_act_set
 154:../switch_sdk/core/yt/yt_ctrlpkt.c ****  * @endinternal
 155:../switch_sdk/core/yt/yt_ctrlpkt.c ****  *
 156:../switch_sdk/core/yt/yt_ctrlpkt.c ****  * @brief         Description
 157:../switch_sdk/core/yt/yt_ctrlpkt.c ****  * @param[in]     unit                -unit id
 158:../switch_sdk/core/yt/yt_ctrlpkt.c ****  * @param[in]     port                -port num
 159:../switch_sdk/core/yt/yt_ctrlpkt.c ****  * @param[in]     act_ctrl            -l2 packet action,FWD,TRAP,DROP,COPY
 160:../switch_sdk/core/yt/yt_ctrlpkt.c ****  * @retval        CMM_ERR_OK          -on success
 161:../switch_sdk/core/yt/yt_ctrlpkt.c ****  * @retval        CMM_ERR_FAIL        -on fail
 162:../switch_sdk/core/yt/yt_ctrlpkt.c ****  */
 163:../switch_sdk/core/yt/yt_ctrlpkt.c **** yt_ret_t yt_ctrlpkt_nd_act_set(yt_unit_t unit, yt_port_t port, yt_ctrlpkt_l2_action_t act_ctrl)
 164:../switch_sdk/core/yt/yt_ctrlpkt.c **** {
 1538              		.loc 1 164 1 is_stmt 1 view -0
 1539              		.cfi_startproc
 1540              		@ args = 0, pretend = 0, frame = 0
 1541              		@ frame_needed = 0, uses_anonymous_args = 0
 1542              		.loc 1 164 1 is_stmt 0 view .LVU439
 1543 0000 08B5     		push	{r3, lr}
 1544              		.cfi_def_cfa_offset 8
 1545              		.cfi_offset 3, -8
 1546              		.cfi_offset 14, -4
 165:../switch_sdk/core/yt/yt_ctrlpkt.c ****     CMM_PARAM_CHK((YT_UNIT_NUM <= unit), CMM_ERR_INPUT);
 1547              		.loc 1 165 5 is_stmt 1 view .LVU440
 1548              		.loc 1 165 5 view .LVU441
 1549 0002 C0B9     		cbnz	r0, .L165
 1550 0004 8446     		mov	ip, r0
 1551              		.loc 1 165 5 discriminator 2 view .LVU442
 166:../switch_sdk/core/yt/yt_ctrlpkt.c ****     CMM_PARAM_CHK(NULL == YT_DISPATCH(unit), CMM_ERR_NOT_INIT);
 1552              		.loc 1 166 5 discriminator 2 view .LVU443
 1553              		.loc 1 166 5 discriminator 2 view .LVU444
 1554 0006 2F4B     		ldr	r3, .L174
 1555 0008 53F82030 		ldr	r3, [r3, r0, lsl #2]
 1556 000c 0BB3     		cbz	r3, .L166
 1557              		.loc 1 166 5 discriminator 2 view .LVU445
 167:../switch_sdk/core/yt/yt_ctrlpkt.c ****     CMM_PARAM_CHK((!(YT_DISPATCH(unit)->is_inited)), CMM_ERR_NOT_INIT);
 1558              		.loc 1 167 5 discriminator 2 view .LVU446
 1559              		.loc 1 167 5 discriminator 2 view .LVU447
 1560 000e 1878     		ldrb	r0, [r3]	@ zero_extendqisi2
 1561              	.LVL211:
 1562              		.loc 1 167 5 is_stmt 0 discriminator 2 view .LVU448
 1563 0010 0028     		cmp	r0, #0
 1564 0012 2CD0     		beq	.L167
 1565              		.loc 1 167 5 is_stmt 1 discriminator 2 view .LVU449
 168:../switch_sdk/core/yt/yt_ctrlpkt.c ****     CMM_PARAM_CHK((!(CMM_PORT_VALID(unit,port))), CMM_ERR_PORT);
 1566              		.loc 1 168 5 discriminator 2 view .LVU450
 1567              		.loc 1 168 5 discriminator 2 view .LVU451
 1568 0014 2C48     		ldr	r0, .L174+4
 1569 0016 0078     		ldrb	r0, [r0]	@ zero_extendqisi2
 1570 0018 0028     		cmp	r0, #0
 1571 001a 36D0     		beq	.L159
 1572 001c 2B48     		ldr	r0, .L174+8
 1573 001e 50F82C00 		ldr	r0, [r0, ip, lsl #2]
 1574 0022 007D     		ldrb	r0, [r0, #20]	@ zero_extendqisi2
 1575 0024 8842     		cmp	r0, r1
 1576 0026 30D9     		bls	.L159
 1577              		.loc 1 168 5 discriminator 4 view .LVU452
 169:../switch_sdk/core/yt/yt_ctrlpkt.c ****     CMM_PARAM_CHK((L2_ACTION_COPY < act_ctrl || L2_ACTION_FWD > act_ctrl), CMM_ERR_INPUT);
 1578              		.loc 1 169 5 discriminator 4 view .LVU453
 1579              		.loc 1 169 5 discriminator 4 view .LVU454
 1580 0028 032A     		cmp	r2, #3
 1581 002a 3CD8     		bhi	.L168
 1582              		.loc 1 169 5 discriminator 2 view .LVU455
 170:../switch_sdk/core/yt/yt_ctrlpkt.c ****     
 171:../switch_sdk/core/yt/yt_ctrlpkt.c ****     return YT_DISPATCH(unit)->ctrlpkt_nd_act_set(unit, port, act_ctrl);
 1583              		.loc 1 171 5 discriminator 2 view .LVU456
 1584              		.loc 1 171 29 is_stmt 0 discriminator 2 view .LVU457
 1585 002c D3F83036 		ldr	r3, [r3, #1584]
 1586              		.loc 1 171 12 discriminator 2 view .LVU458
 1587 0030 6046     		mov	r0, ip
 1588 0032 9847     		blx	r3
 1589              	.LVL212:
 1590              	.L151:
 172:../switch_sdk/core/yt/yt_ctrlpkt.c **** }
 1591              		.loc 1 172 1 view .LVU459
 1592 0034 08BD     		pop	{r3, pc}
 1593              	.LVL213:
 1594              	.L165:
 165:../switch_sdk/core/yt/yt_ctrlpkt.c ****     CMM_PARAM_CHK(NULL == YT_DISPATCH(unit), CMM_ERR_NOT_INIT);
 1595              		.loc 1 165 5 is_stmt 1 discriminator 1 view .LVU460
 165:../switch_sdk/core/yt/yt_ctrlpkt.c ****     CMM_PARAM_CHK(NULL == YT_DISPATCH(unit), CMM_ERR_NOT_INIT);
 1596              		.loc 1 165 5 discriminator 1 view .LVU461
 1597 0036 264B     		ldr	r3, .L174+12
 1598 0038 1B78     		ldrb	r3, [r3]	@ zero_extendqisi2
 1599 003a 012B     		cmp	r3, #1
 1600 003c 01D8     		bhi	.L169
 1601              	.LVL214:
 1602              	.L153:
 165:../switch_sdk/core/yt/yt_ctrlpkt.c ****     CMM_PARAM_CHK(NULL == YT_DISPATCH(unit), CMM_ERR_NOT_INIT);
 1603              		.loc 1 165 5 discriminator 5 view .LVU462
 165:../switch_sdk/core/yt/yt_ctrlpkt.c ****     CMM_PARAM_CHK(NULL == YT_DISPATCH(unit), CMM_ERR_NOT_INIT);
 1604              		.loc 1 165 5 discriminator 5 view .LVU463
 165:../switch_sdk/core/yt/yt_ctrlpkt.c ****     CMM_PARAM_CHK(NULL == YT_DISPATCH(unit), CMM_ERR_NOT_INIT);
 1605              		.loc 1 165 5 discriminator 5 view .LVU464
 1606 003e 0520     		movs	r0, #5
 1607 0040 F8E7     		b	.L151
 1608              	.LVL215:
 1609              	.L169:
 165:../switch_sdk/core/yt/yt_ctrlpkt.c ****     CMM_PARAM_CHK(NULL == YT_DISPATCH(unit), CMM_ERR_NOT_INIT);
 1610              		.loc 1 165 5 discriminator 3 view .LVU465
 1611              	.LBB32:
 165:../switch_sdk/core/yt/yt_ctrlpkt.c ****     CMM_PARAM_CHK(NULL == YT_DISPATCH(unit), CMM_ERR_NOT_INIT);
 1612              		.loc 1 165 5 discriminator 3 view .LVU466
 1613 0042 244B     		ldr	r3, .L174+16
 1614 0044 5A69     		ldr	r2, [r3, #20]
 1615              	.LVL216:
 165:../switch_sdk/core/yt/yt_ctrlpkt.c ****     CMM_PARAM_CHK(NULL == YT_DISPATCH(unit), CMM_ERR_NOT_INIT);
 1616              		.loc 1 165 5 is_stmt 0 discriminator 3 view .LVU467
 1617 0046 244B     		ldr	r3, .L174+20
 1618 0048 9968     		ldr	r1, [r3, #8]
 1619              	.LVL217:
 165:../switch_sdk/core/yt/yt_ctrlpkt.c ****     CMM_PARAM_CHK(NULL == YT_DISPATCH(unit), CMM_ERR_NOT_INIT);
 1620              		.loc 1 165 5 discriminator 3 view .LVU468
 1621 004a 2448     		ldr	r0, .L174+24
 1622              	.LVL218:
 165:../switch_sdk/core/yt/yt_ctrlpkt.c ****     CMM_PARAM_CHK(NULL == YT_DISPATCH(unit), CMM_ERR_NOT_INIT);
 1623              		.loc 1 165 5 discriminator 3 view .LVU469
 1624 004c FFF7FEFF 		bl	osal_printf
 1625              	.LVL219:
 1626 0050 F5E7     		b	.L153
 1627              	.LVL220:
 1628              	.L166:
 165:../switch_sdk/core/yt/yt_ctrlpkt.c ****     CMM_PARAM_CHK(NULL == YT_DISPATCH(unit), CMM_ERR_NOT_INIT);
 1629              		.loc 1 165 5 discriminator 3 view .LVU470
 1630              	.LBE32:
 166:../switch_sdk/core/yt/yt_ctrlpkt.c ****     CMM_PARAM_CHK((!(YT_DISPATCH(unit)->is_inited)), CMM_ERR_NOT_INIT);
 1631              		.loc 1 166 5 is_stmt 1 discriminator 1 view .LVU471
 166:../switch_sdk/core/yt/yt_ctrlpkt.c ****     CMM_PARAM_CHK((!(YT_DISPATCH(unit)->is_inited)), CMM_ERR_NOT_INIT);
 1632              		.loc 1 166 5 discriminator 1 view .LVU472
 1633 0052 1F4B     		ldr	r3, .L174+12
 1634 0054 1B78     		ldrb	r3, [r3]	@ zero_extendqisi2
 1635 0056 012B     		cmp	r3, #1
 1636 0058 01D8     		bhi	.L170
 1637              	.LVL221:
 1638              	.L156:
 166:../switch_sdk/core/yt/yt_ctrlpkt.c ****     CMM_PARAM_CHK((!(YT_DISPATCH(unit)->is_inited)), CMM_ERR_NOT_INIT);
 1639              		.loc 1 166 5 discriminator 5 view .LVU473
 166:../switch_sdk/core/yt/yt_ctrlpkt.c ****     CMM_PARAM_CHK((!(YT_DISPATCH(unit)->is_inited)), CMM_ERR_NOT_INIT);
 1640              		.loc 1 166 5 discriminator 5 view .LVU474
 166:../switch_sdk/core/yt/yt_ctrlpkt.c ****     CMM_PARAM_CHK((!(YT_DISPATCH(unit)->is_inited)), CMM_ERR_NOT_INIT);
 1641              		.loc 1 166 5 discriminator 5 view .LVU475
 1642 005a 0420     		movs	r0, #4
 1643 005c EAE7     		b	.L151
 1644              	.LVL222:
 1645              	.L170:
 166:../switch_sdk/core/yt/yt_ctrlpkt.c ****     CMM_PARAM_CHK((!(YT_DISPATCH(unit)->is_inited)), CMM_ERR_NOT_INIT);
 1646              		.loc 1 166 5 discriminator 3 view .LVU476
 1647              	.LBB33:
 166:../switch_sdk/core/yt/yt_ctrlpkt.c ****     CMM_PARAM_CHK((!(YT_DISPATCH(unit)->is_inited)), CMM_ERR_NOT_INIT);
 1648              		.loc 1 166 5 discriminator 3 view .LVU477
 1649 005e 1D4B     		ldr	r3, .L174+16
 1650 0060 1A69     		ldr	r2, [r3, #16]
 1651              	.LVL223:
 166:../switch_sdk/core/yt/yt_ctrlpkt.c ****     CMM_PARAM_CHK((!(YT_DISPATCH(unit)->is_inited)), CMM_ERR_NOT_INIT);
 1652              		.loc 1 166 5 is_stmt 0 discriminator 3 view .LVU478
 1653 0062 1D4B     		ldr	r3, .L174+20
 1654 0064 9968     		ldr	r1, [r3, #8]
 1655              	.LVL224:
 166:../switch_sdk/core/yt/yt_ctrlpkt.c ****     CMM_PARAM_CHK((!(YT_DISPATCH(unit)->is_inited)), CMM_ERR_NOT_INIT);
 1656              		.loc 1 166 5 discriminator 3 view .LVU479
 1657 0066 1D48     		ldr	r0, .L174+24
 1658              	.LVL225:
 166:../switch_sdk/core/yt/yt_ctrlpkt.c ****     CMM_PARAM_CHK((!(YT_DISPATCH(unit)->is_inited)), CMM_ERR_NOT_INIT);
 1659              		.loc 1 166 5 discriminator 3 view .LVU480
 1660 0068 FFF7FEFF 		bl	osal_printf
 1661              	.LVL226:
 1662 006c F5E7     		b	.L156
 1663              	.LVL227:
 1664              	.L167:
 166:../switch_sdk/core/yt/yt_ctrlpkt.c ****     CMM_PARAM_CHK((!(YT_DISPATCH(unit)->is_inited)), CMM_ERR_NOT_INIT);
 1665              		.loc 1 166 5 discriminator 3 view .LVU481
 1666              	.LBE33:
 167:../switch_sdk/core/yt/yt_ctrlpkt.c ****     CMM_PARAM_CHK((!(CMM_PORT_VALID(unit,port))), CMM_ERR_PORT);
 1667              		.loc 1 167 5 is_stmt 1 discriminator 1 view .LVU482
 167:../switch_sdk/core/yt/yt_ctrlpkt.c ****     CMM_PARAM_CHK((!(CMM_PORT_VALID(unit,port))), CMM_ERR_PORT);
 1668              		.loc 1 167 5 discriminator 1 view .LVU483
 1669 006e 184B     		ldr	r3, .L174+12
 1670 0070 1B78     		ldrb	r3, [r3]	@ zero_extendqisi2
 1671 0072 012B     		cmp	r3, #1
 1672 0074 01D8     		bhi	.L171
 1673              	.LVL228:
 1674              	.L158:
 167:../switch_sdk/core/yt/yt_ctrlpkt.c ****     CMM_PARAM_CHK((!(CMM_PORT_VALID(unit,port))), CMM_ERR_PORT);
 1675              		.loc 1 167 5 discriminator 5 view .LVU484
 167:../switch_sdk/core/yt/yt_ctrlpkt.c ****     CMM_PARAM_CHK((!(CMM_PORT_VALID(unit,port))), CMM_ERR_PORT);
 1676              		.loc 1 167 5 discriminator 5 view .LVU485
 167:../switch_sdk/core/yt/yt_ctrlpkt.c ****     CMM_PARAM_CHK((!(CMM_PORT_VALID(unit,port))), CMM_ERR_PORT);
 1677              		.loc 1 167 5 discriminator 5 view .LVU486
 1678 0076 0420     		movs	r0, #4
 1679 0078 DCE7     		b	.L151
 1680              	.LVL229:
 1681              	.L171:
 167:../switch_sdk/core/yt/yt_ctrlpkt.c ****     CMM_PARAM_CHK((!(CMM_PORT_VALID(unit,port))), CMM_ERR_PORT);
 1682              		.loc 1 167 5 discriminator 3 view .LVU487
 1683              	.LBB34:
 167:../switch_sdk/core/yt/yt_ctrlpkt.c ****     CMM_PARAM_CHK((!(CMM_PORT_VALID(unit,port))), CMM_ERR_PORT);
 1684              		.loc 1 167 5 discriminator 3 view .LVU488
 1685 007a 164B     		ldr	r3, .L174+16
 1686 007c 1A69     		ldr	r2, [r3, #16]
 1687              	.LVL230:
 167:../switch_sdk/core/yt/yt_ctrlpkt.c ****     CMM_PARAM_CHK((!(CMM_PORT_VALID(unit,port))), CMM_ERR_PORT);
 1688              		.loc 1 167 5 is_stmt 0 discriminator 3 view .LVU489
 1689 007e 164B     		ldr	r3, .L174+20
 1690 0080 9968     		ldr	r1, [r3, #8]
 1691              	.LVL231:
 167:../switch_sdk/core/yt/yt_ctrlpkt.c ****     CMM_PARAM_CHK((!(CMM_PORT_VALID(unit,port))), CMM_ERR_PORT);
 1692              		.loc 1 167 5 discriminator 3 view .LVU490
 1693 0082 1648     		ldr	r0, .L174+24
 1694 0084 FFF7FEFF 		bl	osal_printf
 1695              	.LVL232:
 1696 0088 F5E7     		b	.L158
 1697              	.LVL233:
 1698              	.L159:
 167:../switch_sdk/core/yt/yt_ctrlpkt.c ****     CMM_PARAM_CHK((!(CMM_PORT_VALID(unit,port))), CMM_ERR_PORT);
 1699              		.loc 1 167 5 discriminator 3 view .LVU491
 1700              	.LBE34:
 168:../switch_sdk/core/yt/yt_ctrlpkt.c ****     CMM_PARAM_CHK((L2_ACTION_COPY < act_ctrl || L2_ACTION_FWD > act_ctrl), CMM_ERR_INPUT);
 1701              		.loc 1 168 5 is_stmt 1 discriminator 3 view .LVU492
 168:../switch_sdk/core/yt/yt_ctrlpkt.c ****     CMM_PARAM_CHK((L2_ACTION_COPY < act_ctrl || L2_ACTION_FWD > act_ctrl), CMM_ERR_INPUT);
 1702              		.loc 1 168 5 discriminator 3 view .LVU493
 1703 008a 114B     		ldr	r3, .L174+12
 1704 008c 1B78     		ldrb	r3, [r3]	@ zero_extendqisi2
 1705 008e 012B     		cmp	r3, #1
 1706 0090 01D8     		bhi	.L172
 1707              	.LVL234:
 1708              	.L161:
 168:../switch_sdk/core/yt/yt_ctrlpkt.c ****     CMM_PARAM_CHK((L2_ACTION_COPY < act_ctrl || L2_ACTION_FWD > act_ctrl), CMM_ERR_INPUT);
 1709              		.loc 1 168 5 discriminator 7 view .LVU494
 168:../switch_sdk/core/yt/yt_ctrlpkt.c ****     CMM_PARAM_CHK((L2_ACTION_COPY < act_ctrl || L2_ACTION_FWD > act_ctrl), CMM_ERR_INPUT);
 1710              		.loc 1 168 5 discriminator 7 view .LVU495
 168:../switch_sdk/core/yt/yt_ctrlpkt.c ****     CMM_PARAM_CHK((L2_ACTION_COPY < act_ctrl || L2_ACTION_FWD > act_ctrl), CMM_ERR_INPUT);
 1711              		.loc 1 168 5 discriminator 7 view .LVU496
 1712 0092 0E20     		movs	r0, #14
 1713 0094 CEE7     		b	.L151
 1714              	.LVL235:
 1715              	.L172:
 168:../switch_sdk/core/yt/yt_ctrlpkt.c ****     CMM_PARAM_CHK((L2_ACTION_COPY < act_ctrl || L2_ACTION_FWD > act_ctrl), CMM_ERR_INPUT);
 1716              		.loc 1 168 5 discriminator 5 view .LVU497
 1717              	.LBB35:
 168:../switch_sdk/core/yt/yt_ctrlpkt.c ****     CMM_PARAM_CHK((L2_ACTION_COPY < act_ctrl || L2_ACTION_FWD > act_ctrl), CMM_ERR_INPUT);
 1718              		.loc 1 168 5 discriminator 5 view .LVU498
 1719 0096 0F4B     		ldr	r3, .L174+16
 1720 0098 9A6B     		ldr	r2, [r3, #56]
 1721              	.LVL236:
 168:../switch_sdk/core/yt/yt_ctrlpkt.c ****     CMM_PARAM_CHK((L2_ACTION_COPY < act_ctrl || L2_ACTION_FWD > act_ctrl), CMM_ERR_INPUT);
 1722              		.loc 1 168 5 is_stmt 0 discriminator 5 view .LVU499
 1723 009a 0F4B     		ldr	r3, .L174+20
 1724 009c 9968     		ldr	r1, [r3, #8]
 1725              	.LVL237:
 168:../switch_sdk/core/yt/yt_ctrlpkt.c ****     CMM_PARAM_CHK((L2_ACTION_COPY < act_ctrl || L2_ACTION_FWD > act_ctrl), CMM_ERR_INPUT);
 1726              		.loc 1 168 5 discriminator 5 view .LVU500
 1727 009e 0F48     		ldr	r0, .L174+24
 1728 00a0 FFF7FEFF 		bl	osal_printf
 1729              	.LVL238:
 1730 00a4 F5E7     		b	.L161
 1731              	.LVL239:
 1732              	.L168:
 168:../switch_sdk/core/yt/yt_ctrlpkt.c ****     CMM_PARAM_CHK((L2_ACTION_COPY < act_ctrl || L2_ACTION_FWD > act_ctrl), CMM_ERR_INPUT);
 1733              		.loc 1 168 5 discriminator 5 view .LVU501
 1734              	.LBE35:
 169:../switch_sdk/core/yt/yt_ctrlpkt.c ****     
 1735              		.loc 1 169 5 is_stmt 1 discriminator 1 view .LVU502
 169:../switch_sdk/core/yt/yt_ctrlpkt.c ****     
 1736              		.loc 1 169 5 discriminator 1 view .LVU503
 1737 00a6 0A4B     		ldr	r3, .L174+12
 1738 00a8 1B78     		ldrb	r3, [r3]	@ zero_extendqisi2
 1739 00aa 012B     		cmp	r3, #1
 1740 00ac 01D8     		bhi	.L173
 1741              	.LVL240:
 1742              	.L163:
 169:../switch_sdk/core/yt/yt_ctrlpkt.c ****     
 1743              		.loc 1 169 5 discriminator 5 view .LVU504
 169:../switch_sdk/core/yt/yt_ctrlpkt.c ****     
 1744              		.loc 1 169 5 discriminator 5 view .LVU505
 169:../switch_sdk/core/yt/yt_ctrlpkt.c ****     
 1745              		.loc 1 169 5 discriminator 5 view .LVU506
 1746 00ae 0520     		movs	r0, #5
 1747 00b0 C0E7     		b	.L151
 1748              	.LVL241:
 1749              	.L173:
 169:../switch_sdk/core/yt/yt_ctrlpkt.c ****     
 1750              		.loc 1 169 5 discriminator 3 view .LVU507
 1751              	.LBB36:
 169:../switch_sdk/core/yt/yt_ctrlpkt.c ****     
 1752              		.loc 1 169 5 discriminator 3 view .LVU508
 1753 00b2 084B     		ldr	r3, .L174+16
 1754 00b4 5A69     		ldr	r2, [r3, #20]
 1755              	.LVL242:
 169:../switch_sdk/core/yt/yt_ctrlpkt.c ****     
 1756              		.loc 1 169 5 is_stmt 0 discriminator 3 view .LVU509
 1757 00b6 084B     		ldr	r3, .L174+20
 1758 00b8 9968     		ldr	r1, [r3, #8]
 1759              	.LVL243:
 169:../switch_sdk/core/yt/yt_ctrlpkt.c ****     
 1760              		.loc 1 169 5 discriminator 3 view .LVU510
 1761 00ba 0848     		ldr	r0, .L174+24
 1762 00bc FFF7FEFF 		bl	osal_printf
 1763              	.LVL244:
 1764 00c0 F5E7     		b	.L163
 1765              	.L175:
 1766 00c2 00BF     		.align	2
 1767              	.L174:
 1768 00c4 00000000 		.word	gpfal_dispatch
 1769 00c8 00000000 		.word	gcal_inited
 1770 00cc 00000000 		.word	gpSwitchUnit
 1771 00d0 00000000 		.word	yt_debug_level
 1772 00d4 00000000 		.word	_yt_errmsg
 1773 00d8 00000000 		.word	_yt_prompt_msg
 1774 00dc 00000000 		.word	.LC0
 1775              	.LBE36:
 1776              		.cfi_endproc
 1777              	.LFE9:
 1779              		.section	.text.yt_ctrlpkt_nd_act_get,"ax",%progbits
 1780              		.align	1
 1781              		.global	yt_ctrlpkt_nd_act_get
 1782              		.syntax unified
 1783              		.thumb
 1784              		.thumb_func
 1786              	yt_ctrlpkt_nd_act_get:
 1787              	.LVL245:
 1788              	.LFB10:
 173:../switch_sdk/core/yt/yt_ctrlpkt.c **** 
 174:../switch_sdk/core/yt/yt_ctrlpkt.c **** 
 175:../switch_sdk/core/yt/yt_ctrlpkt.c **** /**
 176:../switch_sdk/core/yt/yt_ctrlpkt.c ****  * @internal      yt_ctrlpkt_nd_act_get
 177:../switch_sdk/core/yt/yt_ctrlpkt.c ****  * @endinternal
 178:../switch_sdk/core/yt/yt_ctrlpkt.c ****  *
 179:../switch_sdk/core/yt/yt_ctrlpkt.c ****  * @brief         Description
 180:../switch_sdk/core/yt/yt_ctrlpkt.c ****  * @param[in]     unit                -unit id
 181:../switch_sdk/core/yt/yt_ctrlpkt.c ****  * @param[in]     port                -port num
 182:../switch_sdk/core/yt/yt_ctrlpkt.c ****  * @param[out]    pAct_ctrl           -l2 packet action,FWD,TRAP,DROP,COPY
 183:../switch_sdk/core/yt/yt_ctrlpkt.c ****  * @retval        CMM_ERR_OK          -on success
 184:../switch_sdk/core/yt/yt_ctrlpkt.c ****  * @retval        CMM_ERR_FAIL        -on fail
 185:../switch_sdk/core/yt/yt_ctrlpkt.c ****  */
 186:../switch_sdk/core/yt/yt_ctrlpkt.c **** yt_ret_t yt_ctrlpkt_nd_act_get(yt_unit_t unit, yt_port_t port, yt_ctrlpkt_l2_action_t *pAct_ctrl)
 187:../switch_sdk/core/yt/yt_ctrlpkt.c **** {
 1789              		.loc 1 187 1 is_stmt 1 view -0
 1790              		.cfi_startproc
 1791              		@ args = 0, pretend = 0, frame = 0
 1792              		@ frame_needed = 0, uses_anonymous_args = 0
 1793              		.loc 1 187 1 is_stmt 0 view .LVU512
 1794 0000 08B5     		push	{r3, lr}
 1795              		.cfi_def_cfa_offset 8
 1796              		.cfi_offset 3, -8
 1797              		.cfi_offset 14, -4
 188:../switch_sdk/core/yt/yt_ctrlpkt.c ****     CMM_PARAM_CHK((YT_UNIT_NUM <= unit), CMM_ERR_INPUT);
 1798              		.loc 1 188 5 is_stmt 1 view .LVU513
 1799              		.loc 1 188 5 view .LVU514
 1800 0002 C0B9     		cbnz	r0, .L190
 1801 0004 8446     		mov	ip, r0
 1802              		.loc 1 188 5 discriminator 2 view .LVU515
 189:../switch_sdk/core/yt/yt_ctrlpkt.c ****     CMM_PARAM_CHK(NULL == YT_DISPATCH(unit), CMM_ERR_NOT_INIT);
 1803              		.loc 1 189 5 discriminator 2 view .LVU516
 1804              		.loc 1 189 5 discriminator 2 view .LVU517
 1805 0006 2F4B     		ldr	r3, .L199
 1806 0008 53F82030 		ldr	r3, [r3, r0, lsl #2]
 1807 000c 0BB3     		cbz	r3, .L191
 1808              		.loc 1 189 5 discriminator 2 view .LVU518
 190:../switch_sdk/core/yt/yt_ctrlpkt.c ****     CMM_PARAM_CHK((!(YT_DISPATCH(unit)->is_inited)), CMM_ERR_NOT_INIT);
 1809              		.loc 1 190 5 discriminator 2 view .LVU519
 1810              		.loc 1 190 5 discriminator 2 view .LVU520
 1811 000e 1878     		ldrb	r0, [r3]	@ zero_extendqisi2
 1812              	.LVL246:
 1813              		.loc 1 190 5 is_stmt 0 discriminator 2 view .LVU521
 1814 0010 0028     		cmp	r0, #0
 1815 0012 2CD0     		beq	.L192
 1816              		.loc 1 190 5 is_stmt 1 discriminator 2 view .LVU522
 191:../switch_sdk/core/yt/yt_ctrlpkt.c ****     CMM_PARAM_CHK((!(CMM_PORT_VALID(unit,port))), CMM_ERR_PORT);
 1817              		.loc 1 191 5 discriminator 2 view .LVU523
 1818              		.loc 1 191 5 discriminator 2 view .LVU524
 1819 0014 2C48     		ldr	r0, .L199+4
 1820 0016 0078     		ldrb	r0, [r0]	@ zero_extendqisi2
 1821 0018 0028     		cmp	r0, #0
 1822 001a 36D0     		beq	.L184
 1823 001c 2B48     		ldr	r0, .L199+8
 1824 001e 50F82C00 		ldr	r0, [r0, ip, lsl #2]
 1825 0022 007D     		ldrb	r0, [r0, #20]	@ zero_extendqisi2
 1826 0024 8842     		cmp	r0, r1
 1827 0026 30D9     		bls	.L184
 1828              		.loc 1 191 5 discriminator 4 view .LVU525
 192:../switch_sdk/core/yt/yt_ctrlpkt.c ****     CMM_PARAM_CHK((NULL == pAct_ctrl), CMM_ERR_NULL_POINT);
 1829              		.loc 1 192 5 discriminator 4 view .LVU526
 1830              		.loc 1 192 5 discriminator 4 view .LVU527
 1831 0028 002A     		cmp	r2, #0
 1832 002a 3CD0     		beq	.L193
 1833              		.loc 1 192 5 discriminator 2 view .LVU528
 193:../switch_sdk/core/yt/yt_ctrlpkt.c ****     
 194:../switch_sdk/core/yt/yt_ctrlpkt.c ****     return YT_DISPATCH(unit)->ctrlpkt_nd_act_get(unit, port, pAct_ctrl);
 1834              		.loc 1 194 5 discriminator 2 view .LVU529
 1835              		.loc 1 194 29 is_stmt 0 discriminator 2 view .LVU530
 1836 002c D3F83436 		ldr	r3, [r3, #1588]
 1837              		.loc 1 194 12 discriminator 2 view .LVU531
 1838 0030 6046     		mov	r0, ip
 1839 0032 9847     		blx	r3
 1840              	.LVL247:
 1841              	.L176:
 195:../switch_sdk/core/yt/yt_ctrlpkt.c **** }
 1842              		.loc 1 195 1 view .LVU532
 1843 0034 08BD     		pop	{r3, pc}
 1844              	.LVL248:
 1845              	.L190:
 188:../switch_sdk/core/yt/yt_ctrlpkt.c ****     CMM_PARAM_CHK(NULL == YT_DISPATCH(unit), CMM_ERR_NOT_INIT);
 1846              		.loc 1 188 5 is_stmt 1 discriminator 1 view .LVU533
 188:../switch_sdk/core/yt/yt_ctrlpkt.c ****     CMM_PARAM_CHK(NULL == YT_DISPATCH(unit), CMM_ERR_NOT_INIT);
 1847              		.loc 1 188 5 discriminator 1 view .LVU534
 1848 0036 264B     		ldr	r3, .L199+12
 1849 0038 1B78     		ldrb	r3, [r3]	@ zero_extendqisi2
 1850 003a 012B     		cmp	r3, #1
 1851 003c 01D8     		bhi	.L194
 1852              	.LVL249:
 1853              	.L178:
 188:../switch_sdk/core/yt/yt_ctrlpkt.c ****     CMM_PARAM_CHK(NULL == YT_DISPATCH(unit), CMM_ERR_NOT_INIT);
 1854              		.loc 1 188 5 discriminator 5 view .LVU535
 188:../switch_sdk/core/yt/yt_ctrlpkt.c ****     CMM_PARAM_CHK(NULL == YT_DISPATCH(unit), CMM_ERR_NOT_INIT);
 1855              		.loc 1 188 5 discriminator 5 view .LVU536
 188:../switch_sdk/core/yt/yt_ctrlpkt.c ****     CMM_PARAM_CHK(NULL == YT_DISPATCH(unit), CMM_ERR_NOT_INIT);
 1856              		.loc 1 188 5 discriminator 5 view .LVU537
 1857 003e 0520     		movs	r0, #5
 1858 0040 F8E7     		b	.L176
 1859              	.LVL250:
 1860              	.L194:
 188:../switch_sdk/core/yt/yt_ctrlpkt.c ****     CMM_PARAM_CHK(NULL == YT_DISPATCH(unit), CMM_ERR_NOT_INIT);
 1861              		.loc 1 188 5 discriminator 3 view .LVU538
 1862              	.LBB37:
 188:../switch_sdk/core/yt/yt_ctrlpkt.c ****     CMM_PARAM_CHK(NULL == YT_DISPATCH(unit), CMM_ERR_NOT_INIT);
 1863              		.loc 1 188 5 discriminator 3 view .LVU539
 1864 0042 244B     		ldr	r3, .L199+16
 1865 0044 5A69     		ldr	r2, [r3, #20]
 1866              	.LVL251:
 188:../switch_sdk/core/yt/yt_ctrlpkt.c ****     CMM_PARAM_CHK(NULL == YT_DISPATCH(unit), CMM_ERR_NOT_INIT);
 1867              		.loc 1 188 5 is_stmt 0 discriminator 3 view .LVU540
 1868 0046 244B     		ldr	r3, .L199+20
 1869 0048 9968     		ldr	r1, [r3, #8]
 1870              	.LVL252:
 188:../switch_sdk/core/yt/yt_ctrlpkt.c ****     CMM_PARAM_CHK(NULL == YT_DISPATCH(unit), CMM_ERR_NOT_INIT);
 1871              		.loc 1 188 5 discriminator 3 view .LVU541
 1872 004a 2448     		ldr	r0, .L199+24
 1873              	.LVL253:
 188:../switch_sdk/core/yt/yt_ctrlpkt.c ****     CMM_PARAM_CHK(NULL == YT_DISPATCH(unit), CMM_ERR_NOT_INIT);
 1874              		.loc 1 188 5 discriminator 3 view .LVU542
 1875 004c FFF7FEFF 		bl	osal_printf
 1876              	.LVL254:
 1877 0050 F5E7     		b	.L178
 1878              	.LVL255:
 1879              	.L191:
 188:../switch_sdk/core/yt/yt_ctrlpkt.c ****     CMM_PARAM_CHK(NULL == YT_DISPATCH(unit), CMM_ERR_NOT_INIT);
 1880              		.loc 1 188 5 discriminator 3 view .LVU543
 1881              	.LBE37:
 189:../switch_sdk/core/yt/yt_ctrlpkt.c ****     CMM_PARAM_CHK((!(YT_DISPATCH(unit)->is_inited)), CMM_ERR_NOT_INIT);
 1882              		.loc 1 189 5 is_stmt 1 discriminator 1 view .LVU544
 189:../switch_sdk/core/yt/yt_ctrlpkt.c ****     CMM_PARAM_CHK((!(YT_DISPATCH(unit)->is_inited)), CMM_ERR_NOT_INIT);
 1883              		.loc 1 189 5 discriminator 1 view .LVU545
 1884 0052 1F4B     		ldr	r3, .L199+12
 1885 0054 1B78     		ldrb	r3, [r3]	@ zero_extendqisi2
 1886 0056 012B     		cmp	r3, #1
 1887 0058 01D8     		bhi	.L195
 1888              	.LVL256:
 1889              	.L181:
 189:../switch_sdk/core/yt/yt_ctrlpkt.c ****     CMM_PARAM_CHK((!(YT_DISPATCH(unit)->is_inited)), CMM_ERR_NOT_INIT);
 1890              		.loc 1 189 5 discriminator 5 view .LVU546
 189:../switch_sdk/core/yt/yt_ctrlpkt.c ****     CMM_PARAM_CHK((!(YT_DISPATCH(unit)->is_inited)), CMM_ERR_NOT_INIT);
 1891              		.loc 1 189 5 discriminator 5 view .LVU547
 189:../switch_sdk/core/yt/yt_ctrlpkt.c ****     CMM_PARAM_CHK((!(YT_DISPATCH(unit)->is_inited)), CMM_ERR_NOT_INIT);
 1892              		.loc 1 189 5 discriminator 5 view .LVU548
 1893 005a 0420     		movs	r0, #4
 1894 005c EAE7     		b	.L176
 1895              	.LVL257:
 1896              	.L195:
 189:../switch_sdk/core/yt/yt_ctrlpkt.c ****     CMM_PARAM_CHK((!(YT_DISPATCH(unit)->is_inited)), CMM_ERR_NOT_INIT);
 1897              		.loc 1 189 5 discriminator 3 view .LVU549
 1898              	.LBB38:
 189:../switch_sdk/core/yt/yt_ctrlpkt.c ****     CMM_PARAM_CHK((!(YT_DISPATCH(unit)->is_inited)), CMM_ERR_NOT_INIT);
 1899              		.loc 1 189 5 discriminator 3 view .LVU550
 1900 005e 1D4B     		ldr	r3, .L199+16
 1901 0060 1A69     		ldr	r2, [r3, #16]
 1902              	.LVL258:
 189:../switch_sdk/core/yt/yt_ctrlpkt.c ****     CMM_PARAM_CHK((!(YT_DISPATCH(unit)->is_inited)), CMM_ERR_NOT_INIT);
 1903              		.loc 1 189 5 is_stmt 0 discriminator 3 view .LVU551
 1904 0062 1D4B     		ldr	r3, .L199+20
 1905 0064 9968     		ldr	r1, [r3, #8]
 1906              	.LVL259:
 189:../switch_sdk/core/yt/yt_ctrlpkt.c ****     CMM_PARAM_CHK((!(YT_DISPATCH(unit)->is_inited)), CMM_ERR_NOT_INIT);
 1907              		.loc 1 189 5 discriminator 3 view .LVU552
 1908 0066 1D48     		ldr	r0, .L199+24
 1909              	.LVL260:
 189:../switch_sdk/core/yt/yt_ctrlpkt.c ****     CMM_PARAM_CHK((!(YT_DISPATCH(unit)->is_inited)), CMM_ERR_NOT_INIT);
 1910              		.loc 1 189 5 discriminator 3 view .LVU553
 1911 0068 FFF7FEFF 		bl	osal_printf
 1912              	.LVL261:
 1913 006c F5E7     		b	.L181
 1914              	.LVL262:
 1915              	.L192:
 189:../switch_sdk/core/yt/yt_ctrlpkt.c ****     CMM_PARAM_CHK((!(YT_DISPATCH(unit)->is_inited)), CMM_ERR_NOT_INIT);
 1916              		.loc 1 189 5 discriminator 3 view .LVU554
 1917              	.LBE38:
 190:../switch_sdk/core/yt/yt_ctrlpkt.c ****     CMM_PARAM_CHK((!(CMM_PORT_VALID(unit,port))), CMM_ERR_PORT);
 1918              		.loc 1 190 5 is_stmt 1 discriminator 1 view .LVU555
 190:../switch_sdk/core/yt/yt_ctrlpkt.c ****     CMM_PARAM_CHK((!(CMM_PORT_VALID(unit,port))), CMM_ERR_PORT);
 1919              		.loc 1 190 5 discriminator 1 view .LVU556
 1920 006e 184B     		ldr	r3, .L199+12
 1921 0070 1B78     		ldrb	r3, [r3]	@ zero_extendqisi2
 1922 0072 012B     		cmp	r3, #1
 1923 0074 01D8     		bhi	.L196
 1924              	.LVL263:
 1925              	.L183:
 190:../switch_sdk/core/yt/yt_ctrlpkt.c ****     CMM_PARAM_CHK((!(CMM_PORT_VALID(unit,port))), CMM_ERR_PORT);
 1926              		.loc 1 190 5 discriminator 5 view .LVU557
 190:../switch_sdk/core/yt/yt_ctrlpkt.c ****     CMM_PARAM_CHK((!(CMM_PORT_VALID(unit,port))), CMM_ERR_PORT);
 1927              		.loc 1 190 5 discriminator 5 view .LVU558
 190:../switch_sdk/core/yt/yt_ctrlpkt.c ****     CMM_PARAM_CHK((!(CMM_PORT_VALID(unit,port))), CMM_ERR_PORT);
 1928              		.loc 1 190 5 discriminator 5 view .LVU559
 1929 0076 0420     		movs	r0, #4
 1930 0078 DCE7     		b	.L176
 1931              	.LVL264:
 1932              	.L196:
 190:../switch_sdk/core/yt/yt_ctrlpkt.c ****     CMM_PARAM_CHK((!(CMM_PORT_VALID(unit,port))), CMM_ERR_PORT);
 1933              		.loc 1 190 5 discriminator 3 view .LVU560
 1934              	.LBB39:
 190:../switch_sdk/core/yt/yt_ctrlpkt.c ****     CMM_PARAM_CHK((!(CMM_PORT_VALID(unit,port))), CMM_ERR_PORT);
 1935              		.loc 1 190 5 discriminator 3 view .LVU561
 1936 007a 164B     		ldr	r3, .L199+16
 1937 007c 1A69     		ldr	r2, [r3, #16]
 1938              	.LVL265:
 190:../switch_sdk/core/yt/yt_ctrlpkt.c ****     CMM_PARAM_CHK((!(CMM_PORT_VALID(unit,port))), CMM_ERR_PORT);
 1939              		.loc 1 190 5 is_stmt 0 discriminator 3 view .LVU562
 1940 007e 164B     		ldr	r3, .L199+20
 1941 0080 9968     		ldr	r1, [r3, #8]
 1942              	.LVL266:
 190:../switch_sdk/core/yt/yt_ctrlpkt.c ****     CMM_PARAM_CHK((!(CMM_PORT_VALID(unit,port))), CMM_ERR_PORT);
 1943              		.loc 1 190 5 discriminator 3 view .LVU563
 1944 0082 1648     		ldr	r0, .L199+24
 1945 0084 FFF7FEFF 		bl	osal_printf
 1946              	.LVL267:
 1947 0088 F5E7     		b	.L183
 1948              	.LVL268:
 1949              	.L184:
 190:../switch_sdk/core/yt/yt_ctrlpkt.c ****     CMM_PARAM_CHK((!(CMM_PORT_VALID(unit,port))), CMM_ERR_PORT);
 1950              		.loc 1 190 5 discriminator 3 view .LVU564
 1951              	.LBE39:
 191:../switch_sdk/core/yt/yt_ctrlpkt.c ****     CMM_PARAM_CHK((NULL == pAct_ctrl), CMM_ERR_NULL_POINT);
 1952              		.loc 1 191 5 is_stmt 1 discriminator 3 view .LVU565
 191:../switch_sdk/core/yt/yt_ctrlpkt.c ****     CMM_PARAM_CHK((NULL == pAct_ctrl), CMM_ERR_NULL_POINT);
 1953              		.loc 1 191 5 discriminator 3 view .LVU566
 1954 008a 114B     		ldr	r3, .L199+12
 1955 008c 1B78     		ldrb	r3, [r3]	@ zero_extendqisi2
 1956 008e 012B     		cmp	r3, #1
 1957 0090 01D8     		bhi	.L197
 1958              	.LVL269:
 1959              	.L186:
 191:../switch_sdk/core/yt/yt_ctrlpkt.c ****     CMM_PARAM_CHK((NULL == pAct_ctrl), CMM_ERR_NULL_POINT);
 1960              		.loc 1 191 5 discriminator 7 view .LVU567
 191:../switch_sdk/core/yt/yt_ctrlpkt.c ****     CMM_PARAM_CHK((NULL == pAct_ctrl), CMM_ERR_NULL_POINT);
 1961              		.loc 1 191 5 discriminator 7 view .LVU568
 191:../switch_sdk/core/yt/yt_ctrlpkt.c ****     CMM_PARAM_CHK((NULL == pAct_ctrl), CMM_ERR_NULL_POINT);
 1962              		.loc 1 191 5 discriminator 7 view .LVU569
 1963 0092 0E20     		movs	r0, #14
 1964 0094 CEE7     		b	.L176
 1965              	.LVL270:
 1966              	.L197:
 191:../switch_sdk/core/yt/yt_ctrlpkt.c ****     CMM_PARAM_CHK((NULL == pAct_ctrl), CMM_ERR_NULL_POINT);
 1967              		.loc 1 191 5 discriminator 5 view .LVU570
 1968              	.LBB40:
 191:../switch_sdk/core/yt/yt_ctrlpkt.c ****     CMM_PARAM_CHK((NULL == pAct_ctrl), CMM_ERR_NULL_POINT);
 1969              		.loc 1 191 5 discriminator 5 view .LVU571
 1970 0096 0F4B     		ldr	r3, .L199+16
 1971 0098 9A6B     		ldr	r2, [r3, #56]
 1972              	.LVL271:
 191:../switch_sdk/core/yt/yt_ctrlpkt.c ****     CMM_PARAM_CHK((NULL == pAct_ctrl), CMM_ERR_NULL_POINT);
 1973              		.loc 1 191 5 is_stmt 0 discriminator 5 view .LVU572
 1974 009a 0F4B     		ldr	r3, .L199+20
 1975 009c 9968     		ldr	r1, [r3, #8]
 1976              	.LVL272:
 191:../switch_sdk/core/yt/yt_ctrlpkt.c ****     CMM_PARAM_CHK((NULL == pAct_ctrl), CMM_ERR_NULL_POINT);
 1977              		.loc 1 191 5 discriminator 5 view .LVU573
 1978 009e 0F48     		ldr	r0, .L199+24
 1979 00a0 FFF7FEFF 		bl	osal_printf
 1980              	.LVL273:
 1981 00a4 F5E7     		b	.L186
 1982              	.LVL274:
 1983              	.L193:
 191:../switch_sdk/core/yt/yt_ctrlpkt.c ****     CMM_PARAM_CHK((NULL == pAct_ctrl), CMM_ERR_NULL_POINT);
 1984              		.loc 1 191 5 discriminator 5 view .LVU574
 1985              	.LBE40:
 192:../switch_sdk/core/yt/yt_ctrlpkt.c ****     
 1986              		.loc 1 192 5 is_stmt 1 discriminator 1 view .LVU575
 192:../switch_sdk/core/yt/yt_ctrlpkt.c ****     
 1987              		.loc 1 192 5 discriminator 1 view .LVU576
 1988 00a6 0A4B     		ldr	r3, .L199+12
 1989 00a8 1B78     		ldrb	r3, [r3]	@ zero_extendqisi2
 1990 00aa 012B     		cmp	r3, #1
 1991 00ac 01D8     		bhi	.L198
 1992              	.LVL275:
 1993              	.L188:
 192:../switch_sdk/core/yt/yt_ctrlpkt.c ****     
 1994              		.loc 1 192 5 discriminator 5 view .LVU577
 192:../switch_sdk/core/yt/yt_ctrlpkt.c ****     
 1995              		.loc 1 192 5 discriminator 5 view .LVU578
 192:../switch_sdk/core/yt/yt_ctrlpkt.c ****     
 1996              		.loc 1 192 5 discriminator 5 view .LVU579
 1997 00ae 0220     		movs	r0, #2
 1998 00b0 C0E7     		b	.L176
 1999              	.LVL276:
 2000              	.L198:
 192:../switch_sdk/core/yt/yt_ctrlpkt.c ****     
 2001              		.loc 1 192 5 discriminator 3 view .LVU580
 2002              	.LBB41:
 192:../switch_sdk/core/yt/yt_ctrlpkt.c ****     
 2003              		.loc 1 192 5 discriminator 3 view .LVU581
 2004 00b2 084B     		ldr	r3, .L199+16
 2005 00b4 9A68     		ldr	r2, [r3, #8]
 2006              	.LVL277:
 192:../switch_sdk/core/yt/yt_ctrlpkt.c ****     
 2007              		.loc 1 192 5 is_stmt 0 discriminator 3 view .LVU582
 2008 00b6 084B     		ldr	r3, .L199+20
 2009 00b8 9968     		ldr	r1, [r3, #8]
 2010              	.LVL278:
 192:../switch_sdk/core/yt/yt_ctrlpkt.c ****     
 2011              		.loc 1 192 5 discriminator 3 view .LVU583
 2012 00ba 0848     		ldr	r0, .L199+24
 2013 00bc FFF7FEFF 		bl	osal_printf
 2014              	.LVL279:
 2015 00c0 F5E7     		b	.L188
 2016              	.L200:
 2017 00c2 00BF     		.align	2
 2018              	.L199:
 2019 00c4 00000000 		.word	gpfal_dispatch
 2020 00c8 00000000 		.word	gcal_inited
 2021 00cc 00000000 		.word	gpSwitchUnit
 2022 00d0 00000000 		.word	yt_debug_level
 2023 00d4 00000000 		.word	_yt_errmsg
 2024 00d8 00000000 		.word	_yt_prompt_msg
 2025 00dc 00000000 		.word	.LC0
 2026              	.LBE41:
 2027              		.cfi_endproc
 2028              	.LFE10:
 2030              		.section	.text.yt_ctrlpkt_lldp_eee_act_set,"ax",%progbits
 2031              		.align	1
 2032              		.global	yt_ctrlpkt_lldp_eee_act_set
 2033              		.syntax unified
 2034              		.thumb
 2035              		.thumb_func
 2037              	yt_ctrlpkt_lldp_eee_act_set:
 2038              	.LVL280:
 2039              	.LFB11:
 196:../switch_sdk/core/yt/yt_ctrlpkt.c **** 
 197:../switch_sdk/core/yt/yt_ctrlpkt.c **** 
 198:../switch_sdk/core/yt/yt_ctrlpkt.c **** /**
 199:../switch_sdk/core/yt/yt_ctrlpkt.c ****  * @internal      yt_ctrlpkt_lldp_eee_act_set
 200:../switch_sdk/core/yt/yt_ctrlpkt.c ****  * @endinternal
 201:../switch_sdk/core/yt/yt_ctrlpkt.c ****  *
 202:../switch_sdk/core/yt/yt_ctrlpkt.c ****  * @brief         Description
 203:../switch_sdk/core/yt/yt_ctrlpkt.c ****  * @param[in]     unit                -unit id
 204:../switch_sdk/core/yt/yt_ctrlpkt.c ****  * @param[in]     port                -port num
 205:../switch_sdk/core/yt/yt_ctrlpkt.c ****  * @param[in]     act_ctrl            -l2 packet action,FWD,TRAP,DROP,COPY
 206:../switch_sdk/core/yt/yt_ctrlpkt.c ****  * @retval        CMM_ERR_OK          -on success
 207:../switch_sdk/core/yt/yt_ctrlpkt.c ****  * @retval        CMM_ERR_FAIL        -on fail
 208:../switch_sdk/core/yt/yt_ctrlpkt.c ****  */
 209:../switch_sdk/core/yt/yt_ctrlpkt.c **** yt_ret_t yt_ctrlpkt_lldp_eee_act_set(yt_unit_t unit, yt_port_t port, yt_ctrlpkt_l2_action_t act_ctr
 210:../switch_sdk/core/yt/yt_ctrlpkt.c **** {
 2040              		.loc 1 210 1 is_stmt 1 view -0
 2041              		.cfi_startproc
 2042              		@ args = 0, pretend = 0, frame = 0
 2043              		@ frame_needed = 0, uses_anonymous_args = 0
 2044              		.loc 1 210 1 is_stmt 0 view .LVU585
 2045 0000 08B5     		push	{r3, lr}
 2046              		.cfi_def_cfa_offset 8
 2047              		.cfi_offset 3, -8
 2048              		.cfi_offset 14, -4
 211:../switch_sdk/core/yt/yt_ctrlpkt.c ****     CMM_PARAM_CHK((YT_UNIT_NUM <= unit), CMM_ERR_INPUT);
 2049              		.loc 1 211 5 is_stmt 1 view .LVU586
 2050              		.loc 1 211 5 view .LVU587
 2051 0002 C0B9     		cbnz	r0, .L215
 2052 0004 8446     		mov	ip, r0
 2053              		.loc 1 211 5 discriminator 2 view .LVU588
 212:../switch_sdk/core/yt/yt_ctrlpkt.c ****     CMM_PARAM_CHK(NULL == YT_DISPATCH(unit), CMM_ERR_NOT_INIT);
 2054              		.loc 1 212 5 discriminator 2 view .LVU589
 2055              		.loc 1 212 5 discriminator 2 view .LVU590
 2056 0006 2F4B     		ldr	r3, .L224
 2057 0008 53F82030 		ldr	r3, [r3, r0, lsl #2]
 2058 000c 0BB3     		cbz	r3, .L216
 2059              		.loc 1 212 5 discriminator 2 view .LVU591
 213:../switch_sdk/core/yt/yt_ctrlpkt.c ****     CMM_PARAM_CHK((!(YT_DISPATCH(unit)->is_inited)), CMM_ERR_NOT_INIT);
 2060              		.loc 1 213 5 discriminator 2 view .LVU592
 2061              		.loc 1 213 5 discriminator 2 view .LVU593
 2062 000e 1878     		ldrb	r0, [r3]	@ zero_extendqisi2
 2063              	.LVL281:
 2064              		.loc 1 213 5 is_stmt 0 discriminator 2 view .LVU594
 2065 0010 0028     		cmp	r0, #0
 2066 0012 2CD0     		beq	.L217
 2067              		.loc 1 213 5 is_stmt 1 discriminator 2 view .LVU595
 214:../switch_sdk/core/yt/yt_ctrlpkt.c ****     CMM_PARAM_CHK((!(CMM_PORT_VALID(unit,port))), CMM_ERR_PORT);
 2068              		.loc 1 214 5 discriminator 2 view .LVU596
 2069              		.loc 1 214 5 discriminator 2 view .LVU597
 2070 0014 2C48     		ldr	r0, .L224+4
 2071 0016 0078     		ldrb	r0, [r0]	@ zero_extendqisi2
 2072 0018 0028     		cmp	r0, #0
 2073 001a 36D0     		beq	.L209
 2074 001c 2B48     		ldr	r0, .L224+8
 2075 001e 50F82C00 		ldr	r0, [r0, ip, lsl #2]
 2076 0022 007D     		ldrb	r0, [r0, #20]	@ zero_extendqisi2
 2077 0024 8842     		cmp	r0, r1
 2078 0026 30D9     		bls	.L209
 2079              		.loc 1 214 5 discriminator 4 view .LVU598
 215:../switch_sdk/core/yt/yt_ctrlpkt.c ****     CMM_PARAM_CHK((L2_ACTION_COPY < act_ctrl || L2_ACTION_FWD > act_ctrl), CMM_ERR_INPUT);
 2080              		.loc 1 215 5 discriminator 4 view .LVU599
 2081              		.loc 1 215 5 discriminator 4 view .LVU600
 2082 0028 032A     		cmp	r2, #3
 2083 002a 3CD8     		bhi	.L218
 2084              		.loc 1 215 5 discriminator 2 view .LVU601
 216:../switch_sdk/core/yt/yt_ctrlpkt.c ****         
 217:../switch_sdk/core/yt/yt_ctrlpkt.c ****     return YT_DISPATCH(unit)->ctrlpkt_lldp_eee_act_set(unit, port, act_ctrl);
 2085              		.loc 1 217 5 discriminator 2 view .LVU602
 2086              		.loc 1 217 29 is_stmt 0 discriminator 2 view .LVU603
 2087 002c D3F83836 		ldr	r3, [r3, #1592]
 2088              		.loc 1 217 12 discriminator 2 view .LVU604
 2089 0030 6046     		mov	r0, ip
 2090 0032 9847     		blx	r3
 2091              	.LVL282:
 2092              	.L201:
 218:../switch_sdk/core/yt/yt_ctrlpkt.c **** }
 2093              		.loc 1 218 1 view .LVU605
 2094 0034 08BD     		pop	{r3, pc}
 2095              	.LVL283:
 2096              	.L215:
 211:../switch_sdk/core/yt/yt_ctrlpkt.c ****     CMM_PARAM_CHK(NULL == YT_DISPATCH(unit), CMM_ERR_NOT_INIT);
 2097              		.loc 1 211 5 is_stmt 1 discriminator 1 view .LVU606
 211:../switch_sdk/core/yt/yt_ctrlpkt.c ****     CMM_PARAM_CHK(NULL == YT_DISPATCH(unit), CMM_ERR_NOT_INIT);
 2098              		.loc 1 211 5 discriminator 1 view .LVU607
 2099 0036 264B     		ldr	r3, .L224+12
 2100 0038 1B78     		ldrb	r3, [r3]	@ zero_extendqisi2
 2101 003a 012B     		cmp	r3, #1
 2102 003c 01D8     		bhi	.L219
 2103              	.LVL284:
 2104              	.L203:
 211:../switch_sdk/core/yt/yt_ctrlpkt.c ****     CMM_PARAM_CHK(NULL == YT_DISPATCH(unit), CMM_ERR_NOT_INIT);
 2105              		.loc 1 211 5 discriminator 5 view .LVU608
 211:../switch_sdk/core/yt/yt_ctrlpkt.c ****     CMM_PARAM_CHK(NULL == YT_DISPATCH(unit), CMM_ERR_NOT_INIT);
 2106              		.loc 1 211 5 discriminator 5 view .LVU609
 211:../switch_sdk/core/yt/yt_ctrlpkt.c ****     CMM_PARAM_CHK(NULL == YT_DISPATCH(unit), CMM_ERR_NOT_INIT);
 2107              		.loc 1 211 5 discriminator 5 view .LVU610
 2108 003e 0520     		movs	r0, #5
 2109 0040 F8E7     		b	.L201
 2110              	.LVL285:
 2111              	.L219:
 211:../switch_sdk/core/yt/yt_ctrlpkt.c ****     CMM_PARAM_CHK(NULL == YT_DISPATCH(unit), CMM_ERR_NOT_INIT);
 2112              		.loc 1 211 5 discriminator 3 view .LVU611
 2113              	.LBB42:
 211:../switch_sdk/core/yt/yt_ctrlpkt.c ****     CMM_PARAM_CHK(NULL == YT_DISPATCH(unit), CMM_ERR_NOT_INIT);
 2114              		.loc 1 211 5 discriminator 3 view .LVU612
 2115 0042 244B     		ldr	r3, .L224+16
 2116 0044 5A69     		ldr	r2, [r3, #20]
 2117              	.LVL286:
 211:../switch_sdk/core/yt/yt_ctrlpkt.c ****     CMM_PARAM_CHK(NULL == YT_DISPATCH(unit), CMM_ERR_NOT_INIT);
 2118              		.loc 1 211 5 is_stmt 0 discriminator 3 view .LVU613
 2119 0046 244B     		ldr	r3, .L224+20
 2120 0048 9968     		ldr	r1, [r3, #8]
 2121              	.LVL287:
 211:../switch_sdk/core/yt/yt_ctrlpkt.c ****     CMM_PARAM_CHK(NULL == YT_DISPATCH(unit), CMM_ERR_NOT_INIT);
 2122              		.loc 1 211 5 discriminator 3 view .LVU614
 2123 004a 2448     		ldr	r0, .L224+24
 2124              	.LVL288:
 211:../switch_sdk/core/yt/yt_ctrlpkt.c ****     CMM_PARAM_CHK(NULL == YT_DISPATCH(unit), CMM_ERR_NOT_INIT);
 2125              		.loc 1 211 5 discriminator 3 view .LVU615
 2126 004c FFF7FEFF 		bl	osal_printf
 2127              	.LVL289:
 2128 0050 F5E7     		b	.L203
 2129              	.LVL290:
 2130              	.L216:
 211:../switch_sdk/core/yt/yt_ctrlpkt.c ****     CMM_PARAM_CHK(NULL == YT_DISPATCH(unit), CMM_ERR_NOT_INIT);
 2131              		.loc 1 211 5 discriminator 3 view .LVU616
 2132              	.LBE42:
 212:../switch_sdk/core/yt/yt_ctrlpkt.c ****     CMM_PARAM_CHK((!(YT_DISPATCH(unit)->is_inited)), CMM_ERR_NOT_INIT);
 2133              		.loc 1 212 5 is_stmt 1 discriminator 1 view .LVU617
 212:../switch_sdk/core/yt/yt_ctrlpkt.c ****     CMM_PARAM_CHK((!(YT_DISPATCH(unit)->is_inited)), CMM_ERR_NOT_INIT);
 2134              		.loc 1 212 5 discriminator 1 view .LVU618
 2135 0052 1F4B     		ldr	r3, .L224+12
 2136 0054 1B78     		ldrb	r3, [r3]	@ zero_extendqisi2
 2137 0056 012B     		cmp	r3, #1
 2138 0058 01D8     		bhi	.L220
 2139              	.LVL291:
 2140              	.L206:
 212:../switch_sdk/core/yt/yt_ctrlpkt.c ****     CMM_PARAM_CHK((!(YT_DISPATCH(unit)->is_inited)), CMM_ERR_NOT_INIT);
 2141              		.loc 1 212 5 discriminator 5 view .LVU619
 212:../switch_sdk/core/yt/yt_ctrlpkt.c ****     CMM_PARAM_CHK((!(YT_DISPATCH(unit)->is_inited)), CMM_ERR_NOT_INIT);
 2142              		.loc 1 212 5 discriminator 5 view .LVU620
 212:../switch_sdk/core/yt/yt_ctrlpkt.c ****     CMM_PARAM_CHK((!(YT_DISPATCH(unit)->is_inited)), CMM_ERR_NOT_INIT);
 2143              		.loc 1 212 5 discriminator 5 view .LVU621
 2144 005a 0420     		movs	r0, #4
 2145 005c EAE7     		b	.L201
 2146              	.LVL292:
 2147              	.L220:
 212:../switch_sdk/core/yt/yt_ctrlpkt.c ****     CMM_PARAM_CHK((!(YT_DISPATCH(unit)->is_inited)), CMM_ERR_NOT_INIT);
 2148              		.loc 1 212 5 discriminator 3 view .LVU622
 2149              	.LBB43:
 212:../switch_sdk/core/yt/yt_ctrlpkt.c ****     CMM_PARAM_CHK((!(YT_DISPATCH(unit)->is_inited)), CMM_ERR_NOT_INIT);
 2150              		.loc 1 212 5 discriminator 3 view .LVU623
 2151 005e 1D4B     		ldr	r3, .L224+16
 2152 0060 1A69     		ldr	r2, [r3, #16]
 2153              	.LVL293:
 212:../switch_sdk/core/yt/yt_ctrlpkt.c ****     CMM_PARAM_CHK((!(YT_DISPATCH(unit)->is_inited)), CMM_ERR_NOT_INIT);
 2154              		.loc 1 212 5 is_stmt 0 discriminator 3 view .LVU624
 2155 0062 1D4B     		ldr	r3, .L224+20
 2156 0064 9968     		ldr	r1, [r3, #8]
 2157              	.LVL294:
 212:../switch_sdk/core/yt/yt_ctrlpkt.c ****     CMM_PARAM_CHK((!(YT_DISPATCH(unit)->is_inited)), CMM_ERR_NOT_INIT);
 2158              		.loc 1 212 5 discriminator 3 view .LVU625
 2159 0066 1D48     		ldr	r0, .L224+24
 2160              	.LVL295:
 212:../switch_sdk/core/yt/yt_ctrlpkt.c ****     CMM_PARAM_CHK((!(YT_DISPATCH(unit)->is_inited)), CMM_ERR_NOT_INIT);
 2161              		.loc 1 212 5 discriminator 3 view .LVU626
 2162 0068 FFF7FEFF 		bl	osal_printf
 2163              	.LVL296:
 2164 006c F5E7     		b	.L206
 2165              	.LVL297:
 2166              	.L217:
 212:../switch_sdk/core/yt/yt_ctrlpkt.c ****     CMM_PARAM_CHK((!(YT_DISPATCH(unit)->is_inited)), CMM_ERR_NOT_INIT);
 2167              		.loc 1 212 5 discriminator 3 view .LVU627
 2168              	.LBE43:
 213:../switch_sdk/core/yt/yt_ctrlpkt.c ****     CMM_PARAM_CHK((!(CMM_PORT_VALID(unit,port))), CMM_ERR_PORT);
 2169              		.loc 1 213 5 is_stmt 1 discriminator 1 view .LVU628
 213:../switch_sdk/core/yt/yt_ctrlpkt.c ****     CMM_PARAM_CHK((!(CMM_PORT_VALID(unit,port))), CMM_ERR_PORT);
 2170              		.loc 1 213 5 discriminator 1 view .LVU629
 2171 006e 184B     		ldr	r3, .L224+12
 2172 0070 1B78     		ldrb	r3, [r3]	@ zero_extendqisi2
 2173 0072 012B     		cmp	r3, #1
 2174 0074 01D8     		bhi	.L221
 2175              	.LVL298:
 2176              	.L208:
 213:../switch_sdk/core/yt/yt_ctrlpkt.c ****     CMM_PARAM_CHK((!(CMM_PORT_VALID(unit,port))), CMM_ERR_PORT);
 2177              		.loc 1 213 5 discriminator 5 view .LVU630
 213:../switch_sdk/core/yt/yt_ctrlpkt.c ****     CMM_PARAM_CHK((!(CMM_PORT_VALID(unit,port))), CMM_ERR_PORT);
 2178              		.loc 1 213 5 discriminator 5 view .LVU631
 213:../switch_sdk/core/yt/yt_ctrlpkt.c ****     CMM_PARAM_CHK((!(CMM_PORT_VALID(unit,port))), CMM_ERR_PORT);
 2179              		.loc 1 213 5 discriminator 5 view .LVU632
 2180 0076 0420     		movs	r0, #4
 2181 0078 DCE7     		b	.L201
 2182              	.LVL299:
 2183              	.L221:
 213:../switch_sdk/core/yt/yt_ctrlpkt.c ****     CMM_PARAM_CHK((!(CMM_PORT_VALID(unit,port))), CMM_ERR_PORT);
 2184              		.loc 1 213 5 discriminator 3 view .LVU633
 2185              	.LBB44:
 213:../switch_sdk/core/yt/yt_ctrlpkt.c ****     CMM_PARAM_CHK((!(CMM_PORT_VALID(unit,port))), CMM_ERR_PORT);
 2186              		.loc 1 213 5 discriminator 3 view .LVU634
 2187 007a 164B     		ldr	r3, .L224+16
 2188 007c 1A69     		ldr	r2, [r3, #16]
 2189              	.LVL300:
 213:../switch_sdk/core/yt/yt_ctrlpkt.c ****     CMM_PARAM_CHK((!(CMM_PORT_VALID(unit,port))), CMM_ERR_PORT);
 2190              		.loc 1 213 5 is_stmt 0 discriminator 3 view .LVU635
 2191 007e 164B     		ldr	r3, .L224+20
 2192 0080 9968     		ldr	r1, [r3, #8]
 2193              	.LVL301:
 213:../switch_sdk/core/yt/yt_ctrlpkt.c ****     CMM_PARAM_CHK((!(CMM_PORT_VALID(unit,port))), CMM_ERR_PORT);
 2194              		.loc 1 213 5 discriminator 3 view .LVU636
 2195 0082 1648     		ldr	r0, .L224+24
 2196 0084 FFF7FEFF 		bl	osal_printf
 2197              	.LVL302:
 2198 0088 F5E7     		b	.L208
 2199              	.LVL303:
 2200              	.L209:
 213:../switch_sdk/core/yt/yt_ctrlpkt.c ****     CMM_PARAM_CHK((!(CMM_PORT_VALID(unit,port))), CMM_ERR_PORT);
 2201              		.loc 1 213 5 discriminator 3 view .LVU637
 2202              	.LBE44:
 214:../switch_sdk/core/yt/yt_ctrlpkt.c ****     CMM_PARAM_CHK((L2_ACTION_COPY < act_ctrl || L2_ACTION_FWD > act_ctrl), CMM_ERR_INPUT);
 2203              		.loc 1 214 5 is_stmt 1 discriminator 3 view .LVU638
 214:../switch_sdk/core/yt/yt_ctrlpkt.c ****     CMM_PARAM_CHK((L2_ACTION_COPY < act_ctrl || L2_ACTION_FWD > act_ctrl), CMM_ERR_INPUT);
 2204              		.loc 1 214 5 discriminator 3 view .LVU639
 2205 008a 114B     		ldr	r3, .L224+12
 2206 008c 1B78     		ldrb	r3, [r3]	@ zero_extendqisi2
 2207 008e 012B     		cmp	r3, #1
 2208 0090 01D8     		bhi	.L222
 2209              	.LVL304:
 2210              	.L211:
 214:../switch_sdk/core/yt/yt_ctrlpkt.c ****     CMM_PARAM_CHK((L2_ACTION_COPY < act_ctrl || L2_ACTION_FWD > act_ctrl), CMM_ERR_INPUT);
 2211              		.loc 1 214 5 discriminator 7 view .LVU640
 214:../switch_sdk/core/yt/yt_ctrlpkt.c ****     CMM_PARAM_CHK((L2_ACTION_COPY < act_ctrl || L2_ACTION_FWD > act_ctrl), CMM_ERR_INPUT);
 2212              		.loc 1 214 5 discriminator 7 view .LVU641
 214:../switch_sdk/core/yt/yt_ctrlpkt.c ****     CMM_PARAM_CHK((L2_ACTION_COPY < act_ctrl || L2_ACTION_FWD > act_ctrl), CMM_ERR_INPUT);
 2213              		.loc 1 214 5 discriminator 7 view .LVU642
 2214 0092 0E20     		movs	r0, #14
 2215 0094 CEE7     		b	.L201
 2216              	.LVL305:
 2217              	.L222:
 214:../switch_sdk/core/yt/yt_ctrlpkt.c ****     CMM_PARAM_CHK((L2_ACTION_COPY < act_ctrl || L2_ACTION_FWD > act_ctrl), CMM_ERR_INPUT);
 2218              		.loc 1 214 5 discriminator 5 view .LVU643
 2219              	.LBB45:
 214:../switch_sdk/core/yt/yt_ctrlpkt.c ****     CMM_PARAM_CHK((L2_ACTION_COPY < act_ctrl || L2_ACTION_FWD > act_ctrl), CMM_ERR_INPUT);
 2220              		.loc 1 214 5 discriminator 5 view .LVU644
 2221 0096 0F4B     		ldr	r3, .L224+16
 2222 0098 9A6B     		ldr	r2, [r3, #56]
 2223              	.LVL306:
 214:../switch_sdk/core/yt/yt_ctrlpkt.c ****     CMM_PARAM_CHK((L2_ACTION_COPY < act_ctrl || L2_ACTION_FWD > act_ctrl), CMM_ERR_INPUT);
 2224              		.loc 1 214 5 is_stmt 0 discriminator 5 view .LVU645
 2225 009a 0F4B     		ldr	r3, .L224+20
 2226 009c 9968     		ldr	r1, [r3, #8]
 2227              	.LVL307:
 214:../switch_sdk/core/yt/yt_ctrlpkt.c ****     CMM_PARAM_CHK((L2_ACTION_COPY < act_ctrl || L2_ACTION_FWD > act_ctrl), CMM_ERR_INPUT);
 2228              		.loc 1 214 5 discriminator 5 view .LVU646
 2229 009e 0F48     		ldr	r0, .L224+24
 2230 00a0 FFF7FEFF 		bl	osal_printf
 2231              	.LVL308:
 2232 00a4 F5E7     		b	.L211
 2233              	.LVL309:
 2234              	.L218:
 214:../switch_sdk/core/yt/yt_ctrlpkt.c ****     CMM_PARAM_CHK((L2_ACTION_COPY < act_ctrl || L2_ACTION_FWD > act_ctrl), CMM_ERR_INPUT);
 2235              		.loc 1 214 5 discriminator 5 view .LVU647
 2236              	.LBE45:
 215:../switch_sdk/core/yt/yt_ctrlpkt.c ****         
 2237              		.loc 1 215 5 is_stmt 1 discriminator 1 view .LVU648
 215:../switch_sdk/core/yt/yt_ctrlpkt.c ****         
 2238              		.loc 1 215 5 discriminator 1 view .LVU649
 2239 00a6 0A4B     		ldr	r3, .L224+12
 2240 00a8 1B78     		ldrb	r3, [r3]	@ zero_extendqisi2
 2241 00aa 012B     		cmp	r3, #1
 2242 00ac 01D8     		bhi	.L223
 2243              	.LVL310:
 2244              	.L213:
 215:../switch_sdk/core/yt/yt_ctrlpkt.c ****         
 2245              		.loc 1 215 5 discriminator 5 view .LVU650
 215:../switch_sdk/core/yt/yt_ctrlpkt.c ****         
 2246              		.loc 1 215 5 discriminator 5 view .LVU651
 215:../switch_sdk/core/yt/yt_ctrlpkt.c ****         
 2247              		.loc 1 215 5 discriminator 5 view .LVU652
 2248 00ae 0520     		movs	r0, #5
 2249 00b0 C0E7     		b	.L201
 2250              	.LVL311:
 2251              	.L223:
 215:../switch_sdk/core/yt/yt_ctrlpkt.c ****         
 2252              		.loc 1 215 5 discriminator 3 view .LVU653
 2253              	.LBB46:
 215:../switch_sdk/core/yt/yt_ctrlpkt.c ****         
 2254              		.loc 1 215 5 discriminator 3 view .LVU654
 2255 00b2 084B     		ldr	r3, .L224+16
 2256 00b4 5A69     		ldr	r2, [r3, #20]
 2257              	.LVL312:
 215:../switch_sdk/core/yt/yt_ctrlpkt.c ****         
 2258              		.loc 1 215 5 is_stmt 0 discriminator 3 view .LVU655
 2259 00b6 084B     		ldr	r3, .L224+20
 2260 00b8 9968     		ldr	r1, [r3, #8]
 2261              	.LVL313:
 215:../switch_sdk/core/yt/yt_ctrlpkt.c ****         
 2262              		.loc 1 215 5 discriminator 3 view .LVU656
 2263 00ba 0848     		ldr	r0, .L224+24
 2264 00bc FFF7FEFF 		bl	osal_printf
 2265              	.LVL314:
 2266 00c0 F5E7     		b	.L213
 2267              	.L225:
 2268 00c2 00BF     		.align	2
 2269              	.L224:
 2270 00c4 00000000 		.word	gpfal_dispatch
 2271 00c8 00000000 		.word	gcal_inited
 2272 00cc 00000000 		.word	gpSwitchUnit
 2273 00d0 00000000 		.word	yt_debug_level
 2274 00d4 00000000 		.word	_yt_errmsg
 2275 00d8 00000000 		.word	_yt_prompt_msg
 2276 00dc 00000000 		.word	.LC0
 2277              	.LBE46:
 2278              		.cfi_endproc
 2279              	.LFE11:
 2281              		.section	.text.yt_ctrlpkt_lldp_eee_act_get,"ax",%progbits
 2282              		.align	1
 2283              		.global	yt_ctrlpkt_lldp_eee_act_get
 2284              		.syntax unified
 2285              		.thumb
 2286              		.thumb_func
 2288              	yt_ctrlpkt_lldp_eee_act_get:
 2289              	.LVL315:
 2290              	.LFB12:
 219:../switch_sdk/core/yt/yt_ctrlpkt.c **** 
 220:../switch_sdk/core/yt/yt_ctrlpkt.c **** 
 221:../switch_sdk/core/yt/yt_ctrlpkt.c **** /**
 222:../switch_sdk/core/yt/yt_ctrlpkt.c ****  * @internal      yt_ctrlpkt_lldp_eee_act_get
 223:../switch_sdk/core/yt/yt_ctrlpkt.c ****  * @endinternal
 224:../switch_sdk/core/yt/yt_ctrlpkt.c ****  *
 225:../switch_sdk/core/yt/yt_ctrlpkt.c ****  * @brief         Description
 226:../switch_sdk/core/yt/yt_ctrlpkt.c ****  * @param[in]     unit                -unit id
 227:../switch_sdk/core/yt/yt_ctrlpkt.c ****  * @param[in]     port                -port num
 228:../switch_sdk/core/yt/yt_ctrlpkt.c ****  * @param[out]    pAct_ctrl           -l2 packet action,FWD,TRAP,DROP,COPY
 229:../switch_sdk/core/yt/yt_ctrlpkt.c ****  * @retval        CMM_ERR_OK          -on success
 230:../switch_sdk/core/yt/yt_ctrlpkt.c ****  * @retval        CMM_ERR_FAIL        -on fail
 231:../switch_sdk/core/yt/yt_ctrlpkt.c ****  */
 232:../switch_sdk/core/yt/yt_ctrlpkt.c **** yt_ret_t yt_ctrlpkt_lldp_eee_act_get(yt_unit_t unit, yt_port_t port, yt_ctrlpkt_l2_action_t *pAct_c
 233:../switch_sdk/core/yt/yt_ctrlpkt.c ****     {
 2291              		.loc 1 233 5 is_stmt 1 view -0
 2292              		.cfi_startproc
 2293              		@ args = 0, pretend = 0, frame = 0
 2294              		@ frame_needed = 0, uses_anonymous_args = 0
 2295              		.loc 1 233 5 is_stmt 0 view .LVU658
 2296 0000 08B5     		push	{r3, lr}
 2297              		.cfi_def_cfa_offset 8
 2298              		.cfi_offset 3, -8
 2299              		.cfi_offset 14, -4
 234:../switch_sdk/core/yt/yt_ctrlpkt.c ****         CMM_PARAM_CHK((YT_UNIT_NUM <= unit), CMM_ERR_INPUT);
 2300              		.loc 1 234 9 is_stmt 1 view .LVU659
 2301              		.loc 1 234 9 view .LVU660
 2302 0002 C0B9     		cbnz	r0, .L240
 2303 0004 8446     		mov	ip, r0
 2304              		.loc 1 234 9 discriminator 2 view .LVU661
 235:../switch_sdk/core/yt/yt_ctrlpkt.c ****         CMM_PARAM_CHK(NULL == YT_DISPATCH(unit), CMM_ERR_NOT_INIT);
 2305              		.loc 1 235 9 discriminator 2 view .LVU662
 2306              		.loc 1 235 9 discriminator 2 view .LVU663
 2307 0006 2F4B     		ldr	r3, .L249
 2308 0008 53F82030 		ldr	r3, [r3, r0, lsl #2]
 2309 000c 0BB3     		cbz	r3, .L241
 2310              		.loc 1 235 9 discriminator 2 view .LVU664
 236:../switch_sdk/core/yt/yt_ctrlpkt.c ****         CMM_PARAM_CHK((!(YT_DISPATCH(unit)->is_inited)), CMM_ERR_NOT_INIT);
 2311              		.loc 1 236 9 discriminator 2 view .LVU665
 2312              		.loc 1 236 9 discriminator 2 view .LVU666
 2313 000e 1878     		ldrb	r0, [r3]	@ zero_extendqisi2
 2314              	.LVL316:
 2315              		.loc 1 236 9 is_stmt 0 discriminator 2 view .LVU667
 2316 0010 0028     		cmp	r0, #0
 2317 0012 2CD0     		beq	.L242
 2318              		.loc 1 236 9 is_stmt 1 discriminator 2 view .LVU668
 237:../switch_sdk/core/yt/yt_ctrlpkt.c ****         CMM_PARAM_CHK((!(CMM_PORT_VALID(unit,port))), CMM_ERR_PORT);
 2319              		.loc 1 237 9 discriminator 2 view .LVU669
 2320              		.loc 1 237 9 discriminator 2 view .LVU670
 2321 0014 2C48     		ldr	r0, .L249+4
 2322 0016 0078     		ldrb	r0, [r0]	@ zero_extendqisi2
 2323 0018 0028     		cmp	r0, #0
 2324 001a 36D0     		beq	.L234
 2325 001c 2B48     		ldr	r0, .L249+8
 2326 001e 50F82C00 		ldr	r0, [r0, ip, lsl #2]
 2327 0022 007D     		ldrb	r0, [r0, #20]	@ zero_extendqisi2
 2328 0024 8842     		cmp	r0, r1
 2329 0026 30D9     		bls	.L234
 2330              		.loc 1 237 9 discriminator 4 view .LVU671
 238:../switch_sdk/core/yt/yt_ctrlpkt.c ****         CMM_PARAM_CHK((NULL == pAct_ctrl), CMM_ERR_NULL_POINT);
 2331              		.loc 1 238 9 discriminator 4 view .LVU672
 2332              		.loc 1 238 9 discriminator 4 view .LVU673
 2333 0028 002A     		cmp	r2, #0
 2334 002a 3CD0     		beq	.L243
 2335              		.loc 1 238 9 discriminator 2 view .LVU674
 239:../switch_sdk/core/yt/yt_ctrlpkt.c ****         
 240:../switch_sdk/core/yt/yt_ctrlpkt.c ****         return YT_DISPATCH(unit)->ctrlpkt_lldp_eee_act_get(unit, port, pAct_ctrl);
 2336              		.loc 1 240 9 discriminator 2 view .LVU675
 2337              		.loc 1 240 33 is_stmt 0 discriminator 2 view .LVU676
 2338 002c D3F83C36 		ldr	r3, [r3, #1596]
 2339              		.loc 1 240 16 discriminator 2 view .LVU677
 2340 0030 6046     		mov	r0, ip
 2341 0032 9847     		blx	r3
 2342              	.LVL317:
 2343              	.L226:
 241:../switch_sdk/core/yt/yt_ctrlpkt.c ****     }
 2344              		.loc 1 241 5 view .LVU678
 2345 0034 08BD     		pop	{r3, pc}
 2346              	.LVL318:
 2347              	.L240:
 234:../switch_sdk/core/yt/yt_ctrlpkt.c ****         CMM_PARAM_CHK(NULL == YT_DISPATCH(unit), CMM_ERR_NOT_INIT);
 2348              		.loc 1 234 9 is_stmt 1 discriminator 1 view .LVU679
 234:../switch_sdk/core/yt/yt_ctrlpkt.c ****         CMM_PARAM_CHK(NULL == YT_DISPATCH(unit), CMM_ERR_NOT_INIT);
 2349              		.loc 1 234 9 discriminator 1 view .LVU680
 2350 0036 264B     		ldr	r3, .L249+12
 2351 0038 1B78     		ldrb	r3, [r3]	@ zero_extendqisi2
 2352 003a 012B     		cmp	r3, #1
 2353 003c 01D8     		bhi	.L244
 2354              	.LVL319:
 2355              	.L228:
 234:../switch_sdk/core/yt/yt_ctrlpkt.c ****         CMM_PARAM_CHK(NULL == YT_DISPATCH(unit), CMM_ERR_NOT_INIT);
 2356              		.loc 1 234 9 discriminator 5 view .LVU681
 234:../switch_sdk/core/yt/yt_ctrlpkt.c ****         CMM_PARAM_CHK(NULL == YT_DISPATCH(unit), CMM_ERR_NOT_INIT);
 2357              		.loc 1 234 9 discriminator 5 view .LVU682
 234:../switch_sdk/core/yt/yt_ctrlpkt.c ****         CMM_PARAM_CHK(NULL == YT_DISPATCH(unit), CMM_ERR_NOT_INIT);
 2358              		.loc 1 234 9 discriminator 5 view .LVU683
 2359 003e 0520     		movs	r0, #5
 2360 0040 F8E7     		b	.L226
 2361              	.LVL320:
 2362              	.L244:
 234:../switch_sdk/core/yt/yt_ctrlpkt.c ****         CMM_PARAM_CHK(NULL == YT_DISPATCH(unit), CMM_ERR_NOT_INIT);
 2363              		.loc 1 234 9 discriminator 3 view .LVU684
 2364              	.LBB47:
 234:../switch_sdk/core/yt/yt_ctrlpkt.c ****         CMM_PARAM_CHK(NULL == YT_DISPATCH(unit), CMM_ERR_NOT_INIT);
 2365              		.loc 1 234 9 discriminator 3 view .LVU685
 2366 0042 244B     		ldr	r3, .L249+16
 2367 0044 5A69     		ldr	r2, [r3, #20]
 2368              	.LVL321:
 234:../switch_sdk/core/yt/yt_ctrlpkt.c ****         CMM_PARAM_CHK(NULL == YT_DISPATCH(unit), CMM_ERR_NOT_INIT);
 2369              		.loc 1 234 9 is_stmt 0 discriminator 3 view .LVU686
 2370 0046 244B     		ldr	r3, .L249+20
 2371 0048 9968     		ldr	r1, [r3, #8]
 2372              	.LVL322:
 234:../switch_sdk/core/yt/yt_ctrlpkt.c ****         CMM_PARAM_CHK(NULL == YT_DISPATCH(unit), CMM_ERR_NOT_INIT);
 2373              		.loc 1 234 9 discriminator 3 view .LVU687
 2374 004a 2448     		ldr	r0, .L249+24
 2375              	.LVL323:
 234:../switch_sdk/core/yt/yt_ctrlpkt.c ****         CMM_PARAM_CHK(NULL == YT_DISPATCH(unit), CMM_ERR_NOT_INIT);
 2376              		.loc 1 234 9 discriminator 3 view .LVU688
 2377 004c FFF7FEFF 		bl	osal_printf
 2378              	.LVL324:
 2379 0050 F5E7     		b	.L228
 2380              	.LVL325:
 2381              	.L241:
 234:../switch_sdk/core/yt/yt_ctrlpkt.c ****         CMM_PARAM_CHK(NULL == YT_DISPATCH(unit), CMM_ERR_NOT_INIT);
 2382              		.loc 1 234 9 discriminator 3 view .LVU689
 2383              	.LBE47:
 235:../switch_sdk/core/yt/yt_ctrlpkt.c ****         CMM_PARAM_CHK((!(YT_DISPATCH(unit)->is_inited)), CMM_ERR_NOT_INIT);
 2384              		.loc 1 235 9 is_stmt 1 discriminator 1 view .LVU690
 235:../switch_sdk/core/yt/yt_ctrlpkt.c ****         CMM_PARAM_CHK((!(YT_DISPATCH(unit)->is_inited)), CMM_ERR_NOT_INIT);
 2385              		.loc 1 235 9 discriminator 1 view .LVU691
 2386 0052 1F4B     		ldr	r3, .L249+12
 2387 0054 1B78     		ldrb	r3, [r3]	@ zero_extendqisi2
 2388 0056 012B     		cmp	r3, #1
 2389 0058 01D8     		bhi	.L245
 2390              	.LVL326:
 2391              	.L231:
 235:../switch_sdk/core/yt/yt_ctrlpkt.c ****         CMM_PARAM_CHK((!(YT_DISPATCH(unit)->is_inited)), CMM_ERR_NOT_INIT);
 2392              		.loc 1 235 9 discriminator 5 view .LVU692
 235:../switch_sdk/core/yt/yt_ctrlpkt.c ****         CMM_PARAM_CHK((!(YT_DISPATCH(unit)->is_inited)), CMM_ERR_NOT_INIT);
 2393              		.loc 1 235 9 discriminator 5 view .LVU693
 235:../switch_sdk/core/yt/yt_ctrlpkt.c ****         CMM_PARAM_CHK((!(YT_DISPATCH(unit)->is_inited)), CMM_ERR_NOT_INIT);
 2394              		.loc 1 235 9 discriminator 5 view .LVU694
 2395 005a 0420     		movs	r0, #4
 2396 005c EAE7     		b	.L226
 2397              	.LVL327:
 2398              	.L245:
 235:../switch_sdk/core/yt/yt_ctrlpkt.c ****         CMM_PARAM_CHK((!(YT_DISPATCH(unit)->is_inited)), CMM_ERR_NOT_INIT);
 2399              		.loc 1 235 9 discriminator 3 view .LVU695
 2400              	.LBB48:
 235:../switch_sdk/core/yt/yt_ctrlpkt.c ****         CMM_PARAM_CHK((!(YT_DISPATCH(unit)->is_inited)), CMM_ERR_NOT_INIT);
 2401              		.loc 1 235 9 discriminator 3 view .LVU696
 2402 005e 1D4B     		ldr	r3, .L249+16
 2403 0060 1A69     		ldr	r2, [r3, #16]
 2404              	.LVL328:
 235:../switch_sdk/core/yt/yt_ctrlpkt.c ****         CMM_PARAM_CHK((!(YT_DISPATCH(unit)->is_inited)), CMM_ERR_NOT_INIT);
 2405              		.loc 1 235 9 is_stmt 0 discriminator 3 view .LVU697
 2406 0062 1D4B     		ldr	r3, .L249+20
 2407 0064 9968     		ldr	r1, [r3, #8]
 2408              	.LVL329:
 235:../switch_sdk/core/yt/yt_ctrlpkt.c ****         CMM_PARAM_CHK((!(YT_DISPATCH(unit)->is_inited)), CMM_ERR_NOT_INIT);
 2409              		.loc 1 235 9 discriminator 3 view .LVU698
 2410 0066 1D48     		ldr	r0, .L249+24
 2411              	.LVL330:
 235:../switch_sdk/core/yt/yt_ctrlpkt.c ****         CMM_PARAM_CHK((!(YT_DISPATCH(unit)->is_inited)), CMM_ERR_NOT_INIT);
 2412              		.loc 1 235 9 discriminator 3 view .LVU699
 2413 0068 FFF7FEFF 		bl	osal_printf
 2414              	.LVL331:
 2415 006c F5E7     		b	.L231
 2416              	.LVL332:
 2417              	.L242:
 235:../switch_sdk/core/yt/yt_ctrlpkt.c ****         CMM_PARAM_CHK((!(YT_DISPATCH(unit)->is_inited)), CMM_ERR_NOT_INIT);
 2418              		.loc 1 235 9 discriminator 3 view .LVU700
 2419              	.LBE48:
 236:../switch_sdk/core/yt/yt_ctrlpkt.c ****         CMM_PARAM_CHK((!(CMM_PORT_VALID(unit,port))), CMM_ERR_PORT);
 2420              		.loc 1 236 9 is_stmt 1 discriminator 1 view .LVU701
 236:../switch_sdk/core/yt/yt_ctrlpkt.c ****         CMM_PARAM_CHK((!(CMM_PORT_VALID(unit,port))), CMM_ERR_PORT);
 2421              		.loc 1 236 9 discriminator 1 view .LVU702
 2422 006e 184B     		ldr	r3, .L249+12
 2423 0070 1B78     		ldrb	r3, [r3]	@ zero_extendqisi2
 2424 0072 012B     		cmp	r3, #1
 2425 0074 01D8     		bhi	.L246
 2426              	.LVL333:
 2427              	.L233:
 236:../switch_sdk/core/yt/yt_ctrlpkt.c ****         CMM_PARAM_CHK((!(CMM_PORT_VALID(unit,port))), CMM_ERR_PORT);
 2428              		.loc 1 236 9 discriminator 5 view .LVU703
 236:../switch_sdk/core/yt/yt_ctrlpkt.c ****         CMM_PARAM_CHK((!(CMM_PORT_VALID(unit,port))), CMM_ERR_PORT);
 2429              		.loc 1 236 9 discriminator 5 view .LVU704
 236:../switch_sdk/core/yt/yt_ctrlpkt.c ****         CMM_PARAM_CHK((!(CMM_PORT_VALID(unit,port))), CMM_ERR_PORT);
 2430              		.loc 1 236 9 discriminator 5 view .LVU705
 2431 0076 0420     		movs	r0, #4
 2432 0078 DCE7     		b	.L226
 2433              	.LVL334:
 2434              	.L246:
 236:../switch_sdk/core/yt/yt_ctrlpkt.c ****         CMM_PARAM_CHK((!(CMM_PORT_VALID(unit,port))), CMM_ERR_PORT);
 2435              		.loc 1 236 9 discriminator 3 view .LVU706
 2436              	.LBB49:
 236:../switch_sdk/core/yt/yt_ctrlpkt.c ****         CMM_PARAM_CHK((!(CMM_PORT_VALID(unit,port))), CMM_ERR_PORT);
 2437              		.loc 1 236 9 discriminator 3 view .LVU707
 2438 007a 164B     		ldr	r3, .L249+16
 2439 007c 1A69     		ldr	r2, [r3, #16]
 2440              	.LVL335:
 236:../switch_sdk/core/yt/yt_ctrlpkt.c ****         CMM_PARAM_CHK((!(CMM_PORT_VALID(unit,port))), CMM_ERR_PORT);
 2441              		.loc 1 236 9 is_stmt 0 discriminator 3 view .LVU708
 2442 007e 164B     		ldr	r3, .L249+20
 2443 0080 9968     		ldr	r1, [r3, #8]
 2444              	.LVL336:
 236:../switch_sdk/core/yt/yt_ctrlpkt.c ****         CMM_PARAM_CHK((!(CMM_PORT_VALID(unit,port))), CMM_ERR_PORT);
 2445              		.loc 1 236 9 discriminator 3 view .LVU709
 2446 0082 1648     		ldr	r0, .L249+24
 2447 0084 FFF7FEFF 		bl	osal_printf
 2448              	.LVL337:
 2449 0088 F5E7     		b	.L233
 2450              	.LVL338:
 2451              	.L234:
 236:../switch_sdk/core/yt/yt_ctrlpkt.c ****         CMM_PARAM_CHK((!(CMM_PORT_VALID(unit,port))), CMM_ERR_PORT);
 2452              		.loc 1 236 9 discriminator 3 view .LVU710
 2453              	.LBE49:
 237:../switch_sdk/core/yt/yt_ctrlpkt.c ****         CMM_PARAM_CHK((NULL == pAct_ctrl), CMM_ERR_NULL_POINT);
 2454              		.loc 1 237 9 is_stmt 1 discriminator 3 view .LVU711
 237:../switch_sdk/core/yt/yt_ctrlpkt.c ****         CMM_PARAM_CHK((NULL == pAct_ctrl), CMM_ERR_NULL_POINT);
 2455              		.loc 1 237 9 discriminator 3 view .LVU712
 2456 008a 114B     		ldr	r3, .L249+12
 2457 008c 1B78     		ldrb	r3, [r3]	@ zero_extendqisi2
 2458 008e 012B     		cmp	r3, #1
 2459 0090 01D8     		bhi	.L247
 2460              	.LVL339:
 2461              	.L236:
 237:../switch_sdk/core/yt/yt_ctrlpkt.c ****         CMM_PARAM_CHK((NULL == pAct_ctrl), CMM_ERR_NULL_POINT);
 2462              		.loc 1 237 9 discriminator 7 view .LVU713
 237:../switch_sdk/core/yt/yt_ctrlpkt.c ****         CMM_PARAM_CHK((NULL == pAct_ctrl), CMM_ERR_NULL_POINT);
 2463              		.loc 1 237 9 discriminator 7 view .LVU714
 237:../switch_sdk/core/yt/yt_ctrlpkt.c ****         CMM_PARAM_CHK((NULL == pAct_ctrl), CMM_ERR_NULL_POINT);
 2464              		.loc 1 237 9 discriminator 7 view .LVU715
 2465 0092 0E20     		movs	r0, #14
 2466 0094 CEE7     		b	.L226
 2467              	.LVL340:
 2468              	.L247:
 237:../switch_sdk/core/yt/yt_ctrlpkt.c ****         CMM_PARAM_CHK((NULL == pAct_ctrl), CMM_ERR_NULL_POINT);
 2469              		.loc 1 237 9 discriminator 5 view .LVU716
 2470              	.LBB50:
 237:../switch_sdk/core/yt/yt_ctrlpkt.c ****         CMM_PARAM_CHK((NULL == pAct_ctrl), CMM_ERR_NULL_POINT);
 2471              		.loc 1 237 9 discriminator 5 view .LVU717
 2472 0096 0F4B     		ldr	r3, .L249+16
 2473 0098 9A6B     		ldr	r2, [r3, #56]
 2474              	.LVL341:
 237:../switch_sdk/core/yt/yt_ctrlpkt.c ****         CMM_PARAM_CHK((NULL == pAct_ctrl), CMM_ERR_NULL_POINT);
 2475              		.loc 1 237 9 is_stmt 0 discriminator 5 view .LVU718
 2476 009a 0F4B     		ldr	r3, .L249+20
 2477 009c 9968     		ldr	r1, [r3, #8]
 2478              	.LVL342:
 237:../switch_sdk/core/yt/yt_ctrlpkt.c ****         CMM_PARAM_CHK((NULL == pAct_ctrl), CMM_ERR_NULL_POINT);
 2479              		.loc 1 237 9 discriminator 5 view .LVU719
 2480 009e 0F48     		ldr	r0, .L249+24
 2481 00a0 FFF7FEFF 		bl	osal_printf
 2482              	.LVL343:
 2483 00a4 F5E7     		b	.L236
 2484              	.LVL344:
 2485              	.L243:
 237:../switch_sdk/core/yt/yt_ctrlpkt.c ****         CMM_PARAM_CHK((NULL == pAct_ctrl), CMM_ERR_NULL_POINT);
 2486              		.loc 1 237 9 discriminator 5 view .LVU720
 2487              	.LBE50:
 238:../switch_sdk/core/yt/yt_ctrlpkt.c ****         
 2488              		.loc 1 238 9 is_stmt 1 discriminator 1 view .LVU721
 238:../switch_sdk/core/yt/yt_ctrlpkt.c ****         
 2489              		.loc 1 238 9 discriminator 1 view .LVU722
 2490 00a6 0A4B     		ldr	r3, .L249+12
 2491 00a8 1B78     		ldrb	r3, [r3]	@ zero_extendqisi2
 2492 00aa 012B     		cmp	r3, #1
 2493 00ac 01D8     		bhi	.L248
 2494              	.LVL345:
 2495              	.L238:
 238:../switch_sdk/core/yt/yt_ctrlpkt.c ****         
 2496              		.loc 1 238 9 discriminator 5 view .LVU723
 238:../switch_sdk/core/yt/yt_ctrlpkt.c ****         
 2497              		.loc 1 238 9 discriminator 5 view .LVU724
 238:../switch_sdk/core/yt/yt_ctrlpkt.c ****         
 2498              		.loc 1 238 9 discriminator 5 view .LVU725
 2499 00ae 0220     		movs	r0, #2
 2500 00b0 C0E7     		b	.L226
 2501              	.LVL346:
 2502              	.L248:
 238:../switch_sdk/core/yt/yt_ctrlpkt.c ****         
 2503              		.loc 1 238 9 discriminator 3 view .LVU726
 2504              	.LBB51:
 238:../switch_sdk/core/yt/yt_ctrlpkt.c ****         
 2505              		.loc 1 238 9 discriminator 3 view .LVU727
 2506 00b2 084B     		ldr	r3, .L249+16
 2507 00b4 9A68     		ldr	r2, [r3, #8]
 2508              	.LVL347:
 238:../switch_sdk/core/yt/yt_ctrlpkt.c ****         
 2509              		.loc 1 238 9 is_stmt 0 discriminator 3 view .LVU728
 2510 00b6 084B     		ldr	r3, .L249+20
 2511 00b8 9968     		ldr	r1, [r3, #8]
 2512              	.LVL348:
 238:../switch_sdk/core/yt/yt_ctrlpkt.c ****         
 2513              		.loc 1 238 9 discriminator 3 view .LVU729
 2514 00ba 0848     		ldr	r0, .L249+24
 2515 00bc FFF7FEFF 		bl	osal_printf
 2516              	.LVL349:
 2517 00c0 F5E7     		b	.L238
 2518              	.L250:
 2519 00c2 00BF     		.align	2
 2520              	.L249:
 2521 00c4 00000000 		.word	gpfal_dispatch
 2522 00c8 00000000 		.word	gcal_inited
 2523 00cc 00000000 		.word	gpSwitchUnit
 2524 00d0 00000000 		.word	yt_debug_level
 2525 00d4 00000000 		.word	_yt_errmsg
 2526 00d8 00000000 		.word	_yt_prompt_msg
 2527 00dc 00000000 		.word	.LC0
 2528              	.LBE51:
 2529              		.cfi_endproc
 2530              	.LFE12:
 2532              		.section	.text.yt_ctrlpkt_lldp_act_set,"ax",%progbits
 2533              		.align	1
 2534              		.global	yt_ctrlpkt_lldp_act_set
 2535              		.syntax unified
 2536              		.thumb
 2537              		.thumb_func
 2539              	yt_ctrlpkt_lldp_act_set:
 2540              	.LVL350:
 2541              	.LFB13:
 242:../switch_sdk/core/yt/yt_ctrlpkt.c **** 
 243:../switch_sdk/core/yt/yt_ctrlpkt.c **** 
 244:../switch_sdk/core/yt/yt_ctrlpkt.c **** /**
 245:../switch_sdk/core/yt/yt_ctrlpkt.c ****  * @internal      yt_ctrlpkt_lldp_act_set
 246:../switch_sdk/core/yt/yt_ctrlpkt.c ****  * @endinternal
 247:../switch_sdk/core/yt/yt_ctrlpkt.c ****  *
 248:../switch_sdk/core/yt/yt_ctrlpkt.c ****  * @brief         Description
 249:../switch_sdk/core/yt/yt_ctrlpkt.c ****  * @param[in]     unit                -unit id
 250:../switch_sdk/core/yt/yt_ctrlpkt.c ****  * @param[in]     port                -port num
 251:../switch_sdk/core/yt/yt_ctrlpkt.c ****  * @param[in]     act_ctrl            -l2 packet action,FWD,TRAP,DROP,COPY
 252:../switch_sdk/core/yt/yt_ctrlpkt.c ****  * @retval        CMM_ERR_OK          -on success
 253:../switch_sdk/core/yt/yt_ctrlpkt.c ****  * @retval        CMM_ERR_FAIL        -on fail
 254:../switch_sdk/core/yt/yt_ctrlpkt.c ****  */
 255:../switch_sdk/core/yt/yt_ctrlpkt.c **** yt_ret_t yt_ctrlpkt_lldp_act_set(yt_unit_t unit, yt_port_t port, yt_ctrlpkt_l2_action_t act_ctrl)
 256:../switch_sdk/core/yt/yt_ctrlpkt.c **** {
 2542              		.loc 1 256 1 is_stmt 1 view -0
 2543              		.cfi_startproc
 2544              		@ args = 0, pretend = 0, frame = 0
 2545              		@ frame_needed = 0, uses_anonymous_args = 0
 2546              		.loc 1 256 1 is_stmt 0 view .LVU731
 2547 0000 08B5     		push	{r3, lr}
 2548              		.cfi_def_cfa_offset 8
 2549              		.cfi_offset 3, -8
 2550              		.cfi_offset 14, -4
 257:../switch_sdk/core/yt/yt_ctrlpkt.c ****     CMM_PARAM_CHK((YT_UNIT_NUM <= unit), CMM_ERR_INPUT);
 2551              		.loc 1 257 5 is_stmt 1 view .LVU732
 2552              		.loc 1 257 5 view .LVU733
 2553 0002 C0B9     		cbnz	r0, .L265
 2554 0004 8446     		mov	ip, r0
 2555              		.loc 1 257 5 discriminator 2 view .LVU734
 258:../switch_sdk/core/yt/yt_ctrlpkt.c ****     CMM_PARAM_CHK(NULL == YT_DISPATCH(unit), CMM_ERR_NOT_INIT);
 2556              		.loc 1 258 5 discriminator 2 view .LVU735
 2557              		.loc 1 258 5 discriminator 2 view .LVU736
 2558 0006 2F4B     		ldr	r3, .L274
 2559 0008 53F82030 		ldr	r3, [r3, r0, lsl #2]
 2560 000c 0BB3     		cbz	r3, .L266
 2561              		.loc 1 258 5 discriminator 2 view .LVU737
 259:../switch_sdk/core/yt/yt_ctrlpkt.c ****     CMM_PARAM_CHK((!(YT_DISPATCH(unit)->is_inited)), CMM_ERR_NOT_INIT);
 2562              		.loc 1 259 5 discriminator 2 view .LVU738
 2563              		.loc 1 259 5 discriminator 2 view .LVU739
 2564 000e 1878     		ldrb	r0, [r3]	@ zero_extendqisi2
 2565              	.LVL351:
 2566              		.loc 1 259 5 is_stmt 0 discriminator 2 view .LVU740
 2567 0010 0028     		cmp	r0, #0
 2568 0012 2CD0     		beq	.L267
 2569              		.loc 1 259 5 is_stmt 1 discriminator 2 view .LVU741
 260:../switch_sdk/core/yt/yt_ctrlpkt.c ****     CMM_PARAM_CHK((!(CMM_PORT_VALID(unit,port))), CMM_ERR_PORT);
 2570              		.loc 1 260 5 discriminator 2 view .LVU742
 2571              		.loc 1 260 5 discriminator 2 view .LVU743
 2572 0014 2C48     		ldr	r0, .L274+4
 2573 0016 0078     		ldrb	r0, [r0]	@ zero_extendqisi2
 2574 0018 0028     		cmp	r0, #0
 2575 001a 36D0     		beq	.L259
 2576 001c 2B48     		ldr	r0, .L274+8
 2577 001e 50F82C00 		ldr	r0, [r0, ip, lsl #2]
 2578 0022 007D     		ldrb	r0, [r0, #20]	@ zero_extendqisi2
 2579 0024 8842     		cmp	r0, r1
 2580 0026 30D9     		bls	.L259
 2581              		.loc 1 260 5 discriminator 4 view .LVU744
 261:../switch_sdk/core/yt/yt_ctrlpkt.c ****     CMM_PARAM_CHK((L2_ACTION_COPY < act_ctrl || L2_ACTION_FWD > act_ctrl), CMM_ERR_INPUT);
 2582              		.loc 1 261 5 discriminator 4 view .LVU745
 2583              		.loc 1 261 5 discriminator 4 view .LVU746
 2584 0028 032A     		cmp	r2, #3
 2585 002a 3CD8     		bhi	.L268
 2586              		.loc 1 261 5 discriminator 2 view .LVU747
 262:../switch_sdk/core/yt/yt_ctrlpkt.c ****         
 263:../switch_sdk/core/yt/yt_ctrlpkt.c ****     return YT_DISPATCH(unit)->ctrlpkt_lldp_act_set(unit, port, act_ctrl);
 2587              		.loc 1 263 5 discriminator 2 view .LVU748
 2588              		.loc 1 263 29 is_stmt 0 discriminator 2 view .LVU749
 2589 002c D3F84036 		ldr	r3, [r3, #1600]
 2590              		.loc 1 263 12 discriminator 2 view .LVU750
 2591 0030 6046     		mov	r0, ip
 2592 0032 9847     		blx	r3
 2593              	.LVL352:
 2594              	.L251:
 264:../switch_sdk/core/yt/yt_ctrlpkt.c **** }
 2595              		.loc 1 264 1 view .LVU751
 2596 0034 08BD     		pop	{r3, pc}
 2597              	.LVL353:
 2598              	.L265:
 257:../switch_sdk/core/yt/yt_ctrlpkt.c ****     CMM_PARAM_CHK(NULL == YT_DISPATCH(unit), CMM_ERR_NOT_INIT);
 2599              		.loc 1 257 5 is_stmt 1 discriminator 1 view .LVU752
 257:../switch_sdk/core/yt/yt_ctrlpkt.c ****     CMM_PARAM_CHK(NULL == YT_DISPATCH(unit), CMM_ERR_NOT_INIT);
 2600              		.loc 1 257 5 discriminator 1 view .LVU753
 2601 0036 264B     		ldr	r3, .L274+12
 2602 0038 1B78     		ldrb	r3, [r3]	@ zero_extendqisi2
 2603 003a 012B     		cmp	r3, #1
 2604 003c 01D8     		bhi	.L269
 2605              	.LVL354:
 2606              	.L253:
 257:../switch_sdk/core/yt/yt_ctrlpkt.c ****     CMM_PARAM_CHK(NULL == YT_DISPATCH(unit), CMM_ERR_NOT_INIT);
 2607              		.loc 1 257 5 discriminator 5 view .LVU754
 257:../switch_sdk/core/yt/yt_ctrlpkt.c ****     CMM_PARAM_CHK(NULL == YT_DISPATCH(unit), CMM_ERR_NOT_INIT);
 2608              		.loc 1 257 5 discriminator 5 view .LVU755
 257:../switch_sdk/core/yt/yt_ctrlpkt.c ****     CMM_PARAM_CHK(NULL == YT_DISPATCH(unit), CMM_ERR_NOT_INIT);
 2609              		.loc 1 257 5 discriminator 5 view .LVU756
 2610 003e 0520     		movs	r0, #5
 2611 0040 F8E7     		b	.L251
 2612              	.LVL355:
 2613              	.L269:
 257:../switch_sdk/core/yt/yt_ctrlpkt.c ****     CMM_PARAM_CHK(NULL == YT_DISPATCH(unit), CMM_ERR_NOT_INIT);
 2614              		.loc 1 257 5 discriminator 3 view .LVU757
 2615              	.LBB52:
 257:../switch_sdk/core/yt/yt_ctrlpkt.c ****     CMM_PARAM_CHK(NULL == YT_DISPATCH(unit), CMM_ERR_NOT_INIT);
 2616              		.loc 1 257 5 discriminator 3 view .LVU758
 2617 0042 244B     		ldr	r3, .L274+16
 2618 0044 5A69     		ldr	r2, [r3, #20]
 2619              	.LVL356:
 257:../switch_sdk/core/yt/yt_ctrlpkt.c ****     CMM_PARAM_CHK(NULL == YT_DISPATCH(unit), CMM_ERR_NOT_INIT);
 2620              		.loc 1 257 5 is_stmt 0 discriminator 3 view .LVU759
 2621 0046 244B     		ldr	r3, .L274+20
 2622 0048 9968     		ldr	r1, [r3, #8]
 2623              	.LVL357:
 257:../switch_sdk/core/yt/yt_ctrlpkt.c ****     CMM_PARAM_CHK(NULL == YT_DISPATCH(unit), CMM_ERR_NOT_INIT);
 2624              		.loc 1 257 5 discriminator 3 view .LVU760
 2625 004a 2448     		ldr	r0, .L274+24
 2626              	.LVL358:
 257:../switch_sdk/core/yt/yt_ctrlpkt.c ****     CMM_PARAM_CHK(NULL == YT_DISPATCH(unit), CMM_ERR_NOT_INIT);
 2627              		.loc 1 257 5 discriminator 3 view .LVU761
 2628 004c FFF7FEFF 		bl	osal_printf
 2629              	.LVL359:
 2630 0050 F5E7     		b	.L253
 2631              	.LVL360:
 2632              	.L266:
 257:../switch_sdk/core/yt/yt_ctrlpkt.c ****     CMM_PARAM_CHK(NULL == YT_DISPATCH(unit), CMM_ERR_NOT_INIT);
 2633              		.loc 1 257 5 discriminator 3 view .LVU762
 2634              	.LBE52:
 258:../switch_sdk/core/yt/yt_ctrlpkt.c ****     CMM_PARAM_CHK((!(YT_DISPATCH(unit)->is_inited)), CMM_ERR_NOT_INIT);
 2635              		.loc 1 258 5 is_stmt 1 discriminator 1 view .LVU763
 258:../switch_sdk/core/yt/yt_ctrlpkt.c ****     CMM_PARAM_CHK((!(YT_DISPATCH(unit)->is_inited)), CMM_ERR_NOT_INIT);
 2636              		.loc 1 258 5 discriminator 1 view .LVU764
 2637 0052 1F4B     		ldr	r3, .L274+12
 2638 0054 1B78     		ldrb	r3, [r3]	@ zero_extendqisi2
 2639 0056 012B     		cmp	r3, #1
 2640 0058 01D8     		bhi	.L270
 2641              	.LVL361:
 2642              	.L256:
 258:../switch_sdk/core/yt/yt_ctrlpkt.c ****     CMM_PARAM_CHK((!(YT_DISPATCH(unit)->is_inited)), CMM_ERR_NOT_INIT);
 2643              		.loc 1 258 5 discriminator 5 view .LVU765
 258:../switch_sdk/core/yt/yt_ctrlpkt.c ****     CMM_PARAM_CHK((!(YT_DISPATCH(unit)->is_inited)), CMM_ERR_NOT_INIT);
 2644              		.loc 1 258 5 discriminator 5 view .LVU766
 258:../switch_sdk/core/yt/yt_ctrlpkt.c ****     CMM_PARAM_CHK((!(YT_DISPATCH(unit)->is_inited)), CMM_ERR_NOT_INIT);
 2645              		.loc 1 258 5 discriminator 5 view .LVU767
 2646 005a 0420     		movs	r0, #4
 2647 005c EAE7     		b	.L251
 2648              	.LVL362:
 2649              	.L270:
 258:../switch_sdk/core/yt/yt_ctrlpkt.c ****     CMM_PARAM_CHK((!(YT_DISPATCH(unit)->is_inited)), CMM_ERR_NOT_INIT);
 2650              		.loc 1 258 5 discriminator 3 view .LVU768
 2651              	.LBB53:
 258:../switch_sdk/core/yt/yt_ctrlpkt.c ****     CMM_PARAM_CHK((!(YT_DISPATCH(unit)->is_inited)), CMM_ERR_NOT_INIT);
 2652              		.loc 1 258 5 discriminator 3 view .LVU769
 2653 005e 1D4B     		ldr	r3, .L274+16
 2654 0060 1A69     		ldr	r2, [r3, #16]
 2655              	.LVL363:
 258:../switch_sdk/core/yt/yt_ctrlpkt.c ****     CMM_PARAM_CHK((!(YT_DISPATCH(unit)->is_inited)), CMM_ERR_NOT_INIT);
 2656              		.loc 1 258 5 is_stmt 0 discriminator 3 view .LVU770
 2657 0062 1D4B     		ldr	r3, .L274+20
 2658 0064 9968     		ldr	r1, [r3, #8]
 2659              	.LVL364:
 258:../switch_sdk/core/yt/yt_ctrlpkt.c ****     CMM_PARAM_CHK((!(YT_DISPATCH(unit)->is_inited)), CMM_ERR_NOT_INIT);
 2660              		.loc 1 258 5 discriminator 3 view .LVU771
 2661 0066 1D48     		ldr	r0, .L274+24
 2662              	.LVL365:
 258:../switch_sdk/core/yt/yt_ctrlpkt.c ****     CMM_PARAM_CHK((!(YT_DISPATCH(unit)->is_inited)), CMM_ERR_NOT_INIT);
 2663              		.loc 1 258 5 discriminator 3 view .LVU772
 2664 0068 FFF7FEFF 		bl	osal_printf
 2665              	.LVL366:
 2666 006c F5E7     		b	.L256
 2667              	.LVL367:
 2668              	.L267:
 258:../switch_sdk/core/yt/yt_ctrlpkt.c ****     CMM_PARAM_CHK((!(YT_DISPATCH(unit)->is_inited)), CMM_ERR_NOT_INIT);
 2669              		.loc 1 258 5 discriminator 3 view .LVU773
 2670              	.LBE53:
 259:../switch_sdk/core/yt/yt_ctrlpkt.c ****     CMM_PARAM_CHK((!(CMM_PORT_VALID(unit,port))), CMM_ERR_PORT);
 2671              		.loc 1 259 5 is_stmt 1 discriminator 1 view .LVU774
 259:../switch_sdk/core/yt/yt_ctrlpkt.c ****     CMM_PARAM_CHK((!(CMM_PORT_VALID(unit,port))), CMM_ERR_PORT);
 2672              		.loc 1 259 5 discriminator 1 view .LVU775
 2673 006e 184B     		ldr	r3, .L274+12
 2674 0070 1B78     		ldrb	r3, [r3]	@ zero_extendqisi2
 2675 0072 012B     		cmp	r3, #1
 2676 0074 01D8     		bhi	.L271
 2677              	.LVL368:
 2678              	.L258:
 259:../switch_sdk/core/yt/yt_ctrlpkt.c ****     CMM_PARAM_CHK((!(CMM_PORT_VALID(unit,port))), CMM_ERR_PORT);
 2679              		.loc 1 259 5 discriminator 5 view .LVU776
 259:../switch_sdk/core/yt/yt_ctrlpkt.c ****     CMM_PARAM_CHK((!(CMM_PORT_VALID(unit,port))), CMM_ERR_PORT);
 2680              		.loc 1 259 5 discriminator 5 view .LVU777
 259:../switch_sdk/core/yt/yt_ctrlpkt.c ****     CMM_PARAM_CHK((!(CMM_PORT_VALID(unit,port))), CMM_ERR_PORT);
 2681              		.loc 1 259 5 discriminator 5 view .LVU778
 2682 0076 0420     		movs	r0, #4
 2683 0078 DCE7     		b	.L251
 2684              	.LVL369:
 2685              	.L271:
 259:../switch_sdk/core/yt/yt_ctrlpkt.c ****     CMM_PARAM_CHK((!(CMM_PORT_VALID(unit,port))), CMM_ERR_PORT);
 2686              		.loc 1 259 5 discriminator 3 view .LVU779
 2687              	.LBB54:
 259:../switch_sdk/core/yt/yt_ctrlpkt.c ****     CMM_PARAM_CHK((!(CMM_PORT_VALID(unit,port))), CMM_ERR_PORT);
 2688              		.loc 1 259 5 discriminator 3 view .LVU780
 2689 007a 164B     		ldr	r3, .L274+16
 2690 007c 1A69     		ldr	r2, [r3, #16]
 2691              	.LVL370:
 259:../switch_sdk/core/yt/yt_ctrlpkt.c ****     CMM_PARAM_CHK((!(CMM_PORT_VALID(unit,port))), CMM_ERR_PORT);
 2692              		.loc 1 259 5 is_stmt 0 discriminator 3 view .LVU781
 2693 007e 164B     		ldr	r3, .L274+20
 2694 0080 9968     		ldr	r1, [r3, #8]
 2695              	.LVL371:
 259:../switch_sdk/core/yt/yt_ctrlpkt.c ****     CMM_PARAM_CHK((!(CMM_PORT_VALID(unit,port))), CMM_ERR_PORT);
 2696              		.loc 1 259 5 discriminator 3 view .LVU782
 2697 0082 1648     		ldr	r0, .L274+24
 2698 0084 FFF7FEFF 		bl	osal_printf
 2699              	.LVL372:
 2700 0088 F5E7     		b	.L258
 2701              	.LVL373:
 2702              	.L259:
 259:../switch_sdk/core/yt/yt_ctrlpkt.c ****     CMM_PARAM_CHK((!(CMM_PORT_VALID(unit,port))), CMM_ERR_PORT);
 2703              		.loc 1 259 5 discriminator 3 view .LVU783
 2704              	.LBE54:
 260:../switch_sdk/core/yt/yt_ctrlpkt.c ****     CMM_PARAM_CHK((L2_ACTION_COPY < act_ctrl || L2_ACTION_FWD > act_ctrl), CMM_ERR_INPUT);
 2705              		.loc 1 260 5 is_stmt 1 discriminator 3 view .LVU784
 260:../switch_sdk/core/yt/yt_ctrlpkt.c ****     CMM_PARAM_CHK((L2_ACTION_COPY < act_ctrl || L2_ACTION_FWD > act_ctrl), CMM_ERR_INPUT);
 2706              		.loc 1 260 5 discriminator 3 view .LVU785
 2707 008a 114B     		ldr	r3, .L274+12
 2708 008c 1B78     		ldrb	r3, [r3]	@ zero_extendqisi2
 2709 008e 012B     		cmp	r3, #1
 2710 0090 01D8     		bhi	.L272
 2711              	.LVL374:
 2712              	.L261:
 260:../switch_sdk/core/yt/yt_ctrlpkt.c ****     CMM_PARAM_CHK((L2_ACTION_COPY < act_ctrl || L2_ACTION_FWD > act_ctrl), CMM_ERR_INPUT);
 2713              		.loc 1 260 5 discriminator 7 view .LVU786
 260:../switch_sdk/core/yt/yt_ctrlpkt.c ****     CMM_PARAM_CHK((L2_ACTION_COPY < act_ctrl || L2_ACTION_FWD > act_ctrl), CMM_ERR_INPUT);
 2714              		.loc 1 260 5 discriminator 7 view .LVU787
 260:../switch_sdk/core/yt/yt_ctrlpkt.c ****     CMM_PARAM_CHK((L2_ACTION_COPY < act_ctrl || L2_ACTION_FWD > act_ctrl), CMM_ERR_INPUT);
 2715              		.loc 1 260 5 discriminator 7 view .LVU788
 2716 0092 0E20     		movs	r0, #14
 2717 0094 CEE7     		b	.L251
 2718              	.LVL375:
 2719              	.L272:
 260:../switch_sdk/core/yt/yt_ctrlpkt.c ****     CMM_PARAM_CHK((L2_ACTION_COPY < act_ctrl || L2_ACTION_FWD > act_ctrl), CMM_ERR_INPUT);
 2720              		.loc 1 260 5 discriminator 5 view .LVU789
 2721              	.LBB55:
 260:../switch_sdk/core/yt/yt_ctrlpkt.c ****     CMM_PARAM_CHK((L2_ACTION_COPY < act_ctrl || L2_ACTION_FWD > act_ctrl), CMM_ERR_INPUT);
 2722              		.loc 1 260 5 discriminator 5 view .LVU790
 2723 0096 0F4B     		ldr	r3, .L274+16
 2724 0098 9A6B     		ldr	r2, [r3, #56]
 2725              	.LVL376:
 260:../switch_sdk/core/yt/yt_ctrlpkt.c ****     CMM_PARAM_CHK((L2_ACTION_COPY < act_ctrl || L2_ACTION_FWD > act_ctrl), CMM_ERR_INPUT);
 2726              		.loc 1 260 5 is_stmt 0 discriminator 5 view .LVU791
 2727 009a 0F4B     		ldr	r3, .L274+20
 2728 009c 9968     		ldr	r1, [r3, #8]
 2729              	.LVL377:
 260:../switch_sdk/core/yt/yt_ctrlpkt.c ****     CMM_PARAM_CHK((L2_ACTION_COPY < act_ctrl || L2_ACTION_FWD > act_ctrl), CMM_ERR_INPUT);
 2730              		.loc 1 260 5 discriminator 5 view .LVU792
 2731 009e 0F48     		ldr	r0, .L274+24
 2732 00a0 FFF7FEFF 		bl	osal_printf
 2733              	.LVL378:
 2734 00a4 F5E7     		b	.L261
 2735              	.LVL379:
 2736              	.L268:
 260:../switch_sdk/core/yt/yt_ctrlpkt.c ****     CMM_PARAM_CHK((L2_ACTION_COPY < act_ctrl || L2_ACTION_FWD > act_ctrl), CMM_ERR_INPUT);
 2737              		.loc 1 260 5 discriminator 5 view .LVU793
 2738              	.LBE55:
 261:../switch_sdk/core/yt/yt_ctrlpkt.c ****         
 2739              		.loc 1 261 5 is_stmt 1 discriminator 1 view .LVU794
 261:../switch_sdk/core/yt/yt_ctrlpkt.c ****         
 2740              		.loc 1 261 5 discriminator 1 view .LVU795
 2741 00a6 0A4B     		ldr	r3, .L274+12
 2742 00a8 1B78     		ldrb	r3, [r3]	@ zero_extendqisi2
 2743 00aa 012B     		cmp	r3, #1
 2744 00ac 01D8     		bhi	.L273
 2745              	.LVL380:
 2746              	.L263:
 261:../switch_sdk/core/yt/yt_ctrlpkt.c ****         
 2747              		.loc 1 261 5 discriminator 5 view .LVU796
 261:../switch_sdk/core/yt/yt_ctrlpkt.c ****         
 2748              		.loc 1 261 5 discriminator 5 view .LVU797
 261:../switch_sdk/core/yt/yt_ctrlpkt.c ****         
 2749              		.loc 1 261 5 discriminator 5 view .LVU798
 2750 00ae 0520     		movs	r0, #5
 2751 00b0 C0E7     		b	.L251
 2752              	.LVL381:
 2753              	.L273:
 261:../switch_sdk/core/yt/yt_ctrlpkt.c ****         
 2754              		.loc 1 261 5 discriminator 3 view .LVU799
 2755              	.LBB56:
 261:../switch_sdk/core/yt/yt_ctrlpkt.c ****         
 2756              		.loc 1 261 5 discriminator 3 view .LVU800
 2757 00b2 084B     		ldr	r3, .L274+16
 2758 00b4 5A69     		ldr	r2, [r3, #20]
 2759              	.LVL382:
 261:../switch_sdk/core/yt/yt_ctrlpkt.c ****         
 2760              		.loc 1 261 5 is_stmt 0 discriminator 3 view .LVU801
 2761 00b6 084B     		ldr	r3, .L274+20
 2762 00b8 9968     		ldr	r1, [r3, #8]
 2763              	.LVL383:
 261:../switch_sdk/core/yt/yt_ctrlpkt.c ****         
 2764              		.loc 1 261 5 discriminator 3 view .LVU802
 2765 00ba 0848     		ldr	r0, .L274+24
 2766 00bc FFF7FEFF 		bl	osal_printf
 2767              	.LVL384:
 2768 00c0 F5E7     		b	.L263
 2769              	.L275:
 2770 00c2 00BF     		.align	2
 2771              	.L274:
 2772 00c4 00000000 		.word	gpfal_dispatch
 2773 00c8 00000000 		.word	gcal_inited
 2774 00cc 00000000 		.word	gpSwitchUnit
 2775 00d0 00000000 		.word	yt_debug_level
 2776 00d4 00000000 		.word	_yt_errmsg
 2777 00d8 00000000 		.word	_yt_prompt_msg
 2778 00dc 00000000 		.word	.LC0
 2779              	.LBE56:
 2780              		.cfi_endproc
 2781              	.LFE13:
 2783              		.section	.text.yt_ctrlpkt_lldp_act_get,"ax",%progbits
 2784              		.align	1
 2785              		.global	yt_ctrlpkt_lldp_act_get
 2786              		.syntax unified
 2787              		.thumb
 2788              		.thumb_func
 2790              	yt_ctrlpkt_lldp_act_get:
 2791              	.LVL385:
 2792              	.LFB14:
 265:../switch_sdk/core/yt/yt_ctrlpkt.c **** 
 266:../switch_sdk/core/yt/yt_ctrlpkt.c **** 
 267:../switch_sdk/core/yt/yt_ctrlpkt.c **** /**
 268:../switch_sdk/core/yt/yt_ctrlpkt.c ****  * @internal      yt_ctrlpkt_lldp_act_get
 269:../switch_sdk/core/yt/yt_ctrlpkt.c ****  * @endinternal
 270:../switch_sdk/core/yt/yt_ctrlpkt.c ****  *
 271:../switch_sdk/core/yt/yt_ctrlpkt.c ****  * @brief         Description
 272:../switch_sdk/core/yt/yt_ctrlpkt.c ****  * @param[in]     unit                -unit id
 273:../switch_sdk/core/yt/yt_ctrlpkt.c ****  * @param[in]     port                -port num
 274:../switch_sdk/core/yt/yt_ctrlpkt.c ****  * @param[out]    pAct_ctrl           -l2 packet action,FWD,TRAP,DROP,COPY
 275:../switch_sdk/core/yt/yt_ctrlpkt.c ****  * @retval        CMM_ERR_OK          -on success
 276:../switch_sdk/core/yt/yt_ctrlpkt.c ****  * @retval        CMM_ERR_FAIL        -on fail
 277:../switch_sdk/core/yt/yt_ctrlpkt.c ****  */
 278:../switch_sdk/core/yt/yt_ctrlpkt.c **** yt_ret_t yt_ctrlpkt_lldp_act_get(yt_unit_t unit, yt_port_t port, yt_ctrlpkt_l2_action_t *pAct_ctrl)
 279:../switch_sdk/core/yt/yt_ctrlpkt.c **** {
 2793              		.loc 1 279 1 is_stmt 1 view -0
 2794              		.cfi_startproc
 2795              		@ args = 0, pretend = 0, frame = 0
 2796              		@ frame_needed = 0, uses_anonymous_args = 0
 2797              		.loc 1 279 1 is_stmt 0 view .LVU804
 2798 0000 08B5     		push	{r3, lr}
 2799              		.cfi_def_cfa_offset 8
 2800              		.cfi_offset 3, -8
 2801              		.cfi_offset 14, -4
 280:../switch_sdk/core/yt/yt_ctrlpkt.c ****     CMM_PARAM_CHK((YT_UNIT_NUM <= unit), CMM_ERR_INPUT);
 2802              		.loc 1 280 5 is_stmt 1 view .LVU805
 2803              		.loc 1 280 5 view .LVU806
 2804 0002 C0B9     		cbnz	r0, .L290
 2805 0004 8446     		mov	ip, r0
 2806              		.loc 1 280 5 discriminator 2 view .LVU807
 281:../switch_sdk/core/yt/yt_ctrlpkt.c ****     CMM_PARAM_CHK(NULL == YT_DISPATCH(unit), CMM_ERR_NOT_INIT);
 2807              		.loc 1 281 5 discriminator 2 view .LVU808
 2808              		.loc 1 281 5 discriminator 2 view .LVU809
 2809 0006 2F4B     		ldr	r3, .L299
 2810 0008 53F82030 		ldr	r3, [r3, r0, lsl #2]
 2811 000c 0BB3     		cbz	r3, .L291
 2812              		.loc 1 281 5 discriminator 2 view .LVU810
 282:../switch_sdk/core/yt/yt_ctrlpkt.c ****     CMM_PARAM_CHK((!(YT_DISPATCH(unit)->is_inited)), CMM_ERR_NOT_INIT);
 2813              		.loc 1 282 5 discriminator 2 view .LVU811
 2814              		.loc 1 282 5 discriminator 2 view .LVU812
 2815 000e 1878     		ldrb	r0, [r3]	@ zero_extendqisi2
 2816              	.LVL386:
 2817              		.loc 1 282 5 is_stmt 0 discriminator 2 view .LVU813
 2818 0010 0028     		cmp	r0, #0
 2819 0012 2CD0     		beq	.L292
 2820              		.loc 1 282 5 is_stmt 1 discriminator 2 view .LVU814
 283:../switch_sdk/core/yt/yt_ctrlpkt.c ****     CMM_PARAM_CHK((!(CMM_PORT_VALID(unit,port))), CMM_ERR_PORT);
 2821              		.loc 1 283 5 discriminator 2 view .LVU815
 2822              		.loc 1 283 5 discriminator 2 view .LVU816
 2823 0014 2C48     		ldr	r0, .L299+4
 2824 0016 0078     		ldrb	r0, [r0]	@ zero_extendqisi2
 2825 0018 0028     		cmp	r0, #0
 2826 001a 36D0     		beq	.L284
 2827 001c 2B48     		ldr	r0, .L299+8
 2828 001e 50F82C00 		ldr	r0, [r0, ip, lsl #2]
 2829 0022 007D     		ldrb	r0, [r0, #20]	@ zero_extendqisi2
 2830 0024 8842     		cmp	r0, r1
 2831 0026 30D9     		bls	.L284
 2832              		.loc 1 283 5 discriminator 4 view .LVU817
 284:../switch_sdk/core/yt/yt_ctrlpkt.c ****     CMM_PARAM_CHK((NULL == pAct_ctrl), CMM_ERR_NULL_POINT);
 2833              		.loc 1 284 5 discriminator 4 view .LVU818
 2834              		.loc 1 284 5 discriminator 4 view .LVU819
 2835 0028 002A     		cmp	r2, #0
 2836 002a 3CD0     		beq	.L293
 2837              		.loc 1 284 5 discriminator 2 view .LVU820
 285:../switch_sdk/core/yt/yt_ctrlpkt.c ****         
 286:../switch_sdk/core/yt/yt_ctrlpkt.c ****     return YT_DISPATCH(unit)->ctrlpkt_lldp_act_get(unit, port, pAct_ctrl);
 2838              		.loc 1 286 5 discriminator 2 view .LVU821
 2839              		.loc 1 286 29 is_stmt 0 discriminator 2 view .LVU822
 2840 002c D3F84436 		ldr	r3, [r3, #1604]
 2841              		.loc 1 286 12 discriminator 2 view .LVU823
 2842 0030 6046     		mov	r0, ip
 2843 0032 9847     		blx	r3
 2844              	.LVL387:
 2845              	.L276:
 287:../switch_sdk/core/yt/yt_ctrlpkt.c **** }
 2846              		.loc 1 287 1 view .LVU824
 2847 0034 08BD     		pop	{r3, pc}
 2848              	.LVL388:
 2849              	.L290:
 280:../switch_sdk/core/yt/yt_ctrlpkt.c ****     CMM_PARAM_CHK(NULL == YT_DISPATCH(unit), CMM_ERR_NOT_INIT);
 2850              		.loc 1 280 5 is_stmt 1 discriminator 1 view .LVU825
 280:../switch_sdk/core/yt/yt_ctrlpkt.c ****     CMM_PARAM_CHK(NULL == YT_DISPATCH(unit), CMM_ERR_NOT_INIT);
 2851              		.loc 1 280 5 discriminator 1 view .LVU826
 2852 0036 264B     		ldr	r3, .L299+12
 2853 0038 1B78     		ldrb	r3, [r3]	@ zero_extendqisi2
 2854 003a 012B     		cmp	r3, #1
 2855 003c 01D8     		bhi	.L294
 2856              	.LVL389:
 2857              	.L278:
 280:../switch_sdk/core/yt/yt_ctrlpkt.c ****     CMM_PARAM_CHK(NULL == YT_DISPATCH(unit), CMM_ERR_NOT_INIT);
 2858              		.loc 1 280 5 discriminator 5 view .LVU827
 280:../switch_sdk/core/yt/yt_ctrlpkt.c ****     CMM_PARAM_CHK(NULL == YT_DISPATCH(unit), CMM_ERR_NOT_INIT);
 2859              		.loc 1 280 5 discriminator 5 view .LVU828
 280:../switch_sdk/core/yt/yt_ctrlpkt.c ****     CMM_PARAM_CHK(NULL == YT_DISPATCH(unit), CMM_ERR_NOT_INIT);
 2860              		.loc 1 280 5 discriminator 5 view .LVU829
 2861 003e 0520     		movs	r0, #5
 2862 0040 F8E7     		b	.L276
 2863              	.LVL390:
 2864              	.L294:
 280:../switch_sdk/core/yt/yt_ctrlpkt.c ****     CMM_PARAM_CHK(NULL == YT_DISPATCH(unit), CMM_ERR_NOT_INIT);
 2865              		.loc 1 280 5 discriminator 3 view .LVU830
 2866              	.LBB57:
 280:../switch_sdk/core/yt/yt_ctrlpkt.c ****     CMM_PARAM_CHK(NULL == YT_DISPATCH(unit), CMM_ERR_NOT_INIT);
 2867              		.loc 1 280 5 discriminator 3 view .LVU831
 2868 0042 244B     		ldr	r3, .L299+16
 2869 0044 5A69     		ldr	r2, [r3, #20]
 2870              	.LVL391:
 280:../switch_sdk/core/yt/yt_ctrlpkt.c ****     CMM_PARAM_CHK(NULL == YT_DISPATCH(unit), CMM_ERR_NOT_INIT);
 2871              		.loc 1 280 5 is_stmt 0 discriminator 3 view .LVU832
 2872 0046 244B     		ldr	r3, .L299+20
 2873 0048 9968     		ldr	r1, [r3, #8]
 2874              	.LVL392:
 280:../switch_sdk/core/yt/yt_ctrlpkt.c ****     CMM_PARAM_CHK(NULL == YT_DISPATCH(unit), CMM_ERR_NOT_INIT);
 2875              		.loc 1 280 5 discriminator 3 view .LVU833
 2876 004a 2448     		ldr	r0, .L299+24
 2877              	.LVL393:
 280:../switch_sdk/core/yt/yt_ctrlpkt.c ****     CMM_PARAM_CHK(NULL == YT_DISPATCH(unit), CMM_ERR_NOT_INIT);
 2878              		.loc 1 280 5 discriminator 3 view .LVU834
 2879 004c FFF7FEFF 		bl	osal_printf
 2880              	.LVL394:
 2881 0050 F5E7     		b	.L278
 2882              	.LVL395:
 2883              	.L291:
 280:../switch_sdk/core/yt/yt_ctrlpkt.c ****     CMM_PARAM_CHK(NULL == YT_DISPATCH(unit), CMM_ERR_NOT_INIT);
 2884              		.loc 1 280 5 discriminator 3 view .LVU835
 2885              	.LBE57:
 281:../switch_sdk/core/yt/yt_ctrlpkt.c ****     CMM_PARAM_CHK((!(YT_DISPATCH(unit)->is_inited)), CMM_ERR_NOT_INIT);
 2886              		.loc 1 281 5 is_stmt 1 discriminator 1 view .LVU836
 281:../switch_sdk/core/yt/yt_ctrlpkt.c ****     CMM_PARAM_CHK((!(YT_DISPATCH(unit)->is_inited)), CMM_ERR_NOT_INIT);
 2887              		.loc 1 281 5 discriminator 1 view .LVU837
 2888 0052 1F4B     		ldr	r3, .L299+12
 2889 0054 1B78     		ldrb	r3, [r3]	@ zero_extendqisi2
 2890 0056 012B     		cmp	r3, #1
 2891 0058 01D8     		bhi	.L295
 2892              	.LVL396:
 2893              	.L281:
 281:../switch_sdk/core/yt/yt_ctrlpkt.c ****     CMM_PARAM_CHK((!(YT_DISPATCH(unit)->is_inited)), CMM_ERR_NOT_INIT);
 2894              		.loc 1 281 5 discriminator 5 view .LVU838
 281:../switch_sdk/core/yt/yt_ctrlpkt.c ****     CMM_PARAM_CHK((!(YT_DISPATCH(unit)->is_inited)), CMM_ERR_NOT_INIT);
 2895              		.loc 1 281 5 discriminator 5 view .LVU839
 281:../switch_sdk/core/yt/yt_ctrlpkt.c ****     CMM_PARAM_CHK((!(YT_DISPATCH(unit)->is_inited)), CMM_ERR_NOT_INIT);
 2896              		.loc 1 281 5 discriminator 5 view .LVU840
 2897 005a 0420     		movs	r0, #4
 2898 005c EAE7     		b	.L276
 2899              	.LVL397:
 2900              	.L295:
 281:../switch_sdk/core/yt/yt_ctrlpkt.c ****     CMM_PARAM_CHK((!(YT_DISPATCH(unit)->is_inited)), CMM_ERR_NOT_INIT);
 2901              		.loc 1 281 5 discriminator 3 view .LVU841
 2902              	.LBB58:
 281:../switch_sdk/core/yt/yt_ctrlpkt.c ****     CMM_PARAM_CHK((!(YT_DISPATCH(unit)->is_inited)), CMM_ERR_NOT_INIT);
 2903              		.loc 1 281 5 discriminator 3 view .LVU842
 2904 005e 1D4B     		ldr	r3, .L299+16
 2905 0060 1A69     		ldr	r2, [r3, #16]
 2906              	.LVL398:
 281:../switch_sdk/core/yt/yt_ctrlpkt.c ****     CMM_PARAM_CHK((!(YT_DISPATCH(unit)->is_inited)), CMM_ERR_NOT_INIT);
 2907              		.loc 1 281 5 is_stmt 0 discriminator 3 view .LVU843
 2908 0062 1D4B     		ldr	r3, .L299+20
 2909 0064 9968     		ldr	r1, [r3, #8]
 2910              	.LVL399:
 281:../switch_sdk/core/yt/yt_ctrlpkt.c ****     CMM_PARAM_CHK((!(YT_DISPATCH(unit)->is_inited)), CMM_ERR_NOT_INIT);
 2911              		.loc 1 281 5 discriminator 3 view .LVU844
 2912 0066 1D48     		ldr	r0, .L299+24
 2913              	.LVL400:
 281:../switch_sdk/core/yt/yt_ctrlpkt.c ****     CMM_PARAM_CHK((!(YT_DISPATCH(unit)->is_inited)), CMM_ERR_NOT_INIT);
 2914              		.loc 1 281 5 discriminator 3 view .LVU845
 2915 0068 FFF7FEFF 		bl	osal_printf
 2916              	.LVL401:
 2917 006c F5E7     		b	.L281
 2918              	.LVL402:
 2919              	.L292:
 281:../switch_sdk/core/yt/yt_ctrlpkt.c ****     CMM_PARAM_CHK((!(YT_DISPATCH(unit)->is_inited)), CMM_ERR_NOT_INIT);
 2920              		.loc 1 281 5 discriminator 3 view .LVU846
 2921              	.LBE58:
 282:../switch_sdk/core/yt/yt_ctrlpkt.c ****     CMM_PARAM_CHK((!(CMM_PORT_VALID(unit,port))), CMM_ERR_PORT);
 2922              		.loc 1 282 5 is_stmt 1 discriminator 1 view .LVU847
 282:../switch_sdk/core/yt/yt_ctrlpkt.c ****     CMM_PARAM_CHK((!(CMM_PORT_VALID(unit,port))), CMM_ERR_PORT);
 2923              		.loc 1 282 5 discriminator 1 view .LVU848
 2924 006e 184B     		ldr	r3, .L299+12
 2925 0070 1B78     		ldrb	r3, [r3]	@ zero_extendqisi2
 2926 0072 012B     		cmp	r3, #1
 2927 0074 01D8     		bhi	.L296
 2928              	.LVL403:
 2929              	.L283:
 282:../switch_sdk/core/yt/yt_ctrlpkt.c ****     CMM_PARAM_CHK((!(CMM_PORT_VALID(unit,port))), CMM_ERR_PORT);
 2930              		.loc 1 282 5 discriminator 5 view .LVU849
 282:../switch_sdk/core/yt/yt_ctrlpkt.c ****     CMM_PARAM_CHK((!(CMM_PORT_VALID(unit,port))), CMM_ERR_PORT);
 2931              		.loc 1 282 5 discriminator 5 view .LVU850
 282:../switch_sdk/core/yt/yt_ctrlpkt.c ****     CMM_PARAM_CHK((!(CMM_PORT_VALID(unit,port))), CMM_ERR_PORT);
 2932              		.loc 1 282 5 discriminator 5 view .LVU851
 2933 0076 0420     		movs	r0, #4
 2934 0078 DCE7     		b	.L276
 2935              	.LVL404:
 2936              	.L296:
 282:../switch_sdk/core/yt/yt_ctrlpkt.c ****     CMM_PARAM_CHK((!(CMM_PORT_VALID(unit,port))), CMM_ERR_PORT);
 2937              		.loc 1 282 5 discriminator 3 view .LVU852
 2938              	.LBB59:
 282:../switch_sdk/core/yt/yt_ctrlpkt.c ****     CMM_PARAM_CHK((!(CMM_PORT_VALID(unit,port))), CMM_ERR_PORT);
 2939              		.loc 1 282 5 discriminator 3 view .LVU853
 2940 007a 164B     		ldr	r3, .L299+16
 2941 007c 1A69     		ldr	r2, [r3, #16]
 2942              	.LVL405:
 282:../switch_sdk/core/yt/yt_ctrlpkt.c ****     CMM_PARAM_CHK((!(CMM_PORT_VALID(unit,port))), CMM_ERR_PORT);
 2943              		.loc 1 282 5 is_stmt 0 discriminator 3 view .LVU854
 2944 007e 164B     		ldr	r3, .L299+20
 2945 0080 9968     		ldr	r1, [r3, #8]
 2946              	.LVL406:
 282:../switch_sdk/core/yt/yt_ctrlpkt.c ****     CMM_PARAM_CHK((!(CMM_PORT_VALID(unit,port))), CMM_ERR_PORT);
 2947              		.loc 1 282 5 discriminator 3 view .LVU855
 2948 0082 1648     		ldr	r0, .L299+24
 2949 0084 FFF7FEFF 		bl	osal_printf
 2950              	.LVL407:
 2951 0088 F5E7     		b	.L283
 2952              	.LVL408:
 2953              	.L284:
 282:../switch_sdk/core/yt/yt_ctrlpkt.c ****     CMM_PARAM_CHK((!(CMM_PORT_VALID(unit,port))), CMM_ERR_PORT);
 2954              		.loc 1 282 5 discriminator 3 view .LVU856
 2955              	.LBE59:
 283:../switch_sdk/core/yt/yt_ctrlpkt.c ****     CMM_PARAM_CHK((NULL == pAct_ctrl), CMM_ERR_NULL_POINT);
 2956              		.loc 1 283 5 is_stmt 1 discriminator 3 view .LVU857
 283:../switch_sdk/core/yt/yt_ctrlpkt.c ****     CMM_PARAM_CHK((NULL == pAct_ctrl), CMM_ERR_NULL_POINT);
 2957              		.loc 1 283 5 discriminator 3 view .LVU858
 2958 008a 114B     		ldr	r3, .L299+12
 2959 008c 1B78     		ldrb	r3, [r3]	@ zero_extendqisi2
 2960 008e 012B     		cmp	r3, #1
 2961 0090 01D8     		bhi	.L297
 2962              	.LVL409:
 2963              	.L286:
 283:../switch_sdk/core/yt/yt_ctrlpkt.c ****     CMM_PARAM_CHK((NULL == pAct_ctrl), CMM_ERR_NULL_POINT);
 2964              		.loc 1 283 5 discriminator 7 view .LVU859
 283:../switch_sdk/core/yt/yt_ctrlpkt.c ****     CMM_PARAM_CHK((NULL == pAct_ctrl), CMM_ERR_NULL_POINT);
 2965              		.loc 1 283 5 discriminator 7 view .LVU860
 283:../switch_sdk/core/yt/yt_ctrlpkt.c ****     CMM_PARAM_CHK((NULL == pAct_ctrl), CMM_ERR_NULL_POINT);
 2966              		.loc 1 283 5 discriminator 7 view .LVU861
 2967 0092 0E20     		movs	r0, #14
 2968 0094 CEE7     		b	.L276
 2969              	.LVL410:
 2970              	.L297:
 283:../switch_sdk/core/yt/yt_ctrlpkt.c ****     CMM_PARAM_CHK((NULL == pAct_ctrl), CMM_ERR_NULL_POINT);
 2971              		.loc 1 283 5 discriminator 5 view .LVU862
 2972              	.LBB60:
 283:../switch_sdk/core/yt/yt_ctrlpkt.c ****     CMM_PARAM_CHK((NULL == pAct_ctrl), CMM_ERR_NULL_POINT);
 2973              		.loc 1 283 5 discriminator 5 view .LVU863
 2974 0096 0F4B     		ldr	r3, .L299+16
 2975 0098 9A6B     		ldr	r2, [r3, #56]
 2976              	.LVL411:
 283:../switch_sdk/core/yt/yt_ctrlpkt.c ****     CMM_PARAM_CHK((NULL == pAct_ctrl), CMM_ERR_NULL_POINT);
 2977              		.loc 1 283 5 is_stmt 0 discriminator 5 view .LVU864
 2978 009a 0F4B     		ldr	r3, .L299+20
 2979 009c 9968     		ldr	r1, [r3, #8]
 2980              	.LVL412:
 283:../switch_sdk/core/yt/yt_ctrlpkt.c ****     CMM_PARAM_CHK((NULL == pAct_ctrl), CMM_ERR_NULL_POINT);
 2981              		.loc 1 283 5 discriminator 5 view .LVU865
 2982 009e 0F48     		ldr	r0, .L299+24
 2983 00a0 FFF7FEFF 		bl	osal_printf
 2984              	.LVL413:
 2985 00a4 F5E7     		b	.L286
 2986              	.LVL414:
 2987              	.L293:
 283:../switch_sdk/core/yt/yt_ctrlpkt.c ****     CMM_PARAM_CHK((NULL == pAct_ctrl), CMM_ERR_NULL_POINT);
 2988              		.loc 1 283 5 discriminator 5 view .LVU866
 2989              	.LBE60:
 284:../switch_sdk/core/yt/yt_ctrlpkt.c ****         
 2990              		.loc 1 284 5 is_stmt 1 discriminator 1 view .LVU867
 284:../switch_sdk/core/yt/yt_ctrlpkt.c ****         
 2991              		.loc 1 284 5 discriminator 1 view .LVU868
 2992 00a6 0A4B     		ldr	r3, .L299+12
 2993 00a8 1B78     		ldrb	r3, [r3]	@ zero_extendqisi2
 2994 00aa 012B     		cmp	r3, #1
 2995 00ac 01D8     		bhi	.L298
 2996              	.LVL415:
 2997              	.L288:
 284:../switch_sdk/core/yt/yt_ctrlpkt.c ****         
 2998              		.loc 1 284 5 discriminator 5 view .LVU869
 284:../switch_sdk/core/yt/yt_ctrlpkt.c ****         
 2999              		.loc 1 284 5 discriminator 5 view .LVU870
 284:../switch_sdk/core/yt/yt_ctrlpkt.c ****         
 3000              		.loc 1 284 5 discriminator 5 view .LVU871
 3001 00ae 0220     		movs	r0, #2
 3002 00b0 C0E7     		b	.L276
 3003              	.LVL416:
 3004              	.L298:
 284:../switch_sdk/core/yt/yt_ctrlpkt.c ****         
 3005              		.loc 1 284 5 discriminator 3 view .LVU872
 3006              	.LBB61:
 284:../switch_sdk/core/yt/yt_ctrlpkt.c ****         
 3007              		.loc 1 284 5 discriminator 3 view .LVU873
 3008 00b2 084B     		ldr	r3, .L299+16
 3009 00b4 9A68     		ldr	r2, [r3, #8]
 3010              	.LVL417:
 284:../switch_sdk/core/yt/yt_ctrlpkt.c ****         
 3011              		.loc 1 284 5 is_stmt 0 discriminator 3 view .LVU874
 3012 00b6 084B     		ldr	r3, .L299+20
 3013 00b8 9968     		ldr	r1, [r3, #8]
 3014              	.LVL418:
 284:../switch_sdk/core/yt/yt_ctrlpkt.c ****         
 3015              		.loc 1 284 5 discriminator 3 view .LVU875
 3016 00ba 0848     		ldr	r0, .L299+24
 3017 00bc FFF7FEFF 		bl	osal_printf
 3018              	.LVL419:
 3019 00c0 F5E7     		b	.L288
 3020              	.L300:
 3021 00c2 00BF     		.align	2
 3022              	.L299:
 3023 00c4 00000000 		.word	gpfal_dispatch
 3024 00c8 00000000 		.word	gcal_inited
 3025 00cc 00000000 		.word	gpSwitchUnit
 3026 00d0 00000000 		.word	yt_debug_level
 3027 00d4 00000000 		.word	_yt_errmsg
 3028 00d8 00000000 		.word	_yt_prompt_msg
 3029 00dc 00000000 		.word	.LC0
 3030              	.LBE61:
 3031              		.cfi_endproc
 3032              	.LFE14:
 3034              		.text
 3035              	.Letext0:
 3036              		.file 2 "C:\\Users\\Dmitriy\\Desktop\\GD32F10x\\switch_sdk\\common\\include/yt_types.h"
 3037              		.file 3 "C:\\Users\\Dmitriy\\Desktop\\GD32F10x\\switch_sdk\\common\\include/yt_error.h"
 3038              		.file 4 "C:\\Users\\Dmitriy\\Desktop\\GD32F10x\\switch_sdk\\core\\fal\\chipdef/chipdef.h"
 3039              		.file 5 "C:\\Users\\Dmitriy\\Desktop\\GD32F10x\\switch_sdk\\core\\cal/cal_bprofile.h"
 3040              		.file 6 "C:\\Users\\Dmitriy\\Desktop\\GD32F10x\\switch_sdk\\core\\cal/cal_mgm.h"
 3041              		.file 7 "C:\\Users\\Dmitriy\\Desktop\\GD32F10x\\switch_sdk\\include/yt_cmm.h"
 3042              		.file 8 "C:\\Users\\Dmitriy\\Desktop\\GD32F10x\\switch_sdk\\include/yt_ctrlpkt.h"
 3043              		.file 9 "C:\\Users\\Dmitriy\\Desktop\\GD32F10x\\switch_sdk\\include/yt_vlan.h"
 3044              		.file 10 "C:\\Users\\Dmitriy\\Desktop\\GD32F10x\\switch_sdk\\include/yt_vlan_translate.h"
 3045              		.file 11 "C:\\Users\\Dmitriy\\Desktop\\GD32F10x\\switch_sdk\\include/yt_acl.h"
 3046              		.file 12 "C:\\Users\\Dmitriy\\Desktop\\GD32F10x\\switch_sdk\\include/yt_qos.h"
 3047              		.file 13 "C:\\Users\\Dmitriy\\Desktop\\GD32F10x\\switch_sdk\\include/yt_rate.h"
 3048              		.file 14 "C:\\Users\\Dmitriy\\Desktop\\GD32F10x\\switch_sdk\\include/yt_dos.h"
 3049              		.file 15 "C:\\Users\\Dmitriy\\Desktop\\GD32F10x\\switch_sdk\\include/yt_nic.h"
 3050              		.file 16 "C:\\Users\\Dmitriy\\Desktop\\GD32F10x\\switch_sdk\\include/yt_stp.h"
 3051              		.file 17 "C:\\Users\\Dmitriy\\Desktop\\GD32F10x\\switch_sdk\\include/yt_l2.h"
 3052              		.file 18 "C:\\Users\\Dmitriy\\Desktop\\GD32F10x\\switch_sdk\\include/yt_loopdetect.h"
 3053              		.file 19 "C:\\Users\\Dmitriy\\Desktop\\GD32F10x\\switch_sdk\\include/yt_multicast.h"
 3054              		.file 20 "C:\\Users\\Dmitriy\\Desktop\\GD32F10x\\switch_sdk\\include/yt_rma.h"
 3055              		.file 21 "C:\\Users\\Dmitriy\\Desktop\\GD32F10x\\switch_sdk\\include/yt_oam.h"
 3056              		.file 22 "C:\\Users\\Dmitriy\\Desktop\\GD32F10x\\switch_sdk\\include/yt_storm_ctrl.h"
 3057              		.file 23 "C:\\Users\\Dmitriy\\Desktop\\GD32F10x\\switch_sdk\\include/yt_port.h"
 3058              		.file 24 "C:\\Users\\Dmitriy\\Desktop\\GD32F10x\\switch_sdk\\include/yt_dot1x.h"
 3059              		.file 25 "C:\\Users\\Dmitriy\\Desktop\\GD32F10x\\switch_sdk\\include/yt_stat.h"
 3060              		.file 26 "C:\\Users\\Dmitriy\\Desktop\\GD32F10x\\switch_sdk\\include/yt_interrupt.h"
 3061              		.file 27 "C:\\Users\\Dmitriy\\Desktop\\GD32F10x\\switch_sdk\\include/yt_led.h"
 3062              		.file 28 "C:\\Users\\Dmitriy\\Desktop\\GD32F10x\\switch_sdk\\include/yt_sys.h"
 3063              		.file 29 "C:\\Users\\Dmitriy\\Desktop\\GD32F10x\\switch_sdk\\include/yt_debug.h"
 3064              		.file 30 "C:\\Users\\Dmitriy\\Desktop\\GD32F10x\\switch_sdk\\core\\fal/fal_dispatch.h"