   1              		.cpu cortex-m3
   2              		.arch armv7-m
   3              		.fpu softvfp
   4              		.eabi_attribute 20, 1
   5              		.eabi_attribute 21, 1
   6              		.eabi_attribute 23, 3
   7              		.eabi_attribute 24, 1
   8              		.eabi_attribute 25, 1
   9              		.eabi_attribute 26, 1
  10              		.eabi_attribute 30, 1
  11              		.eabi_attribute 34, 1
  12              		.eabi_attribute 18, 4
  13              		.file	"yt_debug.c"
  14              		.text
  15              	.Ltext0:
  16              		.cfi_sections	.debug_frame
  17              		.file 1 "../switch_sdk/core/yt/yt_debug.c"
  18              		.section	.rodata.yt_debug_phyTemplate_test_set.str1.4,"aMS",%progbits,1
  19              		.align	2
  20              	.LC0:
  21 0000 25732573 		.ascii	"%s%s\015\012\000"
  21      0D0A00
  22              		.section	.text.yt_debug_phyTemplate_test_set,"ax",%progbits
  23              		.align	1
  24              		.global	yt_debug_phyTemplate_test_set
  25              		.syntax unified
  26              		.thumb
  27              		.thumb_func
  29              	yt_debug_phyTemplate_test_set:
  30              	.LVL0:
  31              	.LFB3:
   1:../switch_sdk/core/yt/yt_debug.c **** /*******************************************************************************
   2:../switch_sdk/core/yt/yt_debug.c **** *                                                                              *
   3:../switch_sdk/core/yt/yt_debug.c **** *  Copyright (c), 2023, Motorcomm Electronic Technology Co.,Ltd.               *
   4:../switch_sdk/core/yt/yt_debug.c **** *  Motorcomm Confidential and Proprietary.                                     *
   5:../switch_sdk/core/yt/yt_debug.c **** *                                                                              *
   6:../switch_sdk/core/yt/yt_debug.c **** ********************************************************************************
   7:../switch_sdk/core/yt/yt_debug.c **** */
   8:../switch_sdk/core/yt/yt_debug.c **** /**
   9:../switch_sdk/core/yt/yt_debug.c **** ********************************************************************************
  10:../switch_sdk/core/yt/yt_debug.c **** * @file yt_debug.c
  11:../switch_sdk/core/yt/yt_debug.c **** *
  12:../switch_sdk/core/yt/yt_debug.c **** * @brief x
  13:../switch_sdk/core/yt/yt_debug.c **** *
  14:../switch_sdk/core/yt/yt_debug.c **** ********************************************************************************
  15:../switch_sdk/core/yt/yt_debug.c **** */
  16:../switch_sdk/core/yt/yt_debug.c **** #include "fal_dispatch.h"
  17:../switch_sdk/core/yt/yt_debug.c **** 
  18:../switch_sdk/core/yt/yt_debug.c **** /**
  19:../switch_sdk/core/yt/yt_debug.c ****  * @internal      yt_debug_phyTemplate_test_set
  20:../switch_sdk/core/yt/yt_debug.c ****  * @endinternal
  21:../switch_sdk/core/yt/yt_debug.c ****  *
  22:../switch_sdk/core/yt/yt_debug.c ****  * @brief         set utp template test mode.
  23:../switch_sdk/core/yt/yt_debug.c ****  * @note          APPLICABLE DEVICES  -Tiger
  24:../switch_sdk/core/yt/yt_debug.c ****  * @param[in]     unit                -unit id
  25:../switch_sdk/core/yt/yt_debug.c ****  * @param[in]     port                -port num
  26:../switch_sdk/core/yt/yt_debug.c ****  * @param[in]     mode                -different test mode,refer yt_utp_template_testmode_t for det
  27:../switch_sdk/core/yt/yt_debug.c ****  * @retval        CMM_ERR_OK          -on success
  28:../switch_sdk/core/yt/yt_debug.c ****  * @retval        CMM_ERR_FAIL        -on fail
  29:../switch_sdk/core/yt/yt_debug.c ****  */
  30:../switch_sdk/core/yt/yt_debug.c **** yt_ret_t yt_debug_phyTemplate_test_set(yt_unit_t unit, yt_port_t port, yt_utp_template_testmode_t m
  31:../switch_sdk/core/yt/yt_debug.c **** {
  32              		.loc 1 31 1 view -0
  33              		.cfi_startproc
  34              		@ args = 0, pretend = 0, frame = 0
  35              		@ frame_needed = 0, uses_anonymous_args = 0
  36              		.loc 1 31 1 is_stmt 0 view .LVU1
  37 0000 08B5     		push	{r3, lr}
  38              		.cfi_def_cfa_offset 8
  39              		.cfi_offset 3, -8
  40              		.cfi_offset 14, -4
  32:../switch_sdk/core/yt/yt_debug.c ****     CMM_PARAM_CHK((YT_UNIT_NUM <= unit), CMM_ERR_INPUT);
  41              		.loc 1 32 5 is_stmt 1 view .LVU2
  42              		.loc 1 32 5 view .LVU3
  43 0002 A8B9     		cbnz	r0, .L13
  44 0004 8446     		mov	ip, r0
  45              		.loc 1 32 5 discriminator 2 view .LVU4
  33:../switch_sdk/core/yt/yt_debug.c ****     CMM_PARAM_CHK(NULL == YT_DISPATCH(unit), CMM_ERR_NOT_INIT);
  46              		.loc 1 33 5 discriminator 2 view .LVU5
  47              		.loc 1 33 5 discriminator 2 view .LVU6
  48 0006 264B     		ldr	r3, .L20
  49 0008 53F82030 		ldr	r3, [r3, r0, lsl #2]
  50 000c F3B1     		cbz	r3, .L14
  51              		.loc 1 33 5 discriminator 2 view .LVU7
  34:../switch_sdk/core/yt/yt_debug.c ****     CMM_PARAM_CHK((!(YT_DISPATCH(unit)->is_inited)), CMM_ERR_NOT_INIT);
  52              		.loc 1 34 5 discriminator 2 view .LVU8
  53              		.loc 1 34 5 discriminator 2 view .LVU9
  54 000e 1878     		ldrb	r0, [r3]	@ zero_extendqisi2
  55              	.LVL1:
  56              		.loc 1 34 5 is_stmt 0 discriminator 2 view .LVU10
  57 0010 50B3     		cbz	r0, .L15
  58              		.loc 1 34 5 is_stmt 1 discriminator 2 view .LVU11
  35:../switch_sdk/core/yt/yt_debug.c ****     CMM_PARAM_CHK((!(CMM_PORT_VALID(unit, port))), CMM_ERR_PORT);
  59              		.loc 1 35 5 discriminator 2 view .LVU12
  60              		.loc 1 35 5 discriminator 2 view .LVU13
  61 0012 2448     		ldr	r0, .L20+4
  62 0014 0078     		ldrb	r0, [r0]	@ zero_extendqisi2
  63 0016 0028     		cmp	r0, #0
  64 0018 34D0     		beq	.L9
  65 001a 2348     		ldr	r0, .L20+8
  66 001c 50F82C00 		ldr	r0, [r0, ip, lsl #2]
  67 0020 007D     		ldrb	r0, [r0, #20]	@ zero_extendqisi2
  68 0022 8842     		cmp	r0, r1
  69 0024 2ED9     		bls	.L9
  70              		.loc 1 35 5 discriminator 4 view .LVU14
  36:../switch_sdk/core/yt/yt_debug.c **** 
  37:../switch_sdk/core/yt/yt_debug.c ****     return YT_DISPATCH(unit)->debug_phyTemplate_test_set(unit, port, mode);
  71              		.loc 1 37 5 discriminator 4 view .LVU15
  72              		.loc 1 37 29 is_stmt 0 discriminator 4 view .LVU16
  73 0026 D3F8D436 		ldr	r3, [r3, #1748]
  74              		.loc 1 37 12 discriminator 4 view .LVU17
  75 002a 6046     		mov	r0, ip
  76 002c 9847     		blx	r3
  77              	.LVL2:
  78              	.L1:
  38:../switch_sdk/core/yt/yt_debug.c **** }
  79              		.loc 1 38 1 view .LVU18
  80 002e 08BD     		pop	{r3, pc}
  81              	.LVL3:
  82              	.L13:
  32:../switch_sdk/core/yt/yt_debug.c ****     CMM_PARAM_CHK(NULL == YT_DISPATCH(unit), CMM_ERR_NOT_INIT);
  83              		.loc 1 32 5 is_stmt 1 discriminator 1 view .LVU19
  32:../switch_sdk/core/yt/yt_debug.c ****     CMM_PARAM_CHK(NULL == YT_DISPATCH(unit), CMM_ERR_NOT_INIT);
  84              		.loc 1 32 5 discriminator 1 view .LVU20
  85 0030 1E4B     		ldr	r3, .L20+12
  86 0032 1B78     		ldrb	r3, [r3]	@ zero_extendqisi2
  87 0034 012B     		cmp	r3, #1
  88 0036 01D8     		bhi	.L16
  89              	.LVL4:
  90              	.L3:
  32:../switch_sdk/core/yt/yt_debug.c ****     CMM_PARAM_CHK(NULL == YT_DISPATCH(unit), CMM_ERR_NOT_INIT);
  91              		.loc 1 32 5 discriminator 5 view .LVU21
  32:../switch_sdk/core/yt/yt_debug.c ****     CMM_PARAM_CHK(NULL == YT_DISPATCH(unit), CMM_ERR_NOT_INIT);
  92              		.loc 1 32 5 discriminator 5 view .LVU22
  32:../switch_sdk/core/yt/yt_debug.c ****     CMM_PARAM_CHK(NULL == YT_DISPATCH(unit), CMM_ERR_NOT_INIT);
  93              		.loc 1 32 5 discriminator 5 view .LVU23
  94 0038 0520     		movs	r0, #5
  95 003a F8E7     		b	.L1
  96              	.LVL5:
  97              	.L16:
  32:../switch_sdk/core/yt/yt_debug.c ****     CMM_PARAM_CHK(NULL == YT_DISPATCH(unit), CMM_ERR_NOT_INIT);
  98              		.loc 1 32 5 discriminator 3 view .LVU24
  99              	.LBB2:
  32:../switch_sdk/core/yt/yt_debug.c ****     CMM_PARAM_CHK(NULL == YT_DISPATCH(unit), CMM_ERR_NOT_INIT);
 100              		.loc 1 32 5 discriminator 3 view .LVU25
 101 003c 1C4B     		ldr	r3, .L20+16
 102 003e 5A69     		ldr	r2, [r3, #20]
 103              	.LVL6:
  32:../switch_sdk/core/yt/yt_debug.c ****     CMM_PARAM_CHK(NULL == YT_DISPATCH(unit), CMM_ERR_NOT_INIT);
 104              		.loc 1 32 5 is_stmt 0 discriminator 3 view .LVU26
 105 0040 1C4B     		ldr	r3, .L20+20
 106 0042 9968     		ldr	r1, [r3, #8]
 107              	.LVL7:
  32:../switch_sdk/core/yt/yt_debug.c ****     CMM_PARAM_CHK(NULL == YT_DISPATCH(unit), CMM_ERR_NOT_INIT);
 108              		.loc 1 32 5 discriminator 3 view .LVU27
 109 0044 1C48     		ldr	r0, .L20+24
 110              	.LVL8:
  32:../switch_sdk/core/yt/yt_debug.c ****     CMM_PARAM_CHK(NULL == YT_DISPATCH(unit), CMM_ERR_NOT_INIT);
 111              		.loc 1 32 5 discriminator 3 view .LVU28
 112 0046 FFF7FEFF 		bl	osal_printf
 113              	.LVL9:
 114 004a F5E7     		b	.L3
 115              	.LVL10:
 116              	.L14:
  32:../switch_sdk/core/yt/yt_debug.c ****     CMM_PARAM_CHK(NULL == YT_DISPATCH(unit), CMM_ERR_NOT_INIT);
 117              		.loc 1 32 5 discriminator 3 view .LVU29
 118              	.LBE2:
  33:../switch_sdk/core/yt/yt_debug.c ****     CMM_PARAM_CHK((!(YT_DISPATCH(unit)->is_inited)), CMM_ERR_NOT_INIT);
 119              		.loc 1 33 5 is_stmt 1 discriminator 1 view .LVU30
  33:../switch_sdk/core/yt/yt_debug.c ****     CMM_PARAM_CHK((!(YT_DISPATCH(unit)->is_inited)), CMM_ERR_NOT_INIT);
 120              		.loc 1 33 5 discriminator 1 view .LVU31
 121 004c 174B     		ldr	r3, .L20+12
 122 004e 1B78     		ldrb	r3, [r3]	@ zero_extendqisi2
 123 0050 012B     		cmp	r3, #1
 124 0052 01D8     		bhi	.L17
 125              	.LVL11:
 126              	.L6:
  33:../switch_sdk/core/yt/yt_debug.c ****     CMM_PARAM_CHK((!(YT_DISPATCH(unit)->is_inited)), CMM_ERR_NOT_INIT);
 127              		.loc 1 33 5 discriminator 5 view .LVU32
  33:../switch_sdk/core/yt/yt_debug.c ****     CMM_PARAM_CHK((!(YT_DISPATCH(unit)->is_inited)), CMM_ERR_NOT_INIT);
 128              		.loc 1 33 5 discriminator 5 view .LVU33
  33:../switch_sdk/core/yt/yt_debug.c ****     CMM_PARAM_CHK((!(YT_DISPATCH(unit)->is_inited)), CMM_ERR_NOT_INIT);
 129              		.loc 1 33 5 discriminator 5 view .LVU34
 130 0054 0420     		movs	r0, #4
 131 0056 EAE7     		b	.L1
 132              	.LVL12:
 133              	.L17:
  33:../switch_sdk/core/yt/yt_debug.c ****     CMM_PARAM_CHK((!(YT_DISPATCH(unit)->is_inited)), CMM_ERR_NOT_INIT);
 134              		.loc 1 33 5 discriminator 3 view .LVU35
 135              	.LBB3:
  33:../switch_sdk/core/yt/yt_debug.c ****     CMM_PARAM_CHK((!(YT_DISPATCH(unit)->is_inited)), CMM_ERR_NOT_INIT);
 136              		.loc 1 33 5 discriminator 3 view .LVU36
 137 0058 154B     		ldr	r3, .L20+16
 138 005a 1A69     		ldr	r2, [r3, #16]
 139              	.LVL13:
  33:../switch_sdk/core/yt/yt_debug.c ****     CMM_PARAM_CHK((!(YT_DISPATCH(unit)->is_inited)), CMM_ERR_NOT_INIT);
 140              		.loc 1 33 5 is_stmt 0 discriminator 3 view .LVU37
 141 005c 154B     		ldr	r3, .L20+20
 142 005e 9968     		ldr	r1, [r3, #8]
 143              	.LVL14:
  33:../switch_sdk/core/yt/yt_debug.c ****     CMM_PARAM_CHK((!(YT_DISPATCH(unit)->is_inited)), CMM_ERR_NOT_INIT);
 144              		.loc 1 33 5 discriminator 3 view .LVU38
 145 0060 1548     		ldr	r0, .L20+24
 146              	.LVL15:
  33:../switch_sdk/core/yt/yt_debug.c ****     CMM_PARAM_CHK((!(YT_DISPATCH(unit)->is_inited)), CMM_ERR_NOT_INIT);
 147              		.loc 1 33 5 discriminator 3 view .LVU39
 148 0062 FFF7FEFF 		bl	osal_printf
 149              	.LVL16:
 150 0066 F5E7     		b	.L6
 151              	.LVL17:
 152              	.L15:
  33:../switch_sdk/core/yt/yt_debug.c ****     CMM_PARAM_CHK((!(YT_DISPATCH(unit)->is_inited)), CMM_ERR_NOT_INIT);
 153              		.loc 1 33 5 discriminator 3 view .LVU40
 154              	.LBE3:
  34:../switch_sdk/core/yt/yt_debug.c ****     CMM_PARAM_CHK((!(CMM_PORT_VALID(unit, port))), CMM_ERR_PORT);
 155              		.loc 1 34 5 is_stmt 1 discriminator 1 view .LVU41
  34:../switch_sdk/core/yt/yt_debug.c ****     CMM_PARAM_CHK((!(CMM_PORT_VALID(unit, port))), CMM_ERR_PORT);
 156              		.loc 1 34 5 discriminator 1 view .LVU42
 157 0068 104B     		ldr	r3, .L20+12
 158 006a 1B78     		ldrb	r3, [r3]	@ zero_extendqisi2
 159 006c 012B     		cmp	r3, #1
 160 006e 01D8     		bhi	.L18
 161              	.LVL18:
 162              	.L8:
  34:../switch_sdk/core/yt/yt_debug.c ****     CMM_PARAM_CHK((!(CMM_PORT_VALID(unit, port))), CMM_ERR_PORT);
 163              		.loc 1 34 5 discriminator 5 view .LVU43
  34:../switch_sdk/core/yt/yt_debug.c ****     CMM_PARAM_CHK((!(CMM_PORT_VALID(unit, port))), CMM_ERR_PORT);
 164              		.loc 1 34 5 discriminator 5 view .LVU44
  34:../switch_sdk/core/yt/yt_debug.c ****     CMM_PARAM_CHK((!(CMM_PORT_VALID(unit, port))), CMM_ERR_PORT);
 165              		.loc 1 34 5 discriminator 5 view .LVU45
 166 0070 0420     		movs	r0, #4
 167 0072 DCE7     		b	.L1
 168              	.LVL19:
 169              	.L18:
  34:../switch_sdk/core/yt/yt_debug.c ****     CMM_PARAM_CHK((!(CMM_PORT_VALID(unit, port))), CMM_ERR_PORT);
 170              		.loc 1 34 5 discriminator 3 view .LVU46
 171              	.LBB4:
  34:../switch_sdk/core/yt/yt_debug.c ****     CMM_PARAM_CHK((!(CMM_PORT_VALID(unit, port))), CMM_ERR_PORT);
 172              		.loc 1 34 5 discriminator 3 view .LVU47
 173 0074 0E4B     		ldr	r3, .L20+16
 174 0076 1A69     		ldr	r2, [r3, #16]
 175              	.LVL20:
  34:../switch_sdk/core/yt/yt_debug.c ****     CMM_PARAM_CHK((!(CMM_PORT_VALID(unit, port))), CMM_ERR_PORT);
 176              		.loc 1 34 5 is_stmt 0 discriminator 3 view .LVU48
 177 0078 0E4B     		ldr	r3, .L20+20
 178 007a 9968     		ldr	r1, [r3, #8]
 179              	.LVL21:
  34:../switch_sdk/core/yt/yt_debug.c ****     CMM_PARAM_CHK((!(CMM_PORT_VALID(unit, port))), CMM_ERR_PORT);
 180              		.loc 1 34 5 discriminator 3 view .LVU49
 181 007c 0E48     		ldr	r0, .L20+24
 182 007e FFF7FEFF 		bl	osal_printf
 183              	.LVL22:
 184 0082 F5E7     		b	.L8
 185              	.LVL23:
 186              	.L9:
  34:../switch_sdk/core/yt/yt_debug.c ****     CMM_PARAM_CHK((!(CMM_PORT_VALID(unit, port))), CMM_ERR_PORT);
 187              		.loc 1 34 5 discriminator 3 view .LVU50
 188              	.LBE4:
  35:../switch_sdk/core/yt/yt_debug.c **** 
 189              		.loc 1 35 5 is_stmt 1 discriminator 3 view .LVU51
  35:../switch_sdk/core/yt/yt_debug.c **** 
 190              		.loc 1 35 5 discriminator 3 view .LVU52
 191 0084 094B     		ldr	r3, .L20+12
 192 0086 1B78     		ldrb	r3, [r3]	@ zero_extendqisi2
 193 0088 012B     		cmp	r3, #1
 194 008a 01D8     		bhi	.L19
 195              	.LVL24:
 196              	.L11:
  35:../switch_sdk/core/yt/yt_debug.c **** 
 197              		.loc 1 35 5 discriminator 7 view .LVU53
  35:../switch_sdk/core/yt/yt_debug.c **** 
 198              		.loc 1 35 5 discriminator 7 view .LVU54
  35:../switch_sdk/core/yt/yt_debug.c **** 
 199              		.loc 1 35 5 discriminator 7 view .LVU55
 200 008c 0E20     		movs	r0, #14
 201 008e CEE7     		b	.L1
 202              	.LVL25:
 203              	.L19:
  35:../switch_sdk/core/yt/yt_debug.c **** 
 204              		.loc 1 35 5 discriminator 5 view .LVU56
 205              	.LBB5:
  35:../switch_sdk/core/yt/yt_debug.c **** 
 206              		.loc 1 35 5 discriminator 5 view .LVU57
 207 0090 074B     		ldr	r3, .L20+16
 208 0092 9A6B     		ldr	r2, [r3, #56]
 209              	.LVL26:
  35:../switch_sdk/core/yt/yt_debug.c **** 
 210              		.loc 1 35 5 is_stmt 0 discriminator 5 view .LVU58
 211 0094 074B     		ldr	r3, .L20+20
 212 0096 9968     		ldr	r1, [r3, #8]
 213              	.LVL27:
  35:../switch_sdk/core/yt/yt_debug.c **** 
 214              		.loc 1 35 5 discriminator 5 view .LVU59
 215 0098 0748     		ldr	r0, .L20+24
 216 009a FFF7FEFF 		bl	osal_printf
 217              	.LVL28:
 218 009e F5E7     		b	.L11
 219              	.L21:
 220              		.align	2
 221              	.L20:
 222 00a0 00000000 		.word	gpfal_dispatch
 223 00a4 00000000 		.word	gcal_inited
 224 00a8 00000000 		.word	gpSwitchUnit
 225 00ac 00000000 		.word	yt_debug_level
 226 00b0 00000000 		.word	_yt_errmsg
 227 00b4 00000000 		.word	_yt_prompt_msg
 228 00b8 00000000 		.word	.LC0
 229              	.LBE5:
 230              		.cfi_endproc
 231              	.LFE3:
 233              		.section	.text.yt_debug_phyLoopback_test_set,"ax",%progbits
 234              		.align	1
 235              		.global	yt_debug_phyLoopback_test_set
 236              		.syntax unified
 237              		.thumb
 238              		.thumb_func
 240              	yt_debug_phyLoopback_test_set:
 241              	.LVL29:
 242              	.LFB4:
  39:../switch_sdk/core/yt/yt_debug.c **** 
  40:../switch_sdk/core/yt/yt_debug.c **** 
  41:../switch_sdk/core/yt/yt_debug.c **** /**
  42:../switch_sdk/core/yt/yt_debug.c ****  * @internal      yt_debug_phyLoopback_test_set
  43:../switch_sdk/core/yt/yt_debug.c ****  * @endinternal
  44:../switch_sdk/core/yt/yt_debug.c ****  *
  45:../switch_sdk/core/yt/yt_debug.c ****  * @brief         set phy loopback mode.
  46:../switch_sdk/core/yt/yt_debug.c ****  * @note          APPLICABLE DEVICES  -Tiger
  47:../switch_sdk/core/yt/yt_debug.c ****  * @param[in]     unit                -unit id
  48:../switch_sdk/core/yt/yt_debug.c ****  * @param[in]     port                -port num
  49:../switch_sdk/core/yt/yt_debug.c ****  * @param[in]     mode                -internal loopback or external loopback or remote loopback.
  50:../switch_sdk/core/yt/yt_debug.c ****  * @retval        CMM_ERR_OK          -on success
  51:../switch_sdk/core/yt/yt_debug.c ****  * @retval        CMM_ERR_FAIL        -on fail
  52:../switch_sdk/core/yt/yt_debug.c ****  */
  53:../switch_sdk/core/yt/yt_debug.c **** yt_ret_t yt_debug_phyLoopback_test_set(yt_unit_t unit, yt_port_t port, yt_phy_loopback_mode_t mode)
  54:../switch_sdk/core/yt/yt_debug.c **** {
 243              		.loc 1 54 1 is_stmt 1 view -0
 244              		.cfi_startproc
 245              		@ args = 0, pretend = 0, frame = 0
 246              		@ frame_needed = 0, uses_anonymous_args = 0
 247              		.loc 1 54 1 is_stmt 0 view .LVU61
 248 0000 08B5     		push	{r3, lr}
 249              		.cfi_def_cfa_offset 8
 250              		.cfi_offset 3, -8
 251              		.cfi_offset 14, -4
  55:../switch_sdk/core/yt/yt_debug.c ****     CMM_PARAM_CHK((YT_UNIT_NUM <= unit), CMM_ERR_INPUT);
 252              		.loc 1 55 5 is_stmt 1 view .LVU62
 253              		.loc 1 55 5 view .LVU63
 254 0002 C0B9     		cbnz	r0, .L36
 255 0004 8446     		mov	ip, r0
 256              		.loc 1 55 5 discriminator 2 view .LVU64
  56:../switch_sdk/core/yt/yt_debug.c ****     CMM_PARAM_CHK(NULL == YT_DISPATCH(unit), CMM_ERR_NOT_INIT);
 257              		.loc 1 56 5 discriminator 2 view .LVU65
 258              		.loc 1 56 5 discriminator 2 view .LVU66
 259 0006 2F4B     		ldr	r3, .L45
 260 0008 53F82030 		ldr	r3, [r3, r0, lsl #2]
 261 000c 0BB3     		cbz	r3, .L37
 262              		.loc 1 56 5 discriminator 2 view .LVU67
  57:../switch_sdk/core/yt/yt_debug.c ****     CMM_PARAM_CHK((!(YT_DISPATCH(unit)->is_inited)), CMM_ERR_NOT_INIT);
 263              		.loc 1 57 5 discriminator 2 view .LVU68
 264              		.loc 1 57 5 discriminator 2 view .LVU69
 265 000e 1878     		ldrb	r0, [r3]	@ zero_extendqisi2
 266              	.LVL30:
 267              		.loc 1 57 5 is_stmt 0 discriminator 2 view .LVU70
 268 0010 0028     		cmp	r0, #0
 269 0012 2CD0     		beq	.L38
 270              		.loc 1 57 5 is_stmt 1 discriminator 2 view .LVU71
  58:../switch_sdk/core/yt/yt_debug.c ****     CMM_PARAM_CHK((!(CMM_PORT_VALID(unit, port))), CMM_ERR_PORT);
 271              		.loc 1 58 5 discriminator 2 view .LVU72
 272              		.loc 1 58 5 discriminator 2 view .LVU73
 273 0014 2C48     		ldr	r0, .L45+4
 274 0016 0078     		ldrb	r0, [r0]	@ zero_extendqisi2
 275 0018 0028     		cmp	r0, #0
 276 001a 36D0     		beq	.L30
 277 001c 2B48     		ldr	r0, .L45+8
 278 001e 50F82C00 		ldr	r0, [r0, ip, lsl #2]
 279 0022 007D     		ldrb	r0, [r0, #20]	@ zero_extendqisi2
 280 0024 8842     		cmp	r0, r1
 281 0026 30D9     		bls	.L30
 282              		.loc 1 58 5 discriminator 4 view .LVU74
  59:../switch_sdk/core/yt/yt_debug.c ****     CMM_PARAM_CHK((mode > YT_PHY_LOOPBACK_MODE_REMOTE || mode < YT_PHY_LOOPBACK_MODE_INTERNAL), CMM
 283              		.loc 1 59 5 discriminator 4 view .LVU75
 284              		.loc 1 59 5 discriminator 4 view .LVU76
 285 0028 022A     		cmp	r2, #2
 286 002a 3CD8     		bhi	.L39
 287              		.loc 1 59 5 discriminator 2 view .LVU77
  60:../switch_sdk/core/yt/yt_debug.c **** 
  61:../switch_sdk/core/yt/yt_debug.c ****     return YT_DISPATCH(unit)->debug_phyLoopback_test_set(unit, port, mode);
 288              		.loc 1 61 5 discriminator 2 view .LVU78
 289              		.loc 1 61 29 is_stmt 0 discriminator 2 view .LVU79
 290 002c D3F8D836 		ldr	r3, [r3, #1752]
 291              		.loc 1 61 12 discriminator 2 view .LVU80
 292 0030 6046     		mov	r0, ip
 293 0032 9847     		blx	r3
 294              	.LVL31:
 295              	.L22:
  62:../switch_sdk/core/yt/yt_debug.c **** }
 296              		.loc 1 62 1 view .LVU81
 297 0034 08BD     		pop	{r3, pc}
 298              	.LVL32:
 299              	.L36:
  55:../switch_sdk/core/yt/yt_debug.c ****     CMM_PARAM_CHK(NULL == YT_DISPATCH(unit), CMM_ERR_NOT_INIT);
 300              		.loc 1 55 5 is_stmt 1 discriminator 1 view .LVU82
  55:../switch_sdk/core/yt/yt_debug.c ****     CMM_PARAM_CHK(NULL == YT_DISPATCH(unit), CMM_ERR_NOT_INIT);
 301              		.loc 1 55 5 discriminator 1 view .LVU83
 302 0036 264B     		ldr	r3, .L45+12
 303 0038 1B78     		ldrb	r3, [r3]	@ zero_extendqisi2
 304 003a 012B     		cmp	r3, #1
 305 003c 01D8     		bhi	.L40
 306              	.LVL33:
 307              	.L24:
  55:../switch_sdk/core/yt/yt_debug.c ****     CMM_PARAM_CHK(NULL == YT_DISPATCH(unit), CMM_ERR_NOT_INIT);
 308              		.loc 1 55 5 discriminator 5 view .LVU84
  55:../switch_sdk/core/yt/yt_debug.c ****     CMM_PARAM_CHK(NULL == YT_DISPATCH(unit), CMM_ERR_NOT_INIT);
 309              		.loc 1 55 5 discriminator 5 view .LVU85
  55:../switch_sdk/core/yt/yt_debug.c ****     CMM_PARAM_CHK(NULL == YT_DISPATCH(unit), CMM_ERR_NOT_INIT);
 310              		.loc 1 55 5 discriminator 5 view .LVU86
 311 003e 0520     		movs	r0, #5
 312 0040 F8E7     		b	.L22
 313              	.LVL34:
 314              	.L40:
  55:../switch_sdk/core/yt/yt_debug.c ****     CMM_PARAM_CHK(NULL == YT_DISPATCH(unit), CMM_ERR_NOT_INIT);
 315              		.loc 1 55 5 discriminator 3 view .LVU87
 316              	.LBB6:
  55:../switch_sdk/core/yt/yt_debug.c ****     CMM_PARAM_CHK(NULL == YT_DISPATCH(unit), CMM_ERR_NOT_INIT);
 317              		.loc 1 55 5 discriminator 3 view .LVU88
 318 0042 244B     		ldr	r3, .L45+16
 319 0044 5A69     		ldr	r2, [r3, #20]
 320              	.LVL35:
  55:../switch_sdk/core/yt/yt_debug.c ****     CMM_PARAM_CHK(NULL == YT_DISPATCH(unit), CMM_ERR_NOT_INIT);
 321              		.loc 1 55 5 is_stmt 0 discriminator 3 view .LVU89
 322 0046 244B     		ldr	r3, .L45+20
 323 0048 9968     		ldr	r1, [r3, #8]
 324              	.LVL36:
  55:../switch_sdk/core/yt/yt_debug.c ****     CMM_PARAM_CHK(NULL == YT_DISPATCH(unit), CMM_ERR_NOT_INIT);
 325              		.loc 1 55 5 discriminator 3 view .LVU90
 326 004a 2448     		ldr	r0, .L45+24
 327              	.LVL37:
  55:../switch_sdk/core/yt/yt_debug.c ****     CMM_PARAM_CHK(NULL == YT_DISPATCH(unit), CMM_ERR_NOT_INIT);
 328              		.loc 1 55 5 discriminator 3 view .LVU91
 329 004c FFF7FEFF 		bl	osal_printf
 330              	.LVL38:
 331 0050 F5E7     		b	.L24
 332              	.LVL39:
 333              	.L37:
  55:../switch_sdk/core/yt/yt_debug.c ****     CMM_PARAM_CHK(NULL == YT_DISPATCH(unit), CMM_ERR_NOT_INIT);
 334              		.loc 1 55 5 discriminator 3 view .LVU92
 335              	.LBE6:
  56:../switch_sdk/core/yt/yt_debug.c ****     CMM_PARAM_CHK((!(YT_DISPATCH(unit)->is_inited)), CMM_ERR_NOT_INIT);
 336              		.loc 1 56 5 is_stmt 1 discriminator 1 view .LVU93
  56:../switch_sdk/core/yt/yt_debug.c ****     CMM_PARAM_CHK((!(YT_DISPATCH(unit)->is_inited)), CMM_ERR_NOT_INIT);
 337              		.loc 1 56 5 discriminator 1 view .LVU94
 338 0052 1F4B     		ldr	r3, .L45+12
 339 0054 1B78     		ldrb	r3, [r3]	@ zero_extendqisi2
 340 0056 012B     		cmp	r3, #1
 341 0058 01D8     		bhi	.L41
 342              	.LVL40:
 343              	.L27:
  56:../switch_sdk/core/yt/yt_debug.c ****     CMM_PARAM_CHK((!(YT_DISPATCH(unit)->is_inited)), CMM_ERR_NOT_INIT);
 344              		.loc 1 56 5 discriminator 5 view .LVU95
  56:../switch_sdk/core/yt/yt_debug.c ****     CMM_PARAM_CHK((!(YT_DISPATCH(unit)->is_inited)), CMM_ERR_NOT_INIT);
 345              		.loc 1 56 5 discriminator 5 view .LVU96
  56:../switch_sdk/core/yt/yt_debug.c ****     CMM_PARAM_CHK((!(YT_DISPATCH(unit)->is_inited)), CMM_ERR_NOT_INIT);
 346              		.loc 1 56 5 discriminator 5 view .LVU97
 347 005a 0420     		movs	r0, #4
 348 005c EAE7     		b	.L22
 349              	.LVL41:
 350              	.L41:
  56:../switch_sdk/core/yt/yt_debug.c ****     CMM_PARAM_CHK((!(YT_DISPATCH(unit)->is_inited)), CMM_ERR_NOT_INIT);
 351              		.loc 1 56 5 discriminator 3 view .LVU98
 352              	.LBB7:
  56:../switch_sdk/core/yt/yt_debug.c ****     CMM_PARAM_CHK((!(YT_DISPATCH(unit)->is_inited)), CMM_ERR_NOT_INIT);
 353              		.loc 1 56 5 discriminator 3 view .LVU99
 354 005e 1D4B     		ldr	r3, .L45+16
 355 0060 1A69     		ldr	r2, [r3, #16]
 356              	.LVL42:
  56:../switch_sdk/core/yt/yt_debug.c ****     CMM_PARAM_CHK((!(YT_DISPATCH(unit)->is_inited)), CMM_ERR_NOT_INIT);
 357              		.loc 1 56 5 is_stmt 0 discriminator 3 view .LVU100
 358 0062 1D4B     		ldr	r3, .L45+20
 359 0064 9968     		ldr	r1, [r3, #8]
 360              	.LVL43:
  56:../switch_sdk/core/yt/yt_debug.c ****     CMM_PARAM_CHK((!(YT_DISPATCH(unit)->is_inited)), CMM_ERR_NOT_INIT);
 361              		.loc 1 56 5 discriminator 3 view .LVU101
 362 0066 1D48     		ldr	r0, .L45+24
 363              	.LVL44:
  56:../switch_sdk/core/yt/yt_debug.c ****     CMM_PARAM_CHK((!(YT_DISPATCH(unit)->is_inited)), CMM_ERR_NOT_INIT);
 364              		.loc 1 56 5 discriminator 3 view .LVU102
 365 0068 FFF7FEFF 		bl	osal_printf
 366              	.LVL45:
 367 006c F5E7     		b	.L27
 368              	.LVL46:
 369              	.L38:
  56:../switch_sdk/core/yt/yt_debug.c ****     CMM_PARAM_CHK((!(YT_DISPATCH(unit)->is_inited)), CMM_ERR_NOT_INIT);
 370              		.loc 1 56 5 discriminator 3 view .LVU103
 371              	.LBE7:
  57:../switch_sdk/core/yt/yt_debug.c ****     CMM_PARAM_CHK((!(CMM_PORT_VALID(unit, port))), CMM_ERR_PORT);
 372              		.loc 1 57 5 is_stmt 1 discriminator 1 view .LVU104
  57:../switch_sdk/core/yt/yt_debug.c ****     CMM_PARAM_CHK((!(CMM_PORT_VALID(unit, port))), CMM_ERR_PORT);
 373              		.loc 1 57 5 discriminator 1 view .LVU105
 374 006e 184B     		ldr	r3, .L45+12
 375 0070 1B78     		ldrb	r3, [r3]	@ zero_extendqisi2
 376 0072 012B     		cmp	r3, #1
 377 0074 01D8     		bhi	.L42
 378              	.LVL47:
 379              	.L29:
  57:../switch_sdk/core/yt/yt_debug.c ****     CMM_PARAM_CHK((!(CMM_PORT_VALID(unit, port))), CMM_ERR_PORT);
 380              		.loc 1 57 5 discriminator 5 view .LVU106
  57:../switch_sdk/core/yt/yt_debug.c ****     CMM_PARAM_CHK((!(CMM_PORT_VALID(unit, port))), CMM_ERR_PORT);
 381              		.loc 1 57 5 discriminator 5 view .LVU107
  57:../switch_sdk/core/yt/yt_debug.c ****     CMM_PARAM_CHK((!(CMM_PORT_VALID(unit, port))), CMM_ERR_PORT);
 382              		.loc 1 57 5 discriminator 5 view .LVU108
 383 0076 0420     		movs	r0, #4
 384 0078 DCE7     		b	.L22
 385              	.LVL48:
 386              	.L42:
  57:../switch_sdk/core/yt/yt_debug.c ****     CMM_PARAM_CHK((!(CMM_PORT_VALID(unit, port))), CMM_ERR_PORT);
 387              		.loc 1 57 5 discriminator 3 view .LVU109
 388              	.LBB8:
  57:../switch_sdk/core/yt/yt_debug.c ****     CMM_PARAM_CHK((!(CMM_PORT_VALID(unit, port))), CMM_ERR_PORT);
 389              		.loc 1 57 5 discriminator 3 view .LVU110
 390 007a 164B     		ldr	r3, .L45+16
 391 007c 1A69     		ldr	r2, [r3, #16]
 392              	.LVL49:
  57:../switch_sdk/core/yt/yt_debug.c ****     CMM_PARAM_CHK((!(CMM_PORT_VALID(unit, port))), CMM_ERR_PORT);
 393              		.loc 1 57 5 is_stmt 0 discriminator 3 view .LVU111
 394 007e 164B     		ldr	r3, .L45+20
 395 0080 9968     		ldr	r1, [r3, #8]
 396              	.LVL50:
  57:../switch_sdk/core/yt/yt_debug.c ****     CMM_PARAM_CHK((!(CMM_PORT_VALID(unit, port))), CMM_ERR_PORT);
 397              		.loc 1 57 5 discriminator 3 view .LVU112
 398 0082 1648     		ldr	r0, .L45+24
 399 0084 FFF7FEFF 		bl	osal_printf
 400              	.LVL51:
 401 0088 F5E7     		b	.L29
 402              	.LVL52:
 403              	.L30:
  57:../switch_sdk/core/yt/yt_debug.c ****     CMM_PARAM_CHK((!(CMM_PORT_VALID(unit, port))), CMM_ERR_PORT);
 404              		.loc 1 57 5 discriminator 3 view .LVU113
 405              	.LBE8:
  58:../switch_sdk/core/yt/yt_debug.c ****     CMM_PARAM_CHK((mode > YT_PHY_LOOPBACK_MODE_REMOTE || mode < YT_PHY_LOOPBACK_MODE_INTERNAL), CMM
 406              		.loc 1 58 5 is_stmt 1 discriminator 3 view .LVU114
  58:../switch_sdk/core/yt/yt_debug.c ****     CMM_PARAM_CHK((mode > YT_PHY_LOOPBACK_MODE_REMOTE || mode < YT_PHY_LOOPBACK_MODE_INTERNAL), CMM
 407              		.loc 1 58 5 discriminator 3 view .LVU115
 408 008a 114B     		ldr	r3, .L45+12
 409 008c 1B78     		ldrb	r3, [r3]	@ zero_extendqisi2
 410 008e 012B     		cmp	r3, #1
 411 0090 01D8     		bhi	.L43
 412              	.LVL53:
 413              	.L32:
  58:../switch_sdk/core/yt/yt_debug.c ****     CMM_PARAM_CHK((mode > YT_PHY_LOOPBACK_MODE_REMOTE || mode < YT_PHY_LOOPBACK_MODE_INTERNAL), CMM
 414              		.loc 1 58 5 discriminator 7 view .LVU116
  58:../switch_sdk/core/yt/yt_debug.c ****     CMM_PARAM_CHK((mode > YT_PHY_LOOPBACK_MODE_REMOTE || mode < YT_PHY_LOOPBACK_MODE_INTERNAL), CMM
 415              		.loc 1 58 5 discriminator 7 view .LVU117
  58:../switch_sdk/core/yt/yt_debug.c ****     CMM_PARAM_CHK((mode > YT_PHY_LOOPBACK_MODE_REMOTE || mode < YT_PHY_LOOPBACK_MODE_INTERNAL), CMM
 416              		.loc 1 58 5 discriminator 7 view .LVU118
 417 0092 0E20     		movs	r0, #14
 418 0094 CEE7     		b	.L22
 419              	.LVL54:
 420              	.L43:
  58:../switch_sdk/core/yt/yt_debug.c ****     CMM_PARAM_CHK((mode > YT_PHY_LOOPBACK_MODE_REMOTE || mode < YT_PHY_LOOPBACK_MODE_INTERNAL), CMM
 421              		.loc 1 58 5 discriminator 5 view .LVU119
 422              	.LBB9:
  58:../switch_sdk/core/yt/yt_debug.c ****     CMM_PARAM_CHK((mode > YT_PHY_LOOPBACK_MODE_REMOTE || mode < YT_PHY_LOOPBACK_MODE_INTERNAL), CMM
 423              		.loc 1 58 5 discriminator 5 view .LVU120
 424 0096 0F4B     		ldr	r3, .L45+16
 425 0098 9A6B     		ldr	r2, [r3, #56]
 426              	.LVL55:
  58:../switch_sdk/core/yt/yt_debug.c ****     CMM_PARAM_CHK((mode > YT_PHY_LOOPBACK_MODE_REMOTE || mode < YT_PHY_LOOPBACK_MODE_INTERNAL), CMM
 427              		.loc 1 58 5 is_stmt 0 discriminator 5 view .LVU121
 428 009a 0F4B     		ldr	r3, .L45+20
 429 009c 9968     		ldr	r1, [r3, #8]
 430              	.LVL56:
  58:../switch_sdk/core/yt/yt_debug.c ****     CMM_PARAM_CHK((mode > YT_PHY_LOOPBACK_MODE_REMOTE || mode < YT_PHY_LOOPBACK_MODE_INTERNAL), CMM
 431              		.loc 1 58 5 discriminator 5 view .LVU122
 432 009e 0F48     		ldr	r0, .L45+24
 433 00a0 FFF7FEFF 		bl	osal_printf
 434              	.LVL57:
 435 00a4 F5E7     		b	.L32
 436              	.LVL58:
 437              	.L39:
  58:../switch_sdk/core/yt/yt_debug.c ****     CMM_PARAM_CHK((mode > YT_PHY_LOOPBACK_MODE_REMOTE || mode < YT_PHY_LOOPBACK_MODE_INTERNAL), CMM
 438              		.loc 1 58 5 discriminator 5 view .LVU123
 439              	.LBE9:
  59:../switch_sdk/core/yt/yt_debug.c **** 
 440              		.loc 1 59 5 is_stmt 1 discriminator 1 view .LVU124
  59:../switch_sdk/core/yt/yt_debug.c **** 
 441              		.loc 1 59 5 discriminator 1 view .LVU125
 442 00a6 0A4B     		ldr	r3, .L45+12
 443 00a8 1B78     		ldrb	r3, [r3]	@ zero_extendqisi2
 444 00aa 012B     		cmp	r3, #1
 445 00ac 01D8     		bhi	.L44
 446              	.LVL59:
 447              	.L34:
  59:../switch_sdk/core/yt/yt_debug.c **** 
 448              		.loc 1 59 5 discriminator 5 view .LVU126
  59:../switch_sdk/core/yt/yt_debug.c **** 
 449              		.loc 1 59 5 discriminator 5 view .LVU127
  59:../switch_sdk/core/yt/yt_debug.c **** 
 450              		.loc 1 59 5 discriminator 5 view .LVU128
 451 00ae 0520     		movs	r0, #5
 452 00b0 C0E7     		b	.L22
 453              	.LVL60:
 454              	.L44:
  59:../switch_sdk/core/yt/yt_debug.c **** 
 455              		.loc 1 59 5 discriminator 3 view .LVU129
 456              	.LBB10:
  59:../switch_sdk/core/yt/yt_debug.c **** 
 457              		.loc 1 59 5 discriminator 3 view .LVU130
 458 00b2 084B     		ldr	r3, .L45+16
 459 00b4 5A69     		ldr	r2, [r3, #20]
 460              	.LVL61:
  59:../switch_sdk/core/yt/yt_debug.c **** 
 461              		.loc 1 59 5 is_stmt 0 discriminator 3 view .LVU131
 462 00b6 084B     		ldr	r3, .L45+20
 463 00b8 9968     		ldr	r1, [r3, #8]
 464              	.LVL62:
  59:../switch_sdk/core/yt/yt_debug.c **** 
 465              		.loc 1 59 5 discriminator 3 view .LVU132
 466 00ba 0848     		ldr	r0, .L45+24
 467 00bc FFF7FEFF 		bl	osal_printf
 468              	.LVL63:
 469 00c0 F5E7     		b	.L34
 470              	.L46:
 471 00c2 00BF     		.align	2
 472              	.L45:
 473 00c4 00000000 		.word	gpfal_dispatch
 474 00c8 00000000 		.word	gcal_inited
 475 00cc 00000000 		.word	gpSwitchUnit
 476 00d0 00000000 		.word	yt_debug_level
 477 00d4 00000000 		.word	_yt_errmsg
 478 00d8 00000000 		.word	_yt_prompt_msg
 479 00dc 00000000 		.word	.LC0
 480              	.LBE10:
 481              		.cfi_endproc
 482              	.LFE4:
 484              		.text
 485              	.Letext0:
 486              		.file 2 "C:\\Users\\Dmitriy\\Desktop\\GD32F10x\\switch_sdk\\common\\include/yt_types.h"
 487              		.file 3 "C:\\Users\\Dmitriy\\Desktop\\GD32F10x\\switch_sdk\\common\\include/yt_error.h"
 488              		.file 4 "C:\\Users\\Dmitriy\\Desktop\\GD32F10x\\switch_sdk\\core\\fal\\chipdef/chipdef.h"
 489              		.file 5 "C:\\Users\\Dmitriy\\Desktop\\GD32F10x\\switch_sdk\\core\\cal/cal_bprofile.h"
 490              		.file 6 "C:\\Users\\Dmitriy\\Desktop\\GD32F10x\\switch_sdk\\core\\cal/cal_mgm.h"
 491              		.file 7 "C:\\Users\\Dmitriy\\Desktop\\GD32F10x\\switch_sdk\\include/yt_cmm.h"
 492              		.file 8 "C:\\Users\\Dmitriy\\Desktop\\GD32F10x\\switch_sdk\\include/yt_vlan.h"
 493              		.file 9 "C:\\Users\\Dmitriy\\Desktop\\GD32F10x\\switch_sdk\\include/yt_vlan_translate.h"
 494              		.file 10 "C:\\Users\\Dmitriy\\Desktop\\GD32F10x\\switch_sdk\\include/yt_acl.h"
 495              		.file 11 "C:\\Users\\Dmitriy\\Desktop\\GD32F10x\\switch_sdk\\include/yt_qos.h"
 496              		.file 12 "C:\\Users\\Dmitriy\\Desktop\\GD32F10x\\switch_sdk\\include/yt_rate.h"
 497              		.file 13 "C:\\Users\\Dmitriy\\Desktop\\GD32F10x\\switch_sdk\\include/yt_dos.h"
 498              		.file 14 "C:\\Users\\Dmitriy\\Desktop\\GD32F10x\\switch_sdk\\include/yt_nic.h"
 499              		.file 15 "C:\\Users\\Dmitriy\\Desktop\\GD32F10x\\switch_sdk\\include/yt_stp.h"
 500              		.file 16 "C:\\Users\\Dmitriy\\Desktop\\GD32F10x\\switch_sdk\\include/yt_l2.h"
 501              		.file 17 "C:\\Users\\Dmitriy\\Desktop\\GD32F10x\\switch_sdk\\include/yt_loopdetect.h"
 502              		.file 18 "C:\\Users\\Dmitriy\\Desktop\\GD32F10x\\switch_sdk\\include/yt_multicast.h"
 503              		.file 19 "C:\\Users\\Dmitriy\\Desktop\\GD32F10x\\switch_sdk\\include/yt_rma.h"
 504              		.file 20 "C:\\Users\\Dmitriy\\Desktop\\GD32F10x\\switch_sdk\\include/yt_oam.h"
 505              		.file 21 "C:\\Users\\Dmitriy\\Desktop\\GD32F10x\\switch_sdk\\include/yt_storm_ctrl.h"
 506              		.file 22 "C:\\Users\\Dmitriy\\Desktop\\GD32F10x\\switch_sdk\\include/yt_port.h"
 507              		.file 23 "C:\\Users\\Dmitriy\\Desktop\\GD32F10x\\switch_sdk\\include/yt_dot1x.h"
 508              		.file 24 "C:\\Users\\Dmitriy\\Desktop\\GD32F10x\\switch_sdk\\include/yt_ctrlpkt.h"
 509              		.file 25 "C:\\Users\\Dmitriy\\Desktop\\GD32F10x\\switch_sdk\\include/yt_stat.h"
 510              		.file 26 "C:\\Users\\Dmitriy\\Desktop\\GD32F10x\\switch_sdk\\include/yt_interrupt.h"
 511              		.file 27 "C:\\Users\\Dmitriy\\Desktop\\GD32F10x\\switch_sdk\\include/yt_led.h"
 512              		.file 28 "C:\\Users\\Dmitriy\\Desktop\\GD32F10x\\switch_sdk\\include/yt_sys.h"
 513              		.file 29 "C:\\Users\\Dmitriy\\Desktop\\GD32F10x\\switch_sdk\\include/yt_debug.h"
 514              		.file 30 "C:\\Users\\Dmitriy\\Desktop\\GD32F10x\\switch_sdk\\core\\fal/fal_dispatch.h"