   1              		.cpu cortex-m3
   2              		.arch armv7-m
   3              		.fpu softvfp
   4              		.eabi_attribute 20, 1
   5              		.eabi_attribute 21, 1
   6              		.eabi_attribute 23, 3
   7              		.eabi_attribute 24, 1
   8              		.eabi_attribute 25, 1
   9              		.eabi_attribute 26, 1
  10              		.eabi_attribute 30, 1
  11              		.eabi_attribute 34, 1
  12              		.eabi_attribute 18, 4
  13              		.file	"yt_dot1x.c"
  14              		.text
  15              	.Ltext0:
  16              		.cfi_sections	.debug_frame
  17              		.file 1 "../switch_sdk/core/yt/yt_dot1x.c"
  18              		.section	.rodata.yt_dot1x_init.str1.4,"aMS",%progbits,1
  19              		.align	2
  20              	.LC0:
  21 0000 25732573 		.ascii	"%s%s\015\012\000"
  21      0D0A00
  22              		.section	.text.yt_dot1x_init,"ax",%progbits
  23              		.align	1
  24              		.global	yt_dot1x_init
  25              		.syntax unified
  26              		.thumb
  27              		.thumb_func
  29              	yt_dot1x_init:
  30              	.LVL0:
  31              	.LFB3:
   1:../switch_sdk/core/yt/yt_dot1x.c **** /*******************************************************************************
   2:../switch_sdk/core/yt/yt_dot1x.c **** *                                                                              *
   3:../switch_sdk/core/yt/yt_dot1x.c **** *  Copyright (c), 2022, Motorcomm Electronic Technology Co.,Ltd.               *
   4:../switch_sdk/core/yt/yt_dot1x.c **** *  Motorcomm Confidential and Proprietary.                                     *
   5:../switch_sdk/core/yt/yt_dot1x.c **** *                                                                              *
   6:../switch_sdk/core/yt/yt_dot1x.c **** ********************************************************************************
   7:../switch_sdk/core/yt/yt_dot1x.c **** */
   8:../switch_sdk/core/yt/yt_dot1x.c **** /**
   9:../switch_sdk/core/yt/yt_dot1x.c **** ********************************************************************************
  10:../switch_sdk/core/yt/yt_dot1x.c **** * @file yt_dot1x.c
  11:../switch_sdk/core/yt/yt_dot1x.c **** *
  12:../switch_sdk/core/yt/yt_dot1x.c **** * @brief x
  13:../switch_sdk/core/yt/yt_dot1x.c **** *
  14:../switch_sdk/core/yt/yt_dot1x.c **** ********************************************************************************
  15:../switch_sdk/core/yt/yt_dot1x.c **** */
  16:../switch_sdk/core/yt/yt_dot1x.c **** #include "yt_dot1x.h"
  17:../switch_sdk/core/yt/yt_dot1x.c **** #include "fal_dispatch.h"
  18:../switch_sdk/core/yt/yt_dot1x.c **** 
  19:../switch_sdk/core/yt/yt_dot1x.c **** 
  20:../switch_sdk/core/yt/yt_dot1x.c **** /**
  21:../switch_sdk/core/yt/yt_dot1x.c ****  * @internal      yt_dot1x_init
  22:../switch_sdk/core/yt/yt_dot1x.c ****  * @endinternal
  23:../switch_sdk/core/yt/yt_dot1x.c ****  *
  24:../switch_sdk/core/yt/yt_dot1x.c ****  * @brief         Description
  25:../switch_sdk/core/yt/yt_dot1x.c ****  * @note          APPLICABLE DEVICES  -Tiger
  26:../switch_sdk/core/yt/yt_dot1x.c ****  * @param[in]     unit                -unit id
  27:../switch_sdk/core/yt/yt_dot1x.c ****  * @retval        CMM_ERR_OK          -on success
  28:../switch_sdk/core/yt/yt_dot1x.c ****  * @retval        CMM_ERR_FAIL        -on fail
  29:../switch_sdk/core/yt/yt_dot1x.c ****  */
  30:../switch_sdk/core/yt/yt_dot1x.c **** yt_ret_t yt_dot1x_init(yt_unit_t unit)
  31:../switch_sdk/core/yt/yt_dot1x.c **** {
  32              		.loc 1 31 1 view -0
  33              		.cfi_startproc
  34              		@ args = 0, pretend = 0, frame = 0
  35              		@ frame_needed = 0, uses_anonymous_args = 0
  36              		.loc 1 31 1 is_stmt 0 view .LVU1
  37 0000 08B5     		push	{r3, lr}
  38              		.cfi_def_cfa_offset 8
  39              		.cfi_offset 3, -8
  40              		.cfi_offset 14, -4
  32:../switch_sdk/core/yt/yt_dot1x.c ****     CMM_PARAM_CHK((YT_UNIT_NUM <= unit), CMM_ERR_INPUT);
  41              		.loc 1 32 5 is_stmt 1 view .LVU2
  42              		.loc 1 32 5 view .LVU3
  43 0002 48B9     		cbnz	r0, .L10
  44              		.loc 1 32 5 discriminator 2 view .LVU4
  33:../switch_sdk/core/yt/yt_dot1x.c ****     CMM_PARAM_CHK(NULL == YT_DISPATCH(unit), CMM_ERR_NOT_INIT);
  45              		.loc 1 33 5 discriminator 2 view .LVU5
  46              		.loc 1 33 5 discriminator 2 view .LVU6
  47 0004 194B     		ldr	r3, .L16
  48 0006 53F82030 		ldr	r3, [r3, r0, lsl #2]
  49 000a 9BB1     		cbz	r3, .L11
  50              		.loc 1 33 5 discriminator 2 view .LVU7
  34:../switch_sdk/core/yt/yt_dot1x.c ****     CMM_PARAM_CHK((!(YT_DISPATCH(unit)->is_inited)), CMM_ERR_NOT_INIT);
  51              		.loc 1 34 5 discriminator 2 view .LVU8
  52              		.loc 1 34 5 discriminator 2 view .LVU9
  53 000c 1978     		ldrb	r1, [r3]	@ zero_extendqisi2
  54 000e F9B1     		cbz	r1, .L12
  55              		.loc 1 34 5 discriminator 2 view .LVU10
  35:../switch_sdk/core/yt/yt_dot1x.c **** 
  36:../switch_sdk/core/yt/yt_dot1x.c ****     return YT_DISPATCH(unit)->dot1x_init(unit);
  56              		.loc 1 36 5 discriminator 2 view .LVU11
  57              		.loc 1 36 29 is_stmt 0 discriminator 2 view .LVU12
  58 0010 D3F82831 		ldr	r3, [r3, #296]
  59              		.loc 1 36 12 discriminator 2 view .LVU13
  60 0014 9847     		blx	r3
  61              	.LVL1:
  62              	.L1:
  37:../switch_sdk/core/yt/yt_dot1x.c **** }
  63              		.loc 1 37 1 view .LVU14
  64 0016 08BD     		pop	{r3, pc}
  65              	.LVL2:
  66              	.L10:
  32:../switch_sdk/core/yt/yt_dot1x.c ****     CMM_PARAM_CHK(NULL == YT_DISPATCH(unit), CMM_ERR_NOT_INIT);
  67              		.loc 1 32 5 is_stmt 1 discriminator 1 view .LVU15
  32:../switch_sdk/core/yt/yt_dot1x.c ****     CMM_PARAM_CHK(NULL == YT_DISPATCH(unit), CMM_ERR_NOT_INIT);
  68              		.loc 1 32 5 discriminator 1 view .LVU16
  69 0018 154B     		ldr	r3, .L16+4
  70 001a 1B78     		ldrb	r3, [r3]	@ zero_extendqisi2
  71 001c 012B     		cmp	r3, #1
  72 001e 01D8     		bhi	.L13
  73              	.LVL3:
  74              	.L3:
  32:../switch_sdk/core/yt/yt_dot1x.c ****     CMM_PARAM_CHK(NULL == YT_DISPATCH(unit), CMM_ERR_NOT_INIT);
  75              		.loc 1 32 5 discriminator 5 view .LVU17
  32:../switch_sdk/core/yt/yt_dot1x.c ****     CMM_PARAM_CHK(NULL == YT_DISPATCH(unit), CMM_ERR_NOT_INIT);
  76              		.loc 1 32 5 discriminator 5 view .LVU18
  32:../switch_sdk/core/yt/yt_dot1x.c ****     CMM_PARAM_CHK(NULL == YT_DISPATCH(unit), CMM_ERR_NOT_INIT);
  77              		.loc 1 32 5 discriminator 5 view .LVU19
  78 0020 0520     		movs	r0, #5
  79 0022 F8E7     		b	.L1
  80              	.LVL4:
  81              	.L13:
  32:../switch_sdk/core/yt/yt_dot1x.c ****     CMM_PARAM_CHK(NULL == YT_DISPATCH(unit), CMM_ERR_NOT_INIT);
  82              		.loc 1 32 5 discriminator 3 view .LVU20
  83              	.LBB2:
  32:../switch_sdk/core/yt/yt_dot1x.c ****     CMM_PARAM_CHK(NULL == YT_DISPATCH(unit), CMM_ERR_NOT_INIT);
  84              		.loc 1 32 5 discriminator 3 view .LVU21
  85 0024 134B     		ldr	r3, .L16+8
  86 0026 5A69     		ldr	r2, [r3, #20]
  87 0028 134B     		ldr	r3, .L16+12
  88 002a 9968     		ldr	r1, [r3, #8]
  89 002c 1348     		ldr	r0, .L16+16
  90              	.LVL5:
  32:../switch_sdk/core/yt/yt_dot1x.c ****     CMM_PARAM_CHK(NULL == YT_DISPATCH(unit), CMM_ERR_NOT_INIT);
  91              		.loc 1 32 5 is_stmt 0 discriminator 3 view .LVU22
  92 002e FFF7FEFF 		bl	osal_printf
  93              	.LVL6:
  94 0032 F5E7     		b	.L3
  95              	.LVL7:
  96              	.L11:
  32:../switch_sdk/core/yt/yt_dot1x.c ****     CMM_PARAM_CHK(NULL == YT_DISPATCH(unit), CMM_ERR_NOT_INIT);
  97              		.loc 1 32 5 discriminator 3 view .LVU23
  98              	.LBE2:
  33:../switch_sdk/core/yt/yt_dot1x.c ****     CMM_PARAM_CHK((!(YT_DISPATCH(unit)->is_inited)), CMM_ERR_NOT_INIT);
  99              		.loc 1 33 5 is_stmt 1 discriminator 1 view .LVU24
  33:../switch_sdk/core/yt/yt_dot1x.c ****     CMM_PARAM_CHK((!(YT_DISPATCH(unit)->is_inited)), CMM_ERR_NOT_INIT);
 100              		.loc 1 33 5 discriminator 1 view .LVU25
 101 0034 0E4B     		ldr	r3, .L16+4
 102 0036 1B78     		ldrb	r3, [r3]	@ zero_extendqisi2
 103 0038 012B     		cmp	r3, #1
 104 003a 01D8     		bhi	.L14
 105              	.LVL8:
 106              	.L6:
  33:../switch_sdk/core/yt/yt_dot1x.c ****     CMM_PARAM_CHK((!(YT_DISPATCH(unit)->is_inited)), CMM_ERR_NOT_INIT);
 107              		.loc 1 33 5 discriminator 5 view .LVU26
  33:../switch_sdk/core/yt/yt_dot1x.c ****     CMM_PARAM_CHK((!(YT_DISPATCH(unit)->is_inited)), CMM_ERR_NOT_INIT);
 108              		.loc 1 33 5 discriminator 5 view .LVU27
  33:../switch_sdk/core/yt/yt_dot1x.c ****     CMM_PARAM_CHK((!(YT_DISPATCH(unit)->is_inited)), CMM_ERR_NOT_INIT);
 109              		.loc 1 33 5 discriminator 5 view .LVU28
 110 003c 0420     		movs	r0, #4
 111 003e EAE7     		b	.L1
 112              	.LVL9:
 113              	.L14:
  33:../switch_sdk/core/yt/yt_dot1x.c ****     CMM_PARAM_CHK((!(YT_DISPATCH(unit)->is_inited)), CMM_ERR_NOT_INIT);
 114              		.loc 1 33 5 discriminator 3 view .LVU29
 115              	.LBB3:
  33:../switch_sdk/core/yt/yt_dot1x.c ****     CMM_PARAM_CHK((!(YT_DISPATCH(unit)->is_inited)), CMM_ERR_NOT_INIT);
 116              		.loc 1 33 5 discriminator 3 view .LVU30
 117 0040 0C4B     		ldr	r3, .L16+8
 118 0042 1A69     		ldr	r2, [r3, #16]
 119 0044 0C4B     		ldr	r3, .L16+12
 120 0046 9968     		ldr	r1, [r3, #8]
 121 0048 0C48     		ldr	r0, .L16+16
 122              	.LVL10:
  33:../switch_sdk/core/yt/yt_dot1x.c ****     CMM_PARAM_CHK((!(YT_DISPATCH(unit)->is_inited)), CMM_ERR_NOT_INIT);
 123              		.loc 1 33 5 is_stmt 0 discriminator 3 view .LVU31
 124 004a FFF7FEFF 		bl	osal_printf
 125              	.LVL11:
 126 004e F5E7     		b	.L6
 127              	.LVL12:
 128              	.L12:
  33:../switch_sdk/core/yt/yt_dot1x.c ****     CMM_PARAM_CHK((!(YT_DISPATCH(unit)->is_inited)), CMM_ERR_NOT_INIT);
 129              		.loc 1 33 5 discriminator 3 view .LVU32
 130              	.LBE3:
  34:../switch_sdk/core/yt/yt_dot1x.c **** 
 131              		.loc 1 34 5 is_stmt 1 discriminator 1 view .LVU33
  34:../switch_sdk/core/yt/yt_dot1x.c **** 
 132              		.loc 1 34 5 discriminator 1 view .LVU34
 133 0050 074B     		ldr	r3, .L16+4
 134 0052 1B78     		ldrb	r3, [r3]	@ zero_extendqisi2
 135 0054 012B     		cmp	r3, #1
 136 0056 01D8     		bhi	.L15
 137              	.LVL13:
 138              	.L8:
  34:../switch_sdk/core/yt/yt_dot1x.c **** 
 139              		.loc 1 34 5 discriminator 5 view .LVU35
  34:../switch_sdk/core/yt/yt_dot1x.c **** 
 140              		.loc 1 34 5 discriminator 5 view .LVU36
  34:../switch_sdk/core/yt/yt_dot1x.c **** 
 141              		.loc 1 34 5 discriminator 5 view .LVU37
 142 0058 0420     		movs	r0, #4
 143 005a DCE7     		b	.L1
 144              	.LVL14:
 145              	.L15:
  34:../switch_sdk/core/yt/yt_dot1x.c **** 
 146              		.loc 1 34 5 discriminator 3 view .LVU38
 147              	.LBB4:
  34:../switch_sdk/core/yt/yt_dot1x.c **** 
 148              		.loc 1 34 5 discriminator 3 view .LVU39
 149 005c 054B     		ldr	r3, .L16+8
 150 005e 1A69     		ldr	r2, [r3, #16]
 151 0060 054B     		ldr	r3, .L16+12
 152 0062 9968     		ldr	r1, [r3, #8]
 153 0064 0548     		ldr	r0, .L16+16
 154              	.LVL15:
  34:../switch_sdk/core/yt/yt_dot1x.c **** 
 155              		.loc 1 34 5 is_stmt 0 discriminator 3 view .LVU40
 156 0066 FFF7FEFF 		bl	osal_printf
 157              	.LVL16:
 158 006a F5E7     		b	.L8
 159              	.L17:
 160              		.align	2
 161              	.L16:
 162 006c 00000000 		.word	gpfal_dispatch
 163 0070 00000000 		.word	yt_debug_level
 164 0074 00000000 		.word	_yt_errmsg
 165 0078 00000000 		.word	_yt_prompt_msg
 166 007c 00000000 		.word	.LC0
 167              	.LBE4:
 168              		.cfi_endproc
 169              	.LFE3:
 171              		.section	.text.yt_dot1x_portBasedEnable_set,"ax",%progbits
 172              		.align	1
 173              		.global	yt_dot1x_portBasedEnable_set
 174              		.syntax unified
 175              		.thumb
 176              		.thumb_func
 178              	yt_dot1x_portBasedEnable_set:
 179              	.LVL17:
 180              	.LFB4:
  38:../switch_sdk/core/yt/yt_dot1x.c **** 
  39:../switch_sdk/core/yt/yt_dot1x.c **** /**
  40:../switch_sdk/core/yt/yt_dot1x.c ****  * @internal      yt_dot1x_portBasedEnable_set
  41:../switch_sdk/core/yt/yt_dot1x.c ****  * @endinternal
  42:../switch_sdk/core/yt/yt_dot1x.c ****  *
  43:../switch_sdk/core/yt/yt_dot1x.c ****  * @brief         Description
  44:../switch_sdk/core/yt/yt_dot1x.c ****  * @note          APPLICABLE DEVICES  -Tiger
  45:../switch_sdk/core/yt/yt_dot1x.c ****  * @param[in]     unit                -unit id
  46:../switch_sdk/core/yt/yt_dot1x.c ****  * @param[in]     port                -port num
  47:../switch_sdk/core/yt/yt_dot1x.c ****  * @param[in]     enable              -enable or disable
  48:../switch_sdk/core/yt/yt_dot1x.c ****  * @retval        CMM_ERR_OK          -on success
  49:../switch_sdk/core/yt/yt_dot1x.c ****  * @retval        CMM_ERR_FAIL        -on fail
  50:../switch_sdk/core/yt/yt_dot1x.c ****  */
  51:../switch_sdk/core/yt/yt_dot1x.c **** yt_ret_t yt_dot1x_portBasedEnable_set(yt_unit_t unit, yt_port_t port, yt_enable_t enable)
  52:../switch_sdk/core/yt/yt_dot1x.c **** {
 181              		.loc 1 52 1 is_stmt 1 view -0
 182              		.cfi_startproc
 183              		@ args = 0, pretend = 0, frame = 0
 184              		@ frame_needed = 0, uses_anonymous_args = 0
 185              		.loc 1 52 1 is_stmt 0 view .LVU42
 186 0000 08B5     		push	{r3, lr}
 187              		.cfi_def_cfa_offset 8
 188              		.cfi_offset 3, -8
 189              		.cfi_offset 14, -4
  53:../switch_sdk/core/yt/yt_dot1x.c ****     CMM_PARAM_CHK((YT_UNIT_NUM <= unit), CMM_ERR_INPUT);
 190              		.loc 1 53 5 is_stmt 1 view .LVU43
 191              		.loc 1 53 5 view .LVU44
 192 0002 C0B9     		cbnz	r0, .L32
 193 0004 8446     		mov	ip, r0
 194              		.loc 1 53 5 discriminator 2 view .LVU45
  54:../switch_sdk/core/yt/yt_dot1x.c ****     CMM_PARAM_CHK(NULL == YT_DISPATCH(unit), CMM_ERR_NOT_INIT);
 195              		.loc 1 54 5 discriminator 2 view .LVU46
 196              		.loc 1 54 5 discriminator 2 view .LVU47
 197 0006 2F4B     		ldr	r3, .L41
 198 0008 53F82030 		ldr	r3, [r3, r0, lsl #2]
 199 000c 0BB3     		cbz	r3, .L33
 200              		.loc 1 54 5 discriminator 2 view .LVU48
  55:../switch_sdk/core/yt/yt_dot1x.c ****     CMM_PARAM_CHK((!(YT_DISPATCH(unit)->is_inited)), CMM_ERR_NOT_INIT);
 201              		.loc 1 55 5 discriminator 2 view .LVU49
 202              		.loc 1 55 5 discriminator 2 view .LVU50
 203 000e 1878     		ldrb	r0, [r3]	@ zero_extendqisi2
 204              	.LVL18:
 205              		.loc 1 55 5 is_stmt 0 discriminator 2 view .LVU51
 206 0010 0028     		cmp	r0, #0
 207 0012 2CD0     		beq	.L34
 208              		.loc 1 55 5 is_stmt 1 discriminator 2 view .LVU52
  56:../switch_sdk/core/yt/yt_dot1x.c ****     CMM_PARAM_CHK((!(CMM_PORT_VALID(unit, port))), CMM_ERR_PORT);
 209              		.loc 1 56 5 discriminator 2 view .LVU53
 210              		.loc 1 56 5 discriminator 2 view .LVU54
 211 0014 2C48     		ldr	r0, .L41+4
 212 0016 0078     		ldrb	r0, [r0]	@ zero_extendqisi2
 213 0018 0028     		cmp	r0, #0
 214 001a 36D0     		beq	.L26
 215 001c 2B48     		ldr	r0, .L41+8
 216 001e 50F82C00 		ldr	r0, [r0, ip, lsl #2]
 217 0022 007D     		ldrb	r0, [r0, #20]	@ zero_extendqisi2
 218 0024 8842     		cmp	r0, r1
 219 0026 30D9     		bls	.L26
 220              		.loc 1 56 5 discriminator 4 view .LVU55
  57:../switch_sdk/core/yt/yt_dot1x.c ****     CMM_PARAM_CHK((YT_ENABLE < enable || YT_DISABLE > enable), CMM_ERR_INPUT);
 221              		.loc 1 57 5 discriminator 4 view .LVU56
 222              		.loc 1 57 5 discriminator 4 view .LVU57
 223 0028 012A     		cmp	r2, #1
 224 002a 3CD8     		bhi	.L35
 225              		.loc 1 57 5 discriminator 2 view .LVU58
  58:../switch_sdk/core/yt/yt_dot1x.c **** 
  59:../switch_sdk/core/yt/yt_dot1x.c ****     return YT_DISPATCH(unit)->dot1x_portBasedEnable_set(unit, port, enable);
 226              		.loc 1 59 5 discriminator 2 view .LVU59
 227              		.loc 1 59 29 is_stmt 0 discriminator 2 view .LVU60
 228 002c D3F82C31 		ldr	r3, [r3, #300]
 229              		.loc 1 59 12 discriminator 2 view .LVU61
 230 0030 6046     		mov	r0, ip
 231 0032 9847     		blx	r3
 232              	.LVL19:
 233              	.L18:
  60:../switch_sdk/core/yt/yt_dot1x.c **** }
 234              		.loc 1 60 1 view .LVU62
 235 0034 08BD     		pop	{r3, pc}
 236              	.LVL20:
 237              	.L32:
  53:../switch_sdk/core/yt/yt_dot1x.c ****     CMM_PARAM_CHK(NULL == YT_DISPATCH(unit), CMM_ERR_NOT_INIT);
 238              		.loc 1 53 5 is_stmt 1 discriminator 1 view .LVU63
  53:../switch_sdk/core/yt/yt_dot1x.c ****     CMM_PARAM_CHK(NULL == YT_DISPATCH(unit), CMM_ERR_NOT_INIT);
 239              		.loc 1 53 5 discriminator 1 view .LVU64
 240 0036 264B     		ldr	r3, .L41+12
 241 0038 1B78     		ldrb	r3, [r3]	@ zero_extendqisi2
 242 003a 012B     		cmp	r3, #1
 243 003c 01D8     		bhi	.L36
 244              	.LVL21:
 245              	.L20:
  53:../switch_sdk/core/yt/yt_dot1x.c ****     CMM_PARAM_CHK(NULL == YT_DISPATCH(unit), CMM_ERR_NOT_INIT);
 246              		.loc 1 53 5 discriminator 5 view .LVU65
  53:../switch_sdk/core/yt/yt_dot1x.c ****     CMM_PARAM_CHK(NULL == YT_DISPATCH(unit), CMM_ERR_NOT_INIT);
 247              		.loc 1 53 5 discriminator 5 view .LVU66
  53:../switch_sdk/core/yt/yt_dot1x.c ****     CMM_PARAM_CHK(NULL == YT_DISPATCH(unit), CMM_ERR_NOT_INIT);
 248              		.loc 1 53 5 discriminator 5 view .LVU67
 249 003e 0520     		movs	r0, #5
 250 0040 F8E7     		b	.L18
 251              	.LVL22:
 252              	.L36:
  53:../switch_sdk/core/yt/yt_dot1x.c ****     CMM_PARAM_CHK(NULL == YT_DISPATCH(unit), CMM_ERR_NOT_INIT);
 253              		.loc 1 53 5 discriminator 3 view .LVU68
 254              	.LBB5:
  53:../switch_sdk/core/yt/yt_dot1x.c ****     CMM_PARAM_CHK(NULL == YT_DISPATCH(unit), CMM_ERR_NOT_INIT);
 255              		.loc 1 53 5 discriminator 3 view .LVU69
 256 0042 244B     		ldr	r3, .L41+16
 257 0044 5A69     		ldr	r2, [r3, #20]
 258              	.LVL23:
  53:../switch_sdk/core/yt/yt_dot1x.c ****     CMM_PARAM_CHK(NULL == YT_DISPATCH(unit), CMM_ERR_NOT_INIT);
 259              		.loc 1 53 5 is_stmt 0 discriminator 3 view .LVU70
 260 0046 244B     		ldr	r3, .L41+20
 261 0048 9968     		ldr	r1, [r3, #8]
 262              	.LVL24:
  53:../switch_sdk/core/yt/yt_dot1x.c ****     CMM_PARAM_CHK(NULL == YT_DISPATCH(unit), CMM_ERR_NOT_INIT);
 263              		.loc 1 53 5 discriminator 3 view .LVU71
 264 004a 2448     		ldr	r0, .L41+24
 265              	.LVL25:
  53:../switch_sdk/core/yt/yt_dot1x.c ****     CMM_PARAM_CHK(NULL == YT_DISPATCH(unit), CMM_ERR_NOT_INIT);
 266              		.loc 1 53 5 discriminator 3 view .LVU72
 267 004c FFF7FEFF 		bl	osal_printf
 268              	.LVL26:
 269 0050 F5E7     		b	.L20
 270              	.LVL27:
 271              	.L33:
  53:../switch_sdk/core/yt/yt_dot1x.c ****     CMM_PARAM_CHK(NULL == YT_DISPATCH(unit), CMM_ERR_NOT_INIT);
 272              		.loc 1 53 5 discriminator 3 view .LVU73
 273              	.LBE5:
  54:../switch_sdk/core/yt/yt_dot1x.c ****     CMM_PARAM_CHK((!(YT_DISPATCH(unit)->is_inited)), CMM_ERR_NOT_INIT);
 274              		.loc 1 54 5 is_stmt 1 discriminator 1 view .LVU74
  54:../switch_sdk/core/yt/yt_dot1x.c ****     CMM_PARAM_CHK((!(YT_DISPATCH(unit)->is_inited)), CMM_ERR_NOT_INIT);
 275              		.loc 1 54 5 discriminator 1 view .LVU75
 276 0052 1F4B     		ldr	r3, .L41+12
 277 0054 1B78     		ldrb	r3, [r3]	@ zero_extendqisi2
 278 0056 012B     		cmp	r3, #1
 279 0058 01D8     		bhi	.L37
 280              	.LVL28:
 281              	.L23:
  54:../switch_sdk/core/yt/yt_dot1x.c ****     CMM_PARAM_CHK((!(YT_DISPATCH(unit)->is_inited)), CMM_ERR_NOT_INIT);
 282              		.loc 1 54 5 discriminator 5 view .LVU76
  54:../switch_sdk/core/yt/yt_dot1x.c ****     CMM_PARAM_CHK((!(YT_DISPATCH(unit)->is_inited)), CMM_ERR_NOT_INIT);
 283              		.loc 1 54 5 discriminator 5 view .LVU77
  54:../switch_sdk/core/yt/yt_dot1x.c ****     CMM_PARAM_CHK((!(YT_DISPATCH(unit)->is_inited)), CMM_ERR_NOT_INIT);
 284              		.loc 1 54 5 discriminator 5 view .LVU78
 285 005a 0420     		movs	r0, #4
 286 005c EAE7     		b	.L18
 287              	.LVL29:
 288              	.L37:
  54:../switch_sdk/core/yt/yt_dot1x.c ****     CMM_PARAM_CHK((!(YT_DISPATCH(unit)->is_inited)), CMM_ERR_NOT_INIT);
 289              		.loc 1 54 5 discriminator 3 view .LVU79
 290              	.LBB6:
  54:../switch_sdk/core/yt/yt_dot1x.c ****     CMM_PARAM_CHK((!(YT_DISPATCH(unit)->is_inited)), CMM_ERR_NOT_INIT);
 291              		.loc 1 54 5 discriminator 3 view .LVU80
 292 005e 1D4B     		ldr	r3, .L41+16
 293 0060 1A69     		ldr	r2, [r3, #16]
 294              	.LVL30:
  54:../switch_sdk/core/yt/yt_dot1x.c ****     CMM_PARAM_CHK((!(YT_DISPATCH(unit)->is_inited)), CMM_ERR_NOT_INIT);
 295              		.loc 1 54 5 is_stmt 0 discriminator 3 view .LVU81
 296 0062 1D4B     		ldr	r3, .L41+20
 297 0064 9968     		ldr	r1, [r3, #8]
 298              	.LVL31:
  54:../switch_sdk/core/yt/yt_dot1x.c ****     CMM_PARAM_CHK((!(YT_DISPATCH(unit)->is_inited)), CMM_ERR_NOT_INIT);
 299              		.loc 1 54 5 discriminator 3 view .LVU82
 300 0066 1D48     		ldr	r0, .L41+24
 301              	.LVL32:
  54:../switch_sdk/core/yt/yt_dot1x.c ****     CMM_PARAM_CHK((!(YT_DISPATCH(unit)->is_inited)), CMM_ERR_NOT_INIT);
 302              		.loc 1 54 5 discriminator 3 view .LVU83
 303 0068 FFF7FEFF 		bl	osal_printf
 304              	.LVL33:
 305 006c F5E7     		b	.L23
 306              	.LVL34:
 307              	.L34:
  54:../switch_sdk/core/yt/yt_dot1x.c ****     CMM_PARAM_CHK((!(YT_DISPATCH(unit)->is_inited)), CMM_ERR_NOT_INIT);
 308              		.loc 1 54 5 discriminator 3 view .LVU84
 309              	.LBE6:
  55:../switch_sdk/core/yt/yt_dot1x.c ****     CMM_PARAM_CHK((!(CMM_PORT_VALID(unit, port))), CMM_ERR_PORT);
 310              		.loc 1 55 5 is_stmt 1 discriminator 1 view .LVU85
  55:../switch_sdk/core/yt/yt_dot1x.c ****     CMM_PARAM_CHK((!(CMM_PORT_VALID(unit, port))), CMM_ERR_PORT);
 311              		.loc 1 55 5 discriminator 1 view .LVU86
 312 006e 184B     		ldr	r3, .L41+12
 313 0070 1B78     		ldrb	r3, [r3]	@ zero_extendqisi2
 314 0072 012B     		cmp	r3, #1
 315 0074 01D8     		bhi	.L38
 316              	.LVL35:
 317              	.L25:
  55:../switch_sdk/core/yt/yt_dot1x.c ****     CMM_PARAM_CHK((!(CMM_PORT_VALID(unit, port))), CMM_ERR_PORT);
 318              		.loc 1 55 5 discriminator 5 view .LVU87
  55:../switch_sdk/core/yt/yt_dot1x.c ****     CMM_PARAM_CHK((!(CMM_PORT_VALID(unit, port))), CMM_ERR_PORT);
 319              		.loc 1 55 5 discriminator 5 view .LVU88
  55:../switch_sdk/core/yt/yt_dot1x.c ****     CMM_PARAM_CHK((!(CMM_PORT_VALID(unit, port))), CMM_ERR_PORT);
 320              		.loc 1 55 5 discriminator 5 view .LVU89
 321 0076 0420     		movs	r0, #4
 322 0078 DCE7     		b	.L18
 323              	.LVL36:
 324              	.L38:
  55:../switch_sdk/core/yt/yt_dot1x.c ****     CMM_PARAM_CHK((!(CMM_PORT_VALID(unit, port))), CMM_ERR_PORT);
 325              		.loc 1 55 5 discriminator 3 view .LVU90
 326              	.LBB7:
  55:../switch_sdk/core/yt/yt_dot1x.c ****     CMM_PARAM_CHK((!(CMM_PORT_VALID(unit, port))), CMM_ERR_PORT);
 327              		.loc 1 55 5 discriminator 3 view .LVU91
 328 007a 164B     		ldr	r3, .L41+16
 329 007c 1A69     		ldr	r2, [r3, #16]
 330              	.LVL37:
  55:../switch_sdk/core/yt/yt_dot1x.c ****     CMM_PARAM_CHK((!(CMM_PORT_VALID(unit, port))), CMM_ERR_PORT);
 331              		.loc 1 55 5 is_stmt 0 discriminator 3 view .LVU92
 332 007e 164B     		ldr	r3, .L41+20
 333 0080 9968     		ldr	r1, [r3, #8]
 334              	.LVL38:
  55:../switch_sdk/core/yt/yt_dot1x.c ****     CMM_PARAM_CHK((!(CMM_PORT_VALID(unit, port))), CMM_ERR_PORT);
 335              		.loc 1 55 5 discriminator 3 view .LVU93
 336 0082 1648     		ldr	r0, .L41+24
 337 0084 FFF7FEFF 		bl	osal_printf
 338              	.LVL39:
 339 0088 F5E7     		b	.L25
 340              	.LVL40:
 341              	.L26:
  55:../switch_sdk/core/yt/yt_dot1x.c ****     CMM_PARAM_CHK((!(CMM_PORT_VALID(unit, port))), CMM_ERR_PORT);
 342              		.loc 1 55 5 discriminator 3 view .LVU94
 343              	.LBE7:
  56:../switch_sdk/core/yt/yt_dot1x.c ****     CMM_PARAM_CHK((YT_ENABLE < enable || YT_DISABLE > enable), CMM_ERR_INPUT);
 344              		.loc 1 56 5 is_stmt 1 discriminator 3 view .LVU95
  56:../switch_sdk/core/yt/yt_dot1x.c ****     CMM_PARAM_CHK((YT_ENABLE < enable || YT_DISABLE > enable), CMM_ERR_INPUT);
 345              		.loc 1 56 5 discriminator 3 view .LVU96
 346 008a 114B     		ldr	r3, .L41+12
 347 008c 1B78     		ldrb	r3, [r3]	@ zero_extendqisi2
 348 008e 012B     		cmp	r3, #1
 349 0090 01D8     		bhi	.L39
 350              	.LVL41:
 351              	.L28:
  56:../switch_sdk/core/yt/yt_dot1x.c ****     CMM_PARAM_CHK((YT_ENABLE < enable || YT_DISABLE > enable), CMM_ERR_INPUT);
 352              		.loc 1 56 5 discriminator 7 view .LVU97
  56:../switch_sdk/core/yt/yt_dot1x.c ****     CMM_PARAM_CHK((YT_ENABLE < enable || YT_DISABLE > enable), CMM_ERR_INPUT);
 353              		.loc 1 56 5 discriminator 7 view .LVU98
  56:../switch_sdk/core/yt/yt_dot1x.c ****     CMM_PARAM_CHK((YT_ENABLE < enable || YT_DISABLE > enable), CMM_ERR_INPUT);
 354              		.loc 1 56 5 discriminator 7 view .LVU99
 355 0092 0E20     		movs	r0, #14
 356 0094 CEE7     		b	.L18
 357              	.LVL42:
 358              	.L39:
  56:../switch_sdk/core/yt/yt_dot1x.c ****     CMM_PARAM_CHK((YT_ENABLE < enable || YT_DISABLE > enable), CMM_ERR_INPUT);
 359              		.loc 1 56 5 discriminator 5 view .LVU100
 360              	.LBB8:
  56:../switch_sdk/core/yt/yt_dot1x.c ****     CMM_PARAM_CHK((YT_ENABLE < enable || YT_DISABLE > enable), CMM_ERR_INPUT);
 361              		.loc 1 56 5 discriminator 5 view .LVU101
 362 0096 0F4B     		ldr	r3, .L41+16
 363 0098 9A6B     		ldr	r2, [r3, #56]
 364              	.LVL43:
  56:../switch_sdk/core/yt/yt_dot1x.c ****     CMM_PARAM_CHK((YT_ENABLE < enable || YT_DISABLE > enable), CMM_ERR_INPUT);
 365              		.loc 1 56 5 is_stmt 0 discriminator 5 view .LVU102
 366 009a 0F4B     		ldr	r3, .L41+20
 367 009c 9968     		ldr	r1, [r3, #8]
 368              	.LVL44:
  56:../switch_sdk/core/yt/yt_dot1x.c ****     CMM_PARAM_CHK((YT_ENABLE < enable || YT_DISABLE > enable), CMM_ERR_INPUT);
 369              		.loc 1 56 5 discriminator 5 view .LVU103
 370 009e 0F48     		ldr	r0, .L41+24
 371 00a0 FFF7FEFF 		bl	osal_printf
 372              	.LVL45:
 373 00a4 F5E7     		b	.L28
 374              	.LVL46:
 375              	.L35:
  56:../switch_sdk/core/yt/yt_dot1x.c ****     CMM_PARAM_CHK((YT_ENABLE < enable || YT_DISABLE > enable), CMM_ERR_INPUT);
 376              		.loc 1 56 5 discriminator 5 view .LVU104
 377              	.LBE8:
  57:../switch_sdk/core/yt/yt_dot1x.c **** 
 378              		.loc 1 57 5 is_stmt 1 discriminator 1 view .LVU105
  57:../switch_sdk/core/yt/yt_dot1x.c **** 
 379              		.loc 1 57 5 discriminator 1 view .LVU106
 380 00a6 0A4B     		ldr	r3, .L41+12
 381 00a8 1B78     		ldrb	r3, [r3]	@ zero_extendqisi2
 382 00aa 012B     		cmp	r3, #1
 383 00ac 01D8     		bhi	.L40
 384              	.LVL47:
 385              	.L30:
  57:../switch_sdk/core/yt/yt_dot1x.c **** 
 386              		.loc 1 57 5 discriminator 5 view .LVU107
  57:../switch_sdk/core/yt/yt_dot1x.c **** 
 387              		.loc 1 57 5 discriminator 5 view .LVU108
  57:../switch_sdk/core/yt/yt_dot1x.c **** 
 388              		.loc 1 57 5 discriminator 5 view .LVU109
 389 00ae 0520     		movs	r0, #5
 390 00b0 C0E7     		b	.L18
 391              	.LVL48:
 392              	.L40:
  57:../switch_sdk/core/yt/yt_dot1x.c **** 
 393              		.loc 1 57 5 discriminator 3 view .LVU110
 394              	.LBB9:
  57:../switch_sdk/core/yt/yt_dot1x.c **** 
 395              		.loc 1 57 5 discriminator 3 view .LVU111
 396 00b2 084B     		ldr	r3, .L41+16
 397 00b4 5A69     		ldr	r2, [r3, #20]
 398              	.LVL49:
  57:../switch_sdk/core/yt/yt_dot1x.c **** 
 399              		.loc 1 57 5 is_stmt 0 discriminator 3 view .LVU112
 400 00b6 084B     		ldr	r3, .L41+20
 401 00b8 9968     		ldr	r1, [r3, #8]
 402              	.LVL50:
  57:../switch_sdk/core/yt/yt_dot1x.c **** 
 403              		.loc 1 57 5 discriminator 3 view .LVU113
 404 00ba 0848     		ldr	r0, .L41+24
 405 00bc FFF7FEFF 		bl	osal_printf
 406              	.LVL51:
 407 00c0 F5E7     		b	.L30
 408              	.L42:
 409 00c2 00BF     		.align	2
 410              	.L41:
 411 00c4 00000000 		.word	gpfal_dispatch
 412 00c8 00000000 		.word	gcal_inited
 413 00cc 00000000 		.word	gpSwitchUnit
 414 00d0 00000000 		.word	yt_debug_level
 415 00d4 00000000 		.word	_yt_errmsg
 416 00d8 00000000 		.word	_yt_prompt_msg
 417 00dc 00000000 		.word	.LC0
 418              	.LBE9:
 419              		.cfi_endproc
 420              	.LFE4:
 422              		.section	.text.yt_dot1x_portBasedEnable_get,"ax",%progbits
 423              		.align	1
 424              		.global	yt_dot1x_portBasedEnable_get
 425              		.syntax unified
 426              		.thumb
 427              		.thumb_func
 429              	yt_dot1x_portBasedEnable_get:
 430              	.LVL52:
 431              	.LFB5:
  61:../switch_sdk/core/yt/yt_dot1x.c **** 
  62:../switch_sdk/core/yt/yt_dot1x.c **** /**
  63:../switch_sdk/core/yt/yt_dot1x.c ****  * @internal      yt_dot1x_portBasedEnable_get
  64:../switch_sdk/core/yt/yt_dot1x.c ****  * @endinternal
  65:../switch_sdk/core/yt/yt_dot1x.c ****  *
  66:../switch_sdk/core/yt/yt_dot1x.c ****  * @brief         Description
  67:../switch_sdk/core/yt/yt_dot1x.c ****  * @note          APPLICABLE DEVICES  -Tiger
  68:../switch_sdk/core/yt/yt_dot1x.c ****  * @param[in]     unit                -unit id
  69:../switch_sdk/core/yt/yt_dot1x.c ****  * @param[in]     port                -port num
  70:../switch_sdk/core/yt/yt_dot1x.c ****  * @param[out]    pEnable             -enable or disable
  71:../switch_sdk/core/yt/yt_dot1x.c ****  * @retval        CMM_ERR_OK          -on success
  72:../switch_sdk/core/yt/yt_dot1x.c ****  * @retval        CMM_ERR_FAIL        -on fail
  73:../switch_sdk/core/yt/yt_dot1x.c ****  */
  74:../switch_sdk/core/yt/yt_dot1x.c **** yt_ret_t yt_dot1x_portBasedEnable_get(yt_unit_t unit, yt_port_t port, yt_enable_t *pEnable)
  75:../switch_sdk/core/yt/yt_dot1x.c **** {
 432              		.loc 1 75 1 is_stmt 1 view -0
 433              		.cfi_startproc
 434              		@ args = 0, pretend = 0, frame = 0
 435              		@ frame_needed = 0, uses_anonymous_args = 0
 436              		.loc 1 75 1 is_stmt 0 view .LVU115
 437 0000 08B5     		push	{r3, lr}
 438              		.cfi_def_cfa_offset 8
 439              		.cfi_offset 3, -8
 440              		.cfi_offset 14, -4
  76:../switch_sdk/core/yt/yt_dot1x.c ****     CMM_PARAM_CHK((YT_UNIT_NUM <= unit), CMM_ERR_INPUT);
 441              		.loc 1 76 5 is_stmt 1 view .LVU116
 442              		.loc 1 76 5 view .LVU117
 443 0002 C0B9     		cbnz	r0, .L57
 444 0004 8446     		mov	ip, r0
 445              		.loc 1 76 5 discriminator 2 view .LVU118
  77:../switch_sdk/core/yt/yt_dot1x.c ****     CMM_PARAM_CHK(NULL == YT_DISPATCH(unit), CMM_ERR_NOT_INIT);
 446              		.loc 1 77 5 discriminator 2 view .LVU119
 447              		.loc 1 77 5 discriminator 2 view .LVU120
 448 0006 2F4B     		ldr	r3, .L66
 449 0008 53F82030 		ldr	r3, [r3, r0, lsl #2]
 450 000c 0BB3     		cbz	r3, .L58
 451              		.loc 1 77 5 discriminator 2 view .LVU121
  78:../switch_sdk/core/yt/yt_dot1x.c ****     CMM_PARAM_CHK((!(YT_DISPATCH(unit)->is_inited)), CMM_ERR_NOT_INIT);
 452              		.loc 1 78 5 discriminator 2 view .LVU122
 453              		.loc 1 78 5 discriminator 2 view .LVU123
 454 000e 1878     		ldrb	r0, [r3]	@ zero_extendqisi2
 455              	.LVL53:
 456              		.loc 1 78 5 is_stmt 0 discriminator 2 view .LVU124
 457 0010 0028     		cmp	r0, #0
 458 0012 2CD0     		beq	.L59
 459              		.loc 1 78 5 is_stmt 1 discriminator 2 view .LVU125
  79:../switch_sdk/core/yt/yt_dot1x.c ****     CMM_PARAM_CHK((!(CMM_PORT_VALID(unit, port))), CMM_ERR_PORT);
 460              		.loc 1 79 5 discriminator 2 view .LVU126
 461              		.loc 1 79 5 discriminator 2 view .LVU127
 462 0014 2C48     		ldr	r0, .L66+4
 463 0016 0078     		ldrb	r0, [r0]	@ zero_extendqisi2
 464 0018 0028     		cmp	r0, #0
 465 001a 36D0     		beq	.L51
 466 001c 2B48     		ldr	r0, .L66+8
 467 001e 50F82C00 		ldr	r0, [r0, ip, lsl #2]
 468 0022 007D     		ldrb	r0, [r0, #20]	@ zero_extendqisi2
 469 0024 8842     		cmp	r0, r1
 470 0026 30D9     		bls	.L51
 471              		.loc 1 79 5 discriminator 4 view .LVU128
  80:../switch_sdk/core/yt/yt_dot1x.c ****     CMM_PARAM_CHK((NULL == pEnable), CMM_ERR_NULL_POINT);
 472              		.loc 1 80 5 discriminator 4 view .LVU129
 473              		.loc 1 80 5 discriminator 4 view .LVU130
 474 0028 002A     		cmp	r2, #0
 475 002a 3CD0     		beq	.L60
 476              		.loc 1 80 5 discriminator 2 view .LVU131
  81:../switch_sdk/core/yt/yt_dot1x.c **** 
  82:../switch_sdk/core/yt/yt_dot1x.c ****     return YT_DISPATCH(unit)->dot1x_portBasedEnable_get(unit, port, pEnable);
 477              		.loc 1 82 5 discriminator 2 view .LVU132
 478              		.loc 1 82 29 is_stmt 0 discriminator 2 view .LVU133
 479 002c D3F83031 		ldr	r3, [r3, #304]
 480              		.loc 1 82 12 discriminator 2 view .LVU134
 481 0030 6046     		mov	r0, ip
 482 0032 9847     		blx	r3
 483              	.LVL54:
 484              	.L43:
  83:../switch_sdk/core/yt/yt_dot1x.c **** }
 485              		.loc 1 83 1 view .LVU135
 486 0034 08BD     		pop	{r3, pc}
 487              	.LVL55:
 488              	.L57:
  76:../switch_sdk/core/yt/yt_dot1x.c ****     CMM_PARAM_CHK(NULL == YT_DISPATCH(unit), CMM_ERR_NOT_INIT);
 489              		.loc 1 76 5 is_stmt 1 discriminator 1 view .LVU136
  76:../switch_sdk/core/yt/yt_dot1x.c ****     CMM_PARAM_CHK(NULL == YT_DISPATCH(unit), CMM_ERR_NOT_INIT);
 490              		.loc 1 76 5 discriminator 1 view .LVU137
 491 0036 264B     		ldr	r3, .L66+12
 492 0038 1B78     		ldrb	r3, [r3]	@ zero_extendqisi2
 493 003a 012B     		cmp	r3, #1
 494 003c 01D8     		bhi	.L61
 495              	.LVL56:
 496              	.L45:
  76:../switch_sdk/core/yt/yt_dot1x.c ****     CMM_PARAM_CHK(NULL == YT_DISPATCH(unit), CMM_ERR_NOT_INIT);
 497              		.loc 1 76 5 discriminator 5 view .LVU138
  76:../switch_sdk/core/yt/yt_dot1x.c ****     CMM_PARAM_CHK(NULL == YT_DISPATCH(unit), CMM_ERR_NOT_INIT);
 498              		.loc 1 76 5 discriminator 5 view .LVU139
  76:../switch_sdk/core/yt/yt_dot1x.c ****     CMM_PARAM_CHK(NULL == YT_DISPATCH(unit), CMM_ERR_NOT_INIT);
 499              		.loc 1 76 5 discriminator 5 view .LVU140
 500 003e 0520     		movs	r0, #5
 501 0040 F8E7     		b	.L43
 502              	.LVL57:
 503              	.L61:
  76:../switch_sdk/core/yt/yt_dot1x.c ****     CMM_PARAM_CHK(NULL == YT_DISPATCH(unit), CMM_ERR_NOT_INIT);
 504              		.loc 1 76 5 discriminator 3 view .LVU141
 505              	.LBB10:
  76:../switch_sdk/core/yt/yt_dot1x.c ****     CMM_PARAM_CHK(NULL == YT_DISPATCH(unit), CMM_ERR_NOT_INIT);
 506              		.loc 1 76 5 discriminator 3 view .LVU142
 507 0042 244B     		ldr	r3, .L66+16
 508 0044 5A69     		ldr	r2, [r3, #20]
 509              	.LVL58:
  76:../switch_sdk/core/yt/yt_dot1x.c ****     CMM_PARAM_CHK(NULL == YT_DISPATCH(unit), CMM_ERR_NOT_INIT);
 510              		.loc 1 76 5 is_stmt 0 discriminator 3 view .LVU143
 511 0046 244B     		ldr	r3, .L66+20
 512 0048 9968     		ldr	r1, [r3, #8]
 513              	.LVL59:
  76:../switch_sdk/core/yt/yt_dot1x.c ****     CMM_PARAM_CHK(NULL == YT_DISPATCH(unit), CMM_ERR_NOT_INIT);
 514              		.loc 1 76 5 discriminator 3 view .LVU144
 515 004a 2448     		ldr	r0, .L66+24
 516              	.LVL60:
  76:../switch_sdk/core/yt/yt_dot1x.c ****     CMM_PARAM_CHK(NULL == YT_DISPATCH(unit), CMM_ERR_NOT_INIT);
 517              		.loc 1 76 5 discriminator 3 view .LVU145
 518 004c FFF7FEFF 		bl	osal_printf
 519              	.LVL61:
 520 0050 F5E7     		b	.L45
 521              	.LVL62:
 522              	.L58:
  76:../switch_sdk/core/yt/yt_dot1x.c ****     CMM_PARAM_CHK(NULL == YT_DISPATCH(unit), CMM_ERR_NOT_INIT);
 523              		.loc 1 76 5 discriminator 3 view .LVU146
 524              	.LBE10:
  77:../switch_sdk/core/yt/yt_dot1x.c ****     CMM_PARAM_CHK((!(YT_DISPATCH(unit)->is_inited)), CMM_ERR_NOT_INIT);
 525              		.loc 1 77 5 is_stmt 1 discriminator 1 view .LVU147
  77:../switch_sdk/core/yt/yt_dot1x.c ****     CMM_PARAM_CHK((!(YT_DISPATCH(unit)->is_inited)), CMM_ERR_NOT_INIT);
 526              		.loc 1 77 5 discriminator 1 view .LVU148
 527 0052 1F4B     		ldr	r3, .L66+12
 528 0054 1B78     		ldrb	r3, [r3]	@ zero_extendqisi2
 529 0056 012B     		cmp	r3, #1
 530 0058 01D8     		bhi	.L62
 531              	.LVL63:
 532              	.L48:
  77:../switch_sdk/core/yt/yt_dot1x.c ****     CMM_PARAM_CHK((!(YT_DISPATCH(unit)->is_inited)), CMM_ERR_NOT_INIT);
 533              		.loc 1 77 5 discriminator 5 view .LVU149
  77:../switch_sdk/core/yt/yt_dot1x.c ****     CMM_PARAM_CHK((!(YT_DISPATCH(unit)->is_inited)), CMM_ERR_NOT_INIT);
 534              		.loc 1 77 5 discriminator 5 view .LVU150
  77:../switch_sdk/core/yt/yt_dot1x.c ****     CMM_PARAM_CHK((!(YT_DISPATCH(unit)->is_inited)), CMM_ERR_NOT_INIT);
 535              		.loc 1 77 5 discriminator 5 view .LVU151
 536 005a 0420     		movs	r0, #4
 537 005c EAE7     		b	.L43
 538              	.LVL64:
 539              	.L62:
  77:../switch_sdk/core/yt/yt_dot1x.c ****     CMM_PARAM_CHK((!(YT_DISPATCH(unit)->is_inited)), CMM_ERR_NOT_INIT);
 540              		.loc 1 77 5 discriminator 3 view .LVU152
 541              	.LBB11:
  77:../switch_sdk/core/yt/yt_dot1x.c ****     CMM_PARAM_CHK((!(YT_DISPATCH(unit)->is_inited)), CMM_ERR_NOT_INIT);
 542              		.loc 1 77 5 discriminator 3 view .LVU153
 543 005e 1D4B     		ldr	r3, .L66+16
 544 0060 1A69     		ldr	r2, [r3, #16]
 545              	.LVL65:
  77:../switch_sdk/core/yt/yt_dot1x.c ****     CMM_PARAM_CHK((!(YT_DISPATCH(unit)->is_inited)), CMM_ERR_NOT_INIT);
 546              		.loc 1 77 5 is_stmt 0 discriminator 3 view .LVU154
 547 0062 1D4B     		ldr	r3, .L66+20
 548 0064 9968     		ldr	r1, [r3, #8]
 549              	.LVL66:
  77:../switch_sdk/core/yt/yt_dot1x.c ****     CMM_PARAM_CHK((!(YT_DISPATCH(unit)->is_inited)), CMM_ERR_NOT_INIT);
 550              		.loc 1 77 5 discriminator 3 view .LVU155
 551 0066 1D48     		ldr	r0, .L66+24
 552              	.LVL67:
  77:../switch_sdk/core/yt/yt_dot1x.c ****     CMM_PARAM_CHK((!(YT_DISPATCH(unit)->is_inited)), CMM_ERR_NOT_INIT);
 553              		.loc 1 77 5 discriminator 3 view .LVU156
 554 0068 FFF7FEFF 		bl	osal_printf
 555              	.LVL68:
 556 006c F5E7     		b	.L48
 557              	.LVL69:
 558              	.L59:
  77:../switch_sdk/core/yt/yt_dot1x.c ****     CMM_PARAM_CHK((!(YT_DISPATCH(unit)->is_inited)), CMM_ERR_NOT_INIT);
 559              		.loc 1 77 5 discriminator 3 view .LVU157
 560              	.LBE11:
  78:../switch_sdk/core/yt/yt_dot1x.c ****     CMM_PARAM_CHK((!(CMM_PORT_VALID(unit, port))), CMM_ERR_PORT);
 561              		.loc 1 78 5 is_stmt 1 discriminator 1 view .LVU158
  78:../switch_sdk/core/yt/yt_dot1x.c ****     CMM_PARAM_CHK((!(CMM_PORT_VALID(unit, port))), CMM_ERR_PORT);
 562              		.loc 1 78 5 discriminator 1 view .LVU159
 563 006e 184B     		ldr	r3, .L66+12
 564 0070 1B78     		ldrb	r3, [r3]	@ zero_extendqisi2
 565 0072 012B     		cmp	r3, #1
 566 0074 01D8     		bhi	.L63
 567              	.LVL70:
 568              	.L50:
  78:../switch_sdk/core/yt/yt_dot1x.c ****     CMM_PARAM_CHK((!(CMM_PORT_VALID(unit, port))), CMM_ERR_PORT);
 569              		.loc 1 78 5 discriminator 5 view .LVU160
  78:../switch_sdk/core/yt/yt_dot1x.c ****     CMM_PARAM_CHK((!(CMM_PORT_VALID(unit, port))), CMM_ERR_PORT);
 570              		.loc 1 78 5 discriminator 5 view .LVU161
  78:../switch_sdk/core/yt/yt_dot1x.c ****     CMM_PARAM_CHK((!(CMM_PORT_VALID(unit, port))), CMM_ERR_PORT);
 571              		.loc 1 78 5 discriminator 5 view .LVU162
 572 0076 0420     		movs	r0, #4
 573 0078 DCE7     		b	.L43
 574              	.LVL71:
 575              	.L63:
  78:../switch_sdk/core/yt/yt_dot1x.c ****     CMM_PARAM_CHK((!(CMM_PORT_VALID(unit, port))), CMM_ERR_PORT);
 576              		.loc 1 78 5 discriminator 3 view .LVU163
 577              	.LBB12:
  78:../switch_sdk/core/yt/yt_dot1x.c ****     CMM_PARAM_CHK((!(CMM_PORT_VALID(unit, port))), CMM_ERR_PORT);
 578              		.loc 1 78 5 discriminator 3 view .LVU164
 579 007a 164B     		ldr	r3, .L66+16
 580 007c 1A69     		ldr	r2, [r3, #16]
 581              	.LVL72:
  78:../switch_sdk/core/yt/yt_dot1x.c ****     CMM_PARAM_CHK((!(CMM_PORT_VALID(unit, port))), CMM_ERR_PORT);
 582              		.loc 1 78 5 is_stmt 0 discriminator 3 view .LVU165
 583 007e 164B     		ldr	r3, .L66+20
 584 0080 9968     		ldr	r1, [r3, #8]
 585              	.LVL73:
  78:../switch_sdk/core/yt/yt_dot1x.c ****     CMM_PARAM_CHK((!(CMM_PORT_VALID(unit, port))), CMM_ERR_PORT);
 586              		.loc 1 78 5 discriminator 3 view .LVU166
 587 0082 1648     		ldr	r0, .L66+24
 588 0084 FFF7FEFF 		bl	osal_printf
 589              	.LVL74:
 590 0088 F5E7     		b	.L50
 591              	.LVL75:
 592              	.L51:
  78:../switch_sdk/core/yt/yt_dot1x.c ****     CMM_PARAM_CHK((!(CMM_PORT_VALID(unit, port))), CMM_ERR_PORT);
 593              		.loc 1 78 5 discriminator 3 view .LVU167
 594              	.LBE12:
  79:../switch_sdk/core/yt/yt_dot1x.c ****     CMM_PARAM_CHK((NULL == pEnable), CMM_ERR_NULL_POINT);
 595              		.loc 1 79 5 is_stmt 1 discriminator 3 view .LVU168
  79:../switch_sdk/core/yt/yt_dot1x.c ****     CMM_PARAM_CHK((NULL == pEnable), CMM_ERR_NULL_POINT);
 596              		.loc 1 79 5 discriminator 3 view .LVU169
 597 008a 114B     		ldr	r3, .L66+12
 598 008c 1B78     		ldrb	r3, [r3]	@ zero_extendqisi2
 599 008e 012B     		cmp	r3, #1
 600 0090 01D8     		bhi	.L64
 601              	.LVL76:
 602              	.L53:
  79:../switch_sdk/core/yt/yt_dot1x.c ****     CMM_PARAM_CHK((NULL == pEnable), CMM_ERR_NULL_POINT);
 603              		.loc 1 79 5 discriminator 7 view .LVU170
  79:../switch_sdk/core/yt/yt_dot1x.c ****     CMM_PARAM_CHK((NULL == pEnable), CMM_ERR_NULL_POINT);
 604              		.loc 1 79 5 discriminator 7 view .LVU171
  79:../switch_sdk/core/yt/yt_dot1x.c ****     CMM_PARAM_CHK((NULL == pEnable), CMM_ERR_NULL_POINT);
 605              		.loc 1 79 5 discriminator 7 view .LVU172
 606 0092 0E20     		movs	r0, #14
 607 0094 CEE7     		b	.L43
 608              	.LVL77:
 609              	.L64:
  79:../switch_sdk/core/yt/yt_dot1x.c ****     CMM_PARAM_CHK((NULL == pEnable), CMM_ERR_NULL_POINT);
 610              		.loc 1 79 5 discriminator 5 view .LVU173
 611              	.LBB13:
  79:../switch_sdk/core/yt/yt_dot1x.c ****     CMM_PARAM_CHK((NULL == pEnable), CMM_ERR_NULL_POINT);
 612              		.loc 1 79 5 discriminator 5 view .LVU174
 613 0096 0F4B     		ldr	r3, .L66+16
 614 0098 9A6B     		ldr	r2, [r3, #56]
 615              	.LVL78:
  79:../switch_sdk/core/yt/yt_dot1x.c ****     CMM_PARAM_CHK((NULL == pEnable), CMM_ERR_NULL_POINT);
 616              		.loc 1 79 5 is_stmt 0 discriminator 5 view .LVU175
 617 009a 0F4B     		ldr	r3, .L66+20
 618 009c 9968     		ldr	r1, [r3, #8]
 619              	.LVL79:
  79:../switch_sdk/core/yt/yt_dot1x.c ****     CMM_PARAM_CHK((NULL == pEnable), CMM_ERR_NULL_POINT);
 620              		.loc 1 79 5 discriminator 5 view .LVU176
 621 009e 0F48     		ldr	r0, .L66+24
 622 00a0 FFF7FEFF 		bl	osal_printf
 623              	.LVL80:
 624 00a4 F5E7     		b	.L53
 625              	.LVL81:
 626              	.L60:
  79:../switch_sdk/core/yt/yt_dot1x.c ****     CMM_PARAM_CHK((NULL == pEnable), CMM_ERR_NULL_POINT);
 627              		.loc 1 79 5 discriminator 5 view .LVU177
 628              	.LBE13:
  80:../switch_sdk/core/yt/yt_dot1x.c **** 
 629              		.loc 1 80 5 is_stmt 1 discriminator 1 view .LVU178
  80:../switch_sdk/core/yt/yt_dot1x.c **** 
 630              		.loc 1 80 5 discriminator 1 view .LVU179
 631 00a6 0A4B     		ldr	r3, .L66+12
 632 00a8 1B78     		ldrb	r3, [r3]	@ zero_extendqisi2
 633 00aa 012B     		cmp	r3, #1
 634 00ac 01D8     		bhi	.L65
 635              	.LVL82:
 636              	.L55:
  80:../switch_sdk/core/yt/yt_dot1x.c **** 
 637              		.loc 1 80 5 discriminator 5 view .LVU180
  80:../switch_sdk/core/yt/yt_dot1x.c **** 
 638              		.loc 1 80 5 discriminator 5 view .LVU181
  80:../switch_sdk/core/yt/yt_dot1x.c **** 
 639              		.loc 1 80 5 discriminator 5 view .LVU182
 640 00ae 0220     		movs	r0, #2
 641 00b0 C0E7     		b	.L43
 642              	.LVL83:
 643              	.L65:
  80:../switch_sdk/core/yt/yt_dot1x.c **** 
 644              		.loc 1 80 5 discriminator 3 view .LVU183
 645              	.LBB14:
  80:../switch_sdk/core/yt/yt_dot1x.c **** 
 646              		.loc 1 80 5 discriminator 3 view .LVU184
 647 00b2 084B     		ldr	r3, .L66+16
 648 00b4 9A68     		ldr	r2, [r3, #8]
 649              	.LVL84:
  80:../switch_sdk/core/yt/yt_dot1x.c **** 
 650              		.loc 1 80 5 is_stmt 0 discriminator 3 view .LVU185
 651 00b6 084B     		ldr	r3, .L66+20
 652 00b8 9968     		ldr	r1, [r3, #8]
 653              	.LVL85:
  80:../switch_sdk/core/yt/yt_dot1x.c **** 
 654              		.loc 1 80 5 discriminator 3 view .LVU186
 655 00ba 0848     		ldr	r0, .L66+24
 656 00bc FFF7FEFF 		bl	osal_printf
 657              	.LVL86:
 658 00c0 F5E7     		b	.L55
 659              	.L67:
 660 00c2 00BF     		.align	2
 661              	.L66:
 662 00c4 00000000 		.word	gpfal_dispatch
 663 00c8 00000000 		.word	gcal_inited
 664 00cc 00000000 		.word	gpSwitchUnit
 665 00d0 00000000 		.word	yt_debug_level
 666 00d4 00000000 		.word	_yt_errmsg
 667 00d8 00000000 		.word	_yt_prompt_msg
 668 00dc 00000000 		.word	.LC0
 669              	.LBE14:
 670              		.cfi_endproc
 671              	.LFE5:
 673              		.section	.text.yt_dot1x_portBasedAuthStatus_set,"ax",%progbits
 674              		.align	1
 675              		.global	yt_dot1x_portBasedAuthStatus_set
 676              		.syntax unified
 677              		.thumb
 678              		.thumb_func
 680              	yt_dot1x_portBasedAuthStatus_set:
 681              	.LVL87:
 682              	.LFB6:
  84:../switch_sdk/core/yt/yt_dot1x.c **** 
  85:../switch_sdk/core/yt/yt_dot1x.c **** /**
  86:../switch_sdk/core/yt/yt_dot1x.c ****  * @internal      yt_dot1x_portBasedAuthStatus_set
  87:../switch_sdk/core/yt/yt_dot1x.c ****  * @endinternal
  88:../switch_sdk/core/yt/yt_dot1x.c ****  *
  89:../switch_sdk/core/yt/yt_dot1x.c ****  * @brief         Description
  90:../switch_sdk/core/yt/yt_dot1x.c ****  * @note          APPLICABLE DEVICES  -Tiger
  91:../switch_sdk/core/yt/yt_dot1x.c ****  * @param[in]     unit                -unit id
  92:../switch_sdk/core/yt/yt_dot1x.c ****  * @param[in]     port                -port num
  93:../switch_sdk/core/yt/yt_dot1x.c ****  * @param[in]     port_auth           -yt_dot1x.h
  94:../switch_sdk/core/yt/yt_dot1x.c ****  * @retval        CMM_ERR_OK          -on success
  95:../switch_sdk/core/yt/yt_dot1x.c ****  * @retval        CMM_ERR_FAIL        -on fail
  96:../switch_sdk/core/yt/yt_dot1x.c ****  */
  97:../switch_sdk/core/yt/yt_dot1x.c **** yt_ret_t yt_dot1x_portBasedAuthStatus_set(yt_unit_t unit, yt_port_t port, yt_dot1x_auth_status_t po
  98:../switch_sdk/core/yt/yt_dot1x.c **** {
 683              		.loc 1 98 1 is_stmt 1 view -0
 684              		.cfi_startproc
 685              		@ args = 0, pretend = 0, frame = 0
 686              		@ frame_needed = 0, uses_anonymous_args = 0
 687              		.loc 1 98 1 is_stmt 0 view .LVU188
 688 0000 08B5     		push	{r3, lr}
 689              		.cfi_def_cfa_offset 8
 690              		.cfi_offset 3, -8
 691              		.cfi_offset 14, -4
  99:../switch_sdk/core/yt/yt_dot1x.c ****     CMM_PARAM_CHK((YT_UNIT_NUM <= unit), CMM_ERR_INPUT);
 692              		.loc 1 99 5 is_stmt 1 view .LVU189
 693              		.loc 1 99 5 view .LVU190
 694 0002 C0B9     		cbnz	r0, .L82
 695 0004 8446     		mov	ip, r0
 696              		.loc 1 99 5 discriminator 2 view .LVU191
 100:../switch_sdk/core/yt/yt_dot1x.c ****     CMM_PARAM_CHK(NULL == YT_DISPATCH(unit), CMM_ERR_NOT_INIT);
 697              		.loc 1 100 5 discriminator 2 view .LVU192
 698              		.loc 1 100 5 discriminator 2 view .LVU193
 699 0006 2F4B     		ldr	r3, .L91
 700 0008 53F82030 		ldr	r3, [r3, r0, lsl #2]
 701 000c 0BB3     		cbz	r3, .L83
 702              		.loc 1 100 5 discriminator 2 view .LVU194
 101:../switch_sdk/core/yt/yt_dot1x.c ****     CMM_PARAM_CHK((!(YT_DISPATCH(unit)->is_inited)), CMM_ERR_NOT_INIT);
 703              		.loc 1 101 5 discriminator 2 view .LVU195
 704              		.loc 1 101 5 discriminator 2 view .LVU196
 705 000e 1878     		ldrb	r0, [r3]	@ zero_extendqisi2
 706              	.LVL88:
 707              		.loc 1 101 5 is_stmt 0 discriminator 2 view .LVU197
 708 0010 0028     		cmp	r0, #0
 709 0012 2CD0     		beq	.L84
 710              		.loc 1 101 5 is_stmt 1 discriminator 2 view .LVU198
 102:../switch_sdk/core/yt/yt_dot1x.c ****     CMM_PARAM_CHK((!(CMM_PORT_VALID(unit, port))), CMM_ERR_PORT);
 711              		.loc 1 102 5 discriminator 2 view .LVU199
 712              		.loc 1 102 5 discriminator 2 view .LVU200
 713 0014 2C48     		ldr	r0, .L91+4
 714 0016 0078     		ldrb	r0, [r0]	@ zero_extendqisi2
 715 0018 0028     		cmp	r0, #0
 716 001a 36D0     		beq	.L76
 717 001c 2B48     		ldr	r0, .L91+8
 718 001e 50F82C00 		ldr	r0, [r0, ip, lsl #2]
 719 0022 007D     		ldrb	r0, [r0, #20]	@ zero_extendqisi2
 720 0024 8842     		cmp	r0, r1
 721 0026 30D9     		bls	.L76
 722              		.loc 1 102 5 discriminator 4 view .LVU201
 103:../switch_sdk/core/yt/yt_dot1x.c ****     CMM_PARAM_CHK((AUTH_STATUS_END <= port_auth), CMM_ERR_INPUT);
 723              		.loc 1 103 5 discriminator 4 view .LVU202
 724              		.loc 1 103 5 discriminator 4 view .LVU203
 725 0028 012A     		cmp	r2, #1
 726 002a 3CD8     		bhi	.L85
 727              		.loc 1 103 5 discriminator 2 view .LVU204
 104:../switch_sdk/core/yt/yt_dot1x.c **** 
 105:../switch_sdk/core/yt/yt_dot1x.c ****     return YT_DISPATCH(unit)->dot1x_portBasedAuthStatus_set(unit, port, port_auth);
 728              		.loc 1 105 5 discriminator 2 view .LVU205
 729              		.loc 1 105 29 is_stmt 0 discriminator 2 view .LVU206
 730 002c D3F83431 		ldr	r3, [r3, #308]
 731              		.loc 1 105 12 discriminator 2 view .LVU207
 732 0030 6046     		mov	r0, ip
 733 0032 9847     		blx	r3
 734              	.LVL89:
 735              	.L68:
 106:../switch_sdk/core/yt/yt_dot1x.c **** }
 736              		.loc 1 106 1 view .LVU208
 737 0034 08BD     		pop	{r3, pc}
 738              	.LVL90:
 739              	.L82:
  99:../switch_sdk/core/yt/yt_dot1x.c ****     CMM_PARAM_CHK(NULL == YT_DISPATCH(unit), CMM_ERR_NOT_INIT);
 740              		.loc 1 99 5 is_stmt 1 discriminator 1 view .LVU209
  99:../switch_sdk/core/yt/yt_dot1x.c ****     CMM_PARAM_CHK(NULL == YT_DISPATCH(unit), CMM_ERR_NOT_INIT);
 741              		.loc 1 99 5 discriminator 1 view .LVU210
 742 0036 264B     		ldr	r3, .L91+12
 743 0038 1B78     		ldrb	r3, [r3]	@ zero_extendqisi2
 744 003a 012B     		cmp	r3, #1
 745 003c 01D8     		bhi	.L86
 746              	.LVL91:
 747              	.L70:
  99:../switch_sdk/core/yt/yt_dot1x.c ****     CMM_PARAM_CHK(NULL == YT_DISPATCH(unit), CMM_ERR_NOT_INIT);
 748              		.loc 1 99 5 discriminator 5 view .LVU211
  99:../switch_sdk/core/yt/yt_dot1x.c ****     CMM_PARAM_CHK(NULL == YT_DISPATCH(unit), CMM_ERR_NOT_INIT);
 749              		.loc 1 99 5 discriminator 5 view .LVU212
  99:../switch_sdk/core/yt/yt_dot1x.c ****     CMM_PARAM_CHK(NULL == YT_DISPATCH(unit), CMM_ERR_NOT_INIT);
 750              		.loc 1 99 5 discriminator 5 view .LVU213
 751 003e 0520     		movs	r0, #5
 752 0040 F8E7     		b	.L68
 753              	.LVL92:
 754              	.L86:
  99:../switch_sdk/core/yt/yt_dot1x.c ****     CMM_PARAM_CHK(NULL == YT_DISPATCH(unit), CMM_ERR_NOT_INIT);
 755              		.loc 1 99 5 discriminator 3 view .LVU214
 756              	.LBB15:
  99:../switch_sdk/core/yt/yt_dot1x.c ****     CMM_PARAM_CHK(NULL == YT_DISPATCH(unit), CMM_ERR_NOT_INIT);
 757              		.loc 1 99 5 discriminator 3 view .LVU215
 758 0042 244B     		ldr	r3, .L91+16
 759 0044 5A69     		ldr	r2, [r3, #20]
 760              	.LVL93:
  99:../switch_sdk/core/yt/yt_dot1x.c ****     CMM_PARAM_CHK(NULL == YT_DISPATCH(unit), CMM_ERR_NOT_INIT);
 761              		.loc 1 99 5 is_stmt 0 discriminator 3 view .LVU216
 762 0046 244B     		ldr	r3, .L91+20
 763 0048 9968     		ldr	r1, [r3, #8]
 764              	.LVL94:
  99:../switch_sdk/core/yt/yt_dot1x.c ****     CMM_PARAM_CHK(NULL == YT_DISPATCH(unit), CMM_ERR_NOT_INIT);
 765              		.loc 1 99 5 discriminator 3 view .LVU217
 766 004a 2448     		ldr	r0, .L91+24
 767              	.LVL95:
  99:../switch_sdk/core/yt/yt_dot1x.c ****     CMM_PARAM_CHK(NULL == YT_DISPATCH(unit), CMM_ERR_NOT_INIT);
 768              		.loc 1 99 5 discriminator 3 view .LVU218
 769 004c FFF7FEFF 		bl	osal_printf
 770              	.LVL96:
 771 0050 F5E7     		b	.L70
 772              	.LVL97:
 773              	.L83:
  99:../switch_sdk/core/yt/yt_dot1x.c ****     CMM_PARAM_CHK(NULL == YT_DISPATCH(unit), CMM_ERR_NOT_INIT);
 774              		.loc 1 99 5 discriminator 3 view .LVU219
 775              	.LBE15:
 100:../switch_sdk/core/yt/yt_dot1x.c ****     CMM_PARAM_CHK((!(YT_DISPATCH(unit)->is_inited)), CMM_ERR_NOT_INIT);
 776              		.loc 1 100 5 is_stmt 1 discriminator 1 view .LVU220
 100:../switch_sdk/core/yt/yt_dot1x.c ****     CMM_PARAM_CHK((!(YT_DISPATCH(unit)->is_inited)), CMM_ERR_NOT_INIT);
 777              		.loc 1 100 5 discriminator 1 view .LVU221
 778 0052 1F4B     		ldr	r3, .L91+12
 779 0054 1B78     		ldrb	r3, [r3]	@ zero_extendqisi2
 780 0056 012B     		cmp	r3, #1
 781 0058 01D8     		bhi	.L87
 782              	.LVL98:
 783              	.L73:
 100:../switch_sdk/core/yt/yt_dot1x.c ****     CMM_PARAM_CHK((!(YT_DISPATCH(unit)->is_inited)), CMM_ERR_NOT_INIT);
 784              		.loc 1 100 5 discriminator 5 view .LVU222
 100:../switch_sdk/core/yt/yt_dot1x.c ****     CMM_PARAM_CHK((!(YT_DISPATCH(unit)->is_inited)), CMM_ERR_NOT_INIT);
 785              		.loc 1 100 5 discriminator 5 view .LVU223
 100:../switch_sdk/core/yt/yt_dot1x.c ****     CMM_PARAM_CHK((!(YT_DISPATCH(unit)->is_inited)), CMM_ERR_NOT_INIT);
 786              		.loc 1 100 5 discriminator 5 view .LVU224
 787 005a 0420     		movs	r0, #4
 788 005c EAE7     		b	.L68
 789              	.LVL99:
 790              	.L87:
 100:../switch_sdk/core/yt/yt_dot1x.c ****     CMM_PARAM_CHK((!(YT_DISPATCH(unit)->is_inited)), CMM_ERR_NOT_INIT);
 791              		.loc 1 100 5 discriminator 3 view .LVU225
 792              	.LBB16:
 100:../switch_sdk/core/yt/yt_dot1x.c ****     CMM_PARAM_CHK((!(YT_DISPATCH(unit)->is_inited)), CMM_ERR_NOT_INIT);
 793              		.loc 1 100 5 discriminator 3 view .LVU226
 794 005e 1D4B     		ldr	r3, .L91+16
 795 0060 1A69     		ldr	r2, [r3, #16]
 796              	.LVL100:
 100:../switch_sdk/core/yt/yt_dot1x.c ****     CMM_PARAM_CHK((!(YT_DISPATCH(unit)->is_inited)), CMM_ERR_NOT_INIT);
 797              		.loc 1 100 5 is_stmt 0 discriminator 3 view .LVU227
 798 0062 1D4B     		ldr	r3, .L91+20
 799 0064 9968     		ldr	r1, [r3, #8]
 800              	.LVL101:
 100:../switch_sdk/core/yt/yt_dot1x.c ****     CMM_PARAM_CHK((!(YT_DISPATCH(unit)->is_inited)), CMM_ERR_NOT_INIT);
 801              		.loc 1 100 5 discriminator 3 view .LVU228
 802 0066 1D48     		ldr	r0, .L91+24
 803              	.LVL102:
 100:../switch_sdk/core/yt/yt_dot1x.c ****     CMM_PARAM_CHK((!(YT_DISPATCH(unit)->is_inited)), CMM_ERR_NOT_INIT);
 804              		.loc 1 100 5 discriminator 3 view .LVU229
 805 0068 FFF7FEFF 		bl	osal_printf
 806              	.LVL103:
 807 006c F5E7     		b	.L73
 808              	.LVL104:
 809              	.L84:
 100:../switch_sdk/core/yt/yt_dot1x.c ****     CMM_PARAM_CHK((!(YT_DISPATCH(unit)->is_inited)), CMM_ERR_NOT_INIT);
 810              		.loc 1 100 5 discriminator 3 view .LVU230
 811              	.LBE16:
 101:../switch_sdk/core/yt/yt_dot1x.c ****     CMM_PARAM_CHK((!(CMM_PORT_VALID(unit, port))), CMM_ERR_PORT);
 812              		.loc 1 101 5 is_stmt 1 discriminator 1 view .LVU231
 101:../switch_sdk/core/yt/yt_dot1x.c ****     CMM_PARAM_CHK((!(CMM_PORT_VALID(unit, port))), CMM_ERR_PORT);
 813              		.loc 1 101 5 discriminator 1 view .LVU232
 814 006e 184B     		ldr	r3, .L91+12
 815 0070 1B78     		ldrb	r3, [r3]	@ zero_extendqisi2
 816 0072 012B     		cmp	r3, #1
 817 0074 01D8     		bhi	.L88
 818              	.LVL105:
 819              	.L75:
 101:../switch_sdk/core/yt/yt_dot1x.c ****     CMM_PARAM_CHK((!(CMM_PORT_VALID(unit, port))), CMM_ERR_PORT);
 820              		.loc 1 101 5 discriminator 5 view .LVU233
 101:../switch_sdk/core/yt/yt_dot1x.c ****     CMM_PARAM_CHK((!(CMM_PORT_VALID(unit, port))), CMM_ERR_PORT);
 821              		.loc 1 101 5 discriminator 5 view .LVU234
 101:../switch_sdk/core/yt/yt_dot1x.c ****     CMM_PARAM_CHK((!(CMM_PORT_VALID(unit, port))), CMM_ERR_PORT);
 822              		.loc 1 101 5 discriminator 5 view .LVU235
 823 0076 0420     		movs	r0, #4
 824 0078 DCE7     		b	.L68
 825              	.LVL106:
 826              	.L88:
 101:../switch_sdk/core/yt/yt_dot1x.c ****     CMM_PARAM_CHK((!(CMM_PORT_VALID(unit, port))), CMM_ERR_PORT);
 827              		.loc 1 101 5 discriminator 3 view .LVU236
 828              	.LBB17:
 101:../switch_sdk/core/yt/yt_dot1x.c ****     CMM_PARAM_CHK((!(CMM_PORT_VALID(unit, port))), CMM_ERR_PORT);
 829              		.loc 1 101 5 discriminator 3 view .LVU237
 830 007a 164B     		ldr	r3, .L91+16
 831 007c 1A69     		ldr	r2, [r3, #16]
 832              	.LVL107:
 101:../switch_sdk/core/yt/yt_dot1x.c ****     CMM_PARAM_CHK((!(CMM_PORT_VALID(unit, port))), CMM_ERR_PORT);
 833              		.loc 1 101 5 is_stmt 0 discriminator 3 view .LVU238
 834 007e 164B     		ldr	r3, .L91+20
 835 0080 9968     		ldr	r1, [r3, #8]
 836              	.LVL108:
 101:../switch_sdk/core/yt/yt_dot1x.c ****     CMM_PARAM_CHK((!(CMM_PORT_VALID(unit, port))), CMM_ERR_PORT);
 837              		.loc 1 101 5 discriminator 3 view .LVU239
 838 0082 1648     		ldr	r0, .L91+24
 839 0084 FFF7FEFF 		bl	osal_printf
 840              	.LVL109:
 841 0088 F5E7     		b	.L75
 842              	.LVL110:
 843              	.L76:
 101:../switch_sdk/core/yt/yt_dot1x.c ****     CMM_PARAM_CHK((!(CMM_PORT_VALID(unit, port))), CMM_ERR_PORT);
 844              		.loc 1 101 5 discriminator 3 view .LVU240
 845              	.LBE17:
 102:../switch_sdk/core/yt/yt_dot1x.c ****     CMM_PARAM_CHK((AUTH_STATUS_END <= port_auth), CMM_ERR_INPUT);
 846              		.loc 1 102 5 is_stmt 1 discriminator 3 view .LVU241
 102:../switch_sdk/core/yt/yt_dot1x.c ****     CMM_PARAM_CHK((AUTH_STATUS_END <= port_auth), CMM_ERR_INPUT);
 847              		.loc 1 102 5 discriminator 3 view .LVU242
 848 008a 114B     		ldr	r3, .L91+12
 849 008c 1B78     		ldrb	r3, [r3]	@ zero_extendqisi2
 850 008e 012B     		cmp	r3, #1
 851 0090 01D8     		bhi	.L89
 852              	.LVL111:
 853              	.L78:
 102:../switch_sdk/core/yt/yt_dot1x.c ****     CMM_PARAM_CHK((AUTH_STATUS_END <= port_auth), CMM_ERR_INPUT);
 854              		.loc 1 102 5 discriminator 7 view .LVU243
 102:../switch_sdk/core/yt/yt_dot1x.c ****     CMM_PARAM_CHK((AUTH_STATUS_END <= port_auth), CMM_ERR_INPUT);
 855              		.loc 1 102 5 discriminator 7 view .LVU244
 102:../switch_sdk/core/yt/yt_dot1x.c ****     CMM_PARAM_CHK((AUTH_STATUS_END <= port_auth), CMM_ERR_INPUT);
 856              		.loc 1 102 5 discriminator 7 view .LVU245
 857 0092 0E20     		movs	r0, #14
 858 0094 CEE7     		b	.L68
 859              	.LVL112:
 860              	.L89:
 102:../switch_sdk/core/yt/yt_dot1x.c ****     CMM_PARAM_CHK((AUTH_STATUS_END <= port_auth), CMM_ERR_INPUT);
 861              		.loc 1 102 5 discriminator 5 view .LVU246
 862              	.LBB18:
 102:../switch_sdk/core/yt/yt_dot1x.c ****     CMM_PARAM_CHK((AUTH_STATUS_END <= port_auth), CMM_ERR_INPUT);
 863              		.loc 1 102 5 discriminator 5 view .LVU247
 864 0096 0F4B     		ldr	r3, .L91+16
 865 0098 9A6B     		ldr	r2, [r3, #56]
 866              	.LVL113:
 102:../switch_sdk/core/yt/yt_dot1x.c ****     CMM_PARAM_CHK((AUTH_STATUS_END <= port_auth), CMM_ERR_INPUT);
 867              		.loc 1 102 5 is_stmt 0 discriminator 5 view .LVU248
 868 009a 0F4B     		ldr	r3, .L91+20
 869 009c 9968     		ldr	r1, [r3, #8]
 870              	.LVL114:
 102:../switch_sdk/core/yt/yt_dot1x.c ****     CMM_PARAM_CHK((AUTH_STATUS_END <= port_auth), CMM_ERR_INPUT);
 871              		.loc 1 102 5 discriminator 5 view .LVU249
 872 009e 0F48     		ldr	r0, .L91+24
 873 00a0 FFF7FEFF 		bl	osal_printf
 874              	.LVL115:
 875 00a4 F5E7     		b	.L78
 876              	.LVL116:
 877              	.L85:
 102:../switch_sdk/core/yt/yt_dot1x.c ****     CMM_PARAM_CHK((AUTH_STATUS_END <= port_auth), CMM_ERR_INPUT);
 878              		.loc 1 102 5 discriminator 5 view .LVU250
 879              	.LBE18:
 103:../switch_sdk/core/yt/yt_dot1x.c **** 
 880              		.loc 1 103 5 is_stmt 1 discriminator 1 view .LVU251
 103:../switch_sdk/core/yt/yt_dot1x.c **** 
 881              		.loc 1 103 5 discriminator 1 view .LVU252
 882 00a6 0A4B     		ldr	r3, .L91+12
 883 00a8 1B78     		ldrb	r3, [r3]	@ zero_extendqisi2
 884 00aa 012B     		cmp	r3, #1
 885 00ac 01D8     		bhi	.L90
 886              	.LVL117:
 887              	.L80:
 103:../switch_sdk/core/yt/yt_dot1x.c **** 
 888              		.loc 1 103 5 discriminator 5 view .LVU253
 103:../switch_sdk/core/yt/yt_dot1x.c **** 
 889              		.loc 1 103 5 discriminator 5 view .LVU254
 103:../switch_sdk/core/yt/yt_dot1x.c **** 
 890              		.loc 1 103 5 discriminator 5 view .LVU255
 891 00ae 0520     		movs	r0, #5
 892 00b0 C0E7     		b	.L68
 893              	.LVL118:
 894              	.L90:
 103:../switch_sdk/core/yt/yt_dot1x.c **** 
 895              		.loc 1 103 5 discriminator 3 view .LVU256
 896              	.LBB19:
 103:../switch_sdk/core/yt/yt_dot1x.c **** 
 897              		.loc 1 103 5 discriminator 3 view .LVU257
 898 00b2 084B     		ldr	r3, .L91+16
 899 00b4 5A69     		ldr	r2, [r3, #20]
 900              	.LVL119:
 103:../switch_sdk/core/yt/yt_dot1x.c **** 
 901              		.loc 1 103 5 is_stmt 0 discriminator 3 view .LVU258
 902 00b6 084B     		ldr	r3, .L91+20
 903 00b8 9968     		ldr	r1, [r3, #8]
 904              	.LVL120:
 103:../switch_sdk/core/yt/yt_dot1x.c **** 
 905              		.loc 1 103 5 discriminator 3 view .LVU259
 906 00ba 0848     		ldr	r0, .L91+24
 907 00bc FFF7FEFF 		bl	osal_printf
 908              	.LVL121:
 909 00c0 F5E7     		b	.L80
 910              	.L92:
 911 00c2 00BF     		.align	2
 912              	.L91:
 913 00c4 00000000 		.word	gpfal_dispatch
 914 00c8 00000000 		.word	gcal_inited
 915 00cc 00000000 		.word	gpSwitchUnit
 916 00d0 00000000 		.word	yt_debug_level
 917 00d4 00000000 		.word	_yt_errmsg
 918 00d8 00000000 		.word	_yt_prompt_msg
 919 00dc 00000000 		.word	.LC0
 920              	.LBE19:
 921              		.cfi_endproc
 922              	.LFE6:
 924              		.section	.text.yt_dot1x_portBasedAuthStatus_get,"ax",%progbits
 925              		.align	1
 926              		.global	yt_dot1x_portBasedAuthStatus_get
 927              		.syntax unified
 928              		.thumb
 929              		.thumb_func
 931              	yt_dot1x_portBasedAuthStatus_get:
 932              	.LVL122:
 933              	.LFB7:
 107:../switch_sdk/core/yt/yt_dot1x.c **** 
 108:../switch_sdk/core/yt/yt_dot1x.c **** /**
 109:../switch_sdk/core/yt/yt_dot1x.c ****  * @internal      yt_dot1x_portBasedAuthStatus_get
 110:../switch_sdk/core/yt/yt_dot1x.c ****  * @endinternal
 111:../switch_sdk/core/yt/yt_dot1x.c ****  *
 112:../switch_sdk/core/yt/yt_dot1x.c ****  * @brief         Description
 113:../switch_sdk/core/yt/yt_dot1x.c ****  * @note          APPLICABLE DEVICES  -Tiger
 114:../switch_sdk/core/yt/yt_dot1x.c ****  * @param[in]     unit                -unit id
 115:../switch_sdk/core/yt/yt_dot1x.c ****  * @param[in]     port                -port num
 116:../switch_sdk/core/yt/yt_dot1x.c ****  * @param[out]    pPort_auth          -yt_dot1x.h
 117:../switch_sdk/core/yt/yt_dot1x.c ****  * @retval        CMM_ERR_OK          -on success
 118:../switch_sdk/core/yt/yt_dot1x.c ****  * @retval        CMM_ERR_FAIL        -on fail
 119:../switch_sdk/core/yt/yt_dot1x.c ****  */
 120:../switch_sdk/core/yt/yt_dot1x.c **** yt_ret_t yt_dot1x_portBasedAuthStatus_get(yt_unit_t unit, yt_port_t port, yt_dot1x_auth_status_t *p
 121:../switch_sdk/core/yt/yt_dot1x.c **** {
 934              		.loc 1 121 1 is_stmt 1 view -0
 935              		.cfi_startproc
 936              		@ args = 0, pretend = 0, frame = 0
 937              		@ frame_needed = 0, uses_anonymous_args = 0
 938              		.loc 1 121 1 is_stmt 0 view .LVU261
 939 0000 08B5     		push	{r3, lr}
 940              		.cfi_def_cfa_offset 8
 941              		.cfi_offset 3, -8
 942              		.cfi_offset 14, -4
 122:../switch_sdk/core/yt/yt_dot1x.c ****     CMM_PARAM_CHK((YT_UNIT_NUM <= unit), CMM_ERR_INPUT);
 943              		.loc 1 122 5 is_stmt 1 view .LVU262
 944              		.loc 1 122 5 view .LVU263
 945 0002 C0B9     		cbnz	r0, .L107
 946 0004 8446     		mov	ip, r0
 947              		.loc 1 122 5 discriminator 2 view .LVU264
 123:../switch_sdk/core/yt/yt_dot1x.c ****     CMM_PARAM_CHK(NULL == YT_DISPATCH(unit), CMM_ERR_NOT_INIT);
 948              		.loc 1 123 5 discriminator 2 view .LVU265
 949              		.loc 1 123 5 discriminator 2 view .LVU266
 950 0006 2F4B     		ldr	r3, .L116
 951 0008 53F82030 		ldr	r3, [r3, r0, lsl #2]
 952 000c 0BB3     		cbz	r3, .L108
 953              		.loc 1 123 5 discriminator 2 view .LVU267
 124:../switch_sdk/core/yt/yt_dot1x.c ****     CMM_PARAM_CHK((!(YT_DISPATCH(unit)->is_inited)), CMM_ERR_NOT_INIT);
 954              		.loc 1 124 5 discriminator 2 view .LVU268
 955              		.loc 1 124 5 discriminator 2 view .LVU269
 956 000e 1878     		ldrb	r0, [r3]	@ zero_extendqisi2
 957              	.LVL123:
 958              		.loc 1 124 5 is_stmt 0 discriminator 2 view .LVU270
 959 0010 0028     		cmp	r0, #0
 960 0012 2CD0     		beq	.L109
 961              		.loc 1 124 5 is_stmt 1 discriminator 2 view .LVU271
 125:../switch_sdk/core/yt/yt_dot1x.c ****     CMM_PARAM_CHK((!(CMM_PORT_VALID(unit, port))), CMM_ERR_PORT);
 962              		.loc 1 125 5 discriminator 2 view .LVU272
 963              		.loc 1 125 5 discriminator 2 view .LVU273
 964 0014 2C48     		ldr	r0, .L116+4
 965 0016 0078     		ldrb	r0, [r0]	@ zero_extendqisi2
 966 0018 0028     		cmp	r0, #0
 967 001a 36D0     		beq	.L101
 968 001c 2B48     		ldr	r0, .L116+8
 969 001e 50F82C00 		ldr	r0, [r0, ip, lsl #2]
 970 0022 007D     		ldrb	r0, [r0, #20]	@ zero_extendqisi2
 971 0024 8842     		cmp	r0, r1
 972 0026 30D9     		bls	.L101
 973              		.loc 1 125 5 discriminator 4 view .LVU274
 126:../switch_sdk/core/yt/yt_dot1x.c ****     CMM_PARAM_CHK((NULL == pPort_auth), CMM_ERR_NULL_POINT);
 974              		.loc 1 126 5 discriminator 4 view .LVU275
 975              		.loc 1 126 5 discriminator 4 view .LVU276
 976 0028 002A     		cmp	r2, #0
 977 002a 3CD0     		beq	.L110
 978              		.loc 1 126 5 discriminator 2 view .LVU277
 127:../switch_sdk/core/yt/yt_dot1x.c **** 
 128:../switch_sdk/core/yt/yt_dot1x.c ****     return YT_DISPATCH(unit)->dot1x_portBasedAuthStatus_get(unit, port, pPort_auth);
 979              		.loc 1 128 5 discriminator 2 view .LVU278
 980              		.loc 1 128 29 is_stmt 0 discriminator 2 view .LVU279
 981 002c D3F83831 		ldr	r3, [r3, #312]
 982              		.loc 1 128 12 discriminator 2 view .LVU280
 983 0030 6046     		mov	r0, ip
 984 0032 9847     		blx	r3
 985              	.LVL124:
 986              	.L93:
 129:../switch_sdk/core/yt/yt_dot1x.c **** }
 987              		.loc 1 129 1 view .LVU281
 988 0034 08BD     		pop	{r3, pc}
 989              	.LVL125:
 990              	.L107:
 122:../switch_sdk/core/yt/yt_dot1x.c ****     CMM_PARAM_CHK(NULL == YT_DISPATCH(unit), CMM_ERR_NOT_INIT);
 991              		.loc 1 122 5 is_stmt 1 discriminator 1 view .LVU282
 122:../switch_sdk/core/yt/yt_dot1x.c ****     CMM_PARAM_CHK(NULL == YT_DISPATCH(unit), CMM_ERR_NOT_INIT);
 992              		.loc 1 122 5 discriminator 1 view .LVU283
 993 0036 264B     		ldr	r3, .L116+12
 994 0038 1B78     		ldrb	r3, [r3]	@ zero_extendqisi2
 995 003a 012B     		cmp	r3, #1
 996 003c 01D8     		bhi	.L111
 997              	.LVL126:
 998              	.L95:
 122:../switch_sdk/core/yt/yt_dot1x.c ****     CMM_PARAM_CHK(NULL == YT_DISPATCH(unit), CMM_ERR_NOT_INIT);
 999              		.loc 1 122 5 discriminator 5 view .LVU284
 122:../switch_sdk/core/yt/yt_dot1x.c ****     CMM_PARAM_CHK(NULL == YT_DISPATCH(unit), CMM_ERR_NOT_INIT);
 1000              		.loc 1 122 5 discriminator 5 view .LVU285
 122:../switch_sdk/core/yt/yt_dot1x.c ****     CMM_PARAM_CHK(NULL == YT_DISPATCH(unit), CMM_ERR_NOT_INIT);
 1001              		.loc 1 122 5 discriminator 5 view .LVU286
 1002 003e 0520     		movs	r0, #5
 1003 0040 F8E7     		b	.L93
 1004              	.LVL127:
 1005              	.L111:
 122:../switch_sdk/core/yt/yt_dot1x.c ****     CMM_PARAM_CHK(NULL == YT_DISPATCH(unit), CMM_ERR_NOT_INIT);
 1006              		.loc 1 122 5 discriminator 3 view .LVU287
 1007              	.LBB20:
 122:../switch_sdk/core/yt/yt_dot1x.c ****     CMM_PARAM_CHK(NULL == YT_DISPATCH(unit), CMM_ERR_NOT_INIT);
 1008              		.loc 1 122 5 discriminator 3 view .LVU288
 1009 0042 244B     		ldr	r3, .L116+16
 1010 0044 5A69     		ldr	r2, [r3, #20]
 1011              	.LVL128:
 122:../switch_sdk/core/yt/yt_dot1x.c ****     CMM_PARAM_CHK(NULL == YT_DISPATCH(unit), CMM_ERR_NOT_INIT);
 1012              		.loc 1 122 5 is_stmt 0 discriminator 3 view .LVU289
 1013 0046 244B     		ldr	r3, .L116+20
 1014 0048 9968     		ldr	r1, [r3, #8]
 1015              	.LVL129:
 122:../switch_sdk/core/yt/yt_dot1x.c ****     CMM_PARAM_CHK(NULL == YT_DISPATCH(unit), CMM_ERR_NOT_INIT);
 1016              		.loc 1 122 5 discriminator 3 view .LVU290
 1017 004a 2448     		ldr	r0, .L116+24
 1018              	.LVL130:
 122:../switch_sdk/core/yt/yt_dot1x.c ****     CMM_PARAM_CHK(NULL == YT_DISPATCH(unit), CMM_ERR_NOT_INIT);
 1019              		.loc 1 122 5 discriminator 3 view .LVU291
 1020 004c FFF7FEFF 		bl	osal_printf
 1021              	.LVL131:
 1022 0050 F5E7     		b	.L95
 1023              	.LVL132:
 1024              	.L108:
 122:../switch_sdk/core/yt/yt_dot1x.c ****     CMM_PARAM_CHK(NULL == YT_DISPATCH(unit), CMM_ERR_NOT_INIT);
 1025              		.loc 1 122 5 discriminator 3 view .LVU292
 1026              	.LBE20:
 123:../switch_sdk/core/yt/yt_dot1x.c ****     CMM_PARAM_CHK((!(YT_DISPATCH(unit)->is_inited)), CMM_ERR_NOT_INIT);
 1027              		.loc 1 123 5 is_stmt 1 discriminator 1 view .LVU293
 123:../switch_sdk/core/yt/yt_dot1x.c ****     CMM_PARAM_CHK((!(YT_DISPATCH(unit)->is_inited)), CMM_ERR_NOT_INIT);
 1028              		.loc 1 123 5 discriminator 1 view .LVU294
 1029 0052 1F4B     		ldr	r3, .L116+12
 1030 0054 1B78     		ldrb	r3, [r3]	@ zero_extendqisi2
 1031 0056 012B     		cmp	r3, #1
 1032 0058 01D8     		bhi	.L112
 1033              	.LVL133:
 1034              	.L98:
 123:../switch_sdk/core/yt/yt_dot1x.c ****     CMM_PARAM_CHK((!(YT_DISPATCH(unit)->is_inited)), CMM_ERR_NOT_INIT);
 1035              		.loc 1 123 5 discriminator 5 view .LVU295
 123:../switch_sdk/core/yt/yt_dot1x.c ****     CMM_PARAM_CHK((!(YT_DISPATCH(unit)->is_inited)), CMM_ERR_NOT_INIT);
 1036              		.loc 1 123 5 discriminator 5 view .LVU296
 123:../switch_sdk/core/yt/yt_dot1x.c ****     CMM_PARAM_CHK((!(YT_DISPATCH(unit)->is_inited)), CMM_ERR_NOT_INIT);
 1037              		.loc 1 123 5 discriminator 5 view .LVU297
 1038 005a 0420     		movs	r0, #4
 1039 005c EAE7     		b	.L93
 1040              	.LVL134:
 1041              	.L112:
 123:../switch_sdk/core/yt/yt_dot1x.c ****     CMM_PARAM_CHK((!(YT_DISPATCH(unit)->is_inited)), CMM_ERR_NOT_INIT);
 1042              		.loc 1 123 5 discriminator 3 view .LVU298
 1043              	.LBB21:
 123:../switch_sdk/core/yt/yt_dot1x.c ****     CMM_PARAM_CHK((!(YT_DISPATCH(unit)->is_inited)), CMM_ERR_NOT_INIT);
 1044              		.loc 1 123 5 discriminator 3 view .LVU299
 1045 005e 1D4B     		ldr	r3, .L116+16
 1046 0060 1A69     		ldr	r2, [r3, #16]
 1047              	.LVL135:
 123:../switch_sdk/core/yt/yt_dot1x.c ****     CMM_PARAM_CHK((!(YT_DISPATCH(unit)->is_inited)), CMM_ERR_NOT_INIT);
 1048              		.loc 1 123 5 is_stmt 0 discriminator 3 view .LVU300
 1049 0062 1D4B     		ldr	r3, .L116+20
 1050 0064 9968     		ldr	r1, [r3, #8]
 1051              	.LVL136:
 123:../switch_sdk/core/yt/yt_dot1x.c ****     CMM_PARAM_CHK((!(YT_DISPATCH(unit)->is_inited)), CMM_ERR_NOT_INIT);
 1052              		.loc 1 123 5 discriminator 3 view .LVU301
 1053 0066 1D48     		ldr	r0, .L116+24
 1054              	.LVL137:
 123:../switch_sdk/core/yt/yt_dot1x.c ****     CMM_PARAM_CHK((!(YT_DISPATCH(unit)->is_inited)), CMM_ERR_NOT_INIT);
 1055              		.loc 1 123 5 discriminator 3 view .LVU302
 1056 0068 FFF7FEFF 		bl	osal_printf
 1057              	.LVL138:
 1058 006c F5E7     		b	.L98
 1059              	.LVL139:
 1060              	.L109:
 123:../switch_sdk/core/yt/yt_dot1x.c ****     CMM_PARAM_CHK((!(YT_DISPATCH(unit)->is_inited)), CMM_ERR_NOT_INIT);
 1061              		.loc 1 123 5 discriminator 3 view .LVU303
 1062              	.LBE21:
 124:../switch_sdk/core/yt/yt_dot1x.c ****     CMM_PARAM_CHK((!(CMM_PORT_VALID(unit, port))), CMM_ERR_PORT);
 1063              		.loc 1 124 5 is_stmt 1 discriminator 1 view .LVU304
 124:../switch_sdk/core/yt/yt_dot1x.c ****     CMM_PARAM_CHK((!(CMM_PORT_VALID(unit, port))), CMM_ERR_PORT);
 1064              		.loc 1 124 5 discriminator 1 view .LVU305
 1065 006e 184B     		ldr	r3, .L116+12
 1066 0070 1B78     		ldrb	r3, [r3]	@ zero_extendqisi2
 1067 0072 012B     		cmp	r3, #1
 1068 0074 01D8     		bhi	.L113
 1069              	.LVL140:
 1070              	.L100:
 124:../switch_sdk/core/yt/yt_dot1x.c ****     CMM_PARAM_CHK((!(CMM_PORT_VALID(unit, port))), CMM_ERR_PORT);
 1071              		.loc 1 124 5 discriminator 5 view .LVU306
 124:../switch_sdk/core/yt/yt_dot1x.c ****     CMM_PARAM_CHK((!(CMM_PORT_VALID(unit, port))), CMM_ERR_PORT);
 1072              		.loc 1 124 5 discriminator 5 view .LVU307
 124:../switch_sdk/core/yt/yt_dot1x.c ****     CMM_PARAM_CHK((!(CMM_PORT_VALID(unit, port))), CMM_ERR_PORT);
 1073              		.loc 1 124 5 discriminator 5 view .LVU308
 1074 0076 0420     		movs	r0, #4
 1075 0078 DCE7     		b	.L93
 1076              	.LVL141:
 1077              	.L113:
 124:../switch_sdk/core/yt/yt_dot1x.c ****     CMM_PARAM_CHK((!(CMM_PORT_VALID(unit, port))), CMM_ERR_PORT);
 1078              		.loc 1 124 5 discriminator 3 view .LVU309
 1079              	.LBB22:
 124:../switch_sdk/core/yt/yt_dot1x.c ****     CMM_PARAM_CHK((!(CMM_PORT_VALID(unit, port))), CMM_ERR_PORT);
 1080              		.loc 1 124 5 discriminator 3 view .LVU310
 1081 007a 164B     		ldr	r3, .L116+16
 1082 007c 1A69     		ldr	r2, [r3, #16]
 1083              	.LVL142:
 124:../switch_sdk/core/yt/yt_dot1x.c ****     CMM_PARAM_CHK((!(CMM_PORT_VALID(unit, port))), CMM_ERR_PORT);
 1084              		.loc 1 124 5 is_stmt 0 discriminator 3 view .LVU311
 1085 007e 164B     		ldr	r3, .L116+20
 1086 0080 9968     		ldr	r1, [r3, #8]
 1087              	.LVL143:
 124:../switch_sdk/core/yt/yt_dot1x.c ****     CMM_PARAM_CHK((!(CMM_PORT_VALID(unit, port))), CMM_ERR_PORT);
 1088              		.loc 1 124 5 discriminator 3 view .LVU312
 1089 0082 1648     		ldr	r0, .L116+24
 1090 0084 FFF7FEFF 		bl	osal_printf
 1091              	.LVL144:
 1092 0088 F5E7     		b	.L100
 1093              	.LVL145:
 1094              	.L101:
 124:../switch_sdk/core/yt/yt_dot1x.c ****     CMM_PARAM_CHK((!(CMM_PORT_VALID(unit, port))), CMM_ERR_PORT);
 1095              		.loc 1 124 5 discriminator 3 view .LVU313
 1096              	.LBE22:
 125:../switch_sdk/core/yt/yt_dot1x.c ****     CMM_PARAM_CHK((NULL == pPort_auth), CMM_ERR_NULL_POINT);
 1097              		.loc 1 125 5 is_stmt 1 discriminator 3 view .LVU314
 125:../switch_sdk/core/yt/yt_dot1x.c ****     CMM_PARAM_CHK((NULL == pPort_auth), CMM_ERR_NULL_POINT);
 1098              		.loc 1 125 5 discriminator 3 view .LVU315
 1099 008a 114B     		ldr	r3, .L116+12
 1100 008c 1B78     		ldrb	r3, [r3]	@ zero_extendqisi2
 1101 008e 012B     		cmp	r3, #1
 1102 0090 01D8     		bhi	.L114
 1103              	.LVL146:
 1104              	.L103:
 125:../switch_sdk/core/yt/yt_dot1x.c ****     CMM_PARAM_CHK((NULL == pPort_auth), CMM_ERR_NULL_POINT);
 1105              		.loc 1 125 5 discriminator 7 view .LVU316
 125:../switch_sdk/core/yt/yt_dot1x.c ****     CMM_PARAM_CHK((NULL == pPort_auth), CMM_ERR_NULL_POINT);
 1106              		.loc 1 125 5 discriminator 7 view .LVU317
 125:../switch_sdk/core/yt/yt_dot1x.c ****     CMM_PARAM_CHK((NULL == pPort_auth), CMM_ERR_NULL_POINT);
 1107              		.loc 1 125 5 discriminator 7 view .LVU318
 1108 0092 0E20     		movs	r0, #14
 1109 0094 CEE7     		b	.L93
 1110              	.LVL147:
 1111              	.L114:
 125:../switch_sdk/core/yt/yt_dot1x.c ****     CMM_PARAM_CHK((NULL == pPort_auth), CMM_ERR_NULL_POINT);
 1112              		.loc 1 125 5 discriminator 5 view .LVU319
 1113              	.LBB23:
 125:../switch_sdk/core/yt/yt_dot1x.c ****     CMM_PARAM_CHK((NULL == pPort_auth), CMM_ERR_NULL_POINT);
 1114              		.loc 1 125 5 discriminator 5 view .LVU320
 1115 0096 0F4B     		ldr	r3, .L116+16
 1116 0098 9A6B     		ldr	r2, [r3, #56]
 1117              	.LVL148:
 125:../switch_sdk/core/yt/yt_dot1x.c ****     CMM_PARAM_CHK((NULL == pPort_auth), CMM_ERR_NULL_POINT);
 1118              		.loc 1 125 5 is_stmt 0 discriminator 5 view .LVU321
 1119 009a 0F4B     		ldr	r3, .L116+20
 1120 009c 9968     		ldr	r1, [r3, #8]
 1121              	.LVL149:
 125:../switch_sdk/core/yt/yt_dot1x.c ****     CMM_PARAM_CHK((NULL == pPort_auth), CMM_ERR_NULL_POINT);
 1122              		.loc 1 125 5 discriminator 5 view .LVU322
 1123 009e 0F48     		ldr	r0, .L116+24
 1124 00a0 FFF7FEFF 		bl	osal_printf
 1125              	.LVL150:
 1126 00a4 F5E7     		b	.L103
 1127              	.LVL151:
 1128              	.L110:
 125:../switch_sdk/core/yt/yt_dot1x.c ****     CMM_PARAM_CHK((NULL == pPort_auth), CMM_ERR_NULL_POINT);
 1129              		.loc 1 125 5 discriminator 5 view .LVU323
 1130              	.LBE23:
 126:../switch_sdk/core/yt/yt_dot1x.c **** 
 1131              		.loc 1 126 5 is_stmt 1 discriminator 1 view .LVU324
 126:../switch_sdk/core/yt/yt_dot1x.c **** 
 1132              		.loc 1 126 5 discriminator 1 view .LVU325
 1133 00a6 0A4B     		ldr	r3, .L116+12
 1134 00a8 1B78     		ldrb	r3, [r3]	@ zero_extendqisi2
 1135 00aa 012B     		cmp	r3, #1
 1136 00ac 01D8     		bhi	.L115
 1137              	.LVL152:
 1138              	.L105:
 126:../switch_sdk/core/yt/yt_dot1x.c **** 
 1139              		.loc 1 126 5 discriminator 5 view .LVU326
 126:../switch_sdk/core/yt/yt_dot1x.c **** 
 1140              		.loc 1 126 5 discriminator 5 view .LVU327
 126:../switch_sdk/core/yt/yt_dot1x.c **** 
 1141              		.loc 1 126 5 discriminator 5 view .LVU328
 1142 00ae 0220     		movs	r0, #2
 1143 00b0 C0E7     		b	.L93
 1144              	.LVL153:
 1145              	.L115:
 126:../switch_sdk/core/yt/yt_dot1x.c **** 
 1146              		.loc 1 126 5 discriminator 3 view .LVU329
 1147              	.LBB24:
 126:../switch_sdk/core/yt/yt_dot1x.c **** 
 1148              		.loc 1 126 5 discriminator 3 view .LVU330
 1149 00b2 084B     		ldr	r3, .L116+16
 1150 00b4 9A68     		ldr	r2, [r3, #8]
 1151              	.LVL154:
 126:../switch_sdk/core/yt/yt_dot1x.c **** 
 1152              		.loc 1 126 5 is_stmt 0 discriminator 3 view .LVU331
 1153 00b6 084B     		ldr	r3, .L116+20
 1154 00b8 9968     		ldr	r1, [r3, #8]
 1155              	.LVL155:
 126:../switch_sdk/core/yt/yt_dot1x.c **** 
 1156              		.loc 1 126 5 discriminator 3 view .LVU332
 1157 00ba 0848     		ldr	r0, .L116+24
 1158 00bc FFF7FEFF 		bl	osal_printf
 1159              	.LVL156:
 1160 00c0 F5E7     		b	.L105
 1161              	.L117:
 1162 00c2 00BF     		.align	2
 1163              	.L116:
 1164 00c4 00000000 		.word	gpfal_dispatch
 1165 00c8 00000000 		.word	gcal_inited
 1166 00cc 00000000 		.word	gpSwitchUnit
 1167 00d0 00000000 		.word	yt_debug_level
 1168 00d4 00000000 		.word	_yt_errmsg
 1169 00d8 00000000 		.word	_yt_prompt_msg
 1170 00dc 00000000 		.word	.LC0
 1171              	.LBE24:
 1172              		.cfi_endproc
 1173              	.LFE7:
 1175              		.section	.text.yt_dot1x_portBasedDirection_set,"ax",%progbits
 1176              		.align	1
 1177              		.global	yt_dot1x_portBasedDirection_set
 1178              		.syntax unified
 1179              		.thumb
 1180              		.thumb_func
 1182              	yt_dot1x_portBasedDirection_set:
 1183              	.LVL157:
 1184              	.LFB8:
 130:../switch_sdk/core/yt/yt_dot1x.c **** 
 131:../switch_sdk/core/yt/yt_dot1x.c **** /**
 132:../switch_sdk/core/yt/yt_dot1x.c ****  * @internal      yt_dot1x_portBasedDirection_set
 133:../switch_sdk/core/yt/yt_dot1x.c ****  * @endinternal
 134:../switch_sdk/core/yt/yt_dot1x.c ****  *
 135:../switch_sdk/core/yt/yt_dot1x.c ****  * @brief         Description
 136:../switch_sdk/core/yt/yt_dot1x.c ****  * @note          APPLICABLE DEVICES  -Tiger
 137:../switch_sdk/core/yt/yt_dot1x.c ****  * @param[in]     unit                -unit id
 138:../switch_sdk/core/yt/yt_dot1x.c ****  * @param[in]     port                -port num
 139:../switch_sdk/core/yt/yt_dot1x.c ****  * @param[in]     port_direction      -yt_dot1x.h
 140:../switch_sdk/core/yt/yt_dot1x.c ****  * @retval        CMM_ERR_OK          -on success
 141:../switch_sdk/core/yt/yt_dot1x.c ****  * @retval        CMM_ERR_FAIL        -on fail
 142:../switch_sdk/core/yt/yt_dot1x.c ****  */
 143:../switch_sdk/core/yt/yt_dot1x.c **** yt_ret_t yt_dot1x_portBasedDirection_set(yt_unit_t unit, yt_port_t port, yt_dot1x_direction_t port_
 144:../switch_sdk/core/yt/yt_dot1x.c **** {
 1185              		.loc 1 144 1 is_stmt 1 view -0
 1186              		.cfi_startproc
 1187              		@ args = 0, pretend = 0, frame = 0
 1188              		@ frame_needed = 0, uses_anonymous_args = 0
 1189              		.loc 1 144 1 is_stmt 0 view .LVU334
 1190 0000 08B5     		push	{r3, lr}
 1191              		.cfi_def_cfa_offset 8
 1192              		.cfi_offset 3, -8
 1193              		.cfi_offset 14, -4
 145:../switch_sdk/core/yt/yt_dot1x.c ****     CMM_PARAM_CHK((YT_UNIT_NUM <= unit), CMM_ERR_INPUT);
 1194              		.loc 1 145 5 is_stmt 1 view .LVU335
 1195              		.loc 1 145 5 view .LVU336
 1196 0002 C0B9     		cbnz	r0, .L132
 1197 0004 8446     		mov	ip, r0
 1198              		.loc 1 145 5 discriminator 2 view .LVU337
 146:../switch_sdk/core/yt/yt_dot1x.c ****     CMM_PARAM_CHK(NULL == YT_DISPATCH(unit), CMM_ERR_NOT_INIT);
 1199              		.loc 1 146 5 discriminator 2 view .LVU338
 1200              		.loc 1 146 5 discriminator 2 view .LVU339
 1201 0006 2F4B     		ldr	r3, .L141
 1202 0008 53F82030 		ldr	r3, [r3, r0, lsl #2]
 1203 000c 0BB3     		cbz	r3, .L133
 1204              		.loc 1 146 5 discriminator 2 view .LVU340
 147:../switch_sdk/core/yt/yt_dot1x.c ****     CMM_PARAM_CHK((!(YT_DISPATCH(unit)->is_inited)), CMM_ERR_NOT_INIT);
 1205              		.loc 1 147 5 discriminator 2 view .LVU341
 1206              		.loc 1 147 5 discriminator 2 view .LVU342
 1207 000e 1878     		ldrb	r0, [r3]	@ zero_extendqisi2
 1208              	.LVL158:
 1209              		.loc 1 147 5 is_stmt 0 discriminator 2 view .LVU343
 1210 0010 0028     		cmp	r0, #0
 1211 0012 2CD0     		beq	.L134
 1212              		.loc 1 147 5 is_stmt 1 discriminator 2 view .LVU344
 148:../switch_sdk/core/yt/yt_dot1x.c ****     CMM_PARAM_CHK((!(CMM_PORT_VALID(unit, port))), CMM_ERR_PORT);
 1213              		.loc 1 148 5 discriminator 2 view .LVU345
 1214              		.loc 1 148 5 discriminator 2 view .LVU346
 1215 0014 2C48     		ldr	r0, .L141+4
 1216 0016 0078     		ldrb	r0, [r0]	@ zero_extendqisi2
 1217 0018 0028     		cmp	r0, #0
 1218 001a 36D0     		beq	.L126
 1219 001c 2B48     		ldr	r0, .L141+8
 1220 001e 50F82C00 		ldr	r0, [r0, ip, lsl #2]
 1221 0022 007D     		ldrb	r0, [r0, #20]	@ zero_extendqisi2
 1222 0024 8842     		cmp	r0, r1
 1223 0026 30D9     		bls	.L126
 1224              		.loc 1 148 5 discriminator 4 view .LVU347
 149:../switch_sdk/core/yt/yt_dot1x.c ****     CMM_PARAM_CHK((AUTH_DIR_END <= port_direction), CMM_ERR_INPUT);
 1225              		.loc 1 149 5 discriminator 4 view .LVU348
 1226              		.loc 1 149 5 discriminator 4 view .LVU349
 1227 0028 012A     		cmp	r2, #1
 1228 002a 3CD8     		bhi	.L135
 1229              		.loc 1 149 5 discriminator 2 view .LVU350
 150:../switch_sdk/core/yt/yt_dot1x.c **** 
 151:../switch_sdk/core/yt/yt_dot1x.c ****     return YT_DISPATCH(unit)->dot1x_portBasedDirection_set(unit, port, port_direction);
 1230              		.loc 1 151 5 discriminator 2 view .LVU351
 1231              		.loc 1 151 29 is_stmt 0 discriminator 2 view .LVU352
 1232 002c D3F83C31 		ldr	r3, [r3, #316]
 1233              		.loc 1 151 12 discriminator 2 view .LVU353
 1234 0030 6046     		mov	r0, ip
 1235 0032 9847     		blx	r3
 1236              	.LVL159:
 1237              	.L118:
 152:../switch_sdk/core/yt/yt_dot1x.c **** }
 1238              		.loc 1 152 1 view .LVU354
 1239 0034 08BD     		pop	{r3, pc}
 1240              	.LVL160:
 1241              	.L132:
 145:../switch_sdk/core/yt/yt_dot1x.c ****     CMM_PARAM_CHK(NULL == YT_DISPATCH(unit), CMM_ERR_NOT_INIT);
 1242              		.loc 1 145 5 is_stmt 1 discriminator 1 view .LVU355
 145:../switch_sdk/core/yt/yt_dot1x.c ****     CMM_PARAM_CHK(NULL == YT_DISPATCH(unit), CMM_ERR_NOT_INIT);
 1243              		.loc 1 145 5 discriminator 1 view .LVU356
 1244 0036 264B     		ldr	r3, .L141+12
 1245 0038 1B78     		ldrb	r3, [r3]	@ zero_extendqisi2
 1246 003a 012B     		cmp	r3, #1
 1247 003c 01D8     		bhi	.L136
 1248              	.LVL161:
 1249              	.L120:
 145:../switch_sdk/core/yt/yt_dot1x.c ****     CMM_PARAM_CHK(NULL == YT_DISPATCH(unit), CMM_ERR_NOT_INIT);
 1250              		.loc 1 145 5 discriminator 5 view .LVU357
 145:../switch_sdk/core/yt/yt_dot1x.c ****     CMM_PARAM_CHK(NULL == YT_DISPATCH(unit), CMM_ERR_NOT_INIT);
 1251              		.loc 1 145 5 discriminator 5 view .LVU358
 145:../switch_sdk/core/yt/yt_dot1x.c ****     CMM_PARAM_CHK(NULL == YT_DISPATCH(unit), CMM_ERR_NOT_INIT);
 1252              		.loc 1 145 5 discriminator 5 view .LVU359
 1253 003e 0520     		movs	r0, #5
 1254 0040 F8E7     		b	.L118
 1255              	.LVL162:
 1256              	.L136:
 145:../switch_sdk/core/yt/yt_dot1x.c ****     CMM_PARAM_CHK(NULL == YT_DISPATCH(unit), CMM_ERR_NOT_INIT);
 1257              		.loc 1 145 5 discriminator 3 view .LVU360
 1258              	.LBB25:
 145:../switch_sdk/core/yt/yt_dot1x.c ****     CMM_PARAM_CHK(NULL == YT_DISPATCH(unit), CMM_ERR_NOT_INIT);
 1259              		.loc 1 145 5 discriminator 3 view .LVU361
 1260 0042 244B     		ldr	r3, .L141+16
 1261 0044 5A69     		ldr	r2, [r3, #20]
 1262              	.LVL163:
 145:../switch_sdk/core/yt/yt_dot1x.c ****     CMM_PARAM_CHK(NULL == YT_DISPATCH(unit), CMM_ERR_NOT_INIT);
 1263              		.loc 1 145 5 is_stmt 0 discriminator 3 view .LVU362
 1264 0046 244B     		ldr	r3, .L141+20
 1265 0048 9968     		ldr	r1, [r3, #8]
 1266              	.LVL164:
 145:../switch_sdk/core/yt/yt_dot1x.c ****     CMM_PARAM_CHK(NULL == YT_DISPATCH(unit), CMM_ERR_NOT_INIT);
 1267              		.loc 1 145 5 discriminator 3 view .LVU363
 1268 004a 2448     		ldr	r0, .L141+24
 1269              	.LVL165:
 145:../switch_sdk/core/yt/yt_dot1x.c ****     CMM_PARAM_CHK(NULL == YT_DISPATCH(unit), CMM_ERR_NOT_INIT);
 1270              		.loc 1 145 5 discriminator 3 view .LVU364
 1271 004c FFF7FEFF 		bl	osal_printf
 1272              	.LVL166:
 1273 0050 F5E7     		b	.L120
 1274              	.LVL167:
 1275              	.L133:
 145:../switch_sdk/core/yt/yt_dot1x.c ****     CMM_PARAM_CHK(NULL == YT_DISPATCH(unit), CMM_ERR_NOT_INIT);
 1276              		.loc 1 145 5 discriminator 3 view .LVU365
 1277              	.LBE25:
 146:../switch_sdk/core/yt/yt_dot1x.c ****     CMM_PARAM_CHK((!(YT_DISPATCH(unit)->is_inited)), CMM_ERR_NOT_INIT);
 1278              		.loc 1 146 5 is_stmt 1 discriminator 1 view .LVU366
 146:../switch_sdk/core/yt/yt_dot1x.c ****     CMM_PARAM_CHK((!(YT_DISPATCH(unit)->is_inited)), CMM_ERR_NOT_INIT);
 1279              		.loc 1 146 5 discriminator 1 view .LVU367
 1280 0052 1F4B     		ldr	r3, .L141+12
 1281 0054 1B78     		ldrb	r3, [r3]	@ zero_extendqisi2
 1282 0056 012B     		cmp	r3, #1
 1283 0058 01D8     		bhi	.L137
 1284              	.LVL168:
 1285              	.L123:
 146:../switch_sdk/core/yt/yt_dot1x.c ****     CMM_PARAM_CHK((!(YT_DISPATCH(unit)->is_inited)), CMM_ERR_NOT_INIT);
 1286              		.loc 1 146 5 discriminator 5 view .LVU368
 146:../switch_sdk/core/yt/yt_dot1x.c ****     CMM_PARAM_CHK((!(YT_DISPATCH(unit)->is_inited)), CMM_ERR_NOT_INIT);
 1287              		.loc 1 146 5 discriminator 5 view .LVU369
 146:../switch_sdk/core/yt/yt_dot1x.c ****     CMM_PARAM_CHK((!(YT_DISPATCH(unit)->is_inited)), CMM_ERR_NOT_INIT);
 1288              		.loc 1 146 5 discriminator 5 view .LVU370
 1289 005a 0420     		movs	r0, #4
 1290 005c EAE7     		b	.L118
 1291              	.LVL169:
 1292              	.L137:
 146:../switch_sdk/core/yt/yt_dot1x.c ****     CMM_PARAM_CHK((!(YT_DISPATCH(unit)->is_inited)), CMM_ERR_NOT_INIT);
 1293              		.loc 1 146 5 discriminator 3 view .LVU371
 1294              	.LBB26:
 146:../switch_sdk/core/yt/yt_dot1x.c ****     CMM_PARAM_CHK((!(YT_DISPATCH(unit)->is_inited)), CMM_ERR_NOT_INIT);
 1295              		.loc 1 146 5 discriminator 3 view .LVU372
 1296 005e 1D4B     		ldr	r3, .L141+16
 1297 0060 1A69     		ldr	r2, [r3, #16]
 1298              	.LVL170:
 146:../switch_sdk/core/yt/yt_dot1x.c ****     CMM_PARAM_CHK((!(YT_DISPATCH(unit)->is_inited)), CMM_ERR_NOT_INIT);
 1299              		.loc 1 146 5 is_stmt 0 discriminator 3 view .LVU373
 1300 0062 1D4B     		ldr	r3, .L141+20
 1301 0064 9968     		ldr	r1, [r3, #8]
 1302              	.LVL171:
 146:../switch_sdk/core/yt/yt_dot1x.c ****     CMM_PARAM_CHK((!(YT_DISPATCH(unit)->is_inited)), CMM_ERR_NOT_INIT);
 1303              		.loc 1 146 5 discriminator 3 view .LVU374
 1304 0066 1D48     		ldr	r0, .L141+24
 1305              	.LVL172:
 146:../switch_sdk/core/yt/yt_dot1x.c ****     CMM_PARAM_CHK((!(YT_DISPATCH(unit)->is_inited)), CMM_ERR_NOT_INIT);
 1306              		.loc 1 146 5 discriminator 3 view .LVU375
 1307 0068 FFF7FEFF 		bl	osal_printf
 1308              	.LVL173:
 1309 006c F5E7     		b	.L123
 1310              	.LVL174:
 1311              	.L134:
 146:../switch_sdk/core/yt/yt_dot1x.c ****     CMM_PARAM_CHK((!(YT_DISPATCH(unit)->is_inited)), CMM_ERR_NOT_INIT);
 1312              		.loc 1 146 5 discriminator 3 view .LVU376
 1313              	.LBE26:
 147:../switch_sdk/core/yt/yt_dot1x.c ****     CMM_PARAM_CHK((!(CMM_PORT_VALID(unit, port))), CMM_ERR_PORT);
 1314              		.loc 1 147 5 is_stmt 1 discriminator 1 view .LVU377
 147:../switch_sdk/core/yt/yt_dot1x.c ****     CMM_PARAM_CHK((!(CMM_PORT_VALID(unit, port))), CMM_ERR_PORT);
 1315              		.loc 1 147 5 discriminator 1 view .LVU378
 1316 006e 184B     		ldr	r3, .L141+12
 1317 0070 1B78     		ldrb	r3, [r3]	@ zero_extendqisi2
 1318 0072 012B     		cmp	r3, #1
 1319 0074 01D8     		bhi	.L138
 1320              	.LVL175:
 1321              	.L125:
 147:../switch_sdk/core/yt/yt_dot1x.c ****     CMM_PARAM_CHK((!(CMM_PORT_VALID(unit, port))), CMM_ERR_PORT);
 1322              		.loc 1 147 5 discriminator 5 view .LVU379
 147:../switch_sdk/core/yt/yt_dot1x.c ****     CMM_PARAM_CHK((!(CMM_PORT_VALID(unit, port))), CMM_ERR_PORT);
 1323              		.loc 1 147 5 discriminator 5 view .LVU380
 147:../switch_sdk/core/yt/yt_dot1x.c ****     CMM_PARAM_CHK((!(CMM_PORT_VALID(unit, port))), CMM_ERR_PORT);
 1324              		.loc 1 147 5 discriminator 5 view .LVU381
 1325 0076 0420     		movs	r0, #4
 1326 0078 DCE7     		b	.L118
 1327              	.LVL176:
 1328              	.L138:
 147:../switch_sdk/core/yt/yt_dot1x.c ****     CMM_PARAM_CHK((!(CMM_PORT_VALID(unit, port))), CMM_ERR_PORT);
 1329              		.loc 1 147 5 discriminator 3 view .LVU382
 1330              	.LBB27:
 147:../switch_sdk/core/yt/yt_dot1x.c ****     CMM_PARAM_CHK((!(CMM_PORT_VALID(unit, port))), CMM_ERR_PORT);
 1331              		.loc 1 147 5 discriminator 3 view .LVU383
 1332 007a 164B     		ldr	r3, .L141+16
 1333 007c 1A69     		ldr	r2, [r3, #16]
 1334              	.LVL177:
 147:../switch_sdk/core/yt/yt_dot1x.c ****     CMM_PARAM_CHK((!(CMM_PORT_VALID(unit, port))), CMM_ERR_PORT);
 1335              		.loc 1 147 5 is_stmt 0 discriminator 3 view .LVU384
 1336 007e 164B     		ldr	r3, .L141+20
 1337 0080 9968     		ldr	r1, [r3, #8]
 1338              	.LVL178:
 147:../switch_sdk/core/yt/yt_dot1x.c ****     CMM_PARAM_CHK((!(CMM_PORT_VALID(unit, port))), CMM_ERR_PORT);
 1339              		.loc 1 147 5 discriminator 3 view .LVU385
 1340 0082 1648     		ldr	r0, .L141+24
 1341 0084 FFF7FEFF 		bl	osal_printf
 1342              	.LVL179:
 1343 0088 F5E7     		b	.L125
 1344              	.LVL180:
 1345              	.L126:
 147:../switch_sdk/core/yt/yt_dot1x.c ****     CMM_PARAM_CHK((!(CMM_PORT_VALID(unit, port))), CMM_ERR_PORT);
 1346              		.loc 1 147 5 discriminator 3 view .LVU386
 1347              	.LBE27:
 148:../switch_sdk/core/yt/yt_dot1x.c ****     CMM_PARAM_CHK((AUTH_DIR_END <= port_direction), CMM_ERR_INPUT);
 1348              		.loc 1 148 5 is_stmt 1 discriminator 3 view .LVU387
 148:../switch_sdk/core/yt/yt_dot1x.c ****     CMM_PARAM_CHK((AUTH_DIR_END <= port_direction), CMM_ERR_INPUT);
 1349              		.loc 1 148 5 discriminator 3 view .LVU388
 1350 008a 114B     		ldr	r3, .L141+12
 1351 008c 1B78     		ldrb	r3, [r3]	@ zero_extendqisi2
 1352 008e 012B     		cmp	r3, #1
 1353 0090 01D8     		bhi	.L139
 1354              	.LVL181:
 1355              	.L128:
 148:../switch_sdk/core/yt/yt_dot1x.c ****     CMM_PARAM_CHK((AUTH_DIR_END <= port_direction), CMM_ERR_INPUT);
 1356              		.loc 1 148 5 discriminator 7 view .LVU389
 148:../switch_sdk/core/yt/yt_dot1x.c ****     CMM_PARAM_CHK((AUTH_DIR_END <= port_direction), CMM_ERR_INPUT);
 1357              		.loc 1 148 5 discriminator 7 view .LVU390
 148:../switch_sdk/core/yt/yt_dot1x.c ****     CMM_PARAM_CHK((AUTH_DIR_END <= port_direction), CMM_ERR_INPUT);
 1358              		.loc 1 148 5 discriminator 7 view .LVU391
 1359 0092 0E20     		movs	r0, #14
 1360 0094 CEE7     		b	.L118
 1361              	.LVL182:
 1362              	.L139:
 148:../switch_sdk/core/yt/yt_dot1x.c ****     CMM_PARAM_CHK((AUTH_DIR_END <= port_direction), CMM_ERR_INPUT);
 1363              		.loc 1 148 5 discriminator 5 view .LVU392
 1364              	.LBB28:
 148:../switch_sdk/core/yt/yt_dot1x.c ****     CMM_PARAM_CHK((AUTH_DIR_END <= port_direction), CMM_ERR_INPUT);
 1365              		.loc 1 148 5 discriminator 5 view .LVU393
 1366 0096 0F4B     		ldr	r3, .L141+16
 1367 0098 9A6B     		ldr	r2, [r3, #56]
 1368              	.LVL183:
 148:../switch_sdk/core/yt/yt_dot1x.c ****     CMM_PARAM_CHK((AUTH_DIR_END <= port_direction), CMM_ERR_INPUT);
 1369              		.loc 1 148 5 is_stmt 0 discriminator 5 view .LVU394
 1370 009a 0F4B     		ldr	r3, .L141+20
 1371 009c 9968     		ldr	r1, [r3, #8]
 1372              	.LVL184:
 148:../switch_sdk/core/yt/yt_dot1x.c ****     CMM_PARAM_CHK((AUTH_DIR_END <= port_direction), CMM_ERR_INPUT);
 1373              		.loc 1 148 5 discriminator 5 view .LVU395
 1374 009e 0F48     		ldr	r0, .L141+24
 1375 00a0 FFF7FEFF 		bl	osal_printf
 1376              	.LVL185:
 1377 00a4 F5E7     		b	.L128
 1378              	.LVL186:
 1379              	.L135:
 148:../switch_sdk/core/yt/yt_dot1x.c ****     CMM_PARAM_CHK((AUTH_DIR_END <= port_direction), CMM_ERR_INPUT);
 1380              		.loc 1 148 5 discriminator 5 view .LVU396
 1381              	.LBE28:
 149:../switch_sdk/core/yt/yt_dot1x.c **** 
 1382              		.loc 1 149 5 is_stmt 1 discriminator 1 view .LVU397
 149:../switch_sdk/core/yt/yt_dot1x.c **** 
 1383              		.loc 1 149 5 discriminator 1 view .LVU398
 1384 00a6 0A4B     		ldr	r3, .L141+12
 1385 00a8 1B78     		ldrb	r3, [r3]	@ zero_extendqisi2
 1386 00aa 012B     		cmp	r3, #1
 1387 00ac 01D8     		bhi	.L140
 1388              	.LVL187:
 1389              	.L130:
 149:../switch_sdk/core/yt/yt_dot1x.c **** 
 1390              		.loc 1 149 5 discriminator 5 view .LVU399
 149:../switch_sdk/core/yt/yt_dot1x.c **** 
 1391              		.loc 1 149 5 discriminator 5 view .LVU400
 149:../switch_sdk/core/yt/yt_dot1x.c **** 
 1392              		.loc 1 149 5 discriminator 5 view .LVU401
 1393 00ae 0520     		movs	r0, #5
 1394 00b0 C0E7     		b	.L118
 1395              	.LVL188:
 1396              	.L140:
 149:../switch_sdk/core/yt/yt_dot1x.c **** 
 1397              		.loc 1 149 5 discriminator 3 view .LVU402
 1398              	.LBB29:
 149:../switch_sdk/core/yt/yt_dot1x.c **** 
 1399              		.loc 1 149 5 discriminator 3 view .LVU403
 1400 00b2 084B     		ldr	r3, .L141+16
 1401 00b4 5A69     		ldr	r2, [r3, #20]
 1402              	.LVL189:
 149:../switch_sdk/core/yt/yt_dot1x.c **** 
 1403              		.loc 1 149 5 is_stmt 0 discriminator 3 view .LVU404
 1404 00b6 084B     		ldr	r3, .L141+20
 1405 00b8 9968     		ldr	r1, [r3, #8]
 1406              	.LVL190:
 149:../switch_sdk/core/yt/yt_dot1x.c **** 
 1407              		.loc 1 149 5 discriminator 3 view .LVU405
 1408 00ba 0848     		ldr	r0, .L141+24
 1409 00bc FFF7FEFF 		bl	osal_printf
 1410              	.LVL191:
 1411 00c0 F5E7     		b	.L130
 1412              	.L142:
 1413 00c2 00BF     		.align	2
 1414              	.L141:
 1415 00c4 00000000 		.word	gpfal_dispatch
 1416 00c8 00000000 		.word	gcal_inited
 1417 00cc 00000000 		.word	gpSwitchUnit
 1418 00d0 00000000 		.word	yt_debug_level
 1419 00d4 00000000 		.word	_yt_errmsg
 1420 00d8 00000000 		.word	_yt_prompt_msg
 1421 00dc 00000000 		.word	.LC0
 1422              	.LBE29:
 1423              		.cfi_endproc
 1424              	.LFE8:
 1426              		.section	.text.yt_dot1x_portBasedDirection_get,"ax",%progbits
 1427              		.align	1
 1428              		.global	yt_dot1x_portBasedDirection_get
 1429              		.syntax unified
 1430              		.thumb
 1431              		.thumb_func
 1433              	yt_dot1x_portBasedDirection_get:
 1434              	.LVL192:
 1435              	.LFB9:
 153:../switch_sdk/core/yt/yt_dot1x.c **** 
 154:../switch_sdk/core/yt/yt_dot1x.c **** /**
 155:../switch_sdk/core/yt/yt_dot1x.c ****  * @internal      yt_dot1x_portBasedDirection_get
 156:../switch_sdk/core/yt/yt_dot1x.c ****  * @endinternal
 157:../switch_sdk/core/yt/yt_dot1x.c ****  *
 158:../switch_sdk/core/yt/yt_dot1x.c ****  * @brief         Description
 159:../switch_sdk/core/yt/yt_dot1x.c ****  * @note          APPLICABLE DEVICES  -Tiger
 160:../switch_sdk/core/yt/yt_dot1x.c ****  * @param[in]     unit                -unit id
 161:../switch_sdk/core/yt/yt_dot1x.c ****  * @param[in]     port                -port num
 162:../switch_sdk/core/yt/yt_dot1x.c ****  * @param[out]    pPort_direction     -yt_dot1x.h
 163:../switch_sdk/core/yt/yt_dot1x.c ****  * @retval        CMM_ERR_OK          -on success
 164:../switch_sdk/core/yt/yt_dot1x.c ****  * @retval        CMM_ERR_FAIL        -on fail
 165:../switch_sdk/core/yt/yt_dot1x.c ****  */
 166:../switch_sdk/core/yt/yt_dot1x.c **** yt_ret_t yt_dot1x_portBasedDirection_get(yt_unit_t unit, yt_port_t port, yt_dot1x_direction_t *pPor
 167:../switch_sdk/core/yt/yt_dot1x.c **** {
 1436              		.loc 1 167 1 is_stmt 1 view -0
 1437              		.cfi_startproc
 1438              		@ args = 0, pretend = 0, frame = 0
 1439              		@ frame_needed = 0, uses_anonymous_args = 0
 1440              		.loc 1 167 1 is_stmt 0 view .LVU407
 1441 0000 08B5     		push	{r3, lr}
 1442              		.cfi_def_cfa_offset 8
 1443              		.cfi_offset 3, -8
 1444              		.cfi_offset 14, -4
 168:../switch_sdk/core/yt/yt_dot1x.c ****     CMM_PARAM_CHK((YT_UNIT_NUM <= unit), CMM_ERR_INPUT);
 1445              		.loc 1 168 5 is_stmt 1 view .LVU408
 1446              		.loc 1 168 5 view .LVU409
 1447 0002 C0B9     		cbnz	r0, .L157
 1448 0004 8446     		mov	ip, r0
 1449              		.loc 1 168 5 discriminator 2 view .LVU410
 169:../switch_sdk/core/yt/yt_dot1x.c ****     CMM_PARAM_CHK(NULL == YT_DISPATCH(unit), CMM_ERR_NOT_INIT);
 1450              		.loc 1 169 5 discriminator 2 view .LVU411
 1451              		.loc 1 169 5 discriminator 2 view .LVU412
 1452 0006 2F4B     		ldr	r3, .L166
 1453 0008 53F82030 		ldr	r3, [r3, r0, lsl #2]
 1454 000c 0BB3     		cbz	r3, .L158
 1455              		.loc 1 169 5 discriminator 2 view .LVU413
 170:../switch_sdk/core/yt/yt_dot1x.c ****     CMM_PARAM_CHK((!(YT_DISPATCH(unit)->is_inited)), CMM_ERR_NOT_INIT);
 1456              		.loc 1 170 5 discriminator 2 view .LVU414
 1457              		.loc 1 170 5 discriminator 2 view .LVU415
 1458 000e 1878     		ldrb	r0, [r3]	@ zero_extendqisi2
 1459              	.LVL193:
 1460              		.loc 1 170 5 is_stmt 0 discriminator 2 view .LVU416
 1461 0010 0028     		cmp	r0, #0
 1462 0012 2CD0     		beq	.L159
 1463              		.loc 1 170 5 is_stmt 1 discriminator 2 view .LVU417
 171:../switch_sdk/core/yt/yt_dot1x.c ****     CMM_PARAM_CHK((!(CMM_PORT_VALID(unit, port))), CMM_ERR_PORT);
 1464              		.loc 1 171 5 discriminator 2 view .LVU418
 1465              		.loc 1 171 5 discriminator 2 view .LVU419
 1466 0014 2C48     		ldr	r0, .L166+4
 1467 0016 0078     		ldrb	r0, [r0]	@ zero_extendqisi2
 1468 0018 0028     		cmp	r0, #0
 1469 001a 36D0     		beq	.L151
 1470 001c 2B48     		ldr	r0, .L166+8
 1471 001e 50F82C00 		ldr	r0, [r0, ip, lsl #2]
 1472 0022 007D     		ldrb	r0, [r0, #20]	@ zero_extendqisi2
 1473 0024 8842     		cmp	r0, r1
 1474 0026 30D9     		bls	.L151
 1475              		.loc 1 171 5 discriminator 4 view .LVU420
 172:../switch_sdk/core/yt/yt_dot1x.c ****     CMM_PARAM_CHK((NULL == pPort_direction), CMM_ERR_NULL_POINT);
 1476              		.loc 1 172 5 discriminator 4 view .LVU421
 1477              		.loc 1 172 5 discriminator 4 view .LVU422
 1478 0028 002A     		cmp	r2, #0
 1479 002a 3CD0     		beq	.L160
 1480              		.loc 1 172 5 discriminator 2 view .LVU423
 173:../switch_sdk/core/yt/yt_dot1x.c **** 
 174:../switch_sdk/core/yt/yt_dot1x.c ****     return YT_DISPATCH(unit)->dot1x_portBasedDirection_get(unit, port, pPort_direction);
 1481              		.loc 1 174 5 discriminator 2 view .LVU424
 1482              		.loc 1 174 29 is_stmt 0 discriminator 2 view .LVU425
 1483 002c D3F84031 		ldr	r3, [r3, #320]
 1484              		.loc 1 174 12 discriminator 2 view .LVU426
 1485 0030 6046     		mov	r0, ip
 1486 0032 9847     		blx	r3
 1487              	.LVL194:
 1488              	.L143:
 175:../switch_sdk/core/yt/yt_dot1x.c **** }
 1489              		.loc 1 175 1 view .LVU427
 1490 0034 08BD     		pop	{r3, pc}
 1491              	.LVL195:
 1492              	.L157:
 168:../switch_sdk/core/yt/yt_dot1x.c ****     CMM_PARAM_CHK(NULL == YT_DISPATCH(unit), CMM_ERR_NOT_INIT);
 1493              		.loc 1 168 5 is_stmt 1 discriminator 1 view .LVU428
 168:../switch_sdk/core/yt/yt_dot1x.c ****     CMM_PARAM_CHK(NULL == YT_DISPATCH(unit), CMM_ERR_NOT_INIT);
 1494              		.loc 1 168 5 discriminator 1 view .LVU429
 1495 0036 264B     		ldr	r3, .L166+12
 1496 0038 1B78     		ldrb	r3, [r3]	@ zero_extendqisi2
 1497 003a 012B     		cmp	r3, #1
 1498 003c 01D8     		bhi	.L161
 1499              	.LVL196:
 1500              	.L145:
 168:../switch_sdk/core/yt/yt_dot1x.c ****     CMM_PARAM_CHK(NULL == YT_DISPATCH(unit), CMM_ERR_NOT_INIT);
 1501              		.loc 1 168 5 discriminator 5 view .LVU430
 168:../switch_sdk/core/yt/yt_dot1x.c ****     CMM_PARAM_CHK(NULL == YT_DISPATCH(unit), CMM_ERR_NOT_INIT);
 1502              		.loc 1 168 5 discriminator 5 view .LVU431
 168:../switch_sdk/core/yt/yt_dot1x.c ****     CMM_PARAM_CHK(NULL == YT_DISPATCH(unit), CMM_ERR_NOT_INIT);
 1503              		.loc 1 168 5 discriminator 5 view .LVU432
 1504 003e 0520     		movs	r0, #5
 1505 0040 F8E7     		b	.L143
 1506              	.LVL197:
 1507              	.L161:
 168:../switch_sdk/core/yt/yt_dot1x.c ****     CMM_PARAM_CHK(NULL == YT_DISPATCH(unit), CMM_ERR_NOT_INIT);
 1508              		.loc 1 168 5 discriminator 3 view .LVU433
 1509              	.LBB30:
 168:../switch_sdk/core/yt/yt_dot1x.c ****     CMM_PARAM_CHK(NULL == YT_DISPATCH(unit), CMM_ERR_NOT_INIT);
 1510              		.loc 1 168 5 discriminator 3 view .LVU434
 1511 0042 244B     		ldr	r3, .L166+16
 1512 0044 5A69     		ldr	r2, [r3, #20]
 1513              	.LVL198:
 168:../switch_sdk/core/yt/yt_dot1x.c ****     CMM_PARAM_CHK(NULL == YT_DISPATCH(unit), CMM_ERR_NOT_INIT);
 1514              		.loc 1 168 5 is_stmt 0 discriminator 3 view .LVU435
 1515 0046 244B     		ldr	r3, .L166+20
 1516 0048 9968     		ldr	r1, [r3, #8]
 1517              	.LVL199:
 168:../switch_sdk/core/yt/yt_dot1x.c ****     CMM_PARAM_CHK(NULL == YT_DISPATCH(unit), CMM_ERR_NOT_INIT);
 1518              		.loc 1 168 5 discriminator 3 view .LVU436
 1519 004a 2448     		ldr	r0, .L166+24
 1520              	.LVL200:
 168:../switch_sdk/core/yt/yt_dot1x.c ****     CMM_PARAM_CHK(NULL == YT_DISPATCH(unit), CMM_ERR_NOT_INIT);
 1521              		.loc 1 168 5 discriminator 3 view .LVU437
 1522 004c FFF7FEFF 		bl	osal_printf
 1523              	.LVL201:
 1524 0050 F5E7     		b	.L145
 1525              	.LVL202:
 1526              	.L158:
 168:../switch_sdk/core/yt/yt_dot1x.c ****     CMM_PARAM_CHK(NULL == YT_DISPATCH(unit), CMM_ERR_NOT_INIT);
 1527              		.loc 1 168 5 discriminator 3 view .LVU438
 1528              	.LBE30:
 169:../switch_sdk/core/yt/yt_dot1x.c ****     CMM_PARAM_CHK((!(YT_DISPATCH(unit)->is_inited)), CMM_ERR_NOT_INIT);
 1529              		.loc 1 169 5 is_stmt 1 discriminator 1 view .LVU439
 169:../switch_sdk/core/yt/yt_dot1x.c ****     CMM_PARAM_CHK((!(YT_DISPATCH(unit)->is_inited)), CMM_ERR_NOT_INIT);
 1530              		.loc 1 169 5 discriminator 1 view .LVU440
 1531 0052 1F4B     		ldr	r3, .L166+12
 1532 0054 1B78     		ldrb	r3, [r3]	@ zero_extendqisi2
 1533 0056 012B     		cmp	r3, #1
 1534 0058 01D8     		bhi	.L162
 1535              	.LVL203:
 1536              	.L148:
 169:../switch_sdk/core/yt/yt_dot1x.c ****     CMM_PARAM_CHK((!(YT_DISPATCH(unit)->is_inited)), CMM_ERR_NOT_INIT);
 1537              		.loc 1 169 5 discriminator 5 view .LVU441
 169:../switch_sdk/core/yt/yt_dot1x.c ****     CMM_PARAM_CHK((!(YT_DISPATCH(unit)->is_inited)), CMM_ERR_NOT_INIT);
 1538              		.loc 1 169 5 discriminator 5 view .LVU442
 169:../switch_sdk/core/yt/yt_dot1x.c ****     CMM_PARAM_CHK((!(YT_DISPATCH(unit)->is_inited)), CMM_ERR_NOT_INIT);
 1539              		.loc 1 169 5 discriminator 5 view .LVU443
 1540 005a 0420     		movs	r0, #4
 1541 005c EAE7     		b	.L143
 1542              	.LVL204:
 1543              	.L162:
 169:../switch_sdk/core/yt/yt_dot1x.c ****     CMM_PARAM_CHK((!(YT_DISPATCH(unit)->is_inited)), CMM_ERR_NOT_INIT);
 1544              		.loc 1 169 5 discriminator 3 view .LVU444
 1545              	.LBB31:
 169:../switch_sdk/core/yt/yt_dot1x.c ****     CMM_PARAM_CHK((!(YT_DISPATCH(unit)->is_inited)), CMM_ERR_NOT_INIT);
 1546              		.loc 1 169 5 discriminator 3 view .LVU445
 1547 005e 1D4B     		ldr	r3, .L166+16
 1548 0060 1A69     		ldr	r2, [r3, #16]
 1549              	.LVL205:
 169:../switch_sdk/core/yt/yt_dot1x.c ****     CMM_PARAM_CHK((!(YT_DISPATCH(unit)->is_inited)), CMM_ERR_NOT_INIT);
 1550              		.loc 1 169 5 is_stmt 0 discriminator 3 view .LVU446
 1551 0062 1D4B     		ldr	r3, .L166+20
 1552 0064 9968     		ldr	r1, [r3, #8]
 1553              	.LVL206:
 169:../switch_sdk/core/yt/yt_dot1x.c ****     CMM_PARAM_CHK((!(YT_DISPATCH(unit)->is_inited)), CMM_ERR_NOT_INIT);
 1554              		.loc 1 169 5 discriminator 3 view .LVU447
 1555 0066 1D48     		ldr	r0, .L166+24
 1556              	.LVL207:
 169:../switch_sdk/core/yt/yt_dot1x.c ****     CMM_PARAM_CHK((!(YT_DISPATCH(unit)->is_inited)), CMM_ERR_NOT_INIT);
 1557              		.loc 1 169 5 discriminator 3 view .LVU448
 1558 0068 FFF7FEFF 		bl	osal_printf
 1559              	.LVL208:
 1560 006c F5E7     		b	.L148
 1561              	.LVL209:
 1562              	.L159:
 169:../switch_sdk/core/yt/yt_dot1x.c ****     CMM_PARAM_CHK((!(YT_DISPATCH(unit)->is_inited)), CMM_ERR_NOT_INIT);
 1563              		.loc 1 169 5 discriminator 3 view .LVU449
 1564              	.LBE31:
 170:../switch_sdk/core/yt/yt_dot1x.c ****     CMM_PARAM_CHK((!(CMM_PORT_VALID(unit, port))), CMM_ERR_PORT);
 1565              		.loc 1 170 5 is_stmt 1 discriminator 1 view .LVU450
 170:../switch_sdk/core/yt/yt_dot1x.c ****     CMM_PARAM_CHK((!(CMM_PORT_VALID(unit, port))), CMM_ERR_PORT);
 1566              		.loc 1 170 5 discriminator 1 view .LVU451
 1567 006e 184B     		ldr	r3, .L166+12
 1568 0070 1B78     		ldrb	r3, [r3]	@ zero_extendqisi2
 1569 0072 012B     		cmp	r3, #1
 1570 0074 01D8     		bhi	.L163
 1571              	.LVL210:
 1572              	.L150:
 170:../switch_sdk/core/yt/yt_dot1x.c ****     CMM_PARAM_CHK((!(CMM_PORT_VALID(unit, port))), CMM_ERR_PORT);
 1573              		.loc 1 170 5 discriminator 5 view .LVU452
 170:../switch_sdk/core/yt/yt_dot1x.c ****     CMM_PARAM_CHK((!(CMM_PORT_VALID(unit, port))), CMM_ERR_PORT);
 1574              		.loc 1 170 5 discriminator 5 view .LVU453
 170:../switch_sdk/core/yt/yt_dot1x.c ****     CMM_PARAM_CHK((!(CMM_PORT_VALID(unit, port))), CMM_ERR_PORT);
 1575              		.loc 1 170 5 discriminator 5 view .LVU454
 1576 0076 0420     		movs	r0, #4
 1577 0078 DCE7     		b	.L143
 1578              	.LVL211:
 1579              	.L163:
 170:../switch_sdk/core/yt/yt_dot1x.c ****     CMM_PARAM_CHK((!(CMM_PORT_VALID(unit, port))), CMM_ERR_PORT);
 1580              		.loc 1 170 5 discriminator 3 view .LVU455
 1581              	.LBB32:
 170:../switch_sdk/core/yt/yt_dot1x.c ****     CMM_PARAM_CHK((!(CMM_PORT_VALID(unit, port))), CMM_ERR_PORT);
 1582              		.loc 1 170 5 discriminator 3 view .LVU456
 1583 007a 164B     		ldr	r3, .L166+16
 1584 007c 1A69     		ldr	r2, [r3, #16]
 1585              	.LVL212:
 170:../switch_sdk/core/yt/yt_dot1x.c ****     CMM_PARAM_CHK((!(CMM_PORT_VALID(unit, port))), CMM_ERR_PORT);
 1586              		.loc 1 170 5 is_stmt 0 discriminator 3 view .LVU457
 1587 007e 164B     		ldr	r3, .L166+20
 1588 0080 9968     		ldr	r1, [r3, #8]
 1589              	.LVL213:
 170:../switch_sdk/core/yt/yt_dot1x.c ****     CMM_PARAM_CHK((!(CMM_PORT_VALID(unit, port))), CMM_ERR_PORT);
 1590              		.loc 1 170 5 discriminator 3 view .LVU458
 1591 0082 1648     		ldr	r0, .L166+24
 1592 0084 FFF7FEFF 		bl	osal_printf
 1593              	.LVL214:
 1594 0088 F5E7     		b	.L150
 1595              	.LVL215:
 1596              	.L151:
 170:../switch_sdk/core/yt/yt_dot1x.c ****     CMM_PARAM_CHK((!(CMM_PORT_VALID(unit, port))), CMM_ERR_PORT);
 1597              		.loc 1 170 5 discriminator 3 view .LVU459
 1598              	.LBE32:
 171:../switch_sdk/core/yt/yt_dot1x.c ****     CMM_PARAM_CHK((NULL == pPort_direction), CMM_ERR_NULL_POINT);
 1599              		.loc 1 171 5 is_stmt 1 discriminator 3 view .LVU460
 171:../switch_sdk/core/yt/yt_dot1x.c ****     CMM_PARAM_CHK((NULL == pPort_direction), CMM_ERR_NULL_POINT);
 1600              		.loc 1 171 5 discriminator 3 view .LVU461
 1601 008a 114B     		ldr	r3, .L166+12
 1602 008c 1B78     		ldrb	r3, [r3]	@ zero_extendqisi2
 1603 008e 012B     		cmp	r3, #1
 1604 0090 01D8     		bhi	.L164
 1605              	.LVL216:
 1606              	.L153:
 171:../switch_sdk/core/yt/yt_dot1x.c ****     CMM_PARAM_CHK((NULL == pPort_direction), CMM_ERR_NULL_POINT);
 1607              		.loc 1 171 5 discriminator 7 view .LVU462
 171:../switch_sdk/core/yt/yt_dot1x.c ****     CMM_PARAM_CHK((NULL == pPort_direction), CMM_ERR_NULL_POINT);
 1608              		.loc 1 171 5 discriminator 7 view .LVU463
 171:../switch_sdk/core/yt/yt_dot1x.c ****     CMM_PARAM_CHK((NULL == pPort_direction), CMM_ERR_NULL_POINT);
 1609              		.loc 1 171 5 discriminator 7 view .LVU464
 1610 0092 0E20     		movs	r0, #14
 1611 0094 CEE7     		b	.L143
 1612              	.LVL217:
 1613              	.L164:
 171:../switch_sdk/core/yt/yt_dot1x.c ****     CMM_PARAM_CHK((NULL == pPort_direction), CMM_ERR_NULL_POINT);
 1614              		.loc 1 171 5 discriminator 5 view .LVU465
 1615              	.LBB33:
 171:../switch_sdk/core/yt/yt_dot1x.c ****     CMM_PARAM_CHK((NULL == pPort_direction), CMM_ERR_NULL_POINT);
 1616              		.loc 1 171 5 discriminator 5 view .LVU466
 1617 0096 0F4B     		ldr	r3, .L166+16
 1618 0098 9A6B     		ldr	r2, [r3, #56]
 1619              	.LVL218:
 171:../switch_sdk/core/yt/yt_dot1x.c ****     CMM_PARAM_CHK((NULL == pPort_direction), CMM_ERR_NULL_POINT);
 1620              		.loc 1 171 5 is_stmt 0 discriminator 5 view .LVU467
 1621 009a 0F4B     		ldr	r3, .L166+20
 1622 009c 9968     		ldr	r1, [r3, #8]
 1623              	.LVL219:
 171:../switch_sdk/core/yt/yt_dot1x.c ****     CMM_PARAM_CHK((NULL == pPort_direction), CMM_ERR_NULL_POINT);
 1624              		.loc 1 171 5 discriminator 5 view .LVU468
 1625 009e 0F48     		ldr	r0, .L166+24
 1626 00a0 FFF7FEFF 		bl	osal_printf
 1627              	.LVL220:
 1628 00a4 F5E7     		b	.L153
 1629              	.LVL221:
 1630              	.L160:
 171:../switch_sdk/core/yt/yt_dot1x.c ****     CMM_PARAM_CHK((NULL == pPort_direction), CMM_ERR_NULL_POINT);
 1631              		.loc 1 171 5 discriminator 5 view .LVU469
 1632              	.LBE33:
 172:../switch_sdk/core/yt/yt_dot1x.c **** 
 1633              		.loc 1 172 5 is_stmt 1 discriminator 1 view .LVU470
 172:../switch_sdk/core/yt/yt_dot1x.c **** 
 1634              		.loc 1 172 5 discriminator 1 view .LVU471
 1635 00a6 0A4B     		ldr	r3, .L166+12
 1636 00a8 1B78     		ldrb	r3, [r3]	@ zero_extendqisi2
 1637 00aa 012B     		cmp	r3, #1
 1638 00ac 01D8     		bhi	.L165
 1639              	.LVL222:
 1640              	.L155:
 172:../switch_sdk/core/yt/yt_dot1x.c **** 
 1641              		.loc 1 172 5 discriminator 5 view .LVU472
 172:../switch_sdk/core/yt/yt_dot1x.c **** 
 1642              		.loc 1 172 5 discriminator 5 view .LVU473
 172:../switch_sdk/core/yt/yt_dot1x.c **** 
 1643              		.loc 1 172 5 discriminator 5 view .LVU474
 1644 00ae 0220     		movs	r0, #2
 1645 00b0 C0E7     		b	.L143
 1646              	.LVL223:
 1647              	.L165:
 172:../switch_sdk/core/yt/yt_dot1x.c **** 
 1648              		.loc 1 172 5 discriminator 3 view .LVU475
 1649              	.LBB34:
 172:../switch_sdk/core/yt/yt_dot1x.c **** 
 1650              		.loc 1 172 5 discriminator 3 view .LVU476
 1651 00b2 084B     		ldr	r3, .L166+16
 1652 00b4 9A68     		ldr	r2, [r3, #8]
 1653              	.LVL224:
 172:../switch_sdk/core/yt/yt_dot1x.c **** 
 1654              		.loc 1 172 5 is_stmt 0 discriminator 3 view .LVU477
 1655 00b6 084B     		ldr	r3, .L166+20
 1656 00b8 9968     		ldr	r1, [r3, #8]
 1657              	.LVL225:
 172:../switch_sdk/core/yt/yt_dot1x.c **** 
 1658              		.loc 1 172 5 discriminator 3 view .LVU478
 1659 00ba 0848     		ldr	r0, .L166+24
 1660 00bc FFF7FEFF 		bl	osal_printf
 1661              	.LVL226:
 1662 00c0 F5E7     		b	.L155
 1663              	.L167:
 1664 00c2 00BF     		.align	2
 1665              	.L166:
 1666 00c4 00000000 		.word	gpfal_dispatch
 1667 00c8 00000000 		.word	gcal_inited
 1668 00cc 00000000 		.word	gpSwitchUnit
 1669 00d0 00000000 		.word	yt_debug_level
 1670 00d4 00000000 		.word	_yt_errmsg
 1671 00d8 00000000 		.word	_yt_prompt_msg
 1672 00dc 00000000 		.word	.LC0
 1673              	.LBE34:
 1674              		.cfi_endproc
 1675              	.LFE9:
 1677              		.section	.text.yt_dot1x_guest_vlan_set,"ax",%progbits
 1678              		.align	1
 1679              		.global	yt_dot1x_guest_vlan_set
 1680              		.syntax unified
 1681              		.thumb
 1682              		.thumb_func
 1684              	yt_dot1x_guest_vlan_set:
 1685              	.LVL227:
 1686              	.LFB10:
 176:../switch_sdk/core/yt/yt_dot1x.c **** 
 177:../switch_sdk/core/yt/yt_dot1x.c **** /**
 178:../switch_sdk/core/yt/yt_dot1x.c ****  * @internal      yt_dot1x_guest_vlan_set
 179:../switch_sdk/core/yt/yt_dot1x.c ****  * @endinternal
 180:../switch_sdk/core/yt/yt_dot1x.c ****  *
 181:../switch_sdk/core/yt/yt_dot1x.c ****  * @brief         Description
 182:../switch_sdk/core/yt/yt_dot1x.c ****  * @note          APPLICABLE DEVICES  -Tiger
 183:../switch_sdk/core/yt/yt_dot1x.c ****  * @param[in]     unit                -unit id
 184:../switch_sdk/core/yt/yt_dot1x.c ****  * @param[in]     vid                 -vlan id
 185:../switch_sdk/core/yt/yt_dot1x.c ****  * @param[in]     enable              -enable or disable
 186:../switch_sdk/core/yt/yt_dot1x.c ****  * @retval        CMM_ERR_OK          -on success
 187:../switch_sdk/core/yt/yt_dot1x.c ****  * @retval        CMM_ERR_FAIL        -on fail
 188:../switch_sdk/core/yt/yt_dot1x.c ****  */
 189:../switch_sdk/core/yt/yt_dot1x.c **** yt_ret_t yt_dot1x_guest_vlan_set(yt_unit_t unit, yt_vlan_t vid, yt_enable_t enable)
 190:../switch_sdk/core/yt/yt_dot1x.c **** {
 1687              		.loc 1 190 1 is_stmt 1 view -0
 1688              		.cfi_startproc
 1689              		@ args = 0, pretend = 0, frame = 0
 1690              		@ frame_needed = 0, uses_anonymous_args = 0
 1691              		.loc 1 190 1 is_stmt 0 view .LVU480
 1692 0000 08B5     		push	{r3, lr}
 1693              		.cfi_def_cfa_offset 8
 1694              		.cfi_offset 3, -8
 1695              		.cfi_offset 14, -4
 191:../switch_sdk/core/yt/yt_dot1x.c ****     CMM_PARAM_CHK((YT_UNIT_NUM <= unit), CMM_ERR_INPUT);
 1696              		.loc 1 191 5 is_stmt 1 view .LVU481
 1697              		.loc 1 191 5 view .LVU482
 1698 0002 80B9     		cbnz	r0, .L181
 1699 0004 8446     		mov	ip, r0
 1700              		.loc 1 191 5 discriminator 2 view .LVU483
 192:../switch_sdk/core/yt/yt_dot1x.c ****     CMM_PARAM_CHK(NULL == YT_DISPATCH(unit), CMM_ERR_NOT_INIT);
 1701              		.loc 1 192 5 discriminator 2 view .LVU484
 1702              		.loc 1 192 5 discriminator 2 view .LVU485
 1703 0006 2B4B     		ldr	r3, .L191
 1704 0008 53F82030 		ldr	r3, [r3, r0, lsl #2]
 1705 000c CBB1     		cbz	r3, .L182
 1706              		.loc 1 192 5 discriminator 2 view .LVU486
 193:../switch_sdk/core/yt/yt_dot1x.c ****     CMM_PARAM_CHK((!(YT_DISPATCH(unit)->is_inited)), CMM_ERR_NOT_INIT);
 1707              		.loc 1 193 5 discriminator 2 view .LVU487
 1708              		.loc 1 193 5 discriminator 2 view .LVU488
 1709 000e 1878     		ldrb	r0, [r3]	@ zero_extendqisi2
 1710              	.LVL228:
 1711              		.loc 1 193 5 is_stmt 0 discriminator 2 view .LVU489
 1712 0010 28B3     		cbz	r0, .L183
 1713              		.loc 1 193 5 is_stmt 1 discriminator 2 view .LVU490
 194:../switch_sdk/core/yt/yt_dot1x.c ****     CMM_PARAM_CHK((YT_VLAN_ID_MAX < vid), CMM_ERR_EXCEED_RANGE);
 1714              		.loc 1 194 5 discriminator 2 view .LVU491
 1715              		.loc 1 194 5 discriminator 2 view .LVU492
 1716 0012 B1F5805F 		cmp	r1, #4096
 1717 0016 30D2     		bcs	.L184
 1718              		.loc 1 194 5 discriminator 2 view .LVU493
 195:../switch_sdk/core/yt/yt_dot1x.c ****     CMM_PARAM_CHK((YT_ENABLE < enable || YT_DISABLE > enable), CMM_ERR_INPUT);
 1719              		.loc 1 195 5 discriminator 2 view .LVU494
 1720              		.loc 1 195 5 discriminator 2 view .LVU495
 1721 0018 012A     		cmp	r2, #1
 1722 001a 3CD8     		bhi	.L185
 1723              		.loc 1 195 5 discriminator 2 view .LVU496
 196:../switch_sdk/core/yt/yt_dot1x.c **** 
 197:../switch_sdk/core/yt/yt_dot1x.c ****     return YT_DISPATCH(unit)->dot1x_guest_vlan_set(unit, vid, enable);
 1724              		.loc 1 197 5 discriminator 2 view .LVU497
 1725              		.loc 1 197 29 is_stmt 0 discriminator 2 view .LVU498
 1726 001c D3F84431 		ldr	r3, [r3, #324]
 1727              		.loc 1 197 12 discriminator 2 view .LVU499
 1728 0020 6046     		mov	r0, ip
 1729 0022 9847     		blx	r3
 1730              	.LVL229:
 1731              	.L168:
 198:../switch_sdk/core/yt/yt_dot1x.c **** }
 1732              		.loc 1 198 1 view .LVU500
 1733 0024 08BD     		pop	{r3, pc}
 1734              	.LVL230:
 1735              	.L181:
 191:../switch_sdk/core/yt/yt_dot1x.c ****     CMM_PARAM_CHK(NULL == YT_DISPATCH(unit), CMM_ERR_NOT_INIT);
 1736              		.loc 1 191 5 is_stmt 1 discriminator 1 view .LVU501
 191:../switch_sdk/core/yt/yt_dot1x.c ****     CMM_PARAM_CHK(NULL == YT_DISPATCH(unit), CMM_ERR_NOT_INIT);
 1737              		.loc 1 191 5 discriminator 1 view .LVU502
 1738 0026 244B     		ldr	r3, .L191+4
 1739 0028 1B78     		ldrb	r3, [r3]	@ zero_extendqisi2
 1740 002a 012B     		cmp	r3, #1
 1741 002c 01D8     		bhi	.L186
 1742              	.LVL231:
 1743              	.L170:
 191:../switch_sdk/core/yt/yt_dot1x.c ****     CMM_PARAM_CHK(NULL == YT_DISPATCH(unit), CMM_ERR_NOT_INIT);
 1744              		.loc 1 191 5 discriminator 5 view .LVU503
 191:../switch_sdk/core/yt/yt_dot1x.c ****     CMM_PARAM_CHK(NULL == YT_DISPATCH(unit), CMM_ERR_NOT_INIT);
 1745              		.loc 1 191 5 discriminator 5 view .LVU504
 191:../switch_sdk/core/yt/yt_dot1x.c ****     CMM_PARAM_CHK(NULL == YT_DISPATCH(unit), CMM_ERR_NOT_INIT);
 1746              		.loc 1 191 5 discriminator 5 view .LVU505
 1747 002e 0520     		movs	r0, #5
 1748 0030 F8E7     		b	.L168
 1749              	.LVL232:
 1750              	.L186:
 191:../switch_sdk/core/yt/yt_dot1x.c ****     CMM_PARAM_CHK(NULL == YT_DISPATCH(unit), CMM_ERR_NOT_INIT);
 1751              		.loc 1 191 5 discriminator 3 view .LVU506
 1752              	.LBB35:
 191:../switch_sdk/core/yt/yt_dot1x.c ****     CMM_PARAM_CHK(NULL == YT_DISPATCH(unit), CMM_ERR_NOT_INIT);
 1753              		.loc 1 191 5 discriminator 3 view .LVU507
 1754 0032 224B     		ldr	r3, .L191+8
 1755 0034 5A69     		ldr	r2, [r3, #20]
 1756              	.LVL233:
 191:../switch_sdk/core/yt/yt_dot1x.c ****     CMM_PARAM_CHK(NULL == YT_DISPATCH(unit), CMM_ERR_NOT_INIT);
 1757              		.loc 1 191 5 is_stmt 0 discriminator 3 view .LVU508
 1758 0036 224B     		ldr	r3, .L191+12
 1759 0038 9968     		ldr	r1, [r3, #8]
 1760              	.LVL234:
 191:../switch_sdk/core/yt/yt_dot1x.c ****     CMM_PARAM_CHK(NULL == YT_DISPATCH(unit), CMM_ERR_NOT_INIT);
 1761              		.loc 1 191 5 discriminator 3 view .LVU509
 1762 003a 2248     		ldr	r0, .L191+16
 1763              	.LVL235:
 191:../switch_sdk/core/yt/yt_dot1x.c ****     CMM_PARAM_CHK(NULL == YT_DISPATCH(unit), CMM_ERR_NOT_INIT);
 1764              		.loc 1 191 5 discriminator 3 view .LVU510
 1765 003c FFF7FEFF 		bl	osal_printf
 1766              	.LVL236:
 1767 0040 F5E7     		b	.L170
 1768              	.LVL237:
 1769              	.L182:
 191:../switch_sdk/core/yt/yt_dot1x.c ****     CMM_PARAM_CHK(NULL == YT_DISPATCH(unit), CMM_ERR_NOT_INIT);
 1770              		.loc 1 191 5 discriminator 3 view .LVU511
 1771              	.LBE35:
 192:../switch_sdk/core/yt/yt_dot1x.c ****     CMM_PARAM_CHK((!(YT_DISPATCH(unit)->is_inited)), CMM_ERR_NOT_INIT);
 1772              		.loc 1 192 5 is_stmt 1 discriminator 1 view .LVU512
 192:../switch_sdk/core/yt/yt_dot1x.c ****     CMM_PARAM_CHK((!(YT_DISPATCH(unit)->is_inited)), CMM_ERR_NOT_INIT);
 1773              		.loc 1 192 5 discriminator 1 view .LVU513
 1774 0042 1D4B     		ldr	r3, .L191+4
 1775 0044 1B78     		ldrb	r3, [r3]	@ zero_extendqisi2
 1776 0046 012B     		cmp	r3, #1
 1777 0048 01D8     		bhi	.L187
 1778              	.LVL238:
 1779              	.L173:
 192:../switch_sdk/core/yt/yt_dot1x.c ****     CMM_PARAM_CHK((!(YT_DISPATCH(unit)->is_inited)), CMM_ERR_NOT_INIT);
 1780              		.loc 1 192 5 discriminator 5 view .LVU514
 192:../switch_sdk/core/yt/yt_dot1x.c ****     CMM_PARAM_CHK((!(YT_DISPATCH(unit)->is_inited)), CMM_ERR_NOT_INIT);
 1781              		.loc 1 192 5 discriminator 5 view .LVU515
 192:../switch_sdk/core/yt/yt_dot1x.c ****     CMM_PARAM_CHK((!(YT_DISPATCH(unit)->is_inited)), CMM_ERR_NOT_INIT);
 1782              		.loc 1 192 5 discriminator 5 view .LVU516
 1783 004a 0420     		movs	r0, #4
 1784 004c EAE7     		b	.L168
 1785              	.LVL239:
 1786              	.L187:
 192:../switch_sdk/core/yt/yt_dot1x.c ****     CMM_PARAM_CHK((!(YT_DISPATCH(unit)->is_inited)), CMM_ERR_NOT_INIT);
 1787              		.loc 1 192 5 discriminator 3 view .LVU517
 1788              	.LBB36:
 192:../switch_sdk/core/yt/yt_dot1x.c ****     CMM_PARAM_CHK((!(YT_DISPATCH(unit)->is_inited)), CMM_ERR_NOT_INIT);
 1789              		.loc 1 192 5 discriminator 3 view .LVU518
 1790 004e 1B4B     		ldr	r3, .L191+8
 1791 0050 1A69     		ldr	r2, [r3, #16]
 1792              	.LVL240:
 192:../switch_sdk/core/yt/yt_dot1x.c ****     CMM_PARAM_CHK((!(YT_DISPATCH(unit)->is_inited)), CMM_ERR_NOT_INIT);
 1793              		.loc 1 192 5 is_stmt 0 discriminator 3 view .LVU519
 1794 0052 1B4B     		ldr	r3, .L191+12
 1795 0054 9968     		ldr	r1, [r3, #8]
 1796              	.LVL241:
 192:../switch_sdk/core/yt/yt_dot1x.c ****     CMM_PARAM_CHK((!(YT_DISPATCH(unit)->is_inited)), CMM_ERR_NOT_INIT);
 1797              		.loc 1 192 5 discriminator 3 view .LVU520
 1798 0056 1B48     		ldr	r0, .L191+16
 1799              	.LVL242:
 192:../switch_sdk/core/yt/yt_dot1x.c ****     CMM_PARAM_CHK((!(YT_DISPATCH(unit)->is_inited)), CMM_ERR_NOT_INIT);
 1800              		.loc 1 192 5 discriminator 3 view .LVU521
 1801 0058 FFF7FEFF 		bl	osal_printf
 1802              	.LVL243:
 1803 005c F5E7     		b	.L173
 1804              	.LVL244:
 1805              	.L183:
 192:../switch_sdk/core/yt/yt_dot1x.c ****     CMM_PARAM_CHK((!(YT_DISPATCH(unit)->is_inited)), CMM_ERR_NOT_INIT);
 1806              		.loc 1 192 5 discriminator 3 view .LVU522
 1807              	.LBE36:
 193:../switch_sdk/core/yt/yt_dot1x.c ****     CMM_PARAM_CHK((YT_VLAN_ID_MAX < vid), CMM_ERR_EXCEED_RANGE);
 1808              		.loc 1 193 5 is_stmt 1 discriminator 1 view .LVU523
 193:../switch_sdk/core/yt/yt_dot1x.c ****     CMM_PARAM_CHK((YT_VLAN_ID_MAX < vid), CMM_ERR_EXCEED_RANGE);
 1809              		.loc 1 193 5 discriminator 1 view .LVU524
 1810 005e 164B     		ldr	r3, .L191+4
 1811 0060 1B78     		ldrb	r3, [r3]	@ zero_extendqisi2
 1812 0062 012B     		cmp	r3, #1
 1813 0064 01D8     		bhi	.L188
 1814              	.LVL245:
 1815              	.L175:
 193:../switch_sdk/core/yt/yt_dot1x.c ****     CMM_PARAM_CHK((YT_VLAN_ID_MAX < vid), CMM_ERR_EXCEED_RANGE);
 1816              		.loc 1 193 5 discriminator 5 view .LVU525
 193:../switch_sdk/core/yt/yt_dot1x.c ****     CMM_PARAM_CHK((YT_VLAN_ID_MAX < vid), CMM_ERR_EXCEED_RANGE);
 1817              		.loc 1 193 5 discriminator 5 view .LVU526
 193:../switch_sdk/core/yt/yt_dot1x.c ****     CMM_PARAM_CHK((YT_VLAN_ID_MAX < vid), CMM_ERR_EXCEED_RANGE);
 1818              		.loc 1 193 5 discriminator 5 view .LVU527
 1819 0066 0420     		movs	r0, #4
 1820 0068 DCE7     		b	.L168
 1821              	.LVL246:
 1822              	.L188:
 193:../switch_sdk/core/yt/yt_dot1x.c ****     CMM_PARAM_CHK((YT_VLAN_ID_MAX < vid), CMM_ERR_EXCEED_RANGE);
 1823              		.loc 1 193 5 discriminator 3 view .LVU528
 1824              	.LBB37:
 193:../switch_sdk/core/yt/yt_dot1x.c ****     CMM_PARAM_CHK((YT_VLAN_ID_MAX < vid), CMM_ERR_EXCEED_RANGE);
 1825              		.loc 1 193 5 discriminator 3 view .LVU529
 1826 006a 144B     		ldr	r3, .L191+8
 1827 006c 1A69     		ldr	r2, [r3, #16]
 1828              	.LVL247:
 193:../switch_sdk/core/yt/yt_dot1x.c ****     CMM_PARAM_CHK((YT_VLAN_ID_MAX < vid), CMM_ERR_EXCEED_RANGE);
 1829              		.loc 1 193 5 is_stmt 0 discriminator 3 view .LVU530
 1830 006e 144B     		ldr	r3, .L191+12
 1831 0070 9968     		ldr	r1, [r3, #8]
 1832              	.LVL248:
 193:../switch_sdk/core/yt/yt_dot1x.c ****     CMM_PARAM_CHK((YT_VLAN_ID_MAX < vid), CMM_ERR_EXCEED_RANGE);
 1833              		.loc 1 193 5 discriminator 3 view .LVU531
 1834 0072 1448     		ldr	r0, .L191+16
 1835 0074 FFF7FEFF 		bl	osal_printf
 1836              	.LVL249:
 1837 0078 F5E7     		b	.L175
 1838              	.LVL250:
 1839              	.L184:
 193:../switch_sdk/core/yt/yt_dot1x.c ****     CMM_PARAM_CHK((YT_VLAN_ID_MAX < vid), CMM_ERR_EXCEED_RANGE);
 1840              		.loc 1 193 5 discriminator 3 view .LVU532
 1841              	.LBE37:
 194:../switch_sdk/core/yt/yt_dot1x.c ****     CMM_PARAM_CHK((YT_ENABLE < enable || YT_DISABLE > enable), CMM_ERR_INPUT);
 1842              		.loc 1 194 5 is_stmt 1 discriminator 1 view .LVU533
 194:../switch_sdk/core/yt/yt_dot1x.c ****     CMM_PARAM_CHK((YT_ENABLE < enable || YT_DISABLE > enable), CMM_ERR_INPUT);
 1843              		.loc 1 194 5 discriminator 1 view .LVU534
 1844 007a 0F4B     		ldr	r3, .L191+4
 1845 007c 1B78     		ldrb	r3, [r3]	@ zero_extendqisi2
 1846 007e 012B     		cmp	r3, #1
 1847 0080 01D8     		bhi	.L189
 1848              	.LVL251:
 1849              	.L177:
 194:../switch_sdk/core/yt/yt_dot1x.c ****     CMM_PARAM_CHK((YT_ENABLE < enable || YT_DISABLE > enable), CMM_ERR_INPUT);
 1850              		.loc 1 194 5 discriminator 5 view .LVU535
 194:../switch_sdk/core/yt/yt_dot1x.c ****     CMM_PARAM_CHK((YT_ENABLE < enable || YT_DISABLE > enable), CMM_ERR_INPUT);
 1851              		.loc 1 194 5 discriminator 5 view .LVU536
 194:../switch_sdk/core/yt/yt_dot1x.c ****     CMM_PARAM_CHK((YT_ENABLE < enable || YT_DISABLE > enable), CMM_ERR_INPUT);
 1852              		.loc 1 194 5 discriminator 5 view .LVU537
 1853 0082 1120     		movs	r0, #17
 1854 0084 CEE7     		b	.L168
 1855              	.LVL252:
 1856              	.L189:
 194:../switch_sdk/core/yt/yt_dot1x.c ****     CMM_PARAM_CHK((YT_ENABLE < enable || YT_DISABLE > enable), CMM_ERR_INPUT);
 1857              		.loc 1 194 5 discriminator 3 view .LVU538
 1858              	.LBB38:
 194:../switch_sdk/core/yt/yt_dot1x.c ****     CMM_PARAM_CHK((YT_ENABLE < enable || YT_DISABLE > enable), CMM_ERR_INPUT);
 1859              		.loc 1 194 5 discriminator 3 view .LVU539
 1860 0086 0D4B     		ldr	r3, .L191+8
 1861 0088 5A6C     		ldr	r2, [r3, #68]
 1862              	.LVL253:
 194:../switch_sdk/core/yt/yt_dot1x.c ****     CMM_PARAM_CHK((YT_ENABLE < enable || YT_DISABLE > enable), CMM_ERR_INPUT);
 1863              		.loc 1 194 5 is_stmt 0 discriminator 3 view .LVU540
 1864 008a 0D4B     		ldr	r3, .L191+12
 1865 008c 9968     		ldr	r1, [r3, #8]
 1866              	.LVL254:
 194:../switch_sdk/core/yt/yt_dot1x.c ****     CMM_PARAM_CHK((YT_ENABLE < enable || YT_DISABLE > enable), CMM_ERR_INPUT);
 1867              		.loc 1 194 5 discriminator 3 view .LVU541
 1868 008e 0D48     		ldr	r0, .L191+16
 1869 0090 FFF7FEFF 		bl	osal_printf
 1870              	.LVL255:
 1871 0094 F5E7     		b	.L177
 1872              	.LVL256:
 1873              	.L185:
 194:../switch_sdk/core/yt/yt_dot1x.c ****     CMM_PARAM_CHK((YT_ENABLE < enable || YT_DISABLE > enable), CMM_ERR_INPUT);
 1874              		.loc 1 194 5 discriminator 3 view .LVU542
 1875              	.LBE38:
 195:../switch_sdk/core/yt/yt_dot1x.c **** 
 1876              		.loc 1 195 5 is_stmt 1 discriminator 1 view .LVU543
 195:../switch_sdk/core/yt/yt_dot1x.c **** 
 1877              		.loc 1 195 5 discriminator 1 view .LVU544
 1878 0096 084B     		ldr	r3, .L191+4
 1879 0098 1B78     		ldrb	r3, [r3]	@ zero_extendqisi2
 1880 009a 012B     		cmp	r3, #1
 1881 009c 01D8     		bhi	.L190
 1882              	.LVL257:
 1883              	.L179:
 195:../switch_sdk/core/yt/yt_dot1x.c **** 
 1884              		.loc 1 195 5 discriminator 5 view .LVU545
 195:../switch_sdk/core/yt/yt_dot1x.c **** 
 1885              		.loc 1 195 5 discriminator 5 view .LVU546
 195:../switch_sdk/core/yt/yt_dot1x.c **** 
 1886              		.loc 1 195 5 discriminator 5 view .LVU547
 1887 009e 0520     		movs	r0, #5
 1888 00a0 C0E7     		b	.L168
 1889              	.LVL258:
 1890              	.L190:
 195:../switch_sdk/core/yt/yt_dot1x.c **** 
 1891              		.loc 1 195 5 discriminator 3 view .LVU548
 1892              	.LBB39:
 195:../switch_sdk/core/yt/yt_dot1x.c **** 
 1893              		.loc 1 195 5 discriminator 3 view .LVU549
 1894 00a2 064B     		ldr	r3, .L191+8
 1895 00a4 5A69     		ldr	r2, [r3, #20]
 1896              	.LVL259:
 195:../switch_sdk/core/yt/yt_dot1x.c **** 
 1897              		.loc 1 195 5 is_stmt 0 discriminator 3 view .LVU550
 1898 00a6 064B     		ldr	r3, .L191+12
 1899 00a8 9968     		ldr	r1, [r3, #8]
 1900              	.LVL260:
 195:../switch_sdk/core/yt/yt_dot1x.c **** 
 1901              		.loc 1 195 5 discriminator 3 view .LVU551
 1902 00aa 0648     		ldr	r0, .L191+16
 1903 00ac FFF7FEFF 		bl	osal_printf
 1904              	.LVL261:
 1905 00b0 F5E7     		b	.L179
 1906              	.L192:
 1907 00b2 00BF     		.align	2
 1908              	.L191:
 1909 00b4 00000000 		.word	gpfal_dispatch
 1910 00b8 00000000 		.word	yt_debug_level
 1911 00bc 00000000 		.word	_yt_errmsg
 1912 00c0 00000000 		.word	_yt_prompt_msg
 1913 00c4 00000000 		.word	.LC0
 1914              	.LBE39:
 1915              		.cfi_endproc
 1916              	.LFE10:
 1918              		.section	.text.yt_dot1x_guest_vlan_get,"ax",%progbits
 1919              		.align	1
 1920              		.global	yt_dot1x_guest_vlan_get
 1921              		.syntax unified
 1922              		.thumb
 1923              		.thumb_func
 1925              	yt_dot1x_guest_vlan_get:
 1926              	.LVL262:
 1927              	.LFB11:
 199:../switch_sdk/core/yt/yt_dot1x.c **** 
 200:../switch_sdk/core/yt/yt_dot1x.c **** /**
 201:../switch_sdk/core/yt/yt_dot1x.c ****  * @internal      yt_dot1x_guest_vlan_get
 202:../switch_sdk/core/yt/yt_dot1x.c ****  * @endinternal
 203:../switch_sdk/core/yt/yt_dot1x.c ****  *
 204:../switch_sdk/core/yt/yt_dot1x.c ****  * @brief         Description
 205:../switch_sdk/core/yt/yt_dot1x.c ****  * @note          APPLICABLE DEVICES  -Tiger
 206:../switch_sdk/core/yt/yt_dot1x.c ****  * @param[in]     unit                -unit id
 207:../switch_sdk/core/yt/yt_dot1x.c ****  * @param[in]     vid                 -vlan id
 208:../switch_sdk/core/yt/yt_dot1x.c ****  * @param[out]    pEnable             -enable or disable
 209:../switch_sdk/core/yt/yt_dot1x.c ****  * @retval        CMM_ERR_OK          -on success
 210:../switch_sdk/core/yt/yt_dot1x.c ****  * @retval        CMM_ERR_FAIL        -on fail
 211:../switch_sdk/core/yt/yt_dot1x.c ****  */
 212:../switch_sdk/core/yt/yt_dot1x.c **** yt_ret_t yt_dot1x_guest_vlan_get(yt_unit_t unit, yt_vlan_t vid, yt_enable_t *pEnable)
 213:../switch_sdk/core/yt/yt_dot1x.c **** {
 1928              		.loc 1 213 1 is_stmt 1 view -0
 1929              		.cfi_startproc
 1930              		@ args = 0, pretend = 0, frame = 0
 1931              		@ frame_needed = 0, uses_anonymous_args = 0
 1932              		.loc 1 213 1 is_stmt 0 view .LVU553
 1933 0000 08B5     		push	{r3, lr}
 1934              		.cfi_def_cfa_offset 8
 1935              		.cfi_offset 3, -8
 1936              		.cfi_offset 14, -4
 214:../switch_sdk/core/yt/yt_dot1x.c ****     CMM_PARAM_CHK((YT_UNIT_NUM <= unit), CMM_ERR_INPUT);
 1937              		.loc 1 214 5 is_stmt 1 view .LVU554
 1938              		.loc 1 214 5 view .LVU555
 1939 0002 80B9     		cbnz	r0, .L206
 1940 0004 8446     		mov	ip, r0
 1941              		.loc 1 214 5 discriminator 2 view .LVU556
 215:../switch_sdk/core/yt/yt_dot1x.c ****     CMM_PARAM_CHK(NULL == YT_DISPATCH(unit), CMM_ERR_NOT_INIT);
 1942              		.loc 1 215 5 discriminator 2 view .LVU557
 1943              		.loc 1 215 5 discriminator 2 view .LVU558
 1944 0006 2B4B     		ldr	r3, .L216
 1945 0008 53F82030 		ldr	r3, [r3, r0, lsl #2]
 1946 000c CBB1     		cbz	r3, .L207
 1947              		.loc 1 215 5 discriminator 2 view .LVU559
 216:../switch_sdk/core/yt/yt_dot1x.c ****     CMM_PARAM_CHK((!(YT_DISPATCH(unit)->is_inited)), CMM_ERR_NOT_INIT);
 1948              		.loc 1 216 5 discriminator 2 view .LVU560
 1949              		.loc 1 216 5 discriminator 2 view .LVU561
 1950 000e 1878     		ldrb	r0, [r3]	@ zero_extendqisi2
 1951              	.LVL263:
 1952              		.loc 1 216 5 is_stmt 0 discriminator 2 view .LVU562
 1953 0010 28B3     		cbz	r0, .L208
 1954              		.loc 1 216 5 is_stmt 1 discriminator 2 view .LVU563
 217:../switch_sdk/core/yt/yt_dot1x.c ****     CMM_PARAM_CHK((YT_VLAN_ID_MAX < vid), CMM_ERR_EXCEED_RANGE);
 1955              		.loc 1 217 5 discriminator 2 view .LVU564
 1956              		.loc 1 217 5 discriminator 2 view .LVU565
 1957 0012 B1F5805F 		cmp	r1, #4096
 1958 0016 30D2     		bcs	.L209
 1959              		.loc 1 217 5 discriminator 2 view .LVU566
 218:../switch_sdk/core/yt/yt_dot1x.c ****     CMM_PARAM_CHK((NULL == pEnable), CMM_ERR_NULL_POINT);
 1960              		.loc 1 218 5 discriminator 2 view .LVU567
 1961              		.loc 1 218 5 discriminator 2 view .LVU568
 1962 0018 002A     		cmp	r2, #0
 1963 001a 3CD0     		beq	.L210
 1964              		.loc 1 218 5 discriminator 2 view .LVU569
 219:../switch_sdk/core/yt/yt_dot1x.c **** 
 220:../switch_sdk/core/yt/yt_dot1x.c ****     return YT_DISPATCH(unit)->dot1x_guest_vlan_get(unit, vid, pEnable);
 1965              		.loc 1 220 5 discriminator 2 view .LVU570
 1966              		.loc 1 220 29 is_stmt 0 discriminator 2 view .LVU571
 1967 001c D3F84831 		ldr	r3, [r3, #328]
 1968              		.loc 1 220 12 discriminator 2 view .LVU572
 1969 0020 6046     		mov	r0, ip
 1970 0022 9847     		blx	r3
 1971              	.LVL264:
 1972              	.L193:
 221:../switch_sdk/core/yt/yt_dot1x.c **** }
 1973              		.loc 1 221 1 view .LVU573
 1974 0024 08BD     		pop	{r3, pc}
 1975              	.LVL265:
 1976              	.L206:
 214:../switch_sdk/core/yt/yt_dot1x.c ****     CMM_PARAM_CHK(NULL == YT_DISPATCH(unit), CMM_ERR_NOT_INIT);
 1977              		.loc 1 214 5 is_stmt 1 discriminator 1 view .LVU574
 214:../switch_sdk/core/yt/yt_dot1x.c ****     CMM_PARAM_CHK(NULL == YT_DISPATCH(unit), CMM_ERR_NOT_INIT);
 1978              		.loc 1 214 5 discriminator 1 view .LVU575
 1979 0026 244B     		ldr	r3, .L216+4
 1980 0028 1B78     		ldrb	r3, [r3]	@ zero_extendqisi2
 1981 002a 012B     		cmp	r3, #1
 1982 002c 01D8     		bhi	.L211
 1983              	.LVL266:
 1984              	.L195:
 214:../switch_sdk/core/yt/yt_dot1x.c ****     CMM_PARAM_CHK(NULL == YT_DISPATCH(unit), CMM_ERR_NOT_INIT);
 1985              		.loc 1 214 5 discriminator 5 view .LVU576
 214:../switch_sdk/core/yt/yt_dot1x.c ****     CMM_PARAM_CHK(NULL == YT_DISPATCH(unit), CMM_ERR_NOT_INIT);
 1986              		.loc 1 214 5 discriminator 5 view .LVU577
 214:../switch_sdk/core/yt/yt_dot1x.c ****     CMM_PARAM_CHK(NULL == YT_DISPATCH(unit), CMM_ERR_NOT_INIT);
 1987              		.loc 1 214 5 discriminator 5 view .LVU578
 1988 002e 0520     		movs	r0, #5
 1989 0030 F8E7     		b	.L193
 1990              	.LVL267:
 1991              	.L211:
 214:../switch_sdk/core/yt/yt_dot1x.c ****     CMM_PARAM_CHK(NULL == YT_DISPATCH(unit), CMM_ERR_NOT_INIT);
 1992              		.loc 1 214 5 discriminator 3 view .LVU579
 1993              	.LBB40:
 214:../switch_sdk/core/yt/yt_dot1x.c ****     CMM_PARAM_CHK(NULL == YT_DISPATCH(unit), CMM_ERR_NOT_INIT);
 1994              		.loc 1 214 5 discriminator 3 view .LVU580
 1995 0032 224B     		ldr	r3, .L216+8
 1996 0034 5A69     		ldr	r2, [r3, #20]
 1997              	.LVL268:
 214:../switch_sdk/core/yt/yt_dot1x.c ****     CMM_PARAM_CHK(NULL == YT_DISPATCH(unit), CMM_ERR_NOT_INIT);
 1998              		.loc 1 214 5 is_stmt 0 discriminator 3 view .LVU581
 1999 0036 224B     		ldr	r3, .L216+12
 2000 0038 9968     		ldr	r1, [r3, #8]
 2001              	.LVL269:
 214:../switch_sdk/core/yt/yt_dot1x.c ****     CMM_PARAM_CHK(NULL == YT_DISPATCH(unit), CMM_ERR_NOT_INIT);
 2002              		.loc 1 214 5 discriminator 3 view .LVU582
 2003 003a 2248     		ldr	r0, .L216+16
 2004              	.LVL270:
 214:../switch_sdk/core/yt/yt_dot1x.c ****     CMM_PARAM_CHK(NULL == YT_DISPATCH(unit), CMM_ERR_NOT_INIT);
 2005              		.loc 1 214 5 discriminator 3 view .LVU583
 2006 003c FFF7FEFF 		bl	osal_printf
 2007              	.LVL271:
 2008 0040 F5E7     		b	.L195
 2009              	.LVL272:
 2010              	.L207:
 214:../switch_sdk/core/yt/yt_dot1x.c ****     CMM_PARAM_CHK(NULL == YT_DISPATCH(unit), CMM_ERR_NOT_INIT);
 2011              		.loc 1 214 5 discriminator 3 view .LVU584
 2012              	.LBE40:
 215:../switch_sdk/core/yt/yt_dot1x.c ****     CMM_PARAM_CHK((!(YT_DISPATCH(unit)->is_inited)), CMM_ERR_NOT_INIT);
 2013              		.loc 1 215 5 is_stmt 1 discriminator 1 view .LVU585
 215:../switch_sdk/core/yt/yt_dot1x.c ****     CMM_PARAM_CHK((!(YT_DISPATCH(unit)->is_inited)), CMM_ERR_NOT_INIT);
 2014              		.loc 1 215 5 discriminator 1 view .LVU586
 2015 0042 1D4B     		ldr	r3, .L216+4
 2016 0044 1B78     		ldrb	r3, [r3]	@ zero_extendqisi2
 2017 0046 012B     		cmp	r3, #1
 2018 0048 01D8     		bhi	.L212
 2019              	.LVL273:
 2020              	.L198:
 215:../switch_sdk/core/yt/yt_dot1x.c ****     CMM_PARAM_CHK((!(YT_DISPATCH(unit)->is_inited)), CMM_ERR_NOT_INIT);
 2021              		.loc 1 215 5 discriminator 5 view .LVU587
 215:../switch_sdk/core/yt/yt_dot1x.c ****     CMM_PARAM_CHK((!(YT_DISPATCH(unit)->is_inited)), CMM_ERR_NOT_INIT);
 2022              		.loc 1 215 5 discriminator 5 view .LVU588
 215:../switch_sdk/core/yt/yt_dot1x.c ****     CMM_PARAM_CHK((!(YT_DISPATCH(unit)->is_inited)), CMM_ERR_NOT_INIT);
 2023              		.loc 1 215 5 discriminator 5 view .LVU589
 2024 004a 0420     		movs	r0, #4
 2025 004c EAE7     		b	.L193
 2026              	.LVL274:
 2027              	.L212:
 215:../switch_sdk/core/yt/yt_dot1x.c ****     CMM_PARAM_CHK((!(YT_DISPATCH(unit)->is_inited)), CMM_ERR_NOT_INIT);
 2028              		.loc 1 215 5 discriminator 3 view .LVU590
 2029              	.LBB41:
 215:../switch_sdk/core/yt/yt_dot1x.c ****     CMM_PARAM_CHK((!(YT_DISPATCH(unit)->is_inited)), CMM_ERR_NOT_INIT);
 2030              		.loc 1 215 5 discriminator 3 view .LVU591
 2031 004e 1B4B     		ldr	r3, .L216+8
 2032 0050 1A69     		ldr	r2, [r3, #16]
 2033              	.LVL275:
 215:../switch_sdk/core/yt/yt_dot1x.c ****     CMM_PARAM_CHK((!(YT_DISPATCH(unit)->is_inited)), CMM_ERR_NOT_INIT);
 2034              		.loc 1 215 5 is_stmt 0 discriminator 3 view .LVU592
 2035 0052 1B4B     		ldr	r3, .L216+12
 2036 0054 9968     		ldr	r1, [r3, #8]
 2037              	.LVL276:
 215:../switch_sdk/core/yt/yt_dot1x.c ****     CMM_PARAM_CHK((!(YT_DISPATCH(unit)->is_inited)), CMM_ERR_NOT_INIT);
 2038              		.loc 1 215 5 discriminator 3 view .LVU593
 2039 0056 1B48     		ldr	r0, .L216+16
 2040              	.LVL277:
 215:../switch_sdk/core/yt/yt_dot1x.c ****     CMM_PARAM_CHK((!(YT_DISPATCH(unit)->is_inited)), CMM_ERR_NOT_INIT);
 2041              		.loc 1 215 5 discriminator 3 view .LVU594
 2042 0058 FFF7FEFF 		bl	osal_printf
 2043              	.LVL278:
 2044 005c F5E7     		b	.L198
 2045              	.LVL279:
 2046              	.L208:
 215:../switch_sdk/core/yt/yt_dot1x.c ****     CMM_PARAM_CHK((!(YT_DISPATCH(unit)->is_inited)), CMM_ERR_NOT_INIT);
 2047              		.loc 1 215 5 discriminator 3 view .LVU595
 2048              	.LBE41:
 216:../switch_sdk/core/yt/yt_dot1x.c ****     CMM_PARAM_CHK((YT_VLAN_ID_MAX < vid), CMM_ERR_EXCEED_RANGE);
 2049              		.loc 1 216 5 is_stmt 1 discriminator 1 view .LVU596
 216:../switch_sdk/core/yt/yt_dot1x.c ****     CMM_PARAM_CHK((YT_VLAN_ID_MAX < vid), CMM_ERR_EXCEED_RANGE);
 2050              		.loc 1 216 5 discriminator 1 view .LVU597
 2051 005e 164B     		ldr	r3, .L216+4
 2052 0060 1B78     		ldrb	r3, [r3]	@ zero_extendqisi2
 2053 0062 012B     		cmp	r3, #1
 2054 0064 01D8     		bhi	.L213
 2055              	.LVL280:
 2056              	.L200:
 216:../switch_sdk/core/yt/yt_dot1x.c ****     CMM_PARAM_CHK((YT_VLAN_ID_MAX < vid), CMM_ERR_EXCEED_RANGE);
 2057              		.loc 1 216 5 discriminator 5 view .LVU598
 216:../switch_sdk/core/yt/yt_dot1x.c ****     CMM_PARAM_CHK((YT_VLAN_ID_MAX < vid), CMM_ERR_EXCEED_RANGE);
 2058              		.loc 1 216 5 discriminator 5 view .LVU599
 216:../switch_sdk/core/yt/yt_dot1x.c ****     CMM_PARAM_CHK((YT_VLAN_ID_MAX < vid), CMM_ERR_EXCEED_RANGE);
 2059              		.loc 1 216 5 discriminator 5 view .LVU600
 2060 0066 0420     		movs	r0, #4
 2061 0068 DCE7     		b	.L193
 2062              	.LVL281:
 2063              	.L213:
 216:../switch_sdk/core/yt/yt_dot1x.c ****     CMM_PARAM_CHK((YT_VLAN_ID_MAX < vid), CMM_ERR_EXCEED_RANGE);
 2064              		.loc 1 216 5 discriminator 3 view .LVU601
 2065              	.LBB42:
 216:../switch_sdk/core/yt/yt_dot1x.c ****     CMM_PARAM_CHK((YT_VLAN_ID_MAX < vid), CMM_ERR_EXCEED_RANGE);
 2066              		.loc 1 216 5 discriminator 3 view .LVU602
 2067 006a 144B     		ldr	r3, .L216+8
 2068 006c 1A69     		ldr	r2, [r3, #16]
 2069              	.LVL282:
 216:../switch_sdk/core/yt/yt_dot1x.c ****     CMM_PARAM_CHK((YT_VLAN_ID_MAX < vid), CMM_ERR_EXCEED_RANGE);
 2070              		.loc 1 216 5 is_stmt 0 discriminator 3 view .LVU603
 2071 006e 144B     		ldr	r3, .L216+12
 2072 0070 9968     		ldr	r1, [r3, #8]
 2073              	.LVL283:
 216:../switch_sdk/core/yt/yt_dot1x.c ****     CMM_PARAM_CHK((YT_VLAN_ID_MAX < vid), CMM_ERR_EXCEED_RANGE);
 2074              		.loc 1 216 5 discriminator 3 view .LVU604
 2075 0072 1448     		ldr	r0, .L216+16
 2076 0074 FFF7FEFF 		bl	osal_printf
 2077              	.LVL284:
 2078 0078 F5E7     		b	.L200
 2079              	.LVL285:
 2080              	.L209:
 216:../switch_sdk/core/yt/yt_dot1x.c ****     CMM_PARAM_CHK((YT_VLAN_ID_MAX < vid), CMM_ERR_EXCEED_RANGE);
 2081              		.loc 1 216 5 discriminator 3 view .LVU605
 2082              	.LBE42:
 217:../switch_sdk/core/yt/yt_dot1x.c ****     CMM_PARAM_CHK((NULL == pEnable), CMM_ERR_NULL_POINT);
 2083              		.loc 1 217 5 is_stmt 1 discriminator 1 view .LVU606
 217:../switch_sdk/core/yt/yt_dot1x.c ****     CMM_PARAM_CHK((NULL == pEnable), CMM_ERR_NULL_POINT);
 2084              		.loc 1 217 5 discriminator 1 view .LVU607
 2085 007a 0F4B     		ldr	r3, .L216+4
 2086 007c 1B78     		ldrb	r3, [r3]	@ zero_extendqisi2
 2087 007e 012B     		cmp	r3, #1
 2088 0080 01D8     		bhi	.L214
 2089              	.LVL286:
 2090              	.L202:
 217:../switch_sdk/core/yt/yt_dot1x.c ****     CMM_PARAM_CHK((NULL == pEnable), CMM_ERR_NULL_POINT);
 2091              		.loc 1 217 5 discriminator 5 view .LVU608
 217:../switch_sdk/core/yt/yt_dot1x.c ****     CMM_PARAM_CHK((NULL == pEnable), CMM_ERR_NULL_POINT);
 2092              		.loc 1 217 5 discriminator 5 view .LVU609
 217:../switch_sdk/core/yt/yt_dot1x.c ****     CMM_PARAM_CHK((NULL == pEnable), CMM_ERR_NULL_POINT);
 2093              		.loc 1 217 5 discriminator 5 view .LVU610
 2094 0082 1120     		movs	r0, #17
 2095 0084 CEE7     		b	.L193
 2096              	.LVL287:
 2097              	.L214:
 217:../switch_sdk/core/yt/yt_dot1x.c ****     CMM_PARAM_CHK((NULL == pEnable), CMM_ERR_NULL_POINT);
 2098              		.loc 1 217 5 discriminator 3 view .LVU611
 2099              	.LBB43:
 217:../switch_sdk/core/yt/yt_dot1x.c ****     CMM_PARAM_CHK((NULL == pEnable), CMM_ERR_NULL_POINT);
 2100              		.loc 1 217 5 discriminator 3 view .LVU612
 2101 0086 0D4B     		ldr	r3, .L216+8
 2102 0088 5A6C     		ldr	r2, [r3, #68]
 2103              	.LVL288:
 217:../switch_sdk/core/yt/yt_dot1x.c ****     CMM_PARAM_CHK((NULL == pEnable), CMM_ERR_NULL_POINT);
 2104              		.loc 1 217 5 is_stmt 0 discriminator 3 view .LVU613
 2105 008a 0D4B     		ldr	r3, .L216+12
 2106 008c 9968     		ldr	r1, [r3, #8]
 2107              	.LVL289:
 217:../switch_sdk/core/yt/yt_dot1x.c ****     CMM_PARAM_CHK((NULL == pEnable), CMM_ERR_NULL_POINT);
 2108              		.loc 1 217 5 discriminator 3 view .LVU614
 2109 008e 0D48     		ldr	r0, .L216+16
 2110 0090 FFF7FEFF 		bl	osal_printf
 2111              	.LVL290:
 2112 0094 F5E7     		b	.L202
 2113              	.LVL291:
 2114              	.L210:
 217:../switch_sdk/core/yt/yt_dot1x.c ****     CMM_PARAM_CHK((NULL == pEnable), CMM_ERR_NULL_POINT);
 2115              		.loc 1 217 5 discriminator 3 view .LVU615
 2116              	.LBE43:
 218:../switch_sdk/core/yt/yt_dot1x.c **** 
 2117              		.loc 1 218 5 is_stmt 1 discriminator 1 view .LVU616
 218:../switch_sdk/core/yt/yt_dot1x.c **** 
 2118              		.loc 1 218 5 discriminator 1 view .LVU617
 2119 0096 084B     		ldr	r3, .L216+4
 2120 0098 1B78     		ldrb	r3, [r3]	@ zero_extendqisi2
 2121 009a 012B     		cmp	r3, #1
 2122 009c 01D8     		bhi	.L215
 2123              	.LVL292:
 2124              	.L204:
 218:../switch_sdk/core/yt/yt_dot1x.c **** 
 2125              		.loc 1 218 5 discriminator 5 view .LVU618
 218:../switch_sdk/core/yt/yt_dot1x.c **** 
 2126              		.loc 1 218 5 discriminator 5 view .LVU619
 218:../switch_sdk/core/yt/yt_dot1x.c **** 
 2127              		.loc 1 218 5 discriminator 5 view .LVU620
 2128 009e 0220     		movs	r0, #2
 2129 00a0 C0E7     		b	.L193
 2130              	.LVL293:
 2131              	.L215:
 218:../switch_sdk/core/yt/yt_dot1x.c **** 
 2132              		.loc 1 218 5 discriminator 3 view .LVU621
 2133              	.LBB44:
 218:../switch_sdk/core/yt/yt_dot1x.c **** 
 2134              		.loc 1 218 5 discriminator 3 view .LVU622
 2135 00a2 064B     		ldr	r3, .L216+8
 2136 00a4 9A68     		ldr	r2, [r3, #8]
 2137              	.LVL294:
 218:../switch_sdk/core/yt/yt_dot1x.c **** 
 2138              		.loc 1 218 5 is_stmt 0 discriminator 3 view .LVU623
 2139 00a6 064B     		ldr	r3, .L216+12
 2140 00a8 9968     		ldr	r1, [r3, #8]
 2141              	.LVL295:
 218:../switch_sdk/core/yt/yt_dot1x.c **** 
 2142              		.loc 1 218 5 discriminator 3 view .LVU624
 2143 00aa 0648     		ldr	r0, .L216+16
 2144 00ac FFF7FEFF 		bl	osal_printf
 2145              	.LVL296:
 2146 00b0 F5E7     		b	.L204
 2147              	.L217:
 2148 00b2 00BF     		.align	2
 2149              	.L216:
 2150 00b4 00000000 		.word	gpfal_dispatch
 2151 00b8 00000000 		.word	yt_debug_level
 2152 00bc 00000000 		.word	_yt_errmsg
 2153 00c0 00000000 		.word	_yt_prompt_msg
 2154 00c4 00000000 		.word	.LC0
 2155              	.LBE44:
 2156              		.cfi_endproc
 2157              	.LFE11:
 2159              		.section	.text.yt_dot1x_tx_bypass_bc_set,"ax",%progbits
 2160              		.align	1
 2161              		.global	yt_dot1x_tx_bypass_bc_set
 2162              		.syntax unified
 2163              		.thumb
 2164              		.thumb_func
 2166              	yt_dot1x_tx_bypass_bc_set:
 2167              	.LVL297:
 2168              	.LFB12:
 222:../switch_sdk/core/yt/yt_dot1x.c **** 
 223:../switch_sdk/core/yt/yt_dot1x.c **** /**
 224:../switch_sdk/core/yt/yt_dot1x.c ****  * @internal      yt_dot1x_tx_bypass_bc_set
 225:../switch_sdk/core/yt/yt_dot1x.c ****  * @endinternal
 226:../switch_sdk/core/yt/yt_dot1x.c ****  *
 227:../switch_sdk/core/yt/yt_dot1x.c ****  * @brief         Description
 228:../switch_sdk/core/yt/yt_dot1x.c ****  * @note          APPLICABLE DEVICES  -Tiger
 229:../switch_sdk/core/yt/yt_dot1x.c ****  * @param[in]     unit                -unit id
 230:../switch_sdk/core/yt/yt_dot1x.c ****  * @param[in]     enable              -enable or disable
 231:../switch_sdk/core/yt/yt_dot1x.c ****  * @retval        CMM_ERR_OK          -on success
 232:../switch_sdk/core/yt/yt_dot1x.c ****  * @retval        CMM_ERR_FAIL        -on fail
 233:../switch_sdk/core/yt/yt_dot1x.c ****  */
 234:../switch_sdk/core/yt/yt_dot1x.c **** yt_ret_t yt_dot1x_tx_bypass_bc_set(yt_unit_t unit, yt_enable_t enable)
 235:../switch_sdk/core/yt/yt_dot1x.c **** {
 2169              		.loc 1 235 1 is_stmt 1 view -0
 2170              		.cfi_startproc
 2171              		@ args = 0, pretend = 0, frame = 0
 2172              		@ frame_needed = 0, uses_anonymous_args = 0
 2173              		.loc 1 235 1 is_stmt 0 view .LVU626
 2174 0000 08B5     		push	{r3, lr}
 2175              		.cfi_def_cfa_offset 8
 2176              		.cfi_offset 3, -8
 2177              		.cfi_offset 14, -4
 236:../switch_sdk/core/yt/yt_dot1x.c ****     CMM_PARAM_CHK((YT_UNIT_NUM <= unit), CMM_ERR_INPUT);
 2178              		.loc 1 236 5 is_stmt 1 view .LVU627
 2179              		.loc 1 236 5 view .LVU628
 2180 0002 68B9     		cbnz	r0, .L229
 2181 0004 0246     		mov	r2, r0
 2182              		.loc 1 236 5 discriminator 2 view .LVU629
 237:../switch_sdk/core/yt/yt_dot1x.c ****     CMM_PARAM_CHK(NULL == YT_DISPATCH(unit), CMM_ERR_NOT_INIT);
 2183              		.loc 1 237 5 discriminator 2 view .LVU630
 2184              		.loc 1 237 5 discriminator 2 view .LVU631
 2185 0006 224B     		ldr	r3, .L237
 2186 0008 53F82030 		ldr	r3, [r3, r0, lsl #2]
 2187 000c B3B1     		cbz	r3, .L230
 2188              		.loc 1 237 5 discriminator 2 view .LVU632
 238:../switch_sdk/core/yt/yt_dot1x.c ****     CMM_PARAM_CHK((!(YT_DISPATCH(unit)->is_inited)), CMM_ERR_NOT_INIT);
 2189              		.loc 1 238 5 discriminator 2 view .LVU633
 2190              		.loc 1 238 5 discriminator 2 view .LVU634
 2191 000e 1878     		ldrb	r0, [r3]	@ zero_extendqisi2
 2192              	.LVL298:
 2193              		.loc 1 238 5 is_stmt 0 discriminator 2 view .LVU635
 2194 0010 10B3     		cbz	r0, .L231
 2195              		.loc 1 238 5 is_stmt 1 discriminator 2 view .LVU636
 239:../switch_sdk/core/yt/yt_dot1x.c ****     CMM_PARAM_CHK((YT_ENABLE < enable || YT_DISABLE > enable), CMM_ERR_INPUT);
 2196              		.loc 1 239 5 discriminator 2 view .LVU637
 2197              		.loc 1 239 5 discriminator 2 view .LVU638
 2198 0012 0129     		cmp	r1, #1
 2199 0014 2ED8     		bhi	.L232
 2200              		.loc 1 239 5 discriminator 2 view .LVU639
 240:../switch_sdk/core/yt/yt_dot1x.c **** 
 241:../switch_sdk/core/yt/yt_dot1x.c ****     return YT_DISPATCH(unit)->dot1x_tx_bypass_bc_set(unit, enable);
 2201              		.loc 1 241 5 discriminator 2 view .LVU640
 2202              		.loc 1 241 29 is_stmt 0 discriminator 2 view .LVU641
 2203 0016 D3F84C31 		ldr	r3, [r3, #332]
 2204              		.loc 1 241 12 discriminator 2 view .LVU642
 2205 001a 1046     		mov	r0, r2
 2206 001c 9847     		blx	r3
 2207              	.LVL299:
 2208              	.L218:
 242:../switch_sdk/core/yt/yt_dot1x.c **** }
 2209              		.loc 1 242 1 view .LVU643
 2210 001e 08BD     		pop	{r3, pc}
 2211              	.LVL300:
 2212              	.L229:
 236:../switch_sdk/core/yt/yt_dot1x.c ****     CMM_PARAM_CHK(NULL == YT_DISPATCH(unit), CMM_ERR_NOT_INIT);
 2213              		.loc 1 236 5 is_stmt 1 discriminator 1 view .LVU644
 236:../switch_sdk/core/yt/yt_dot1x.c ****     CMM_PARAM_CHK(NULL == YT_DISPATCH(unit), CMM_ERR_NOT_INIT);
 2214              		.loc 1 236 5 discriminator 1 view .LVU645
 2215 0020 1C4B     		ldr	r3, .L237+4
 2216 0022 1B78     		ldrb	r3, [r3]	@ zero_extendqisi2
 2217 0024 012B     		cmp	r3, #1
 2218 0026 01D8     		bhi	.L233
 2219              	.LVL301:
 2220              	.L220:
 236:../switch_sdk/core/yt/yt_dot1x.c ****     CMM_PARAM_CHK(NULL == YT_DISPATCH(unit), CMM_ERR_NOT_INIT);
 2221              		.loc 1 236 5 discriminator 5 view .LVU646
 236:../switch_sdk/core/yt/yt_dot1x.c ****     CMM_PARAM_CHK(NULL == YT_DISPATCH(unit), CMM_ERR_NOT_INIT);
 2222              		.loc 1 236 5 discriminator 5 view .LVU647
 236:../switch_sdk/core/yt/yt_dot1x.c ****     CMM_PARAM_CHK(NULL == YT_DISPATCH(unit), CMM_ERR_NOT_INIT);
 2223              		.loc 1 236 5 discriminator 5 view .LVU648
 2224 0028 0520     		movs	r0, #5
 2225 002a F8E7     		b	.L218
 2226              	.LVL302:
 2227              	.L233:
 236:../switch_sdk/core/yt/yt_dot1x.c ****     CMM_PARAM_CHK(NULL == YT_DISPATCH(unit), CMM_ERR_NOT_INIT);
 2228              		.loc 1 236 5 discriminator 3 view .LVU649
 2229              	.LBB45:
 236:../switch_sdk/core/yt/yt_dot1x.c ****     CMM_PARAM_CHK(NULL == YT_DISPATCH(unit), CMM_ERR_NOT_INIT);
 2230              		.loc 1 236 5 discriminator 3 view .LVU650
 2231 002c 1A4B     		ldr	r3, .L237+8
 2232 002e 5A69     		ldr	r2, [r3, #20]
 2233 0030 1A4B     		ldr	r3, .L237+12
 2234 0032 9968     		ldr	r1, [r3, #8]
 2235              	.LVL303:
 236:../switch_sdk/core/yt/yt_dot1x.c ****     CMM_PARAM_CHK(NULL == YT_DISPATCH(unit), CMM_ERR_NOT_INIT);
 2236              		.loc 1 236 5 is_stmt 0 discriminator 3 view .LVU651
 2237 0034 1A48     		ldr	r0, .L237+16
 2238              	.LVL304:
 236:../switch_sdk/core/yt/yt_dot1x.c ****     CMM_PARAM_CHK(NULL == YT_DISPATCH(unit), CMM_ERR_NOT_INIT);
 2239              		.loc 1 236 5 discriminator 3 view .LVU652
 2240 0036 FFF7FEFF 		bl	osal_printf
 2241              	.LVL305:
 2242 003a F5E7     		b	.L220
 2243              	.LVL306:
 2244              	.L230:
 236:../switch_sdk/core/yt/yt_dot1x.c ****     CMM_PARAM_CHK(NULL == YT_DISPATCH(unit), CMM_ERR_NOT_INIT);
 2245              		.loc 1 236 5 discriminator 3 view .LVU653
 2246              	.LBE45:
 237:../switch_sdk/core/yt/yt_dot1x.c ****     CMM_PARAM_CHK((!(YT_DISPATCH(unit)->is_inited)), CMM_ERR_NOT_INIT);
 2247              		.loc 1 237 5 is_stmt 1 discriminator 1 view .LVU654
 237:../switch_sdk/core/yt/yt_dot1x.c ****     CMM_PARAM_CHK((!(YT_DISPATCH(unit)->is_inited)), CMM_ERR_NOT_INIT);
 2248              		.loc 1 237 5 discriminator 1 view .LVU655
 2249 003c 154B     		ldr	r3, .L237+4
 2250 003e 1B78     		ldrb	r3, [r3]	@ zero_extendqisi2
 2251 0040 012B     		cmp	r3, #1
 2252 0042 01D8     		bhi	.L234
 2253              	.LVL307:
 2254              	.L223:
 237:../switch_sdk/core/yt/yt_dot1x.c ****     CMM_PARAM_CHK((!(YT_DISPATCH(unit)->is_inited)), CMM_ERR_NOT_INIT);
 2255              		.loc 1 237 5 discriminator 5 view .LVU656
 237:../switch_sdk/core/yt/yt_dot1x.c ****     CMM_PARAM_CHK((!(YT_DISPATCH(unit)->is_inited)), CMM_ERR_NOT_INIT);
 2256              		.loc 1 237 5 discriminator 5 view .LVU657
 237:../switch_sdk/core/yt/yt_dot1x.c ****     CMM_PARAM_CHK((!(YT_DISPATCH(unit)->is_inited)), CMM_ERR_NOT_INIT);
 2257              		.loc 1 237 5 discriminator 5 view .LVU658
 2258 0044 0420     		movs	r0, #4
 2259 0046 EAE7     		b	.L218
 2260              	.LVL308:
 2261              	.L234:
 237:../switch_sdk/core/yt/yt_dot1x.c ****     CMM_PARAM_CHK((!(YT_DISPATCH(unit)->is_inited)), CMM_ERR_NOT_INIT);
 2262              		.loc 1 237 5 discriminator 3 view .LVU659
 2263              	.LBB46:
 237:../switch_sdk/core/yt/yt_dot1x.c ****     CMM_PARAM_CHK((!(YT_DISPATCH(unit)->is_inited)), CMM_ERR_NOT_INIT);
 2264              		.loc 1 237 5 discriminator 3 view .LVU660
 2265 0048 134B     		ldr	r3, .L237+8
 2266 004a 1A69     		ldr	r2, [r3, #16]
 2267 004c 134B     		ldr	r3, .L237+12
 2268 004e 9968     		ldr	r1, [r3, #8]
 2269              	.LVL309:
 237:../switch_sdk/core/yt/yt_dot1x.c ****     CMM_PARAM_CHK((!(YT_DISPATCH(unit)->is_inited)), CMM_ERR_NOT_INIT);
 2270              		.loc 1 237 5 is_stmt 0 discriminator 3 view .LVU661
 2271 0050 1348     		ldr	r0, .L237+16
 2272              	.LVL310:
 237:../switch_sdk/core/yt/yt_dot1x.c ****     CMM_PARAM_CHK((!(YT_DISPATCH(unit)->is_inited)), CMM_ERR_NOT_INIT);
 2273              		.loc 1 237 5 discriminator 3 view .LVU662
 2274 0052 FFF7FEFF 		bl	osal_printf
 2275              	.LVL311:
 2276 0056 F5E7     		b	.L223
 2277              	.LVL312:
 2278              	.L231:
 237:../switch_sdk/core/yt/yt_dot1x.c ****     CMM_PARAM_CHK((!(YT_DISPATCH(unit)->is_inited)), CMM_ERR_NOT_INIT);
 2279              		.loc 1 237 5 discriminator 3 view .LVU663
 2280              	.LBE46:
 238:../switch_sdk/core/yt/yt_dot1x.c ****     CMM_PARAM_CHK((YT_ENABLE < enable || YT_DISABLE > enable), CMM_ERR_INPUT);
 2281              		.loc 1 238 5 is_stmt 1 discriminator 1 view .LVU664
 238:../switch_sdk/core/yt/yt_dot1x.c ****     CMM_PARAM_CHK((YT_ENABLE < enable || YT_DISABLE > enable), CMM_ERR_INPUT);
 2282              		.loc 1 238 5 discriminator 1 view .LVU665
 2283 0058 0E4B     		ldr	r3, .L237+4
 2284 005a 1B78     		ldrb	r3, [r3]	@ zero_extendqisi2
 2285 005c 012B     		cmp	r3, #1
 2286 005e 01D8     		bhi	.L235
 2287              	.LVL313:
 2288              	.L225:
 238:../switch_sdk/core/yt/yt_dot1x.c ****     CMM_PARAM_CHK((YT_ENABLE < enable || YT_DISABLE > enable), CMM_ERR_INPUT);
 2289              		.loc 1 238 5 discriminator 5 view .LVU666
 238:../switch_sdk/core/yt/yt_dot1x.c ****     CMM_PARAM_CHK((YT_ENABLE < enable || YT_DISABLE > enable), CMM_ERR_INPUT);
 2290              		.loc 1 238 5 discriminator 5 view .LVU667
 238:../switch_sdk/core/yt/yt_dot1x.c ****     CMM_PARAM_CHK((YT_ENABLE < enable || YT_DISABLE > enable), CMM_ERR_INPUT);
 2291              		.loc 1 238 5 discriminator 5 view .LVU668
 2292 0060 0420     		movs	r0, #4
 2293 0062 DCE7     		b	.L218
 2294              	.LVL314:
 2295              	.L235:
 238:../switch_sdk/core/yt/yt_dot1x.c ****     CMM_PARAM_CHK((YT_ENABLE < enable || YT_DISABLE > enable), CMM_ERR_INPUT);
 2296              		.loc 1 238 5 discriminator 3 view .LVU669
 2297              	.LBB47:
 238:../switch_sdk/core/yt/yt_dot1x.c ****     CMM_PARAM_CHK((YT_ENABLE < enable || YT_DISABLE > enable), CMM_ERR_INPUT);
 2298              		.loc 1 238 5 discriminator 3 view .LVU670
 2299 0064 0C4B     		ldr	r3, .L237+8
 2300 0066 1A69     		ldr	r2, [r3, #16]
 2301 0068 0C4B     		ldr	r3, .L237+12
 2302 006a 9968     		ldr	r1, [r3, #8]
 2303              	.LVL315:
 238:../switch_sdk/core/yt/yt_dot1x.c ****     CMM_PARAM_CHK((YT_ENABLE < enable || YT_DISABLE > enable), CMM_ERR_INPUT);
 2304              		.loc 1 238 5 is_stmt 0 discriminator 3 view .LVU671
 2305 006c 0C48     		ldr	r0, .L237+16
 2306 006e FFF7FEFF 		bl	osal_printf
 2307              	.LVL316:
 2308 0072 F5E7     		b	.L225
 2309              	.LVL317:
 2310              	.L232:
 238:../switch_sdk/core/yt/yt_dot1x.c ****     CMM_PARAM_CHK((YT_ENABLE < enable || YT_DISABLE > enable), CMM_ERR_INPUT);
 2311              		.loc 1 238 5 discriminator 3 view .LVU672
 2312              	.LBE47:
 239:../switch_sdk/core/yt/yt_dot1x.c **** 
 2313              		.loc 1 239 5 is_stmt 1 discriminator 1 view .LVU673
 239:../switch_sdk/core/yt/yt_dot1x.c **** 
 2314              		.loc 1 239 5 discriminator 1 view .LVU674
 2315 0074 074B     		ldr	r3, .L237+4
 2316 0076 1B78     		ldrb	r3, [r3]	@ zero_extendqisi2
 2317 0078 012B     		cmp	r3, #1
 2318 007a 01D8     		bhi	.L236
 2319              	.LVL318:
 2320              	.L227:
 239:../switch_sdk/core/yt/yt_dot1x.c **** 
 2321              		.loc 1 239 5 discriminator 5 view .LVU675
 239:../switch_sdk/core/yt/yt_dot1x.c **** 
 2322              		.loc 1 239 5 discriminator 5 view .LVU676
 239:../switch_sdk/core/yt/yt_dot1x.c **** 
 2323              		.loc 1 239 5 discriminator 5 view .LVU677
 2324 007c 0520     		movs	r0, #5
 2325 007e CEE7     		b	.L218
 2326              	.LVL319:
 2327              	.L236:
 239:../switch_sdk/core/yt/yt_dot1x.c **** 
 2328              		.loc 1 239 5 discriminator 3 view .LVU678
 2329              	.LBB48:
 239:../switch_sdk/core/yt/yt_dot1x.c **** 
 2330              		.loc 1 239 5 discriminator 3 view .LVU679
 2331 0080 054B     		ldr	r3, .L237+8
 2332 0082 5A69     		ldr	r2, [r3, #20]
 2333 0084 054B     		ldr	r3, .L237+12
 2334 0086 9968     		ldr	r1, [r3, #8]
 2335              	.LVL320:
 239:../switch_sdk/core/yt/yt_dot1x.c **** 
 2336              		.loc 1 239 5 is_stmt 0 discriminator 3 view .LVU680
 2337 0088 0548     		ldr	r0, .L237+16
 2338 008a FFF7FEFF 		bl	osal_printf
 2339              	.LVL321:
 2340 008e F5E7     		b	.L227
 2341              	.L238:
 2342              		.align	2
 2343              	.L237:
 2344 0090 00000000 		.word	gpfal_dispatch
 2345 0094 00000000 		.word	yt_debug_level
 2346 0098 00000000 		.word	_yt_errmsg
 2347 009c 00000000 		.word	_yt_prompt_msg
 2348 00a0 00000000 		.word	.LC0
 2349              	.LBE48:
 2350              		.cfi_endproc
 2351              	.LFE12:
 2353              		.section	.text.yt_dot1x_tx_bypass_bc_get,"ax",%progbits
 2354              		.align	1
 2355              		.global	yt_dot1x_tx_bypass_bc_get
 2356              		.syntax unified
 2357              		.thumb
 2358              		.thumb_func
 2360              	yt_dot1x_tx_bypass_bc_get:
 2361              	.LVL322:
 2362              	.LFB13:
 243:../switch_sdk/core/yt/yt_dot1x.c **** 
 244:../switch_sdk/core/yt/yt_dot1x.c **** /**
 245:../switch_sdk/core/yt/yt_dot1x.c ****  * @internal      yt_dot1x_tx_bypass_bc_get
 246:../switch_sdk/core/yt/yt_dot1x.c ****  * @endinternal
 247:../switch_sdk/core/yt/yt_dot1x.c ****  *
 248:../switch_sdk/core/yt/yt_dot1x.c ****  * @brief         Description
 249:../switch_sdk/core/yt/yt_dot1x.c ****  * @note          APPLICABLE DEVICES  -Tiger
 250:../switch_sdk/core/yt/yt_dot1x.c ****  * @param[in]     unit                -unit id
 251:../switch_sdk/core/yt/yt_dot1x.c ****  * @param[out]    pEnable             -enable or disable
 252:../switch_sdk/core/yt/yt_dot1x.c ****  * @retval        CMM_ERR_OK          -on success
 253:../switch_sdk/core/yt/yt_dot1x.c ****  * @retval        CMM_ERR_FAIL        -on fail
 254:../switch_sdk/core/yt/yt_dot1x.c ****  */
 255:../switch_sdk/core/yt/yt_dot1x.c **** yt_ret_t yt_dot1x_tx_bypass_bc_get(yt_unit_t unit, yt_enable_t *pEnable)
 256:../switch_sdk/core/yt/yt_dot1x.c **** {
 2363              		.loc 1 256 1 is_stmt 1 view -0
 2364              		.cfi_startproc
 2365              		@ args = 0, pretend = 0, frame = 0
 2366              		@ frame_needed = 0, uses_anonymous_args = 0
 2367              		.loc 1 256 1 is_stmt 0 view .LVU682
 2368 0000 08B5     		push	{r3, lr}
 2369              		.cfi_def_cfa_offset 8
 2370              		.cfi_offset 3, -8
 2371              		.cfi_offset 14, -4
 257:../switch_sdk/core/yt/yt_dot1x.c ****     CMM_PARAM_CHK((YT_UNIT_NUM <= unit), CMM_ERR_INPUT);
 2372              		.loc 1 257 5 is_stmt 1 view .LVU683
 2373              		.loc 1 257 5 view .LVU684
 2374 0002 68B9     		cbnz	r0, .L250
 2375 0004 0246     		mov	r2, r0
 2376              		.loc 1 257 5 discriminator 2 view .LVU685
 258:../switch_sdk/core/yt/yt_dot1x.c ****     CMM_PARAM_CHK(NULL == YT_DISPATCH(unit), CMM_ERR_NOT_INIT);
 2377              		.loc 1 258 5 discriminator 2 view .LVU686
 2378              		.loc 1 258 5 discriminator 2 view .LVU687
 2379 0006 224B     		ldr	r3, .L258
 2380 0008 53F82030 		ldr	r3, [r3, r0, lsl #2]
 2381 000c B3B1     		cbz	r3, .L251
 2382              		.loc 1 258 5 discriminator 2 view .LVU688
 259:../switch_sdk/core/yt/yt_dot1x.c ****     CMM_PARAM_CHK((!(YT_DISPATCH(unit)->is_inited)), CMM_ERR_NOT_INIT);
 2383              		.loc 1 259 5 discriminator 2 view .LVU689
 2384              		.loc 1 259 5 discriminator 2 view .LVU690
 2385 000e 1878     		ldrb	r0, [r3]	@ zero_extendqisi2
 2386              	.LVL323:
 2387              		.loc 1 259 5 is_stmt 0 discriminator 2 view .LVU691
 2388 0010 10B3     		cbz	r0, .L252
 2389              		.loc 1 259 5 is_stmt 1 discriminator 2 view .LVU692
 260:../switch_sdk/core/yt/yt_dot1x.c ****     CMM_PARAM_CHK((NULL == pEnable), CMM_ERR_NULL_POINT);
 2390              		.loc 1 260 5 discriminator 2 view .LVU693
 2391              		.loc 1 260 5 discriminator 2 view .LVU694
 2392 0012 0029     		cmp	r1, #0
 2393 0014 2ED0     		beq	.L253
 2394              		.loc 1 260 5 discriminator 2 view .LVU695
 261:../switch_sdk/core/yt/yt_dot1x.c **** 
 262:../switch_sdk/core/yt/yt_dot1x.c ****     return YT_DISPATCH(unit)->dot1x_tx_bypass_bc_get(unit, pEnable);
 2395              		.loc 1 262 5 discriminator 2 view .LVU696
 2396              		.loc 1 262 29 is_stmt 0 discriminator 2 view .LVU697
 2397 0016 D3F85031 		ldr	r3, [r3, #336]
 2398              		.loc 1 262 12 discriminator 2 view .LVU698
 2399 001a 1046     		mov	r0, r2
 2400 001c 9847     		blx	r3
 2401              	.LVL324:
 2402              	.L239:
 263:../switch_sdk/core/yt/yt_dot1x.c **** }
 2403              		.loc 1 263 1 view .LVU699
 2404 001e 08BD     		pop	{r3, pc}
 2405              	.LVL325:
 2406              	.L250:
 257:../switch_sdk/core/yt/yt_dot1x.c ****     CMM_PARAM_CHK(NULL == YT_DISPATCH(unit), CMM_ERR_NOT_INIT);
 2407              		.loc 1 257 5 is_stmt 1 discriminator 1 view .LVU700
 257:../switch_sdk/core/yt/yt_dot1x.c ****     CMM_PARAM_CHK(NULL == YT_DISPATCH(unit), CMM_ERR_NOT_INIT);
 2408              		.loc 1 257 5 discriminator 1 view .LVU701
 2409 0020 1C4B     		ldr	r3, .L258+4
 2410 0022 1B78     		ldrb	r3, [r3]	@ zero_extendqisi2
 2411 0024 012B     		cmp	r3, #1
 2412 0026 01D8     		bhi	.L254
 2413              	.LVL326:
 2414              	.L241:
 257:../switch_sdk/core/yt/yt_dot1x.c ****     CMM_PARAM_CHK(NULL == YT_DISPATCH(unit), CMM_ERR_NOT_INIT);
 2415              		.loc 1 257 5 discriminator 5 view .LVU702
 257:../switch_sdk/core/yt/yt_dot1x.c ****     CMM_PARAM_CHK(NULL == YT_DISPATCH(unit), CMM_ERR_NOT_INIT);
 2416              		.loc 1 257 5 discriminator 5 view .LVU703
 257:../switch_sdk/core/yt/yt_dot1x.c ****     CMM_PARAM_CHK(NULL == YT_DISPATCH(unit), CMM_ERR_NOT_INIT);
 2417              		.loc 1 257 5 discriminator 5 view .LVU704
 2418 0028 0520     		movs	r0, #5
 2419 002a F8E7     		b	.L239
 2420              	.LVL327:
 2421              	.L254:
 257:../switch_sdk/core/yt/yt_dot1x.c ****     CMM_PARAM_CHK(NULL == YT_DISPATCH(unit), CMM_ERR_NOT_INIT);
 2422              		.loc 1 257 5 discriminator 3 view .LVU705
 2423              	.LBB49:
 257:../switch_sdk/core/yt/yt_dot1x.c ****     CMM_PARAM_CHK(NULL == YT_DISPATCH(unit), CMM_ERR_NOT_INIT);
 2424              		.loc 1 257 5 discriminator 3 view .LVU706
 2425 002c 1A4B     		ldr	r3, .L258+8
 2426 002e 5A69     		ldr	r2, [r3, #20]
 2427 0030 1A4B     		ldr	r3, .L258+12
 2428 0032 9968     		ldr	r1, [r3, #8]
 2429              	.LVL328:
 257:../switch_sdk/core/yt/yt_dot1x.c ****     CMM_PARAM_CHK(NULL == YT_DISPATCH(unit), CMM_ERR_NOT_INIT);
 2430              		.loc 1 257 5 is_stmt 0 discriminator 3 view .LVU707
 2431 0034 1A48     		ldr	r0, .L258+16
 2432              	.LVL329:
 257:../switch_sdk/core/yt/yt_dot1x.c ****     CMM_PARAM_CHK(NULL == YT_DISPATCH(unit), CMM_ERR_NOT_INIT);
 2433              		.loc 1 257 5 discriminator 3 view .LVU708
 2434 0036 FFF7FEFF 		bl	osal_printf
 2435              	.LVL330:
 2436 003a F5E7     		b	.L241
 2437              	.LVL331:
 2438              	.L251:
 257:../switch_sdk/core/yt/yt_dot1x.c ****     CMM_PARAM_CHK(NULL == YT_DISPATCH(unit), CMM_ERR_NOT_INIT);
 2439              		.loc 1 257 5 discriminator 3 view .LVU709
 2440              	.LBE49:
 258:../switch_sdk/core/yt/yt_dot1x.c ****     CMM_PARAM_CHK((!(YT_DISPATCH(unit)->is_inited)), CMM_ERR_NOT_INIT);
 2441              		.loc 1 258 5 is_stmt 1 discriminator 1 view .LVU710
 258:../switch_sdk/core/yt/yt_dot1x.c ****     CMM_PARAM_CHK((!(YT_DISPATCH(unit)->is_inited)), CMM_ERR_NOT_INIT);
 2442              		.loc 1 258 5 discriminator 1 view .LVU711
 2443 003c 154B     		ldr	r3, .L258+4
 2444 003e 1B78     		ldrb	r3, [r3]	@ zero_extendqisi2
 2445 0040 012B     		cmp	r3, #1
 2446 0042 01D8     		bhi	.L255
 2447              	.LVL332:
 2448              	.L244:
 258:../switch_sdk/core/yt/yt_dot1x.c ****     CMM_PARAM_CHK((!(YT_DISPATCH(unit)->is_inited)), CMM_ERR_NOT_INIT);
 2449              		.loc 1 258 5 discriminator 5 view .LVU712
 258:../switch_sdk/core/yt/yt_dot1x.c ****     CMM_PARAM_CHK((!(YT_DISPATCH(unit)->is_inited)), CMM_ERR_NOT_INIT);
 2450              		.loc 1 258 5 discriminator 5 view .LVU713
 258:../switch_sdk/core/yt/yt_dot1x.c ****     CMM_PARAM_CHK((!(YT_DISPATCH(unit)->is_inited)), CMM_ERR_NOT_INIT);
 2451              		.loc 1 258 5 discriminator 5 view .LVU714
 2452 0044 0420     		movs	r0, #4
 2453 0046 EAE7     		b	.L239
 2454              	.LVL333:
 2455              	.L255:
 258:../switch_sdk/core/yt/yt_dot1x.c ****     CMM_PARAM_CHK((!(YT_DISPATCH(unit)->is_inited)), CMM_ERR_NOT_INIT);
 2456              		.loc 1 258 5 discriminator 3 view .LVU715
 2457              	.LBB50:
 258:../switch_sdk/core/yt/yt_dot1x.c ****     CMM_PARAM_CHK((!(YT_DISPATCH(unit)->is_inited)), CMM_ERR_NOT_INIT);
 2458              		.loc 1 258 5 discriminator 3 view .LVU716
 2459 0048 134B     		ldr	r3, .L258+8
 2460 004a 1A69     		ldr	r2, [r3, #16]
 2461 004c 134B     		ldr	r3, .L258+12
 2462 004e 9968     		ldr	r1, [r3, #8]
 2463              	.LVL334:
 258:../switch_sdk/core/yt/yt_dot1x.c ****     CMM_PARAM_CHK((!(YT_DISPATCH(unit)->is_inited)), CMM_ERR_NOT_INIT);
 2464              		.loc 1 258 5 is_stmt 0 discriminator 3 view .LVU717
 2465 0050 1348     		ldr	r0, .L258+16
 2466              	.LVL335:
 258:../switch_sdk/core/yt/yt_dot1x.c ****     CMM_PARAM_CHK((!(YT_DISPATCH(unit)->is_inited)), CMM_ERR_NOT_INIT);
 2467              		.loc 1 258 5 discriminator 3 view .LVU718
 2468 0052 FFF7FEFF 		bl	osal_printf
 2469              	.LVL336:
 2470 0056 F5E7     		b	.L244
 2471              	.LVL337:
 2472              	.L252:
 258:../switch_sdk/core/yt/yt_dot1x.c ****     CMM_PARAM_CHK((!(YT_DISPATCH(unit)->is_inited)), CMM_ERR_NOT_INIT);
 2473              		.loc 1 258 5 discriminator 3 view .LVU719
 2474              	.LBE50:
 259:../switch_sdk/core/yt/yt_dot1x.c ****     CMM_PARAM_CHK((NULL == pEnable), CMM_ERR_NULL_POINT);
 2475              		.loc 1 259 5 is_stmt 1 discriminator 1 view .LVU720
 259:../switch_sdk/core/yt/yt_dot1x.c ****     CMM_PARAM_CHK((NULL == pEnable), CMM_ERR_NULL_POINT);
 2476              		.loc 1 259 5 discriminator 1 view .LVU721
 2477 0058 0E4B     		ldr	r3, .L258+4
 2478 005a 1B78     		ldrb	r3, [r3]	@ zero_extendqisi2
 2479 005c 012B     		cmp	r3, #1
 2480 005e 01D8     		bhi	.L256
 2481              	.LVL338:
 2482              	.L246:
 259:../switch_sdk/core/yt/yt_dot1x.c ****     CMM_PARAM_CHK((NULL == pEnable), CMM_ERR_NULL_POINT);
 2483              		.loc 1 259 5 discriminator 5 view .LVU722
 259:../switch_sdk/core/yt/yt_dot1x.c ****     CMM_PARAM_CHK((NULL == pEnable), CMM_ERR_NULL_POINT);
 2484              		.loc 1 259 5 discriminator 5 view .LVU723
 259:../switch_sdk/core/yt/yt_dot1x.c ****     CMM_PARAM_CHK((NULL == pEnable), CMM_ERR_NULL_POINT);
 2485              		.loc 1 259 5 discriminator 5 view .LVU724
 2486 0060 0420     		movs	r0, #4
 2487 0062 DCE7     		b	.L239
 2488              	.LVL339:
 2489              	.L256:
 259:../switch_sdk/core/yt/yt_dot1x.c ****     CMM_PARAM_CHK((NULL == pEnable), CMM_ERR_NULL_POINT);
 2490              		.loc 1 259 5 discriminator 3 view .LVU725
 2491              	.LBB51:
 259:../switch_sdk/core/yt/yt_dot1x.c ****     CMM_PARAM_CHK((NULL == pEnable), CMM_ERR_NULL_POINT);
 2492              		.loc 1 259 5 discriminator 3 view .LVU726
 2493 0064 0C4B     		ldr	r3, .L258+8
 2494 0066 1A69     		ldr	r2, [r3, #16]
 2495 0068 0C4B     		ldr	r3, .L258+12
 2496 006a 9968     		ldr	r1, [r3, #8]
 2497              	.LVL340:
 259:../switch_sdk/core/yt/yt_dot1x.c ****     CMM_PARAM_CHK((NULL == pEnable), CMM_ERR_NULL_POINT);
 2498              		.loc 1 259 5 is_stmt 0 discriminator 3 view .LVU727
 2499 006c 0C48     		ldr	r0, .L258+16
 2500 006e FFF7FEFF 		bl	osal_printf
 2501              	.LVL341:
 2502 0072 F5E7     		b	.L246
 2503              	.LVL342:
 2504              	.L253:
 259:../switch_sdk/core/yt/yt_dot1x.c ****     CMM_PARAM_CHK((NULL == pEnable), CMM_ERR_NULL_POINT);
 2505              		.loc 1 259 5 discriminator 3 view .LVU728
 2506              	.LBE51:
 260:../switch_sdk/core/yt/yt_dot1x.c **** 
 2507              		.loc 1 260 5 is_stmt 1 discriminator 1 view .LVU729
 260:../switch_sdk/core/yt/yt_dot1x.c **** 
 2508              		.loc 1 260 5 discriminator 1 view .LVU730
 2509 0074 074B     		ldr	r3, .L258+4
 2510 0076 1B78     		ldrb	r3, [r3]	@ zero_extendqisi2
 2511 0078 012B     		cmp	r3, #1
 2512 007a 01D8     		bhi	.L257
 2513              	.LVL343:
 2514              	.L248:
 260:../switch_sdk/core/yt/yt_dot1x.c **** 
 2515              		.loc 1 260 5 discriminator 5 view .LVU731
 260:../switch_sdk/core/yt/yt_dot1x.c **** 
 2516              		.loc 1 260 5 discriminator 5 view .LVU732
 260:../switch_sdk/core/yt/yt_dot1x.c **** 
 2517              		.loc 1 260 5 discriminator 5 view .LVU733
 2518 007c 0220     		movs	r0, #2
 2519 007e CEE7     		b	.L239
 2520              	.LVL344:
 2521              	.L257:
 260:../switch_sdk/core/yt/yt_dot1x.c **** 
 2522              		.loc 1 260 5 discriminator 3 view .LVU734
 2523              	.LBB52:
 260:../switch_sdk/core/yt/yt_dot1x.c **** 
 2524              		.loc 1 260 5 discriminator 3 view .LVU735
 2525 0080 054B     		ldr	r3, .L258+8
 2526 0082 9A68     		ldr	r2, [r3, #8]
 2527 0084 054B     		ldr	r3, .L258+12
 2528 0086 9968     		ldr	r1, [r3, #8]
 2529              	.LVL345:
 260:../switch_sdk/core/yt/yt_dot1x.c **** 
 2530              		.loc 1 260 5 is_stmt 0 discriminator 3 view .LVU736
 2531 0088 0548     		ldr	r0, .L258+16
 2532 008a FFF7FEFF 		bl	osal_printf
 2533              	.LVL346:
 2534 008e F5E7     		b	.L248
 2535              	.L259:
 2536              		.align	2
 2537              	.L258:
 2538 0090 00000000 		.word	gpfal_dispatch
 2539 0094 00000000 		.word	yt_debug_level
 2540 0098 00000000 		.word	_yt_errmsg
 2541 009c 00000000 		.word	_yt_prompt_msg
 2542 00a0 00000000 		.word	.LC0
 2543              	.LBE52:
 2544              		.cfi_endproc
 2545              	.LFE13:
 2547              		.section	.text.yt_dot1x_tx_bypass_mc_set,"ax",%progbits
 2548              		.align	1
 2549              		.global	yt_dot1x_tx_bypass_mc_set
 2550              		.syntax unified
 2551              		.thumb
 2552              		.thumb_func
 2554              	yt_dot1x_tx_bypass_mc_set:
 2555              	.LVL347:
 2556              	.LFB14:
 264:../switch_sdk/core/yt/yt_dot1x.c **** 
 265:../switch_sdk/core/yt/yt_dot1x.c **** /**
 266:../switch_sdk/core/yt/yt_dot1x.c ****  * @internal      yt_dot1x_tx_bypass_mc_set
 267:../switch_sdk/core/yt/yt_dot1x.c ****  * @endinternal
 268:../switch_sdk/core/yt/yt_dot1x.c ****  *
 269:../switch_sdk/core/yt/yt_dot1x.c ****  * @brief         Description
 270:../switch_sdk/core/yt/yt_dot1x.c ****  * @note          APPLICABLE DEVICES  -Tiger
 271:../switch_sdk/core/yt/yt_dot1x.c ****  * @param[in]     unit                -unit id
 272:../switch_sdk/core/yt/yt_dot1x.c ****  * @param[in]     enable              -enable or disable
 273:../switch_sdk/core/yt/yt_dot1x.c ****  * @retval        CMM_ERR_OK          -on success
 274:../switch_sdk/core/yt/yt_dot1x.c ****  * @retval        CMM_ERR_FAIL        -on fail
 275:../switch_sdk/core/yt/yt_dot1x.c ****  */
 276:../switch_sdk/core/yt/yt_dot1x.c **** yt_ret_t yt_dot1x_tx_bypass_mc_set(yt_unit_t unit, yt_enable_t enable)
 277:../switch_sdk/core/yt/yt_dot1x.c **** {
 2557              		.loc 1 277 1 is_stmt 1 view -0
 2558              		.cfi_startproc
 2559              		@ args = 0, pretend = 0, frame = 0
 2560              		@ frame_needed = 0, uses_anonymous_args = 0
 2561              		.loc 1 277 1 is_stmt 0 view .LVU738
 2562 0000 08B5     		push	{r3, lr}
 2563              		.cfi_def_cfa_offset 8
 2564              		.cfi_offset 3, -8
 2565              		.cfi_offset 14, -4
 278:../switch_sdk/core/yt/yt_dot1x.c ****     CMM_PARAM_CHK((YT_UNIT_NUM <= unit), CMM_ERR_INPUT);
 2566              		.loc 1 278 5 is_stmt 1 view .LVU739
 2567              		.loc 1 278 5 view .LVU740
 2568 0002 68B9     		cbnz	r0, .L271
 2569 0004 0246     		mov	r2, r0
 2570              		.loc 1 278 5 discriminator 2 view .LVU741
 279:../switch_sdk/core/yt/yt_dot1x.c ****     CMM_PARAM_CHK(NULL == YT_DISPATCH(unit), CMM_ERR_NOT_INIT);
 2571              		.loc 1 279 5 discriminator 2 view .LVU742
 2572              		.loc 1 279 5 discriminator 2 view .LVU743
 2573 0006 224B     		ldr	r3, .L279
 2574 0008 53F82030 		ldr	r3, [r3, r0, lsl #2]
 2575 000c B3B1     		cbz	r3, .L272
 2576              		.loc 1 279 5 discriminator 2 view .LVU744
 280:../switch_sdk/core/yt/yt_dot1x.c ****     CMM_PARAM_CHK((!(YT_DISPATCH(unit)->is_inited)), CMM_ERR_NOT_INIT);
 2577              		.loc 1 280 5 discriminator 2 view .LVU745
 2578              		.loc 1 280 5 discriminator 2 view .LVU746
 2579 000e 1878     		ldrb	r0, [r3]	@ zero_extendqisi2
 2580              	.LVL348:
 2581              		.loc 1 280 5 is_stmt 0 discriminator 2 view .LVU747
 2582 0010 10B3     		cbz	r0, .L273
 2583              		.loc 1 280 5 is_stmt 1 discriminator 2 view .LVU748
 281:../switch_sdk/core/yt/yt_dot1x.c ****     CMM_PARAM_CHK((YT_ENABLE < enable || YT_DISABLE > enable), CMM_ERR_INPUT);
 2584              		.loc 1 281 5 discriminator 2 view .LVU749
 2585              		.loc 1 281 5 discriminator 2 view .LVU750
 2586 0012 0129     		cmp	r1, #1
 2587 0014 2ED8     		bhi	.L274
 2588              		.loc 1 281 5 discriminator 2 view .LVU751
 282:../switch_sdk/core/yt/yt_dot1x.c **** 
 283:../switch_sdk/core/yt/yt_dot1x.c ****     return YT_DISPATCH(unit)->dot1x_tx_bypass_mc_set(unit, enable);
 2589              		.loc 1 283 5 discriminator 2 view .LVU752
 2590              		.loc 1 283 29 is_stmt 0 discriminator 2 view .LVU753
 2591 0016 D3F85431 		ldr	r3, [r3, #340]
 2592              		.loc 1 283 12 discriminator 2 view .LVU754
 2593 001a 1046     		mov	r0, r2
 2594 001c 9847     		blx	r3
 2595              	.LVL349:
 2596              	.L260:
 284:../switch_sdk/core/yt/yt_dot1x.c **** }
 2597              		.loc 1 284 1 view .LVU755
 2598 001e 08BD     		pop	{r3, pc}
 2599              	.LVL350:
 2600              	.L271:
 278:../switch_sdk/core/yt/yt_dot1x.c ****     CMM_PARAM_CHK(NULL == YT_DISPATCH(unit), CMM_ERR_NOT_INIT);
 2601              		.loc 1 278 5 is_stmt 1 discriminator 1 view .LVU756
 278:../switch_sdk/core/yt/yt_dot1x.c ****     CMM_PARAM_CHK(NULL == YT_DISPATCH(unit), CMM_ERR_NOT_INIT);
 2602              		.loc 1 278 5 discriminator 1 view .LVU757
 2603 0020 1C4B     		ldr	r3, .L279+4
 2604 0022 1B78     		ldrb	r3, [r3]	@ zero_extendqisi2
 2605 0024 012B     		cmp	r3, #1
 2606 0026 01D8     		bhi	.L275
 2607              	.LVL351:
 2608              	.L262:
 278:../switch_sdk/core/yt/yt_dot1x.c ****     CMM_PARAM_CHK(NULL == YT_DISPATCH(unit), CMM_ERR_NOT_INIT);
 2609              		.loc 1 278 5 discriminator 5 view .LVU758
 278:../switch_sdk/core/yt/yt_dot1x.c ****     CMM_PARAM_CHK(NULL == YT_DISPATCH(unit), CMM_ERR_NOT_INIT);
 2610              		.loc 1 278 5 discriminator 5 view .LVU759
 278:../switch_sdk/core/yt/yt_dot1x.c ****     CMM_PARAM_CHK(NULL == YT_DISPATCH(unit), CMM_ERR_NOT_INIT);
 2611              		.loc 1 278 5 discriminator 5 view .LVU760
 2612 0028 0520     		movs	r0, #5
 2613 002a F8E7     		b	.L260
 2614              	.LVL352:
 2615              	.L275:
 278:../switch_sdk/core/yt/yt_dot1x.c ****     CMM_PARAM_CHK(NULL == YT_DISPATCH(unit), CMM_ERR_NOT_INIT);
 2616              		.loc 1 278 5 discriminator 3 view .LVU761
 2617              	.LBB53:
 278:../switch_sdk/core/yt/yt_dot1x.c ****     CMM_PARAM_CHK(NULL == YT_DISPATCH(unit), CMM_ERR_NOT_INIT);
 2618              		.loc 1 278 5 discriminator 3 view .LVU762
 2619 002c 1A4B     		ldr	r3, .L279+8
 2620 002e 5A69     		ldr	r2, [r3, #20]
 2621 0030 1A4B     		ldr	r3, .L279+12
 2622 0032 9968     		ldr	r1, [r3, #8]
 2623              	.LVL353:
 278:../switch_sdk/core/yt/yt_dot1x.c ****     CMM_PARAM_CHK(NULL == YT_DISPATCH(unit), CMM_ERR_NOT_INIT);
 2624              		.loc 1 278 5 is_stmt 0 discriminator 3 view .LVU763
 2625 0034 1A48     		ldr	r0, .L279+16
 2626              	.LVL354:
 278:../switch_sdk/core/yt/yt_dot1x.c ****     CMM_PARAM_CHK(NULL == YT_DISPATCH(unit), CMM_ERR_NOT_INIT);
 2627              		.loc 1 278 5 discriminator 3 view .LVU764
 2628 0036 FFF7FEFF 		bl	osal_printf
 2629              	.LVL355:
 2630 003a F5E7     		b	.L262
 2631              	.LVL356:
 2632              	.L272:
 278:../switch_sdk/core/yt/yt_dot1x.c ****     CMM_PARAM_CHK(NULL == YT_DISPATCH(unit), CMM_ERR_NOT_INIT);
 2633              		.loc 1 278 5 discriminator 3 view .LVU765
 2634              	.LBE53:
 279:../switch_sdk/core/yt/yt_dot1x.c ****     CMM_PARAM_CHK((!(YT_DISPATCH(unit)->is_inited)), CMM_ERR_NOT_INIT);
 2635              		.loc 1 279 5 is_stmt 1 discriminator 1 view .LVU766
 279:../switch_sdk/core/yt/yt_dot1x.c ****     CMM_PARAM_CHK((!(YT_DISPATCH(unit)->is_inited)), CMM_ERR_NOT_INIT);
 2636              		.loc 1 279 5 discriminator 1 view .LVU767
 2637 003c 154B     		ldr	r3, .L279+4
 2638 003e 1B78     		ldrb	r3, [r3]	@ zero_extendqisi2
 2639 0040 012B     		cmp	r3, #1
 2640 0042 01D8     		bhi	.L276
 2641              	.LVL357:
 2642              	.L265:
 279:../switch_sdk/core/yt/yt_dot1x.c ****     CMM_PARAM_CHK((!(YT_DISPATCH(unit)->is_inited)), CMM_ERR_NOT_INIT);
 2643              		.loc 1 279 5 discriminator 5 view .LVU768
 279:../switch_sdk/core/yt/yt_dot1x.c ****     CMM_PARAM_CHK((!(YT_DISPATCH(unit)->is_inited)), CMM_ERR_NOT_INIT);
 2644              		.loc 1 279 5 discriminator 5 view .LVU769
 279:../switch_sdk/core/yt/yt_dot1x.c ****     CMM_PARAM_CHK((!(YT_DISPATCH(unit)->is_inited)), CMM_ERR_NOT_INIT);
 2645              		.loc 1 279 5 discriminator 5 view .LVU770
 2646 0044 0420     		movs	r0, #4
 2647 0046 EAE7     		b	.L260
 2648              	.LVL358:
 2649              	.L276:
 279:../switch_sdk/core/yt/yt_dot1x.c ****     CMM_PARAM_CHK((!(YT_DISPATCH(unit)->is_inited)), CMM_ERR_NOT_INIT);
 2650              		.loc 1 279 5 discriminator 3 view .LVU771
 2651              	.LBB54:
 279:../switch_sdk/core/yt/yt_dot1x.c ****     CMM_PARAM_CHK((!(YT_DISPATCH(unit)->is_inited)), CMM_ERR_NOT_INIT);
 2652              		.loc 1 279 5 discriminator 3 view .LVU772
 2653 0048 134B     		ldr	r3, .L279+8
 2654 004a 1A69     		ldr	r2, [r3, #16]
 2655 004c 134B     		ldr	r3, .L279+12
 2656 004e 9968     		ldr	r1, [r3, #8]
 2657              	.LVL359:
 279:../switch_sdk/core/yt/yt_dot1x.c ****     CMM_PARAM_CHK((!(YT_DISPATCH(unit)->is_inited)), CMM_ERR_NOT_INIT);
 2658              		.loc 1 279 5 is_stmt 0 discriminator 3 view .LVU773
 2659 0050 1348     		ldr	r0, .L279+16
 2660              	.LVL360:
 279:../switch_sdk/core/yt/yt_dot1x.c ****     CMM_PARAM_CHK((!(YT_DISPATCH(unit)->is_inited)), CMM_ERR_NOT_INIT);
 2661              		.loc 1 279 5 discriminator 3 view .LVU774
 2662 0052 FFF7FEFF 		bl	osal_printf
 2663              	.LVL361:
 2664 0056 F5E7     		b	.L265
 2665              	.LVL362:
 2666              	.L273:
 279:../switch_sdk/core/yt/yt_dot1x.c ****     CMM_PARAM_CHK((!(YT_DISPATCH(unit)->is_inited)), CMM_ERR_NOT_INIT);
 2667              		.loc 1 279 5 discriminator 3 view .LVU775
 2668              	.LBE54:
 280:../switch_sdk/core/yt/yt_dot1x.c ****     CMM_PARAM_CHK((YT_ENABLE < enable || YT_DISABLE > enable), CMM_ERR_INPUT);
 2669              		.loc 1 280 5 is_stmt 1 discriminator 1 view .LVU776
 280:../switch_sdk/core/yt/yt_dot1x.c ****     CMM_PARAM_CHK((YT_ENABLE < enable || YT_DISABLE > enable), CMM_ERR_INPUT);
 2670              		.loc 1 280 5 discriminator 1 view .LVU777
 2671 0058 0E4B     		ldr	r3, .L279+4
 2672 005a 1B78     		ldrb	r3, [r3]	@ zero_extendqisi2
 2673 005c 012B     		cmp	r3, #1
 2674 005e 01D8     		bhi	.L277
 2675              	.LVL363:
 2676              	.L267:
 280:../switch_sdk/core/yt/yt_dot1x.c ****     CMM_PARAM_CHK((YT_ENABLE < enable || YT_DISABLE > enable), CMM_ERR_INPUT);
 2677              		.loc 1 280 5 discriminator 5 view .LVU778
 280:../switch_sdk/core/yt/yt_dot1x.c ****     CMM_PARAM_CHK((YT_ENABLE < enable || YT_DISABLE > enable), CMM_ERR_INPUT);
 2678              		.loc 1 280 5 discriminator 5 view .LVU779
 280:../switch_sdk/core/yt/yt_dot1x.c ****     CMM_PARAM_CHK((YT_ENABLE < enable || YT_DISABLE > enable), CMM_ERR_INPUT);
 2679              		.loc 1 280 5 discriminator 5 view .LVU780
 2680 0060 0420     		movs	r0, #4
 2681 0062 DCE7     		b	.L260
 2682              	.LVL364:
 2683              	.L277:
 280:../switch_sdk/core/yt/yt_dot1x.c ****     CMM_PARAM_CHK((YT_ENABLE < enable || YT_DISABLE > enable), CMM_ERR_INPUT);
 2684              		.loc 1 280 5 discriminator 3 view .LVU781
 2685              	.LBB55:
 280:../switch_sdk/core/yt/yt_dot1x.c ****     CMM_PARAM_CHK((YT_ENABLE < enable || YT_DISABLE > enable), CMM_ERR_INPUT);
 2686              		.loc 1 280 5 discriminator 3 view .LVU782
 2687 0064 0C4B     		ldr	r3, .L279+8
 2688 0066 1A69     		ldr	r2, [r3, #16]
 2689 0068 0C4B     		ldr	r3, .L279+12
 2690 006a 9968     		ldr	r1, [r3, #8]
 2691              	.LVL365:
 280:../switch_sdk/core/yt/yt_dot1x.c ****     CMM_PARAM_CHK((YT_ENABLE < enable || YT_DISABLE > enable), CMM_ERR_INPUT);
 2692              		.loc 1 280 5 is_stmt 0 discriminator 3 view .LVU783
 2693 006c 0C48     		ldr	r0, .L279+16
 2694 006e FFF7FEFF 		bl	osal_printf
 2695              	.LVL366:
 2696 0072 F5E7     		b	.L267
 2697              	.LVL367:
 2698              	.L274:
 280:../switch_sdk/core/yt/yt_dot1x.c ****     CMM_PARAM_CHK((YT_ENABLE < enable || YT_DISABLE > enable), CMM_ERR_INPUT);
 2699              		.loc 1 280 5 discriminator 3 view .LVU784
 2700              	.LBE55:
 281:../switch_sdk/core/yt/yt_dot1x.c **** 
 2701              		.loc 1 281 5 is_stmt 1 discriminator 1 view .LVU785
 281:../switch_sdk/core/yt/yt_dot1x.c **** 
 2702              		.loc 1 281 5 discriminator 1 view .LVU786
 2703 0074 074B     		ldr	r3, .L279+4
 2704 0076 1B78     		ldrb	r3, [r3]	@ zero_extendqisi2
 2705 0078 012B     		cmp	r3, #1
 2706 007a 01D8     		bhi	.L278
 2707              	.LVL368:
 2708              	.L269:
 281:../switch_sdk/core/yt/yt_dot1x.c **** 
 2709              		.loc 1 281 5 discriminator 5 view .LVU787
 281:../switch_sdk/core/yt/yt_dot1x.c **** 
 2710              		.loc 1 281 5 discriminator 5 view .LVU788
 281:../switch_sdk/core/yt/yt_dot1x.c **** 
 2711              		.loc 1 281 5 discriminator 5 view .LVU789
 2712 007c 0520     		movs	r0, #5
 2713 007e CEE7     		b	.L260
 2714              	.LVL369:
 2715              	.L278:
 281:../switch_sdk/core/yt/yt_dot1x.c **** 
 2716              		.loc 1 281 5 discriminator 3 view .LVU790
 2717              	.LBB56:
 281:../switch_sdk/core/yt/yt_dot1x.c **** 
 2718              		.loc 1 281 5 discriminator 3 view .LVU791
 2719 0080 054B     		ldr	r3, .L279+8
 2720 0082 5A69     		ldr	r2, [r3, #20]
 2721 0084 054B     		ldr	r3, .L279+12
 2722 0086 9968     		ldr	r1, [r3, #8]
 2723              	.LVL370:
 281:../switch_sdk/core/yt/yt_dot1x.c **** 
 2724              		.loc 1 281 5 is_stmt 0 discriminator 3 view .LVU792
 2725 0088 0548     		ldr	r0, .L279+16
 2726 008a FFF7FEFF 		bl	osal_printf
 2727              	.LVL371:
 2728 008e F5E7     		b	.L269
 2729              	.L280:
 2730              		.align	2
 2731              	.L279:
 2732 0090 00000000 		.word	gpfal_dispatch
 2733 0094 00000000 		.word	yt_debug_level
 2734 0098 00000000 		.word	_yt_errmsg
 2735 009c 00000000 		.word	_yt_prompt_msg
 2736 00a0 00000000 		.word	.LC0
 2737              	.LBE56:
 2738              		.cfi_endproc
 2739              	.LFE14:
 2741              		.section	.text.yt_dot1x_tx_bypass_mc_get,"ax",%progbits
 2742              		.align	1
 2743              		.global	yt_dot1x_tx_bypass_mc_get
 2744              		.syntax unified
 2745              		.thumb
 2746              		.thumb_func
 2748              	yt_dot1x_tx_bypass_mc_get:
 2749              	.LVL372:
 2750              	.LFB15:
 285:../switch_sdk/core/yt/yt_dot1x.c **** 
 286:../switch_sdk/core/yt/yt_dot1x.c **** /**
 287:../switch_sdk/core/yt/yt_dot1x.c ****  * @internal      yt_dot1x_tx_bypass_mc_get
 288:../switch_sdk/core/yt/yt_dot1x.c ****  * @endinternal
 289:../switch_sdk/core/yt/yt_dot1x.c ****  *
 290:../switch_sdk/core/yt/yt_dot1x.c ****  * @brief         Description
 291:../switch_sdk/core/yt/yt_dot1x.c ****  * @note          APPLICABLE DEVICES  -Tiger
 292:../switch_sdk/core/yt/yt_dot1x.c ****  * @param[in]     unit                -unit id
 293:../switch_sdk/core/yt/yt_dot1x.c ****  * @param[out]    pEnable             -enable or disable
 294:../switch_sdk/core/yt/yt_dot1x.c ****  * @retval        CMM_ERR_OK          -on success
 295:../switch_sdk/core/yt/yt_dot1x.c ****  * @retval        CMM_ERR_FAIL        -on fail
 296:../switch_sdk/core/yt/yt_dot1x.c ****  */
 297:../switch_sdk/core/yt/yt_dot1x.c **** yt_ret_t yt_dot1x_tx_bypass_mc_get(yt_unit_t unit, yt_enable_t *pEnable)
 298:../switch_sdk/core/yt/yt_dot1x.c **** {
 2751              		.loc 1 298 1 is_stmt 1 view -0
 2752              		.cfi_startproc
 2753              		@ args = 0, pretend = 0, frame = 0
 2754              		@ frame_needed = 0, uses_anonymous_args = 0
 2755              		.loc 1 298 1 is_stmt 0 view .LVU794
 2756 0000 08B5     		push	{r3, lr}
 2757              		.cfi_def_cfa_offset 8
 2758              		.cfi_offset 3, -8
 2759              		.cfi_offset 14, -4
 299:../switch_sdk/core/yt/yt_dot1x.c ****     CMM_PARAM_CHK((YT_UNIT_NUM <= unit), CMM_ERR_INPUT);
 2760              		.loc 1 299 5 is_stmt 1 view .LVU795
 2761              		.loc 1 299 5 view .LVU796
 2762 0002 68B9     		cbnz	r0, .L292
 2763 0004 0246     		mov	r2, r0
 2764              		.loc 1 299 5 discriminator 2 view .LVU797
 300:../switch_sdk/core/yt/yt_dot1x.c ****     CMM_PARAM_CHK(NULL == YT_DISPATCH(unit), CMM_ERR_NOT_INIT);
 2765              		.loc 1 300 5 discriminator 2 view .LVU798
 2766              		.loc 1 300 5 discriminator 2 view .LVU799
 2767 0006 224B     		ldr	r3, .L300
 2768 0008 53F82030 		ldr	r3, [r3, r0, lsl #2]
 2769 000c B3B1     		cbz	r3, .L293
 2770              		.loc 1 300 5 discriminator 2 view .LVU800
 301:../switch_sdk/core/yt/yt_dot1x.c ****     CMM_PARAM_CHK((!(YT_DISPATCH(unit)->is_inited)), CMM_ERR_NOT_INIT);
 2771              		.loc 1 301 5 discriminator 2 view .LVU801
 2772              		.loc 1 301 5 discriminator 2 view .LVU802
 2773 000e 1878     		ldrb	r0, [r3]	@ zero_extendqisi2
 2774              	.LVL373:
 2775              		.loc 1 301 5 is_stmt 0 discriminator 2 view .LVU803
 2776 0010 10B3     		cbz	r0, .L294
 2777              		.loc 1 301 5 is_stmt 1 discriminator 2 view .LVU804
 302:../switch_sdk/core/yt/yt_dot1x.c ****     CMM_PARAM_CHK((NULL == pEnable), CMM_ERR_NULL_POINT);
 2778              		.loc 1 302 5 discriminator 2 view .LVU805
 2779              		.loc 1 302 5 discriminator 2 view .LVU806
 2780 0012 0029     		cmp	r1, #0
 2781 0014 2ED0     		beq	.L295
 2782              		.loc 1 302 5 discriminator 2 view .LVU807
 303:../switch_sdk/core/yt/yt_dot1x.c **** 
 304:../switch_sdk/core/yt/yt_dot1x.c ****     return YT_DISPATCH(unit)->dot1x_tx_bypass_mc_get(unit, pEnable);
 2783              		.loc 1 304 5 discriminator 2 view .LVU808
 2784              		.loc 1 304 29 is_stmt 0 discriminator 2 view .LVU809
 2785 0016 D3F85831 		ldr	r3, [r3, #344]
 2786              		.loc 1 304 12 discriminator 2 view .LVU810
 2787 001a 1046     		mov	r0, r2
 2788 001c 9847     		blx	r3
 2789              	.LVL374:
 2790              	.L281:
 305:../switch_sdk/core/yt/yt_dot1x.c **** }
 2791              		.loc 1 305 1 view .LVU811
 2792 001e 08BD     		pop	{r3, pc}
 2793              	.LVL375:
 2794              	.L292:
 299:../switch_sdk/core/yt/yt_dot1x.c ****     CMM_PARAM_CHK(NULL == YT_DISPATCH(unit), CMM_ERR_NOT_INIT);
 2795              		.loc 1 299 5 is_stmt 1 discriminator 1 view .LVU812
 299:../switch_sdk/core/yt/yt_dot1x.c ****     CMM_PARAM_CHK(NULL == YT_DISPATCH(unit), CMM_ERR_NOT_INIT);
 2796              		.loc 1 299 5 discriminator 1 view .LVU813
 2797 0020 1C4B     		ldr	r3, .L300+4
 2798 0022 1B78     		ldrb	r3, [r3]	@ zero_extendqisi2
 2799 0024 012B     		cmp	r3, #1
 2800 0026 01D8     		bhi	.L296
 2801              	.LVL376:
 2802              	.L283:
 299:../switch_sdk/core/yt/yt_dot1x.c ****     CMM_PARAM_CHK(NULL == YT_DISPATCH(unit), CMM_ERR_NOT_INIT);
 2803              		.loc 1 299 5 discriminator 5 view .LVU814
 299:../switch_sdk/core/yt/yt_dot1x.c ****     CMM_PARAM_CHK(NULL == YT_DISPATCH(unit), CMM_ERR_NOT_INIT);
 2804              		.loc 1 299 5 discriminator 5 view .LVU815
 299:../switch_sdk/core/yt/yt_dot1x.c ****     CMM_PARAM_CHK(NULL == YT_DISPATCH(unit), CMM_ERR_NOT_INIT);
 2805              		.loc 1 299 5 discriminator 5 view .LVU816
 2806 0028 0520     		movs	r0, #5
 2807 002a F8E7     		b	.L281
 2808              	.LVL377:
 2809              	.L296:
 299:../switch_sdk/core/yt/yt_dot1x.c ****     CMM_PARAM_CHK(NULL == YT_DISPATCH(unit), CMM_ERR_NOT_INIT);
 2810              		.loc 1 299 5 discriminator 3 view .LVU817
 2811              	.LBB57:
 299:../switch_sdk/core/yt/yt_dot1x.c ****     CMM_PARAM_CHK(NULL == YT_DISPATCH(unit), CMM_ERR_NOT_INIT);
 2812              		.loc 1 299 5 discriminator 3 view .LVU818
 2813 002c 1A4B     		ldr	r3, .L300+8
 2814 002e 5A69     		ldr	r2, [r3, #20]
 2815 0030 1A4B     		ldr	r3, .L300+12
 2816 0032 9968     		ldr	r1, [r3, #8]
 2817              	.LVL378:
 299:../switch_sdk/core/yt/yt_dot1x.c ****     CMM_PARAM_CHK(NULL == YT_DISPATCH(unit), CMM_ERR_NOT_INIT);
 2818              		.loc 1 299 5 is_stmt 0 discriminator 3 view .LVU819
 2819 0034 1A48     		ldr	r0, .L300+16
 2820              	.LVL379:
 299:../switch_sdk/core/yt/yt_dot1x.c ****     CMM_PARAM_CHK(NULL == YT_DISPATCH(unit), CMM_ERR_NOT_INIT);
 2821              		.loc 1 299 5 discriminator 3 view .LVU820
 2822 0036 FFF7FEFF 		bl	osal_printf
 2823              	.LVL380:
 2824 003a F5E7     		b	.L283
 2825              	.LVL381:
 2826              	.L293:
 299:../switch_sdk/core/yt/yt_dot1x.c ****     CMM_PARAM_CHK(NULL == YT_DISPATCH(unit), CMM_ERR_NOT_INIT);
 2827              		.loc 1 299 5 discriminator 3 view .LVU821
 2828              	.LBE57:
 300:../switch_sdk/core/yt/yt_dot1x.c ****     CMM_PARAM_CHK((!(YT_DISPATCH(unit)->is_inited)), CMM_ERR_NOT_INIT);
 2829              		.loc 1 300 5 is_stmt 1 discriminator 1 view .LVU822
 300:../switch_sdk/core/yt/yt_dot1x.c ****     CMM_PARAM_CHK((!(YT_DISPATCH(unit)->is_inited)), CMM_ERR_NOT_INIT);
 2830              		.loc 1 300 5 discriminator 1 view .LVU823
 2831 003c 154B     		ldr	r3, .L300+4
 2832 003e 1B78     		ldrb	r3, [r3]	@ zero_extendqisi2
 2833 0040 012B     		cmp	r3, #1
 2834 0042 01D8     		bhi	.L297
 2835              	.LVL382:
 2836              	.L286:
 300:../switch_sdk/core/yt/yt_dot1x.c ****     CMM_PARAM_CHK((!(YT_DISPATCH(unit)->is_inited)), CMM_ERR_NOT_INIT);
 2837              		.loc 1 300 5 discriminator 5 view .LVU824
 300:../switch_sdk/core/yt/yt_dot1x.c ****     CMM_PARAM_CHK((!(YT_DISPATCH(unit)->is_inited)), CMM_ERR_NOT_INIT);
 2838              		.loc 1 300 5 discriminator 5 view .LVU825
 300:../switch_sdk/core/yt/yt_dot1x.c ****     CMM_PARAM_CHK((!(YT_DISPATCH(unit)->is_inited)), CMM_ERR_NOT_INIT);
 2839              		.loc 1 300 5 discriminator 5 view .LVU826
 2840 0044 0420     		movs	r0, #4
 2841 0046 EAE7     		b	.L281
 2842              	.LVL383:
 2843              	.L297:
 300:../switch_sdk/core/yt/yt_dot1x.c ****     CMM_PARAM_CHK((!(YT_DISPATCH(unit)->is_inited)), CMM_ERR_NOT_INIT);
 2844              		.loc 1 300 5 discriminator 3 view .LVU827
 2845              	.LBB58:
 300:../switch_sdk/core/yt/yt_dot1x.c ****     CMM_PARAM_CHK((!(YT_DISPATCH(unit)->is_inited)), CMM_ERR_NOT_INIT);
 2846              		.loc 1 300 5 discriminator 3 view .LVU828
 2847 0048 134B     		ldr	r3, .L300+8
 2848 004a 1A69     		ldr	r2, [r3, #16]
 2849 004c 134B     		ldr	r3, .L300+12
 2850 004e 9968     		ldr	r1, [r3, #8]
 2851              	.LVL384:
 300:../switch_sdk/core/yt/yt_dot1x.c ****     CMM_PARAM_CHK((!(YT_DISPATCH(unit)->is_inited)), CMM_ERR_NOT_INIT);
 2852              		.loc 1 300 5 is_stmt 0 discriminator 3 view .LVU829
 2853 0050 1348     		ldr	r0, .L300+16
 2854              	.LVL385:
 300:../switch_sdk/core/yt/yt_dot1x.c ****     CMM_PARAM_CHK((!(YT_DISPATCH(unit)->is_inited)), CMM_ERR_NOT_INIT);
 2855              		.loc 1 300 5 discriminator 3 view .LVU830
 2856 0052 FFF7FEFF 		bl	osal_printf
 2857              	.LVL386:
 2858 0056 F5E7     		b	.L286
 2859              	.LVL387:
 2860              	.L294:
 300:../switch_sdk/core/yt/yt_dot1x.c ****     CMM_PARAM_CHK((!(YT_DISPATCH(unit)->is_inited)), CMM_ERR_NOT_INIT);
 2861              		.loc 1 300 5 discriminator 3 view .LVU831
 2862              	.LBE58:
 301:../switch_sdk/core/yt/yt_dot1x.c ****     CMM_PARAM_CHK((NULL == pEnable), CMM_ERR_NULL_POINT);
 2863              		.loc 1 301 5 is_stmt 1 discriminator 1 view .LVU832
 301:../switch_sdk/core/yt/yt_dot1x.c ****     CMM_PARAM_CHK((NULL == pEnable), CMM_ERR_NULL_POINT);
 2864              		.loc 1 301 5 discriminator 1 view .LVU833
 2865 0058 0E4B     		ldr	r3, .L300+4
 2866 005a 1B78     		ldrb	r3, [r3]	@ zero_extendqisi2
 2867 005c 012B     		cmp	r3, #1
 2868 005e 01D8     		bhi	.L298
 2869              	.LVL388:
 2870              	.L288:
 301:../switch_sdk/core/yt/yt_dot1x.c ****     CMM_PARAM_CHK((NULL == pEnable), CMM_ERR_NULL_POINT);
 2871              		.loc 1 301 5 discriminator 5 view .LVU834
 301:../switch_sdk/core/yt/yt_dot1x.c ****     CMM_PARAM_CHK((NULL == pEnable), CMM_ERR_NULL_POINT);
 2872              		.loc 1 301 5 discriminator 5 view .LVU835
 301:../switch_sdk/core/yt/yt_dot1x.c ****     CMM_PARAM_CHK((NULL == pEnable), CMM_ERR_NULL_POINT);
 2873              		.loc 1 301 5 discriminator 5 view .LVU836
 2874 0060 0420     		movs	r0, #4
 2875 0062 DCE7     		b	.L281
 2876              	.LVL389:
 2877              	.L298:
 301:../switch_sdk/core/yt/yt_dot1x.c ****     CMM_PARAM_CHK((NULL == pEnable), CMM_ERR_NULL_POINT);
 2878              		.loc 1 301 5 discriminator 3 view .LVU837
 2879              	.LBB59:
 301:../switch_sdk/core/yt/yt_dot1x.c ****     CMM_PARAM_CHK((NULL == pEnable), CMM_ERR_NULL_POINT);
 2880              		.loc 1 301 5 discriminator 3 view .LVU838
 2881 0064 0C4B     		ldr	r3, .L300+8
 2882 0066 1A69     		ldr	r2, [r3, #16]
 2883 0068 0C4B     		ldr	r3, .L300+12
 2884 006a 9968     		ldr	r1, [r3, #8]
 2885              	.LVL390:
 301:../switch_sdk/core/yt/yt_dot1x.c ****     CMM_PARAM_CHK((NULL == pEnable), CMM_ERR_NULL_POINT);
 2886              		.loc 1 301 5 is_stmt 0 discriminator 3 view .LVU839
 2887 006c 0C48     		ldr	r0, .L300+16
 2888 006e FFF7FEFF 		bl	osal_printf
 2889              	.LVL391:
 2890 0072 F5E7     		b	.L288
 2891              	.LVL392:
 2892              	.L295:
 301:../switch_sdk/core/yt/yt_dot1x.c ****     CMM_PARAM_CHK((NULL == pEnable), CMM_ERR_NULL_POINT);
 2893              		.loc 1 301 5 discriminator 3 view .LVU840
 2894              	.LBE59:
 302:../switch_sdk/core/yt/yt_dot1x.c **** 
 2895              		.loc 1 302 5 is_stmt 1 discriminator 1 view .LVU841
 302:../switch_sdk/core/yt/yt_dot1x.c **** 
 2896              		.loc 1 302 5 discriminator 1 view .LVU842
 2897 0074 074B     		ldr	r3, .L300+4
 2898 0076 1B78     		ldrb	r3, [r3]	@ zero_extendqisi2
 2899 0078 012B     		cmp	r3, #1
 2900 007a 01D8     		bhi	.L299
 2901              	.LVL393:
 2902              	.L290:
 302:../switch_sdk/core/yt/yt_dot1x.c **** 
 2903              		.loc 1 302 5 discriminator 5 view .LVU843
 302:../switch_sdk/core/yt/yt_dot1x.c **** 
 2904              		.loc 1 302 5 discriminator 5 view .LVU844
 302:../switch_sdk/core/yt/yt_dot1x.c **** 
 2905              		.loc 1 302 5 discriminator 5 view .LVU845
 2906 007c 0220     		movs	r0, #2
 2907 007e CEE7     		b	.L281
 2908              	.LVL394:
 2909              	.L299:
 302:../switch_sdk/core/yt/yt_dot1x.c **** 
 2910              		.loc 1 302 5 discriminator 3 view .LVU846
 2911              	.LBB60:
 302:../switch_sdk/core/yt/yt_dot1x.c **** 
 2912              		.loc 1 302 5 discriminator 3 view .LVU847
 2913 0080 054B     		ldr	r3, .L300+8
 2914 0082 9A68     		ldr	r2, [r3, #8]
 2915 0084 054B     		ldr	r3, .L300+12
 2916 0086 9968     		ldr	r1, [r3, #8]
 2917              	.LVL395:
 302:../switch_sdk/core/yt/yt_dot1x.c **** 
 2918              		.loc 1 302 5 is_stmt 0 discriminator 3 view .LVU848
 2919 0088 0548     		ldr	r0, .L300+16
 2920 008a FFF7FEFF 		bl	osal_printf
 2921              	.LVL396:
 2922 008e F5E7     		b	.L290
 2923              	.L301:
 2924              		.align	2
 2925              	.L300:
 2926 0090 00000000 		.word	gpfal_dispatch
 2927 0094 00000000 		.word	yt_debug_level
 2928 0098 00000000 		.word	_yt_errmsg
 2929 009c 00000000 		.word	_yt_prompt_msg
 2930 00a0 00000000 		.word	.LC0
 2931              	.LBE60:
 2932              		.cfi_endproc
 2933              	.LFE15:
 2935              		.section	.text.yt_dot1x_rx_bypass_bc_set,"ax",%progbits
 2936              		.align	1
 2937              		.global	yt_dot1x_rx_bypass_bc_set
 2938              		.syntax unified
 2939              		.thumb
 2940              		.thumb_func
 2942              	yt_dot1x_rx_bypass_bc_set:
 2943              	.LVL397:
 2944              	.LFB16:
 306:../switch_sdk/core/yt/yt_dot1x.c **** 
 307:../switch_sdk/core/yt/yt_dot1x.c **** /**
 308:../switch_sdk/core/yt/yt_dot1x.c ****  * @internal      yt_dot1x_rx_bypass_bc_set
 309:../switch_sdk/core/yt/yt_dot1x.c ****  * @endinternal
 310:../switch_sdk/core/yt/yt_dot1x.c ****  *
 311:../switch_sdk/core/yt/yt_dot1x.c ****  * @brief         Description
 312:../switch_sdk/core/yt/yt_dot1x.c ****  * @note          APPLICABLE DEVICES  -Tiger
 313:../switch_sdk/core/yt/yt_dot1x.c ****  * @param[in]     unit                -unit id
 314:../switch_sdk/core/yt/yt_dot1x.c ****  * @param[in]     enable              -enable or disable
 315:../switch_sdk/core/yt/yt_dot1x.c ****  * @retval        CMM_ERR_OK          -on success
 316:../switch_sdk/core/yt/yt_dot1x.c ****  * @retval        CMM_ERR_FAIL        -on fail
 317:../switch_sdk/core/yt/yt_dot1x.c ****  */
 318:../switch_sdk/core/yt/yt_dot1x.c **** yt_ret_t yt_dot1x_rx_bypass_bc_set(yt_unit_t unit, yt_enable_t enable)
 319:../switch_sdk/core/yt/yt_dot1x.c **** {
 2945              		.loc 1 319 1 is_stmt 1 view -0
 2946              		.cfi_startproc
 2947              		@ args = 0, pretend = 0, frame = 0
 2948              		@ frame_needed = 0, uses_anonymous_args = 0
 2949              		.loc 1 319 1 is_stmt 0 view .LVU850
 2950 0000 08B5     		push	{r3, lr}
 2951              		.cfi_def_cfa_offset 8
 2952              		.cfi_offset 3, -8
 2953              		.cfi_offset 14, -4
 320:../switch_sdk/core/yt/yt_dot1x.c ****     CMM_PARAM_CHK((YT_UNIT_NUM <= unit), CMM_ERR_INPUT);
 2954              		.loc 1 320 5 is_stmt 1 view .LVU851
 2955              		.loc 1 320 5 view .LVU852
 2956 0002 68B9     		cbnz	r0, .L313
 2957 0004 0246     		mov	r2, r0
 2958              		.loc 1 320 5 discriminator 2 view .LVU853
 321:../switch_sdk/core/yt/yt_dot1x.c ****     CMM_PARAM_CHK(NULL == YT_DISPATCH(unit), CMM_ERR_NOT_INIT);
 2959              		.loc 1 321 5 discriminator 2 view .LVU854
 2960              		.loc 1 321 5 discriminator 2 view .LVU855
 2961 0006 224B     		ldr	r3, .L321
 2962 0008 53F82030 		ldr	r3, [r3, r0, lsl #2]
 2963 000c B3B1     		cbz	r3, .L314
 2964              		.loc 1 321 5 discriminator 2 view .LVU856
 322:../switch_sdk/core/yt/yt_dot1x.c ****     CMM_PARAM_CHK((!(YT_DISPATCH(unit)->is_inited)), CMM_ERR_NOT_INIT);
 2965              		.loc 1 322 5 discriminator 2 view .LVU857
 2966              		.loc 1 322 5 discriminator 2 view .LVU858
 2967 000e 1878     		ldrb	r0, [r3]	@ zero_extendqisi2
 2968              	.LVL398:
 2969              		.loc 1 322 5 is_stmt 0 discriminator 2 view .LVU859
 2970 0010 10B3     		cbz	r0, .L315
 2971              		.loc 1 322 5 is_stmt 1 discriminator 2 view .LVU860
 323:../switch_sdk/core/yt/yt_dot1x.c ****     CMM_PARAM_CHK((YT_ENABLE < enable || YT_DISABLE > enable), CMM_ERR_INPUT);
 2972              		.loc 1 323 5 discriminator 2 view .LVU861
 2973              		.loc 1 323 5 discriminator 2 view .LVU862
 2974 0012 0129     		cmp	r1, #1
 2975 0014 2ED8     		bhi	.L316
 2976              		.loc 1 323 5 discriminator 2 view .LVU863
 324:../switch_sdk/core/yt/yt_dot1x.c **** 
 325:../switch_sdk/core/yt/yt_dot1x.c ****     return YT_DISPATCH(unit)->dot1x_rx_bypass_bc_set(unit, enable);
 2977              		.loc 1 325 5 discriminator 2 view .LVU864
 2978              		.loc 1 325 29 is_stmt 0 discriminator 2 view .LVU865
 2979 0016 D3F85C31 		ldr	r3, [r3, #348]
 2980              		.loc 1 325 12 discriminator 2 view .LVU866
 2981 001a 1046     		mov	r0, r2
 2982 001c 9847     		blx	r3
 2983              	.LVL399:
 2984              	.L302:
 326:../switch_sdk/core/yt/yt_dot1x.c **** }
 2985              		.loc 1 326 1 view .LVU867
 2986 001e 08BD     		pop	{r3, pc}
 2987              	.LVL400:
 2988              	.L313:
 320:../switch_sdk/core/yt/yt_dot1x.c ****     CMM_PARAM_CHK(NULL == YT_DISPATCH(unit), CMM_ERR_NOT_INIT);
 2989              		.loc 1 320 5 is_stmt 1 discriminator 1 view .LVU868
 320:../switch_sdk/core/yt/yt_dot1x.c ****     CMM_PARAM_CHK(NULL == YT_DISPATCH(unit), CMM_ERR_NOT_INIT);
 2990              		.loc 1 320 5 discriminator 1 view .LVU869
 2991 0020 1C4B     		ldr	r3, .L321+4
 2992 0022 1B78     		ldrb	r3, [r3]	@ zero_extendqisi2
 2993 0024 012B     		cmp	r3, #1
 2994 0026 01D8     		bhi	.L317
 2995              	.LVL401:
 2996              	.L304:
 320:../switch_sdk/core/yt/yt_dot1x.c ****     CMM_PARAM_CHK(NULL == YT_DISPATCH(unit), CMM_ERR_NOT_INIT);
 2997              		.loc 1 320 5 discriminator 5 view .LVU870
 320:../switch_sdk/core/yt/yt_dot1x.c ****     CMM_PARAM_CHK(NULL == YT_DISPATCH(unit), CMM_ERR_NOT_INIT);
 2998              		.loc 1 320 5 discriminator 5 view .LVU871
 320:../switch_sdk/core/yt/yt_dot1x.c ****     CMM_PARAM_CHK(NULL == YT_DISPATCH(unit), CMM_ERR_NOT_INIT);
 2999              		.loc 1 320 5 discriminator 5 view .LVU872
 3000 0028 0520     		movs	r0, #5
 3001 002a F8E7     		b	.L302
 3002              	.LVL402:
 3003              	.L317:
 320:../switch_sdk/core/yt/yt_dot1x.c ****     CMM_PARAM_CHK(NULL == YT_DISPATCH(unit), CMM_ERR_NOT_INIT);
 3004              		.loc 1 320 5 discriminator 3 view .LVU873
 3005              	.LBB61:
 320:../switch_sdk/core/yt/yt_dot1x.c ****     CMM_PARAM_CHK(NULL == YT_DISPATCH(unit), CMM_ERR_NOT_INIT);
 3006              		.loc 1 320 5 discriminator 3 view .LVU874
 3007 002c 1A4B     		ldr	r3, .L321+8
 3008 002e 5A69     		ldr	r2, [r3, #20]
 3009 0030 1A4B     		ldr	r3, .L321+12
 3010 0032 9968     		ldr	r1, [r3, #8]
 3011              	.LVL403:
 320:../switch_sdk/core/yt/yt_dot1x.c ****     CMM_PARAM_CHK(NULL == YT_DISPATCH(unit), CMM_ERR_NOT_INIT);
 3012              		.loc 1 320 5 is_stmt 0 discriminator 3 view .LVU875
 3013 0034 1A48     		ldr	r0, .L321+16
 3014              	.LVL404:
 320:../switch_sdk/core/yt/yt_dot1x.c ****     CMM_PARAM_CHK(NULL == YT_DISPATCH(unit), CMM_ERR_NOT_INIT);
 3015              		.loc 1 320 5 discriminator 3 view .LVU876
 3016 0036 FFF7FEFF 		bl	osal_printf
 3017              	.LVL405:
 3018 003a F5E7     		b	.L304
 3019              	.LVL406:
 3020              	.L314:
 320:../switch_sdk/core/yt/yt_dot1x.c ****     CMM_PARAM_CHK(NULL == YT_DISPATCH(unit), CMM_ERR_NOT_INIT);
 3021              		.loc 1 320 5 discriminator 3 view .LVU877
 3022              	.LBE61:
 321:../switch_sdk/core/yt/yt_dot1x.c ****     CMM_PARAM_CHK((!(YT_DISPATCH(unit)->is_inited)), CMM_ERR_NOT_INIT);
 3023              		.loc 1 321 5 is_stmt 1 discriminator 1 view .LVU878
 321:../switch_sdk/core/yt/yt_dot1x.c ****     CMM_PARAM_CHK((!(YT_DISPATCH(unit)->is_inited)), CMM_ERR_NOT_INIT);
 3024              		.loc 1 321 5 discriminator 1 view .LVU879
 3025 003c 154B     		ldr	r3, .L321+4
 3026 003e 1B78     		ldrb	r3, [r3]	@ zero_extendqisi2
 3027 0040 012B     		cmp	r3, #1
 3028 0042 01D8     		bhi	.L318
 3029              	.LVL407:
 3030              	.L307:
 321:../switch_sdk/core/yt/yt_dot1x.c ****     CMM_PARAM_CHK((!(YT_DISPATCH(unit)->is_inited)), CMM_ERR_NOT_INIT);
 3031              		.loc 1 321 5 discriminator 5 view .LVU880
 321:../switch_sdk/core/yt/yt_dot1x.c ****     CMM_PARAM_CHK((!(YT_DISPATCH(unit)->is_inited)), CMM_ERR_NOT_INIT);
 3032              		.loc 1 321 5 discriminator 5 view .LVU881
 321:../switch_sdk/core/yt/yt_dot1x.c ****     CMM_PARAM_CHK((!(YT_DISPATCH(unit)->is_inited)), CMM_ERR_NOT_INIT);
 3033              		.loc 1 321 5 discriminator 5 view .LVU882
 3034 0044 0420     		movs	r0, #4
 3035 0046 EAE7     		b	.L302
 3036              	.LVL408:
 3037              	.L318:
 321:../switch_sdk/core/yt/yt_dot1x.c ****     CMM_PARAM_CHK((!(YT_DISPATCH(unit)->is_inited)), CMM_ERR_NOT_INIT);
 3038              		.loc 1 321 5 discriminator 3 view .LVU883
 3039              	.LBB62:
 321:../switch_sdk/core/yt/yt_dot1x.c ****     CMM_PARAM_CHK((!(YT_DISPATCH(unit)->is_inited)), CMM_ERR_NOT_INIT);
 3040              		.loc 1 321 5 discriminator 3 view .LVU884
 3041 0048 134B     		ldr	r3, .L321+8
 3042 004a 1A69     		ldr	r2, [r3, #16]
 3043 004c 134B     		ldr	r3, .L321+12
 3044 004e 9968     		ldr	r1, [r3, #8]
 3045              	.LVL409:
 321:../switch_sdk/core/yt/yt_dot1x.c ****     CMM_PARAM_CHK((!(YT_DISPATCH(unit)->is_inited)), CMM_ERR_NOT_INIT);
 3046              		.loc 1 321 5 is_stmt 0 discriminator 3 view .LVU885
 3047 0050 1348     		ldr	r0, .L321+16
 3048              	.LVL410:
 321:../switch_sdk/core/yt/yt_dot1x.c ****     CMM_PARAM_CHK((!(YT_DISPATCH(unit)->is_inited)), CMM_ERR_NOT_INIT);
 3049              		.loc 1 321 5 discriminator 3 view .LVU886
 3050 0052 FFF7FEFF 		bl	osal_printf
 3051              	.LVL411:
 3052 0056 F5E7     		b	.L307
 3053              	.LVL412:
 3054              	.L315:
 321:../switch_sdk/core/yt/yt_dot1x.c ****     CMM_PARAM_CHK((!(YT_DISPATCH(unit)->is_inited)), CMM_ERR_NOT_INIT);
 3055              		.loc 1 321 5 discriminator 3 view .LVU887
 3056              	.LBE62:
 322:../switch_sdk/core/yt/yt_dot1x.c ****     CMM_PARAM_CHK((YT_ENABLE < enable || YT_DISABLE > enable), CMM_ERR_INPUT);
 3057              		.loc 1 322 5 is_stmt 1 discriminator 1 view .LVU888
 322:../switch_sdk/core/yt/yt_dot1x.c ****     CMM_PARAM_CHK((YT_ENABLE < enable || YT_DISABLE > enable), CMM_ERR_INPUT);
 3058              		.loc 1 322 5 discriminator 1 view .LVU889
 3059 0058 0E4B     		ldr	r3, .L321+4
 3060 005a 1B78     		ldrb	r3, [r3]	@ zero_extendqisi2
 3061 005c 012B     		cmp	r3, #1
 3062 005e 01D8     		bhi	.L319
 3063              	.LVL413:
 3064              	.L309:
 322:../switch_sdk/core/yt/yt_dot1x.c ****     CMM_PARAM_CHK((YT_ENABLE < enable || YT_DISABLE > enable), CMM_ERR_INPUT);
 3065              		.loc 1 322 5 discriminator 5 view .LVU890
 322:../switch_sdk/core/yt/yt_dot1x.c ****     CMM_PARAM_CHK((YT_ENABLE < enable || YT_DISABLE > enable), CMM_ERR_INPUT);
 3066              		.loc 1 322 5 discriminator 5 view .LVU891
 322:../switch_sdk/core/yt/yt_dot1x.c ****     CMM_PARAM_CHK((YT_ENABLE < enable || YT_DISABLE > enable), CMM_ERR_INPUT);
 3067              		.loc 1 322 5 discriminator 5 view .LVU892
 3068 0060 0420     		movs	r0, #4
 3069 0062 DCE7     		b	.L302
 3070              	.LVL414:
 3071              	.L319:
 322:../switch_sdk/core/yt/yt_dot1x.c ****     CMM_PARAM_CHK((YT_ENABLE < enable || YT_DISABLE > enable), CMM_ERR_INPUT);
 3072              		.loc 1 322 5 discriminator 3 view .LVU893
 3073              	.LBB63:
 322:../switch_sdk/core/yt/yt_dot1x.c ****     CMM_PARAM_CHK((YT_ENABLE < enable || YT_DISABLE > enable), CMM_ERR_INPUT);
 3074              		.loc 1 322 5 discriminator 3 view .LVU894
 3075 0064 0C4B     		ldr	r3, .L321+8
 3076 0066 1A69     		ldr	r2, [r3, #16]
 3077 0068 0C4B     		ldr	r3, .L321+12
 3078 006a 9968     		ldr	r1, [r3, #8]
 3079              	.LVL415:
 322:../switch_sdk/core/yt/yt_dot1x.c ****     CMM_PARAM_CHK((YT_ENABLE < enable || YT_DISABLE > enable), CMM_ERR_INPUT);
 3080              		.loc 1 322 5 is_stmt 0 discriminator 3 view .LVU895
 3081 006c 0C48     		ldr	r0, .L321+16
 3082 006e FFF7FEFF 		bl	osal_printf
 3083              	.LVL416:
 3084 0072 F5E7     		b	.L309
 3085              	.LVL417:
 3086              	.L316:
 322:../switch_sdk/core/yt/yt_dot1x.c ****     CMM_PARAM_CHK((YT_ENABLE < enable || YT_DISABLE > enable), CMM_ERR_INPUT);
 3087              		.loc 1 322 5 discriminator 3 view .LVU896
 3088              	.LBE63:
 323:../switch_sdk/core/yt/yt_dot1x.c **** 
 3089              		.loc 1 323 5 is_stmt 1 discriminator 1 view .LVU897
 323:../switch_sdk/core/yt/yt_dot1x.c **** 
 3090              		.loc 1 323 5 discriminator 1 view .LVU898
 3091 0074 074B     		ldr	r3, .L321+4
 3092 0076 1B78     		ldrb	r3, [r3]	@ zero_extendqisi2
 3093 0078 012B     		cmp	r3, #1
 3094 007a 01D8     		bhi	.L320
 3095              	.LVL418:
 3096              	.L311:
 323:../switch_sdk/core/yt/yt_dot1x.c **** 
 3097              		.loc 1 323 5 discriminator 5 view .LVU899
 323:../switch_sdk/core/yt/yt_dot1x.c **** 
 3098              		.loc 1 323 5 discriminator 5 view .LVU900
 323:../switch_sdk/core/yt/yt_dot1x.c **** 
 3099              		.loc 1 323 5 discriminator 5 view .LVU901
 3100 007c 0520     		movs	r0, #5
 3101 007e CEE7     		b	.L302
 3102              	.LVL419:
 3103              	.L320:
 323:../switch_sdk/core/yt/yt_dot1x.c **** 
 3104              		.loc 1 323 5 discriminator 3 view .LVU902
 3105              	.LBB64:
 323:../switch_sdk/core/yt/yt_dot1x.c **** 
 3106              		.loc 1 323 5 discriminator 3 view .LVU903
 3107 0080 054B     		ldr	r3, .L321+8
 3108 0082 5A69     		ldr	r2, [r3, #20]
 3109 0084 054B     		ldr	r3, .L321+12
 3110 0086 9968     		ldr	r1, [r3, #8]
 3111              	.LVL420:
 323:../switch_sdk/core/yt/yt_dot1x.c **** 
 3112              		.loc 1 323 5 is_stmt 0 discriminator 3 view .LVU904
 3113 0088 0548     		ldr	r0, .L321+16
 3114 008a FFF7FEFF 		bl	osal_printf
 3115              	.LVL421:
 3116 008e F5E7     		b	.L311
 3117              	.L322:
 3118              		.align	2
 3119              	.L321:
 3120 0090 00000000 		.word	gpfal_dispatch
 3121 0094 00000000 		.word	yt_debug_level
 3122 0098 00000000 		.word	_yt_errmsg
 3123 009c 00000000 		.word	_yt_prompt_msg
 3124 00a0 00000000 		.word	.LC0
 3125              	.LBE64:
 3126              		.cfi_endproc
 3127              	.LFE16:
 3129              		.section	.text.yt_dot1x_rx_bypass_bc_get,"ax",%progbits
 3130              		.align	1
 3131              		.global	yt_dot1x_rx_bypass_bc_get
 3132              		.syntax unified
 3133              		.thumb
 3134              		.thumb_func
 3136              	yt_dot1x_rx_bypass_bc_get:
 3137              	.LVL422:
 3138              	.LFB17:
 327:../switch_sdk/core/yt/yt_dot1x.c **** 
 328:../switch_sdk/core/yt/yt_dot1x.c **** /**
 329:../switch_sdk/core/yt/yt_dot1x.c ****  * @internal      yt_dot1x_rx_bypass_bc_get
 330:../switch_sdk/core/yt/yt_dot1x.c ****  * @endinternal
 331:../switch_sdk/core/yt/yt_dot1x.c ****  *
 332:../switch_sdk/core/yt/yt_dot1x.c ****  * @brief         Description
 333:../switch_sdk/core/yt/yt_dot1x.c ****  * @note          APPLICABLE DEVICES  -Tiger
 334:../switch_sdk/core/yt/yt_dot1x.c ****  * @param[in]     unit                -unit id
 335:../switch_sdk/core/yt/yt_dot1x.c ****  * @param[out]    pEnable             -enable or disable
 336:../switch_sdk/core/yt/yt_dot1x.c ****  * @retval        CMM_ERR_OK          -on success
 337:../switch_sdk/core/yt/yt_dot1x.c ****  * @retval        CMM_ERR_FAIL        -on fail
 338:../switch_sdk/core/yt/yt_dot1x.c ****  */
 339:../switch_sdk/core/yt/yt_dot1x.c **** yt_ret_t yt_dot1x_rx_bypass_bc_get(yt_unit_t unit, yt_enable_t *pEnable)
 340:../switch_sdk/core/yt/yt_dot1x.c **** {
 3139              		.loc 1 340 1 is_stmt 1 view -0
 3140              		.cfi_startproc
 3141              		@ args = 0, pretend = 0, frame = 0
 3142              		@ frame_needed = 0, uses_anonymous_args = 0
 3143              		.loc 1 340 1 is_stmt 0 view .LVU906
 3144 0000 08B5     		push	{r3, lr}
 3145              		.cfi_def_cfa_offset 8
 3146              		.cfi_offset 3, -8
 3147              		.cfi_offset 14, -4
 341:../switch_sdk/core/yt/yt_dot1x.c ****     CMM_PARAM_CHK((YT_UNIT_NUM <= unit), CMM_ERR_INPUT);
 3148              		.loc 1 341 5 is_stmt 1 view .LVU907
 3149              		.loc 1 341 5 view .LVU908
 3150 0002 68B9     		cbnz	r0, .L334
 3151 0004 0246     		mov	r2, r0
 3152              		.loc 1 341 5 discriminator 2 view .LVU909
 342:../switch_sdk/core/yt/yt_dot1x.c ****     CMM_PARAM_CHK(NULL == YT_DISPATCH(unit), CMM_ERR_NOT_INIT);
 3153              		.loc 1 342 5 discriminator 2 view .LVU910
 3154              		.loc 1 342 5 discriminator 2 view .LVU911
 3155 0006 224B     		ldr	r3, .L342
 3156 0008 53F82030 		ldr	r3, [r3, r0, lsl #2]
 3157 000c B3B1     		cbz	r3, .L335
 3158              		.loc 1 342 5 discriminator 2 view .LVU912
 343:../switch_sdk/core/yt/yt_dot1x.c ****     CMM_PARAM_CHK((!(YT_DISPATCH(unit)->is_inited)), CMM_ERR_NOT_INIT);
 3159              		.loc 1 343 5 discriminator 2 view .LVU913
 3160              		.loc 1 343 5 discriminator 2 view .LVU914
 3161 000e 1878     		ldrb	r0, [r3]	@ zero_extendqisi2
 3162              	.LVL423:
 3163              		.loc 1 343 5 is_stmt 0 discriminator 2 view .LVU915
 3164 0010 10B3     		cbz	r0, .L336
 3165              		.loc 1 343 5 is_stmt 1 discriminator 2 view .LVU916
 344:../switch_sdk/core/yt/yt_dot1x.c ****     CMM_PARAM_CHK((NULL == pEnable), CMM_ERR_NULL_POINT);
 3166              		.loc 1 344 5 discriminator 2 view .LVU917
 3167              		.loc 1 344 5 discriminator 2 view .LVU918
 3168 0012 0029     		cmp	r1, #0
 3169 0014 2ED0     		beq	.L337
 3170              		.loc 1 344 5 discriminator 2 view .LVU919
 345:../switch_sdk/core/yt/yt_dot1x.c **** 
 346:../switch_sdk/core/yt/yt_dot1x.c ****     return YT_DISPATCH(unit)->dot1x_rx_bypass_bc_get(unit, pEnable);
 3171              		.loc 1 346 5 discriminator 2 view .LVU920
 3172              		.loc 1 346 29 is_stmt 0 discriminator 2 view .LVU921
 3173 0016 D3F86031 		ldr	r3, [r3, #352]
 3174              		.loc 1 346 12 discriminator 2 view .LVU922
 3175 001a 1046     		mov	r0, r2
 3176 001c 9847     		blx	r3
 3177              	.LVL424:
 3178              	.L323:
 347:../switch_sdk/core/yt/yt_dot1x.c **** }
 3179              		.loc 1 347 1 view .LVU923
 3180 001e 08BD     		pop	{r3, pc}
 3181              	.LVL425:
 3182              	.L334:
 341:../switch_sdk/core/yt/yt_dot1x.c ****     CMM_PARAM_CHK(NULL == YT_DISPATCH(unit), CMM_ERR_NOT_INIT);
 3183              		.loc 1 341 5 is_stmt 1 discriminator 1 view .LVU924
 341:../switch_sdk/core/yt/yt_dot1x.c ****     CMM_PARAM_CHK(NULL == YT_DISPATCH(unit), CMM_ERR_NOT_INIT);
 3184              		.loc 1 341 5 discriminator 1 view .LVU925
 3185 0020 1C4B     		ldr	r3, .L342+4
 3186 0022 1B78     		ldrb	r3, [r3]	@ zero_extendqisi2
 3187 0024 012B     		cmp	r3, #1
 3188 0026 01D8     		bhi	.L338
 3189              	.LVL426:
 3190              	.L325:
 341:../switch_sdk/core/yt/yt_dot1x.c ****     CMM_PARAM_CHK(NULL == YT_DISPATCH(unit), CMM_ERR_NOT_INIT);
 3191              		.loc 1 341 5 discriminator 5 view .LVU926
 341:../switch_sdk/core/yt/yt_dot1x.c ****     CMM_PARAM_CHK(NULL == YT_DISPATCH(unit), CMM_ERR_NOT_INIT);
 3192              		.loc 1 341 5 discriminator 5 view .LVU927
 341:../switch_sdk/core/yt/yt_dot1x.c ****     CMM_PARAM_CHK(NULL == YT_DISPATCH(unit), CMM_ERR_NOT_INIT);
 3193              		.loc 1 341 5 discriminator 5 view .LVU928
 3194 0028 0520     		movs	r0, #5
 3195 002a F8E7     		b	.L323
 3196              	.LVL427:
 3197              	.L338:
 341:../switch_sdk/core/yt/yt_dot1x.c ****     CMM_PARAM_CHK(NULL == YT_DISPATCH(unit), CMM_ERR_NOT_INIT);
 3198              		.loc 1 341 5 discriminator 3 view .LVU929
 3199              	.LBB65:
 341:../switch_sdk/core/yt/yt_dot1x.c ****     CMM_PARAM_CHK(NULL == YT_DISPATCH(unit), CMM_ERR_NOT_INIT);
 3200              		.loc 1 341 5 discriminator 3 view .LVU930
 3201 002c 1A4B     		ldr	r3, .L342+8
 3202 002e 5A69     		ldr	r2, [r3, #20]
 3203 0030 1A4B     		ldr	r3, .L342+12
 3204 0032 9968     		ldr	r1, [r3, #8]
 3205              	.LVL428:
 341:../switch_sdk/core/yt/yt_dot1x.c ****     CMM_PARAM_CHK(NULL == YT_DISPATCH(unit), CMM_ERR_NOT_INIT);
 3206              		.loc 1 341 5 is_stmt 0 discriminator 3 view .LVU931
 3207 0034 1A48     		ldr	r0, .L342+16
 3208              	.LVL429:
 341:../switch_sdk/core/yt/yt_dot1x.c ****     CMM_PARAM_CHK(NULL == YT_DISPATCH(unit), CMM_ERR_NOT_INIT);
 3209              		.loc 1 341 5 discriminator 3 view .LVU932
 3210 0036 FFF7FEFF 		bl	osal_printf
 3211              	.LVL430:
 3212 003a F5E7     		b	.L325
 3213              	.LVL431:
 3214              	.L335:
 341:../switch_sdk/core/yt/yt_dot1x.c ****     CMM_PARAM_CHK(NULL == YT_DISPATCH(unit), CMM_ERR_NOT_INIT);
 3215              		.loc 1 341 5 discriminator 3 view .LVU933
 3216              	.LBE65:
 342:../switch_sdk/core/yt/yt_dot1x.c ****     CMM_PARAM_CHK((!(YT_DISPATCH(unit)->is_inited)), CMM_ERR_NOT_INIT);
 3217              		.loc 1 342 5 is_stmt 1 discriminator 1 view .LVU934
 342:../switch_sdk/core/yt/yt_dot1x.c ****     CMM_PARAM_CHK((!(YT_DISPATCH(unit)->is_inited)), CMM_ERR_NOT_INIT);
 3218              		.loc 1 342 5 discriminator 1 view .LVU935
 3219 003c 154B     		ldr	r3, .L342+4
 3220 003e 1B78     		ldrb	r3, [r3]	@ zero_extendqisi2
 3221 0040 012B     		cmp	r3, #1
 3222 0042 01D8     		bhi	.L339
 3223              	.LVL432:
 3224              	.L328:
 342:../switch_sdk/core/yt/yt_dot1x.c ****     CMM_PARAM_CHK((!(YT_DISPATCH(unit)->is_inited)), CMM_ERR_NOT_INIT);
 3225              		.loc 1 342 5 discriminator 5 view .LVU936
 342:../switch_sdk/core/yt/yt_dot1x.c ****     CMM_PARAM_CHK((!(YT_DISPATCH(unit)->is_inited)), CMM_ERR_NOT_INIT);
 3226              		.loc 1 342 5 discriminator 5 view .LVU937
 342:../switch_sdk/core/yt/yt_dot1x.c ****     CMM_PARAM_CHK((!(YT_DISPATCH(unit)->is_inited)), CMM_ERR_NOT_INIT);
 3227              		.loc 1 342 5 discriminator 5 view .LVU938
 3228 0044 0420     		movs	r0, #4
 3229 0046 EAE7     		b	.L323
 3230              	.LVL433:
 3231              	.L339:
 342:../switch_sdk/core/yt/yt_dot1x.c ****     CMM_PARAM_CHK((!(YT_DISPATCH(unit)->is_inited)), CMM_ERR_NOT_INIT);
 3232              		.loc 1 342 5 discriminator 3 view .LVU939
 3233              	.LBB66:
 342:../switch_sdk/core/yt/yt_dot1x.c ****     CMM_PARAM_CHK((!(YT_DISPATCH(unit)->is_inited)), CMM_ERR_NOT_INIT);
 3234              		.loc 1 342 5 discriminator 3 view .LVU940
 3235 0048 134B     		ldr	r3, .L342+8
 3236 004a 1A69     		ldr	r2, [r3, #16]
 3237 004c 134B     		ldr	r3, .L342+12
 3238 004e 9968     		ldr	r1, [r3, #8]
 3239              	.LVL434:
 342:../switch_sdk/core/yt/yt_dot1x.c ****     CMM_PARAM_CHK((!(YT_DISPATCH(unit)->is_inited)), CMM_ERR_NOT_INIT);
 3240              		.loc 1 342 5 is_stmt 0 discriminator 3 view .LVU941
 3241 0050 1348     		ldr	r0, .L342+16
 3242              	.LVL435:
 342:../switch_sdk/core/yt/yt_dot1x.c ****     CMM_PARAM_CHK((!(YT_DISPATCH(unit)->is_inited)), CMM_ERR_NOT_INIT);
 3243              		.loc 1 342 5 discriminator 3 view .LVU942
 3244 0052 FFF7FEFF 		bl	osal_printf
 3245              	.LVL436:
 3246 0056 F5E7     		b	.L328
 3247              	.LVL437:
 3248              	.L336:
 342:../switch_sdk/core/yt/yt_dot1x.c ****     CMM_PARAM_CHK((!(YT_DISPATCH(unit)->is_inited)), CMM_ERR_NOT_INIT);
 3249              		.loc 1 342 5 discriminator 3 view .LVU943
 3250              	.LBE66:
 343:../switch_sdk/core/yt/yt_dot1x.c ****     CMM_PARAM_CHK((NULL == pEnable), CMM_ERR_NULL_POINT);
 3251              		.loc 1 343 5 is_stmt 1 discriminator 1 view .LVU944
 343:../switch_sdk/core/yt/yt_dot1x.c ****     CMM_PARAM_CHK((NULL == pEnable), CMM_ERR_NULL_POINT);
 3252              		.loc 1 343 5 discriminator 1 view .LVU945
 3253 0058 0E4B     		ldr	r3, .L342+4
 3254 005a 1B78     		ldrb	r3, [r3]	@ zero_extendqisi2
 3255 005c 012B     		cmp	r3, #1
 3256 005e 01D8     		bhi	.L340
 3257              	.LVL438:
 3258              	.L330:
 343:../switch_sdk/core/yt/yt_dot1x.c ****     CMM_PARAM_CHK((NULL == pEnable), CMM_ERR_NULL_POINT);
 3259              		.loc 1 343 5 discriminator 5 view .LVU946
 343:../switch_sdk/core/yt/yt_dot1x.c ****     CMM_PARAM_CHK((NULL == pEnable), CMM_ERR_NULL_POINT);
 3260              		.loc 1 343 5 discriminator 5 view .LVU947
 343:../switch_sdk/core/yt/yt_dot1x.c ****     CMM_PARAM_CHK((NULL == pEnable), CMM_ERR_NULL_POINT);
 3261              		.loc 1 343 5 discriminator 5 view .LVU948
 3262 0060 0420     		movs	r0, #4
 3263 0062 DCE7     		b	.L323
 3264              	.LVL439:
 3265              	.L340:
 343:../switch_sdk/core/yt/yt_dot1x.c ****     CMM_PARAM_CHK((NULL == pEnable), CMM_ERR_NULL_POINT);
 3266              		.loc 1 343 5 discriminator 3 view .LVU949
 3267              	.LBB67:
 343:../switch_sdk/core/yt/yt_dot1x.c ****     CMM_PARAM_CHK((NULL == pEnable), CMM_ERR_NULL_POINT);
 3268              		.loc 1 343 5 discriminator 3 view .LVU950
 3269 0064 0C4B     		ldr	r3, .L342+8
 3270 0066 1A69     		ldr	r2, [r3, #16]
 3271 0068 0C4B     		ldr	r3, .L342+12
 3272 006a 9968     		ldr	r1, [r3, #8]
 3273              	.LVL440:
 343:../switch_sdk/core/yt/yt_dot1x.c ****     CMM_PARAM_CHK((NULL == pEnable), CMM_ERR_NULL_POINT);
 3274              		.loc 1 343 5 is_stmt 0 discriminator 3 view .LVU951
 3275 006c 0C48     		ldr	r0, .L342+16
 3276 006e FFF7FEFF 		bl	osal_printf
 3277              	.LVL441:
 3278 0072 F5E7     		b	.L330
 3279              	.LVL442:
 3280              	.L337:
 343:../switch_sdk/core/yt/yt_dot1x.c ****     CMM_PARAM_CHK((NULL == pEnable), CMM_ERR_NULL_POINT);
 3281              		.loc 1 343 5 discriminator 3 view .LVU952
 3282              	.LBE67:
 344:../switch_sdk/core/yt/yt_dot1x.c **** 
 3283              		.loc 1 344 5 is_stmt 1 discriminator 1 view .LVU953
 344:../switch_sdk/core/yt/yt_dot1x.c **** 
 3284              		.loc 1 344 5 discriminator 1 view .LVU954
 3285 0074 074B     		ldr	r3, .L342+4
 3286 0076 1B78     		ldrb	r3, [r3]	@ zero_extendqisi2
 3287 0078 012B     		cmp	r3, #1
 3288 007a 01D8     		bhi	.L341
 3289              	.LVL443:
 3290              	.L332:
 344:../switch_sdk/core/yt/yt_dot1x.c **** 
 3291              		.loc 1 344 5 discriminator 5 view .LVU955
 344:../switch_sdk/core/yt/yt_dot1x.c **** 
 3292              		.loc 1 344 5 discriminator 5 view .LVU956
 344:../switch_sdk/core/yt/yt_dot1x.c **** 
 3293              		.loc 1 344 5 discriminator 5 view .LVU957
 3294 007c 0220     		movs	r0, #2
 3295 007e CEE7     		b	.L323
 3296              	.LVL444:
 3297              	.L341:
 344:../switch_sdk/core/yt/yt_dot1x.c **** 
 3298              		.loc 1 344 5 discriminator 3 view .LVU958
 3299              	.LBB68:
 344:../switch_sdk/core/yt/yt_dot1x.c **** 
 3300              		.loc 1 344 5 discriminator 3 view .LVU959
 3301 0080 054B     		ldr	r3, .L342+8
 3302 0082 9A68     		ldr	r2, [r3, #8]
 3303 0084 054B     		ldr	r3, .L342+12
 3304 0086 9968     		ldr	r1, [r3, #8]
 3305              	.LVL445:
 344:../switch_sdk/core/yt/yt_dot1x.c **** 
 3306              		.loc 1 344 5 is_stmt 0 discriminator 3 view .LVU960
 3307 0088 0548     		ldr	r0, .L342+16
 3308 008a FFF7FEFF 		bl	osal_printf
 3309              	.LVL446:
 3310 008e F5E7     		b	.L332
 3311              	.L343:
 3312              		.align	2
 3313              	.L342:
 3314 0090 00000000 		.word	gpfal_dispatch
 3315 0094 00000000 		.word	yt_debug_level
 3316 0098 00000000 		.word	_yt_errmsg
 3317 009c 00000000 		.word	_yt_prompt_msg
 3318 00a0 00000000 		.word	.LC0
 3319              	.LBE68:
 3320              		.cfi_endproc
 3321              	.LFE17:
 3323              		.section	.text.yt_dot1x_rx_bypass_mc_set,"ax",%progbits
 3324              		.align	1
 3325              		.global	yt_dot1x_rx_bypass_mc_set
 3326              		.syntax unified
 3327              		.thumb
 3328              		.thumb_func
 3330              	yt_dot1x_rx_bypass_mc_set:
 3331              	.LVL447:
 3332              	.LFB18:
 348:../switch_sdk/core/yt/yt_dot1x.c **** 
 349:../switch_sdk/core/yt/yt_dot1x.c **** /**
 350:../switch_sdk/core/yt/yt_dot1x.c ****  * @internal      yt_dot1x_rx_bypass_mc_set
 351:../switch_sdk/core/yt/yt_dot1x.c ****  * @endinternal
 352:../switch_sdk/core/yt/yt_dot1x.c ****  *
 353:../switch_sdk/core/yt/yt_dot1x.c ****  * @brief         Description
 354:../switch_sdk/core/yt/yt_dot1x.c ****  * @note          APPLICABLE DEVICES  -Tiger
 355:../switch_sdk/core/yt/yt_dot1x.c ****  * @param[in]     unit                -unit id
 356:../switch_sdk/core/yt/yt_dot1x.c ****  * @param[out]     enable              -enable or disable
 357:../switch_sdk/core/yt/yt_dot1x.c ****  * @retval        CMM_ERR_OK          -on success
 358:../switch_sdk/core/yt/yt_dot1x.c ****  * @retval        CMM_ERR_FAIL        -on fail
 359:../switch_sdk/core/yt/yt_dot1x.c ****  */
 360:../switch_sdk/core/yt/yt_dot1x.c **** yt_ret_t yt_dot1x_rx_bypass_mc_set(yt_unit_t unit, yt_enable_t enable)
 361:../switch_sdk/core/yt/yt_dot1x.c **** {
 3333              		.loc 1 361 1 is_stmt 1 view -0
 3334              		.cfi_startproc
 3335              		@ args = 0, pretend = 0, frame = 0
 3336              		@ frame_needed = 0, uses_anonymous_args = 0
 3337              		.loc 1 361 1 is_stmt 0 view .LVU962
 3338 0000 08B5     		push	{r3, lr}
 3339              		.cfi_def_cfa_offset 8
 3340              		.cfi_offset 3, -8
 3341              		.cfi_offset 14, -4
 362:../switch_sdk/core/yt/yt_dot1x.c ****     CMM_PARAM_CHK((YT_UNIT_NUM <= unit), CMM_ERR_INPUT);
 3342              		.loc 1 362 5 is_stmt 1 view .LVU963
 3343              		.loc 1 362 5 view .LVU964
 3344 0002 68B9     		cbnz	r0, .L355
 3345 0004 0246     		mov	r2, r0
 3346              		.loc 1 362 5 discriminator 2 view .LVU965
 363:../switch_sdk/core/yt/yt_dot1x.c ****     CMM_PARAM_CHK(NULL == YT_DISPATCH(unit), CMM_ERR_NOT_INIT);
 3347              		.loc 1 363 5 discriminator 2 view .LVU966
 3348              		.loc 1 363 5 discriminator 2 view .LVU967
 3349 0006 224B     		ldr	r3, .L363
 3350 0008 53F82030 		ldr	r3, [r3, r0, lsl #2]
 3351 000c B3B1     		cbz	r3, .L356
 3352              		.loc 1 363 5 discriminator 2 view .LVU968
 364:../switch_sdk/core/yt/yt_dot1x.c ****     CMM_PARAM_CHK((!(YT_DISPATCH(unit)->is_inited)), CMM_ERR_NOT_INIT);
 3353              		.loc 1 364 5 discriminator 2 view .LVU969
 3354              		.loc 1 364 5 discriminator 2 view .LVU970
 3355 000e 1878     		ldrb	r0, [r3]	@ zero_extendqisi2
 3356              	.LVL448:
 3357              		.loc 1 364 5 is_stmt 0 discriminator 2 view .LVU971
 3358 0010 10B3     		cbz	r0, .L357
 3359              		.loc 1 364 5 is_stmt 1 discriminator 2 view .LVU972
 365:../switch_sdk/core/yt/yt_dot1x.c ****     CMM_PARAM_CHK((YT_ENABLE < enable || YT_DISABLE > enable), CMM_ERR_INPUT);
 3360              		.loc 1 365 5 discriminator 2 view .LVU973
 3361              		.loc 1 365 5 discriminator 2 view .LVU974
 3362 0012 0129     		cmp	r1, #1
 3363 0014 2ED8     		bhi	.L358
 3364              		.loc 1 365 5 discriminator 2 view .LVU975
 366:../switch_sdk/core/yt/yt_dot1x.c **** 
 367:../switch_sdk/core/yt/yt_dot1x.c ****     return YT_DISPATCH(unit)->dot1x_rx_bypass_mc_set(unit, enable);
 3365              		.loc 1 367 5 discriminator 2 view .LVU976
 3366              		.loc 1 367 29 is_stmt 0 discriminator 2 view .LVU977
 3367 0016 D3F86431 		ldr	r3, [r3, #356]
 3368              		.loc 1 367 12 discriminator 2 view .LVU978
 3369 001a 1046     		mov	r0, r2
 3370 001c 9847     		blx	r3
 3371              	.LVL449:
 3372              	.L344:
 368:../switch_sdk/core/yt/yt_dot1x.c **** }
 3373              		.loc 1 368 1 view .LVU979
 3374 001e 08BD     		pop	{r3, pc}
 3375              	.LVL450:
 3376              	.L355:
 362:../switch_sdk/core/yt/yt_dot1x.c ****     CMM_PARAM_CHK(NULL == YT_DISPATCH(unit), CMM_ERR_NOT_INIT);
 3377              		.loc 1 362 5 is_stmt 1 discriminator 1 view .LVU980
 362:../switch_sdk/core/yt/yt_dot1x.c ****     CMM_PARAM_CHK(NULL == YT_DISPATCH(unit), CMM_ERR_NOT_INIT);
 3378              		.loc 1 362 5 discriminator 1 view .LVU981
 3379 0020 1C4B     		ldr	r3, .L363+4
 3380 0022 1B78     		ldrb	r3, [r3]	@ zero_extendqisi2
 3381 0024 012B     		cmp	r3, #1
 3382 0026 01D8     		bhi	.L359
 3383              	.LVL451:
 3384              	.L346:
 362:../switch_sdk/core/yt/yt_dot1x.c ****     CMM_PARAM_CHK(NULL == YT_DISPATCH(unit), CMM_ERR_NOT_INIT);
 3385              		.loc 1 362 5 discriminator 5 view .LVU982
 362:../switch_sdk/core/yt/yt_dot1x.c ****     CMM_PARAM_CHK(NULL == YT_DISPATCH(unit), CMM_ERR_NOT_INIT);
 3386              		.loc 1 362 5 discriminator 5 view .LVU983
 362:../switch_sdk/core/yt/yt_dot1x.c ****     CMM_PARAM_CHK(NULL == YT_DISPATCH(unit), CMM_ERR_NOT_INIT);
 3387              		.loc 1 362 5 discriminator 5 view .LVU984
 3388 0028 0520     		movs	r0, #5
 3389 002a F8E7     		b	.L344
 3390              	.LVL452:
 3391              	.L359:
 362:../switch_sdk/core/yt/yt_dot1x.c ****     CMM_PARAM_CHK(NULL == YT_DISPATCH(unit), CMM_ERR_NOT_INIT);
 3392              		.loc 1 362 5 discriminator 3 view .LVU985
 3393              	.LBB69:
 362:../switch_sdk/core/yt/yt_dot1x.c ****     CMM_PARAM_CHK(NULL == YT_DISPATCH(unit), CMM_ERR_NOT_INIT);
 3394              		.loc 1 362 5 discriminator 3 view .LVU986
 3395 002c 1A4B     		ldr	r3, .L363+8
 3396 002e 5A69     		ldr	r2, [r3, #20]
 3397 0030 1A4B     		ldr	r3, .L363+12
 3398 0032 9968     		ldr	r1, [r3, #8]
 3399              	.LVL453:
 362:../switch_sdk/core/yt/yt_dot1x.c ****     CMM_PARAM_CHK(NULL == YT_DISPATCH(unit), CMM_ERR_NOT_INIT);
 3400              		.loc 1 362 5 is_stmt 0 discriminator 3 view .LVU987
 3401 0034 1A48     		ldr	r0, .L363+16
 3402              	.LVL454:
 362:../switch_sdk/core/yt/yt_dot1x.c ****     CMM_PARAM_CHK(NULL == YT_DISPATCH(unit), CMM_ERR_NOT_INIT);
 3403              		.loc 1 362 5 discriminator 3 view .LVU988
 3404 0036 FFF7FEFF 		bl	osal_printf
 3405              	.LVL455:
 3406 003a F5E7     		b	.L346
 3407              	.LVL456:
 3408              	.L356:
 362:../switch_sdk/core/yt/yt_dot1x.c ****     CMM_PARAM_CHK(NULL == YT_DISPATCH(unit), CMM_ERR_NOT_INIT);
 3409              		.loc 1 362 5 discriminator 3 view .LVU989
 3410              	.LBE69:
 363:../switch_sdk/core/yt/yt_dot1x.c ****     CMM_PARAM_CHK((!(YT_DISPATCH(unit)->is_inited)), CMM_ERR_NOT_INIT);
 3411              		.loc 1 363 5 is_stmt 1 discriminator 1 view .LVU990
 363:../switch_sdk/core/yt/yt_dot1x.c ****     CMM_PARAM_CHK((!(YT_DISPATCH(unit)->is_inited)), CMM_ERR_NOT_INIT);
 3412              		.loc 1 363 5 discriminator 1 view .LVU991
 3413 003c 154B     		ldr	r3, .L363+4
 3414 003e 1B78     		ldrb	r3, [r3]	@ zero_extendqisi2
 3415 0040 012B     		cmp	r3, #1
 3416 0042 01D8     		bhi	.L360
 3417              	.LVL457:
 3418              	.L349:
 363:../switch_sdk/core/yt/yt_dot1x.c ****     CMM_PARAM_CHK((!(YT_DISPATCH(unit)->is_inited)), CMM_ERR_NOT_INIT);
 3419              		.loc 1 363 5 discriminator 5 view .LVU992
 363:../switch_sdk/core/yt/yt_dot1x.c ****     CMM_PARAM_CHK((!(YT_DISPATCH(unit)->is_inited)), CMM_ERR_NOT_INIT);
 3420              		.loc 1 363 5 discriminator 5 view .LVU993
 363:../switch_sdk/core/yt/yt_dot1x.c ****     CMM_PARAM_CHK((!(YT_DISPATCH(unit)->is_inited)), CMM_ERR_NOT_INIT);
 3421              		.loc 1 363 5 discriminator 5 view .LVU994
 3422 0044 0420     		movs	r0, #4
 3423 0046 EAE7     		b	.L344
 3424              	.LVL458:
 3425              	.L360:
 363:../switch_sdk/core/yt/yt_dot1x.c ****     CMM_PARAM_CHK((!(YT_DISPATCH(unit)->is_inited)), CMM_ERR_NOT_INIT);
 3426              		.loc 1 363 5 discriminator 3 view .LVU995
 3427              	.LBB70:
 363:../switch_sdk/core/yt/yt_dot1x.c ****     CMM_PARAM_CHK((!(YT_DISPATCH(unit)->is_inited)), CMM_ERR_NOT_INIT);
 3428              		.loc 1 363 5 discriminator 3 view .LVU996
 3429 0048 134B     		ldr	r3, .L363+8
 3430 004a 1A69     		ldr	r2, [r3, #16]
 3431 004c 134B     		ldr	r3, .L363+12
 3432 004e 9968     		ldr	r1, [r3, #8]
 3433              	.LVL459:
 363:../switch_sdk/core/yt/yt_dot1x.c ****     CMM_PARAM_CHK((!(YT_DISPATCH(unit)->is_inited)), CMM_ERR_NOT_INIT);
 3434              		.loc 1 363 5 is_stmt 0 discriminator 3 view .LVU997
 3435 0050 1348     		ldr	r0, .L363+16
 3436              	.LVL460:
 363:../switch_sdk/core/yt/yt_dot1x.c ****     CMM_PARAM_CHK((!(YT_DISPATCH(unit)->is_inited)), CMM_ERR_NOT_INIT);
 3437              		.loc 1 363 5 discriminator 3 view .LVU998
 3438 0052 FFF7FEFF 		bl	osal_printf
 3439              	.LVL461:
 3440 0056 F5E7     		b	.L349
 3441              	.LVL462:
 3442              	.L357:
 363:../switch_sdk/core/yt/yt_dot1x.c ****     CMM_PARAM_CHK((!(YT_DISPATCH(unit)->is_inited)), CMM_ERR_NOT_INIT);
 3443              		.loc 1 363 5 discriminator 3 view .LVU999
 3444              	.LBE70:
 364:../switch_sdk/core/yt/yt_dot1x.c ****     CMM_PARAM_CHK((YT_ENABLE < enable || YT_DISABLE > enable), CMM_ERR_INPUT);
 3445              		.loc 1 364 5 is_stmt 1 discriminator 1 view .LVU1000
 364:../switch_sdk/core/yt/yt_dot1x.c ****     CMM_PARAM_CHK((YT_ENABLE < enable || YT_DISABLE > enable), CMM_ERR_INPUT);
 3446              		.loc 1 364 5 discriminator 1 view .LVU1001
 3447 0058 0E4B     		ldr	r3, .L363+4
 3448 005a 1B78     		ldrb	r3, [r3]	@ zero_extendqisi2
 3449 005c 012B     		cmp	r3, #1
 3450 005e 01D8     		bhi	.L361
 3451              	.LVL463:
 3452              	.L351:
 364:../switch_sdk/core/yt/yt_dot1x.c ****     CMM_PARAM_CHK((YT_ENABLE < enable || YT_DISABLE > enable), CMM_ERR_INPUT);
 3453              		.loc 1 364 5 discriminator 5 view .LVU1002
 364:../switch_sdk/core/yt/yt_dot1x.c ****     CMM_PARAM_CHK((YT_ENABLE < enable || YT_DISABLE > enable), CMM_ERR_INPUT);
 3454              		.loc 1 364 5 discriminator 5 view .LVU1003
 364:../switch_sdk/core/yt/yt_dot1x.c ****     CMM_PARAM_CHK((YT_ENABLE < enable || YT_DISABLE > enable), CMM_ERR_INPUT);
 3455              		.loc 1 364 5 discriminator 5 view .LVU1004
 3456 0060 0420     		movs	r0, #4
 3457 0062 DCE7     		b	.L344
 3458              	.LVL464:
 3459              	.L361:
 364:../switch_sdk/core/yt/yt_dot1x.c ****     CMM_PARAM_CHK((YT_ENABLE < enable || YT_DISABLE > enable), CMM_ERR_INPUT);
 3460              		.loc 1 364 5 discriminator 3 view .LVU1005
 3461              	.LBB71:
 364:../switch_sdk/core/yt/yt_dot1x.c ****     CMM_PARAM_CHK((YT_ENABLE < enable || YT_DISABLE > enable), CMM_ERR_INPUT);
 3462              		.loc 1 364 5 discriminator 3 view .LVU1006
 3463 0064 0C4B     		ldr	r3, .L363+8
 3464 0066 1A69     		ldr	r2, [r3, #16]
 3465 0068 0C4B     		ldr	r3, .L363+12
 3466 006a 9968     		ldr	r1, [r3, #8]
 3467              	.LVL465:
 364:../switch_sdk/core/yt/yt_dot1x.c ****     CMM_PARAM_CHK((YT_ENABLE < enable || YT_DISABLE > enable), CMM_ERR_INPUT);
 3468              		.loc 1 364 5 is_stmt 0 discriminator 3 view .LVU1007
 3469 006c 0C48     		ldr	r0, .L363+16
 3470 006e FFF7FEFF 		bl	osal_printf
 3471              	.LVL466:
 3472 0072 F5E7     		b	.L351
 3473              	.LVL467:
 3474              	.L358:
 364:../switch_sdk/core/yt/yt_dot1x.c ****     CMM_PARAM_CHK((YT_ENABLE < enable || YT_DISABLE > enable), CMM_ERR_INPUT);
 3475              		.loc 1 364 5 discriminator 3 view .LVU1008
 3476              	.LBE71:
 365:../switch_sdk/core/yt/yt_dot1x.c **** 
 3477              		.loc 1 365 5 is_stmt 1 discriminator 1 view .LVU1009
 365:../switch_sdk/core/yt/yt_dot1x.c **** 
 3478              		.loc 1 365 5 discriminator 1 view .LVU1010
 3479 0074 074B     		ldr	r3, .L363+4
 3480 0076 1B78     		ldrb	r3, [r3]	@ zero_extendqisi2
 3481 0078 012B     		cmp	r3, #1
 3482 007a 01D8     		bhi	.L362
 3483              	.LVL468:
 3484              	.L353:
 365:../switch_sdk/core/yt/yt_dot1x.c **** 
 3485              		.loc 1 365 5 discriminator 5 view .LVU1011
 365:../switch_sdk/core/yt/yt_dot1x.c **** 
 3486              		.loc 1 365 5 discriminator 5 view .LVU1012
 365:../switch_sdk/core/yt/yt_dot1x.c **** 
 3487              		.loc 1 365 5 discriminator 5 view .LVU1013
 3488 007c 0520     		movs	r0, #5
 3489 007e CEE7     		b	.L344
 3490              	.LVL469:
 3491              	.L362:
 365:../switch_sdk/core/yt/yt_dot1x.c **** 
 3492              		.loc 1 365 5 discriminator 3 view .LVU1014
 3493              	.LBB72:
 365:../switch_sdk/core/yt/yt_dot1x.c **** 
 3494              		.loc 1 365 5 discriminator 3 view .LVU1015
 3495 0080 054B     		ldr	r3, .L363+8
 3496 0082 5A69     		ldr	r2, [r3, #20]
 3497 0084 054B     		ldr	r3, .L363+12
 3498 0086 9968     		ldr	r1, [r3, #8]
 3499              	.LVL470:
 365:../switch_sdk/core/yt/yt_dot1x.c **** 
 3500              		.loc 1 365 5 is_stmt 0 discriminator 3 view .LVU1016
 3501 0088 0548     		ldr	r0, .L363+16
 3502 008a FFF7FEFF 		bl	osal_printf
 3503              	.LVL471:
 3504 008e F5E7     		b	.L353
 3505              	.L364:
 3506              		.align	2
 3507              	.L363:
 3508 0090 00000000 		.word	gpfal_dispatch
 3509 0094 00000000 		.word	yt_debug_level
 3510 0098 00000000 		.word	_yt_errmsg
 3511 009c 00000000 		.word	_yt_prompt_msg
 3512 00a0 00000000 		.word	.LC0
 3513              	.LBE72:
 3514              		.cfi_endproc
 3515              	.LFE18:
 3517              		.section	.text.yt_dot1x_rx_bypass_mc_get,"ax",%progbits
 3518              		.align	1
 3519              		.global	yt_dot1x_rx_bypass_mc_get
 3520              		.syntax unified
 3521              		.thumb
 3522              		.thumb_func
 3524              	yt_dot1x_rx_bypass_mc_get:
 3525              	.LVL472:
 3526              	.LFB19:
 369:../switch_sdk/core/yt/yt_dot1x.c **** 
 370:../switch_sdk/core/yt/yt_dot1x.c **** /**
 371:../switch_sdk/core/yt/yt_dot1x.c ****  * @internal      yt_dot1x_rx_bypass_mc_get
 372:../switch_sdk/core/yt/yt_dot1x.c ****  * @endinternal
 373:../switch_sdk/core/yt/yt_dot1x.c ****  *
 374:../switch_sdk/core/yt/yt_dot1x.c ****  * @brief         Description
 375:../switch_sdk/core/yt/yt_dot1x.c ****  * @note          APPLICABLE DEVICES  -Tiger
 376:../switch_sdk/core/yt/yt_dot1x.c ****  * @param[in]     unit                -unit id
 377:../switch_sdk/core/yt/yt_dot1x.c ****  * @param[out]    pEnable             -enable or disable
 378:../switch_sdk/core/yt/yt_dot1x.c ****  * @retval        CMM_ERR_OK          -on success
 379:../switch_sdk/core/yt/yt_dot1x.c ****  * @retval        CMM_ERR_FAIL        -on fail
 380:../switch_sdk/core/yt/yt_dot1x.c ****  */
 381:../switch_sdk/core/yt/yt_dot1x.c **** yt_ret_t yt_dot1x_rx_bypass_mc_get(yt_unit_t unit, yt_enable_t *pEnable)
 382:../switch_sdk/core/yt/yt_dot1x.c **** {
 3527              		.loc 1 382 1 is_stmt 1 view -0
 3528              		.cfi_startproc
 3529              		@ args = 0, pretend = 0, frame = 0
 3530              		@ frame_needed = 0, uses_anonymous_args = 0
 3531              		.loc 1 382 1 is_stmt 0 view .LVU1018
 3532 0000 08B5     		push	{r3, lr}
 3533              		.cfi_def_cfa_offset 8
 3534              		.cfi_offset 3, -8
 3535              		.cfi_offset 14, -4
 383:../switch_sdk/core/yt/yt_dot1x.c ****     CMM_PARAM_CHK((YT_UNIT_NUM <= unit), CMM_ERR_INPUT);
 3536              		.loc 1 383 5 is_stmt 1 view .LVU1019
 3537              		.loc 1 383 5 view .LVU1020
 3538 0002 68B9     		cbnz	r0, .L376
 3539 0004 0246     		mov	r2, r0
 3540              		.loc 1 383 5 discriminator 2 view .LVU1021
 384:../switch_sdk/core/yt/yt_dot1x.c ****     CMM_PARAM_CHK(NULL == YT_DISPATCH(unit), CMM_ERR_NOT_INIT);
 3541              		.loc 1 384 5 discriminator 2 view .LVU1022
 3542              		.loc 1 384 5 discriminator 2 view .LVU1023
 3543 0006 224B     		ldr	r3, .L384
 3544 0008 53F82030 		ldr	r3, [r3, r0, lsl #2]
 3545 000c B3B1     		cbz	r3, .L377
 3546              		.loc 1 384 5 discriminator 2 view .LVU1024
 385:../switch_sdk/core/yt/yt_dot1x.c ****     CMM_PARAM_CHK((!(YT_DISPATCH(unit)->is_inited)), CMM_ERR_NOT_INIT);
 3547              		.loc 1 385 5 discriminator 2 view .LVU1025
 3548              		.loc 1 385 5 discriminator 2 view .LVU1026
 3549 000e 1878     		ldrb	r0, [r3]	@ zero_extendqisi2
 3550              	.LVL473:
 3551              		.loc 1 385 5 is_stmt 0 discriminator 2 view .LVU1027
 3552 0010 10B3     		cbz	r0, .L378
 3553              		.loc 1 385 5 is_stmt 1 discriminator 2 view .LVU1028
 386:../switch_sdk/core/yt/yt_dot1x.c ****     CMM_PARAM_CHK((NULL == pEnable), CMM_ERR_NULL_POINT);
 3554              		.loc 1 386 5 discriminator 2 view .LVU1029
 3555              		.loc 1 386 5 discriminator 2 view .LVU1030
 3556 0012 0029     		cmp	r1, #0
 3557 0014 2ED0     		beq	.L379
 3558              		.loc 1 386 5 discriminator 2 view .LVU1031
 387:../switch_sdk/core/yt/yt_dot1x.c **** 
