   1              		.cpu cortex-m3
   2              		.arch armv7-m
   3              		.fpu softvfp
   4              		.eabi_attribute 20, 1
   5              		.eabi_attribute 21, 1
   6              		.eabi_attribute 23, 3
   7              		.eabi_attribute 24, 1
   8              		.eabi_attribute 25, 1
   9              		.eabi_attribute 26, 1
  10              		.eabi_attribute 30, 1
  11              		.eabi_attribute 34, 1
  12              		.eabi_attribute 18, 4
  13              		.file	"yt_interrupt.c"
  14              		.text
  15              	.Ltext0:
  16              		.cfi_sections	.debug_frame
  17              		.file 1 "../switch_sdk/core/yt/yt_interrupt.c"
  18              		.section	.rodata.yt_int_polarity_set.str1.4,"aMS",%progbits,1
  19              		.align	2
  20              	.LC0:
  21 0000 25732573 		.ascii	"%s%s\015\012\000"
  21      0D0A00
  22              		.section	.text.yt_int_polarity_set,"ax",%progbits
  23              		.align	1
  24              		.global	yt_int_polarity_set
  25              		.syntax unified
  26              		.thumb
  27              		.thumb_func
  29              	yt_int_polarity_set:
  30              	.LVL0:
  31              	.LFB3:
   1:../switch_sdk/core/yt/yt_interrupt.c **** /*******************************************************************************
   2:../switch_sdk/core/yt/yt_interrupt.c **** *                                                                              *
   3:../switch_sdk/core/yt/yt_interrupt.c **** *  Copyright (c), 2022, Motorcomm Electronic Technology Co.,Ltd.               *
   4:../switch_sdk/core/yt/yt_interrupt.c **** *  Motorcomm Confidential and Proprietary.                                     *
   5:../switch_sdk/core/yt/yt_interrupt.c **** *                                                                              *
   6:../switch_sdk/core/yt/yt_interrupt.c **** ********************************************************************************
   7:../switch_sdk/core/yt/yt_interrupt.c **** */
   8:../switch_sdk/core/yt/yt_interrupt.c **** /**
   9:../switch_sdk/core/yt/yt_interrupt.c **** ********************************************************************************
  10:../switch_sdk/core/yt/yt_interrupt.c **** * @file yt_interrupt.c
  11:../switch_sdk/core/yt/yt_interrupt.c **** *
  12:../switch_sdk/core/yt/yt_interrupt.c **** * @brief x
  13:../switch_sdk/core/yt/yt_interrupt.c **** *
  14:../switch_sdk/core/yt/yt_interrupt.c **** ********************************************************************************
  15:../switch_sdk/core/yt/yt_interrupt.c **** */
  16:../switch_sdk/core/yt/yt_interrupt.c **** #include "yt_interrupt.h"
  17:../switch_sdk/core/yt/yt_interrupt.c **** #include "fal_dispatch.h"
  18:../switch_sdk/core/yt/yt_interrupt.c **** 
  19:../switch_sdk/core/yt/yt_interrupt.c **** 
  20:../switch_sdk/core/yt/yt_interrupt.c **** /**
  21:../switch_sdk/core/yt/yt_interrupt.c ****  * @internal      yt_int_polarity_set
  22:../switch_sdk/core/yt/yt_interrupt.c ****  * @endinternal
  23:../switch_sdk/core/yt/yt_interrupt.c ****  *
  24:../switch_sdk/core/yt/yt_interrupt.c ****  * @brief         Description
  25:../switch_sdk/core/yt/yt_interrupt.c ****  * @param[in]     unit                -unit id
  26:../switch_sdk/core/yt/yt_interrupt.c ****  * @param[in]     type                -high level low level
  27:../switch_sdk/core/yt/yt_interrupt.c ****  * @retval        CMM_ERR_OK          -on success
  28:../switch_sdk/core/yt/yt_interrupt.c ****  * @retval        CMM_ERR_FAIL        -on fail
  29:../switch_sdk/core/yt/yt_interrupt.c ****  */
  30:../switch_sdk/core/yt/yt_interrupt.c **** yt_ret_t yt_int_polarity_set(yt_unit_t unit, yt_int_polarity_t type)
  31:../switch_sdk/core/yt/yt_interrupt.c **** {
  32              		.loc 1 31 1 view -0
  33              		.cfi_startproc
  34              		@ args = 0, pretend = 0, frame = 0
  35              		@ frame_needed = 0, uses_anonymous_args = 0
  36              		.loc 1 31 1 is_stmt 0 view .LVU1
  37 0000 08B5     		push	{r3, lr}
  38              		.cfi_def_cfa_offset 8
  39              		.cfi_offset 3, -8
  40              		.cfi_offset 14, -4
  32:../switch_sdk/core/yt/yt_interrupt.c ****     CMM_PARAM_CHK((YT_UNIT_NUM <= unit), CMM_ERR_INPUT);
  41              		.loc 1 32 5 is_stmt 1 view .LVU2
  42              		.loc 1 32 5 view .LVU3
  43 0002 68B9     		cbnz	r0, .L12
  44 0004 0246     		mov	r2, r0
  45              		.loc 1 32 5 discriminator 2 view .LVU4
  33:../switch_sdk/core/yt/yt_interrupt.c ****     CMM_PARAM_CHK(NULL == YT_DISPATCH(unit), CMM_ERR_NOT_INIT);
  46              		.loc 1 33 5 discriminator 2 view .LVU5
  47              		.loc 1 33 5 discriminator 2 view .LVU6
  48 0006 224B     		ldr	r3, .L20
  49 0008 53F82030 		ldr	r3, [r3, r0, lsl #2]
  50 000c B3B1     		cbz	r3, .L13
  51              		.loc 1 33 5 discriminator 2 view .LVU7
  34:../switch_sdk/core/yt/yt_interrupt.c ****     CMM_PARAM_CHK((!(YT_DISPATCH(unit)->is_inited)), CMM_ERR_NOT_INIT);
  52              		.loc 1 34 5 discriminator 2 view .LVU8
  53              		.loc 1 34 5 discriminator 2 view .LVU9
  54 000e 1878     		ldrb	r0, [r3]	@ zero_extendqisi2
  55              	.LVL1:
  56              		.loc 1 34 5 is_stmt 0 discriminator 2 view .LVU10
  57 0010 10B3     		cbz	r0, .L14
  58              		.loc 1 34 5 is_stmt 1 discriminator 2 view .LVU11
  35:../switch_sdk/core/yt/yt_interrupt.c ****     CMM_PARAM_CHK((INT_POLAR_HIGH < type || INT_POLAR_LOW > type), CMM_ERR_INPUT);
  59              		.loc 1 35 5 discriminator 2 view .LVU12
  60              		.loc 1 35 5 discriminator 2 view .LVU13
  61 0012 0129     		cmp	r1, #1
  62 0014 2ED8     		bhi	.L15
  63              		.loc 1 35 5 discriminator 2 view .LVU14
  36:../switch_sdk/core/yt/yt_interrupt.c **** 
  37:../switch_sdk/core/yt/yt_interrupt.c ****     return YT_DISPATCH(unit)->int_polarity_set(unit, type);
  64              		.loc 1 37 5 discriminator 2 view .LVU15
  65              		.loc 1 37 29 is_stmt 0 discriminator 2 view .LVU16
  66 0016 D3F84836 		ldr	r3, [r3, #1608]
  67              		.loc 1 37 12 discriminator 2 view .LVU17
  68 001a 1046     		mov	r0, r2
  69 001c 9847     		blx	r3
  70              	.LVL2:
  71              	.L1:
  38:../switch_sdk/core/yt/yt_interrupt.c **** }
  72              		.loc 1 38 1 view .LVU18
  73 001e 08BD     		pop	{r3, pc}
  74              	.LVL3:
  75              	.L12:
  32:../switch_sdk/core/yt/yt_interrupt.c ****     CMM_PARAM_CHK(NULL == YT_DISPATCH(unit), CMM_ERR_NOT_INIT);
  76              		.loc 1 32 5 is_stmt 1 discriminator 1 view .LVU19
  32:../switch_sdk/core/yt/yt_interrupt.c ****     CMM_PARAM_CHK(NULL == YT_DISPATCH(unit), CMM_ERR_NOT_INIT);
  77              		.loc 1 32 5 discriminator 1 view .LVU20
  78 0020 1C4B     		ldr	r3, .L20+4
  79 0022 1B78     		ldrb	r3, [r3]	@ zero_extendqisi2
  80 0024 012B     		cmp	r3, #1
  81 0026 01D8     		bhi	.L16
  82              	.LVL4:
  83              	.L3:
  32:../switch_sdk/core/yt/yt_interrupt.c ****     CMM_PARAM_CHK(NULL == YT_DISPATCH(unit), CMM_ERR_NOT_INIT);
  84              		.loc 1 32 5 discriminator 5 view .LVU21
  32:../switch_sdk/core/yt/yt_interrupt.c ****     CMM_PARAM_CHK(NULL == YT_DISPATCH(unit), CMM_ERR_NOT_INIT);
  85              		.loc 1 32 5 discriminator 5 view .LVU22
  32:../switch_sdk/core/yt/yt_interrupt.c ****     CMM_PARAM_CHK(NULL == YT_DISPATCH(unit), CMM_ERR_NOT_INIT);
  86              		.loc 1 32 5 discriminator 5 view .LVU23
  87 0028 0520     		movs	r0, #5
  88 002a F8E7     		b	.L1
  89              	.LVL5:
  90              	.L16:
  32:../switch_sdk/core/yt/yt_interrupt.c ****     CMM_PARAM_CHK(NULL == YT_DISPATCH(unit), CMM_ERR_NOT_INIT);
  91              		.loc 1 32 5 discriminator 3 view .LVU24
  92              	.LBB2:
  32:../switch_sdk/core/yt/yt_interrupt.c ****     CMM_PARAM_CHK(NULL == YT_DISPATCH(unit), CMM_ERR_NOT_INIT);
  93              		.loc 1 32 5 discriminator 3 view .LVU25
  94 002c 1A4B     		ldr	r3, .L20+8
  95 002e 5A69     		ldr	r2, [r3, #20]
  96 0030 1A4B     		ldr	r3, .L20+12
  97 0032 9968     		ldr	r1, [r3, #8]
  98              	.LVL6:
  32:../switch_sdk/core/yt/yt_interrupt.c ****     CMM_PARAM_CHK(NULL == YT_DISPATCH(unit), CMM_ERR_NOT_INIT);
  99              		.loc 1 32 5 is_stmt 0 discriminator 3 view .LVU26
 100 0034 1A48     		ldr	r0, .L20+16
 101              	.LVL7:
  32:../switch_sdk/core/yt/yt_interrupt.c ****     CMM_PARAM_CHK(NULL == YT_DISPATCH(unit), CMM_ERR_NOT_INIT);
 102              		.loc 1 32 5 discriminator 3 view .LVU27
 103 0036 FFF7FEFF 		bl	osal_printf
 104              	.LVL8:
 105 003a F5E7     		b	.L3
 106              	.LVL9:
 107              	.L13:
  32:../switch_sdk/core/yt/yt_interrupt.c ****     CMM_PARAM_CHK(NULL == YT_DISPATCH(unit), CMM_ERR_NOT_INIT);
 108              		.loc 1 32 5 discriminator 3 view .LVU28
 109              	.LBE2:
  33:../switch_sdk/core/yt/yt_interrupt.c ****     CMM_PARAM_CHK((!(YT_DISPATCH(unit)->is_inited)), CMM_ERR_NOT_INIT);
 110              		.loc 1 33 5 is_stmt 1 discriminator 1 view .LVU29
  33:../switch_sdk/core/yt/yt_interrupt.c ****     CMM_PARAM_CHK((!(YT_DISPATCH(unit)->is_inited)), CMM_ERR_NOT_INIT);
 111              		.loc 1 33 5 discriminator 1 view .LVU30
 112 003c 154B     		ldr	r3, .L20+4
 113 003e 1B78     		ldrb	r3, [r3]	@ zero_extendqisi2
 114 0040 012B     		cmp	r3, #1
 115 0042 01D8     		bhi	.L17
 116              	.LVL10:
 117              	.L6:
  33:../switch_sdk/core/yt/yt_interrupt.c ****     CMM_PARAM_CHK((!(YT_DISPATCH(unit)->is_inited)), CMM_ERR_NOT_INIT);
 118              		.loc 1 33 5 discriminator 5 view .LVU31
  33:../switch_sdk/core/yt/yt_interrupt.c ****     CMM_PARAM_CHK((!(YT_DISPATCH(unit)->is_inited)), CMM_ERR_NOT_INIT);
 119              		.loc 1 33 5 discriminator 5 view .LVU32
  33:../switch_sdk/core/yt/yt_interrupt.c ****     CMM_PARAM_CHK((!(YT_DISPATCH(unit)->is_inited)), CMM_ERR_NOT_INIT);
 120              		.loc 1 33 5 discriminator 5 view .LVU33
 121 0044 0420     		movs	r0, #4
 122 0046 EAE7     		b	.L1
 123              	.LVL11:
 124              	.L17:
  33:../switch_sdk/core/yt/yt_interrupt.c ****     CMM_PARAM_CHK((!(YT_DISPATCH(unit)->is_inited)), CMM_ERR_NOT_INIT);
 125              		.loc 1 33 5 discriminator 3 view .LVU34
 126              	.LBB3:
  33:../switch_sdk/core/yt/yt_interrupt.c ****     CMM_PARAM_CHK((!(YT_DISPATCH(unit)->is_inited)), CMM_ERR_NOT_INIT);
 127              		.loc 1 33 5 discriminator 3 view .LVU35
 128 0048 134B     		ldr	r3, .L20+8
 129 004a 1A69     		ldr	r2, [r3, #16]
 130 004c 134B     		ldr	r3, .L20+12
 131 004e 9968     		ldr	r1, [r3, #8]
 132              	.LVL12:
  33:../switch_sdk/core/yt/yt_interrupt.c ****     CMM_PARAM_CHK((!(YT_DISPATCH(unit)->is_inited)), CMM_ERR_NOT_INIT);
 133              		.loc 1 33 5 is_stmt 0 discriminator 3 view .LVU36
 134 0050 1348     		ldr	r0, .L20+16
 135              	.LVL13:
  33:../switch_sdk/core/yt/yt_interrupt.c ****     CMM_PARAM_CHK((!(YT_DISPATCH(unit)->is_inited)), CMM_ERR_NOT_INIT);
 136              		.loc 1 33 5 discriminator 3 view .LVU37
 137 0052 FFF7FEFF 		bl	osal_printf
 138              	.LVL14:
 139 0056 F5E7     		b	.L6
 140              	.LVL15:
 141              	.L14:
  33:../switch_sdk/core/yt/yt_interrupt.c ****     CMM_PARAM_CHK((!(YT_DISPATCH(unit)->is_inited)), CMM_ERR_NOT_INIT);
 142              		.loc 1 33 5 discriminator 3 view .LVU38
 143              	.LBE3:
  34:../switch_sdk/core/yt/yt_interrupt.c ****     CMM_PARAM_CHK((INT_POLAR_HIGH < type || INT_POLAR_LOW > type), CMM_ERR_INPUT);
 144              		.loc 1 34 5 is_stmt 1 discriminator 1 view .LVU39
  34:../switch_sdk/core/yt/yt_interrupt.c ****     CMM_PARAM_CHK((INT_POLAR_HIGH < type || INT_POLAR_LOW > type), CMM_ERR_INPUT);
 145              		.loc 1 34 5 discriminator 1 view .LVU40
 146 0058 0E4B     		ldr	r3, .L20+4
 147 005a 1B78     		ldrb	r3, [r3]	@ zero_extendqisi2
 148 005c 012B     		cmp	r3, #1
 149 005e 01D8     		bhi	.L18
 150              	.LVL16:
 151              	.L8:
  34:../switch_sdk/core/yt/yt_interrupt.c ****     CMM_PARAM_CHK((INT_POLAR_HIGH < type || INT_POLAR_LOW > type), CMM_ERR_INPUT);
 152              		.loc 1 34 5 discriminator 5 view .LVU41
  34:../switch_sdk/core/yt/yt_interrupt.c ****     CMM_PARAM_CHK((INT_POLAR_HIGH < type || INT_POLAR_LOW > type), CMM_ERR_INPUT);
 153              		.loc 1 34 5 discriminator 5 view .LVU42
  34:../switch_sdk/core/yt/yt_interrupt.c ****     CMM_PARAM_CHK((INT_POLAR_HIGH < type || INT_POLAR_LOW > type), CMM_ERR_INPUT);
 154              		.loc 1 34 5 discriminator 5 view .LVU43
 155 0060 0420     		movs	r0, #4
 156 0062 DCE7     		b	.L1
 157              	.LVL17:
 158              	.L18:
  34:../switch_sdk/core/yt/yt_interrupt.c ****     CMM_PARAM_CHK((INT_POLAR_HIGH < type || INT_POLAR_LOW > type), CMM_ERR_INPUT);
 159              		.loc 1 34 5 discriminator 3 view .LVU44
 160              	.LBB4:
  34:../switch_sdk/core/yt/yt_interrupt.c ****     CMM_PARAM_CHK((INT_POLAR_HIGH < type || INT_POLAR_LOW > type), CMM_ERR_INPUT);
 161              		.loc 1 34 5 discriminator 3 view .LVU45
 162 0064 0C4B     		ldr	r3, .L20+8
 163 0066 1A69     		ldr	r2, [r3, #16]
 164 0068 0C4B     		ldr	r3, .L20+12
 165 006a 9968     		ldr	r1, [r3, #8]
 166              	.LVL18:
  34:../switch_sdk/core/yt/yt_interrupt.c ****     CMM_PARAM_CHK((INT_POLAR_HIGH < type || INT_POLAR_LOW > type), CMM_ERR_INPUT);
 167              		.loc 1 34 5 is_stmt 0 discriminator 3 view .LVU46
 168 006c 0C48     		ldr	r0, .L20+16
 169 006e FFF7FEFF 		bl	osal_printf
 170              	.LVL19:
 171 0072 F5E7     		b	.L8
 172              	.LVL20:
 173              	.L15:
  34:../switch_sdk/core/yt/yt_interrupt.c ****     CMM_PARAM_CHK((INT_POLAR_HIGH < type || INT_POLAR_LOW > type), CMM_ERR_INPUT);
 174              		.loc 1 34 5 discriminator 3 view .LVU47
 175              	.LBE4:
  35:../switch_sdk/core/yt/yt_interrupt.c **** 
 176              		.loc 1 35 5 is_stmt 1 discriminator 1 view .LVU48
  35:../switch_sdk/core/yt/yt_interrupt.c **** 
 177              		.loc 1 35 5 discriminator 1 view .LVU49
 178 0074 074B     		ldr	r3, .L20+4
 179 0076 1B78     		ldrb	r3, [r3]	@ zero_extendqisi2
 180 0078 012B     		cmp	r3, #1
 181 007a 01D8     		bhi	.L19
 182              	.LVL21:
 183              	.L10:
  35:../switch_sdk/core/yt/yt_interrupt.c **** 
 184              		.loc 1 35 5 discriminator 5 view .LVU50
  35:../switch_sdk/core/yt/yt_interrupt.c **** 
 185              		.loc 1 35 5 discriminator 5 view .LVU51
  35:../switch_sdk/core/yt/yt_interrupt.c **** 
 186              		.loc 1 35 5 discriminator 5 view .LVU52
 187 007c 0520     		movs	r0, #5
 188 007e CEE7     		b	.L1
 189              	.LVL22:
 190              	.L19:
  35:../switch_sdk/core/yt/yt_interrupt.c **** 
 191              		.loc 1 35 5 discriminator 3 view .LVU53
 192              	.LBB5:
  35:../switch_sdk/core/yt/yt_interrupt.c **** 
 193              		.loc 1 35 5 discriminator 3 view .LVU54
 194 0080 054B     		ldr	r3, .L20+8
 195 0082 5A69     		ldr	r2, [r3, #20]
 196 0084 054B     		ldr	r3, .L20+12
 197 0086 9968     		ldr	r1, [r3, #8]
 198              	.LVL23:
  35:../switch_sdk/core/yt/yt_interrupt.c **** 
 199              		.loc 1 35 5 is_stmt 0 discriminator 3 view .LVU55
 200 0088 0548     		ldr	r0, .L20+16
 201 008a FFF7FEFF 		bl	osal_printf
 202              	.LVL24:
 203 008e F5E7     		b	.L10
 204              	.L21:
 205              		.align	2
 206              	.L20:
 207 0090 00000000 		.word	gpfal_dispatch
 208 0094 00000000 		.word	yt_debug_level
 209 0098 00000000 		.word	_yt_errmsg
 210 009c 00000000 		.word	_yt_prompt_msg
 211 00a0 00000000 		.word	.LC0
 212              	.LBE5:
 213              		.cfi_endproc
 214              	.LFE3:
 216              		.section	.text.yt_int_polarity_get,"ax",%progbits
 217              		.align	1
 218              		.global	yt_int_polarity_get
 219              		.syntax unified
 220              		.thumb
 221              		.thumb_func
 223              	yt_int_polarity_get:
 224              	.LVL25:
 225              	.LFB4:
  39:../switch_sdk/core/yt/yt_interrupt.c **** 
  40:../switch_sdk/core/yt/yt_interrupt.c **** /**
  41:../switch_sdk/core/yt/yt_interrupt.c ****  * @internal      yt_int_polarity_get
  42:../switch_sdk/core/yt/yt_interrupt.c ****  * @endinternal
  43:../switch_sdk/core/yt/yt_interrupt.c ****  *
  44:../switch_sdk/core/yt/yt_interrupt.c ****  * @brief         Description
  45:../switch_sdk/core/yt/yt_interrupt.c ****  * @param[in]     unit                -unit id
  46:../switch_sdk/core/yt/yt_interrupt.c ****  * @param[out]    pType               -high level low level
  47:../switch_sdk/core/yt/yt_interrupt.c ****  * @retval        CMM_ERR_OK          -on success
  48:../switch_sdk/core/yt/yt_interrupt.c ****  * @retval        CMM_ERR_FAIL        -on fail
  49:../switch_sdk/core/yt/yt_interrupt.c ****  */
  50:../switch_sdk/core/yt/yt_interrupt.c **** yt_ret_t yt_int_polarity_get(yt_unit_t unit, yt_int_polarity_t *pType)
  51:../switch_sdk/core/yt/yt_interrupt.c **** {
 226              		.loc 1 51 1 is_stmt 1 view -0
 227              		.cfi_startproc
 228              		@ args = 0, pretend = 0, frame = 0
 229              		@ frame_needed = 0, uses_anonymous_args = 0
 230              		.loc 1 51 1 is_stmt 0 view .LVU57
 231 0000 08B5     		push	{r3, lr}
 232              		.cfi_def_cfa_offset 8
 233              		.cfi_offset 3, -8
 234              		.cfi_offset 14, -4
  52:../switch_sdk/core/yt/yt_interrupt.c ****     CMM_PARAM_CHK((YT_UNIT_NUM <= unit), CMM_ERR_INPUT);
 235              		.loc 1 52 5 is_stmt 1 view .LVU58
 236              		.loc 1 52 5 view .LVU59
 237 0002 68B9     		cbnz	r0, .L33
 238 0004 0246     		mov	r2, r0
 239              		.loc 1 52 5 discriminator 2 view .LVU60
  53:../switch_sdk/core/yt/yt_interrupt.c ****     CMM_PARAM_CHK(NULL == YT_DISPATCH(unit), CMM_ERR_NOT_INIT);
 240              		.loc 1 53 5 discriminator 2 view .LVU61
 241              		.loc 1 53 5 discriminator 2 view .LVU62
 242 0006 224B     		ldr	r3, .L41
 243 0008 53F82030 		ldr	r3, [r3, r0, lsl #2]
 244 000c B3B1     		cbz	r3, .L34
 245              		.loc 1 53 5 discriminator 2 view .LVU63
  54:../switch_sdk/core/yt/yt_interrupt.c ****     CMM_PARAM_CHK((!(YT_DISPATCH(unit)->is_inited)), CMM_ERR_NOT_INIT);
 246              		.loc 1 54 5 discriminator 2 view .LVU64
 247              		.loc 1 54 5 discriminator 2 view .LVU65
 248 000e 1878     		ldrb	r0, [r3]	@ zero_extendqisi2
 249              	.LVL26:
 250              		.loc 1 54 5 is_stmt 0 discriminator 2 view .LVU66
 251 0010 10B3     		cbz	r0, .L35
 252              		.loc 1 54 5 is_stmt 1 discriminator 2 view .LVU67
  55:../switch_sdk/core/yt/yt_interrupt.c ****     CMM_PARAM_CHK((NULL == pType), CMM_ERR_NULL_POINT);
 253              		.loc 1 55 5 discriminator 2 view .LVU68
 254              		.loc 1 55 5 discriminator 2 view .LVU69
 255 0012 0029     		cmp	r1, #0
 256 0014 2ED0     		beq	.L36
 257              		.loc 1 55 5 discriminator 2 view .LVU70
  56:../switch_sdk/core/yt/yt_interrupt.c **** 
  57:../switch_sdk/core/yt/yt_interrupt.c ****     return YT_DISPATCH(unit)->int_polarity_get(unit, pType);
 258              		.loc 1 57 5 discriminator 2 view .LVU71
 259              		.loc 1 57 29 is_stmt 0 discriminator 2 view .LVU72
 260 0016 D3F84C36 		ldr	r3, [r3, #1612]
 261              		.loc 1 57 12 discriminator 2 view .LVU73
 262 001a 1046     		mov	r0, r2
 263 001c 9847     		blx	r3
 264              	.LVL27:
 265              	.L22:
  58:../switch_sdk/core/yt/yt_interrupt.c **** }
 266              		.loc 1 58 1 view .LVU74
 267 001e 08BD     		pop	{r3, pc}
 268              	.LVL28:
 269              	.L33:
  52:../switch_sdk/core/yt/yt_interrupt.c ****     CMM_PARAM_CHK(NULL == YT_DISPATCH(unit), CMM_ERR_NOT_INIT);
 270              		.loc 1 52 5 is_stmt 1 discriminator 1 view .LVU75
  52:../switch_sdk/core/yt/yt_interrupt.c ****     CMM_PARAM_CHK(NULL == YT_DISPATCH(unit), CMM_ERR_NOT_INIT);
 271              		.loc 1 52 5 discriminator 1 view .LVU76
 272 0020 1C4B     		ldr	r3, .L41+4
 273 0022 1B78     		ldrb	r3, [r3]	@ zero_extendqisi2
 274 0024 012B     		cmp	r3, #1
 275 0026 01D8     		bhi	.L37
 276              	.LVL29:
 277              	.L24:
  52:../switch_sdk/core/yt/yt_interrupt.c ****     CMM_PARAM_CHK(NULL == YT_DISPATCH(unit), CMM_ERR_NOT_INIT);
 278              		.loc 1 52 5 discriminator 5 view .LVU77
  52:../switch_sdk/core/yt/yt_interrupt.c ****     CMM_PARAM_CHK(NULL == YT_DISPATCH(unit), CMM_ERR_NOT_INIT);
 279              		.loc 1 52 5 discriminator 5 view .LVU78
  52:../switch_sdk/core/yt/yt_interrupt.c ****     CMM_PARAM_CHK(NULL == YT_DISPATCH(unit), CMM_ERR_NOT_INIT);
 280              		.loc 1 52 5 discriminator 5 view .LVU79
 281 0028 0520     		movs	r0, #5
 282 002a F8E7     		b	.L22
 283              	.LVL30:
 284              	.L37:
  52:../switch_sdk/core/yt/yt_interrupt.c ****     CMM_PARAM_CHK(NULL == YT_DISPATCH(unit), CMM_ERR_NOT_INIT);
 285              		.loc 1 52 5 discriminator 3 view .LVU80
 286              	.LBB6:
  52:../switch_sdk/core/yt/yt_interrupt.c ****     CMM_PARAM_CHK(NULL == YT_DISPATCH(unit), CMM_ERR_NOT_INIT);
 287              		.loc 1 52 5 discriminator 3 view .LVU81
 288 002c 1A4B     		ldr	r3, .L41+8
 289 002e 5A69     		ldr	r2, [r3, #20]
 290 0030 1A4B     		ldr	r3, .L41+12
 291 0032 9968     		ldr	r1, [r3, #8]
 292              	.LVL31:
  52:../switch_sdk/core/yt/yt_interrupt.c ****     CMM_PARAM_CHK(NULL == YT_DISPATCH(unit), CMM_ERR_NOT_INIT);
 293              		.loc 1 52 5 is_stmt 0 discriminator 3 view .LVU82
 294 0034 1A48     		ldr	r0, .L41+16
 295              	.LVL32:
  52:../switch_sdk/core/yt/yt_interrupt.c ****     CMM_PARAM_CHK(NULL == YT_DISPATCH(unit), CMM_ERR_NOT_INIT);
 296              		.loc 1 52 5 discriminator 3 view .LVU83
 297 0036 FFF7FEFF 		bl	osal_printf
 298              	.LVL33:
 299 003a F5E7     		b	.L24
 300              	.LVL34:
 301              	.L34:
  52:../switch_sdk/core/yt/yt_interrupt.c ****     CMM_PARAM_CHK(NULL == YT_DISPATCH(unit), CMM_ERR_NOT_INIT);
 302              		.loc 1 52 5 discriminator 3 view .LVU84
 303              	.LBE6:
  53:../switch_sdk/core/yt/yt_interrupt.c ****     CMM_PARAM_CHK((!(YT_DISPATCH(unit)->is_inited)), CMM_ERR_NOT_INIT);
 304              		.loc 1 53 5 is_stmt 1 discriminator 1 view .LVU85
  53:../switch_sdk/core/yt/yt_interrupt.c ****     CMM_PARAM_CHK((!(YT_DISPATCH(unit)->is_inited)), CMM_ERR_NOT_INIT);
 305              		.loc 1 53 5 discriminator 1 view .LVU86
 306 003c 154B     		ldr	r3, .L41+4
 307 003e 1B78     		ldrb	r3, [r3]	@ zero_extendqisi2
 308 0040 012B     		cmp	r3, #1
 309 0042 01D8     		bhi	.L38
 310              	.LVL35:
 311              	.L27:
  53:../switch_sdk/core/yt/yt_interrupt.c ****     CMM_PARAM_CHK((!(YT_DISPATCH(unit)->is_inited)), CMM_ERR_NOT_INIT);
 312              		.loc 1 53 5 discriminator 5 view .LVU87
  53:../switch_sdk/core/yt/yt_interrupt.c ****     CMM_PARAM_CHK((!(YT_DISPATCH(unit)->is_inited)), CMM_ERR_NOT_INIT);
 313              		.loc 1 53 5 discriminator 5 view .LVU88
  53:../switch_sdk/core/yt/yt_interrupt.c ****     CMM_PARAM_CHK((!(YT_DISPATCH(unit)->is_inited)), CMM_ERR_NOT_INIT);
 314              		.loc 1 53 5 discriminator 5 view .LVU89
 315 0044 0420     		movs	r0, #4
 316 0046 EAE7     		b	.L22
 317              	.LVL36:
 318              	.L38:
  53:../switch_sdk/core/yt/yt_interrupt.c ****     CMM_PARAM_CHK((!(YT_DISPATCH(unit)->is_inited)), CMM_ERR_NOT_INIT);
 319              		.loc 1 53 5 discriminator 3 view .LVU90
 320              	.LBB7:
  53:../switch_sdk/core/yt/yt_interrupt.c ****     CMM_PARAM_CHK((!(YT_DISPATCH(unit)->is_inited)), CMM_ERR_NOT_INIT);
 321              		.loc 1 53 5 discriminator 3 view .LVU91
 322 0048 134B     		ldr	r3, .L41+8
 323 004a 1A69     		ldr	r2, [r3, #16]
 324 004c 134B     		ldr	r3, .L41+12
 325 004e 9968     		ldr	r1, [r3, #8]
 326              	.LVL37:
  53:../switch_sdk/core/yt/yt_interrupt.c ****     CMM_PARAM_CHK((!(YT_DISPATCH(unit)->is_inited)), CMM_ERR_NOT_INIT);
 327              		.loc 1 53 5 is_stmt 0 discriminator 3 view .LVU92
 328 0050 1348     		ldr	r0, .L41+16
 329              	.LVL38:
  53:../switch_sdk/core/yt/yt_interrupt.c ****     CMM_PARAM_CHK((!(YT_DISPATCH(unit)->is_inited)), CMM_ERR_NOT_INIT);
 330              		.loc 1 53 5 discriminator 3 view .LVU93
 331 0052 FFF7FEFF 		bl	osal_printf
 332              	.LVL39:
 333 0056 F5E7     		b	.L27
 334              	.LVL40:
 335              	.L35:
  53:../switch_sdk/core/yt/yt_interrupt.c ****     CMM_PARAM_CHK((!(YT_DISPATCH(unit)->is_inited)), CMM_ERR_NOT_INIT);
 336              		.loc 1 53 5 discriminator 3 view .LVU94
 337              	.LBE7:
  54:../switch_sdk/core/yt/yt_interrupt.c ****     CMM_PARAM_CHK((NULL == pType), CMM_ERR_NULL_POINT);
 338              		.loc 1 54 5 is_stmt 1 discriminator 1 view .LVU95
  54:../switch_sdk/core/yt/yt_interrupt.c ****     CMM_PARAM_CHK((NULL == pType), CMM_ERR_NULL_POINT);
 339              		.loc 1 54 5 discriminator 1 view .LVU96
 340 0058 0E4B     		ldr	r3, .L41+4
 341 005a 1B78     		ldrb	r3, [r3]	@ zero_extendqisi2
 342 005c 012B     		cmp	r3, #1
 343 005e 01D8     		bhi	.L39
 344              	.LVL41:
 345              	.L29:
  54:../switch_sdk/core/yt/yt_interrupt.c ****     CMM_PARAM_CHK((NULL == pType), CMM_ERR_NULL_POINT);
 346              		.loc 1 54 5 discriminator 5 view .LVU97
  54:../switch_sdk/core/yt/yt_interrupt.c ****     CMM_PARAM_CHK((NULL == pType), CMM_ERR_NULL_POINT);
 347              		.loc 1 54 5 discriminator 5 view .LVU98
  54:../switch_sdk/core/yt/yt_interrupt.c ****     CMM_PARAM_CHK((NULL == pType), CMM_ERR_NULL_POINT);
 348              		.loc 1 54 5 discriminator 5 view .LVU99
 349 0060 0420     		movs	r0, #4
 350 0062 DCE7     		b	.L22
 351              	.LVL42:
 352              	.L39:
  54:../switch_sdk/core/yt/yt_interrupt.c ****     CMM_PARAM_CHK((NULL == pType), CMM_ERR_NULL_POINT);
 353              		.loc 1 54 5 discriminator 3 view .LVU100
 354              	.LBB8:
  54:../switch_sdk/core/yt/yt_interrupt.c ****     CMM_PARAM_CHK((NULL == pType), CMM_ERR_NULL_POINT);
 355              		.loc 1 54 5 discriminator 3 view .LVU101
 356 0064 0C4B     		ldr	r3, .L41+8
 357 0066 1A69     		ldr	r2, [r3, #16]
 358 0068 0C4B     		ldr	r3, .L41+12
 359 006a 9968     		ldr	r1, [r3, #8]
 360              	.LVL43:
  54:../switch_sdk/core/yt/yt_interrupt.c ****     CMM_PARAM_CHK((NULL == pType), CMM_ERR_NULL_POINT);
 361              		.loc 1 54 5 is_stmt 0 discriminator 3 view .LVU102
 362 006c 0C48     		ldr	r0, .L41+16
 363 006e FFF7FEFF 		bl	osal_printf
 364              	.LVL44:
 365 0072 F5E7     		b	.L29
 366              	.LVL45:
 367              	.L36:
  54:../switch_sdk/core/yt/yt_interrupt.c ****     CMM_PARAM_CHK((NULL == pType), CMM_ERR_NULL_POINT);
 368              		.loc 1 54 5 discriminator 3 view .LVU103
 369              	.LBE8:
  55:../switch_sdk/core/yt/yt_interrupt.c **** 
 370              		.loc 1 55 5 is_stmt 1 discriminator 1 view .LVU104
  55:../switch_sdk/core/yt/yt_interrupt.c **** 
 371              		.loc 1 55 5 discriminator 1 view .LVU105
 372 0074 074B     		ldr	r3, .L41+4
 373 0076 1B78     		ldrb	r3, [r3]	@ zero_extendqisi2
 374 0078 012B     		cmp	r3, #1
 375 007a 01D8     		bhi	.L40
 376              	.LVL46:
 377              	.L31:
  55:../switch_sdk/core/yt/yt_interrupt.c **** 
 378              		.loc 1 55 5 discriminator 5 view .LVU106
  55:../switch_sdk/core/yt/yt_interrupt.c **** 
 379              		.loc 1 55 5 discriminator 5 view .LVU107
  55:../switch_sdk/core/yt/yt_interrupt.c **** 
 380              		.loc 1 55 5 discriminator 5 view .LVU108
 381 007c 0220     		movs	r0, #2
 382 007e CEE7     		b	.L22
 383              	.LVL47:
 384              	.L40:
  55:../switch_sdk/core/yt/yt_interrupt.c **** 
 385              		.loc 1 55 5 discriminator 3 view .LVU109
 386              	.LBB9:
  55:../switch_sdk/core/yt/yt_interrupt.c **** 
 387              		.loc 1 55 5 discriminator 3 view .LVU110
 388 0080 054B     		ldr	r3, .L41+8
 389 0082 9A68     		ldr	r2, [r3, #8]
 390 0084 054B     		ldr	r3, .L41+12
 391 0086 9968     		ldr	r1, [r3, #8]
 392              	.LVL48:
  55:../switch_sdk/core/yt/yt_interrupt.c **** 
 393              		.loc 1 55 5 is_stmt 0 discriminator 3 view .LVU111
 394 0088 0548     		ldr	r0, .L41+16
 395 008a FFF7FEFF 		bl	osal_printf
 396              	.LVL49:
 397 008e F5E7     		b	.L31
 398              	.L42:
 399              		.align	2
 400              	.L41:
 401 0090 00000000 		.word	gpfal_dispatch
 402 0094 00000000 		.word	yt_debug_level
 403 0098 00000000 		.word	_yt_errmsg
 404 009c 00000000 		.word	_yt_prompt_msg
 405 00a0 00000000 		.word	.LC0
 406              	.LBE9:
 407              		.cfi_endproc
 408              	.LFE4:
 410              		.section	.text.yt_int_control_set,"ax",%progbits
 411              		.align	1
 412              		.global	yt_int_control_set
 413              		.syntax unified
 414              		.thumb
 415              		.thumb_func
 417              	yt_int_control_set:
 418              	.LVL50:
 419              	.LFB5:
  59:../switch_sdk/core/yt/yt_interrupt.c **** 
  60:../switch_sdk/core/yt/yt_interrupt.c **** /**
  61:../switch_sdk/core/yt/yt_interrupt.c ****  * @internal      yt_int_control_set
  62:../switch_sdk/core/yt/yt_interrupt.c ****  * @endinternal
  63:../switch_sdk/core/yt/yt_interrupt.c ****  *
  64:../switch_sdk/core/yt/yt_interrupt.c ****  * @brief         Description
  65:../switch_sdk/core/yt/yt_interrupt.c ****  * @param[in]     unit                -unit id
  66:../switch_sdk/core/yt/yt_interrupt.c ****  * @param[in]     type                -interrupt type
  67:../switch_sdk/core/yt/yt_interrupt.c ****  * @param[in]     enable              -enable or disable
  68:../switch_sdk/core/yt/yt_interrupt.c ****  * @retval        CMM_ERR_OK          -on success
  69:../switch_sdk/core/yt/yt_interrupt.c ****  * @retval        CMM_ERR_FAIL        -on fail
  70:../switch_sdk/core/yt/yt_interrupt.c ****  */
  71:../switch_sdk/core/yt/yt_interrupt.c **** yt_ret_t yt_int_control_set(yt_unit_t unit, yt_int_type_t type, yt_enable_t enable)
  72:../switch_sdk/core/yt/yt_interrupt.c **** {
 420              		.loc 1 72 1 is_stmt 1 view -0
 421              		.cfi_startproc
 422              		@ args = 0, pretend = 0, frame = 0
 423              		@ frame_needed = 0, uses_anonymous_args = 0
 424              		.loc 1 72 1 is_stmt 0 view .LVU113
 425 0000 08B5     		push	{r3, lr}
 426              		.cfi_def_cfa_offset 8
 427              		.cfi_offset 3, -8
 428              		.cfi_offset 14, -4
  73:../switch_sdk/core/yt/yt_interrupt.c ****     CMM_PARAM_CHK((YT_UNIT_NUM <= unit), CMM_ERR_INPUT);
 429              		.loc 1 73 5 is_stmt 1 view .LVU114
 430              		.loc 1 73 5 view .LVU115
 431 0002 78B9     		cbnz	r0, .L56
 432 0004 8446     		mov	ip, r0
 433              		.loc 1 73 5 discriminator 2 view .LVU116
  74:../switch_sdk/core/yt/yt_interrupt.c ****     CMM_PARAM_CHK(NULL == YT_DISPATCH(unit), CMM_ERR_NOT_INIT);
 434              		.loc 1 74 5 discriminator 2 view .LVU117
 435              		.loc 1 74 5 discriminator 2 view .LVU118
 436 0006 2A4B     		ldr	r3, .L66
 437 0008 53F82030 		ldr	r3, [r3, r0, lsl #2]
 438 000c C3B1     		cbz	r3, .L57
 439              		.loc 1 74 5 discriminator 2 view .LVU119
  75:../switch_sdk/core/yt/yt_interrupt.c ****     CMM_PARAM_CHK((!(YT_DISPATCH(unit)->is_inited)), CMM_ERR_NOT_INIT);
 440              		.loc 1 75 5 discriminator 2 view .LVU120
 441              		.loc 1 75 5 discriminator 2 view .LVU121
 442 000e 1878     		ldrb	r0, [r3]	@ zero_extendqisi2
 443              	.LVL51:
 444              		.loc 1 75 5 is_stmt 0 discriminator 2 view .LVU122
 445 0010 20B3     		cbz	r0, .L58
 446              		.loc 1 75 5 is_stmt 1 discriminator 2 view .LVU123
  76:../switch_sdk/core/yt/yt_interrupt.c ****     CMM_PARAM_CHK((INTR_TYPE_OVER_TEMP < type || INT_TYPE_HW_EXCEPTION > type), CMM_ERR_INPUT);
 447              		.loc 1 76 5 discriminator 2 view .LVU124
 448              		.loc 1 76 5 discriminator 2 view .LVU125
 449 0012 1C29     		cmp	r1, #28
 450 0014 30D8     		bhi	.L59
 451              		.loc 1 76 5 discriminator 2 view .LVU126
  77:../switch_sdk/core/yt/yt_interrupt.c ****     CMM_PARAM_CHK((YT_ENABLE < enable || YT_DISABLE > enable), CMM_ERR_INPUT);
 452              		.loc 1 77 5 discriminator 2 view .LVU127
 453              		.loc 1 77 5 discriminator 2 view .LVU128
 454 0016 012A     		cmp	r2, #1
 455 0018 3CD8     		bhi	.L60
 456              		.loc 1 77 5 discriminator 2 view .LVU129
  78:../switch_sdk/core/yt/yt_interrupt.c **** 
  79:../switch_sdk/core/yt/yt_interrupt.c ****     return YT_DISPATCH(unit)->int_control_set(unit, type, enable);
 457              		.loc 1 79 5 discriminator 2 view .LVU130
 458              		.loc 1 79 29 is_stmt 0 discriminator 2 view .LVU131
 459 001a D3F85036 		ldr	r3, [r3, #1616]
 460              		.loc 1 79 12 discriminator 2 view .LVU132
 461 001e 6046     		mov	r0, ip
 462 0020 9847     		blx	r3
 463              	.LVL52:
 464              	.L43:
  80:../switch_sdk/core/yt/yt_interrupt.c **** }
 465              		.loc 1 80 1 view .LVU133
 466 0022 08BD     		pop	{r3, pc}
 467              	.LVL53:
 468              	.L56:
  73:../switch_sdk/core/yt/yt_interrupt.c ****     CMM_PARAM_CHK(NULL == YT_DISPATCH(unit), CMM_ERR_NOT_INIT);
 469              		.loc 1 73 5 is_stmt 1 discriminator 1 view .LVU134
  73:../switch_sdk/core/yt/yt_interrupt.c ****     CMM_PARAM_CHK(NULL == YT_DISPATCH(unit), CMM_ERR_NOT_INIT);
 470              		.loc 1 73 5 discriminator 1 view .LVU135
 471 0024 234B     		ldr	r3, .L66+4
 472 0026 1B78     		ldrb	r3, [r3]	@ zero_extendqisi2
 473 0028 012B     		cmp	r3, #1
 474 002a 01D8     		bhi	.L61
 475              	.LVL54:
 476              	.L45:
  73:../switch_sdk/core/yt/yt_interrupt.c ****     CMM_PARAM_CHK(NULL == YT_DISPATCH(unit), CMM_ERR_NOT_INIT);
 477              		.loc 1 73 5 discriminator 5 view .LVU136
  73:../switch_sdk/core/yt/yt_interrupt.c ****     CMM_PARAM_CHK(NULL == YT_DISPATCH(unit), CMM_ERR_NOT_INIT);
 478              		.loc 1 73 5 discriminator 5 view .LVU137
  73:../switch_sdk/core/yt/yt_interrupt.c ****     CMM_PARAM_CHK(NULL == YT_DISPATCH(unit), CMM_ERR_NOT_INIT);
 479              		.loc 1 73 5 discriminator 5 view .LVU138
 480 002c 0520     		movs	r0, #5
 481 002e F8E7     		b	.L43
 482              	.LVL55:
 483              	.L61:
  73:../switch_sdk/core/yt/yt_interrupt.c ****     CMM_PARAM_CHK(NULL == YT_DISPATCH(unit), CMM_ERR_NOT_INIT);
 484              		.loc 1 73 5 discriminator 3 view .LVU139
 485              	.LBB10:
  73:../switch_sdk/core/yt/yt_interrupt.c ****     CMM_PARAM_CHK(NULL == YT_DISPATCH(unit), CMM_ERR_NOT_INIT);
 486              		.loc 1 73 5 discriminator 3 view .LVU140
 487 0030 214B     		ldr	r3, .L66+8
 488 0032 5A69     		ldr	r2, [r3, #20]
 489              	.LVL56:
  73:../switch_sdk/core/yt/yt_interrupt.c ****     CMM_PARAM_CHK(NULL == YT_DISPATCH(unit), CMM_ERR_NOT_INIT);
 490              		.loc 1 73 5 is_stmt 0 discriminator 3 view .LVU141
 491 0034 214B     		ldr	r3, .L66+12
 492 0036 9968     		ldr	r1, [r3, #8]
 493              	.LVL57:
  73:../switch_sdk/core/yt/yt_interrupt.c ****     CMM_PARAM_CHK(NULL == YT_DISPATCH(unit), CMM_ERR_NOT_INIT);
 494              		.loc 1 73 5 discriminator 3 view .LVU142
 495 0038 2148     		ldr	r0, .L66+16
 496              	.LVL58:
  73:../switch_sdk/core/yt/yt_interrupt.c ****     CMM_PARAM_CHK(NULL == YT_DISPATCH(unit), CMM_ERR_NOT_INIT);
 497              		.loc 1 73 5 discriminator 3 view .LVU143
 498 003a FFF7FEFF 		bl	osal_printf
 499              	.LVL59:
 500 003e F5E7     		b	.L45
 501              	.LVL60:
 502              	.L57:
  73:../switch_sdk/core/yt/yt_interrupt.c ****     CMM_PARAM_CHK(NULL == YT_DISPATCH(unit), CMM_ERR_NOT_INIT);
 503              		.loc 1 73 5 discriminator 3 view .LVU144
 504              	.LBE10:
  74:../switch_sdk/core/yt/yt_interrupt.c ****     CMM_PARAM_CHK((!(YT_DISPATCH(unit)->is_inited)), CMM_ERR_NOT_INIT);
 505              		.loc 1 74 5 is_stmt 1 discriminator 1 view .LVU145
  74:../switch_sdk/core/yt/yt_interrupt.c ****     CMM_PARAM_CHK((!(YT_DISPATCH(unit)->is_inited)), CMM_ERR_NOT_INIT);
 506              		.loc 1 74 5 discriminator 1 view .LVU146
 507 0040 1C4B     		ldr	r3, .L66+4
 508 0042 1B78     		ldrb	r3, [r3]	@ zero_extendqisi2
 509 0044 012B     		cmp	r3, #1
 510 0046 01D8     		bhi	.L62
 511              	.LVL61:
 512              	.L48:
  74:../switch_sdk/core/yt/yt_interrupt.c ****     CMM_PARAM_CHK((!(YT_DISPATCH(unit)->is_inited)), CMM_ERR_NOT_INIT);
 513              		.loc 1 74 5 discriminator 5 view .LVU147
  74:../switch_sdk/core/yt/yt_interrupt.c ****     CMM_PARAM_CHK((!(YT_DISPATCH(unit)->is_inited)), CMM_ERR_NOT_INIT);
 514              		.loc 1 74 5 discriminator 5 view .LVU148
  74:../switch_sdk/core/yt/yt_interrupt.c ****     CMM_PARAM_CHK((!(YT_DISPATCH(unit)->is_inited)), CMM_ERR_NOT_INIT);
 515              		.loc 1 74 5 discriminator 5 view .LVU149
 516 0048 0420     		movs	r0, #4
 517 004a EAE7     		b	.L43
 518              	.LVL62:
 519              	.L62:
  74:../switch_sdk/core/yt/yt_interrupt.c ****     CMM_PARAM_CHK((!(YT_DISPATCH(unit)->is_inited)), CMM_ERR_NOT_INIT);
 520              		.loc 1 74 5 discriminator 3 view .LVU150
 521              	.LBB11:
  74:../switch_sdk/core/yt/yt_interrupt.c ****     CMM_PARAM_CHK((!(YT_DISPATCH(unit)->is_inited)), CMM_ERR_NOT_INIT);
 522              		.loc 1 74 5 discriminator 3 view .LVU151
 523 004c 1A4B     		ldr	r3, .L66+8
 524 004e 1A69     		ldr	r2, [r3, #16]
 525              	.LVL63:
  74:../switch_sdk/core/yt/yt_interrupt.c ****     CMM_PARAM_CHK((!(YT_DISPATCH(unit)->is_inited)), CMM_ERR_NOT_INIT);
 526              		.loc 1 74 5 is_stmt 0 discriminator 3 view .LVU152
 527 0050 1A4B     		ldr	r3, .L66+12
 528 0052 9968     		ldr	r1, [r3, #8]
 529              	.LVL64:
  74:../switch_sdk/core/yt/yt_interrupt.c ****     CMM_PARAM_CHK((!(YT_DISPATCH(unit)->is_inited)), CMM_ERR_NOT_INIT);
 530              		.loc 1 74 5 discriminator 3 view .LVU153
 531 0054 1A48     		ldr	r0, .L66+16
 532              	.LVL65:
  74:../switch_sdk/core/yt/yt_interrupt.c ****     CMM_PARAM_CHK((!(YT_DISPATCH(unit)->is_inited)), CMM_ERR_NOT_INIT);
 533              		.loc 1 74 5 discriminator 3 view .LVU154
 534 0056 FFF7FEFF 		bl	osal_printf
 535              	.LVL66:
 536 005a F5E7     		b	.L48
 537              	.LVL67:
 538              	.L58:
  74:../switch_sdk/core/yt/yt_interrupt.c ****     CMM_PARAM_CHK((!(YT_DISPATCH(unit)->is_inited)), CMM_ERR_NOT_INIT);
 539              		.loc 1 74 5 discriminator 3 view .LVU155
 540              	.LBE11:
  75:../switch_sdk/core/yt/yt_interrupt.c ****     CMM_PARAM_CHK((INTR_TYPE_OVER_TEMP < type || INT_TYPE_HW_EXCEPTION > type), CMM_ERR_INPUT);
 541              		.loc 1 75 5 is_stmt 1 discriminator 1 view .LVU156
  75:../switch_sdk/core/yt/yt_interrupt.c ****     CMM_PARAM_CHK((INTR_TYPE_OVER_TEMP < type || INT_TYPE_HW_EXCEPTION > type), CMM_ERR_INPUT);
 542              		.loc 1 75 5 discriminator 1 view .LVU157
 543 005c 154B     		ldr	r3, .L66+4
 544 005e 1B78     		ldrb	r3, [r3]	@ zero_extendqisi2
 545 0060 012B     		cmp	r3, #1
 546 0062 01D8     		bhi	.L63
 547              	.LVL68:
 548              	.L50:
  75:../switch_sdk/core/yt/yt_interrupt.c ****     CMM_PARAM_CHK((INTR_TYPE_OVER_TEMP < type || INT_TYPE_HW_EXCEPTION > type), CMM_ERR_INPUT);
 549              		.loc 1 75 5 discriminator 5 view .LVU158
  75:../switch_sdk/core/yt/yt_interrupt.c ****     CMM_PARAM_CHK((INTR_TYPE_OVER_TEMP < type || INT_TYPE_HW_EXCEPTION > type), CMM_ERR_INPUT);
 550              		.loc 1 75 5 discriminator 5 view .LVU159
  75:../switch_sdk/core/yt/yt_interrupt.c ****     CMM_PARAM_CHK((INTR_TYPE_OVER_TEMP < type || INT_TYPE_HW_EXCEPTION > type), CMM_ERR_INPUT);
 551              		.loc 1 75 5 discriminator 5 view .LVU160
 552 0064 0420     		movs	r0, #4
 553 0066 DCE7     		b	.L43
 554              	.LVL69:
 555              	.L63:
  75:../switch_sdk/core/yt/yt_interrupt.c ****     CMM_PARAM_CHK((INTR_TYPE_OVER_TEMP < type || INT_TYPE_HW_EXCEPTION > type), CMM_ERR_INPUT);
 556              		.loc 1 75 5 discriminator 3 view .LVU161
 557              	.LBB12:
  75:../switch_sdk/core/yt/yt_interrupt.c ****     CMM_PARAM_CHK((INTR_TYPE_OVER_TEMP < type || INT_TYPE_HW_EXCEPTION > type), CMM_ERR_INPUT);
 558              		.loc 1 75 5 discriminator 3 view .LVU162
 559 0068 134B     		ldr	r3, .L66+8
 560 006a 1A69     		ldr	r2, [r3, #16]
 561              	.LVL70:
  75:../switch_sdk/core/yt/yt_interrupt.c ****     CMM_PARAM_CHK((INTR_TYPE_OVER_TEMP < type || INT_TYPE_HW_EXCEPTION > type), CMM_ERR_INPUT);
 562              		.loc 1 75 5 is_stmt 0 discriminator 3 view .LVU163
 563 006c 134B     		ldr	r3, .L66+12
 564 006e 9968     		ldr	r1, [r3, #8]
 565              	.LVL71:
  75:../switch_sdk/core/yt/yt_interrupt.c ****     CMM_PARAM_CHK((INTR_TYPE_OVER_TEMP < type || INT_TYPE_HW_EXCEPTION > type), CMM_ERR_INPUT);
 566              		.loc 1 75 5 discriminator 3 view .LVU164
 567 0070 1348     		ldr	r0, .L66+16
 568 0072 FFF7FEFF 		bl	osal_printf
 569              	.LVL72:
 570 0076 F5E7     		b	.L50
 571              	.LVL73:
 572              	.L59:
  75:../switch_sdk/core/yt/yt_interrupt.c ****     CMM_PARAM_CHK((INTR_TYPE_OVER_TEMP < type || INT_TYPE_HW_EXCEPTION > type), CMM_ERR_INPUT);
 573              		.loc 1 75 5 discriminator 3 view .LVU165
 574              	.LBE12:
  76:../switch_sdk/core/yt/yt_interrupt.c ****     CMM_PARAM_CHK((YT_ENABLE < enable || YT_DISABLE > enable), CMM_ERR_INPUT);
 575              		.loc 1 76 5 is_stmt 1 discriminator 1 view .LVU166
  76:../switch_sdk/core/yt/yt_interrupt.c ****     CMM_PARAM_CHK((YT_ENABLE < enable || YT_DISABLE > enable), CMM_ERR_INPUT);
 576              		.loc 1 76 5 discriminator 1 view .LVU167
 577 0078 0E4B     		ldr	r3, .L66+4
 578 007a 1B78     		ldrb	r3, [r3]	@ zero_extendqisi2
 579 007c 012B     		cmp	r3, #1
 580 007e 01D8     		bhi	.L64
 581              	.LVL74:
 582              	.L52:
  76:../switch_sdk/core/yt/yt_interrupt.c ****     CMM_PARAM_CHK((YT_ENABLE < enable || YT_DISABLE > enable), CMM_ERR_INPUT);
 583              		.loc 1 76 5 discriminator 5 view .LVU168
  76:../switch_sdk/core/yt/yt_interrupt.c ****     CMM_PARAM_CHK((YT_ENABLE < enable || YT_DISABLE > enable), CMM_ERR_INPUT);
 584              		.loc 1 76 5 discriminator 5 view .LVU169
  76:../switch_sdk/core/yt/yt_interrupt.c ****     CMM_PARAM_CHK((YT_ENABLE < enable || YT_DISABLE > enable), CMM_ERR_INPUT);
 585              		.loc 1 76 5 discriminator 5 view .LVU170
 586 0080 0520     		movs	r0, #5
 587 0082 CEE7     		b	.L43
 588              	.LVL75:
 589              	.L64:
  76:../switch_sdk/core/yt/yt_interrupt.c ****     CMM_PARAM_CHK((YT_ENABLE < enable || YT_DISABLE > enable), CMM_ERR_INPUT);
 590              		.loc 1 76 5 discriminator 3 view .LVU171
 591              	.LBB13:
  76:../switch_sdk/core/yt/yt_interrupt.c ****     CMM_PARAM_CHK((YT_ENABLE < enable || YT_DISABLE > enable), CMM_ERR_INPUT);
 592              		.loc 1 76 5 discriminator 3 view .LVU172
 593 0084 0C4B     		ldr	r3, .L66+8
 594 0086 5A69     		ldr	r2, [r3, #20]
 595              	.LVL76:
  76:../switch_sdk/core/yt/yt_interrupt.c ****     CMM_PARAM_CHK((YT_ENABLE < enable || YT_DISABLE > enable), CMM_ERR_INPUT);
 596              		.loc 1 76 5 is_stmt 0 discriminator 3 view .LVU173
 597 0088 0C4B     		ldr	r3, .L66+12
 598 008a 9968     		ldr	r1, [r3, #8]
 599              	.LVL77:
  76:../switch_sdk/core/yt/yt_interrupt.c ****     CMM_PARAM_CHK((YT_ENABLE < enable || YT_DISABLE > enable), CMM_ERR_INPUT);
 600              		.loc 1 76 5 discriminator 3 view .LVU174
 601 008c 0C48     		ldr	r0, .L66+16
 602 008e FFF7FEFF 		bl	osal_printf
 603              	.LVL78:
 604 0092 F5E7     		b	.L52
 605              	.LVL79:
 606              	.L60:
  76:../switch_sdk/core/yt/yt_interrupt.c ****     CMM_PARAM_CHK((YT_ENABLE < enable || YT_DISABLE > enable), CMM_ERR_INPUT);
 607              		.loc 1 76 5 discriminator 3 view .LVU175
 608              	.LBE13:
  77:../switch_sdk/core/yt/yt_interrupt.c **** 
 609              		.loc 1 77 5 is_stmt 1 discriminator 1 view .LVU176
  77:../switch_sdk/core/yt/yt_interrupt.c **** 
 610              		.loc 1 77 5 discriminator 1 view .LVU177
 611 0094 074B     		ldr	r3, .L66+4
 612 0096 1B78     		ldrb	r3, [r3]	@ zero_extendqisi2
 613 0098 012B     		cmp	r3, #1
 614 009a 01D8     		bhi	.L65
 615              	.LVL80:
 616              	.L54:
  77:../switch_sdk/core/yt/yt_interrupt.c **** 
 617              		.loc 1 77 5 discriminator 5 view .LVU178
  77:../switch_sdk/core/yt/yt_interrupt.c **** 
 618              		.loc 1 77 5 discriminator 5 view .LVU179
  77:../switch_sdk/core/yt/yt_interrupt.c **** 
 619              		.loc 1 77 5 discriminator 5 view .LVU180
 620 009c 0520     		movs	r0, #5
 621 009e C0E7     		b	.L43
 622              	.LVL81:
 623              	.L65:
  77:../switch_sdk/core/yt/yt_interrupt.c **** 
 624              		.loc 1 77 5 discriminator 3 view .LVU181
 625              	.LBB14:
  77:../switch_sdk/core/yt/yt_interrupt.c **** 
 626              		.loc 1 77 5 discriminator 3 view .LVU182
 627 00a0 054B     		ldr	r3, .L66+8
 628 00a2 5A69     		ldr	r2, [r3, #20]
 629              	.LVL82:
  77:../switch_sdk/core/yt/yt_interrupt.c **** 
 630              		.loc 1 77 5 is_stmt 0 discriminator 3 view .LVU183
 631 00a4 054B     		ldr	r3, .L66+12
 632 00a6 9968     		ldr	r1, [r3, #8]
 633              	.LVL83:
  77:../switch_sdk/core/yt/yt_interrupt.c **** 
 634              		.loc 1 77 5 discriminator 3 view .LVU184
 635 00a8 0548     		ldr	r0, .L66+16
 636 00aa FFF7FEFF 		bl	osal_printf
 637              	.LVL84:
 638 00ae F5E7     		b	.L54
 639              	.L67:
 640              		.align	2
 641              	.L66:
 642 00b0 00000000 		.word	gpfal_dispatch
 643 00b4 00000000 		.word	yt_debug_level
 644 00b8 00000000 		.word	_yt_errmsg
 645 00bc 00000000 		.word	_yt_prompt_msg
 646 00c0 00000000 		.word	.LC0
 647              	.LBE14:
 648              		.cfi_endproc
 649              	.LFE5:
 651              		.section	.text.yt_int_control_get,"ax",%progbits
 652              		.align	1
 653              		.global	yt_int_control_get
 654              		.syntax unified
 655              		.thumb
 656              		.thumb_func
 658              	yt_int_control_get:
 659              	.LVL85:
 660              	.LFB6:
  81:../switch_sdk/core/yt/yt_interrupt.c **** 
  82:../switch_sdk/core/yt/yt_interrupt.c **** /**
  83:../switch_sdk/core/yt/yt_interrupt.c ****  * @internal      yt_int_control_get
  84:../switch_sdk/core/yt/yt_interrupt.c ****  * @endinternal
  85:../switch_sdk/core/yt/yt_interrupt.c ****  *
  86:../switch_sdk/core/yt/yt_interrupt.c ****  * @brief         Description
  87:../switch_sdk/core/yt/yt_interrupt.c ****  * @param[in]     unit                -unit id
  88:../switch_sdk/core/yt/yt_interrupt.c ****  * @param[in]     type                -interrupt type
  89:../switch_sdk/core/yt/yt_interrupt.c ****  * @param[out]    pEnable             -enable or disable
  90:../switch_sdk/core/yt/yt_interrupt.c ****  * @retval        CMM_ERR_OK          -on success
  91:../switch_sdk/core/yt/yt_interrupt.c ****  * @retval        CMM_ERR_FAIL        -on fail
  92:../switch_sdk/core/yt/yt_interrupt.c ****  */
  93:../switch_sdk/core/yt/yt_interrupt.c **** yt_ret_t yt_int_control_get(yt_unit_t unit, yt_int_type_t type, yt_enable_t *pEnable)
  94:../switch_sdk/core/yt/yt_interrupt.c **** {
 661              		.loc 1 94 1 is_stmt 1 view -0
 662              		.cfi_startproc
 663              		@ args = 0, pretend = 0, frame = 0
 664              		@ frame_needed = 0, uses_anonymous_args = 0
 665              		.loc 1 94 1 is_stmt 0 view .LVU186
 666 0000 08B5     		push	{r3, lr}
 667              		.cfi_def_cfa_offset 8
 668              		.cfi_offset 3, -8
 669              		.cfi_offset 14, -4
  95:../switch_sdk/core/yt/yt_interrupt.c ****     CMM_PARAM_CHK((YT_UNIT_NUM <= unit), CMM_ERR_INPUT);
 670              		.loc 1 95 5 is_stmt 1 view .LVU187
 671              		.loc 1 95 5 view .LVU188
 672 0002 78B9     		cbnz	r0, .L81
 673 0004 8446     		mov	ip, r0
 674              		.loc 1 95 5 discriminator 2 view .LVU189
  96:../switch_sdk/core/yt/yt_interrupt.c ****     CMM_PARAM_CHK(NULL == YT_DISPATCH(unit), CMM_ERR_NOT_INIT);
 675              		.loc 1 96 5 discriminator 2 view .LVU190
 676              		.loc 1 96 5 discriminator 2 view .LVU191
 677 0006 2A4B     		ldr	r3, .L91
 678 0008 53F82030 		ldr	r3, [r3, r0, lsl #2]
 679 000c C3B1     		cbz	r3, .L82
 680              		.loc 1 96 5 discriminator 2 view .LVU192
  97:../switch_sdk/core/yt/yt_interrupt.c ****     CMM_PARAM_CHK((!(YT_DISPATCH(unit)->is_inited)), CMM_ERR_NOT_INIT);
 681              		.loc 1 97 5 discriminator 2 view .LVU193
 682              		.loc 1 97 5 discriminator 2 view .LVU194
 683 000e 1878     		ldrb	r0, [r3]	@ zero_extendqisi2
 684              	.LVL86:
 685              		.loc 1 97 5 is_stmt 0 discriminator 2 view .LVU195
 686 0010 20B3     		cbz	r0, .L83
 687              		.loc 1 97 5 is_stmt 1 discriminator 2 view .LVU196
  98:../switch_sdk/core/yt/yt_interrupt.c ****     CMM_PARAM_CHK((INTR_TYPE_OVER_TEMP < type || INT_TYPE_HW_EXCEPTION > type), CMM_ERR_INPUT);
 688              		.loc 1 98 5 discriminator 2 view .LVU197
 689              		.loc 1 98 5 discriminator 2 view .LVU198
 690 0012 1C29     		cmp	r1, #28
 691 0014 30D8     		bhi	.L84
 692              		.loc 1 98 5 discriminator 2 view .LVU199
  99:../switch_sdk/core/yt/yt_interrupt.c ****     CMM_PARAM_CHK((NULL == pEnable), CMM_ERR_NULL_POINT);
 693              		.loc 1 99 5 discriminator 2 view .LVU200
 694              		.loc 1 99 5 discriminator 2 view .LVU201
 695 0016 002A     		cmp	r2, #0
 696 0018 3CD0     		beq	.L85
 697              		.loc 1 99 5 discriminator 2 view .LVU202
 100:../switch_sdk/core/yt/yt_interrupt.c **** 
 101:../switch_sdk/core/yt/yt_interrupt.c ****     return YT_DISPATCH(unit)->int_control_get(unit, type, pEnable);
 698              		.loc 1 101 5 discriminator 2 view .LVU203
 699              		.loc 1 101 29 is_stmt 0 discriminator 2 view .LVU204
 700 001a D3F85436 		ldr	r3, [r3, #1620]
 701              		.loc 1 101 12 discriminator 2 view .LVU205
 702 001e 6046     		mov	r0, ip
 703 0020 9847     		blx	r3
 704              	.LVL87:
 705              	.L68:
 102:../switch_sdk/core/yt/yt_interrupt.c **** }
 706              		.loc 1 102 1 view .LVU206
 707 0022 08BD     		pop	{r3, pc}
 708              	.LVL88:
 709              	.L81:
  95:../switch_sdk/core/yt/yt_interrupt.c ****     CMM_PARAM_CHK(NULL == YT_DISPATCH(unit), CMM_ERR_NOT_INIT);
 710              		.loc 1 95 5 is_stmt 1 discriminator 1 view .LVU207
  95:../switch_sdk/core/yt/yt_interrupt.c ****     CMM_PARAM_CHK(NULL == YT_DISPATCH(unit), CMM_ERR_NOT_INIT);
 711              		.loc 1 95 5 discriminator 1 view .LVU208
 712 0024 234B     		ldr	r3, .L91+4
 713 0026 1B78     		ldrb	r3, [r3]	@ zero_extendqisi2
 714 0028 012B     		cmp	r3, #1
 715 002a 01D8     		bhi	.L86
 716              	.LVL89:
 717              	.L70:
  95:../switch_sdk/core/yt/yt_interrupt.c ****     CMM_PARAM_CHK(NULL == YT_DISPATCH(unit), CMM_ERR_NOT_INIT);
 718              		.loc 1 95 5 discriminator 5 view .LVU209
  95:../switch_sdk/core/yt/yt_interrupt.c ****     CMM_PARAM_CHK(NULL == YT_DISPATCH(unit), CMM_ERR_NOT_INIT);
 719              		.loc 1 95 5 discriminator 5 view .LVU210
  95:../switch_sdk/core/yt/yt_interrupt.c ****     CMM_PARAM_CHK(NULL == YT_DISPATCH(unit), CMM_ERR_NOT_INIT);
 720              		.loc 1 95 5 discriminator 5 view .LVU211
 721 002c 0520     		movs	r0, #5
 722 002e F8E7     		b	.L68
 723              	.LVL90:
 724              	.L86:
  95:../switch_sdk/core/yt/yt_interrupt.c ****     CMM_PARAM_CHK(NULL == YT_DISPATCH(unit), CMM_ERR_NOT_INIT);
 725              		.loc 1 95 5 discriminator 3 view .LVU212
 726              	.LBB15:
  95:../switch_sdk/core/yt/yt_interrupt.c ****     CMM_PARAM_CHK(NULL == YT_DISPATCH(unit), CMM_ERR_NOT_INIT);
 727              		.loc 1 95 5 discriminator 3 view .LVU213
 728 0030 214B     		ldr	r3, .L91+8
 729 0032 5A69     		ldr	r2, [r3, #20]
 730              	.LVL91:
  95:../switch_sdk/core/yt/yt_interrupt.c ****     CMM_PARAM_CHK(NULL == YT_DISPATCH(unit), CMM_ERR_NOT_INIT);
 731              		.loc 1 95 5 is_stmt 0 discriminator 3 view .LVU214
 732 0034 214B     		ldr	r3, .L91+12
 733 0036 9968     		ldr	r1, [r3, #8]
 734              	.LVL92:
  95:../switch_sdk/core/yt/yt_interrupt.c ****     CMM_PARAM_CHK(NULL == YT_DISPATCH(unit), CMM_ERR_NOT_INIT);
 735              		.loc 1 95 5 discriminator 3 view .LVU215
 736 0038 2148     		ldr	r0, .L91+16
 737              	.LVL93:
  95:../switch_sdk/core/yt/yt_interrupt.c ****     CMM_PARAM_CHK(NULL == YT_DISPATCH(unit), CMM_ERR_NOT_INIT);
 738              		.loc 1 95 5 discriminator 3 view .LVU216
 739 003a FFF7FEFF 		bl	osal_printf
 740              	.LVL94:
 741 003e F5E7     		b	.L70
 742              	.LVL95:
 743              	.L82:
  95:../switch_sdk/core/yt/yt_interrupt.c ****     CMM_PARAM_CHK(NULL == YT_DISPATCH(unit), CMM_ERR_NOT_INIT);
 744              		.loc 1 95 5 discriminator 3 view .LVU217
 745              	.LBE15:
  96:../switch_sdk/core/yt/yt_interrupt.c ****     CMM_PARAM_CHK((!(YT_DISPATCH(unit)->is_inited)), CMM_ERR_NOT_INIT);
 746              		.loc 1 96 5 is_stmt 1 discriminator 1 view .LVU218
  96:../switch_sdk/core/yt/yt_interrupt.c ****     CMM_PARAM_CHK((!(YT_DISPATCH(unit)->is_inited)), CMM_ERR_NOT_INIT);
 747              		.loc 1 96 5 discriminator 1 view .LVU219
 748 0040 1C4B     		ldr	r3, .L91+4
 749 0042 1B78     		ldrb	r3, [r3]	@ zero_extendqisi2
 750 0044 012B     		cmp	r3, #1
 751 0046 01D8     		bhi	.L87
 752              	.LVL96:
 753              	.L73:
  96:../switch_sdk/core/yt/yt_interrupt.c ****     CMM_PARAM_CHK((!(YT_DISPATCH(unit)->is_inited)), CMM_ERR_NOT_INIT);
 754              		.loc 1 96 5 discriminator 5 view .LVU220
  96:../switch_sdk/core/yt/yt_interrupt.c ****     CMM_PARAM_CHK((!(YT_DISPATCH(unit)->is_inited)), CMM_ERR_NOT_INIT);
 755              		.loc 1 96 5 discriminator 5 view .LVU221
  96:../switch_sdk/core/yt/yt_interrupt.c ****     CMM_PARAM_CHK((!(YT_DISPATCH(unit)->is_inited)), CMM_ERR_NOT_INIT);
 756              		.loc 1 96 5 discriminator 5 view .LVU222
 757 0048 0420     		movs	r0, #4
 758 004a EAE7     		b	.L68
 759              	.LVL97:
 760              	.L87:
  96:../switch_sdk/core/yt/yt_interrupt.c ****     CMM_PARAM_CHK((!(YT_DISPATCH(unit)->is_inited)), CMM_ERR_NOT_INIT);
 761              		.loc 1 96 5 discriminator 3 view .LVU223
 762              	.LBB16:
  96:../switch_sdk/core/yt/yt_interrupt.c ****     CMM_PARAM_CHK((!(YT_DISPATCH(unit)->is_inited)), CMM_ERR_NOT_INIT);
 763              		.loc 1 96 5 discriminator 3 view .LVU224
 764 004c 1A4B     		ldr	r3, .L91+8
 765 004e 1A69     		ldr	r2, [r3, #16]
 766              	.LVL98:
  96:../switch_sdk/core/yt/yt_interrupt.c ****     CMM_PARAM_CHK((!(YT_DISPATCH(unit)->is_inited)), CMM_ERR_NOT_INIT);
 767              		.loc 1 96 5 is_stmt 0 discriminator 3 view .LVU225
 768 0050 1A4B     		ldr	r3, .L91+12
 769 0052 9968     		ldr	r1, [r3, #8]
 770              	.LVL99:
  96:../switch_sdk/core/yt/yt_interrupt.c ****     CMM_PARAM_CHK((!(YT_DISPATCH(unit)->is_inited)), CMM_ERR_NOT_INIT);
 771              		.loc 1 96 5 discriminator 3 view .LVU226
 772 0054 1A48     		ldr	r0, .L91+16
 773              	.LVL100:
  96:../switch_sdk/core/yt/yt_interrupt.c ****     CMM_PARAM_CHK((!(YT_DISPATCH(unit)->is_inited)), CMM_ERR_NOT_INIT);
 774              		.loc 1 96 5 discriminator 3 view .LVU227
 775 0056 FFF7FEFF 		bl	osal_printf
 776              	.LVL101:
 777 005a F5E7     		b	.L73
 778              	.LVL102:
 779              	.L83:
  96:../switch_sdk/core/yt/yt_interrupt.c ****     CMM_PARAM_CHK((!(YT_DISPATCH(unit)->is_inited)), CMM_ERR_NOT_INIT);
 780              		.loc 1 96 5 discriminator 3 view .LVU228
 781              	.LBE16:
  97:../switch_sdk/core/yt/yt_interrupt.c ****     CMM_PARAM_CHK((INTR_TYPE_OVER_TEMP < type || INT_TYPE_HW_EXCEPTION > type), CMM_ERR_INPUT);
 782              		.loc 1 97 5 is_stmt 1 discriminator 1 view .LVU229
  97:../switch_sdk/core/yt/yt_interrupt.c ****     CMM_PARAM_CHK((INTR_TYPE_OVER_TEMP < type || INT_TYPE_HW_EXCEPTION > type), CMM_ERR_INPUT);
 783              		.loc 1 97 5 discriminator 1 view .LVU230
 784 005c 154B     		ldr	r3, .L91+4
 785 005e 1B78     		ldrb	r3, [r3]	@ zero_extendqisi2
 786 0060 012B     		cmp	r3, #1
 787 0062 01D8     		bhi	.L88
 788              	.LVL103:
 789              	.L75:
  97:../switch_sdk/core/yt/yt_interrupt.c ****     CMM_PARAM_CHK((INTR_TYPE_OVER_TEMP < type || INT_TYPE_HW_EXCEPTION > type), CMM_ERR_INPUT);
 790              		.loc 1 97 5 discriminator 5 view .LVU231
  97:../switch_sdk/core/yt/yt_interrupt.c ****     CMM_PARAM_CHK((INTR_TYPE_OVER_TEMP < type || INT_TYPE_HW_EXCEPTION > type), CMM_ERR_INPUT);
 791              		.loc 1 97 5 discriminator 5 view .LVU232
  97:../switch_sdk/core/yt/yt_interrupt.c ****     CMM_PARAM_CHK((INTR_TYPE_OVER_TEMP < type || INT_TYPE_HW_EXCEPTION > type), CMM_ERR_INPUT);
 792              		.loc 1 97 5 discriminator 5 view .LVU233
 793 0064 0420     		movs	r0, #4
 794 0066 DCE7     		b	.L68
 795              	.LVL104:
 796              	.L88:
  97:../switch_sdk/core/yt/yt_interrupt.c ****     CMM_PARAM_CHK((INTR_TYPE_OVER_TEMP < type || INT_TYPE_HW_EXCEPTION > type), CMM_ERR_INPUT);
 797              		.loc 1 97 5 discriminator 3 view .LVU234
 798              	.LBB17:
  97:../switch_sdk/core/yt/yt_interrupt.c ****     CMM_PARAM_CHK((INTR_TYPE_OVER_TEMP < type || INT_TYPE_HW_EXCEPTION > type), CMM_ERR_INPUT);
 799              		.loc 1 97 5 discriminator 3 view .LVU235
 800 0068 134B     		ldr	r3, .L91+8
 801 006a 1A69     		ldr	r2, [r3, #16]
 802              	.LVL105:
  97:../switch_sdk/core/yt/yt_interrupt.c ****     CMM_PARAM_CHK((INTR_TYPE_OVER_TEMP < type || INT_TYPE_HW_EXCEPTION > type), CMM_ERR_INPUT);
 803              		.loc 1 97 5 is_stmt 0 discriminator 3 view .LVU236
 804 006c 134B     		ldr	r3, .L91+12
 805 006e 9968     		ldr	r1, [r3, #8]
 806              	.LVL106:
  97:../switch_sdk/core/yt/yt_interrupt.c ****     CMM_PARAM_CHK((INTR_TYPE_OVER_TEMP < type || INT_TYPE_HW_EXCEPTION > type), CMM_ERR_INPUT);
 807              		.loc 1 97 5 discriminator 3 view .LVU237
 808 0070 1348     		ldr	r0, .L91+16
 809 0072 FFF7FEFF 		bl	osal_printf
 810              	.LVL107:
 811 0076 F5E7     		b	.L75
 812              	.LVL108:
 813              	.L84:
  97:../switch_sdk/core/yt/yt_interrupt.c ****     CMM_PARAM_CHK((INTR_TYPE_OVER_TEMP < type || INT_TYPE_HW_EXCEPTION > type), CMM_ERR_INPUT);
 814              		.loc 1 97 5 discriminator 3 view .LVU238
 815              	.LBE17:
  98:../switch_sdk/core/yt/yt_interrupt.c ****     CMM_PARAM_CHK((NULL == pEnable), CMM_ERR_NULL_POINT);
 816              		.loc 1 98 5 is_stmt 1 discriminator 1 view .LVU239
  98:../switch_sdk/core/yt/yt_interrupt.c ****     CMM_PARAM_CHK((NULL == pEnable), CMM_ERR_NULL_POINT);
 817              		.loc 1 98 5 discriminator 1 view .LVU240
 818 0078 0E4B     		ldr	r3, .L91+4
 819 007a 1B78     		ldrb	r3, [r3]	@ zero_extendqisi2
 820 007c 012B     		cmp	r3, #1
 821 007e 01D8     		bhi	.L89
 822              	.LVL109:
 823              	.L77:
  98:../switch_sdk/core/yt/yt_interrupt.c ****     CMM_PARAM_CHK((NULL == pEnable), CMM_ERR_NULL_POINT);
 824              		.loc 1 98 5 discriminator 5 view .LVU241
  98:../switch_sdk/core/yt/yt_interrupt.c ****     CMM_PARAM_CHK((NULL == pEnable), CMM_ERR_NULL_POINT);
 825              		.loc 1 98 5 discriminator 5 view .LVU242
  98:../switch_sdk/core/yt/yt_interrupt.c ****     CMM_PARAM_CHK((NULL == pEnable), CMM_ERR_NULL_POINT);
 826              		.loc 1 98 5 discriminator 5 view .LVU243
 827 0080 0520     		movs	r0, #5
 828 0082 CEE7     		b	.L68
 829              	.LVL110:
 830              	.L89:
  98:../switch_sdk/core/yt/yt_interrupt.c ****     CMM_PARAM_CHK((NULL == pEnable), CMM_ERR_NULL_POINT);
 831              		.loc 1 98 5 discriminator 3 view .LVU244
 832              	.LBB18:
  98:../switch_sdk/core/yt/yt_interrupt.c ****     CMM_PARAM_CHK((NULL == pEnable), CMM_ERR_NULL_POINT);
 833              		.loc 1 98 5 discriminator 3 view .LVU245
 834 0084 0C4B     		ldr	r3, .L91+8
 835 0086 5A69     		ldr	r2, [r3, #20]
 836              	.LVL111:
  98:../switch_sdk/core/yt/yt_interrupt.c ****     CMM_PARAM_CHK((NULL == pEnable), CMM_ERR_NULL_POINT);
 837              		.loc 1 98 5 is_stmt 0 discriminator 3 view .LVU246
 838 0088 0C4B     		ldr	r3, .L91+12
 839 008a 9968     		ldr	r1, [r3, #8]
 840              	.LVL112:
  98:../switch_sdk/core/yt/yt_interrupt.c ****     CMM_PARAM_CHK((NULL == pEnable), CMM_ERR_NULL_POINT);
 841              		.loc 1 98 5 discriminator 3 view .LVU247
 842 008c 0C48     		ldr	r0, .L91+16
 843 008e FFF7FEFF 		bl	osal_printf
 844              	.LVL113:
 845 0092 F5E7     		b	.L77
 846              	.LVL114:
 847              	.L85:
  98:../switch_sdk/core/yt/yt_interrupt.c ****     CMM_PARAM_CHK((NULL == pEnable), CMM_ERR_NULL_POINT);
 848              		.loc 1 98 5 discriminator 3 view .LVU248
 849              	.LBE18:
  99:../switch_sdk/core/yt/yt_interrupt.c **** 
 850              		.loc 1 99 5 is_stmt 1 discriminator 1 view .LVU249
  99:../switch_sdk/core/yt/yt_interrupt.c **** 
 851              		.loc 1 99 5 discriminator 1 view .LVU250
 852 0094 074B     		ldr	r3, .L91+4
 853 0096 1B78     		ldrb	r3, [r3]	@ zero_extendqisi2
 854 0098 012B     		cmp	r3, #1
 855 009a 01D8     		bhi	.L90
 856              	.LVL115:
 857              	.L79:
  99:../switch_sdk/core/yt/yt_interrupt.c **** 
 858              		.loc 1 99 5 discriminator 5 view .LVU251
  99:../switch_sdk/core/yt/yt_interrupt.c **** 
 859              		.loc 1 99 5 discriminator 5 view .LVU252
  99:../switch_sdk/core/yt/yt_interrupt.c **** 
 860              		.loc 1 99 5 discriminator 5 view .LVU253
 861 009c 0220     		movs	r0, #2
 862 009e C0E7     		b	.L68
 863              	.LVL116:
 864              	.L90:
  99:../switch_sdk/core/yt/yt_interrupt.c **** 
 865              		.loc 1 99 5 discriminator 3 view .LVU254
 866              	.LBB19:
  99:../switch_sdk/core/yt/yt_interrupt.c **** 
 867              		.loc 1 99 5 discriminator 3 view .LVU255
 868 00a0 054B     		ldr	r3, .L91+8
 869 00a2 9A68     		ldr	r2, [r3, #8]
 870              	.LVL117:
  99:../switch_sdk/core/yt/yt_interrupt.c **** 
 871              		.loc 1 99 5 is_stmt 0 discriminator 3 view .LVU256
 872 00a4 054B     		ldr	r3, .L91+12
 873 00a6 9968     		ldr	r1, [r3, #8]
 874              	.LVL118:
  99:../switch_sdk/core/yt/yt_interrupt.c **** 
 875              		.loc 1 99 5 discriminator 3 view .LVU257
 876 00a8 0548     		ldr	r0, .L91+16
 877 00aa FFF7FEFF 		bl	osal_printf
 878              	.LVL119:
 879 00ae F5E7     		b	.L79
 880              	.L92:
 881              		.align	2
 882              	.L91:
 883 00b0 00000000 		.word	gpfal_dispatch
 884 00b4 00000000 		.word	yt_debug_level
 885 00b8 00000000 		.word	_yt_errmsg
 886 00bc 00000000 		.word	_yt_prompt_msg
 887 00c0 00000000 		.word	.LC0
 888              	.LBE19:
 889              		.cfi_endproc
 890              	.LFE6:
 892              		.section	.text.yt_int_status_get,"ax",%progbits
 893              		.align	1
 894              		.global	yt_int_status_get
 895              		.syntax unified
 896              		.thumb
 897              		.thumb_func
 899              	yt_int_status_get:
 900              	.LVL120:
 901              	.LFB7:
 103:../switch_sdk/core/yt/yt_interrupt.c **** 
 104:../switch_sdk/core/yt/yt_interrupt.c **** /**
 105:../switch_sdk/core/yt/yt_interrupt.c ****  * @internal      yt_int_status_get
 106:../switch_sdk/core/yt/yt_interrupt.c ****  * @endinternal
 107:../switch_sdk/core/yt/yt_interrupt.c ****  *
 108:../switch_sdk/core/yt/yt_interrupt.c ****  * @brief         Description
 109:../switch_sdk/core/yt/yt_interrupt.c ****  * @param[in]     unit                -unit id
 110:../switch_sdk/core/yt/yt_interrupt.c ****  * @param[out]    pIntStatus          -x
 111:../switch_sdk/core/yt/yt_interrupt.c ****  * @retval        CMM_ERR_OK          -on success
 112:../switch_sdk/core/yt/yt_interrupt.c ****  * @retval        CMM_ERR_FAIL        -on fail
 113:../switch_sdk/core/yt/yt_interrupt.c ****  */
 114:../switch_sdk/core/yt/yt_interrupt.c **** yt_ret_t yt_int_status_get(yt_unit_t unit, yt_intr_status_t *pIntStatus)
 115:../switch_sdk/core/yt/yt_interrupt.c **** {
 902              		.loc 1 115 1 is_stmt 1 view -0
 903              		.cfi_startproc
 904              		@ args = 0, pretend = 0, frame = 0
 905              		@ frame_needed = 0, uses_anonymous_args = 0
 906              		.loc 1 115 1 is_stmt 0 view .LVU259
 907 0000 08B5     		push	{r3, lr}
 908              		.cfi_def_cfa_offset 8
 909              		.cfi_offset 3, -8
 910              		.cfi_offset 14, -4
 116:../switch_sdk/core/yt/yt_interrupt.c ****     CMM_PARAM_CHK((YT_UNIT_NUM <= unit), CMM_ERR_INPUT);
 911              		.loc 1 116 5 is_stmt 1 view .LVU260
 912              		.loc 1 116 5 view .LVU261
 913 0002 68B9     		cbnz	r0, .L104
 914 0004 0246     		mov	r2, r0
 915              		.loc 1 116 5 discriminator 2 view .LVU262
 117:../switch_sdk/core/yt/yt_interrupt.c ****     CMM_PARAM_CHK(NULL == YT_DISPATCH(unit), CMM_ERR_NOT_INIT);
 916              		.loc 1 117 5 discriminator 2 view .LVU263
 917              		.loc 1 117 5 discriminator 2 view .LVU264
 918 0006 224B     		ldr	r3, .L112
 919 0008 53F82030 		ldr	r3, [r3, r0, lsl #2]
 920 000c B3B1     		cbz	r3, .L105
 921              		.loc 1 117 5 discriminator 2 view .LVU265
 118:../switch_sdk/core/yt/yt_interrupt.c ****     CMM_PARAM_CHK((!(YT_DISPATCH(unit)->is_inited)), CMM_ERR_NOT_INIT);
 922              		.loc 1 118 5 discriminator 2 view .LVU266
 923              		.loc 1 118 5 discriminator 2 view .LVU267
 924 000e 1878     		ldrb	r0, [r3]	@ zero_extendqisi2
 925              	.LVL121:
 926              		.loc 1 118 5 is_stmt 0 discriminator 2 view .LVU268
 927 0010 10B3     		cbz	r0, .L106
 928              		.loc 1 118 5 is_stmt 1 discriminator 2 view .LVU269
 119:../switch_sdk/core/yt/yt_interrupt.c ****     CMM_PARAM_CHK((NULL == pIntStatus), CMM_ERR_NULL_POINT);
 929              		.loc 1 119 5 discriminator 2 view .LVU270
 930              		.loc 1 119 5 discriminator 2 view .LVU271
 931 0012 0029     		cmp	r1, #0
 932 0014 2ED0     		beq	.L107
 933              		.loc 1 119 5 discriminator 2 view .LVU272
 120:../switch_sdk/core/yt/yt_interrupt.c **** 
 121:../switch_sdk/core/yt/yt_interrupt.c ****     return YT_DISPATCH(unit)->int_status_get(unit, pIntStatus);
 934              		.loc 1 121 5 discriminator 2 view .LVU273
 935              		.loc 1 121 29 is_stmt 0 discriminator 2 view .LVU274
 936 0016 D3F85836 		ldr	r3, [r3, #1624]
 937              		.loc 1 121 12 discriminator 2 view .LVU275
 938 001a 1046     		mov	r0, r2
 939 001c 9847     		blx	r3
 940              	.LVL122:
 941              	.L93:
 122:../switch_sdk/core/yt/yt_interrupt.c **** }
 942              		.loc 1 122 1 view .LVU276
 943 001e 08BD     		pop	{r3, pc}
 944              	.LVL123:
 945              	.L104:
 116:../switch_sdk/core/yt/yt_interrupt.c ****     CMM_PARAM_CHK(NULL == YT_DISPATCH(unit), CMM_ERR_NOT_INIT);
 946              		.loc 1 116 5 is_stmt 1 discriminator 1 view .LVU277
 116:../switch_sdk/core/yt/yt_interrupt.c ****     CMM_PARAM_CHK(NULL == YT_DISPATCH(unit), CMM_ERR_NOT_INIT);
 947              		.loc 1 116 5 discriminator 1 view .LVU278
 948 0020 1C4B     		ldr	r3, .L112+4
 949 0022 1B78     		ldrb	r3, [r3]	@ zero_extendqisi2
 950 0024 012B     		cmp	r3, #1
 951 0026 01D8     		bhi	.L108
 952              	.LVL124:
 953              	.L95:
 116:../switch_sdk/core/yt/yt_interrupt.c ****     CMM_PARAM_CHK(NULL == YT_DISPATCH(unit), CMM_ERR_NOT_INIT);
 954              		.loc 1 116 5 discriminator 5 view .LVU279
 116:../switch_sdk/core/yt/yt_interrupt.c ****     CMM_PARAM_CHK(NULL == YT_DISPATCH(unit), CMM_ERR_NOT_INIT);
 955              		.loc 1 116 5 discriminator 5 view .LVU280
 116:../switch_sdk/core/yt/yt_interrupt.c ****     CMM_PARAM_CHK(NULL == YT_DISPATCH(unit), CMM_ERR_NOT_INIT);
 956              		.loc 1 116 5 discriminator 5 view .LVU281
 957 0028 0520     		movs	r0, #5
 958 002a F8E7     		b	.L93
 959              	.LVL125:
 960              	.L108:
 116:../switch_sdk/core/yt/yt_interrupt.c ****     CMM_PARAM_CHK(NULL == YT_DISPATCH(unit), CMM_ERR_NOT_INIT);
 961              		.loc 1 116 5 discriminator 3 view .LVU282
 962              	.LBB20:
 116:../switch_sdk/core/yt/yt_interrupt.c ****     CMM_PARAM_CHK(NULL == YT_DISPATCH(unit), CMM_ERR_NOT_INIT);
 963              		.loc 1 116 5 discriminator 3 view .LVU283
 964 002c 1A4B     		ldr	r3, .L112+8
 965 002e 5A69     		ldr	r2, [r3, #20]
 966 0030 1A4B     		ldr	r3, .L112+12
 967 0032 9968     		ldr	r1, [r3, #8]
 968              	.LVL126:
 116:../switch_sdk/core/yt/yt_interrupt.c ****     CMM_PARAM_CHK(NULL == YT_DISPATCH(unit), CMM_ERR_NOT_INIT);
 969              		.loc 1 116 5 is_stmt 0 discriminator 3 view .LVU284
 970 0034 1A48     		ldr	r0, .L112+16
 971              	.LVL127:
 116:../switch_sdk/core/yt/yt_interrupt.c ****     CMM_PARAM_CHK(NULL == YT_DISPATCH(unit), CMM_ERR_NOT_INIT);
 972              		.loc 1 116 5 discriminator 3 view .LVU285
 973 0036 FFF7FEFF 		bl	osal_printf
 974              	.LVL128:
 975 003a F5E7     		b	.L95
 976              	.LVL129:
 977              	.L105:
 116:../switch_sdk/core/yt/yt_interrupt.c ****     CMM_PARAM_CHK(NULL == YT_DISPATCH(unit), CMM_ERR_NOT_INIT);
 978              		.loc 1 116 5 discriminator 3 view .LVU286
 979              	.LBE20:
 117:../switch_sdk/core/yt/yt_interrupt.c ****     CMM_PARAM_CHK((!(YT_DISPATCH(unit)->is_inited)), CMM_ERR_NOT_INIT);
 980              		.loc 1 117 5 is_stmt 1 discriminator 1 view .LVU287
 117:../switch_sdk/core/yt/yt_interrupt.c ****     CMM_PARAM_CHK((!(YT_DISPATCH(unit)->is_inited)), CMM_ERR_NOT_INIT);
 981              		.loc 1 117 5 discriminator 1 view .LVU288
 982 003c 154B     		ldr	r3, .L112+4
 983 003e 1B78     		ldrb	r3, [r3]	@ zero_extendqisi2
 984 0040 012B     		cmp	r3, #1
 985 0042 01D8     		bhi	.L109
 986              	.LVL130:
 987              	.L98:
 117:../switch_sdk/core/yt/yt_interrupt.c ****     CMM_PARAM_CHK((!(YT_DISPATCH(unit)->is_inited)), CMM_ERR_NOT_INIT);
 988              		.loc 1 117 5 discriminator 5 view .LVU289
 117:../switch_sdk/core/yt/yt_interrupt.c ****     CMM_PARAM_CHK((!(YT_DISPATCH(unit)->is_inited)), CMM_ERR_NOT_INIT);
 989              		.loc 1 117 5 discriminator 5 view .LVU290
 117:../switch_sdk/core/yt/yt_interrupt.c ****     CMM_PARAM_CHK((!(YT_DISPATCH(unit)->is_inited)), CMM_ERR_NOT_INIT);
 990              		.loc 1 117 5 discriminator 5 view .LVU291
 991 0044 0420     		movs	r0, #4
 992 0046 EAE7     		b	.L93
 993              	.LVL131:
 994              	.L109:
 117:../switch_sdk/core/yt/yt_interrupt.c ****     CMM_PARAM_CHK((!(YT_DISPATCH(unit)->is_inited)), CMM_ERR_NOT_INIT);
 995              		.loc 1 117 5 discriminator 3 view .LVU292
 996              	.LBB21:
 117:../switch_sdk/core/yt/yt_interrupt.c ****     CMM_PARAM_CHK((!(YT_DISPATCH(unit)->is_inited)), CMM_ERR_NOT_INIT);
 997              		.loc 1 117 5 discriminator 3 view .LVU293
 998 0048 134B     		ldr	r3, .L112+8
 999 004a 1A69     		ldr	r2, [r3, #16]
 1000 004c 134B     		ldr	r3, .L112+12
 1001 004e 9968     		ldr	r1, [r3, #8]
 1002              	.LVL132:
 117:../switch_sdk/core/yt/yt_interrupt.c ****     CMM_PARAM_CHK((!(YT_DISPATCH(unit)->is_inited)), CMM_ERR_NOT_INIT);
 1003              		.loc 1 117 5 is_stmt 0 discriminator 3 view .LVU294
 1004 0050 1348     		ldr	r0, .L112+16
 1005              	.LVL133:
 117:../switch_sdk/core/yt/yt_interrupt.c ****     CMM_PARAM_CHK((!(YT_DISPATCH(unit)->is_inited)), CMM_ERR_NOT_INIT);
 1006              		.loc 1 117 5 discriminator 3 view .LVU295
 1007 0052 FFF7FEFF 		bl	osal_printf
 1008              	.LVL134:
 1009 0056 F5E7     		b	.L98
 1010              	.LVL135:
 1011              	.L106:
 117:../switch_sdk/core/yt/yt_interrupt.c ****     CMM_PARAM_CHK((!(YT_DISPATCH(unit)->is_inited)), CMM_ERR_NOT_INIT);
 1012              		.loc 1 117 5 discriminator 3 view .LVU296
 1013              	.LBE21:
 118:../switch_sdk/core/yt/yt_interrupt.c ****     CMM_PARAM_CHK((NULL == pIntStatus), CMM_ERR_NULL_POINT);
 1014              		.loc 1 118 5 is_stmt 1 discriminator 1 view .LVU297
 118:../switch_sdk/core/yt/yt_interrupt.c ****     CMM_PARAM_CHK((NULL == pIntStatus), CMM_ERR_NULL_POINT);
 1015              		.loc 1 118 5 discriminator 1 view .LVU298
 1016 0058 0E4B     		ldr	r3, .L112+4
 1017 005a 1B78     		ldrb	r3, [r3]	@ zero_extendqisi2
 1018 005c 012B     		cmp	r3, #1
 1019 005e 01D8     		bhi	.L110
 1020              	.LVL136:
 1021              	.L100:
 118:../switch_sdk/core/yt/yt_interrupt.c ****     CMM_PARAM_CHK((NULL == pIntStatus), CMM_ERR_NULL_POINT);
 1022              		.loc 1 118 5 discriminator 5 view .LVU299
 118:../switch_sdk/core/yt/yt_interrupt.c ****     CMM_PARAM_CHK((NULL == pIntStatus), CMM_ERR_NULL_POINT);
 1023              		.loc 1 118 5 discriminator 5 view .LVU300
 118:../switch_sdk/core/yt/yt_interrupt.c ****     CMM_PARAM_CHK((NULL == pIntStatus), CMM_ERR_NULL_POINT);
 1024              		.loc 1 118 5 discriminator 5 view .LVU301
 1025 0060 0420     		movs	r0, #4
 1026 0062 DCE7     		b	.L93
 1027              	.LVL137:
 1028              	.L110:
 118:../switch_sdk/core/yt/yt_interrupt.c ****     CMM_PARAM_CHK((NULL == pIntStatus), CMM_ERR_NULL_POINT);
 1029              		.loc 1 118 5 discriminator 3 view .LVU302
 1030              	.LBB22:
 118:../switch_sdk/core/yt/yt_interrupt.c ****     CMM_PARAM_CHK((NULL == pIntStatus), CMM_ERR_NULL_POINT);
 1031              		.loc 1 118 5 discriminator 3 view .LVU303
 1032 0064 0C4B     		ldr	r3, .L112+8
 1033 0066 1A69     		ldr	r2, [r3, #16]
 1034 0068 0C4B     		ldr	r3, .L112+12
 1035 006a 9968     		ldr	r1, [r3, #8]
 1036              	.LVL138:
 118:../switch_sdk/core/yt/yt_interrupt.c ****     CMM_PARAM_CHK((NULL == pIntStatus), CMM_ERR_NULL_POINT);
 1037              		.loc 1 118 5 is_stmt 0 discriminator 3 view .LVU304
 1038 006c 0C48     		ldr	r0, .L112+16
 1039 006e FFF7FEFF 		bl	osal_printf
 1040              	.LVL139:
 1041 0072 F5E7     		b	.L100
 1042              	.LVL140:
 1043              	.L107:
 118:../switch_sdk/core/yt/yt_interrupt.c ****     CMM_PARAM_CHK((NULL == pIntStatus), CMM_ERR_NULL_POINT);
 1044              		.loc 1 118 5 discriminator 3 view .LVU305
 1045              	.LBE22:
 119:../switch_sdk/core/yt/yt_interrupt.c **** 
 1046              		.loc 1 119 5 is_stmt 1 discriminator 1 view .LVU306
 119:../switch_sdk/core/yt/yt_interrupt.c **** 
 1047              		.loc 1 119 5 discriminator 1 view .LVU307
 1048 0074 074B     		ldr	r3, .L112+4
 1049 0076 1B78     		ldrb	r3, [r3]	@ zero_extendqisi2
 1050 0078 012B     		cmp	r3, #1
 1051 007a 01D8     		bhi	.L111
 1052              	.LVL141:
 1053              	.L102:
 119:../switch_sdk/core/yt/yt_interrupt.c **** 
 1054              		.loc 1 119 5 discriminator 5 view .LVU308
 119:../switch_sdk/core/yt/yt_interrupt.c **** 
 1055              		.loc 1 119 5 discriminator 5 view .LVU309
 119:../switch_sdk/core/yt/yt_interrupt.c **** 
 1056              		.loc 1 119 5 discriminator 5 view .LVU310
 1057 007c 0220     		movs	r0, #2
 1058 007e CEE7     		b	.L93
 1059              	.LVL142:
 1060              	.L111:
 119:../switch_sdk/core/yt/yt_interrupt.c **** 
 1061              		.loc 1 119 5 discriminator 3 view .LVU311
 1062              	.LBB23:
 119:../switch_sdk/core/yt/yt_interrupt.c **** 
 1063              		.loc 1 119 5 discriminator 3 view .LVU312
 1064 0080 054B     		ldr	r3, .L112+8
 1065 0082 9A68     		ldr	r2, [r3, #8]
 1066 0084 054B     		ldr	r3, .L112+12
 1067 0086 9968     		ldr	r1, [r3, #8]
 1068              	.LVL143:
 119:../switch_sdk/core/yt/yt_interrupt.c **** 
 1069              		.loc 1 119 5 is_stmt 0 discriminator 3 view .LVU313
 1070 0088 0548     		ldr	r0, .L112+16
 1071 008a FFF7FEFF 		bl	osal_printf
 1072              	.LVL144:
 1073 008e F5E7     		b	.L102
 1074              	.L113:
 1075              		.align	2
 1076              	.L112:
 1077 0090 00000000 		.word	gpfal_dispatch
 1078 0094 00000000 		.word	yt_debug_level
 1079 0098 00000000 		.word	_yt_errmsg
 1080 009c 00000000 		.word	_yt_prompt_msg
 1081 00a0 00000000 		.word	.LC0
 1082              	.LBE23:
 1083              		.cfi_endproc
 1084              	.LFE7:
 1086              		.text
 1087              	.Letext0:
 1088              		.file 2 "C:\\Users\\Dmitriy\\Desktop\\GD32F10x\\switch_sdk\\common\\include/yt_types.h"
 1089              		.file 3 "C:\\Users\\Dmitriy\\Desktop\\GD32F10x\\switch_sdk\\common\\include/yt_error.h"
 1090              		.file 4 "C:\\Users\\Dmitriy\\Desktop\\GD32F10x\\switch_sdk\\core\\cal/cal_bprofile.h"
 1091              		.file 5 "C:\\Users\\Dmitriy\\Desktop\\GD32F10x\\switch_sdk\\include/yt_cmm.h"
 1092              		.file 6 "C:\\Users\\Dmitriy\\Desktop\\GD32F10x\\switch_sdk\\include/yt_interrupt.h"
 1093              		.file 7 "C:\\Users\\Dmitriy\\Desktop\\GD32F10x\\switch_sdk\\include/yt_vlan.h"
 1094              		.file 8 "C:\\Users\\Dmitriy\\Desktop\\GD32F10x\\switch_sdk\\include/yt_vlan_translate.h"
 1095              		.file 9 "C:\\Users\\Dmitriy\\Desktop\\GD32F10x\\switch_sdk\\include/yt_acl.h"
 1096              		.file 10 "C:\\Users\\Dmitriy\\Desktop\\GD32F10x\\switch_sdk\\include/yt_qos.h"
 1097              		.file 11 "C:\\Users\\Dmitriy\\Desktop\\GD32F10x\\switch_sdk\\include/yt_rate.h"
 1098              		.file 12 "C:\\Users\\Dmitriy\\Desktop\\GD32F10x\\switch_sdk\\include/yt_dos.h"
 1099              		.file 13 "C:\\Users\\Dmitriy\\Desktop\\GD32F10x\\switch_sdk\\include/yt_nic.h"
 1100              		.file 14 "C:\\Users\\Dmitriy\\Desktop\\GD32F10x\\switch_sdk\\include/yt_stp.h"
 1101              		.file 15 "C:\\Users\\Dmitriy\\Desktop\\GD32F10x\\switch_sdk\\include/yt_l2.h"
 1102              		.file 16 "C:\\Users\\Dmitriy\\Desktop\\GD32F10x\\switch_sdk\\include/yt_loopdetect.h"
 1103              		.file 17 "C:\\Users\\Dmitriy\\Desktop\\GD32F10x\\switch_sdk\\include/yt_multicast.h"
 1104              		.file 18 "C:\\Users\\Dmitriy\\Desktop\\GD32F10x\\switch_sdk\\include/yt_rma.h"
 1105              		.file 19 "C:\\Users\\Dmitriy\\Desktop\\GD32F10x\\switch_sdk\\include/yt_oam.h"
 1106              		.file 20 "C:\\Users\\Dmitriy\\Desktop\\GD32F10x\\switch_sdk\\include/yt_storm_ctrl.h"
 1107              		.file 21 "C:\\Users\\Dmitriy\\Desktop\\GD32F10x\\switch_sdk\\include/yt_port.h"
 1108              		.file 22 "C:\\Users\\Dmitriy\\Desktop\\GD32F10x\\switch_sdk\\include/yt_dot1x.h"
 1109              		.file 23 "C:\\Users\\Dmitriy\\Desktop\\GD32F10x\\switch_sdk\\include/yt_ctrlpkt.h"
 1110              		.file 24 "C:\\Users\\Dmitriy\\Desktop\\GD32F10x\\switch_sdk\\include/yt_stat.h"
 1111              		.file 25 "C:\\Users\\Dmitriy\\Desktop\\GD32F10x\\switch_sdk\\include/yt_led.h"
 1112              		.file 26 "C:\\Users\\Dmitriy\\Desktop\\GD32F10x\\switch_sdk\\include/yt_sys.h"
 1113              		.file 27 "C:\\Users\\Dmitriy\\Desktop\\GD32F10x\\switch_sdk\\include/yt_debug.h"
 1114              		.file 28 "C:\\Users\\Dmitriy\\Desktop\\GD32F10x\\switch_sdk\\core\\fal/fal_dispatch.h"