   1              		.cpu cortex-m3
   2              		.arch armv7-m
   3              		.fpu softvfp
   4              		.eabi_attribute 20, 1
   5              		.eabi_attribute 21, 1
   6              		.eabi_attribute 23, 3
   7              		.eabi_attribute 24, 1
   8              		.eabi_attribute 25, 1
   9              		.eabi_attribute 26, 1
  10              		.eabi_attribute 30, 1
  11              		.eabi_attribute 34, 1
  12              		.eabi_attribute 18, 4
  13              		.file	"yt_l2.c"
  14              		.text
  15              	.Ltext0:
  16              		.cfi_sections	.debug_frame
  17              		.file 1 "../switch_sdk/core/yt/yt_l2.c"
  18              		.section	.rodata.yt_l2_init.str1.4,"aMS",%progbits,1
  19              		.align	2
  20              	.LC0:
  21 0000 25732573 		.ascii	"%s%s\015\012\000"
  21      0D0A00
  22              		.section	.text.yt_l2_init,"ax",%progbits
  23              		.align	1
  24              		.global	yt_l2_init
  25              		.syntax unified
  26              		.thumb
  27              		.thumb_func
  29              	yt_l2_init:
  30              	.LVL0:
  31              	.LFB3:
   1:../switch_sdk/core/yt/yt_l2.c **** /*******************************************************************************
   2:../switch_sdk/core/yt/yt_l2.c **** *                                                                              *
   3:../switch_sdk/core/yt/yt_l2.c **** *  Copyright (c), 2022, Motorcomm Electronic Technology Co.,Ltd.               *
   4:../switch_sdk/core/yt/yt_l2.c **** *  Motorcomm Confidential and Proprietary.                                     *
   5:../switch_sdk/core/yt/yt_l2.c **** *                                                                              *
   6:../switch_sdk/core/yt/yt_l2.c **** ********************************************************************************
   7:../switch_sdk/core/yt/yt_l2.c **** */
   8:../switch_sdk/core/yt/yt_l2.c **** /**
   9:../switch_sdk/core/yt/yt_l2.c **** ********************************************************************************
  10:../switch_sdk/core/yt/yt_l2.c **** * @file yt_l2.c
  11:../switch_sdk/core/yt/yt_l2.c **** *
  12:../switch_sdk/core/yt/yt_l2.c **** * @brief x
  13:../switch_sdk/core/yt/yt_l2.c **** *
  14:../switch_sdk/core/yt/yt_l2.c **** ********************************************************************************
  15:../switch_sdk/core/yt/yt_l2.c **** */
  16:../switch_sdk/core/yt/yt_l2.c **** #include "yt_l2.h"
  17:../switch_sdk/core/yt/yt_l2.c **** #include "fal_dispatch.h"
  18:../switch_sdk/core/yt/yt_l2.c **** 
  19:../switch_sdk/core/yt/yt_l2.c **** 
  20:../switch_sdk/core/yt/yt_l2.c **** /**
  21:../switch_sdk/core/yt/yt_l2.c ****  * @internal      yt_l2_init
  22:../switch_sdk/core/yt/yt_l2.c ****  * @endinternal
  23:../switch_sdk/core/yt/yt_l2.c ****  *
  24:../switch_sdk/core/yt/yt_l2.c ****  * @brief         Description
  25:../switch_sdk/core/yt/yt_l2.c ****  * @note          APPLICABLE DEVICES  -Tiger
  26:../switch_sdk/core/yt/yt_l2.c ****  * @param[in]     unit                -unit id
  27:../switch_sdk/core/yt/yt_l2.c ****  * @retval        CMM_ERR_OK          -on success
  28:../switch_sdk/core/yt/yt_l2.c ****  * @retval        CMM_ERR_FAIL        -on fail
  29:../switch_sdk/core/yt/yt_l2.c ****  */
  30:../switch_sdk/core/yt/yt_l2.c **** yt_ret_t yt_l2_init(yt_unit_t unit)
  31:../switch_sdk/core/yt/yt_l2.c **** {
  32              		.loc 1 31 1 view -0
  33              		.cfi_startproc
  34              		@ args = 0, pretend = 0, frame = 0
  35              		@ frame_needed = 0, uses_anonymous_args = 0
  36              		.loc 1 31 1 is_stmt 0 view .LVU1
  37 0000 08B5     		push	{r3, lr}
  38              		.cfi_def_cfa_offset 8
  39              		.cfi_offset 3, -8
  40              		.cfi_offset 14, -4
  32:../switch_sdk/core/yt/yt_l2.c ****     CMM_PARAM_CHK((YT_UNIT_NUM <= unit), CMM_ERR_INPUT);
  41              		.loc 1 32 5 is_stmt 1 view .LVU2
  42              		.loc 1 32 5 view .LVU3
  43 0002 48B9     		cbnz	r0, .L10
  44              		.loc 1 32 5 discriminator 2 view .LVU4
  33:../switch_sdk/core/yt/yt_l2.c ****     CMM_PARAM_CHK(NULL == YT_DISPATCH(unit), CMM_ERR_NOT_INIT);
  45              		.loc 1 33 5 discriminator 2 view .LVU5
  46              		.loc 1 33 5 discriminator 2 view .LVU6
  47 0004 194B     		ldr	r3, .L16
  48 0006 53F82030 		ldr	r3, [r3, r0, lsl #2]
  49 000a 9BB1     		cbz	r3, .L11
  50              		.loc 1 33 5 discriminator 2 view .LVU7
  34:../switch_sdk/core/yt/yt_l2.c ****     CMM_PARAM_CHK((!(YT_DISPATCH(unit)->is_inited)), CMM_ERR_NOT_INIT);
  51              		.loc 1 34 5 discriminator 2 view .LVU8
  52              		.loc 1 34 5 discriminator 2 view .LVU9
  53 000c 1978     		ldrb	r1, [r3]	@ zero_extendqisi2
  54 000e F9B1     		cbz	r1, .L12
  55              		.loc 1 34 5 discriminator 2 view .LVU10
  35:../switch_sdk/core/yt/yt_l2.c **** 
  36:../switch_sdk/core/yt/yt_l2.c ****     return YT_DISPATCH(unit)->l2_init(unit);
  56              		.loc 1 36 5 discriminator 2 view .LVU11
  57              		.loc 1 36 29 is_stmt 0 discriminator 2 view .LVU12
  58 0010 D3F83C33 		ldr	r3, [r3, #828]
  59              		.loc 1 36 12 discriminator 2 view .LVU13
  60 0014 9847     		blx	r3
  61              	.LVL1:
  62              	.L1:
  37:../switch_sdk/core/yt/yt_l2.c **** }
  63              		.loc 1 37 1 view .LVU14
  64 0016 08BD     		pop	{r3, pc}
  65              	.LVL2:
  66              	.L10:
  32:../switch_sdk/core/yt/yt_l2.c ****     CMM_PARAM_CHK(NULL == YT_DISPATCH(unit), CMM_ERR_NOT_INIT);
  67              		.loc 1 32 5 is_stmt 1 discriminator 1 view .LVU15
  32:../switch_sdk/core/yt/yt_l2.c ****     CMM_PARAM_CHK(NULL == YT_DISPATCH(unit), CMM_ERR_NOT_INIT);
  68              		.loc 1 32 5 discriminator 1 view .LVU16
  69 0018 154B     		ldr	r3, .L16+4
  70 001a 1B78     		ldrb	r3, [r3]	@ zero_extendqisi2
  71 001c 012B     		cmp	r3, #1
  72 001e 01D8     		bhi	.L13
  73              	.LVL3:
  74              	.L3:
  32:../switch_sdk/core/yt/yt_l2.c ****     CMM_PARAM_CHK(NULL == YT_DISPATCH(unit), CMM_ERR_NOT_INIT);
  75              		.loc 1 32 5 discriminator 5 view .LVU17
  32:../switch_sdk/core/yt/yt_l2.c ****     CMM_PARAM_CHK(NULL == YT_DISPATCH(unit), CMM_ERR_NOT_INIT);
  76              		.loc 1 32 5 discriminator 5 view .LVU18
  32:../switch_sdk/core/yt/yt_l2.c ****     CMM_PARAM_CHK(NULL == YT_DISPATCH(unit), CMM_ERR_NOT_INIT);
  77              		.loc 1 32 5 discriminator 5 view .LVU19
  78 0020 0520     		movs	r0, #5
  79 0022 F8E7     		b	.L1
  80              	.LVL4:
  81              	.L13:
  32:../switch_sdk/core/yt/yt_l2.c ****     CMM_PARAM_CHK(NULL == YT_DISPATCH(unit), CMM_ERR_NOT_INIT);
  82              		.loc 1 32 5 discriminator 3 view .LVU20
  83              	.LBB2:
  32:../switch_sdk/core/yt/yt_l2.c ****     CMM_PARAM_CHK(NULL == YT_DISPATCH(unit), CMM_ERR_NOT_INIT);
  84              		.loc 1 32 5 discriminator 3 view .LVU21
  85 0024 134B     		ldr	r3, .L16+8
  86 0026 5A69     		ldr	r2, [r3, #20]
  87 0028 134B     		ldr	r3, .L16+12
  88 002a 9968     		ldr	r1, [r3, #8]
  89 002c 1348     		ldr	r0, .L16+16
  90              	.LVL5:
  32:../switch_sdk/core/yt/yt_l2.c ****     CMM_PARAM_CHK(NULL == YT_DISPATCH(unit), CMM_ERR_NOT_INIT);
  91              		.loc 1 32 5 is_stmt 0 discriminator 3 view .LVU22
  92 002e FFF7FEFF 		bl	osal_printf
  93              	.LVL6:
  94 0032 F5E7     		b	.L3
  95              	.LVL7:
  96              	.L11:
  32:../switch_sdk/core/yt/yt_l2.c ****     CMM_PARAM_CHK(NULL == YT_DISPATCH(unit), CMM_ERR_NOT_INIT);
  97              		.loc 1 32 5 discriminator 3 view .LVU23
  98              	.LBE2:
  33:../switch_sdk/core/yt/yt_l2.c ****     CMM_PARAM_CHK((!(YT_DISPATCH(unit)->is_inited)), CMM_ERR_NOT_INIT);
  99              		.loc 1 33 5 is_stmt 1 discriminator 1 view .LVU24
  33:../switch_sdk/core/yt/yt_l2.c ****     CMM_PARAM_CHK((!(YT_DISPATCH(unit)->is_inited)), CMM_ERR_NOT_INIT);
 100              		.loc 1 33 5 discriminator 1 view .LVU25
 101 0034 0E4B     		ldr	r3, .L16+4
 102 0036 1B78     		ldrb	r3, [r3]	@ zero_extendqisi2
 103 0038 012B     		cmp	r3, #1
 104 003a 01D8     		bhi	.L14
 105              	.LVL8:
 106              	.L6:
  33:../switch_sdk/core/yt/yt_l2.c ****     CMM_PARAM_CHK((!(YT_DISPATCH(unit)->is_inited)), CMM_ERR_NOT_INIT);
 107              		.loc 1 33 5 discriminator 5 view .LVU26
  33:../switch_sdk/core/yt/yt_l2.c ****     CMM_PARAM_CHK((!(YT_DISPATCH(unit)->is_inited)), CMM_ERR_NOT_INIT);
 108              		.loc 1 33 5 discriminator 5 view .LVU27
  33:../switch_sdk/core/yt/yt_l2.c ****     CMM_PARAM_CHK((!(YT_DISPATCH(unit)->is_inited)), CMM_ERR_NOT_INIT);
 109              		.loc 1 33 5 discriminator 5 view .LVU28
 110 003c 0420     		movs	r0, #4
 111 003e EAE7     		b	.L1
 112              	.LVL9:
 113              	.L14:
  33:../switch_sdk/core/yt/yt_l2.c ****     CMM_PARAM_CHK((!(YT_DISPATCH(unit)->is_inited)), CMM_ERR_NOT_INIT);
 114              		.loc 1 33 5 discriminator 3 view .LVU29
 115              	.LBB3:
  33:../switch_sdk/core/yt/yt_l2.c ****     CMM_PARAM_CHK((!(YT_DISPATCH(unit)->is_inited)), CMM_ERR_NOT_INIT);
 116              		.loc 1 33 5 discriminator 3 view .LVU30
 117 0040 0C4B     		ldr	r3, .L16+8
 118 0042 1A69     		ldr	r2, [r3, #16]
 119 0044 0C4B     		ldr	r3, .L16+12
 120 0046 9968     		ldr	r1, [r3, #8]
 121 0048 0C48     		ldr	r0, .L16+16
 122              	.LVL10:
  33:../switch_sdk/core/yt/yt_l2.c ****     CMM_PARAM_CHK((!(YT_DISPATCH(unit)->is_inited)), CMM_ERR_NOT_INIT);
 123              		.loc 1 33 5 is_stmt 0 discriminator 3 view .LVU31
 124 004a FFF7FEFF 		bl	osal_printf
 125              	.LVL11:
 126 004e F5E7     		b	.L6
 127              	.LVL12:
 128              	.L12:
  33:../switch_sdk/core/yt/yt_l2.c ****     CMM_PARAM_CHK((!(YT_DISPATCH(unit)->is_inited)), CMM_ERR_NOT_INIT);
 129              		.loc 1 33 5 discriminator 3 view .LVU32
 130              	.LBE3:
  34:../switch_sdk/core/yt/yt_l2.c **** 
 131              		.loc 1 34 5 is_stmt 1 discriminator 1 view .LVU33
  34:../switch_sdk/core/yt/yt_l2.c **** 
 132              		.loc 1 34 5 discriminator 1 view .LVU34
 133 0050 074B     		ldr	r3, .L16+4
 134 0052 1B78     		ldrb	r3, [r3]	@ zero_extendqisi2
 135 0054 012B     		cmp	r3, #1
 136 0056 01D8     		bhi	.L15
 137              	.LVL13:
 138              	.L8:
  34:../switch_sdk/core/yt/yt_l2.c **** 
 139              		.loc 1 34 5 discriminator 5 view .LVU35
  34:../switch_sdk/core/yt/yt_l2.c **** 
 140              		.loc 1 34 5 discriminator 5 view .LVU36
  34:../switch_sdk/core/yt/yt_l2.c **** 
 141              		.loc 1 34 5 discriminator 5 view .LVU37
 142 0058 0420     		movs	r0, #4
 143 005a DCE7     		b	.L1
 144              	.LVL14:
 145              	.L15:
  34:../switch_sdk/core/yt/yt_l2.c **** 
 146              		.loc 1 34 5 discriminator 3 view .LVU38
 147              	.LBB4:
  34:../switch_sdk/core/yt/yt_l2.c **** 
 148              		.loc 1 34 5 discriminator 3 view .LVU39
 149 005c 054B     		ldr	r3, .L16+8
 150 005e 1A69     		ldr	r2, [r3, #16]
 151 0060 054B     		ldr	r3, .L16+12
 152 0062 9968     		ldr	r1, [r3, #8]
 153 0064 0548     		ldr	r0, .L16+16
 154              	.LVL15:
  34:../switch_sdk/core/yt/yt_l2.c **** 
 155              		.loc 1 34 5 is_stmt 0 discriminator 3 view .LVU40
 156 0066 FFF7FEFF 		bl	osal_printf
 157              	.LVL16:
 158 006a F5E7     		b	.L8
 159              	.L17:
 160              		.align	2
 161              	.L16:
 162 006c 00000000 		.word	gpfal_dispatch
 163 0070 00000000 		.word	yt_debug_level
 164 0074 00000000 		.word	_yt_errmsg
 165 0078 00000000 		.word	_yt_prompt_msg
 166 007c 00000000 		.word	.LC0
 167              	.LBE4:
 168              		.cfi_endproc
 169              	.LFE3:
 171              		.section	.text.yt_l2_mcast_addr_add,"ax",%progbits
 172              		.align	1
 173              		.global	yt_l2_mcast_addr_add
 174              		.syntax unified
 175              		.thumb
 176              		.thumb_func
 178              	yt_l2_mcast_addr_add:
 179              	.LVL17:
 180              	.LFB4:
  38:../switch_sdk/core/yt/yt_l2.c **** 
  39:../switch_sdk/core/yt/yt_l2.c **** /**
  40:../switch_sdk/core/yt/yt_l2.c ****  * @internal      yt_l2_mcast_addr_add
  41:../switch_sdk/core/yt/yt_l2.c ****  * @endinternal
  42:../switch_sdk/core/yt/yt_l2.c ****  *
  43:../switch_sdk/core/yt/yt_l2.c ****  * @brief         Description
  44:../switch_sdk/core/yt/yt_l2.c ****  * @note          APPLICABLE DEVICES  -Tiger
  45:../switch_sdk/core/yt/yt_l2.c ****  * @param[in]     unit                -unit id
  46:../switch_sdk/core/yt/yt_l2.c ****  * @param[in]     vid                 -vlan id
  47:../switch_sdk/core/yt/yt_l2.c ****  * @param[in]     mac_addr            -yt_types.h
  48:../switch_sdk/core/yt/yt_l2.c ****  * @param[in]     port_mask           -port bit mask
  49:../switch_sdk/core/yt/yt_l2.c ****  * @retval        CMM_ERR_OK          -on success
  50:../switch_sdk/core/yt/yt_l2.c ****  * @retval        CMM_ERR_FAIL        -on fail
  51:../switch_sdk/core/yt/yt_l2.c ****  */
  52:../switch_sdk/core/yt/yt_l2.c **** yt_ret_t  yt_l2_mcast_addr_add(yt_unit_t unit, yt_vlan_t vid, yt_mac_addr_t mac_addr, yt_port_mask_
  53:../switch_sdk/core/yt/yt_l2.c **** {
 181              		.loc 1 53 1 is_stmt 1 view -0
 182              		.cfi_startproc
 183              		@ args = 4, pretend = 0, frame = 8
 184              		@ frame_needed = 0, uses_anonymous_args = 0
 185              		.loc 1 53 1 is_stmt 0 view .LVU42
 186 0000 70B5     		push	{r4, r5, r6, lr}
 187              		.cfi_def_cfa_offset 16
 188              		.cfi_offset 4, -16
 189              		.cfi_offset 5, -12
 190              		.cfi_offset 6, -8
 191              		.cfi_offset 14, -4
 192 0002 84B0     		sub	sp, sp, #16
 193              		.cfi_def_cfa_offset 32
 194 0004 0D46     		mov	r5, r1
 195 0006 04A9     		add	r1, sp, #16
 196              	.LVL18:
 197              		.loc 1 53 1 view .LVU43
 198 0008 01E90C00 		stmdb	r1, {r2, r3}
  54:../switch_sdk/core/yt/yt_l2.c ****     CMM_PARAM_CHK((YT_UNIT_NUM <= unit), CMM_ERR_INPUT);
 199              		.loc 1 54 5 is_stmt 1 view .LVU44
 200              		.loc 1 54 5 view .LVU45
 201 000c F8B9     		cbnz	r0, .L31
 202 000e 0446     		mov	r4, r0
 203              		.loc 1 54 5 discriminator 2 view .LVU46
  55:../switch_sdk/core/yt/yt_l2.c ****     CMM_PARAM_CHK(NULL == YT_DISPATCH(unit), CMM_ERR_NOT_INIT);
 204              		.loc 1 55 5 discriminator 2 view .LVU47
 205              		.loc 1 55 5 discriminator 2 view .LVU48
 206 0010 324B     		ldr	r3, .L41
 207 0012 53F82030 		ldr	r3, [r3, r0, lsl #2]
 208 0016 43B3     		cbz	r3, .L32
 209              		.loc 1 55 5 discriminator 2 view .LVU49
  56:../switch_sdk/core/yt/yt_l2.c ****     CMM_PARAM_CHK((!(YT_DISPATCH(unit)->is_inited)), CMM_ERR_NOT_INIT);
 210              		.loc 1 56 5 discriminator 2 view .LVU50
 211              		.loc 1 56 5 discriminator 2 view .LVU51
 212 0018 1B78     		ldrb	r3, [r3]	@ zero_extendqisi2
 213 001a 002B     		cmp	r3, #0
 214 001c 33D0     		beq	.L33
 215              		.loc 1 56 5 discriminator 2 view .LVU52
  57:../switch_sdk/core/yt/yt_l2.c ****     CMM_PARAM_CHK((!(CMM_PLIST_VALID(unit, port_mask))), CMM_ERR_PORTLIST);
 216              		.loc 1 57 5 discriminator 2 view .LVU53
 217              		.loc 1 57 5 discriminator 2 view .LVU54
 218 001e 0022     		movs	r2, #0
 219 0020 0899     		ldr	r1, [sp, #32]
 220 0022 FFF7FEFF 		bl	cal_ytportmask_isvalid
 221              	.LVL19:
 222              		.loc 1 57 5 is_stmt 0 discriminator 2 view .LVU55
 223 0026 0028     		cmp	r0, #0
 224 0028 3BD1     		bne	.L34
 225              		.loc 1 57 5 is_stmt 1 discriminator 2 view .LVU56
  58:../switch_sdk/core/yt/yt_l2.c ****     CMM_PARAM_CHK((YT_VLAN_ID_MAX < vid), CMM_ERR_EXCEED_RANGE);
 226              		.loc 1 58 5 discriminator 2 view .LVU57
 227              		.loc 1 58 5 discriminator 2 view .LVU58
 228 002a B5F5805F 		cmp	r5, #4096
 229 002e 46D2     		bcs	.L35
 230              		.loc 1 58 5 discriminator 2 view .LVU59
  59:../switch_sdk/core/yt/yt_l2.c **** 
  60:../switch_sdk/core/yt/yt_l2.c ****     return YT_DISPATCH(unit)->l2_mcast_addr_add(unit, vid, mac_addr, port_mask);
 231              		.loc 1 60 5 discriminator 2 view .LVU60
 232              		.loc 1 60 12 is_stmt 0 discriminator 2 view .LVU61
 233 0030 2A4B     		ldr	r3, .L41
 234 0032 53F82430 		ldr	r3, [r3, r4, lsl #2]
 235              		.loc 1 60 29 discriminator 2 view .LVU62
 236 0036 D3F84063 		ldr	r6, [r3, #832]
 237              		.loc 1 60 12 discriminator 2 view .LVU63
 238 003a 089B     		ldr	r3, [sp, #32]
 239 003c 0093     		str	r3, [sp]
 240 003e 04AB     		add	r3, sp, #16
 241 0040 13E90C00 		ldmdb	r3, {r2, r3}
 242 0044 2946     		mov	r1, r5
 243 0046 2046     		mov	r0, r4
 244 0048 B047     		blx	r6
 245              	.LVL20:
 246              	.L18:
  61:../switch_sdk/core/yt/yt_l2.c **** }
 247              		.loc 1 61 1 view .LVU64
 248 004a 04B0     		add	sp, sp, #16
 249              		.cfi_remember_state
 250              		.cfi_def_cfa_offset 16
 251              		@ sp needed
 252 004c 70BD     		pop	{r4, r5, r6, pc}
 253              	.LVL21:
 254              	.L31:
 255              		.cfi_restore_state
  54:../switch_sdk/core/yt/yt_l2.c ****     CMM_PARAM_CHK(NULL == YT_DISPATCH(unit), CMM_ERR_NOT_INIT);
 256              		.loc 1 54 5 is_stmt 1 discriminator 1 view .LVU65
  54:../switch_sdk/core/yt/yt_l2.c ****     CMM_PARAM_CHK(NULL == YT_DISPATCH(unit), CMM_ERR_NOT_INIT);
 257              		.loc 1 54 5 discriminator 1 view .LVU66
 258 004e 244B     		ldr	r3, .L41+4
 259 0050 1B78     		ldrb	r3, [r3]	@ zero_extendqisi2
 260 0052 012B     		cmp	r3, #1
 261 0054 01D8     		bhi	.L36
 262              	.LVL22:
 263              	.L20:
  54:../switch_sdk/core/yt/yt_l2.c ****     CMM_PARAM_CHK(NULL == YT_DISPATCH(unit), CMM_ERR_NOT_INIT);
 264              		.loc 1 54 5 discriminator 5 view .LVU67
  54:../switch_sdk/core/yt/yt_l2.c ****     CMM_PARAM_CHK(NULL == YT_DISPATCH(unit), CMM_ERR_NOT_INIT);
 265              		.loc 1 54 5 discriminator 5 view .LVU68
  54:../switch_sdk/core/yt/yt_l2.c ****     CMM_PARAM_CHK(NULL == YT_DISPATCH(unit), CMM_ERR_NOT_INIT);
 266              		.loc 1 54 5 discriminator 5 view .LVU69
 267 0056 0520     		movs	r0, #5
 268 0058 F7E7     		b	.L18
 269              	.LVL23:
 270              	.L36:
  54:../switch_sdk/core/yt/yt_l2.c ****     CMM_PARAM_CHK(NULL == YT_DISPATCH(unit), CMM_ERR_NOT_INIT);
 271              		.loc 1 54 5 discriminator 3 view .LVU70
 272              	.LBB5:
  54:../switch_sdk/core/yt/yt_l2.c ****     CMM_PARAM_CHK(NULL == YT_DISPATCH(unit), CMM_ERR_NOT_INIT);
 273              		.loc 1 54 5 discriminator 3 view .LVU71
 274 005a 224B     		ldr	r3, .L41+8
 275 005c 5A69     		ldr	r2, [r3, #20]
 276 005e 224B     		ldr	r3, .L41+12
 277 0060 9968     		ldr	r1, [r3, #8]
 278 0062 2248     		ldr	r0, .L41+16
 279              	.LVL24:
  54:../switch_sdk/core/yt/yt_l2.c ****     CMM_PARAM_CHK(NULL == YT_DISPATCH(unit), CMM_ERR_NOT_INIT);
 280              		.loc 1 54 5 is_stmt 0 discriminator 3 view .LVU72
 281 0064 FFF7FEFF 		bl	osal_printf
 282              	.LVL25:
 283 0068 F5E7     		b	.L20
 284              	.LVL26:
 285              	.L32:
  54:../switch_sdk/core/yt/yt_l2.c ****     CMM_PARAM_CHK(NULL == YT_DISPATCH(unit), CMM_ERR_NOT_INIT);
 286              		.loc 1 54 5 discriminator 3 view .LVU73
 287              	.LBE5:
  55:../switch_sdk/core/yt/yt_l2.c ****     CMM_PARAM_CHK((!(YT_DISPATCH(unit)->is_inited)), CMM_ERR_NOT_INIT);
 288              		.loc 1 55 5 is_stmt 1 discriminator 1 view .LVU74
  55:../switch_sdk/core/yt/yt_l2.c ****     CMM_PARAM_CHK((!(YT_DISPATCH(unit)->is_inited)), CMM_ERR_NOT_INIT);
 289              		.loc 1 55 5 discriminator 1 view .LVU75
 290 006a 1D4B     		ldr	r3, .L41+4
 291 006c 1B78     		ldrb	r3, [r3]	@ zero_extendqisi2
 292 006e 012B     		cmp	r3, #1
 293 0070 01D8     		bhi	.L37
 294              	.LVL27:
 295              	.L23:
  55:../switch_sdk/core/yt/yt_l2.c ****     CMM_PARAM_CHK((!(YT_DISPATCH(unit)->is_inited)), CMM_ERR_NOT_INIT);
 296              		.loc 1 55 5 discriminator 5 view .LVU76
  55:../switch_sdk/core/yt/yt_l2.c ****     CMM_PARAM_CHK((!(YT_DISPATCH(unit)->is_inited)), CMM_ERR_NOT_INIT);
 297              		.loc 1 55 5 discriminator 5 view .LVU77
  55:../switch_sdk/core/yt/yt_l2.c ****     CMM_PARAM_CHK((!(YT_DISPATCH(unit)->is_inited)), CMM_ERR_NOT_INIT);
 298              		.loc 1 55 5 discriminator 5 view .LVU78
 299 0072 0420     		movs	r0, #4
 300 0074 E9E7     		b	.L18
 301              	.LVL28:
 302              	.L37:
  55:../switch_sdk/core/yt/yt_l2.c ****     CMM_PARAM_CHK((!(YT_DISPATCH(unit)->is_inited)), CMM_ERR_NOT_INIT);
 303              		.loc 1 55 5 discriminator 3 view .LVU79
 304              	.LBB6:
  55:../switch_sdk/core/yt/yt_l2.c ****     CMM_PARAM_CHK((!(YT_DISPATCH(unit)->is_inited)), CMM_ERR_NOT_INIT);
 305              		.loc 1 55 5 discriminator 3 view .LVU80
 306 0076 1B4B     		ldr	r3, .L41+8
 307 0078 1A69     		ldr	r2, [r3, #16]
 308 007a 1B4B     		ldr	r3, .L41+12
 309 007c 9968     		ldr	r1, [r3, #8]
 310 007e 1B48     		ldr	r0, .L41+16
 311              	.LVL29:
  55:../switch_sdk/core/yt/yt_l2.c ****     CMM_PARAM_CHK((!(YT_DISPATCH(unit)->is_inited)), CMM_ERR_NOT_INIT);
 312              		.loc 1 55 5 is_stmt 0 discriminator 3 view .LVU81
 313 0080 FFF7FEFF 		bl	osal_printf
 314              	.LVL30:
 315 0084 F5E7     		b	.L23
 316              	.LVL31:
 317              	.L33:
  55:../switch_sdk/core/yt/yt_l2.c ****     CMM_PARAM_CHK((!(YT_DISPATCH(unit)->is_inited)), CMM_ERR_NOT_INIT);
 318              		.loc 1 55 5 discriminator 3 view .LVU82
 319              	.LBE6:
  56:../switch_sdk/core/yt/yt_l2.c ****     CMM_PARAM_CHK((!(CMM_PLIST_VALID(unit, port_mask))), CMM_ERR_PORTLIST);
 320              		.loc 1 56 5 is_stmt 1 discriminator 1 view .LVU83
  56:../switch_sdk/core/yt/yt_l2.c ****     CMM_PARAM_CHK((!(CMM_PLIST_VALID(unit, port_mask))), CMM_ERR_PORTLIST);
 321              		.loc 1 56 5 discriminator 1 view .LVU84
 322 0086 164B     		ldr	r3, .L41+4
 323 0088 1B78     		ldrb	r3, [r3]	@ zero_extendqisi2
 324 008a 012B     		cmp	r3, #1
 325 008c 01D8     		bhi	.L38
 326              	.LVL32:
 327              	.L25:
  56:../switch_sdk/core/yt/yt_l2.c ****     CMM_PARAM_CHK((!(CMM_PLIST_VALID(unit, port_mask))), CMM_ERR_PORTLIST);
 328              		.loc 1 56 5 discriminator 5 view .LVU85
  56:../switch_sdk/core/yt/yt_l2.c ****     CMM_PARAM_CHK((!(CMM_PLIST_VALID(unit, port_mask))), CMM_ERR_PORTLIST);
 329              		.loc 1 56 5 discriminator 5 view .LVU86
  56:../switch_sdk/core/yt/yt_l2.c ****     CMM_PARAM_CHK((!(CMM_PLIST_VALID(unit, port_mask))), CMM_ERR_PORTLIST);
 330              		.loc 1 56 5 discriminator 5 view .LVU87
 331 008e 0420     		movs	r0, #4
 332 0090 DBE7     		b	.L18
 333              	.LVL33:
 334              	.L38:
  56:../switch_sdk/core/yt/yt_l2.c ****     CMM_PARAM_CHK((!(CMM_PLIST_VALID(unit, port_mask))), CMM_ERR_PORTLIST);
 335              		.loc 1 56 5 discriminator 3 view .LVU88
 336              	.LBB7:
  56:../switch_sdk/core/yt/yt_l2.c ****     CMM_PARAM_CHK((!(CMM_PLIST_VALID(unit, port_mask))), CMM_ERR_PORTLIST);
 337              		.loc 1 56 5 discriminator 3 view .LVU89
 338 0092 144B     		ldr	r3, .L41+8
 339 0094 1A69     		ldr	r2, [r3, #16]
 340 0096 144B     		ldr	r3, .L41+12
 341 0098 9968     		ldr	r1, [r3, #8]
 342 009a 1448     		ldr	r0, .L41+16
 343              	.LVL34:
  56:../switch_sdk/core/yt/yt_l2.c ****     CMM_PARAM_CHK((!(CMM_PLIST_VALID(unit, port_mask))), CMM_ERR_PORTLIST);
 344              		.loc 1 56 5 is_stmt 0 discriminator 3 view .LVU90
 345 009c FFF7FEFF 		bl	osal_printf
 346              	.LVL35:
 347 00a0 F5E7     		b	.L25
 348              	.L34:
 349              	.LBE7:
  57:../switch_sdk/core/yt/yt_l2.c ****     CMM_PARAM_CHK((YT_VLAN_ID_MAX < vid), CMM_ERR_EXCEED_RANGE);
 350              		.loc 1 57 5 is_stmt 1 discriminator 1 view .LVU91
  57:../switch_sdk/core/yt/yt_l2.c ****     CMM_PARAM_CHK((YT_VLAN_ID_MAX < vid), CMM_ERR_EXCEED_RANGE);
 351              		.loc 1 57 5 discriminator 1 view .LVU92
 352 00a2 0F4B     		ldr	r3, .L41+4
 353 00a4 1B78     		ldrb	r3, [r3]	@ zero_extendqisi2
 354 00a6 012B     		cmp	r3, #1
 355 00a8 01D8     		bhi	.L39
 356              	.L27:
  57:../switch_sdk/core/yt/yt_l2.c ****     CMM_PARAM_CHK((YT_VLAN_ID_MAX < vid), CMM_ERR_EXCEED_RANGE);
 357              		.loc 1 57 5 discriminator 5 view .LVU93
  57:../switch_sdk/core/yt/yt_l2.c ****     CMM_PARAM_CHK((YT_VLAN_ID_MAX < vid), CMM_ERR_EXCEED_RANGE);
 358              		.loc 1 57 5 discriminator 5 view .LVU94
  57:../switch_sdk/core/yt/yt_l2.c ****     CMM_PARAM_CHK((YT_VLAN_ID_MAX < vid), CMM_ERR_EXCEED_RANGE);
 359              		.loc 1 57 5 discriminator 5 view .LVU95
 360 00aa 0F20     		movs	r0, #15
 361 00ac CDE7     		b	.L18
 362              	.L39:
  57:../switch_sdk/core/yt/yt_l2.c ****     CMM_PARAM_CHK((YT_VLAN_ID_MAX < vid), CMM_ERR_EXCEED_RANGE);
 363              		.loc 1 57 5 discriminator 3 view .LVU96
 364              	.LBB8:
  57:../switch_sdk/core/yt/yt_l2.c ****     CMM_PARAM_CHK((YT_VLAN_ID_MAX < vid), CMM_ERR_EXCEED_RANGE);
 365              		.loc 1 57 5 discriminator 3 view .LVU97
 366 00ae 0D4B     		ldr	r3, .L41+8
 367 00b0 DA6B     		ldr	r2, [r3, #60]
 368 00b2 0D4B     		ldr	r3, .L41+12
 369 00b4 9968     		ldr	r1, [r3, #8]
 370 00b6 0D48     		ldr	r0, .L41+16
 371 00b8 FFF7FEFF 		bl	osal_printf
 372              	.LVL36:
 373 00bc F5E7     		b	.L27
 374              	.L35:
 375              	.LBE8:
  58:../switch_sdk/core/yt/yt_l2.c **** 
 376              		.loc 1 58 5 discriminator 1 view .LVU98
  58:../switch_sdk/core/yt/yt_l2.c **** 
 377              		.loc 1 58 5 discriminator 1 view .LVU99
 378 00be 084B     		ldr	r3, .L41+4
 379 00c0 1B78     		ldrb	r3, [r3]	@ zero_extendqisi2
 380 00c2 012B     		cmp	r3, #1
 381 00c4 01D8     		bhi	.L40
 382              	.L29:
  58:../switch_sdk/core/yt/yt_l2.c **** 
 383              		.loc 1 58 5 discriminator 5 view .LVU100
  58:../switch_sdk/core/yt/yt_l2.c **** 
 384              		.loc 1 58 5 discriminator 5 view .LVU101
  58:../switch_sdk/core/yt/yt_l2.c **** 
 385              		.loc 1 58 5 discriminator 5 view .LVU102
 386 00c6 1120     		movs	r0, #17
 387 00c8 BFE7     		b	.L18
 388              	.L40:
  58:../switch_sdk/core/yt/yt_l2.c **** 
 389              		.loc 1 58 5 discriminator 3 view .LVU103
 390              	.LBB9:
  58:../switch_sdk/core/yt/yt_l2.c **** 
 391              		.loc 1 58 5 discriminator 3 view .LVU104
 392 00ca 064B     		ldr	r3, .L41+8
 393 00cc 5A6C     		ldr	r2, [r3, #68]
 394 00ce 064B     		ldr	r3, .L41+12
 395 00d0 9968     		ldr	r1, [r3, #8]
 396 00d2 0648     		ldr	r0, .L41+16
 397 00d4 FFF7FEFF 		bl	osal_printf
 398              	.LVL37:
 399 00d8 F5E7     		b	.L29
 400              	.L42:
 401 00da 00BF     		.align	2
 402              	.L41:
 403 00dc 00000000 		.word	gpfal_dispatch
 404 00e0 00000000 		.word	yt_debug_level
 405 00e4 00000000 		.word	_yt_errmsg
 406 00e8 00000000 		.word	_yt_prompt_msg
 407 00ec 00000000 		.word	.LC0
 408              	.LBE9:
 409              		.cfi_endproc
 410              	.LFE4:
 412              		.section	.text.yt_l2_fdb_ucast_addr_add,"ax",%progbits
 413              		.align	1
 414              		.global	yt_l2_fdb_ucast_addr_add
 415              		.syntax unified
 416              		.thumb
 417              		.thumb_func
 419              	yt_l2_fdb_ucast_addr_add:
 420              	.LVL38:
 421              	.LFB5:
  62:../switch_sdk/core/yt/yt_l2.c **** 
  63:../switch_sdk/core/yt/yt_l2.c **** /**
  64:../switch_sdk/core/yt/yt_l2.c ****  * @internal      yt_l2_fdb_ucast_addr_add
  65:../switch_sdk/core/yt/yt_l2.c ****  * @endinternal
  66:../switch_sdk/core/yt/yt_l2.c ****  *
  67:../switch_sdk/core/yt/yt_l2.c ****  * @brief         Description
  68:../switch_sdk/core/yt/yt_l2.c ****  * @note          APPLICABLE DEVICES  -Tiger
  69:../switch_sdk/core/yt/yt_l2.c ****  * @param[in]     unit                -unit id
  70:../switch_sdk/core/yt/yt_l2.c ****  * @param[in]     vid                 -vlan id
  71:../switch_sdk/core/yt/yt_l2.c ****  * @param[in]     mac_addr            -yt_types.h
  72:../switch_sdk/core/yt/yt_l2.c ****  * @param[in]     port                -port num
  73:../switch_sdk/core/yt/yt_l2.c ****  * @param[in]     isLag               -yt_types.h
  74:../switch_sdk/core/yt/yt_l2.c ****  * @retval        CMM_ERR_OK          -on success
  75:../switch_sdk/core/yt/yt_l2.c ****  * @retval        CMM_ERR_FAIL        -on fail
  76:../switch_sdk/core/yt/yt_l2.c ****  */
  77:../switch_sdk/core/yt/yt_l2.c **** yt_ret_t  yt_l2_fdb_ucast_addr_add(yt_unit_t unit, yt_vlan_t vid, yt_mac_addr_t mac_addr, yt_port_t
  78:../switch_sdk/core/yt/yt_l2.c **** {
 422              		.loc 1 78 1 view -0
 423              		.cfi_startproc
 424              		@ args = 8, pretend = 0, frame = 8
 425              		@ frame_needed = 0, uses_anonymous_args = 0
 426              		.loc 1 78 1 is_stmt 0 view .LVU106
 427 0000 10B5     		push	{r4, lr}
 428              		.cfi_def_cfa_offset 8
 429              		.cfi_offset 4, -8
 430              		.cfi_offset 14, -4
 431 0002 84B0     		sub	sp, sp, #16
 432              		.cfi_def_cfa_offset 24
 433 0004 04AC     		add	r4, sp, #16
 434 0006 04E90C00 		stmdb	r4, {r2, r3}
 435 000a 9DF81C20 		ldrb	r2, [sp, #28]	@ zero_extendqisi2
  79:../switch_sdk/core/yt/yt_l2.c ****     CMM_PARAM_CHK((YT_UNIT_NUM <= unit), CMM_ERR_INPUT);
 436              		.loc 1 79 5 is_stmt 1 view .LVU107
 437              		.loc 1 79 5 view .LVU108
 438 000e 18BB     		cbnz	r0, .L57
 439 0010 8446     		mov	ip, r0
 440              		.loc 1 79 5 discriminator 2 view .LVU109
  80:../switch_sdk/core/yt/yt_l2.c ****     CMM_PARAM_CHK(NULL == YT_DISPATCH(unit), CMM_ERR_NOT_INIT);
 441              		.loc 1 80 5 discriminator 2 view .LVU110
 442              		.loc 1 80 5 discriminator 2 view .LVU111
 443 0012 344B     		ldr	r3, .L66
 444 0014 53F82030 		ldr	r3, [r3, r0, lsl #2]
 445 0018 002B     		cmp	r3, #0
 446 001a 2BD0     		beq	.L58
 447              		.loc 1 80 5 discriminator 2 view .LVU112
  81:../switch_sdk/core/yt/yt_l2.c ****     CMM_PARAM_CHK((!(YT_DISPATCH(unit)->is_inited)), CMM_ERR_NOT_INIT);
 448              		.loc 1 81 5 discriminator 2 view .LVU113
 449              		.loc 1 81 5 discriminator 2 view .LVU114
 450 001c 1878     		ldrb	r0, [r3]	@ zero_extendqisi2
 451              	.LVL39:
 452              		.loc 1 81 5 is_stmt 0 discriminator 2 view .LVU115
 453 001e 0028     		cmp	r0, #0
 454 0020 36D0     		beq	.L59
 455              		.loc 1 81 5 is_stmt 1 discriminator 2 view .LVU116
  82:../switch_sdk/core/yt/yt_l2.c ****     if(!isLag)
 456              		.loc 1 82 5 discriminator 2 view .LVU117
 457              		.loc 1 82 7 is_stmt 0 discriminator 2 view .LVU118
 458 0022 52B9     		cbnz	r2, .L51
  83:../switch_sdk/core/yt/yt_l2.c ****     {
  84:../switch_sdk/core/yt/yt_l2.c ****         CMM_PARAM_CHK((!(CMM_PORT_VALID(unit, port))), CMM_ERR_PORT);
 459              		.loc 1 84 9 is_stmt 1 view .LVU119
 460              		.loc 1 84 9 view .LVU120
 461 0024 3048     		ldr	r0, .L66+4
 462 0026 0078     		ldrb	r0, [r0]	@ zero_extendqisi2
 463 0028 0028     		cmp	r0, #0
 464 002a 3FD0     		beq	.L52
 465              		.loc 1 84 9 is_stmt 0 discriminator 2 view .LVU121
 466 002c 2F48     		ldr	r0, .L66+8
 467 002e 50F82C00 		ldr	r0, [r0, ip, lsl #2]
 468 0032 007D     		ldrb	r0, [r0, #20]	@ zero_extendqisi2
 469 0034 069C     		ldr	r4, [sp, #24]
 470 0036 A042     		cmp	r0, r4
 471 0038 38D9     		bls	.L52
 472              	.L51:
 473              		.loc 1 84 9 is_stmt 1 discriminator 4 view .LVU122
  85:../switch_sdk/core/yt/yt_l2.c ****     }
  86:../switch_sdk/core/yt/yt_l2.c ****     CMM_PARAM_CHK((YT_VLAN_ID_MAX < vid), CMM_ERR_EXCEED_RANGE);
 474              		.loc 1 86 5 discriminator 4 view .LVU123
 475              		.loc 1 86 5 discriminator 4 view .LVU124
 476 003a B1F5805F 		cmp	r1, #4096
 477 003e 43D2     		bcs	.L60
 478              		.loc 1 86 5 discriminator 2 view .LVU125
  87:../switch_sdk/core/yt/yt_l2.c **** 
  88:../switch_sdk/core/yt/yt_l2.c ****     return YT_DISPATCH(unit)->l2_fdb_ucast_addr_add(unit, vid, mac_addr, port, isLag);
 479              		.loc 1 88 5 discriminator 2 view .LVU126
 480              		.loc 1 88 29 is_stmt 0 discriminator 2 view .LVU127
 481 0040 D3F84443 		ldr	r4, [r3, #836]
 482              		.loc 1 88 12 discriminator 2 view .LVU128
 483 0044 0192     		str	r2, [sp, #4]
 484 0046 069B     		ldr	r3, [sp, #24]
 485 0048 0093     		str	r3, [sp]
 486 004a 04AB     		add	r3, sp, #16
 487 004c 13E90C00 		ldmdb	r3, {r2, r3}
 488 0050 6046     		mov	r0, ip
 489 0052 A047     		blx	r4
 490              	.LVL40:
 491              	.L43:
  89:../switch_sdk/core/yt/yt_l2.c **** }
 492              		.loc 1 89 1 view .LVU129
 493 0054 04B0     		add	sp, sp, #16
 494              		.cfi_remember_state
 495              		.cfi_def_cfa_offset 8
 496              		@ sp needed
 497 0056 10BD     		pop	{r4, pc}
 498              	.LVL41:
 499              	.L57:
 500              		.cfi_restore_state
  79:../switch_sdk/core/yt/yt_l2.c ****     CMM_PARAM_CHK(NULL == YT_DISPATCH(unit), CMM_ERR_NOT_INIT);
 501              		.loc 1 79 5 is_stmt 1 discriminator 1 view .LVU130
  79:../switch_sdk/core/yt/yt_l2.c ****     CMM_PARAM_CHK(NULL == YT_DISPATCH(unit), CMM_ERR_NOT_INIT);
 502              		.loc 1 79 5 discriminator 1 view .LVU131
 503 0058 254B     		ldr	r3, .L66+12
 504 005a 1B78     		ldrb	r3, [r3]	@ zero_extendqisi2
 505 005c 012B     		cmp	r3, #1
 506 005e 01D8     		bhi	.L61
 507              	.LVL42:
 508              	.L45:
  79:../switch_sdk/core/yt/yt_l2.c ****     CMM_PARAM_CHK(NULL == YT_DISPATCH(unit), CMM_ERR_NOT_INIT);
 509              		.loc 1 79 5 discriminator 5 view .LVU132
  79:../switch_sdk/core/yt/yt_l2.c ****     CMM_PARAM_CHK(NULL == YT_DISPATCH(unit), CMM_ERR_NOT_INIT);
 510              		.loc 1 79 5 discriminator 5 view .LVU133
  79:../switch_sdk/core/yt/yt_l2.c ****     CMM_PARAM_CHK(NULL == YT_DISPATCH(unit), CMM_ERR_NOT_INIT);
 511              		.loc 1 79 5 discriminator 5 view .LVU134
 512 0060 0520     		movs	r0, #5
 513 0062 F7E7     		b	.L43
 514              	.LVL43:
 515              	.L61:
  79:../switch_sdk/core/yt/yt_l2.c ****     CMM_PARAM_CHK(NULL == YT_DISPATCH(unit), CMM_ERR_NOT_INIT);
 516              		.loc 1 79 5 discriminator 3 view .LVU135
 517              	.LBB10:
  79:../switch_sdk/core/yt/yt_l2.c ****     CMM_PARAM_CHK(NULL == YT_DISPATCH(unit), CMM_ERR_NOT_INIT);
 518              		.loc 1 79 5 discriminator 3 view .LVU136
 519 0064 234B     		ldr	r3, .L66+16
 520 0066 5A69     		ldr	r2, [r3, #20]
 521 0068 234B     		ldr	r3, .L66+20
 522 006a 9968     		ldr	r1, [r3, #8]
 523              	.LVL44:
  79:../switch_sdk/core/yt/yt_l2.c ****     CMM_PARAM_CHK(NULL == YT_DISPATCH(unit), CMM_ERR_NOT_INIT);
 524              		.loc 1 79 5 is_stmt 0 discriminator 3 view .LVU137
 525 006c 2348     		ldr	r0, .L66+24
 526              	.LVL45:
  79:../switch_sdk/core/yt/yt_l2.c ****     CMM_PARAM_CHK(NULL == YT_DISPATCH(unit), CMM_ERR_NOT_INIT);
 527              		.loc 1 79 5 discriminator 3 view .LVU138
 528 006e FFF7FEFF 		bl	osal_printf
 529              	.LVL46:
 530 0072 F5E7     		b	.L45
 531              	.LVL47:
 532              	.L58:
  79:../switch_sdk/core/yt/yt_l2.c ****     CMM_PARAM_CHK(NULL == YT_DISPATCH(unit), CMM_ERR_NOT_INIT);
 533              		.loc 1 79 5 discriminator 3 view .LVU139
 534              	.LBE10:
  80:../switch_sdk/core/yt/yt_l2.c ****     CMM_PARAM_CHK((!(YT_DISPATCH(unit)->is_inited)), CMM_ERR_NOT_INIT);
 535              		.loc 1 80 5 is_stmt 1 discriminator 1 view .LVU140
  80:../switch_sdk/core/yt/yt_l2.c ****     CMM_PARAM_CHK((!(YT_DISPATCH(unit)->is_inited)), CMM_ERR_NOT_INIT);
 536              		.loc 1 80 5 discriminator 1 view .LVU141
 537 0074 1E4B     		ldr	r3, .L66+12
 538 0076 1B78     		ldrb	r3, [r3]	@ zero_extendqisi2
 539 0078 012B     		cmp	r3, #1
 540 007a 01D8     		bhi	.L62
 541              	.LVL48:
 542              	.L48:
  80:../switch_sdk/core/yt/yt_l2.c ****     CMM_PARAM_CHK((!(YT_DISPATCH(unit)->is_inited)), CMM_ERR_NOT_INIT);
 543              		.loc 1 80 5 discriminator 5 view .LVU142
  80:../switch_sdk/core/yt/yt_l2.c ****     CMM_PARAM_CHK((!(YT_DISPATCH(unit)->is_inited)), CMM_ERR_NOT_INIT);
 544              		.loc 1 80 5 discriminator 5 view .LVU143
  80:../switch_sdk/core/yt/yt_l2.c ****     CMM_PARAM_CHK((!(YT_DISPATCH(unit)->is_inited)), CMM_ERR_NOT_INIT);
 545              		.loc 1 80 5 discriminator 5 view .LVU144
 546 007c 0420     		movs	r0, #4
 547 007e E9E7     		b	.L43
 548              	.LVL49:
 549              	.L62:
  80:../switch_sdk/core/yt/yt_l2.c ****     CMM_PARAM_CHK((!(YT_DISPATCH(unit)->is_inited)), CMM_ERR_NOT_INIT);
 550              		.loc 1 80 5 discriminator 3 view .LVU145
 551              	.LBB11:
  80:../switch_sdk/core/yt/yt_l2.c ****     CMM_PARAM_CHK((!(YT_DISPATCH(unit)->is_inited)), CMM_ERR_NOT_INIT);
 552              		.loc 1 80 5 discriminator 3 view .LVU146
 553 0080 1C4B     		ldr	r3, .L66+16
 554 0082 1A69     		ldr	r2, [r3, #16]
 555 0084 1C4B     		ldr	r3, .L66+20
 556 0086 9968     		ldr	r1, [r3, #8]
 557              	.LVL50:
  80:../switch_sdk/core/yt/yt_l2.c ****     CMM_PARAM_CHK((!(YT_DISPATCH(unit)->is_inited)), CMM_ERR_NOT_INIT);
 558              		.loc 1 80 5 is_stmt 0 discriminator 3 view .LVU147
 559 0088 1C48     		ldr	r0, .L66+24
 560              	.LVL51:
  80:../switch_sdk/core/yt/yt_l2.c ****     CMM_PARAM_CHK((!(YT_DISPATCH(unit)->is_inited)), CMM_ERR_NOT_INIT);
 561              		.loc 1 80 5 discriminator 3 view .LVU148
 562 008a FFF7FEFF 		bl	osal_printf
 563              	.LVL52:
 564 008e F5E7     		b	.L48
 565              	.LVL53:
 566              	.L59:
  80:../switch_sdk/core/yt/yt_l2.c ****     CMM_PARAM_CHK((!(YT_DISPATCH(unit)->is_inited)), CMM_ERR_NOT_INIT);
 567              		.loc 1 80 5 discriminator 3 view .LVU149
 568              	.LBE11:
  81:../switch_sdk/core/yt/yt_l2.c ****     if(!isLag)
 569              		.loc 1 81 5 is_stmt 1 discriminator 1 view .LVU150
  81:../switch_sdk/core/yt/yt_l2.c ****     if(!isLag)
 570              		.loc 1 81 5 discriminator 1 view .LVU151
 571 0090 174B     		ldr	r3, .L66+12
 572 0092 1B78     		ldrb	r3, [r3]	@ zero_extendqisi2
 573 0094 012B     		cmp	r3, #1
 574 0096 01D8     		bhi	.L63
 575              	.LVL54:
 576              	.L50:
  81:../switch_sdk/core/yt/yt_l2.c ****     if(!isLag)
 577              		.loc 1 81 5 discriminator 5 view .LVU152
  81:../switch_sdk/core/yt/yt_l2.c ****     if(!isLag)
 578              		.loc 1 81 5 discriminator 5 view .LVU153
  81:../switch_sdk/core/yt/yt_l2.c ****     if(!isLag)
 579              		.loc 1 81 5 discriminator 5 view .LVU154
 580 0098 0420     		movs	r0, #4
 581 009a DBE7     		b	.L43
 582              	.LVL55:
 583              	.L63:
  81:../switch_sdk/core/yt/yt_l2.c ****     if(!isLag)
 584              		.loc 1 81 5 discriminator 3 view .LVU155
 585              	.LBB12:
  81:../switch_sdk/core/yt/yt_l2.c ****     if(!isLag)
 586              		.loc 1 81 5 discriminator 3 view .LVU156
 587 009c 154B     		ldr	r3, .L66+16
 588 009e 1A69     		ldr	r2, [r3, #16]
 589 00a0 154B     		ldr	r3, .L66+20
 590 00a2 9968     		ldr	r1, [r3, #8]
 591              	.LVL56:
  81:../switch_sdk/core/yt/yt_l2.c ****     if(!isLag)
 592              		.loc 1 81 5 is_stmt 0 discriminator 3 view .LVU157
 593 00a4 1548     		ldr	r0, .L66+24
 594 00a6 FFF7FEFF 		bl	osal_printf
 595              	.LVL57:
 596 00aa F5E7     		b	.L50
 597              	.LVL58:
 598              	.L52:
  81:../switch_sdk/core/yt/yt_l2.c ****     if(!isLag)
 599              		.loc 1 81 5 discriminator 3 view .LVU158
 600              	.LBE12:
  84:../switch_sdk/core/yt/yt_l2.c ****     }
 601              		.loc 1 84 9 is_stmt 1 discriminator 3 view .LVU159
  84:../switch_sdk/core/yt/yt_l2.c ****     }
 602              		.loc 1 84 9 discriminator 3 view .LVU160
 603 00ac 104B     		ldr	r3, .L66+12
 604 00ae 1B78     		ldrb	r3, [r3]	@ zero_extendqisi2
 605 00b0 012B     		cmp	r3, #1
 606 00b2 01D8     		bhi	.L64
 607              	.LVL59:
 608              	.L53:
  84:../switch_sdk/core/yt/yt_l2.c ****     }
 609              		.loc 1 84 9 discriminator 7 view .LVU161
  84:../switch_sdk/core/yt/yt_l2.c ****     }
 610              		.loc 1 84 9 discriminator 7 view .LVU162
  84:../switch_sdk/core/yt/yt_l2.c ****     }
 611              		.loc 1 84 9 discriminator 7 view .LVU163
 612 00b4 0E20     		movs	r0, #14
 613 00b6 CDE7     		b	.L43
 614              	.LVL60:
 615              	.L64:
  84:../switch_sdk/core/yt/yt_l2.c ****     }
 616              		.loc 1 84 9 discriminator 5 view .LVU164
 617              	.LBB13:
  84:../switch_sdk/core/yt/yt_l2.c ****     }
 618              		.loc 1 84 9 discriminator 5 view .LVU165
 619 00b8 0E4B     		ldr	r3, .L66+16
 620 00ba 9A6B     		ldr	r2, [r3, #56]
 621 00bc 0E4B     		ldr	r3, .L66+20
 622 00be 9968     		ldr	r1, [r3, #8]
 623              	.LVL61:
  84:../switch_sdk/core/yt/yt_l2.c ****     }
 624              		.loc 1 84 9 is_stmt 0 discriminator 5 view .LVU166
 625 00c0 0E48     		ldr	r0, .L66+24
 626 00c2 FFF7FEFF 		bl	osal_printf
 627              	.LVL62:
 628 00c6 F5E7     		b	.L53
 629              	.LVL63:
 630              	.L60:
  84:../switch_sdk/core/yt/yt_l2.c ****     }
 631              		.loc 1 84 9 discriminator 5 view .LVU167
 632              	.LBE13:
  86:../switch_sdk/core/yt/yt_l2.c **** 
 633              		.loc 1 86 5 is_stmt 1 discriminator 1 view .LVU168
  86:../switch_sdk/core/yt/yt_l2.c **** 
 634              		.loc 1 86 5 discriminator 1 view .LVU169
 635 00c8 094B     		ldr	r3, .L66+12
 636 00ca 1B78     		ldrb	r3, [r3]	@ zero_extendqisi2
 637 00cc 012B     		cmp	r3, #1
 638 00ce 01D8     		bhi	.L65
 639              	.LVL64:
 640              	.L55:
  86:../switch_sdk/core/yt/yt_l2.c **** 
 641              		.loc 1 86 5 discriminator 5 view .LVU170
  86:../switch_sdk/core/yt/yt_l2.c **** 
 642              		.loc 1 86 5 discriminator 5 view .LVU171
  86:../switch_sdk/core/yt/yt_l2.c **** 
 643              		.loc 1 86 5 discriminator 5 view .LVU172
 644 00d0 1120     		movs	r0, #17
 645 00d2 BFE7     		b	.L43
 646              	.LVL65:
 647              	.L65:
  86:../switch_sdk/core/yt/yt_l2.c **** 
 648              		.loc 1 86 5 discriminator 3 view .LVU173
 649              	.LBB14:
  86:../switch_sdk/core/yt/yt_l2.c **** 
 650              		.loc 1 86 5 discriminator 3 view .LVU174
 651 00d4 074B     		ldr	r3, .L66+16
 652 00d6 5A6C     		ldr	r2, [r3, #68]
 653 00d8 074B     		ldr	r3, .L66+20
 654 00da 9968     		ldr	r1, [r3, #8]
 655              	.LVL66:
  86:../switch_sdk/core/yt/yt_l2.c **** 
 656              		.loc 1 86 5 is_stmt 0 discriminator 3 view .LVU175
 657 00dc 0748     		ldr	r0, .L66+24
 658 00de FFF7FEFF 		bl	osal_printf
 659              	.LVL67:
 660 00e2 F5E7     		b	.L55
 661              	.L67:
 662              		.align	2
 663              	.L66:
 664 00e4 00000000 		.word	gpfal_dispatch
 665 00e8 00000000 		.word	gcal_inited
 666 00ec 00000000 		.word	gpSwitchUnit
 667 00f0 00000000 		.word	yt_debug_level
 668 00f4 00000000 		.word	_yt_errmsg
 669 00f8 00000000 		.word	_yt_prompt_msg
 670 00fc 00000000 		.word	.LC0
 671              	.LBE14:
 672              		.cfi_endproc
 673              	.LFE5:
 675              		.section	.text.yt_l2_fdb_ucast_addr_add_dynamic,"ax",%progbits
 676              		.align	1
 677              		.global	yt_l2_fdb_ucast_addr_add_dynamic
 678              		.syntax unified
 679              		.thumb
 680              		.thumb_func
 682              	yt_l2_fdb_ucast_addr_add_dynamic:
 683              	.LVL68:
 684              	.LFB6:
  90:../switch_sdk/core/yt/yt_l2.c **** 
  91:../switch_sdk/core/yt/yt_l2.c **** /**
  92:../switch_sdk/core/yt/yt_l2.c ****  * @internal      yt_l2_fdb_ucast_addr_add_dynamic
  93:../switch_sdk/core/yt/yt_l2.c ****  * @endinternal
  94:../switch_sdk/core/yt/yt_l2.c ****  *
  95:../switch_sdk/core/yt/yt_l2.c ****  * @brief         add l2 dynamic fdb table
  96:../switch_sdk/core/yt/yt_l2.c ****  * @note          APPLICABLE DEVICES  -Tiger
  97:../switch_sdk/core/yt/yt_l2.c ****  * @param[in]     unit                -unit id
  98:../switch_sdk/core/yt/yt_l2.c ****  * @param[in]     vid                 -vlan id
  99:../switch_sdk/core/yt/yt_l2.c ****  * @param[in]     mac_addr            -yt_types.h
 100:../switch_sdk/core/yt/yt_l2.c ****  * @param[in]     port                -port num
 101:../switch_sdk/core/yt/yt_l2.c ****  * @param[in]     isLag               -yt_types.h
 102:../switch_sdk/core/yt/yt_l2.c ****  * @retval        CMM_ERR_OK          -on success
 103:../switch_sdk/core/yt/yt_l2.c ****  * @retval        CMM_ERR_FAIL        -on fail
 104:../switch_sdk/core/yt/yt_l2.c ****  */
 105:../switch_sdk/core/yt/yt_l2.c **** yt_ret_t  yt_l2_fdb_ucast_addr_add_dynamic(yt_unit_t unit, yt_vlan_t vid, yt_mac_addr_t mac_addr, y
 106:../switch_sdk/core/yt/yt_l2.c **** {
 685              		.loc 1 106 1 is_stmt 1 view -0
 686              		.cfi_startproc
 687              		@ args = 8, pretend = 0, frame = 8
 688              		@ frame_needed = 0, uses_anonymous_args = 0
 689              		.loc 1 106 1 is_stmt 0 view .LVU177
 690 0000 10B5     		push	{r4, lr}
 691              		.cfi_def_cfa_offset 8
 692              		.cfi_offset 4, -8
 693              		.cfi_offset 14, -4
 694 0002 84B0     		sub	sp, sp, #16
 695              		.cfi_def_cfa_offset 24
 696 0004 04AC     		add	r4, sp, #16
 697 0006 04E90C00 		stmdb	r4, {r2, r3}
 698 000a 9DF81C20 		ldrb	r2, [sp, #28]	@ zero_extendqisi2
 107:../switch_sdk/core/yt/yt_l2.c ****     CMM_PARAM_CHK((YT_UNIT_NUM <= unit), CMM_ERR_INPUT);
 699              		.loc 1 107 5 is_stmt 1 view .LVU178
 700              		.loc 1 107 5 view .LVU179
 701 000e 18BB     		cbnz	r0, .L82
 702 0010 8446     		mov	ip, r0
 703              		.loc 1 107 5 discriminator 2 view .LVU180
 108:../switch_sdk/core/yt/yt_l2.c ****     CMM_PARAM_CHK(NULL == YT_DISPATCH(unit), CMM_ERR_NOT_INIT);
 704              		.loc 1 108 5 discriminator 2 view .LVU181
 705              		.loc 1 108 5 discriminator 2 view .LVU182
 706 0012 344B     		ldr	r3, .L91
 707 0014 53F82030 		ldr	r3, [r3, r0, lsl #2]
 708 0018 002B     		cmp	r3, #0
 709 001a 2BD0     		beq	.L83
 710              		.loc 1 108 5 discriminator 2 view .LVU183
 109:../switch_sdk/core/yt/yt_l2.c ****     CMM_PARAM_CHK((!(YT_DISPATCH(unit)->is_inited)), CMM_ERR_NOT_INIT);
 711              		.loc 1 109 5 discriminator 2 view .LVU184
 712              		.loc 1 109 5 discriminator 2 view .LVU185
 713 001c 1878     		ldrb	r0, [r3]	@ zero_extendqisi2
 714              	.LVL69:
 715              		.loc 1 109 5 is_stmt 0 discriminator 2 view .LVU186
 716 001e 0028     		cmp	r0, #0
 717 0020 36D0     		beq	.L84
 718              		.loc 1 109 5 is_stmt 1 discriminator 2 view .LVU187
 110:../switch_sdk/core/yt/yt_l2.c ****     if(!isLag)
 719              		.loc 1 110 5 discriminator 2 view .LVU188
 720              		.loc 1 110 7 is_stmt 0 discriminator 2 view .LVU189
 721 0022 52B9     		cbnz	r2, .L76
 111:../switch_sdk/core/yt/yt_l2.c ****     {
 112:../switch_sdk/core/yt/yt_l2.c ****         CMM_PARAM_CHK((!(CMM_PORT_VALID(unit, port))), CMM_ERR_PORT);
 722              		.loc 1 112 9 is_stmt 1 view .LVU190
 723              		.loc 1 112 9 view .LVU191
 724 0024 3048     		ldr	r0, .L91+4
 725 0026 0078     		ldrb	r0, [r0]	@ zero_extendqisi2
 726 0028 0028     		cmp	r0, #0
 727 002a 3FD0     		beq	.L77
 728              		.loc 1 112 9 is_stmt 0 discriminator 2 view .LVU192
 729 002c 2F48     		ldr	r0, .L91+8
 730 002e 50F82C00 		ldr	r0, [r0, ip, lsl #2]
 731 0032 007D     		ldrb	r0, [r0, #20]	@ zero_extendqisi2
 732 0034 069C     		ldr	r4, [sp, #24]
 733 0036 A042     		cmp	r0, r4
 734 0038 38D9     		bls	.L77
 735              	.L76:
 736              		.loc 1 112 9 is_stmt 1 discriminator 4 view .LVU193
 113:../switch_sdk/core/yt/yt_l2.c ****     }
 114:../switch_sdk/core/yt/yt_l2.c ****     CMM_PARAM_CHK((YT_VLAN_ID_MAX < vid), CMM_ERR_EXCEED_RANGE);
 737              		.loc 1 114 5 discriminator 4 view .LVU194
 738              		.loc 1 114 5 discriminator 4 view .LVU195
 739 003a B1F5805F 		cmp	r1, #4096
 740 003e 43D2     		bcs	.L85
 741              		.loc 1 114 5 discriminator 2 view .LVU196
 115:../switch_sdk/core/yt/yt_l2.c **** 
 116:../switch_sdk/core/yt/yt_l2.c ****     return YT_DISPATCH(unit)->l2_fdb_ucast_addr_add_dynamic(unit, vid, mac_addr, port, isLag);
 742              		.loc 1 116 5 discriminator 2 view .LVU197
 743              		.loc 1 116 29 is_stmt 0 discriminator 2 view .LVU198
 744 0040 D3F84843 		ldr	r4, [r3, #840]
 745              		.loc 1 116 12 discriminator 2 view .LVU199
 746 0044 0192     		str	r2, [sp, #4]
 747 0046 069B     		ldr	r3, [sp, #24]
 748 0048 0093     		str	r3, [sp]
 749 004a 04AB     		add	r3, sp, #16
 750 004c 13E90C00 		ldmdb	r3, {r2, r3}
 751 0050 6046     		mov	r0, ip
 752 0052 A047     		blx	r4
 753              	.LVL70:
 754              	.L68:
 117:../switch_sdk/core/yt/yt_l2.c **** }
 755              		.loc 1 117 1 view .LVU200
 756 0054 04B0     		add	sp, sp, #16
 757              		.cfi_remember_state
 758              		.cfi_def_cfa_offset 8
 759              		@ sp needed
 760 0056 10BD     		pop	{r4, pc}
 761              	.LVL71:
 762              	.L82:
 763              		.cfi_restore_state
 107:../switch_sdk/core/yt/yt_l2.c ****     CMM_PARAM_CHK(NULL == YT_DISPATCH(unit), CMM_ERR_NOT_INIT);
 764              		.loc 1 107 5 is_stmt 1 discriminator 1 view .LVU201
 107:../switch_sdk/core/yt/yt_l2.c ****     CMM_PARAM_CHK(NULL == YT_DISPATCH(unit), CMM_ERR_NOT_INIT);
 765              		.loc 1 107 5 discriminator 1 view .LVU202
 766 0058 254B     		ldr	r3, .L91+12
 767 005a 1B78     		ldrb	r3, [r3]	@ zero_extendqisi2
 768 005c 012B     		cmp	r3, #1
 769 005e 01D8     		bhi	.L86
 770              	.LVL72:
 771              	.L70:
 107:../switch_sdk/core/yt/yt_l2.c ****     CMM_PARAM_CHK(NULL == YT_DISPATCH(unit), CMM_ERR_NOT_INIT);
 772              		.loc 1 107 5 discriminator 5 view .LVU203
 107:../switch_sdk/core/yt/yt_l2.c ****     CMM_PARAM_CHK(NULL == YT_DISPATCH(unit), CMM_ERR_NOT_INIT);
 773              		.loc 1 107 5 discriminator 5 view .LVU204
 107:../switch_sdk/core/yt/yt_l2.c ****     CMM_PARAM_CHK(NULL == YT_DISPATCH(unit), CMM_ERR_NOT_INIT);
 774              		.loc 1 107 5 discriminator 5 view .LVU205
 775 0060 0520     		movs	r0, #5
 776 0062 F7E7     		b	.L68
 777              	.LVL73:
 778              	.L86:
 107:../switch_sdk/core/yt/yt_l2.c ****     CMM_PARAM_CHK(NULL == YT_DISPATCH(unit), CMM_ERR_NOT_INIT);
 779              		.loc 1 107 5 discriminator 3 view .LVU206
 780              	.LBB15:
 107:../switch_sdk/core/yt/yt_l2.c ****     CMM_PARAM_CHK(NULL == YT_DISPATCH(unit), CMM_ERR_NOT_INIT);
 781              		.loc 1 107 5 discriminator 3 view .LVU207
 782 0064 234B     		ldr	r3, .L91+16
 783 0066 5A69     		ldr	r2, [r3, #20]
 784 0068 234B     		ldr	r3, .L91+20
 785 006a 9968     		ldr	r1, [r3, #8]
 786              	.LVL74:
 107:../switch_sdk/core/yt/yt_l2.c ****     CMM_PARAM_CHK(NULL == YT_DISPATCH(unit), CMM_ERR_NOT_INIT);
 787              		.loc 1 107 5 is_stmt 0 discriminator 3 view .LVU208
 788 006c 2348     		ldr	r0, .L91+24
 789              	.LVL75:
 107:../switch_sdk/core/yt/yt_l2.c ****     CMM_PARAM_CHK(NULL == YT_DISPATCH(unit), CMM_ERR_NOT_INIT);
 790              		.loc 1 107 5 discriminator 3 view .LVU209
 791 006e FFF7FEFF 		bl	osal_printf
 792              	.LVL76:
 793 0072 F5E7     		b	.L70
 794              	.LVL77:
 795              	.L83:
 107:../switch_sdk/core/yt/yt_l2.c ****     CMM_PARAM_CHK(NULL == YT_DISPATCH(unit), CMM_ERR_NOT_INIT);
 796              		.loc 1 107 5 discriminator 3 view .LVU210
 797              	.LBE15:
 108:../switch_sdk/core/yt/yt_l2.c ****     CMM_PARAM_CHK((!(YT_DISPATCH(unit)->is_inited)), CMM_ERR_NOT_INIT);
 798              		.loc 1 108 5 is_stmt 1 discriminator 1 view .LVU211
 108:../switch_sdk/core/yt/yt_l2.c ****     CMM_PARAM_CHK((!(YT_DISPATCH(unit)->is_inited)), CMM_ERR_NOT_INIT);
 799              		.loc 1 108 5 discriminator 1 view .LVU212
 800 0074 1E4B     		ldr	r3, .L91+12
 801 0076 1B78     		ldrb	r3, [r3]	@ zero_extendqisi2
 802 0078 012B     		cmp	r3, #1
 803 007a 01D8     		bhi	.L87
 804              	.LVL78:
 805              	.L73:
 108:../switch_sdk/core/yt/yt_l2.c ****     CMM_PARAM_CHK((!(YT_DISPATCH(unit)->is_inited)), CMM_ERR_NOT_INIT);
 806              		.loc 1 108 5 discriminator 5 view .LVU213
 108:../switch_sdk/core/yt/yt_l2.c ****     CMM_PARAM_CHK((!(YT_DISPATCH(unit)->is_inited)), CMM_ERR_NOT_INIT);
 807              		.loc 1 108 5 discriminator 5 view .LVU214
 108:../switch_sdk/core/yt/yt_l2.c ****     CMM_PARAM_CHK((!(YT_DISPATCH(unit)->is_inited)), CMM_ERR_NOT_INIT);
 808              		.loc 1 108 5 discriminator 5 view .LVU215
 809 007c 0420     		movs	r0, #4
 810 007e E9E7     		b	.L68
 811              	.LVL79:
 812              	.L87:
 108:../switch_sdk/core/yt/yt_l2.c ****     CMM_PARAM_CHK((!(YT_DISPATCH(unit)->is_inited)), CMM_ERR_NOT_INIT);
 813              		.loc 1 108 5 discriminator 3 view .LVU216
 814              	.LBB16:
 108:../switch_sdk/core/yt/yt_l2.c ****     CMM_PARAM_CHK((!(YT_DISPATCH(unit)->is_inited)), CMM_ERR_NOT_INIT);
 815              		.loc 1 108 5 discriminator 3 view .LVU217
 816 0080 1C4B     		ldr	r3, .L91+16
 817 0082 1A69     		ldr	r2, [r3, #16]
 818 0084 1C4B     		ldr	r3, .L91+20
 819 0086 9968     		ldr	r1, [r3, #8]
 820              	.LVL80:
 108:../switch_sdk/core/yt/yt_l2.c ****     CMM_PARAM_CHK((!(YT_DISPATCH(unit)->is_inited)), CMM_ERR_NOT_INIT);
 821              		.loc 1 108 5 is_stmt 0 discriminator 3 view .LVU218
 822 0088 1C48     		ldr	r0, .L91+24
 823              	.LVL81:
 108:../switch_sdk/core/yt/yt_l2.c ****     CMM_PARAM_CHK((!(YT_DISPATCH(unit)->is_inited)), CMM_ERR_NOT_INIT);
 824              		.loc 1 108 5 discriminator 3 view .LVU219
 825 008a FFF7FEFF 		bl	osal_printf
 826              	.LVL82:
 827 008e F5E7     		b	.L73
 828              	.LVL83:
 829              	.L84:
 108:../switch_sdk/core/yt/yt_l2.c ****     CMM_PARAM_CHK((!(YT_DISPATCH(unit)->is_inited)), CMM_ERR_NOT_INIT);
 830              		.loc 1 108 5 discriminator 3 view .LVU220
 831              	.LBE16:
 109:../switch_sdk/core/yt/yt_l2.c ****     if(!isLag)
 832              		.loc 1 109 5 is_stmt 1 discriminator 1 view .LVU221
 109:../switch_sdk/core/yt/yt_l2.c ****     if(!isLag)
 833              		.loc 1 109 5 discriminator 1 view .LVU222
 834 0090 174B     		ldr	r3, .L91+12
 835 0092 1B78     		ldrb	r3, [r3]	@ zero_extendqisi2
 836 0094 012B     		cmp	r3, #1
 837 0096 01D8     		bhi	.L88
 838              	.LVL84:
 839              	.L75:
 109:../switch_sdk/core/yt/yt_l2.c ****     if(!isLag)
 840              		.loc 1 109 5 discriminator 5 view .LVU223
 109:../switch_sdk/core/yt/yt_l2.c ****     if(!isLag)
 841              		.loc 1 109 5 discriminator 5 view .LVU224
 109:../switch_sdk/core/yt/yt_l2.c ****     if(!isLag)
 842              		.loc 1 109 5 discriminator 5 view .LVU225
 843 0098 0420     		movs	r0, #4
 844 009a DBE7     		b	.L68
 845              	.LVL85:
 846              	.L88:
 109:../switch_sdk/core/yt/yt_l2.c ****     if(!isLag)
 847              		.loc 1 109 5 discriminator 3 view .LVU226
 848              	.LBB17:
 109:../switch_sdk/core/yt/yt_l2.c ****     if(!isLag)
 849              		.loc 1 109 5 discriminator 3 view .LVU227
 850 009c 154B     		ldr	r3, .L91+16
 851 009e 1A69     		ldr	r2, [r3, #16]
 852 00a0 154B     		ldr	r3, .L91+20
 853 00a2 9968     		ldr	r1, [r3, #8]
 854              	.LVL86:
 109:../switch_sdk/core/yt/yt_l2.c ****     if(!isLag)
 855              		.loc 1 109 5 is_stmt 0 discriminator 3 view .LVU228
 856 00a4 1548     		ldr	r0, .L91+24
 857 00a6 FFF7FEFF 		bl	osal_printf
 858              	.LVL87:
 859 00aa F5E7     		b	.L75
 860              	.LVL88:
 861              	.L77:
 109:../switch_sdk/core/yt/yt_l2.c ****     if(!isLag)
 862              		.loc 1 109 5 discriminator 3 view .LVU229
 863              	.LBE17:
 112:../switch_sdk/core/yt/yt_l2.c ****     }
 864              		.loc 1 112 9 is_stmt 1 discriminator 3 view .LVU230
 112:../switch_sdk/core/yt/yt_l2.c ****     }
 865              		.loc 1 112 9 discriminator 3 view .LVU231
 866 00ac 104B     		ldr	r3, .L91+12
 867 00ae 1B78     		ldrb	r3, [r3]	@ zero_extendqisi2
 868 00b0 012B     		cmp	r3, #1
 869 00b2 01D8     		bhi	.L89
 870              	.LVL89:
 871              	.L78:
 112:../switch_sdk/core/yt/yt_l2.c ****     }
 872              		.loc 1 112 9 discriminator 7 view .LVU232
 112:../switch_sdk/core/yt/yt_l2.c ****     }
 873              		.loc 1 112 9 discriminator 7 view .LVU233
 112:../switch_sdk/core/yt/yt_l2.c ****     }
 874              		.loc 1 112 9 discriminator 7 view .LVU234
 875 00b4 0E20     		movs	r0, #14
 876 00b6 CDE7     		b	.L68
 877              	.LVL90:
 878              	.L89:
 112:../switch_sdk/core/yt/yt_l2.c ****     }
 879              		.loc 1 112 9 discriminator 5 view .LVU235
 880              	.LBB18:
 112:../switch_sdk/core/yt/yt_l2.c ****     }
 881              		.loc 1 112 9 discriminator 5 view .LVU236
 882 00b8 0E4B     		ldr	r3, .L91+16
 883 00ba 9A6B     		ldr	r2, [r3, #56]
 884 00bc 0E4B     		ldr	r3, .L91+20
 885 00be 9968     		ldr	r1, [r3, #8]
 886              	.LVL91:
 112:../switch_sdk/core/yt/yt_l2.c ****     }
 887              		.loc 1 112 9 is_stmt 0 discriminator 5 view .LVU237
 888 00c0 0E48     		ldr	r0, .L91+24
 889 00c2 FFF7FEFF 		bl	osal_printf
 890              	.LVL92:
 891 00c6 F5E7     		b	.L78
 892              	.LVL93:
 893              	.L85:
 112:../switch_sdk/core/yt/yt_l2.c ****     }
 894              		.loc 1 112 9 discriminator 5 view .LVU238
 895              	.LBE18:
 114:../switch_sdk/core/yt/yt_l2.c **** 
 896              		.loc 1 114 5 is_stmt 1 discriminator 1 view .LVU239
 114:../switch_sdk/core/yt/yt_l2.c **** 
 897              		.loc 1 114 5 discriminator 1 view .LVU240
 898 00c8 094B     		ldr	r3, .L91+12
 899 00ca 1B78     		ldrb	r3, [r3]	@ zero_extendqisi2
 900 00cc 012B     		cmp	r3, #1
 901 00ce 01D8     		bhi	.L90
 902              	.LVL94:
 903              	.L80:
 114:../switch_sdk/core/yt/yt_l2.c **** 
 904              		.loc 1 114 5 discriminator 5 view .LVU241
 114:../switch_sdk/core/yt/yt_l2.c **** 
 905              		.loc 1 114 5 discriminator 5 view .LVU242
 114:../switch_sdk/core/yt/yt_l2.c **** 
 906              		.loc 1 114 5 discriminator 5 view .LVU243
 907 00d0 1120     		movs	r0, #17
 908 00d2 BFE7     		b	.L68
 909              	.LVL95:
 910              	.L90:
 114:../switch_sdk/core/yt/yt_l2.c **** 
 911              		.loc 1 114 5 discriminator 3 view .LVU244
 912              	.LBB19:
 114:../switch_sdk/core/yt/yt_l2.c **** 
 913              		.loc 1 114 5 discriminator 3 view .LVU245
 914 00d4 074B     		ldr	r3, .L91+16
 915 00d6 5A6C     		ldr	r2, [r3, #68]
 916 00d8 074B     		ldr	r3, .L91+20
 917 00da 9968     		ldr	r1, [r3, #8]
 918              	.LVL96:
 114:../switch_sdk/core/yt/yt_l2.c **** 
 919              		.loc 1 114 5 is_stmt 0 discriminator 3 view .LVU246
 920 00dc 0748     		ldr	r0, .L91+24
 921 00de FFF7FEFF 		bl	osal_printf
 922              	.LVL97:
 923 00e2 F5E7     		b	.L80
 924              	.L92:
 925              		.align	2
 926              	.L91:
 927 00e4 00000000 		.word	gpfal_dispatch
 928 00e8 00000000 		.word	gcal_inited
 929 00ec 00000000 		.word	gpSwitchUnit
 930 00f0 00000000 		.word	yt_debug_level
 931 00f4 00000000 		.word	_yt_errmsg
 932 00f8 00000000 		.word	_yt_prompt_msg
 933 00fc 00000000 		.word	.LC0
 934              	.LBE19:
 935              		.cfi_endproc
 936              	.LFE6:
 938              		.section	.text.yt_l2_fdb_ucast_addr_del,"ax",%progbits
 939              		.align	1
 940              		.global	yt_l2_fdb_ucast_addr_del
 941              		.syntax unified
 942              		.thumb
 943              		.thumb_func
 945              	yt_l2_fdb_ucast_addr_del:
 946              	.LVL98:
 947              	.LFB7:
 118:../switch_sdk/core/yt/yt_l2.c **** 
 119:../switch_sdk/core/yt/yt_l2.c **** /**
 120:../switch_sdk/core/yt/yt_l2.c ****  * @internal      yt_l2_fdb_ucast_addr_del
 121:../switch_sdk/core/yt/yt_l2.c ****  * @endinternal
 122:../switch_sdk/core/yt/yt_l2.c ****  *
 123:../switch_sdk/core/yt/yt_l2.c ****  * @brief         Description
 124:../switch_sdk/core/yt/yt_l2.c ****  * @note          APPLICABLE DEVICES  -Tiger
 125:../switch_sdk/core/yt/yt_l2.c ****  * @param[in]     unit                -unit id
 126:../switch_sdk/core/yt/yt_l2.c ****  * @param[in]     vid                 -vlan id
 127:../switch_sdk/core/yt/yt_l2.c ****  * @param[in]     mac_addr            -yt_types.h
 128:../switch_sdk/core/yt/yt_l2.c ****  * @retval        CMM_ERR_OK          -on success
 129:../switch_sdk/core/yt/yt_l2.c ****  * @retval        CMM_ERR_FAIL        -on fail
 130:../switch_sdk/core/yt/yt_l2.c ****  */
 131:../switch_sdk/core/yt/yt_l2.c **** yt_ret_t  yt_l2_fdb_ucast_addr_del(yt_unit_t unit, yt_vlan_t vid, yt_mac_addr_t mac_addr)
 132:../switch_sdk/core/yt/yt_l2.c **** {
 948              		.loc 1 132 1 is_stmt 1 view -0
 949              		.cfi_startproc
 950              		@ args = 0, pretend = 0, frame = 8
 951              		@ frame_needed = 0, uses_anonymous_args = 0
 952              		.loc 1 132 1 is_stmt 0 view .LVU248
 953 0000 10B5     		push	{r4, lr}
 954              		.cfi_def_cfa_offset 8
 955              		.cfi_offset 4, -8
 956              		.cfi_offset 14, -4
 957 0002 82B0     		sub	sp, sp, #8
 958              		.cfi_def_cfa_offset 16
 959 0004 02AC     		add	r4, sp, #8
 960 0006 04E90C00 		stmdb	r4, {r2, r3}
 133:../switch_sdk/core/yt/yt_l2.c ****     CMM_PARAM_CHK((YT_UNIT_NUM <= unit), CMM_ERR_INPUT);
 961              		.loc 1 133 5 is_stmt 1 view .LVU249
 962              		.loc 1 133 5 view .LVU250
 963 000a 80B9     		cbnz	r0, .L104
 964              		.loc 1 133 5 discriminator 2 view .LVU251
 134:../switch_sdk/core/yt/yt_l2.c ****     CMM_PARAM_CHK(NULL == YT_DISPATCH(unit), CMM_ERR_NOT_INIT);
 965              		.loc 1 134 5 discriminator 2 view .LVU252
 966              		.loc 1 134 5 discriminator 2 view .LVU253
 967 000c 244B     		ldr	r3, .L112
 968 000e 53F82030 		ldr	r3, [r3, r0, lsl #2]
 969 0012 D3B1     		cbz	r3, .L105
 970              		.loc 1 134 5 discriminator 2 view .LVU254
 135:../switch_sdk/core/yt/yt_l2.c ****     CMM_PARAM_CHK((!(YT_DISPATCH(unit)->is_inited)), CMM_ERR_NOT_INIT);
 971              		.loc 1 135 5 discriminator 2 view .LVU255
 972              		.loc 1 135 5 discriminator 2 view .LVU256
 973 0014 1A78     		ldrb	r2, [r3]	@ zero_extendqisi2
 974 0016 32B3     		cbz	r2, .L106
 975              		.loc 1 135 5 discriminator 2 view .LVU257
 136:../switch_sdk/core/yt/yt_l2.c ****     CMM_PARAM_CHK((YT_VLAN_ID_MAX < vid), CMM_ERR_EXCEED_RANGE);
 976              		.loc 1 136 5 discriminator 2 view .LVU258
 977              		.loc 1 136 5 discriminator 2 view .LVU259
 978 0018 B1F5805F 		cmp	r1, #4096
 979 001c 31D2     		bcs	.L107
 980              		.loc 1 136 5 discriminator 2 view .LVU260
 137:../switch_sdk/core/yt/yt_l2.c **** 
 138:../switch_sdk/core/yt/yt_l2.c ****     return YT_DISPATCH(unit)->l2_fdb_ucast_addr_del(unit, vid, mac_addr);
 981              		.loc 1 138 5 discriminator 2 view .LVU261
 982              		.loc 1 138 29 is_stmt 0 discriminator 2 view .LVU262
 983 001e D3F84C43 		ldr	r4, [r3, #844]
 984              		.loc 1 138 12 discriminator 2 view .LVU263
 985 0022 02AB     		add	r3, sp, #8
 986 0024 13E90C00 		ldmdb	r3, {r2, r3}
 987 0028 A047     		blx	r4
 988              	.LVL99:
 989              	.L93:
 139:../switch_sdk/core/yt/yt_l2.c **** }
 990              		.loc 1 139 1 view .LVU264
 991 002a 02B0     		add	sp, sp, #8
 992              		.cfi_remember_state
 993              		.cfi_def_cfa_offset 8
 994              		@ sp needed
 995 002c 10BD     		pop	{r4, pc}
 996              	.LVL100:
 997              	.L104:
 998              		.cfi_restore_state
 133:../switch_sdk/core/yt/yt_l2.c ****     CMM_PARAM_CHK(NULL == YT_DISPATCH(unit), CMM_ERR_NOT_INIT);
 999              		.loc 1 133 5 is_stmt 1 discriminator 1 view .LVU265
 133:../switch_sdk/core/yt/yt_l2.c ****     CMM_PARAM_CHK(NULL == YT_DISPATCH(unit), CMM_ERR_NOT_INIT);
 1000              		.loc 1 133 5 discriminator 1 view .LVU266
 1001 002e 1D4B     		ldr	r3, .L112+4
 1002 0030 1B78     		ldrb	r3, [r3]	@ zero_extendqisi2
 1003 0032 012B     		cmp	r3, #1
 1004 0034 01D8     		bhi	.L108
 1005              	.LVL101:
 1006              	.L95:
 133:../switch_sdk/core/yt/yt_l2.c ****     CMM_PARAM_CHK(NULL == YT_DISPATCH(unit), CMM_ERR_NOT_INIT);
 1007              		.loc 1 133 5 discriminator 5 view .LVU267
 133:../switch_sdk/core/yt/yt_l2.c ****     CMM_PARAM_CHK(NULL == YT_DISPATCH(unit), CMM_ERR_NOT_INIT);
 1008              		.loc 1 133 5 discriminator 5 view .LVU268
 133:../switch_sdk/core/yt/yt_l2.c ****     CMM_PARAM_CHK(NULL == YT_DISPATCH(unit), CMM_ERR_NOT_INIT);
 1009              		.loc 1 133 5 discriminator 5 view .LVU269
 1010 0036 0520     		movs	r0, #5
 1011 0038 F7E7     		b	.L93
 1012              	.LVL102:
 1013              	.L108:
 133:../switch_sdk/core/yt/yt_l2.c ****     CMM_PARAM_CHK(NULL == YT_DISPATCH(unit), CMM_ERR_NOT_INIT);
 1014              		.loc 1 133 5 discriminator 3 view .LVU270
 1015              	.LBB20:
 133:../switch_sdk/core/yt/yt_l2.c ****     CMM_PARAM_CHK(NULL == YT_DISPATCH(unit), CMM_ERR_NOT_INIT);
 1016              		.loc 1 133 5 discriminator 3 view .LVU271
 1017 003a 1B4B     		ldr	r3, .L112+8
 1018 003c 5A69     		ldr	r2, [r3, #20]
 1019 003e 1B4B     		ldr	r3, .L112+12
 1020 0040 9968     		ldr	r1, [r3, #8]
 1021              	.LVL103:
 133:../switch_sdk/core/yt/yt_l2.c ****     CMM_PARAM_CHK(NULL == YT_DISPATCH(unit), CMM_ERR_NOT_INIT);
 1022              		.loc 1 133 5 is_stmt 0 discriminator 3 view .LVU272
 1023 0042 1B48     		ldr	r0, .L112+16
 1024              	.LVL104:
 133:../switch_sdk/core/yt/yt_l2.c ****     CMM_PARAM_CHK(NULL == YT_DISPATCH(unit), CMM_ERR_NOT_INIT);
 1025              		.loc 1 133 5 discriminator 3 view .LVU273
 1026 0044 FFF7FEFF 		bl	osal_printf
 1027              	.LVL105:
 1028 0048 F5E7     		b	.L95
 1029              	.LVL106:
 1030              	.L105:
 133:../switch_sdk/core/yt/yt_l2.c ****     CMM_PARAM_CHK(NULL == YT_DISPATCH(unit), CMM_ERR_NOT_INIT);
 1031              		.loc 1 133 5 discriminator 3 view .LVU274
 1032              	.LBE20:
 134:../switch_sdk/core/yt/yt_l2.c ****     CMM_PARAM_CHK((!(YT_DISPATCH(unit)->is_inited)), CMM_ERR_NOT_INIT);
 1033              		.loc 1 134 5 is_stmt 1 discriminator 1 view .LVU275
 134:../switch_sdk/core/yt/yt_l2.c ****     CMM_PARAM_CHK((!(YT_DISPATCH(unit)->is_inited)), CMM_ERR_NOT_INIT);
 1034              		.loc 1 134 5 discriminator 1 view .LVU276
 1035 004a 164B     		ldr	r3, .L112+4
 1036 004c 1B78     		ldrb	r3, [r3]	@ zero_extendqisi2
 1037 004e 012B     		cmp	r3, #1
 1038 0050 01D8     		bhi	.L109
 1039              	.LVL107:
 1040              	.L98:
 134:../switch_sdk/core/yt/yt_l2.c ****     CMM_PARAM_CHK((!(YT_DISPATCH(unit)->is_inited)), CMM_ERR_NOT_INIT);
 1041              		.loc 1 134 5 discriminator 5 view .LVU277
 134:../switch_sdk/core/yt/yt_l2.c ****     CMM_PARAM_CHK((!(YT_DISPATCH(unit)->is_inited)), CMM_ERR_NOT_INIT);
 1042              		.loc 1 134 5 discriminator 5 view .LVU278
 134:../switch_sdk/core/yt/yt_l2.c ****     CMM_PARAM_CHK((!(YT_DISPATCH(unit)->is_inited)), CMM_ERR_NOT_INIT);
 1043              		.loc 1 134 5 discriminator 5 view .LVU279
 1044 0052 0420     		movs	r0, #4
 1045 0054 E9E7     		b	.L93
 1046              	.LVL108:
 1047              	.L109:
 134:../switch_sdk/core/yt/yt_l2.c ****     CMM_PARAM_CHK((!(YT_DISPATCH(unit)->is_inited)), CMM_ERR_NOT_INIT);
 1048              		.loc 1 134 5 discriminator 3 view .LVU280
 1049              	.LBB21:
 134:../switch_sdk/core/yt/yt_l2.c ****     CMM_PARAM_CHK((!(YT_DISPATCH(unit)->is_inited)), CMM_ERR_NOT_INIT);
 1050              		.loc 1 134 5 discriminator 3 view .LVU281
 1051 0056 144B     		ldr	r3, .L112+8
 1052 0058 1A69     		ldr	r2, [r3, #16]
 1053 005a 144B     		ldr	r3, .L112+12
 1054 005c 9968     		ldr	r1, [r3, #8]
 1055              	.LVL109:
 134:../switch_sdk/core/yt/yt_l2.c ****     CMM_PARAM_CHK((!(YT_DISPATCH(unit)->is_inited)), CMM_ERR_NOT_INIT);
 1056              		.loc 1 134 5 is_stmt 0 discriminator 3 view .LVU282
 1057 005e 1448     		ldr	r0, .L112+16
 1058              	.LVL110:
 134:../switch_sdk/core/yt/yt_l2.c ****     CMM_PARAM_CHK((!(YT_DISPATCH(unit)->is_inited)), CMM_ERR_NOT_INIT);
 1059              		.loc 1 134 5 discriminator 3 view .LVU283
 1060 0060 FFF7FEFF 		bl	osal_printf
 1061              	.LVL111:
 1062 0064 F5E7     		b	.L98
 1063              	.LVL112:
 1064              	.L106:
 134:../switch_sdk/core/yt/yt_l2.c ****     CMM_PARAM_CHK((!(YT_DISPATCH(unit)->is_inited)), CMM_ERR_NOT_INIT);
 1065              		.loc 1 134 5 discriminator 3 view .LVU284
 1066              	.LBE21:
 135:../switch_sdk/core/yt/yt_l2.c ****     CMM_PARAM_CHK((YT_VLAN_ID_MAX < vid), CMM_ERR_EXCEED_RANGE);
 1067              		.loc 1 135 5 is_stmt 1 discriminator 1 view .LVU285
 135:../switch_sdk/core/yt/yt_l2.c ****     CMM_PARAM_CHK((YT_VLAN_ID_MAX < vid), CMM_ERR_EXCEED_RANGE);
 1068              		.loc 1 135 5 discriminator 1 view .LVU286
 1069 0066 0F4B     		ldr	r3, .L112+4
 1070 0068 1B78     		ldrb	r3, [r3]	@ zero_extendqisi2
 1071 006a 012B     		cmp	r3, #1
 1072 006c 01D8     		bhi	.L110
 1073              	.LVL113:
 1074              	.L100:
 135:../switch_sdk/core/yt/yt_l2.c ****     CMM_PARAM_CHK((YT_VLAN_ID_MAX < vid), CMM_ERR_EXCEED_RANGE);
 1075              		.loc 1 135 5 discriminator 5 view .LVU287
 135:../switch_sdk/core/yt/yt_l2.c ****     CMM_PARAM_CHK((YT_VLAN_ID_MAX < vid), CMM_ERR_EXCEED_RANGE);
 1076              		.loc 1 135 5 discriminator 5 view .LVU288
 135:../switch_sdk/core/yt/yt_l2.c ****     CMM_PARAM_CHK((YT_VLAN_ID_MAX < vid), CMM_ERR_EXCEED_RANGE);
 1077              		.loc 1 135 5 discriminator 5 view .LVU289
 1078 006e 0420     		movs	r0, #4
 1079 0070 DBE7     		b	.L93
 1080              	.LVL114:
 1081              	.L110:
 135:../switch_sdk/core/yt/yt_l2.c ****     CMM_PARAM_CHK((YT_VLAN_ID_MAX < vid), CMM_ERR_EXCEED_RANGE);
 1082              		.loc 1 135 5 discriminator 3 view .LVU290
 1083              	.LBB22:
 135:../switch_sdk/core/yt/yt_l2.c ****     CMM_PARAM_CHK((YT_VLAN_ID_MAX < vid), CMM_ERR_EXCEED_RANGE);
 1084              		.loc 1 135 5 discriminator 3 view .LVU291
 1085 0072 0D4B     		ldr	r3, .L112+8
 1086 0074 1A69     		ldr	r2, [r3, #16]
 1087 0076 0D4B     		ldr	r3, .L112+12
 1088 0078 9968     		ldr	r1, [r3, #8]
 1089              	.LVL115:
 135:../switch_sdk/core/yt/yt_l2.c ****     CMM_PARAM_CHK((YT_VLAN_ID_MAX < vid), CMM_ERR_EXCEED_RANGE);
 1090              		.loc 1 135 5 is_stmt 0 discriminator 3 view .LVU292
 1091 007a 0D48     		ldr	r0, .L112+16
 1092              	.LVL116:
 135:../switch_sdk/core/yt/yt_l2.c ****     CMM_PARAM_CHK((YT_VLAN_ID_MAX < vid), CMM_ERR_EXCEED_RANGE);
 1093              		.loc 1 135 5 discriminator 3 view .LVU293
 1094 007c FFF7FEFF 		bl	osal_printf
 1095              	.LVL117:
 1096 0080 F5E7     		b	.L100
 1097              	.LVL118:
 1098              	.L107:
 135:../switch_sdk/core/yt/yt_l2.c ****     CMM_PARAM_CHK((YT_VLAN_ID_MAX < vid), CMM_ERR_EXCEED_RANGE);
 1099              		.loc 1 135 5 discriminator 3 view .LVU294
 1100              	.LBE22:
 136:../switch_sdk/core/yt/yt_l2.c **** 
 1101              		.loc 1 136 5 is_stmt 1 discriminator 1 view .LVU295
 136:../switch_sdk/core/yt/yt_l2.c **** 
 1102              		.loc 1 136 5 discriminator 1 view .LVU296
 1103 0082 084B     		ldr	r3, .L112+4
 1104 0084 1B78     		ldrb	r3, [r3]	@ zero_extendqisi2
 1105 0086 012B     		cmp	r3, #1
 1106 0088 01D8     		bhi	.L111
 1107              	.LVL119:
 1108              	.L102:
 136:../switch_sdk/core/yt/yt_l2.c **** 
 1109              		.loc 1 136 5 discriminator 5 view .LVU297
 136:../switch_sdk/core/yt/yt_l2.c **** 
 1110              		.loc 1 136 5 discriminator 5 view .LVU298
 136:../switch_sdk/core/yt/yt_l2.c **** 
 1111              		.loc 1 136 5 discriminator 5 view .LVU299
 1112 008a 1120     		movs	r0, #17
 1113 008c CDE7     		b	.L93
 1114              	.LVL120:
 1115              	.L111:
 136:../switch_sdk/core/yt/yt_l2.c **** 
 1116              		.loc 1 136 5 discriminator 3 view .LVU300
 1117              	.LBB23:
 136:../switch_sdk/core/yt/yt_l2.c **** 
 1118              		.loc 1 136 5 discriminator 3 view .LVU301
 1119 008e 064B     		ldr	r3, .L112+8
 1120 0090 5A6C     		ldr	r2, [r3, #68]
 1121 0092 064B     		ldr	r3, .L112+12
 1122 0094 9968     		ldr	r1, [r3, #8]
 1123              	.LVL121:
 136:../switch_sdk/core/yt/yt_l2.c **** 
 1124              		.loc 1 136 5 is_stmt 0 discriminator 3 view .LVU302
 1125 0096 0648     		ldr	r0, .L112+16
 1126              	.LVL122:
 136:../switch_sdk/core/yt/yt_l2.c **** 
 1127              		.loc 1 136 5 discriminator 3 view .LVU303
 1128 0098 FFF7FEFF 		bl	osal_printf
 1129              	.LVL123:
 1130 009c F5E7     		b	.L102
 1131              	.L113:
 1132 009e 00BF     		.align	2
 1133              	.L112:
 1134 00a0 00000000 		.word	gpfal_dispatch
 1135 00a4 00000000 		.word	yt_debug_level
 1136 00a8 00000000 		.word	_yt_errmsg
 1137 00ac 00000000 		.word	_yt_prompt_msg
 1138 00b0 00000000 		.word	.LC0
 1139              	.LBE23:
 1140              		.cfi_endproc
 1141              	.LFE7:
 1143              		.section	.text.yt_l2_mcast_addr_del,"ax",%progbits
 1144              		.align	1
 1145              		.global	yt_l2_mcast_addr_del
 1146              		.syntax unified
 1147              		.thumb
 1148              		.thumb_func
 1150              	yt_l2_mcast_addr_del:
 1151              	.LVL124:
 1152              	.LFB8:
 140:../switch_sdk/core/yt/yt_l2.c **** 
 141:../switch_sdk/core/yt/yt_l2.c **** /**
 142:../switch_sdk/core/yt/yt_l2.c ****  * @internal      yt_l2_mcast_addr_del
 143:../switch_sdk/core/yt/yt_l2.c ****  * @endinternal
 144:../switch_sdk/core/yt/yt_l2.c ****  *
 145:../switch_sdk/core/yt/yt_l2.c ****  * @brief         Description
 146:../switch_sdk/core/yt/yt_l2.c ****  * @note          APPLICABLE DEVICES  -Tiger
 147:../switch_sdk/core/yt/yt_l2.c ****  * @param[in]     unit                -unit id
 148:../switch_sdk/core/yt/yt_l2.c ****  * @param[in]     vid                 -vlan id
 149:../switch_sdk/core/yt/yt_l2.c ****  * @param[in]     mac_addr            -yt_types.h
 150:../switch_sdk/core/yt/yt_l2.c ****  * @retval        CMM_ERR_OK          -on success
 151:../switch_sdk/core/yt/yt_l2.c ****  * @retval        CMM_ERR_FAIL        -on fail
 152:../switch_sdk/core/yt/yt_l2.c ****  */
 153:../switch_sdk/core/yt/yt_l2.c **** yt_ret_t  yt_l2_mcast_addr_del(yt_unit_t unit, yt_vlan_t vid, yt_mac_addr_t mac_addr)
 154:../switch_sdk/core/yt/yt_l2.c **** {
 1153              		.loc 1 154 1 is_stmt 1 view -0
 1154              		.cfi_startproc
 1155              		@ args = 0, pretend = 0, frame = 8
 1156              		@ frame_needed = 0, uses_anonymous_args = 0
 1157              		.loc 1 154 1 is_stmt 0 view .LVU305
 1158 0000 10B5     		push	{r4, lr}
 1159              		.cfi_def_cfa_offset 8
 1160              		.cfi_offset 4, -8
 1161              		.cfi_offset 14, -4
 1162 0002 82B0     		sub	sp, sp, #8
 1163              		.cfi_def_cfa_offset 16
 1164 0004 02AC     		add	r4, sp, #8
 1165 0006 04E90C00 		stmdb	r4, {r2, r3}
 155:../switch_sdk/core/yt/yt_l2.c ****     CMM_PARAM_CHK((YT_UNIT_NUM <= unit), CMM_ERR_INPUT);
 1166              		.loc 1 155 5 is_stmt 1 view .LVU306
 1167              		.loc 1 155 5 view .LVU307
 1168 000a 80B9     		cbnz	r0, .L125
 1169              		.loc 1 155 5 discriminator 2 view .LVU308
 156:../switch_sdk/core/yt/yt_l2.c ****     CMM_PARAM_CHK(NULL == YT_DISPATCH(unit), CMM_ERR_NOT_INIT);
 1170              		.loc 1 156 5 discriminator 2 view .LVU309
 1171              		.loc 1 156 5 discriminator 2 view .LVU310
 1172 000c 244B     		ldr	r3, .L133
 1173 000e 53F82030 		ldr	r3, [r3, r0, lsl #2]
 1174 0012 D3B1     		cbz	r3, .L126
 1175              		.loc 1 156 5 discriminator 2 view .LVU311
 157:../switch_sdk/core/yt/yt_l2.c ****     CMM_PARAM_CHK((!(YT_DISPATCH(unit)->is_inited)), CMM_ERR_NOT_INIT);
 1176              		.loc 1 157 5 discriminator 2 view .LVU312
 1177              		.loc 1 157 5 discriminator 2 view .LVU313
 1178 0014 1A78     		ldrb	r2, [r3]	@ zero_extendqisi2
 1179 0016 32B3     		cbz	r2, .L127
 1180              		.loc 1 157 5 discriminator 2 view .LVU314
 158:../switch_sdk/core/yt/yt_l2.c ****     CMM_PARAM_CHK((YT_VLAN_ID_MAX < vid), CMM_ERR_EXCEED_RANGE);
 1181              		.loc 1 158 5 discriminator 2 view .LVU315
 1182              		.loc 1 158 5 discriminator 2 view .LVU316
 1183 0018 B1F5805F 		cmp	r1, #4096
 1184 001c 31D2     		bcs	.L128
 1185              		.loc 1 158 5 discriminator 2 view .LVU317
 159:../switch_sdk/core/yt/yt_l2.c **** 
 160:../switch_sdk/core/yt/yt_l2.c ****     return YT_DISPATCH(unit)->l2_mcast_addr_del(unit, vid, mac_addr);
 1186              		.loc 1 160 5 discriminator 2 view .LVU318
 1187              		.loc 1 160 29 is_stmt 0 discriminator 2 view .LVU319
 1188 001e D3F85043 		ldr	r4, [r3, #848]
 1189              		.loc 1 160 12 discriminator 2 view .LVU320
 1190 0022 02AB     		add	r3, sp, #8
 1191 0024 13E90C00 		ldmdb	r3, {r2, r3}
 1192 0028 A047     		blx	r4
 1193              	.LVL125:
 1194              	.L114:
 161:../switch_sdk/core/yt/yt_l2.c **** }
 1195              		.loc 1 161 1 view .LVU321
 1196 002a 02B0     		add	sp, sp, #8
 1197              		.cfi_remember_state
 1198              		.cfi_def_cfa_offset 8
 1199              		@ sp needed
 1200 002c 10BD     		pop	{r4, pc}
 1201              	.LVL126:
 1202              	.L125:
 1203              		.cfi_restore_state
 155:../switch_sdk/core/yt/yt_l2.c ****     CMM_PARAM_CHK(NULL == YT_DISPATCH(unit), CMM_ERR_NOT_INIT);
 1204              		.loc 1 155 5 is_stmt 1 discriminator 1 view .LVU322
 155:../switch_sdk/core/yt/yt_l2.c ****     CMM_PARAM_CHK(NULL == YT_DISPATCH(unit), CMM_ERR_NOT_INIT);
 1205              		.loc 1 155 5 discriminator 1 view .LVU323
 1206 002e 1D4B     		ldr	r3, .L133+4
 1207 0030 1B78     		ldrb	r3, [r3]	@ zero_extendqisi2
 1208 0032 012B     		cmp	r3, #1
 1209 0034 01D8     		bhi	.L129
 1210              	.LVL127:
 1211              	.L116:
 155:../switch_sdk/core/yt/yt_l2.c ****     CMM_PARAM_CHK(NULL == YT_DISPATCH(unit), CMM_ERR_NOT_INIT);
 1212              		.loc 1 155 5 discriminator 5 view .LVU324
 155:../switch_sdk/core/yt/yt_l2.c ****     CMM_PARAM_CHK(NULL == YT_DISPATCH(unit), CMM_ERR_NOT_INIT);
 1213              		.loc 1 155 5 discriminator 5 view .LVU325
 155:../switch_sdk/core/yt/yt_l2.c ****     CMM_PARAM_CHK(NULL == YT_DISPATCH(unit), CMM_ERR_NOT_INIT);
 1214              		.loc 1 155 5 discriminator 5 view .LVU326
 1215 0036 0520     		movs	r0, #5
 1216 0038 F7E7     		b	.L114
 1217              	.LVL128:
 1218              	.L129:
 155:../switch_sdk/core/yt/yt_l2.c ****     CMM_PARAM_CHK(NULL == YT_DISPATCH(unit), CMM_ERR_NOT_INIT);
 1219              		.loc 1 155 5 discriminator 3 view .LVU327
 1220              	.LBB24:
 155:../switch_sdk/core/yt/yt_l2.c ****     CMM_PARAM_CHK(NULL == YT_DISPATCH(unit), CMM_ERR_NOT_INIT);
 1221              		.loc 1 155 5 discriminator 3 view .LVU328
 1222 003a 1B4B     		ldr	r3, .L133+8
 1223 003c 5A69     		ldr	r2, [r3, #20]
 1224 003e 1B4B     		ldr	r3, .L133+12
 1225 0040 9968     		ldr	r1, [r3, #8]
 1226              	.LVL129:
 155:../switch_sdk/core/yt/yt_l2.c ****     CMM_PARAM_CHK(NULL == YT_DISPATCH(unit), CMM_ERR_NOT_INIT);
 1227              		.loc 1 155 5 is_stmt 0 discriminator 3 view .LVU329
 1228 0042 1B48     		ldr	r0, .L133+16
 1229              	.LVL130:
 155:../switch_sdk/core/yt/yt_l2.c ****     CMM_PARAM_CHK(NULL == YT_DISPATCH(unit), CMM_ERR_NOT_INIT);
 1230              		.loc 1 155 5 discriminator 3 view .LVU330
 1231 0044 FFF7FEFF 		bl	osal_printf
 1232              	.LVL131:
 1233 0048 F5E7     		b	.L116
 1234              	.LVL132:
 1235              	.L126:
 155:../switch_sdk/core/yt/yt_l2.c ****     CMM_PARAM_CHK(NULL == YT_DISPATCH(unit), CMM_ERR_NOT_INIT);
 1236              		.loc 1 155 5 discriminator 3 view .LVU331
 1237              	.LBE24:
 156:../switch_sdk/core/yt/yt_l2.c ****     CMM_PARAM_CHK((!(YT_DISPATCH(unit)->is_inited)), CMM_ERR_NOT_INIT);
 1238              		.loc 1 156 5 is_stmt 1 discriminator 1 view .LVU332
 156:../switch_sdk/core/yt/yt_l2.c ****     CMM_PARAM_CHK((!(YT_DISPATCH(unit)->is_inited)), CMM_ERR_NOT_INIT);
 1239              		.loc 1 156 5 discriminator 1 view .LVU333
 1240 004a 164B     		ldr	r3, .L133+4
 1241 004c 1B78     		ldrb	r3, [r3]	@ zero_extendqisi2
 1242 004e 012B     		cmp	r3, #1
 1243 0050 01D8     		bhi	.L130
 1244              	.LVL133:
 1245              	.L119:
 156:../switch_sdk/core/yt/yt_l2.c ****     CMM_PARAM_CHK((!(YT_DISPATCH(unit)->is_inited)), CMM_ERR_NOT_INIT);
 1246              		.loc 1 156 5 discriminator 5 view .LVU334
 156:../switch_sdk/core/yt/yt_l2.c ****     CMM_PARAM_CHK((!(YT_DISPATCH(unit)->is_inited)), CMM_ERR_NOT_INIT);
 1247              		.loc 1 156 5 discriminator 5 view .LVU335
 156:../switch_sdk/core/yt/yt_l2.c ****     CMM_PARAM_CHK((!(YT_DISPATCH(unit)->is_inited)), CMM_ERR_NOT_INIT);
 1248              		.loc 1 156 5 discriminator 5 view .LVU336
 1249 0052 0420     		movs	r0, #4
 1250 0054 E9E7     		b	.L114
 1251              	.LVL134:
 1252              	.L130:
 156:../switch_sdk/core/yt/yt_l2.c ****     CMM_PARAM_CHK((!(YT_DISPATCH(unit)->is_inited)), CMM_ERR_NOT_INIT);
 1253              		.loc 1 156 5 discriminator 3 view .LVU337
 1254              	.LBB25:
 156:../switch_sdk/core/yt/yt_l2.c ****     CMM_PARAM_CHK((!(YT_DISPATCH(unit)->is_inited)), CMM_ERR_NOT_INIT);
 1255              		.loc 1 156 5 discriminator 3 view .LVU338
 1256 0056 144B     		ldr	r3, .L133+8
 1257 0058 1A69     		ldr	r2, [r3, #16]
 1258 005a 144B     		ldr	r3, .L133+12
 1259 005c 9968     		ldr	r1, [r3, #8]
 1260              	.LVL135:
 156:../switch_sdk/core/yt/yt_l2.c ****     CMM_PARAM_CHK((!(YT_DISPATCH(unit)->is_inited)), CMM_ERR_NOT_INIT);
 1261              		.loc 1 156 5 is_stmt 0 discriminator 3 view .LVU339
 1262 005e 1448     		ldr	r0, .L133+16
 1263              	.LVL136:
 156:../switch_sdk/core/yt/yt_l2.c ****     CMM_PARAM_CHK((!(YT_DISPATCH(unit)->is_inited)), CMM_ERR_NOT_INIT);
 1264              		.loc 1 156 5 discriminator 3 view .LVU340
 1265 0060 FFF7FEFF 		bl	osal_printf
 1266              	.LVL137:
 1267 0064 F5E7     		b	.L119
 1268              	.LVL138:
 1269              	.L127:
 156:../switch_sdk/core/yt/yt_l2.c ****     CMM_PARAM_CHK((!(YT_DISPATCH(unit)->is_inited)), CMM_ERR_NOT_INIT);
 1270              		.loc 1 156 5 discriminator 3 view .LVU341
 1271              	.LBE25:
 157:../switch_sdk/core/yt/yt_l2.c ****     CMM_PARAM_CHK((YT_VLAN_ID_MAX < vid), CMM_ERR_EXCEED_RANGE);
 1272              		.loc 1 157 5 is_stmt 1 discriminator 1 view .LVU342
 157:../switch_sdk/core/yt/yt_l2.c ****     CMM_PARAM_CHK((YT_VLAN_ID_MAX < vid), CMM_ERR_EXCEED_RANGE);
 1273              		.loc 1 157 5 discriminator 1 view .LVU343
 1274 0066 0F4B     		ldr	r3, .L133+4
 1275 0068 1B78     		ldrb	r3, [r3]	@ zero_extendqisi2
 1276 006a 012B     		cmp	r3, #1
 1277 006c 01D8     		bhi	.L131
 1278              	.LVL139:
 1279              	.L121:
 157:../switch_sdk/core/yt/yt_l2.c ****     CMM_PARAM_CHK((YT_VLAN_ID_MAX < vid), CMM_ERR_EXCEED_RANGE);
 1280              		.loc 1 157 5 discriminator 5 view .LVU344
 157:../switch_sdk/core/yt/yt_l2.c ****     CMM_PARAM_CHK((YT_VLAN_ID_MAX < vid), CMM_ERR_EXCEED_RANGE);
 1281              		.loc 1 157 5 discriminator 5 view .LVU345
 157:../switch_sdk/core/yt/yt_l2.c ****     CMM_PARAM_CHK((YT_VLAN_ID_MAX < vid), CMM_ERR_EXCEED_RANGE);
 1282              		.loc 1 157 5 discriminator 5 view .LVU346
 1283 006e 0420     		movs	r0, #4
 1284 0070 DBE7     		b	.L114
 1285              	.LVL140:
 1286              	.L131:
 157:../switch_sdk/core/yt/yt_l2.c ****     CMM_PARAM_CHK((YT_VLAN_ID_MAX < vid), CMM_ERR_EXCEED_RANGE);
 1287              		.loc 1 157 5 discriminator 3 view .LVU347
 1288              	.LBB26:
 157:../switch_sdk/core/yt/yt_l2.c ****     CMM_PARAM_CHK((YT_VLAN_ID_MAX < vid), CMM_ERR_EXCEED_RANGE);
 1289              		.loc 1 157 5 discriminator 3 view .LVU348
 1290 0072 0D4B     		ldr	r3, .L133+8
 1291 0074 1A69     		ldr	r2, [r3, #16]
 1292 0076 0D4B     		ldr	r3, .L133+12
 1293 0078 9968     		ldr	r1, [r3, #8]
 1294              	.LVL141:
 157:../switch_sdk/core/yt/yt_l2.c ****     CMM_PARAM_CHK((YT_VLAN_ID_MAX < vid), CMM_ERR_EXCEED_RANGE);
 1295              		.loc 1 157 5 is_stmt 0 discriminator 3 view .LVU349
 1296 007a 0D48     		ldr	r0, .L133+16
 1297              	.LVL142:
 157:../switch_sdk/core/yt/yt_l2.c ****     CMM_PARAM_CHK((YT_VLAN_ID_MAX < vid), CMM_ERR_EXCEED_RANGE);
 1298              		.loc 1 157 5 discriminator 3 view .LVU350
 1299 007c FFF7FEFF 		bl	osal_printf
 1300              	.LVL143:
 1301 0080 F5E7     		b	.L121
 1302              	.LVL144:
 1303              	.L128:
 157:../switch_sdk/core/yt/yt_l2.c ****     CMM_PARAM_CHK((YT_VLAN_ID_MAX < vid), CMM_ERR_EXCEED_RANGE);
 1304              		.loc 1 157 5 discriminator 3 view .LVU351
 1305              	.LBE26:
 158:../switch_sdk/core/yt/yt_l2.c **** 
 1306              		.loc 1 158 5 is_stmt 1 discriminator 1 view .LVU352
 158:../switch_sdk/core/yt/yt_l2.c **** 
 1307              		.loc 1 158 5 discriminator 1 view .LVU353
 1308 0082 084B     		ldr	r3, .L133+4
 1309 0084 1B78     		ldrb	r3, [r3]	@ zero_extendqisi2
 1310 0086 012B     		cmp	r3, #1
 1311 0088 01D8     		bhi	.L132
 1312              	.LVL145:
 1313              	.L123:
 158:../switch_sdk/core/yt/yt_l2.c **** 
 1314              		.loc 1 158 5 discriminator 5 view .LVU354
 158:../switch_sdk/core/yt/yt_l2.c **** 
 1315              		.loc 1 158 5 discriminator 5 view .LVU355
 158:../switch_sdk/core/yt/yt_l2.c **** 
 1316              		.loc 1 158 5 discriminator 5 view .LVU356
 1317 008a 1120     		movs	r0, #17
 1318 008c CDE7     		b	.L114
 1319              	.LVL146:
 1320              	.L132:
 158:../switch_sdk/core/yt/yt_l2.c **** 
 1321              		.loc 1 158 5 discriminator 3 view .LVU357
 1322              	.LBB27:
 158:../switch_sdk/core/yt/yt_l2.c **** 
 1323              		.loc 1 158 5 discriminator 3 view .LVU358
 1324 008e 064B     		ldr	r3, .L133+8
 1325 0090 5A6C     		ldr	r2, [r3, #68]
 1326 0092 064B     		ldr	r3, .L133+12
 1327 0094 9968     		ldr	r1, [r3, #8]
 1328              	.LVL147:
 158:../switch_sdk/core/yt/yt_l2.c **** 
 1329              		.loc 1 158 5 is_stmt 0 discriminator 3 view .LVU359
 1330 0096 0648     		ldr	r0, .L133+16
 1331              	.LVL148:
 158:../switch_sdk/core/yt/yt_l2.c **** 
 1332              		.loc 1 158 5 discriminator 3 view .LVU360
 1333 0098 FFF7FEFF 		bl	osal_printf
 1334              	.LVL149:
 1335 009c F5E7     		b	.L123
 1336              	.L134:
 1337 009e 00BF     		.align	2
 1338              	.L133:
 1339 00a0 00000000 		.word	gpfal_dispatch
 1340 00a4 00000000 		.word	yt_debug_level
 1341 00a8 00000000 		.word	_yt_errmsg
 1342 00ac 00000000 		.word	_yt_prompt_msg
 1343 00b0 00000000 		.word	.LC0
 1344              	.LBE27:
 1345              		.cfi_endproc
 1346              	.LFE8:
 1348              		.section	.text.yt_l2_fdb_linkdownFlush_en_set,"ax",%progbits
 1349              		.align	1
 1350              		.global	yt_l2_fdb_linkdownFlush_en_set
 1351              		.syntax unified
 1352              		.thumb
 1353              		.thumb_func
 1355              	yt_l2_fdb_linkdownFlush_en_set:
 1356              	.LVL150:
 1357              	.LFB9:
 162:../switch_sdk/core/yt/yt_l2.c **** 
 163:../switch_sdk/core/yt/yt_l2.c **** /**
 164:../switch_sdk/core/yt/yt_l2.c ****  * @internal      yt_l2_fdb_linkdownFlush_en_set
 165:../switch_sdk/core/yt/yt_l2.c ****  * @endinternal
 166:../switch_sdk/core/yt/yt_l2.c ****  *
 167:../switch_sdk/core/yt/yt_l2.c ****  * @brief         Description
 168:../switch_sdk/core/yt/yt_l2.c ****  * @note          APPLICABLE DEVICES  -Tiger
 169:../switch_sdk/core/yt/yt_l2.c ****  * @param[in]     unit                -unit id
 170:../switch_sdk/core/yt/yt_l2.c ****  * @param[in]     enable              -enable or disable
 171:../switch_sdk/core/yt/yt_l2.c ****  * @retval        CMM_ERR_OK          -on success
 172:../switch_sdk/core/yt/yt_l2.c ****  * @retval        CMM_ERR_FAIL        -on fail
 173:../switch_sdk/core/yt/yt_l2.c ****  */
 174:../switch_sdk/core/yt/yt_l2.c **** yt_ret_t  yt_l2_fdb_linkdownFlush_en_set(yt_unit_t unit, yt_enable_t enable)
 175:../switch_sdk/core/yt/yt_l2.c **** {
 1358              		.loc 1 175 1 is_stmt 1 view -0
 1359              		.cfi_startproc
 1360              		@ args = 0, pretend = 0, frame = 0
 1361              		@ frame_needed = 0, uses_anonymous_args = 0
 1362              		.loc 1 175 1 is_stmt 0 view .LVU362
 1363 0000 08B5     		push	{r3, lr}
 1364              		.cfi_def_cfa_offset 8
 1365              		.cfi_offset 3, -8
 1366              		.cfi_offset 14, -4
 176:../switch_sdk/core/yt/yt_l2.c ****     CMM_PARAM_CHK((YT_UNIT_NUM <= unit), CMM_ERR_INPUT);
 1367              		.loc 1 176 5 is_stmt 1 view .LVU363
 1368              		.loc 1 176 5 view .LVU364
 1369 0002 68B9     		cbnz	r0, .L146
 1370 0004 0246     		mov	r2, r0
 1371              		.loc 1 176 5 discriminator 2 view .LVU365
 177:../switch_sdk/core/yt/yt_l2.c ****     CMM_PARAM_CHK(NULL == YT_DISPATCH(unit), CMM_ERR_NOT_INIT);
 1372              		.loc 1 177 5 discriminator 2 view .LVU366
 1373              		.loc 1 177 5 discriminator 2 view .LVU367
 1374 0006 224B     		ldr	r3, .L154
 1375 0008 53F82030 		ldr	r3, [r3, r0, lsl #2]
 1376 000c B3B1     		cbz	r3, .L147
 1377              		.loc 1 177 5 discriminator 2 view .LVU368
 178:../switch_sdk/core/yt/yt_l2.c ****     CMM_PARAM_CHK((!(YT_DISPATCH(unit)->is_inited)), CMM_ERR_NOT_INIT);
 1378              		.loc 1 178 5 discriminator 2 view .LVU369
 1379              		.loc 1 178 5 discriminator 2 view .LVU370
 1380 000e 1878     		ldrb	r0, [r3]	@ zero_extendqisi2
 1381              	.LVL151:
 1382              		.loc 1 178 5 is_stmt 0 discriminator 2 view .LVU371
 1383 0010 10B3     		cbz	r0, .L148
 1384              		.loc 1 178 5 is_stmt 1 discriminator 2 view .LVU372
 179:../switch_sdk/core/yt/yt_l2.c ****     CMM_PARAM_CHK((YT_ENABLE < enable || YT_DISABLE > enable), CMM_ERR_INPUT);
 1385              		.loc 1 179 5 discriminator 2 view .LVU373
 1386              		.loc 1 179 5 discriminator 2 view .LVU374
 1387 0012 0129     		cmp	r1, #1
 1388 0014 2ED8     		bhi	.L149
 1389              		.loc 1 179 5 discriminator 2 view .LVU375
 180:../switch_sdk/core/yt/yt_l2.c **** 
 181:../switch_sdk/core/yt/yt_l2.c ****     return YT_DISPATCH(unit)->l2_fdb_linkdownFlush_en_set(unit, enable);
 1390              		.loc 1 181 5 discriminator 2 view .LVU376
 1391              		.loc 1 181 29 is_stmt 0 discriminator 2 view .LVU377
 1392 0016 D3F85433 		ldr	r3, [r3, #852]
 1393              		.loc 1 181 12 discriminator 2 view .LVU378
 1394 001a 1046     		mov	r0, r2
 1395 001c 9847     		blx	r3
 1396              	.LVL152:
 1397              	.L135:
 182:../switch_sdk/core/yt/yt_l2.c **** }
 1398              		.loc 1 182 1 view .LVU379
 1399 001e 08BD     		pop	{r3, pc}
 1400              	.LVL153:
 1401              	.L146:
 176:../switch_sdk/core/yt/yt_l2.c ****     CMM_PARAM_CHK(NULL == YT_DISPATCH(unit), CMM_ERR_NOT_INIT);
 1402              		.loc 1 176 5 is_stmt 1 discriminator 1 view .LVU380
 176:../switch_sdk/core/yt/yt_l2.c ****     CMM_PARAM_CHK(NULL == YT_DISPATCH(unit), CMM_ERR_NOT_INIT);
 1403              		.loc 1 176 5 discriminator 1 view .LVU381
 1404 0020 1C4B     		ldr	r3, .L154+4
 1405 0022 1B78     		ldrb	r3, [r3]	@ zero_extendqisi2
 1406 0024 012B     		cmp	r3, #1
 1407 0026 01D8     		bhi	.L150
 1408              	.LVL154:
 1409              	.L137:
 176:../switch_sdk/core/yt/yt_l2.c ****     CMM_PARAM_CHK(NULL == YT_DISPATCH(unit), CMM_ERR_NOT_INIT);
 1410              		.loc 1 176 5 discriminator 5 view .LVU382
 176:../switch_sdk/core/yt/yt_l2.c ****     CMM_PARAM_CHK(NULL == YT_DISPATCH(unit), CMM_ERR_NOT_INIT);
 1411              		.loc 1 176 5 discriminator 5 view .LVU383
 176:../switch_sdk/core/yt/yt_l2.c ****     CMM_PARAM_CHK(NULL == YT_DISPATCH(unit), CMM_ERR_NOT_INIT);
 1412              		.loc 1 176 5 discriminator 5 view .LVU384
 1413 0028 0520     		movs	r0, #5
 1414 002a F8E7     		b	.L135
 1415              	.LVL155:
 1416              	.L150:
 176:../switch_sdk/core/yt/yt_l2.c ****     CMM_PARAM_CHK(NULL == YT_DISPATCH(unit), CMM_ERR_NOT_INIT);
 1417              		.loc 1 176 5 discriminator 3 view .LVU385
 1418              	.LBB28:
 176:../switch_sdk/core/yt/yt_l2.c ****     CMM_PARAM_CHK(NULL == YT_DISPATCH(unit), CMM_ERR_NOT_INIT);
 1419              		.loc 1 176 5 discriminator 3 view .LVU386
 1420 002c 1A4B     		ldr	r3, .L154+8
 1421 002e 5A69     		ldr	r2, [r3, #20]
 1422 0030 1A4B     		ldr	r3, .L154+12
 1423 0032 9968     		ldr	r1, [r3, #8]
 1424              	.LVL156:
 176:../switch_sdk/core/yt/yt_l2.c ****     CMM_PARAM_CHK(NULL == YT_DISPATCH(unit), CMM_ERR_NOT_INIT);
 1425              		.loc 1 176 5 is_stmt 0 discriminator 3 view .LVU387
 1426 0034 1A48     		ldr	r0, .L154+16
 1427              	.LVL157:
 176:../switch_sdk/core/yt/yt_l2.c ****     CMM_PARAM_CHK(NULL == YT_DISPATCH(unit), CMM_ERR_NOT_INIT);
 1428              		.loc 1 176 5 discriminator 3 view .LVU388
 1429 0036 FFF7FEFF 		bl	osal_printf
 1430              	.LVL158:
 1431 003a F5E7     		b	.L137
 1432              	.LVL159:
 1433              	.L147:
 176:../switch_sdk/core/yt/yt_l2.c ****     CMM_PARAM_CHK(NULL == YT_DISPATCH(unit), CMM_ERR_NOT_INIT);
 1434              		.loc 1 176 5 discriminator 3 view .LVU389
 1435              	.LBE28:
 177:../switch_sdk/core/yt/yt_l2.c ****     CMM_PARAM_CHK((!(YT_DISPATCH(unit)->is_inited)), CMM_ERR_NOT_INIT);
 1436              		.loc 1 177 5 is_stmt 1 discriminator 1 view .LVU390
 177:../switch_sdk/core/yt/yt_l2.c ****     CMM_PARAM_CHK((!(YT_DISPATCH(unit)->is_inited)), CMM_ERR_NOT_INIT);
 1437              		.loc 1 177 5 discriminator 1 view .LVU391
 1438 003c 154B     		ldr	r3, .L154+4
 1439 003e 1B78     		ldrb	r3, [r3]	@ zero_extendqisi2
 1440 0040 012B     		cmp	r3, #1
 1441 0042 01D8     		bhi	.L151
 1442              	.LVL160:
 1443              	.L140:
 177:../switch_sdk/core/yt/yt_l2.c ****     CMM_PARAM_CHK((!(YT_DISPATCH(unit)->is_inited)), CMM_ERR_NOT_INIT);
 1444              		.loc 1 177 5 discriminator 5 view .LVU392
 177:../switch_sdk/core/yt/yt_l2.c ****     CMM_PARAM_CHK((!(YT_DISPATCH(unit)->is_inited)), CMM_ERR_NOT_INIT);
 1445              		.loc 1 177 5 discriminator 5 view .LVU393
 177:../switch_sdk/core/yt/yt_l2.c ****     CMM_PARAM_CHK((!(YT_DISPATCH(unit)->is_inited)), CMM_ERR_NOT_INIT);
 1446              		.loc 1 177 5 discriminator 5 view .LVU394
 1447 0044 0420     		movs	r0, #4
 1448 0046 EAE7     		b	.L135
 1449              	.LVL161:
 1450              	.L151:
 177:../switch_sdk/core/yt/yt_l2.c ****     CMM_PARAM_CHK((!(YT_DISPATCH(unit)->is_inited)), CMM_ERR_NOT_INIT);
 1451              		.loc 1 177 5 discriminator 3 view .LVU395
 1452              	.LBB29:
 177:../switch_sdk/core/yt/yt_l2.c ****     CMM_PARAM_CHK((!(YT_DISPATCH(unit)->is_inited)), CMM_ERR_NOT_INIT);
 1453              		.loc 1 177 5 discriminator 3 view .LVU396
 1454 0048 134B     		ldr	r3, .L154+8
 1455 004a 1A69     		ldr	r2, [r3, #16]
 1456 004c 134B     		ldr	r3, .L154+12
 1457 004e 9968     		ldr	r1, [r3, #8]
 1458              	.LVL162:
 177:../switch_sdk/core/yt/yt_l2.c ****     CMM_PARAM_CHK((!(YT_DISPATCH(unit)->is_inited)), CMM_ERR_NOT_INIT);
 1459              		.loc 1 177 5 is_stmt 0 discriminator 3 view .LVU397
 1460 0050 1348     		ldr	r0, .L154+16
 1461              	.LVL163:
 177:../switch_sdk/core/yt/yt_l2.c ****     CMM_PARAM_CHK((!(YT_DISPATCH(unit)->is_inited)), CMM_ERR_NOT_INIT);
 1462              		.loc 1 177 5 discriminator 3 view .LVU398
 1463 0052 FFF7FEFF 		bl	osal_printf
 1464              	.LVL164:
 1465 0056 F5E7     		b	.L140
 1466              	.LVL165:
 1467              	.L148:
 177:../switch_sdk/core/yt/yt_l2.c ****     CMM_PARAM_CHK((!(YT_DISPATCH(unit)->is_inited)), CMM_ERR_NOT_INIT);
 1468              		.loc 1 177 5 discriminator 3 view .LVU399
 1469              	.LBE29:
 178:../switch_sdk/core/yt/yt_l2.c ****     CMM_PARAM_CHK((YT_ENABLE < enable || YT_DISABLE > enable), CMM_ERR_INPUT);
 1470              		.loc 1 178 5 is_stmt 1 discriminator 1 view .LVU400
 178:../switch_sdk/core/yt/yt_l2.c ****     CMM_PARAM_CHK((YT_ENABLE < enable || YT_DISABLE > enable), CMM_ERR_INPUT);
 1471              		.loc 1 178 5 discriminator 1 view .LVU401
 1472 0058 0E4B     		ldr	r3, .L154+4
 1473 005a 1B78     		ldrb	r3, [r3]	@ zero_extendqisi2
 1474 005c 012B     		cmp	r3, #1
 1475 005e 01D8     		bhi	.L152
 1476              	.LVL166:
 1477              	.L142:
 178:../switch_sdk/core/yt/yt_l2.c ****     CMM_PARAM_CHK((YT_ENABLE < enable || YT_DISABLE > enable), CMM_ERR_INPUT);
 1478              		.loc 1 178 5 discriminator 5 view .LVU402
 178:../switch_sdk/core/yt/yt_l2.c ****     CMM_PARAM_CHK((YT_ENABLE < enable || YT_DISABLE > enable), CMM_ERR_INPUT);
 1479              		.loc 1 178 5 discriminator 5 view .LVU403
 178:../switch_sdk/core/yt/yt_l2.c ****     CMM_PARAM_CHK((YT_ENABLE < enable || YT_DISABLE > enable), CMM_ERR_INPUT);
 1480              		.loc 1 178 5 discriminator 5 view .LVU404
 1481 0060 0420     		movs	r0, #4
 1482 0062 DCE7     		b	.L135
 1483              	.LVL167:
 1484              	.L152:
 178:../switch_sdk/core/yt/yt_l2.c ****     CMM_PARAM_CHK((YT_ENABLE < enable || YT_DISABLE > enable), CMM_ERR_INPUT);
 1485              		.loc 1 178 5 discriminator 3 view .LVU405
 1486              	.LBB30:
 178:../switch_sdk/core/yt/yt_l2.c ****     CMM_PARAM_CHK((YT_ENABLE < enable || YT_DISABLE > enable), CMM_ERR_INPUT);
 1487              		.loc 1 178 5 discriminator 3 view .LVU406
 1488 0064 0C4B     		ldr	r3, .L154+8
 1489 0066 1A69     		ldr	r2, [r3, #16]
 1490 0068 0C4B     		ldr	r3, .L154+12
 1491 006a 9968     		ldr	r1, [r3, #8]
 1492              	.LVL168:
 178:../switch_sdk/core/yt/yt_l2.c ****     CMM_PARAM_CHK((YT_ENABLE < enable || YT_DISABLE > enable), CMM_ERR_INPUT);
 1493              		.loc 1 178 5 is_stmt 0 discriminator 3 view .LVU407
 1494 006c 0C48     		ldr	r0, .L154+16
 1495 006e FFF7FEFF 		bl	osal_printf
 1496              	.LVL169:
 1497 0072 F5E7     		b	.L142
 1498              	.LVL170:
 1499              	.L149:
 178:../switch_sdk/core/yt/yt_l2.c ****     CMM_PARAM_CHK((YT_ENABLE < enable || YT_DISABLE > enable), CMM_ERR_INPUT);
 1500              		.loc 1 178 5 discriminator 3 view .LVU408
 1501              	.LBE30:
 179:../switch_sdk/core/yt/yt_l2.c **** 
 1502              		.loc 1 179 5 is_stmt 1 discriminator 1 view .LVU409
 179:../switch_sdk/core/yt/yt_l2.c **** 
 1503              		.loc 1 179 5 discriminator 1 view .LVU410
 1504 0074 074B     		ldr	r3, .L154+4
 1505 0076 1B78     		ldrb	r3, [r3]	@ zero_extendqisi2
 1506 0078 012B     		cmp	r3, #1
 1507 007a 01D8     		bhi	.L153
 1508              	.LVL171:
 1509              	.L144:
 179:../switch_sdk/core/yt/yt_l2.c **** 
 1510              		.loc 1 179 5 discriminator 5 view .LVU411
 179:../switch_sdk/core/yt/yt_l2.c **** 
 1511              		.loc 1 179 5 discriminator 5 view .LVU412
 179:../switch_sdk/core/yt/yt_l2.c **** 
 1512              		.loc 1 179 5 discriminator 5 view .LVU413
 1513 007c 0520     		movs	r0, #5
 1514 007e CEE7     		b	.L135
 1515              	.LVL172:
 1516              	.L153:
 179:../switch_sdk/core/yt/yt_l2.c **** 
 1517              		.loc 1 179 5 discriminator 3 view .LVU414
 1518              	.LBB31:
 179:../switch_sdk/core/yt/yt_l2.c **** 
 1519              		.loc 1 179 5 discriminator 3 view .LVU415
 1520 0080 054B     		ldr	r3, .L154+8
 1521 0082 5A69     		ldr	r2, [r3, #20]
 1522 0084 054B     		ldr	r3, .L154+12
 1523 0086 9968     		ldr	r1, [r3, #8]
 1524              	.LVL173:
 179:../switch_sdk/core/yt/yt_l2.c **** 
 1525              		.loc 1 179 5 is_stmt 0 discriminator 3 view .LVU416
 1526 0088 0548     		ldr	r0, .L154+16
 1527 008a FFF7FEFF 		bl	osal_printf
 1528              	.LVL174:
 1529 008e F5E7     		b	.L144
 1530              	.L155:
 1531              		.align	2
 1532              	.L154:
 1533 0090 00000000 		.word	gpfal_dispatch
 1534 0094 00000000 		.word	yt_debug_level
 1535 0098 00000000 		.word	_yt_errmsg
 1536 009c 00000000 		.word	_yt_prompt_msg
 1537 00a0 00000000 		.word	.LC0
 1538              	.LBE31:
 1539              		.cfi_endproc
 1540              	.LFE9:
 1542              		.section	.text.yt_l2_fdb_linkdownFlush_en_get,"ax",%progbits
 1543              		.align	1
 1544              		.global	yt_l2_fdb_linkdownFlush_en_get
 1545              		.syntax unified
 1546              		.thumb
 1547              		.thumb_func
 1549              	yt_l2_fdb_linkdownFlush_en_get:
 1550              	.LVL175:
 1551              	.LFB10:
 183:../switch_sdk/core/yt/yt_l2.c **** 
 184:../switch_sdk/core/yt/yt_l2.c **** /**
 185:../switch_sdk/core/yt/yt_l2.c ****  * @internal      yt_l2_fdb_linkdownFlush_en_get
 186:../switch_sdk/core/yt/yt_l2.c ****  * @endinternal
 187:../switch_sdk/core/yt/yt_l2.c ****  *
 188:../switch_sdk/core/yt/yt_l2.c ****  * @brief         Description
 189:../switch_sdk/core/yt/yt_l2.c ****  * @note          APPLICABLE DEVICES  -Tiger
 190:../switch_sdk/core/yt/yt_l2.c ****  * @param[in]     unit                -unit id
 191:../switch_sdk/core/yt/yt_l2.c ****  * @param[out]    pEnable             -enable or disable
 192:../switch_sdk/core/yt/yt_l2.c ****  * @retval        CMM_ERR_OK          -on success
 193:../switch_sdk/core/yt/yt_l2.c ****  * @retval        CMM_ERR_FAIL        -on fail
 194:../switch_sdk/core/yt/yt_l2.c ****  */
 195:../switch_sdk/core/yt/yt_l2.c **** yt_ret_t  yt_l2_fdb_linkdownFlush_en_get(yt_unit_t unit, yt_enable_t *pEnable)
 196:../switch_sdk/core/yt/yt_l2.c **** {
 1552              		.loc 1 196 1 is_stmt 1 view -0
 1553              		.cfi_startproc
 1554              		@ args = 0, pretend = 0, frame = 0
 1555              		@ frame_needed = 0, uses_anonymous_args = 0
 1556              		.loc 1 196 1 is_stmt 0 view .LVU418
 1557 0000 08B5     		push	{r3, lr}
 1558              		.cfi_def_cfa_offset 8
 1559              		.cfi_offset 3, -8
 1560              		.cfi_offset 14, -4
 197:../switch_sdk/core/yt/yt_l2.c ****     CMM_PARAM_CHK((YT_UNIT_NUM <= unit), CMM_ERR_INPUT);
 1561              		.loc 1 197 5 is_stmt 1 view .LVU419
 1562              		.loc 1 197 5 view .LVU420
 1563 0002 68B9     		cbnz	r0, .L167
 1564 0004 0246     		mov	r2, r0
 1565              		.loc 1 197 5 discriminator 2 view .LVU421
 198:../switch_sdk/core/yt/yt_l2.c ****     CMM_PARAM_CHK(NULL == YT_DISPATCH(unit), CMM_ERR_NOT_INIT);
 1566              		.loc 1 198 5 discriminator 2 view .LVU422
 1567              		.loc 1 198 5 discriminator 2 view .LVU423
 1568 0006 224B     		ldr	r3, .L175
 1569 0008 53F82030 		ldr	r3, [r3, r0, lsl #2]
 1570 000c B3B1     		cbz	r3, .L168
 1571              		.loc 1 198 5 discriminator 2 view .LVU424
 199:../switch_sdk/core/yt/yt_l2.c ****     CMM_PARAM_CHK((!(YT_DISPATCH(unit)->is_inited)), CMM_ERR_NOT_INIT);
 1572              		.loc 1 199 5 discriminator 2 view .LVU425
 1573              		.loc 1 199 5 discriminator 2 view .LVU426
 1574 000e 1878     		ldrb	r0, [r3]	@ zero_extendqisi2
 1575              	.LVL176:
 1576              		.loc 1 199 5 is_stmt 0 discriminator 2 view .LVU427
 1577 0010 10B3     		cbz	r0, .L169
 1578              		.loc 1 199 5 is_stmt 1 discriminator 2 view .LVU428
 200:../switch_sdk/core/yt/yt_l2.c ****     CMM_PARAM_CHK((NULL == pEnable), CMM_ERR_NULL_POINT);
 1579              		.loc 1 200 5 discriminator 2 view .LVU429
 1580              		.loc 1 200 5 discriminator 2 view .LVU430
 1581 0012 0029     		cmp	r1, #0
 1582 0014 2ED0     		beq	.L170
 1583              		.loc 1 200 5 discriminator 2 view .LVU431
 201:../switch_sdk/core/yt/yt_l2.c **** 
 202:../switch_sdk/core/yt/yt_l2.c ****     return YT_DISPATCH(unit)->l2_fdb_linkdownFlush_en_get(unit, pEnable);
 1584              		.loc 1 202 5 discriminator 2 view .LVU432
 1585              		.loc 1 202 29 is_stmt 0 discriminator 2 view .LVU433
 1586 0016 D3F85833 		ldr	r3, [r3, #856]
 1587              		.loc 1 202 12 discriminator 2 view .LVU434
 1588 001a 1046     		mov	r0, r2
 1589 001c 9847     		blx	r3
 1590              	.LVL177:
 1591              	.L156:
 203:../switch_sdk/core/yt/yt_l2.c **** }
 1592              		.loc 1 203 1 view .LVU435
 1593 001e 08BD     		pop	{r3, pc}
 1594              	.LVL178:
 1595              	.L167:
 197:../switch_sdk/core/yt/yt_l2.c ****     CMM_PARAM_CHK(NULL == YT_DISPATCH(unit), CMM_ERR_NOT_INIT);
 1596              		.loc 1 197 5 is_stmt 1 discriminator 1 view .LVU436
 197:../switch_sdk/core/yt/yt_l2.c ****     CMM_PARAM_CHK(NULL == YT_DISPATCH(unit), CMM_ERR_NOT_INIT);
 1597              		.loc 1 197 5 discriminator 1 view .LVU437
 1598 0020 1C4B     		ldr	r3, .L175+4
 1599 0022 1B78     		ldrb	r3, [r3]	@ zero_extendqisi2
 1600 0024 012B     		cmp	r3, #1
 1601 0026 01D8     		bhi	.L171
 1602              	.LVL179:
 1603              	.L158:
 197:../switch_sdk/core/yt/yt_l2.c ****     CMM_PARAM_CHK(NULL == YT_DISPATCH(unit), CMM_ERR_NOT_INIT);
 1604              		.loc 1 197 5 discriminator 5 view .LVU438
 197:../switch_sdk/core/yt/yt_l2.c ****     CMM_PARAM_CHK(NULL == YT_DISPATCH(unit), CMM_ERR_NOT_INIT);
 1605              		.loc 1 197 5 discriminator 5 view .LVU439
 197:../switch_sdk/core/yt/yt_l2.c ****     CMM_PARAM_CHK(NULL == YT_DISPATCH(unit), CMM_ERR_NOT_INIT);
 1606              		.loc 1 197 5 discriminator 5 view .LVU440
 1607 0028 0520     		movs	r0, #5
 1608 002a F8E7     		b	.L156
 1609              	.LVL180:
 1610              	.L171:
 197:../switch_sdk/core/yt/yt_l2.c ****     CMM_PARAM_CHK(NULL == YT_DISPATCH(unit), CMM_ERR_NOT_INIT);
 1611              		.loc 1 197 5 discriminator 3 view .LVU441
 1612              	.LBB32:
 197:../switch_sdk/core/yt/yt_l2.c ****     CMM_PARAM_CHK(NULL == YT_DISPATCH(unit), CMM_ERR_NOT_INIT);
 1613              		.loc 1 197 5 discriminator 3 view .LVU442
 1614 002c 1A4B     		ldr	r3, .L175+8
 1615 002e 5A69     		ldr	r2, [r3, #20]
 1616 0030 1A4B     		ldr	r3, .L175+12
 1617 0032 9968     		ldr	r1, [r3, #8]
 1618              	.LVL181:
 197:../switch_sdk/core/yt/yt_l2.c ****     CMM_PARAM_CHK(NULL == YT_DISPATCH(unit), CMM_ERR_NOT_INIT);
 1619              		.loc 1 197 5 is_stmt 0 discriminator 3 view .LVU443
 1620 0034 1A48     		ldr	r0, .L175+16
 1621              	.LVL182:
 197:../switch_sdk/core/yt/yt_l2.c ****     CMM_PARAM_CHK(NULL == YT_DISPATCH(unit), CMM_ERR_NOT_INIT);
 1622              		.loc 1 197 5 discriminator 3 view .LVU444
 1623 0036 FFF7FEFF 		bl	osal_printf
 1624              	.LVL183:
 1625 003a F5E7     		b	.L158
 1626              	.LVL184:
 1627              	.L168:
 197:../switch_sdk/core/yt/yt_l2.c ****     CMM_PARAM_CHK(NULL == YT_DISPATCH(unit), CMM_ERR_NOT_INIT);
 1628              		.loc 1 197 5 discriminator 3 view .LVU445
 1629              	.LBE32:
 198:../switch_sdk/core/yt/yt_l2.c ****     CMM_PARAM_CHK((!(YT_DISPATCH(unit)->is_inited)), CMM_ERR_NOT_INIT);
 1630              		.loc 1 198 5 is_stmt 1 discriminator 1 view .LVU446
 198:../switch_sdk/core/yt/yt_l2.c ****     CMM_PARAM_CHK((!(YT_DISPATCH(unit)->is_inited)), CMM_ERR_NOT_INIT);
 1631              		.loc 1 198 5 discriminator 1 view .LVU447
 1632 003c 154B     		ldr	r3, .L175+4
 1633 003e 1B78     		ldrb	r3, [r3]	@ zero_extendqisi2
 1634 0040 012B     		cmp	r3, #1
 1635 0042 01D8     		bhi	.L172
 1636              	.LVL185:
 1637              	.L161:
 198:../switch_sdk/core/yt/yt_l2.c ****     CMM_PARAM_CHK((!(YT_DISPATCH(unit)->is_inited)), CMM_ERR_NOT_INIT);
 1638              		.loc 1 198 5 discriminator 5 view .LVU448
 198:../switch_sdk/core/yt/yt_l2.c ****     CMM_PARAM_CHK((!(YT_DISPATCH(unit)->is_inited)), CMM_ERR_NOT_INIT);
 1639              		.loc 1 198 5 discriminator 5 view .LVU449
 198:../switch_sdk/core/yt/yt_l2.c ****     CMM_PARAM_CHK((!(YT_DISPATCH(unit)->is_inited)), CMM_ERR_NOT_INIT);
 1640              		.loc 1 198 5 discriminator 5 view .LVU450
 1641 0044 0420     		movs	r0, #4
 1642 0046 EAE7     		b	.L156
 1643              	.LVL186:
 1644              	.L172:
 198:../switch_sdk/core/yt/yt_l2.c ****     CMM_PARAM_CHK((!(YT_DISPATCH(unit)->is_inited)), CMM_ERR_NOT_INIT);
 1645              		.loc 1 198 5 discriminator 3 view .LVU451
 1646              	.LBB33:
 198:../switch_sdk/core/yt/yt_l2.c ****     CMM_PARAM_CHK((!(YT_DISPATCH(unit)->is_inited)), CMM_ERR_NOT_INIT);
 1647              		.loc 1 198 5 discriminator 3 view .LVU452
 1648 0048 134B     		ldr	r3, .L175+8
 1649 004a 1A69     		ldr	r2, [r3, #16]
 1650 004c 134B     		ldr	r3, .L175+12
 1651 004e 9968     		ldr	r1, [r3, #8]
 1652              	.LVL187:
 198:../switch_sdk/core/yt/yt_l2.c ****     CMM_PARAM_CHK((!(YT_DISPATCH(unit)->is_inited)), CMM_ERR_NOT_INIT);
 1653              		.loc 1 198 5 is_stmt 0 discriminator 3 view .LVU453
 1654 0050 1348     		ldr	r0, .L175+16
 1655              	.LVL188:
 198:../switch_sdk/core/yt/yt_l2.c ****     CMM_PARAM_CHK((!(YT_DISPATCH(unit)->is_inited)), CMM_ERR_NOT_INIT);
 1656              		.loc 1 198 5 discriminator 3 view .LVU454
 1657 0052 FFF7FEFF 		bl	osal_printf
 1658              	.LVL189:
 1659 0056 F5E7     		b	.L161
 1660              	.LVL190:
 1661              	.L169:
 198:../switch_sdk/core/yt/yt_l2.c ****     CMM_PARAM_CHK((!(YT_DISPATCH(unit)->is_inited)), CMM_ERR_NOT_INIT);
 1662              		.loc 1 198 5 discriminator 3 view .LVU455
 1663              	.LBE33:
 199:../switch_sdk/core/yt/yt_l2.c ****     CMM_PARAM_CHK((NULL == pEnable), CMM_ERR_NULL_POINT);
 1664              		.loc 1 199 5 is_stmt 1 discriminator 1 view .LVU456
 199:../switch_sdk/core/yt/yt_l2.c ****     CMM_PARAM_CHK((NULL == pEnable), CMM_ERR_NULL_POINT);
 1665              		.loc 1 199 5 discriminator 1 view .LVU457
 1666 0058 0E4B     		ldr	r3, .L175+4
 1667 005a 1B78     		ldrb	r3, [r3]	@ zero_extendqisi2
 1668 005c 012B     		cmp	r3, #1
 1669 005e 01D8     		bhi	.L173
 1670              	.LVL191:
 1671              	.L163:
 199:../switch_sdk/core/yt/yt_l2.c ****     CMM_PARAM_CHK((NULL == pEnable), CMM_ERR_NULL_POINT);
 1672              		.loc 1 199 5 discriminator 5 view .LVU458
 199:../switch_sdk/core/yt/yt_l2.c ****     CMM_PARAM_CHK((NULL == pEnable), CMM_ERR_NULL_POINT);
 1673              		.loc 1 199 5 discriminator 5 view .LVU459
 199:../switch_sdk/core/yt/yt_l2.c ****     CMM_PARAM_CHK((NULL == pEnable), CMM_ERR_NULL_POINT);
 1674              		.loc 1 199 5 discriminator 5 view .LVU460
 1675 0060 0420     		movs	r0, #4
 1676 0062 DCE7     		b	.L156
 1677              	.LVL192:
 1678              	.L173:
 199:../switch_sdk/core/yt/yt_l2.c ****     CMM_PARAM_CHK((NULL == pEnable), CMM_ERR_NULL_POINT);
 1679              		.loc 1 199 5 discriminator 3 view .LVU461
 1680              	.LBB34:
 199:../switch_sdk/core/yt/yt_l2.c ****     CMM_PARAM_CHK((NULL == pEnable), CMM_ERR_NULL_POINT);
 1681              		.loc 1 199 5 discriminator 3 view .LVU462
 1682 0064 0C4B     		ldr	r3, .L175+8
 1683 0066 1A69     		ldr	r2, [r3, #16]
 1684 0068 0C4B     		ldr	r3, .L175+12
 1685 006a 9968     		ldr	r1, [r3, #8]
 1686              	.LVL193:
 199:../switch_sdk/core/yt/yt_l2.c ****     CMM_PARAM_CHK((NULL == pEnable), CMM_ERR_NULL_POINT);
 1687              		.loc 1 199 5 is_stmt 0 discriminator 3 view .LVU463
 1688 006c 0C48     		ldr	r0, .L175+16
 1689 006e FFF7FEFF 		bl	osal_printf
 1690              	.LVL194:
 1691 0072 F5E7     		b	.L163
 1692              	.LVL195:
 1693              	.L170:
 199:../switch_sdk/core/yt/yt_l2.c ****     CMM_PARAM_CHK((NULL == pEnable), CMM_ERR_NULL_POINT);
 1694              		.loc 1 199 5 discriminator 3 view .LVU464
 1695              	.LBE34:
 200:../switch_sdk/core/yt/yt_l2.c **** 
 1696              		.loc 1 200 5 is_stmt 1 discriminator 1 view .LVU465
 200:../switch_sdk/core/yt/yt_l2.c **** 
 1697              		.loc 1 200 5 discriminator 1 view .LVU466
 1698 0074 074B     		ldr	r3, .L175+4
 1699 0076 1B78     		ldrb	r3, [r3]	@ zero_extendqisi2
 1700 0078 012B     		cmp	r3, #1
 1701 007a 01D8     		bhi	.L174
 1702              	.LVL196:
 1703              	.L165:
 200:../switch_sdk/core/yt/yt_l2.c **** 
 1704              		.loc 1 200 5 discriminator 5 view .LVU467
 200:../switch_sdk/core/yt/yt_l2.c **** 
 1705              		.loc 1 200 5 discriminator 5 view .LVU468
 200:../switch_sdk/core/yt/yt_l2.c **** 
 1706              		.loc 1 200 5 discriminator 5 view .LVU469
 1707 007c 0220     		movs	r0, #2
 1708 007e CEE7     		b	.L156
 1709              	.LVL197:
 1710              	.L174:
 200:../switch_sdk/core/yt/yt_l2.c **** 
 1711              		.loc 1 200 5 discriminator 3 view .LVU470
 1712              	.LBB35:
 200:../switch_sdk/core/yt/yt_l2.c **** 
 1713              		.loc 1 200 5 discriminator 3 view .LVU471
 1714 0080 054B     		ldr	r3, .L175+8
 1715 0082 9A68     		ldr	r2, [r3, #8]
 1716 0084 054B     		ldr	r3, .L175+12
 1717 0086 9968     		ldr	r1, [r3, #8]
 1718              	.LVL198:
 200:../switch_sdk/core/yt/yt_l2.c **** 
 1719              		.loc 1 200 5 is_stmt 0 discriminator 3 view .LVU472
 1720 0088 0548     		ldr	r0, .L175+16
 1721 008a FFF7FEFF 		bl	osal_printf
 1722              	.LVL199:
 1723 008e F5E7     		b	.L165
 1724              	.L176:
 1725              		.align	2
 1726              	.L175:
 1727 0090 00000000 		.word	gpfal_dispatch
 1728 0094 00000000 		.word	yt_debug_level
 1729 0098 00000000 		.word	_yt_errmsg
 1730 009c 00000000 		.word	_yt_prompt_msg
 1731 00a0 00000000 		.word	.LC0
 1732              	.LBE35:
 1733              		.cfi_endproc
 1734              	.LFE10:
 1736              		.section	.text.yt_l2_fdb_all_ucast_flush,"ax",%progbits
 1737              		.align	1
 1738              		.global	yt_l2_fdb_all_ucast_flush
 1739              		.syntax unified
 1740              		.thumb
 1741              		.thumb_func
 1743              	yt_l2_fdb_all_ucast_flush:
 1744              	.LVL200:
 1745              	.LFB11:
 204:../switch_sdk/core/yt/yt_l2.c **** 
 205:../switch_sdk/core/yt/yt_l2.c **** /**
 206:../switch_sdk/core/yt/yt_l2.c ****  * @internal      yt_l2_fdb_all_ucast_flush
 207:../switch_sdk/core/yt/yt_l2.c ****  * @endinternal
 208:../switch_sdk/core/yt/yt_l2.c ****  *
 209:../switch_sdk/core/yt/yt_l2.c ****  * @brief         Description
 210:../switch_sdk/core/yt/yt_l2.c ****  * @note          APPLICABLE DEVICES  -Tiger
 211:../switch_sdk/core/yt/yt_l2.c ****  * @param[in]     unit                -unit id
 212:../switch_sdk/core/yt/yt_l2.c ****  * @retval        CMM_ERR_OK          -on success
 213:../switch_sdk/core/yt/yt_l2.c ****  * @retval        CMM_ERR_FAIL        -on fail
 214:../switch_sdk/core/yt/yt_l2.c ****  */
 215:../switch_sdk/core/yt/yt_l2.c **** yt_ret_t yt_l2_fdb_all_ucast_flush(yt_unit_t unit)
 216:../switch_sdk/core/yt/yt_l2.c **** {
 1746              		.loc 1 216 1 is_stmt 1 view -0
 1747              		.cfi_startproc
 1748              		@ args = 0, pretend = 0, frame = 0
 1749              		@ frame_needed = 0, uses_anonymous_args = 0
 1750              		.loc 1 216 1 is_stmt 0 view .LVU474
 1751 0000 08B5     		push	{r3, lr}
 1752              		.cfi_def_cfa_offset 8
 1753              		.cfi_offset 3, -8
 1754              		.cfi_offset 14, -4
 217:../switch_sdk/core/yt/yt_l2.c ****     CMM_PARAM_CHK((YT_UNIT_NUM <= unit), CMM_ERR_INPUT);
 1755              		.loc 1 217 5 is_stmt 1 view .LVU475
 1756              		.loc 1 217 5 view .LVU476
 1757 0002 48B9     		cbnz	r0, .L186
 1758              		.loc 1 217 5 discriminator 2 view .LVU477
 218:../switch_sdk/core/yt/yt_l2.c ****     CMM_PARAM_CHK(NULL == YT_DISPATCH(unit), CMM_ERR_NOT_INIT);
 1759              		.loc 1 218 5 discriminator 2 view .LVU478
 1760              		.loc 1 218 5 discriminator 2 view .LVU479
 1761 0004 194B     		ldr	r3, .L192
 1762 0006 53F82030 		ldr	r3, [r3, r0, lsl #2]
 1763 000a 9BB1     		cbz	r3, .L187
 1764              		.loc 1 218 5 discriminator 2 view .LVU480
 219:../switch_sdk/core/yt/yt_l2.c ****     CMM_PARAM_CHK((!(YT_DISPATCH(unit)->is_inited)), CMM_ERR_NOT_INIT);
 1765              		.loc 1 219 5 discriminator 2 view .LVU481
 1766              		.loc 1 219 5 discriminator 2 view .LVU482
 1767 000c 1978     		ldrb	r1, [r3]	@ zero_extendqisi2
 1768 000e F9B1     		cbz	r1, .L188
 1769              		.loc 1 219 5 discriminator 2 view .LVU483
 220:../switch_sdk/core/yt/yt_l2.c **** 
 221:../switch_sdk/core/yt/yt_l2.c ****     return YT_DISPATCH(unit)->l2_fdb_all_ucast_flush(unit);
 1770              		.loc 1 221 5 discriminator 2 view .LVU484
 1771              		.loc 1 221 29 is_stmt 0 discriminator 2 view .LVU485
 1772 0010 D3F85C33 		ldr	r3, [r3, #860]
 1773              		.loc 1 221 12 discriminator 2 view .LVU486
 1774 0014 9847     		blx	r3
 1775              	.LVL201:
 1776              	.L177:
 222:../switch_sdk/core/yt/yt_l2.c **** }
 1777              		.loc 1 222 1 view .LVU487
 1778 0016 08BD     		pop	{r3, pc}
 1779              	.LVL202:
 1780              	.L186:
 217:../switch_sdk/core/yt/yt_l2.c ****     CMM_PARAM_CHK(NULL == YT_DISPATCH(unit), CMM_ERR_NOT_INIT);
 1781              		.loc 1 217 5 is_stmt 1 discriminator 1 view .LVU488
 217:../switch_sdk/core/yt/yt_l2.c ****     CMM_PARAM_CHK(NULL == YT_DISPATCH(unit), CMM_ERR_NOT_INIT);
 1782              		.loc 1 217 5 discriminator 1 view .LVU489
 1783 0018 154B     		ldr	r3, .L192+4
 1784 001a 1B78     		ldrb	r3, [r3]	@ zero_extendqisi2
 1785 001c 012B     		cmp	r3, #1
 1786 001e 01D8     		bhi	.L189
 1787              	.LVL203:
 1788              	.L179:
 217:../switch_sdk/core/yt/yt_l2.c ****     CMM_PARAM_CHK(NULL == YT_DISPATCH(unit), CMM_ERR_NOT_INIT);
 1789              		.loc 1 217 5 discriminator 5 view .LVU490
 217:../switch_sdk/core/yt/yt_l2.c ****     CMM_PARAM_CHK(NULL == YT_DISPATCH(unit), CMM_ERR_NOT_INIT);
 1790              		.loc 1 217 5 discriminator 5 view .LVU491
 217:../switch_sdk/core/yt/yt_l2.c ****     CMM_PARAM_CHK(NULL == YT_DISPATCH(unit), CMM_ERR_NOT_INIT);
 1791              		.loc 1 217 5 discriminator 5 view .LVU492
 1792 0020 0520     		movs	r0, #5
 1793 0022 F8E7     		b	.L177
 1794              	.LVL204:
 1795              	.L189:
 217:../switch_sdk/core/yt/yt_l2.c ****     CMM_PARAM_CHK(NULL == YT_DISPATCH(unit), CMM_ERR_NOT_INIT);
 1796              		.loc 1 217 5 discriminator 3 view .LVU493
 1797              	.LBB36:
 217:../switch_sdk/core/yt/yt_l2.c ****     CMM_PARAM_CHK(NULL == YT_DISPATCH(unit), CMM_ERR_NOT_INIT);
 1798              		.loc 1 217 5 discriminator 3 view .LVU494
 1799 0024 134B     		ldr	r3, .L192+8
 1800 0026 5A69     		ldr	r2, [r3, #20]
 1801 0028 134B     		ldr	r3, .L192+12
 1802 002a 9968     		ldr	r1, [r3, #8]
 1803 002c 1348     		ldr	r0, .L192+16
 1804              	.LVL205:
 217:../switch_sdk/core/yt/yt_l2.c ****     CMM_PARAM_CHK(NULL == YT_DISPATCH(unit), CMM_ERR_NOT_INIT);
 1805              		.loc 1 217 5 is_stmt 0 discriminator 3 view .LVU495
 1806 002e FFF7FEFF 		bl	osal_printf
 1807              	.LVL206:
 1808 0032 F5E7     		b	.L179
 1809              	.LVL207:
 1810              	.L187:
 217:../switch_sdk/core/yt/yt_l2.c ****     CMM_PARAM_CHK(NULL == YT_DISPATCH(unit), CMM_ERR_NOT_INIT);
 1811              		.loc 1 217 5 discriminator 3 view .LVU496
 1812              	.LBE36:
 218:../switch_sdk/core/yt/yt_l2.c ****     CMM_PARAM_CHK((!(YT_DISPATCH(unit)->is_inited)), CMM_ERR_NOT_INIT);
 1813              		.loc 1 218 5 is_stmt 1 discriminator 1 view .LVU497
 218:../switch_sdk/core/yt/yt_l2.c ****     CMM_PARAM_CHK((!(YT_DISPATCH(unit)->is_inited)), CMM_ERR_NOT_INIT);
 1814              		.loc 1 218 5 discriminator 1 view .LVU498
 1815 0034 0E4B     		ldr	r3, .L192+4
 1816 0036 1B78     		ldrb	r3, [r3]	@ zero_extendqisi2
 1817 0038 012B     		cmp	r3, #1
 1818 003a 01D8     		bhi	.L190
 1819              	.LVL208:
 1820              	.L182:
 218:../switch_sdk/core/yt/yt_l2.c ****     CMM_PARAM_CHK((!(YT_DISPATCH(unit)->is_inited)), CMM_ERR_NOT_INIT);
 1821              		.loc 1 218 5 discriminator 5 view .LVU499
 218:../switch_sdk/core/yt/yt_l2.c ****     CMM_PARAM_CHK((!(YT_DISPATCH(unit)->is_inited)), CMM_ERR_NOT_INIT);
 1822              		.loc 1 218 5 discriminator 5 view .LVU500
 218:../switch_sdk/core/yt/yt_l2.c ****     CMM_PARAM_CHK((!(YT_DISPATCH(unit)->is_inited)), CMM_ERR_NOT_INIT);
 1823              		.loc 1 218 5 discriminator 5 view .LVU501
 1824 003c 0420     		movs	r0, #4
 1825 003e EAE7     		b	.L177
 1826              	.LVL209:
 1827              	.L190:
 218:../switch_sdk/core/yt/yt_l2.c ****     CMM_PARAM_CHK((!(YT_DISPATCH(unit)->is_inited)), CMM_ERR_NOT_INIT);
 1828              		.loc 1 218 5 discriminator 3 view .LVU502
 1829              	.LBB37:
 218:../switch_sdk/core/yt/yt_l2.c ****     CMM_PARAM_CHK((!(YT_DISPATCH(unit)->is_inited)), CMM_ERR_NOT_INIT);
 1830              		.loc 1 218 5 discriminator 3 view .LVU503
 1831 0040 0C4B     		ldr	r3, .L192+8
 1832 0042 1A69     		ldr	r2, [r3, #16]
 1833 0044 0C4B     		ldr	r3, .L192+12
 1834 0046 9968     		ldr	r1, [r3, #8]
 1835 0048 0C48     		ldr	r0, .L192+16
 1836              	.LVL210:
 218:../switch_sdk/core/yt/yt_l2.c ****     CMM_PARAM_CHK((!(YT_DISPATCH(unit)->is_inited)), CMM_ERR_NOT_INIT);
 1837              		.loc 1 218 5 is_stmt 0 discriminator 3 view .LVU504
 1838 004a FFF7FEFF 		bl	osal_printf
 1839              	.LVL211:
 1840 004e F5E7     		b	.L182
 1841              	.LVL212:
 1842              	.L188:
 218:../switch_sdk/core/yt/yt_l2.c ****     CMM_PARAM_CHK((!(YT_DISPATCH(unit)->is_inited)), CMM_ERR_NOT_INIT);
 1843              		.loc 1 218 5 discriminator 3 view .LVU505
 1844              	.LBE37:
 219:../switch_sdk/core/yt/yt_l2.c **** 
 1845              		.loc 1 219 5 is_stmt 1 discriminator 1 view .LVU506
 219:../switch_sdk/core/yt/yt_l2.c **** 
 1846              		.loc 1 219 5 discriminator 1 view .LVU507
 1847 0050 074B     		ldr	r3, .L192+4
 1848 0052 1B78     		ldrb	r3, [r3]	@ zero_extendqisi2
 1849 0054 012B     		cmp	r3, #1
 1850 0056 01D8     		bhi	.L191
 1851              	.LVL213:
 1852              	.L184:
 219:../switch_sdk/core/yt/yt_l2.c **** 
 1853              		.loc 1 219 5 discriminator 5 view .LVU508
 219:../switch_sdk/core/yt/yt_l2.c **** 
 1854              		.loc 1 219 5 discriminator 5 view .LVU509
 219:../switch_sdk/core/yt/yt_l2.c **** 
 1855              		.loc 1 219 5 discriminator 5 view .LVU510
 1856 0058 0420     		movs	r0, #4
 1857 005a DCE7     		b	.L177
 1858              	.LVL214:
 1859              	.L191:
 219:../switch_sdk/core/yt/yt_l2.c **** 
 1860              		.loc 1 219 5 discriminator 3 view .LVU511
 1861              	.LBB38:
 219:../switch_sdk/core/yt/yt_l2.c **** 
 1862              		.loc 1 219 5 discriminator 3 view .LVU512
 1863 005c 054B     		ldr	r3, .L192+8
 1864 005e 1A69     		ldr	r2, [r3, #16]
 1865 0060 054B     		ldr	r3, .L192+12
 1866 0062 9968     		ldr	r1, [r3, #8]
 1867 0064 0548     		ldr	r0, .L192+16
 1868              	.LVL215:
 219:../switch_sdk/core/yt/yt_l2.c **** 
 1869              		.loc 1 219 5 is_stmt 0 discriminator 3 view .LVU513
 1870 0066 FFF7FEFF 		bl	osal_printf
 1871              	.LVL216:
 1872 006a F5E7     		b	.L184
 1873              	.L193:
 1874              		.align	2
 1875              	.L192:
 1876 006c 00000000 		.word	gpfal_dispatch
 1877 0070 00000000 		.word	yt_debug_level
 1878 0074 00000000 		.word	_yt_errmsg
 1879 0078 00000000 		.word	_yt_prompt_msg
 1880 007c 00000000 		.word	.LC0
 1881              	.LBE38:
 1882              		.cfi_endproc
 1883              	.LFE11:
 1885              		.section	.text.yt_l2_fdb_port_ucast_flush,"ax",%progbits
 1886              		.align	1
 1887              		.global	yt_l2_fdb_port_ucast_flush
 1888              		.syntax unified
 1889              		.thumb
 1890              		.thumb_func
 1892              	yt_l2_fdb_port_ucast_flush:
 1893              	.LVL217:
 1894              	.LFB12:
 223:../switch_sdk/core/yt/yt_l2.c **** 
 224:../switch_sdk/core/yt/yt_l2.c **** /**
 225:../switch_sdk/core/yt/yt_l2.c ****  * @internal      yt_l2_fdb_port_ucast_flush
 226:../switch_sdk/core/yt/yt_l2.c ****  * @endinternal
 227:../switch_sdk/core/yt/yt_l2.c ****  *
 228:../switch_sdk/core/yt/yt_l2.c ****  * @brief         Description
 229:../switch_sdk/core/yt/yt_l2.c ****  * @note          APPLICABLE DEVICES  -Tiger
 230:../switch_sdk/core/yt/yt_l2.c ****  * @param[in]     unit                -unit id
 231:../switch_sdk/core/yt/yt_l2.c ****  * @param[in]     port                -port num
 232:../switch_sdk/core/yt/yt_l2.c ****  * @retval        CMM_ERR_OK          -on success
 233:../switch_sdk/core/yt/yt_l2.c ****  * @retval        CMM_ERR_FAIL        -on fail
 234:../switch_sdk/core/yt/yt_l2.c ****  */
 235:../switch_sdk/core/yt/yt_l2.c **** yt_ret_t yt_l2_fdb_port_ucast_flush(yt_unit_t unit, yt_port_t port)
 236:../switch_sdk/core/yt/yt_l2.c **** {
 1895              		.loc 1 236 1 is_stmt 1 view -0
 1896              		.cfi_startproc
 1897              		@ args = 0, pretend = 0, frame = 0
 1898              		@ frame_needed = 0, uses_anonymous_args = 0
 1899              		.loc 1 236 1 is_stmt 0 view .LVU515
 1900 0000 08B5     		push	{r3, lr}
 1901              		.cfi_def_cfa_offset 8
 1902              		.cfi_offset 3, -8
 1903              		.cfi_offset 14, -4
 237:../switch_sdk/core/yt/yt_l2.c ****     CMM_PARAM_CHK((YT_UNIT_NUM <= unit), CMM_ERR_INPUT);
 1904              		.loc 1 237 5 is_stmt 1 view .LVU516
 1905              		.loc 1 237 5 view .LVU517
 1906 0002 A8B9     		cbnz	r0, .L206
 1907 0004 0246     		mov	r2, r0
 1908              		.loc 1 237 5 discriminator 2 view .LVU518
 238:../switch_sdk/core/yt/yt_l2.c ****     CMM_PARAM_CHK(NULL == YT_DISPATCH(unit), CMM_ERR_NOT_INIT);
 1909              		.loc 1 238 5 discriminator 2 view .LVU519
 1910              		.loc 1 238 5 discriminator 2 view .LVU520
 1911 0006 264B     		ldr	r3, .L213
 1912 0008 53F82030 		ldr	r3, [r3, r0, lsl #2]
 1913 000c F3B1     		cbz	r3, .L207
 1914              		.loc 1 238 5 discriminator 2 view .LVU521
 239:../switch_sdk/core/yt/yt_l2.c ****     CMM_PARAM_CHK((!(YT_DISPATCH(unit)->is_inited)), CMM_ERR_NOT_INIT);
 1915              		.loc 1 239 5 discriminator 2 view .LVU522
 1916              		.loc 1 239 5 discriminator 2 view .LVU523
 1917 000e 1878     		ldrb	r0, [r3]	@ zero_extendqisi2
 1918              	.LVL218:
 1919              		.loc 1 239 5 is_stmt 0 discriminator 2 view .LVU524
 1920 0010 50B3     		cbz	r0, .L208
 1921              		.loc 1 239 5 is_stmt 1 discriminator 2 view .LVU525
 240:../switch_sdk/core/yt/yt_l2.c ****     CMM_PARAM_CHK((!(CMM_PORT_VALID(unit, port))), CMM_ERR_PORT);
 1922              		.loc 1 240 5 discriminator 2 view .LVU526
 1923              		.loc 1 240 5 discriminator 2 view .LVU527
 1924 0012 2448     		ldr	r0, .L213+4
 1925 0014 0078     		ldrb	r0, [r0]	@ zero_extendqisi2
 1926 0016 0028     		cmp	r0, #0
 1927 0018 34D0     		beq	.L202
 1928 001a 2348     		ldr	r0, .L213+8
 1929 001c 50F82200 		ldr	r0, [r0, r2, lsl #2]
 1930 0020 007D     		ldrb	r0, [r0, #20]	@ zero_extendqisi2
 1931 0022 8842     		cmp	r0, r1
 1932 0024 2ED9     		bls	.L202
 1933              		.loc 1 240 5 discriminator 4 view .LVU528
 241:../switch_sdk/core/yt/yt_l2.c **** 
 242:../switch_sdk/core/yt/yt_l2.c ****     return YT_DISPATCH(unit)->l2_fdb_port_ucast_flush(unit, port);
 1934              		.loc 1 242 5 discriminator 4 view .LVU529
 1935              		.loc 1 242 29 is_stmt 0 discriminator 4 view .LVU530
 1936 0026 D3F86033 		ldr	r3, [r3, #864]
 1937              		.loc 1 242 12 discriminator 4 view .LVU531
 1938 002a 1046     		mov	r0, r2
 1939 002c 9847     		blx	r3
 1940              	.LVL219:
 1941              	.L194:
 243:../switch_sdk/core/yt/yt_l2.c **** }
 1942              		.loc 1 243 1 view .LVU532
 1943 002e 08BD     		pop	{r3, pc}
 1944              	.LVL220:
 1945              	.L206:
 237:../switch_sdk/core/yt/yt_l2.c ****     CMM_PARAM_CHK(NULL == YT_DISPATCH(unit), CMM_ERR_NOT_INIT);
 1946              		.loc 1 237 5 is_stmt 1 discriminator 1 view .LVU533
 237:../switch_sdk/core/yt/yt_l2.c ****     CMM_PARAM_CHK(NULL == YT_DISPATCH(unit), CMM_ERR_NOT_INIT);
 1947              		.loc 1 237 5 discriminator 1 view .LVU534
 1948 0030 1E4B     		ldr	r3, .L213+12
 1949 0032 1B78     		ldrb	r3, [r3]	@ zero_extendqisi2
 1950 0034 012B     		cmp	r3, #1
 1951 0036 01D8     		bhi	.L209
 1952              	.LVL221:
 1953              	.L196:
 237:../switch_sdk/core/yt/yt_l2.c ****     CMM_PARAM_CHK(NULL == YT_DISPATCH(unit), CMM_ERR_NOT_INIT);
 1954              		.loc 1 237 5 discriminator 5 view .LVU535
 237:../switch_sdk/core/yt/yt_l2.c ****     CMM_PARAM_CHK(NULL == YT_DISPATCH(unit), CMM_ERR_NOT_INIT);
 1955              		.loc 1 237 5 discriminator 5 view .LVU536
 237:../switch_sdk/core/yt/yt_l2.c ****     CMM_PARAM_CHK(NULL == YT_DISPATCH(unit), CMM_ERR_NOT_INIT);
 1956              		.loc 1 237 5 discriminator 5 view .LVU537
 1957 0038 0520     		movs	r0, #5
 1958 003a F8E7     		b	.L194
 1959              	.LVL222:
 1960              	.L209:
 237:../switch_sdk/core/yt/yt_l2.c ****     CMM_PARAM_CHK(NULL == YT_DISPATCH(unit), CMM_ERR_NOT_INIT);
 1961              		.loc 1 237 5 discriminator 3 view .LVU538
 1962              	.LBB39:
 237:../switch_sdk/core/yt/yt_l2.c ****     CMM_PARAM_CHK(NULL == YT_DISPATCH(unit), CMM_ERR_NOT_INIT);
 1963              		.loc 1 237 5 discriminator 3 view .LVU539
 1964 003c 1C4B     		ldr	r3, .L213+16
 1965 003e 5A69     		ldr	r2, [r3, #20]
 1966 0040 1C4B     		ldr	r3, .L213+20
 1967 0042 9968     		ldr	r1, [r3, #8]
 1968              	.LVL223:
 237:../switch_sdk/core/yt/yt_l2.c ****     CMM_PARAM_CHK(NULL == YT_DISPATCH(unit), CMM_ERR_NOT_INIT);
 1969              		.loc 1 237 5 is_stmt 0 discriminator 3 view .LVU540
 1970 0044 1C48     		ldr	r0, .L213+24
 1971              	.LVL224:
 237:../switch_sdk/core/yt/yt_l2.c ****     CMM_PARAM_CHK(NULL == YT_DISPATCH(unit), CMM_ERR_NOT_INIT);
 1972              		.loc 1 237 5 discriminator 3 view .LVU541
 1973 0046 FFF7FEFF 		bl	osal_printf
 1974              	.LVL225:
 1975 004a F5E7     		b	.L196
 1976              	.LVL226:
 1977              	.L207:
 237:../switch_sdk/core/yt/yt_l2.c ****     CMM_PARAM_CHK(NULL == YT_DISPATCH(unit), CMM_ERR_NOT_INIT);
 1978              		.loc 1 237 5 discriminator 3 view .LVU542
 1979              	.LBE39:
 238:../switch_sdk/core/yt/yt_l2.c ****     CMM_PARAM_CHK((!(YT_DISPATCH(unit)->is_inited)), CMM_ERR_NOT_INIT);
 1980              		.loc 1 238 5 is_stmt 1 discriminator 1 view .LVU543
 238:../switch_sdk/core/yt/yt_l2.c ****     CMM_PARAM_CHK((!(YT_DISPATCH(unit)->is_inited)), CMM_ERR_NOT_INIT);
 1981              		.loc 1 238 5 discriminator 1 view .LVU544
 1982 004c 174B     		ldr	r3, .L213+12
 1983 004e 1B78     		ldrb	r3, [r3]	@ zero_extendqisi2
 1984 0050 012B     		cmp	r3, #1
 1985 0052 01D8     		bhi	.L210
 1986              	.LVL227:
 1987              	.L199:
 238:../switch_sdk/core/yt/yt_l2.c ****     CMM_PARAM_CHK((!(YT_DISPATCH(unit)->is_inited)), CMM_ERR_NOT_INIT);
 1988              		.loc 1 238 5 discriminator 5 view .LVU545
 238:../switch_sdk/core/yt/yt_l2.c ****     CMM_PARAM_CHK((!(YT_DISPATCH(unit)->is_inited)), CMM_ERR_NOT_INIT);
 1989              		.loc 1 238 5 discriminator 5 view .LVU546
 238:../switch_sdk/core/yt/yt_l2.c ****     CMM_PARAM_CHK((!(YT_DISPATCH(unit)->is_inited)), CMM_ERR_NOT_INIT);
 1990              		.loc 1 238 5 discriminator 5 view .LVU547
 1991 0054 0420     		movs	r0, #4
 1992 0056 EAE7     		b	.L194
 1993              	.LVL228:
 1994              	.L210:
 238:../switch_sdk/core/yt/yt_l2.c ****     CMM_PARAM_CHK((!(YT_DISPATCH(unit)->is_inited)), CMM_ERR_NOT_INIT);
 1995              		.loc 1 238 5 discriminator 3 view .LVU548
 1996              	.LBB40:
 238:../switch_sdk/core/yt/yt_l2.c ****     CMM_PARAM_CHK((!(YT_DISPATCH(unit)->is_inited)), CMM_ERR_NOT_INIT);
 1997              		.loc 1 238 5 discriminator 3 view .LVU549
 1998 0058 154B     		ldr	r3, .L213+16
 1999 005a 1A69     		ldr	r2, [r3, #16]
 2000 005c 154B     		ldr	r3, .L213+20
 2001 005e 9968     		ldr	r1, [r3, #8]
 2002              	.LVL229:
 238:../switch_sdk/core/yt/yt_l2.c ****     CMM_PARAM_CHK((!(YT_DISPATCH(unit)->is_inited)), CMM_ERR_NOT_INIT);
 2003              		.loc 1 238 5 is_stmt 0 discriminator 3 view .LVU550
 2004 0060 1548     		ldr	r0, .L213+24
 2005              	.LVL230:
 238:../switch_sdk/core/yt/yt_l2.c ****     CMM_PARAM_CHK((!(YT_DISPATCH(unit)->is_inited)), CMM_ERR_NOT_INIT);
 2006              		.loc 1 238 5 discriminator 3 view .LVU551
 2007 0062 FFF7FEFF 		bl	osal_printf
 2008              	.LVL231:
 2009 0066 F5E7     		b	.L199
 2010              	.LVL232:
 2011              	.L208:
 238:../switch_sdk/core/yt/yt_l2.c ****     CMM_PARAM_CHK((!(YT_DISPATCH(unit)->is_inited)), CMM_ERR_NOT_INIT);
 2012              		.loc 1 238 5 discriminator 3 view .LVU552
 2013              	.LBE40:
 239:../switch_sdk/core/yt/yt_l2.c ****     CMM_PARAM_CHK((!(CMM_PORT_VALID(unit, port))), CMM_ERR_PORT);
 2014              		.loc 1 239 5 is_stmt 1 discriminator 1 view .LVU553
 239:../switch_sdk/core/yt/yt_l2.c ****     CMM_PARAM_CHK((!(CMM_PORT_VALID(unit, port))), CMM_ERR_PORT);
 2015              		.loc 1 239 5 discriminator 1 view .LVU554
 2016 0068 104B     		ldr	r3, .L213+12
 2017 006a 1B78     		ldrb	r3, [r3]	@ zero_extendqisi2
 2018 006c 012B     		cmp	r3, #1
 2019 006e 01D8     		bhi	.L211
 2020              	.LVL233:
 2021              	.L201:
 239:../switch_sdk/core/yt/yt_l2.c ****     CMM_PARAM_CHK((!(CMM_PORT_VALID(unit, port))), CMM_ERR_PORT);
 2022              		.loc 1 239 5 discriminator 5 view .LVU555
 239:../switch_sdk/core/yt/yt_l2.c ****     CMM_PARAM_CHK((!(CMM_PORT_VALID(unit, port))), CMM_ERR_PORT);
 2023              		.loc 1 239 5 discriminator 5 view .LVU556
 239:../switch_sdk/core/yt/yt_l2.c ****     CMM_PARAM_CHK((!(CMM_PORT_VALID(unit, port))), CMM_ERR_PORT);
 2024              		.loc 1 239 5 discriminator 5 view .LVU557
 2025 0070 0420     		movs	r0, #4
 2026 0072 DCE7     		b	.L194
 2027              	.LVL234:
 2028              	.L211:
 239:../switch_sdk/core/yt/yt_l2.c ****     CMM_PARAM_CHK((!(CMM_PORT_VALID(unit, port))), CMM_ERR_PORT);
 2029              		.loc 1 239 5 discriminator 3 view .LVU558
 2030              	.LBB41:
 239:../switch_sdk/core/yt/yt_l2.c ****     CMM_PARAM_CHK((!(CMM_PORT_VALID(unit, port))), CMM_ERR_PORT);
 2031              		.loc 1 239 5 discriminator 3 view .LVU559
 2032 0074 0E4B     		ldr	r3, .L213+16
 2033 0076 1A69     		ldr	r2, [r3, #16]
 2034 0078 0E4B     		ldr	r3, .L213+20
 2035 007a 9968     		ldr	r1, [r3, #8]
 2036              	.LVL235:
 239:../switch_sdk/core/yt/yt_l2.c ****     CMM_PARAM_CHK((!(CMM_PORT_VALID(unit, port))), CMM_ERR_PORT);
 2037              		.loc 1 239 5 is_stmt 0 discriminator 3 view .LVU560
 2038 007c 0E48     		ldr	r0, .L213+24
 2039 007e FFF7FEFF 		bl	osal_printf
 2040              	.LVL236:
 2041 0082 F5E7     		b	.L201
 2042              	.LVL237:
 2043              	.L202:
 239:../switch_sdk/core/yt/yt_l2.c ****     CMM_PARAM_CHK((!(CMM_PORT_VALID(unit, port))), CMM_ERR_PORT);
 2044              		.loc 1 239 5 discriminator 3 view .LVU561
 2045              	.LBE41:
 240:../switch_sdk/core/yt/yt_l2.c **** 
 2046              		.loc 1 240 5 is_stmt 1 discriminator 3 view .LVU562
 240:../switch_sdk/core/yt/yt_l2.c **** 
 2047              		.loc 1 240 5 discriminator 3 view .LVU563
 2048 0084 094B     		ldr	r3, .L213+12
 2049 0086 1B78     		ldrb	r3, [r3]	@ zero_extendqisi2
 2050 0088 012B     		cmp	r3, #1
 2051 008a 01D8     		bhi	.L212
 2052              	.LVL238:
 2053              	.L204:
 240:../switch_sdk/core/yt/yt_l2.c **** 
 2054              		.loc 1 240 5 discriminator 7 view .LVU564
 240:../switch_sdk/core/yt/yt_l2.c **** 
 2055              		.loc 1 240 5 discriminator 7 view .LVU565
 240:../switch_sdk/core/yt/yt_l2.c **** 
 2056              		.loc 1 240 5 discriminator 7 view .LVU566
 2057 008c 0E20     		movs	r0, #14
 2058 008e CEE7     		b	.L194
 2059              	.LVL239:
 2060              	.L212:
 240:../switch_sdk/core/yt/yt_l2.c **** 
 2061              		.loc 1 240 5 discriminator 5 view .LVU567
 2062              	.LBB42:
 240:../switch_sdk/core/yt/yt_l2.c **** 
 2063              		.loc 1 240 5 discriminator 5 view .LVU568
 2064 0090 074B     		ldr	r3, .L213+16
 2065 0092 9A6B     		ldr	r2, [r3, #56]
 2066 0094 074B     		ldr	r3, .L213+20
 2067 0096 9968     		ldr	r1, [r3, #8]
 2068              	.LVL240:
 240:../switch_sdk/core/yt/yt_l2.c **** 
 2069              		.loc 1 240 5 is_stmt 0 discriminator 5 view .LVU569
 2070 0098 0748     		ldr	r0, .L213+24
 2071 009a FFF7FEFF 		bl	osal_printf
 2072              	.LVL241:
 2073 009e F5E7     		b	.L204
 2074              	.L214:
 2075              		.align	2
 2076              	.L213:
 2077 00a0 00000000 		.word	gpfal_dispatch
 2078 00a4 00000000 		.word	gcal_inited
 2079 00a8 00000000 		.word	gpSwitchUnit
 2080 00ac 00000000 		.word	yt_debug_level
 2081 00b0 00000000 		.word	_yt_errmsg
 2082 00b4 00000000 		.word	_yt_prompt_msg
 2083 00b8 00000000 		.word	.LC0
 2084              	.LBE42:
 2085              		.cfi_endproc
 2086              	.LFE12:
 2088              		.section	.text.yt_l2_fdb_vlan_ucast_flush,"ax",%progbits
 2089              		.align	1
 2090              		.global	yt_l2_fdb_vlan_ucast_flush
 2091              		.syntax unified
 2092              		.thumb
 2093              		.thumb_func
 2095              	yt_l2_fdb_vlan_ucast_flush:
 2096              	.LVL242:
 2097              	.LFB13:
 244:../switch_sdk/core/yt/yt_l2.c **** 
 245:../switch_sdk/core/yt/yt_l2.c **** /**
 246:../switch_sdk/core/yt/yt_l2.c ****  * @internal      yt_l2_fdb_vlan_ucast_flush
 247:../switch_sdk/core/yt/yt_l2.c ****  * @endinternal
 248:../switch_sdk/core/yt/yt_l2.c ****  *
 249:../switch_sdk/core/yt/yt_l2.c ****  * @brief         Description
 250:../switch_sdk/core/yt/yt_l2.c ****  * @note          APPLICABLE DEVICES  -Tiger
 251:../switch_sdk/core/yt/yt_l2.c ****  * @param[in]     unit                -unit id
 252:../switch_sdk/core/yt/yt_l2.c ****  * @param[in]     vid                 -vlan id
 253:../switch_sdk/core/yt/yt_l2.c ****  * @retval        CMM_ERR_OK          -on success
 254:../switch_sdk/core/yt/yt_l2.c ****  * @retval        CMM_ERR_FAIL        -on fail
 255:../switch_sdk/core/yt/yt_l2.c ****  */
 256:../switch_sdk/core/yt/yt_l2.c **** yt_ret_t yt_l2_fdb_vlan_ucast_flush(yt_unit_t unit, yt_vlan_t vid)
 257:../switch_sdk/core/yt/yt_l2.c **** {
 2098              		.loc 1 257 1 is_stmt 1 view -0
 2099              		.cfi_startproc
 2100              		@ args = 0, pretend = 0, frame = 0
 2101              		@ frame_needed = 0, uses_anonymous_args = 0
 2102              		.loc 1 257 1 is_stmt 0 view .LVU571
 2103 0000 08B5     		push	{r3, lr}
 2104              		.cfi_def_cfa_offset 8
 2105              		.cfi_offset 3, -8
 2106              		.cfi_offset 14, -4
 258:../switch_sdk/core/yt/yt_l2.c ****     CMM_PARAM_CHK((YT_UNIT_NUM <= unit), CMM_ERR_INPUT);
 2107              		.loc 1 258 5 is_stmt 1 view .LVU572
 2108              		.loc 1 258 5 view .LVU573
 2109 0002 70B9     		cbnz	r0, .L226
 2110 0004 0246     		mov	r2, r0
 2111              		.loc 1 258 5 discriminator 2 view .LVU574
 259:../switch_sdk/core/yt/yt_l2.c ****     CMM_PARAM_CHK(NULL == YT_DISPATCH(unit), CMM_ERR_NOT_INIT);
 2112              		.loc 1 259 5 discriminator 2 view .LVU575
 2113              		.loc 1 259 5 discriminator 2 view .LVU576
 2114 0006 234B     		ldr	r3, .L234
 2115 0008 53F82030 		ldr	r3, [r3, r0, lsl #2]
 2116 000c BBB1     		cbz	r3, .L227
 2117              		.loc 1 259 5 discriminator 2 view .LVU577
 260:../switch_sdk/core/yt/yt_l2.c ****     CMM_PARAM_CHK((!(YT_DISPATCH(unit)->is_inited)), CMM_ERR_NOT_INIT);
 2118              		.loc 1 260 5 discriminator 2 view .LVU578
 2119              		.loc 1 260 5 discriminator 2 view .LVU579
 2120 000e 1878     		ldrb	r0, [r3]	@ zero_extendqisi2
 2121              	.LVL243:
 2122              		.loc 1 260 5 is_stmt 0 discriminator 2 view .LVU580
 2123 0010 18B3     		cbz	r0, .L228
 2124              		.loc 1 260 5 is_stmt 1 discriminator 2 view .LVU581
 261:../switch_sdk/core/yt/yt_l2.c ****     CMM_PARAM_CHK((YT_VLAN_ID_MAX < vid), CMM_ERR_EXCEED_RANGE);
 2125              		.loc 1 261 5 discriminator 2 view .LVU582
 2126              		.loc 1 261 5 discriminator 2 view .LVU583
 2127 0012 B1F5805F 		cmp	r1, #4096
 2128 0016 2ED2     		bcs	.L229
 2129              		.loc 1 261 5 discriminator 2 view .LVU584
 262:../switch_sdk/core/yt/yt_l2.c **** 
 263:../switch_sdk/core/yt/yt_l2.c ****     return YT_DISPATCH(unit)->l2_fdb_vlan_ucast_flush(unit, vid);
 2130              		.loc 1 263 5 discriminator 2 view .LVU585
 2131              		.loc 1 263 29 is_stmt 0 discriminator 2 view .LVU586
 2132 0018 D3F86433 		ldr	r3, [r3, #868]
 2133              		.loc 1 263 12 discriminator 2 view .LVU587
 2134 001c 1046     		mov	r0, r2
 2135 001e 9847     		blx	r3
 2136              	.LVL244:
 2137              	.L215:
 264:../switch_sdk/core/yt/yt_l2.c **** }
 2138              		.loc 1 264 1 view .LVU588
 2139 0020 08BD     		pop	{r3, pc}
 2140              	.LVL245:
 2141              	.L226:
 258:../switch_sdk/core/yt/yt_l2.c ****     CMM_PARAM_CHK(NULL == YT_DISPATCH(unit), CMM_ERR_NOT_INIT);
 2142              		.loc 1 258 5 is_stmt 1 discriminator 1 view .LVU589
 258:../switch_sdk/core/yt/yt_l2.c ****     CMM_PARAM_CHK(NULL == YT_DISPATCH(unit), CMM_ERR_NOT_INIT);
 2143              		.loc 1 258 5 discriminator 1 view .LVU590
 2144 0022 1D4B     		ldr	r3, .L234+4
 2145 0024 1B78     		ldrb	r3, [r3]	@ zero_extendqisi2
 2146 0026 012B     		cmp	r3, #1
 2147 0028 01D8     		bhi	.L230
 2148              	.LVL246:
 2149              	.L217:
 258:../switch_sdk/core/yt/yt_l2.c ****     CMM_PARAM_CHK(NULL == YT_DISPATCH(unit), CMM_ERR_NOT_INIT);
 2150              		.loc 1 258 5 discriminator 5 view .LVU591
 258:../switch_sdk/core/yt/yt_l2.c ****     CMM_PARAM_CHK(NULL == YT_DISPATCH(unit), CMM_ERR_NOT_INIT);
 2151              		.loc 1 258 5 discriminator 5 view .LVU592
 258:../switch_sdk/core/yt/yt_l2.c ****     CMM_PARAM_CHK(NULL == YT_DISPATCH(unit), CMM_ERR_NOT_INIT);
 2152              		.loc 1 258 5 discriminator 5 view .LVU593
 2153 002a 0520     		movs	r0, #5
 2154 002c F8E7     		b	.L215
 2155              	.LVL247:
 2156              	.L230:
 258:../switch_sdk/core/yt/yt_l2.c ****     CMM_PARAM_CHK(NULL == YT_DISPATCH(unit), CMM_ERR_NOT_INIT);
 2157              		.loc 1 258 5 discriminator 3 view .LVU594
 2158              	.LBB43:
 258:../switch_sdk/core/yt/yt_l2.c ****     CMM_PARAM_CHK(NULL == YT_DISPATCH(unit), CMM_ERR_NOT_INIT);
 2159              		.loc 1 258 5 discriminator 3 view .LVU595
 2160 002e 1B4B     		ldr	r3, .L234+8
 2161 0030 5A69     		ldr	r2, [r3, #20]
 2162 0032 1B4B     		ldr	r3, .L234+12
 2163 0034 9968     		ldr	r1, [r3, #8]
 2164              	.LVL248:
 258:../switch_sdk/core/yt/yt_l2.c ****     CMM_PARAM_CHK(NULL == YT_DISPATCH(unit), CMM_ERR_NOT_INIT);
 2165              		.loc 1 258 5 is_stmt 0 discriminator 3 view .LVU596
 2166 0036 1B48     		ldr	r0, .L234+16
 2167              	.LVL249:
 258:../switch_sdk/core/yt/yt_l2.c ****     CMM_PARAM_CHK(NULL == YT_DISPATCH(unit), CMM_ERR_NOT_INIT);
 2168              		.loc 1 258 5 discriminator 3 view .LVU597
 2169 0038 FFF7FEFF 		bl	osal_printf
 2170              	.LVL250:
 2171 003c F5E7     		b	.L217
 2172              	.LVL251:
 2173              	.L227:
 258:../switch_sdk/core/yt/yt_l2.c ****     CMM_PARAM_CHK(NULL == YT_DISPATCH(unit), CMM_ERR_NOT_INIT);
 2174              		.loc 1 258 5 discriminator 3 view .LVU598
 2175              	.LBE43:
 259:../switch_sdk/core/yt/yt_l2.c ****     CMM_PARAM_CHK((!(YT_DISPATCH(unit)->is_inited)), CMM_ERR_NOT_INIT);
 2176              		.loc 1 259 5 is_stmt 1 discriminator 1 view .LVU599
 259:../switch_sdk/core/yt/yt_l2.c ****     CMM_PARAM_CHK((!(YT_DISPATCH(unit)->is_inited)), CMM_ERR_NOT_INIT);
 2177              		.loc 1 259 5 discriminator 1 view .LVU600
 2178 003e 164B     		ldr	r3, .L234+4
 2179 0040 1B78     		ldrb	r3, [r3]	@ zero_extendqisi2
 2180 0042 012B     		cmp	r3, #1
 2181 0044 01D8     		bhi	.L231
 2182              	.LVL252:
 2183              	.L220:
 259:../switch_sdk/core/yt/yt_l2.c ****     CMM_PARAM_CHK((!(YT_DISPATCH(unit)->is_inited)), CMM_ERR_NOT_INIT);
 2184              		.loc 1 259 5 discriminator 5 view .LVU601
 259:../switch_sdk/core/yt/yt_l2.c ****     CMM_PARAM_CHK((!(YT_DISPATCH(unit)->is_inited)), CMM_ERR_NOT_INIT);
 2185              		.loc 1 259 5 discriminator 5 view .LVU602
 259:../switch_sdk/core/yt/yt_l2.c ****     CMM_PARAM_CHK((!(YT_DISPATCH(unit)->is_inited)), CMM_ERR_NOT_INIT);
 2186              		.loc 1 259 5 discriminator 5 view .LVU603
 2187 0046 0420     		movs	r0, #4
 2188 0048 EAE7     		b	.L215
 2189              	.LVL253:
 2190              	.L231:
 259:../switch_sdk/core/yt/yt_l2.c ****     CMM_PARAM_CHK((!(YT_DISPATCH(unit)->is_inited)), CMM_ERR_NOT_INIT);
 2191              		.loc 1 259 5 discriminator 3 view .LVU604
 2192              	.LBB44:
 259:../switch_sdk/core/yt/yt_l2.c ****     CMM_PARAM_CHK((!(YT_DISPATCH(unit)->is_inited)), CMM_ERR_NOT_INIT);
 2193              		.loc 1 259 5 discriminator 3 view .LVU605
 2194 004a 144B     		ldr	r3, .L234+8
 2195 004c 1A69     		ldr	r2, [r3, #16]
 2196 004e 144B     		ldr	r3, .L234+12
 2197 0050 9968     		ldr	r1, [r3, #8]
 2198              	.LVL254:
 259:../switch_sdk/core/yt/yt_l2.c ****     CMM_PARAM_CHK((!(YT_DISPATCH(unit)->is_inited)), CMM_ERR_NOT_INIT);
 2199              		.loc 1 259 5 is_stmt 0 discriminator 3 view .LVU606
 2200 0052 1448     		ldr	r0, .L234+16
 2201              	.LVL255:
 259:../switch_sdk/core/yt/yt_l2.c ****     CMM_PARAM_CHK((!(YT_DISPATCH(unit)->is_inited)), CMM_ERR_NOT_INIT);
 2202              		.loc 1 259 5 discriminator 3 view .LVU607
 2203 0054 FFF7FEFF 		bl	osal_printf
 2204              	.LVL256:
 2205 0058 F5E7     		b	.L220
 2206              	.LVL257:
 2207              	.L228:
 259:../switch_sdk/core/yt/yt_l2.c ****     CMM_PARAM_CHK((!(YT_DISPATCH(unit)->is_inited)), CMM_ERR_NOT_INIT);
 2208              		.loc 1 259 5 discriminator 3 view .LVU608
 2209              	.LBE44:
 260:../switch_sdk/core/yt/yt_l2.c ****     CMM_PARAM_CHK((YT_VLAN_ID_MAX < vid), CMM_ERR_EXCEED_RANGE);
 2210              		.loc 1 260 5 is_stmt 1 discriminator 1 view .LVU609
 260:../switch_sdk/core/yt/yt_l2.c ****     CMM_PARAM_CHK((YT_VLAN_ID_MAX < vid), CMM_ERR_EXCEED_RANGE);
 2211              		.loc 1 260 5 discriminator 1 view .LVU610
 2212 005a 0F4B     		ldr	r3, .L234+4
 2213 005c 1B78     		ldrb	r3, [r3]	@ zero_extendqisi2
 2214 005e 012B     		cmp	r3, #1
 2215 0060 01D8     		bhi	.L232
 2216              	.LVL258:
 2217              	.L222:
 260:../switch_sdk/core/yt/yt_l2.c ****     CMM_PARAM_CHK((YT_VLAN_ID_MAX < vid), CMM_ERR_EXCEED_RANGE);
 2218              		.loc 1 260 5 discriminator 5 view .LVU611
 260:../switch_sdk/core/yt/yt_l2.c ****     CMM_PARAM_CHK((YT_VLAN_ID_MAX < vid), CMM_ERR_EXCEED_RANGE);
 2219              		.loc 1 260 5 discriminator 5 view .LVU612
 260:../switch_sdk/core/yt/yt_l2.c ****     CMM_PARAM_CHK((YT_VLAN_ID_MAX < vid), CMM_ERR_EXCEED_RANGE);
 2220              		.loc 1 260 5 discriminator 5 view .LVU613
 2221 0062 0420     		movs	r0, #4
 2222 0064 DCE7     		b	.L215
 2223              	.LVL259:
 2224              	.L232:
 260:../switch_sdk/core/yt/yt_l2.c ****     CMM_PARAM_CHK((YT_VLAN_ID_MAX < vid), CMM_ERR_EXCEED_RANGE);
 2225              		.loc 1 260 5 discriminator 3 view .LVU614
 2226              	.LBB45:
 260:../switch_sdk/core/yt/yt_l2.c ****     CMM_PARAM_CHK((YT_VLAN_ID_MAX < vid), CMM_ERR_EXCEED_RANGE);
 2227              		.loc 1 260 5 discriminator 3 view .LVU615
 2228 0066 0D4B     		ldr	r3, .L234+8
 2229 0068 1A69     		ldr	r2, [r3, #16]
 2230 006a 0D4B     		ldr	r3, .L234+12
 2231 006c 9968     		ldr	r1, [r3, #8]
 2232              	.LVL260:
 260:../switch_sdk/core/yt/yt_l2.c ****     CMM_PARAM_CHK((YT_VLAN_ID_MAX < vid), CMM_ERR_EXCEED_RANGE);
 2233              		.loc 1 260 5 is_stmt 0 discriminator 3 view .LVU616
 2234 006e 0D48     		ldr	r0, .L234+16
 2235 0070 FFF7FEFF 		bl	osal_printf
 2236              	.LVL261:
 2237 0074 F5E7     		b	.L222
 2238              	.LVL262:
 2239              	.L229:
 260:../switch_sdk/core/yt/yt_l2.c ****     CMM_PARAM_CHK((YT_VLAN_ID_MAX < vid), CMM_ERR_EXCEED_RANGE);
 2240              		.loc 1 260 5 discriminator 3 view .LVU617
 2241              	.LBE45:
 261:../switch_sdk/core/yt/yt_l2.c **** 
 2242              		.loc 1 261 5 is_stmt 1 discriminator 1 view .LVU618
 261:../switch_sdk/core/yt/yt_l2.c **** 
 2243              		.loc 1 261 5 discriminator 1 view .LVU619
 2244 0076 084B     		ldr	r3, .L234+4
 2245 0078 1B78     		ldrb	r3, [r3]	@ zero_extendqisi2
 2246 007a 012B     		cmp	r3, #1
 2247 007c 01D8     		bhi	.L233
 2248              	.LVL263:
 2249              	.L224:
 261:../switch_sdk/core/yt/yt_l2.c **** 
 2250              		.loc 1 261 5 discriminator 5 view .LVU620
 261:../switch_sdk/core/yt/yt_l2.c **** 
 2251              		.loc 1 261 5 discriminator 5 view .LVU621
 261:../switch_sdk/core/yt/yt_l2.c **** 
 2252              		.loc 1 261 5 discriminator 5 view .LVU622
 2253 007e 1120     		movs	r0, #17
 2254 0080 CEE7     		b	.L215
 2255              	.LVL264:
 2256              	.L233:
 261:../switch_sdk/core/yt/yt_l2.c **** 
 2257              		.loc 1 261 5 discriminator 3 view .LVU623
 2258              	.LBB46:
 261:../switch_sdk/core/yt/yt_l2.c **** 
 2259              		.loc 1 261 5 discriminator 3 view .LVU624
 2260 0082 064B     		ldr	r3, .L234+8
 2261 0084 5A6C     		ldr	r2, [r3, #68]
 2262 0086 064B     		ldr	r3, .L234+12
 2263 0088 9968     		ldr	r1, [r3, #8]
 2264              	.LVL265:
 261:../switch_sdk/core/yt/yt_l2.c **** 
 2265              		.loc 1 261 5 is_stmt 0 discriminator 3 view .LVU625
 2266 008a 0648     		ldr	r0, .L234+16
 2267 008c FFF7FEFF 		bl	osal_printf
 2268              	.LVL266:
 2269 0090 F5E7     		b	.L224
 2270              	.L235:
 2271 0092 00BF     		.align	2
 2272              	.L234:
 2273 0094 00000000 		.word	gpfal_dispatch
 2274 0098 00000000 		.word	yt_debug_level
 2275 009c 00000000 		.word	_yt_errmsg
 2276 00a0 00000000 		.word	_yt_prompt_msg
 2277 00a4 00000000 		.word	.LC0
 2278              	.LBE46:
 2279              		.cfi_endproc
 2280              	.LFE13:
 2282              		.section	.text.yt_l2_all_mcast_flush,"ax",%progbits
 2283              		.align	1
 2284              		.global	yt_l2_all_mcast_flush
 2285              		.syntax unified
 2286              		.thumb
 2287              		.thumb_func
 2289              	yt_l2_all_mcast_flush:
 2290              	.LVL267:
 2291              	.LFB14:
 265:../switch_sdk/core/yt/yt_l2.c **** 
 266:../switch_sdk/core/yt/yt_l2.c **** /**
 267:../switch_sdk/core/yt/yt_l2.c ****  * @internal      yt_l2_all_mcast_flush
 268:../switch_sdk/core/yt/yt_l2.c ****  * @endinternal
 269:../switch_sdk/core/yt/yt_l2.c ****  *
 270:../switch_sdk/core/yt/yt_l2.c ****  * @brief         Description
 271:../switch_sdk/core/yt/yt_l2.c ****  * @note          APPLICABLE DEVICES  -Tiger
 272:../switch_sdk/core/yt/yt_l2.c ****  * @param[in]     unit                -unit id
 273:../switch_sdk/core/yt/yt_l2.c ****  * @retval        CMM_ERR_OK          -on success
 274:../switch_sdk/core/yt/yt_l2.c ****  * @retval        CMM_ERR_FAIL        -on fail
 275:../switch_sdk/core/yt/yt_l2.c ****  */
 276:../switch_sdk/core/yt/yt_l2.c **** yt_ret_t yt_l2_all_mcast_flush(yt_unit_t unit)
 277:../switch_sdk/core/yt/yt_l2.c **** {
 2292              		.loc 1 277 1 is_stmt 1 view -0
 2293              		.cfi_startproc
 2294              		@ args = 0, pretend = 0, frame = 0
 2295              		@ frame_needed = 0, uses_anonymous_args = 0
 2296              		.loc 1 277 1 is_stmt 0 view .LVU627
 2297 0000 08B5     		push	{r3, lr}
 2298              		.cfi_def_cfa_offset 8
 2299              		.cfi_offset 3, -8
 2300              		.cfi_offset 14, -4
 278:../switch_sdk/core/yt/yt_l2.c ****     CMM_PARAM_CHK((YT_UNIT_NUM <= unit), CMM_ERR_INPUT);
 2301              		.loc 1 278 5 is_stmt 1 view .LVU628
 2302              		.loc 1 278 5 view .LVU629
 2303 0002 48B9     		cbnz	r0, .L245
 2304              		.loc 1 278 5 discriminator 2 view .LVU630
 279:../switch_sdk/core/yt/yt_l2.c ****     CMM_PARAM_CHK(NULL == YT_DISPATCH(unit), CMM_ERR_NOT_INIT);
 2305              		.loc 1 279 5 discriminator 2 view .LVU631
 2306              		.loc 1 279 5 discriminator 2 view .LVU632
 2307 0004 194B     		ldr	r3, .L251
 2308 0006 53F82030 		ldr	r3, [r3, r0, lsl #2]
 2309 000a 9BB1     		cbz	r3, .L246
 2310              		.loc 1 279 5 discriminator 2 view .LVU633
 280:../switch_sdk/core/yt/yt_l2.c ****     CMM_PARAM_CHK((!(YT_DISPATCH(unit)->is_inited)), CMM_ERR_NOT_INIT);
 2311              		.loc 1 280 5 discriminator 2 view .LVU634
 2312              		.loc 1 280 5 discriminator 2 view .LVU635
 2313 000c 1978     		ldrb	r1, [r3]	@ zero_extendqisi2
 2314 000e F9B1     		cbz	r1, .L247
 2315              		.loc 1 280 5 discriminator 2 view .LVU636
 281:../switch_sdk/core/yt/yt_l2.c **** 
 282:../switch_sdk/core/yt/yt_l2.c ****     return YT_DISPATCH(unit)->l2_all_mcast_flush(unit);
 2316              		.loc 1 282 5 discriminator 2 view .LVU637
 2317              		.loc 1 282 29 is_stmt 0 discriminator 2 view .LVU638
 2318 0010 D3F86833 		ldr	r3, [r3, #872]
 2319              		.loc 1 282 12 discriminator 2 view .LVU639
 2320 0014 9847     		blx	r3
 2321              	.LVL268:
 2322              	.L236:
 283:../switch_sdk/core/yt/yt_l2.c **** }
 2323              		.loc 1 283 1 view .LVU640
 2324 0016 08BD     		pop	{r3, pc}
 2325              	.LVL269:
 2326              	.L245:
 278:../switch_sdk/core/yt/yt_l2.c ****     CMM_PARAM_CHK(NULL == YT_DISPATCH(unit), CMM_ERR_NOT_INIT);
 2327              		.loc 1 278 5 is_stmt 1 discriminator 1 view .LVU641
 278:../switch_sdk/core/yt/yt_l2.c ****     CMM_PARAM_CHK(NULL == YT_DISPATCH(unit), CMM_ERR_NOT_INIT);
 2328              		.loc 1 278 5 discriminator 1 view .LVU642
 2329 0018 154B     		ldr	r3, .L251+4
 2330 001a 1B78     		ldrb	r3, [r3]	@ zero_extendqisi2
 2331 001c 012B     		cmp	r3, #1
 2332 001e 01D8     		bhi	.L248
 2333              	.LVL270:
 2334              	.L238:
 278:../switch_sdk/core/yt/yt_l2.c ****     CMM_PARAM_CHK(NULL == YT_DISPATCH(unit), CMM_ERR_NOT_INIT);
 2335              		.loc 1 278 5 discriminator 5 view .LVU643
 278:../switch_sdk/core/yt/yt_l2.c ****     CMM_PARAM_CHK(NULL == YT_DISPATCH(unit), CMM_ERR_NOT_INIT);
 2336              		.loc 1 278 5 discriminator 5 view .LVU644
 278:../switch_sdk/core/yt/yt_l2.c ****     CMM_PARAM_CHK(NULL == YT_DISPATCH(unit), CMM_ERR_NOT_INIT);
 2337              		.loc 1 278 5 discriminator 5 view .LVU645
 2338 0020 0520     		movs	r0, #5
 2339 0022 F8E7     		b	.L236
 2340              	.LVL271:
 2341              	.L248:
 278:../switch_sdk/core/yt/yt_l2.c ****     CMM_PARAM_CHK(NULL == YT_DISPATCH(unit), CMM_ERR_NOT_INIT);
 2342              		.loc 1 278 5 discriminator 3 view .LVU646
 2343              	.LBB47:
 278:../switch_sdk/core/yt/yt_l2.c ****     CMM_PARAM_CHK(NULL == YT_DISPATCH(unit), CMM_ERR_NOT_INIT);
 2344              		.loc 1 278 5 discriminator 3 view .LVU647
 2345 0024 134B     		ldr	r3, .L251+8
 2346 0026 5A69     		ldr	r2, [r3, #20]
 2347 0028 134B     		ldr	r3, .L251+12
 2348 002a 9968     		ldr	r1, [r3, #8]
 2349 002c 1348     		ldr	r0, .L251+16
 2350              	.LVL272:
 278:../switch_sdk/core/yt/yt_l2.c ****     CMM_PARAM_CHK(NULL == YT_DISPATCH(unit), CMM_ERR_NOT_INIT);
 2351              		.loc 1 278 5 is_stmt 0 discriminator 3 view .LVU648
 2352 002e FFF7FEFF 		bl	osal_printf
 2353              	.LVL273:
 2354 0032 F5E7     		b	.L238
 2355              	.LVL274:
 2356              	.L246:
 278:../switch_sdk/core/yt/yt_l2.c ****     CMM_PARAM_CHK(NULL == YT_DISPATCH(unit), CMM_ERR_NOT_INIT);
 2357              		.loc 1 278 5 discriminator 3 view .LVU649
 2358              	.LBE47:
 279:../switch_sdk/core/yt/yt_l2.c ****     CMM_PARAM_CHK((!(YT_DISPATCH(unit)->is_inited)), CMM_ERR_NOT_INIT);
 2359              		.loc 1 279 5 is_stmt 1 discriminator 1 view .LVU650
 279:../switch_sdk/core/yt/yt_l2.c ****     CMM_PARAM_CHK((!(YT_DISPATCH(unit)->is_inited)), CMM_ERR_NOT_INIT);
 2360              		.loc 1 279 5 discriminator 1 view .LVU651
 2361 0034 0E4B     		ldr	r3, .L251+4
 2362 0036 1B78     		ldrb	r3, [r3]	@ zero_extendqisi2
 2363 0038 012B     		cmp	r3, #1
 2364 003a 01D8     		bhi	.L249
 2365              	.LVL275:
 2366              	.L241:
 279:../switch_sdk/core/yt/yt_l2.c ****     CMM_PARAM_CHK((!(YT_DISPATCH(unit)->is_inited)), CMM_ERR_NOT_INIT);
 2367              		.loc 1 279 5 discriminator 5 view .LVU652
 279:../switch_sdk/core/yt/yt_l2.c ****     CMM_PARAM_CHK((!(YT_DISPATCH(unit)->is_inited)), CMM_ERR_NOT_INIT);
 2368              		.loc 1 279 5 discriminator 5 view .LVU653
 279:../switch_sdk/core/yt/yt_l2.c ****     CMM_PARAM_CHK((!(YT_DISPATCH(unit)->is_inited)), CMM_ERR_NOT_INIT);
 2369              		.loc 1 279 5 discriminator 5 view .LVU654
 2370 003c 0420     		movs	r0, #4
 2371 003e EAE7     		b	.L236
 2372              	.LVL276:
 2373              	.L249:
 279:../switch_sdk/core/yt/yt_l2.c ****     CMM_PARAM_CHK((!(YT_DISPATCH(unit)->is_inited)), CMM_ERR_NOT_INIT);
 2374              		.loc 1 279 5 discriminator 3 view .LVU655
 2375              	.LBB48:
 279:../switch_sdk/core/yt/yt_l2.c ****     CMM_PARAM_CHK((!(YT_DISPATCH(unit)->is_inited)), CMM_ERR_NOT_INIT);
 2376              		.loc 1 279 5 discriminator 3 view .LVU656
 2377 0040 0C4B     		ldr	r3, .L251+8
 2378 0042 1A69     		ldr	r2, [r3, #16]
 2379 0044 0C4B     		ldr	r3, .L251+12
 2380 0046 9968     		ldr	r1, [r3, #8]
 2381 0048 0C48     		ldr	r0, .L251+16
 2382              	.LVL277:
 279:../switch_sdk/core/yt/yt_l2.c ****     CMM_PARAM_CHK((!(YT_DISPATCH(unit)->is_inited)), CMM_ERR_NOT_INIT);
 2383              		.loc 1 279 5 is_stmt 0 discriminator 3 view .LVU657
 2384 004a FFF7FEFF 		bl	osal_printf
 2385              	.LVL278:
 2386 004e F5E7     		b	.L241
 2387              	.LVL279:
 2388              	.L247:
 279:../switch_sdk/core/yt/yt_l2.c ****     CMM_PARAM_CHK((!(YT_DISPATCH(unit)->is_inited)), CMM_ERR_NOT_INIT);
 2389              		.loc 1 279 5 discriminator 3 view .LVU658
 2390              	.LBE48:
 280:../switch_sdk/core/yt/yt_l2.c **** 
 2391              		.loc 1 280 5 is_stmt 1 discriminator 1 view .LVU659
 280:../switch_sdk/core/yt/yt_l2.c **** 
 2392              		.loc 1 280 5 discriminator 1 view .LVU660
 2393 0050 074B     		ldr	r3, .L251+4
 2394 0052 1B78     		ldrb	r3, [r3]	@ zero_extendqisi2
 2395 0054 012B     		cmp	r3, #1
 2396 0056 01D8     		bhi	.L250
 2397              	.LVL280:
 2398              	.L243:
 280:../switch_sdk/core/yt/yt_l2.c **** 
 2399              		.loc 1 280 5 discriminator 5 view .LVU661
 280:../switch_sdk/core/yt/yt_l2.c **** 
 2400              		.loc 1 280 5 discriminator 5 view .LVU662
 280:../switch_sdk/core/yt/yt_l2.c **** 
 2401              		.loc 1 280 5 discriminator 5 view .LVU663
 2402 0058 0420     		movs	r0, #4
 2403 005a DCE7     		b	.L236
 2404              	.LVL281:
 2405              	.L250:
 280:../switch_sdk/core/yt/yt_l2.c **** 
 2406              		.loc 1 280 5 discriminator 3 view .LVU664
 2407              	.LBB49:
 280:../switch_sdk/core/yt/yt_l2.c **** 
 2408              		.loc 1 280 5 discriminator 3 view .LVU665
 2409 005c 054B     		ldr	r3, .L251+8
 2410 005e 1A69     		ldr	r2, [r3, #16]
 2411 0060 054B     		ldr	r3, .L251+12
 2412 0062 9968     		ldr	r1, [r3, #8]
 2413 0064 0548     		ldr	r0, .L251+16
 2414              	.LVL282:
 280:../switch_sdk/core/yt/yt_l2.c **** 
 2415              		.loc 1 280 5 is_stmt 0 discriminator 3 view .LVU666
 2416 0066 FFF7FEFF 		bl	osal_printf
 2417              	.LVL283:
 2418 006a F5E7     		b	.L243
 2419              	.L252:
 2420              		.align	2
 2421              	.L251:
 2422 006c 00000000 		.word	gpfal_dispatch
 2423 0070 00000000 		.word	yt_debug_level
 2424 0074 00000000 		.word	_yt_errmsg
 2425 0078 00000000 		.word	_yt_prompt_msg
 2426 007c 00000000 		.word	.LC0
 2427              	.LBE49:
 2428              		.cfi_endproc
 2429              	.LFE14:
 2431              		.section	.text.yt_l2_port_mcast_flush,"ax",%progbits
 2432              		.align	1
 2433              		.global	yt_l2_port_mcast_flush
 2434              		.syntax unified
 2435              		.thumb
 2436              		.thumb_func
 2438              	yt_l2_port_mcast_flush:
 2439              	.LVL284:
 2440              	.LFB15:
 284:../switch_sdk/core/yt/yt_l2.c **** 
 285:../switch_sdk/core/yt/yt_l2.c **** /**
 286:../switch_sdk/core/yt/yt_l2.c ****  * @internal      yt_l2_port_mcast_flush
 287:../switch_sdk/core/yt/yt_l2.c ****  * @endinternal
 288:../switch_sdk/core/yt/yt_l2.c ****  *
 289:../switch_sdk/core/yt/yt_l2.c ****  * @brief         Description
 290:../switch_sdk/core/yt/yt_l2.c ****  * @note          APPLICABLE DEVICES  -Tiger
 291:../switch_sdk/core/yt/yt_l2.c ****  * @param[in]     unit                -unit id
 292:../switch_sdk/core/yt/yt_l2.c ****  * @param[in]     port                -port num
 293:../switch_sdk/core/yt/yt_l2.c ****  * @retval        CMM_ERR_OK          -on success
 294:../switch_sdk/core/yt/yt_l2.c ****  * @retval        CMM_ERR_FAIL        -on fail
 295:../switch_sdk/core/yt/yt_l2.c ****  */
 296:../switch_sdk/core/yt/yt_l2.c **** yt_ret_t yt_l2_port_mcast_flush(yt_unit_t unit, yt_port_t port)
 297:../switch_sdk/core/yt/yt_l2.c **** {
 2441              		.loc 1 297 1 is_stmt 1 view -0
 2442              		.cfi_startproc
 2443              		@ args = 0, pretend = 0, frame = 0
 2444              		@ frame_needed = 0, uses_anonymous_args = 0
 2445              		.loc 1 297 1 is_stmt 0 view .LVU668
 2446 0000 08B5     		push	{r3, lr}
 2447              		.cfi_def_cfa_offset 8
 2448              		.cfi_offset 3, -8
 2449              		.cfi_offset 14, -4
 298:../switch_sdk/core/yt/yt_l2.c ****     CMM_PARAM_CHK((YT_UNIT_NUM <= unit), CMM_ERR_INPUT);
 2450              		.loc 1 298 5 is_stmt 1 view .LVU669
 2451              		.loc 1 298 5 view .LVU670
 2452 0002 A8B9     		cbnz	r0, .L265
 2453 0004 0246     		mov	r2, r0
 2454              		.loc 1 298 5 discriminator 2 view .LVU671
 299:../switch_sdk/core/yt/yt_l2.c ****     CMM_PARAM_CHK(NULL == YT_DISPATCH(unit), CMM_ERR_NOT_INIT);
 2455              		.loc 1 299 5 discriminator 2 view .LVU672
 2456              		.loc 1 299 5 discriminator 2 view .LVU673
 2457 0006 264B     		ldr	r3, .L272
 2458 0008 53F82030 		ldr	r3, [r3, r0, lsl #2]
 2459 000c F3B1     		cbz	r3, .L266
 2460              		.loc 1 299 5 discriminator 2 view .LVU674
 300:../switch_sdk/core/yt/yt_l2.c ****     CMM_PARAM_CHK((!(YT_DISPATCH(unit)->is_inited)), CMM_ERR_NOT_INIT);
 2461              		.loc 1 300 5 discriminator 2 view .LVU675
 2462              		.loc 1 300 5 discriminator 2 view .LVU676
 2463 000e 1878     		ldrb	r0, [r3]	@ zero_extendqisi2
 2464              	.LVL285:
 2465              		.loc 1 300 5 is_stmt 0 discriminator 2 view .LVU677
 2466 0010 50B3     		cbz	r0, .L267
 2467              		.loc 1 300 5 is_stmt 1 discriminator 2 view .LVU678
 301:../switch_sdk/core/yt/yt_l2.c ****     CMM_PARAM_CHK((!(CMM_PORT_VALID(unit, port))), CMM_ERR_PORT);
 2468              		.loc 1 301 5 discriminator 2 view .LVU679
 2469              		.loc 1 301 5 discriminator 2 view .LVU680
 2470 0012 2448     		ldr	r0, .L272+4
 2471 0014 0078     		ldrb	r0, [r0]	@ zero_extendqisi2
 2472 0016 0028     		cmp	r0, #0
 2473 0018 34D0     		beq	.L261
 2474 001a 2348     		ldr	r0, .L272+8
 2475 001c 50F82200 		ldr	r0, [r0, r2, lsl #2]
 2476 0020 007D     		ldrb	r0, [r0, #20]	@ zero_extendqisi2
 2477 0022 8842     		cmp	r0, r1
 2478 0024 2ED9     		bls	.L261
 2479              		.loc 1 301 5 discriminator 4 view .LVU681
 302:../switch_sdk/core/yt/yt_l2.c **** 
 303:../switch_sdk/core/yt/yt_l2.c ****     return YT_DISPATCH(unit)->l2_port_mcast_flush(unit, port);
 2480              		.loc 1 303 5 discriminator 4 view .LVU682
 2481              		.loc 1 303 29 is_stmt 0 discriminator 4 view .LVU683
 2482 0026 D3F86C33 		ldr	r3, [r3, #876]
 2483              		.loc 1 303 12 discriminator 4 view .LVU684
 2484 002a 1046     		mov	r0, r2
 2485 002c 9847     		blx	r3
 2486              	.LVL286:
 2487              	.L253:
 304:../switch_sdk/core/yt/yt_l2.c **** }
 2488              		.loc 1 304 1 view .LVU685
 2489 002e 08BD     		pop	{r3, pc}
 2490              	.LVL287:
 2491              	.L265:
 298:../switch_sdk/core/yt/yt_l2.c ****     CMM_PARAM_CHK(NULL == YT_DISPATCH(unit), CMM_ERR_NOT_INIT);
 2492              		.loc 1 298 5 is_stmt 1 discriminator 1 view .LVU686
 298:../switch_sdk/core/yt/yt_l2.c ****     CMM_PARAM_CHK(NULL == YT_DISPATCH(unit), CMM_ERR_NOT_INIT);
 2493              		.loc 1 298 5 discriminator 1 view .LVU687
 2494 0030 1E4B     		ldr	r3, .L272+12
 2495 0032 1B78     		ldrb	r3, [r3]	@ zero_extendqisi2
 2496 0034 012B     		cmp	r3, #1
 2497 0036 01D8     		bhi	.L268
 2498              	.LVL288:
 2499              	.L255:
 298:../switch_sdk/core/yt/yt_l2.c ****     CMM_PARAM_CHK(NULL == YT_DISPATCH(unit), CMM_ERR_NOT_INIT);
 2500              		.loc 1 298 5 discriminator 5 view .LVU688
 298:../switch_sdk/core/yt/yt_l2.c ****     CMM_PARAM_CHK(NULL == YT_DISPATCH(unit), CMM_ERR_NOT_INIT);
 2501              		.loc 1 298 5 discriminator 5 view .LVU689
 298:../switch_sdk/core/yt/yt_l2.c ****     CMM_PARAM_CHK(NULL == YT_DISPATCH(unit), CMM_ERR_NOT_INIT);
 2502              		.loc 1 298 5 discriminator 5 view .LVU690
 2503 0038 0520     		movs	r0, #5
 2504 003a F8E7     		b	.L253
 2505              	.LVL289:
 2506              	.L268:
 298:../switch_sdk/core/yt/yt_l2.c ****     CMM_PARAM_CHK(NULL == YT_DISPATCH(unit), CMM_ERR_NOT_INIT);
 2507              		.loc 1 298 5 discriminator 3 view .LVU691
 2508              	.LBB50:
 298:../switch_sdk/core/yt/yt_l2.c ****     CMM_PARAM_CHK(NULL == YT_DISPATCH(unit), CMM_ERR_NOT_INIT);
 2509              		.loc 1 298 5 discriminator 3 view .LVU692
 2510 003c 1C4B     		ldr	r3, .L272+16
 2511 003e 5A69     		ldr	r2, [r3, #20]
 2512 0040 1C4B     		ldr	r3, .L272+20
 2513 0042 9968     		ldr	r1, [r3, #8]
 2514              	.LVL290:
 298:../switch_sdk/core/yt/yt_l2.c ****     CMM_PARAM_CHK(NULL == YT_DISPATCH(unit), CMM_ERR_NOT_INIT);
 2515              		.loc 1 298 5 is_stmt 0 discriminator 3 view .LVU693
 2516 0044 1C48     		ldr	r0, .L272+24
 2517              	.LVL291:
 298:../switch_sdk/core/yt/yt_l2.c ****     CMM_PARAM_CHK(NULL == YT_DISPATCH(unit), CMM_ERR_NOT_INIT);
 2518              		.loc 1 298 5 discriminator 3 view .LVU694
 2519 0046 FFF7FEFF 		bl	osal_printf
 2520              	.LVL292:
 2521 004a F5E7     		b	.L255
 2522              	.LVL293:
 2523              	.L266:
 298:../switch_sdk/core/yt/yt_l2.c ****     CMM_PARAM_CHK(NULL == YT_DISPATCH(unit), CMM_ERR_NOT_INIT);
 2524              		.loc 1 298 5 discriminator 3 view .LVU695
 2525              	.LBE50:
 299:../switch_sdk/core/yt/yt_l2.c ****     CMM_PARAM_CHK((!(YT_DISPATCH(unit)->is_inited)), CMM_ERR_NOT_INIT);
 2526              		.loc 1 299 5 is_stmt 1 discriminator 1 view .LVU696
 299:../switch_sdk/core/yt/yt_l2.c ****     CMM_PARAM_CHK((!(YT_DISPATCH(unit)->is_inited)), CMM_ERR_NOT_INIT);
 2527              		.loc 1 299 5 discriminator 1 view .LVU697
 2528 004c 174B     		ldr	r3, .L272+12
 2529 004e 1B78     		ldrb	r3, [r3]	@ zero_extendqisi2
 2530 0050 012B     		cmp	r3, #1
 2531 0052 01D8     		bhi	.L269
 2532              	.LVL294:
 2533              	.L258:
 299:../switch_sdk/core/yt/yt_l2.c ****     CMM_PARAM_CHK((!(YT_DISPATCH(unit)->is_inited)), CMM_ERR_NOT_INIT);
 2534              		.loc 1 299 5 discriminator 5 view .LVU698
 299:../switch_sdk/core/yt/yt_l2.c ****     CMM_PARAM_CHK((!(YT_DISPATCH(unit)->is_inited)), CMM_ERR_NOT_INIT);
 2535              		.loc 1 299 5 discriminator 5 view .LVU699
 299:../switch_sdk/core/yt/yt_l2.c ****     CMM_PARAM_CHK((!(YT_DISPATCH(unit)->is_inited)), CMM_ERR_NOT_INIT);
 2536              		.loc 1 299 5 discriminator 5 view .LVU700
 2537 0054 0420     		movs	r0, #4
 2538 0056 EAE7     		b	.L253
 2539              	.LVL295:
 2540              	.L269:
 299:../switch_sdk/core/yt/yt_l2.c ****     CMM_PARAM_CHK((!(YT_DISPATCH(unit)->is_inited)), CMM_ERR_NOT_INIT);
 2541              		.loc 1 299 5 discriminator 3 view .LVU701
 2542              	.LBB51:
 299:../switch_sdk/core/yt/yt_l2.c ****     CMM_PARAM_CHK((!(YT_DISPATCH(unit)->is_inited)), CMM_ERR_NOT_INIT);
 2543              		.loc 1 299 5 discriminator 3 view .LVU702
 2544 0058 154B     		ldr	r3, .L272+16
 2545 005a 1A69     		ldr	r2, [r3, #16]
 2546 005c 154B     		ldr	r3, .L272+20
 2547 005e 9968     		ldr	r1, [r3, #8]
 2548              	.LVL296:
 299:../switch_sdk/core/yt/yt_l2.c ****     CMM_PARAM_CHK((!(YT_DISPATCH(unit)->is_inited)), CMM_ERR_NOT_INIT);
 2549              		.loc 1 299 5 is_stmt 0 discriminator 3 view .LVU703
 2550 0060 1548     		ldr	r0, .L272+24
 2551              	.LVL297:
 299:../switch_sdk/core/yt/yt_l2.c ****     CMM_PARAM_CHK((!(YT_DISPATCH(unit)->is_inited)), CMM_ERR_NOT_INIT);
 2552              		.loc 1 299 5 discriminator 3 view .LVU704
 2553 0062 FFF7FEFF 		bl	osal_printf
 2554              	.LVL298:
 2555 0066 F5E7     		b	.L258
 2556              	.LVL299:
 2557              	.L267:
 299:../switch_sdk/core/yt/yt_l2.c ****     CMM_PARAM_CHK((!(YT_DISPATCH(unit)->is_inited)), CMM_ERR_NOT_INIT);
 2558              		.loc 1 299 5 discriminator 3 view .LVU705
 2559              	.LBE51:
 300:../switch_sdk/core/yt/yt_l2.c ****     CMM_PARAM_CHK((!(CMM_PORT_VALID(unit, port))), CMM_ERR_PORT);
 2560              		.loc 1 300 5 is_stmt 1 discriminator 1 view .LVU706
 300:../switch_sdk/core/yt/yt_l2.c ****     CMM_PARAM_CHK((!(CMM_PORT_VALID(unit, port))), CMM_ERR_PORT);
 2561              		.loc 1 300 5 discriminator 1 view .LVU707
 2562 0068 104B     		ldr	r3, .L272+12
 2563 006a 1B78     		ldrb	r3, [r3]	@ zero_extendqisi2
 2564 006c 012B     		cmp	r3, #1
 2565 006e 01D8     		bhi	.L270
 2566              	.LVL300:
 2567              	.L260:
 300:../switch_sdk/core/yt/yt_l2.c ****     CMM_PARAM_CHK((!(CMM_PORT_VALID(unit, port))), CMM_ERR_PORT);
 2568              		.loc 1 300 5 discriminator 5 view .LVU708
 300:../switch_sdk/core/yt/yt_l2.c ****     CMM_PARAM_CHK((!(CMM_PORT_VALID(unit, port))), CMM_ERR_PORT);
 2569              		.loc 1 300 5 discriminator 5 view .LVU709
 300:../switch_sdk/core/yt/yt_l2.c ****     CMM_PARAM_CHK((!(CMM_PORT_VALID(unit, port))), CMM_ERR_PORT);
 2570              		.loc 1 300 5 discriminator 5 view .LVU710
 2571 0070 0420     		movs	r0, #4
 2572 0072 DCE7     		b	.L253
 2573              	.LVL301:
 2574              	.L270:
 300:../switch_sdk/core/yt/yt_l2.c ****     CMM_PARAM_CHK((!(CMM_PORT_VALID(unit, port))), CMM_ERR_PORT);
 2575              		.loc 1 300 5 discriminator 3 view .LVU711
 2576              	.LBB52:
 300:../switch_sdk/core/yt/yt_l2.c ****     CMM_PARAM_CHK((!(CMM_PORT_VALID(unit, port))), CMM_ERR_PORT);
 2577              		.loc 1 300 5 discriminator 3 view .LVU712
 2578 0074 0E4B     		ldr	r3, .L272+16
 2579 0076 1A69     		ldr	r2, [r3, #16]
 2580 0078 0E4B     		ldr	r3, .L272+20
 2581 007a 9968     		ldr	r1, [r3, #8]
 2582              	.LVL302:
 300:../switch_sdk/core/yt/yt_l2.c ****     CMM_PARAM_CHK((!(CMM_PORT_VALID(unit, port))), CMM_ERR_PORT);
 2583              		.loc 1 300 5 is_stmt 0 discriminator 3 view .LVU713
 2584 007c 0E48     		ldr	r0, .L272+24
 2585 007e FFF7FEFF 		bl	osal_printf
 2586              	.LVL303:
 2587 0082 F5E7     		b	.L260
 2588              	.LVL304:
 2589              	.L261:
 300:../switch_sdk/core/yt/yt_l2.c ****     CMM_PARAM_CHK((!(CMM_PORT_VALID(unit, port))), CMM_ERR_PORT);
 2590              		.loc 1 300 5 discriminator 3 view .LVU714
 2591              	.LBE52:
 301:../switch_sdk/core/yt/yt_l2.c **** 
 2592              		.loc 1 301 5 is_stmt 1 discriminator 3 view .LVU715
 301:../switch_sdk/core/yt/yt_l2.c **** 
 2593              		.loc 1 301 5 discriminator 3 view .LVU716
 2594 0084 094B     		ldr	r3, .L272+12
 2595 0086 1B78     		ldrb	r3, [r3]	@ zero_extendqisi2
 2596 0088 012B     		cmp	r3, #1
 2597 008a 01D8     		bhi	.L271
 2598              	.LVL305:
 2599              	.L263:
 301:../switch_sdk/core/yt/yt_l2.c **** 
 2600              		.loc 1 301 5 discriminator 7 view .LVU717
 301:../switch_sdk/core/yt/yt_l2.c **** 
 2601              		.loc 1 301 5 discriminator 7 view .LVU718
 301:../switch_sdk/core/yt/yt_l2.c **** 
 2602              		.loc 1 301 5 discriminator 7 view .LVU719
 2603 008c 0E20     		movs	r0, #14
 2604 008e CEE7     		b	.L253
 2605              	.LVL306:
 2606              	.L271:
 301:../switch_sdk/core/yt/yt_l2.c **** 
 2607              		.loc 1 301 5 discriminator 5 view .LVU720
 2608              	.LBB53:
 301:../switch_sdk/core/yt/yt_l2.c **** 
 2609              		.loc 1 301 5 discriminator 5 view .LVU721
 2610 0090 074B     		ldr	r3, .L272+16
 2611 0092 9A6B     		ldr	r2, [r3, #56]
 2612 0094 074B     		ldr	r3, .L272+20
 2613 0096 9968     		ldr	r1, [r3, #8]
 2614              	.LVL307:
 301:../switch_sdk/core/yt/yt_l2.c **** 
 2615              		.loc 1 301 5 is_stmt 0 discriminator 5 view .LVU722
 2616 0098 0748     		ldr	r0, .L272+24
 2617 009a FFF7FEFF 		bl	osal_printf
 2618              	.LVL308:
 2619 009e F5E7     		b	.L263
 2620              	.L273:
 2621              		.align	2
 2622              	.L272:
 2623 00a0 00000000 		.word	gpfal_dispatch
 2624 00a4 00000000 		.word	gcal_inited
 2625 00a8 00000000 		.word	gpSwitchUnit
 2626 00ac 00000000 		.word	yt_debug_level
 2627 00b0 00000000 		.word	_yt_errmsg
 2628 00b4 00000000 		.word	_yt_prompt_msg
 2629 00b8 00000000 		.word	.LC0
 2630              	.LBE53:
 2631              		.cfi_endproc
 2632              	.LFE15:
 2634              		.section	.text.yt_l2_vlan_mcast_flush,"ax",%progbits
 2635              		.align	1
 2636              		.global	yt_l2_vlan_mcast_flush
 2637              		.syntax unified
 2638              		.thumb
 2639              		.thumb_func
 2641              	yt_l2_vlan_mcast_flush:
 2642              	.LVL309:
 2643              	.LFB16:
 305:../switch_sdk/core/yt/yt_l2.c **** 
 306:../switch_sdk/core/yt/yt_l2.c **** /**
 307:../switch_sdk/core/yt/yt_l2.c ****  * @internal      yt_l2_vlan_mcast_flush
 308:../switch_sdk/core/yt/yt_l2.c ****  * @endinternal
 309:../switch_sdk/core/yt/yt_l2.c ****  *
 310:../switch_sdk/core/yt/yt_l2.c ****  * @brief         Description
 311:../switch_sdk/core/yt/yt_l2.c ****  * @note          APPLICABLE DEVICES  -Tiger
 312:../switch_sdk/core/yt/yt_l2.c ****  * @param[in]     unit                -unit id
 313:../switch_sdk/core/yt/yt_l2.c ****  * @param[in]     vid                 -vlan id
 314:../switch_sdk/core/yt/yt_l2.c ****  * @retval        CMM_ERR_OK          -on success
 315:../switch_sdk/core/yt/yt_l2.c ****  * @retval        CMM_ERR_FAIL        -on fail
 316:../switch_sdk/core/yt/yt_l2.c ****  */
 317:../switch_sdk/core/yt/yt_l2.c **** yt_ret_t yt_l2_vlan_mcast_flush(yt_unit_t unit, yt_vlan_t vid)
 318:../switch_sdk/core/yt/yt_l2.c **** {
 2644              		.loc 1 318 1 is_stmt 1 view -0
 2645              		.cfi_startproc
 2646              		@ args = 0, pretend = 0, frame = 0
 2647              		@ frame_needed = 0, uses_anonymous_args = 0
 2648              		.loc 1 318 1 is_stmt 0 view .LVU724
 2649 0000 08B5     		push	{r3, lr}
 2650              		.cfi_def_cfa_offset 8
 2651              		.cfi_offset 3, -8
 2652              		.cfi_offset 14, -4
 319:../switch_sdk/core/yt/yt_l2.c ****     CMM_PARAM_CHK((YT_UNIT_NUM <= unit), CMM_ERR_INPUT);
 2653              		.loc 1 319 5 is_stmt 1 view .LVU725
 2654              		.loc 1 319 5 view .LVU726
 2655 0002 70B9     		cbnz	r0, .L285
 2656 0004 0246     		mov	r2, r0
 2657              		.loc 1 319 5 discriminator 2 view .LVU727
 320:../switch_sdk/core/yt/yt_l2.c ****     CMM_PARAM_CHK(NULL == YT_DISPATCH(unit), CMM_ERR_NOT_INIT);
 2658              		.loc 1 320 5 discriminator 2 view .LVU728
 2659              		.loc 1 320 5 discriminator 2 view .LVU729
 2660 0006 234B     		ldr	r3, .L293
 2661 0008 53F82030 		ldr	r3, [r3, r0, lsl #2]
 2662 000c BBB1     		cbz	r3, .L286
 2663              		.loc 1 320 5 discriminator 2 view .LVU730
 321:../switch_sdk/core/yt/yt_l2.c ****     CMM_PARAM_CHK((!(YT_DISPATCH(unit)->is_inited)), CMM_ERR_NOT_INIT);
 2664              		.loc 1 321 5 discriminator 2 view .LVU731
 2665              		.loc 1 321 5 discriminator 2 view .LVU732
 2666 000e 1878     		ldrb	r0, [r3]	@ zero_extendqisi2
 2667              	.LVL310:
 2668              		.loc 1 321 5 is_stmt 0 discriminator 2 view .LVU733
 2669 0010 18B3     		cbz	r0, .L287
 2670              		.loc 1 321 5 is_stmt 1 discriminator 2 view .LVU734
 322:../switch_sdk/core/yt/yt_l2.c ****     CMM_PARAM_CHK((YT_VLAN_ID_MAX < vid), CMM_ERR_EXCEED_RANGE);
 2671              		.loc 1 322 5 discriminator 2 view .LVU735
 2672              		.loc 1 322 5 discriminator 2 view .LVU736
 2673 0012 B1F5805F 		cmp	r1, #4096
 2674 0016 2ED2     		bcs	.L288
 2675              		.loc 1 322 5 discriminator 2 view .LVU737
 323:../switch_sdk/core/yt/yt_l2.c **** 
 324:../switch_sdk/core/yt/yt_l2.c ****     return YT_DISPATCH(unit)->l2_vlan_mcast_flush(unit, vid);
 2676              		.loc 1 324 5 discriminator 2 view .LVU738
 2677              		.loc 1 324 29 is_stmt 0 discriminator 2 view .LVU739
 2678 0018 D3F87033 		ldr	r3, [r3, #880]
 2679              		.loc 1 324 12 discriminator 2 view .LVU740
 2680 001c 1046     		mov	r0, r2
 2681 001e 9847     		blx	r3
 2682              	.LVL311:
 2683              	.L274:
 325:../switch_sdk/core/yt/yt_l2.c **** }
 2684              		.loc 1 325 1 view .LVU741
 2685 0020 08BD     		pop	{r3, pc}
 2686              	.LVL312:
 2687              	.L285:
 319:../switch_sdk/core/yt/yt_l2.c ****     CMM_PARAM_CHK(NULL == YT_DISPATCH(unit), CMM_ERR_NOT_INIT);
 2688              		.loc 1 319 5 is_stmt 1 discriminator 1 view .LVU742
 319:../switch_sdk/core/yt/yt_l2.c ****     CMM_PARAM_CHK(NULL == YT_DISPATCH(unit), CMM_ERR_NOT_INIT);
 2689              		.loc 1 319 5 discriminator 1 view .LVU743
 2690 0022 1D4B     		ldr	r3, .L293+4
 2691 0024 1B78     		ldrb	r3, [r3]	@ zero_extendqisi2
 2692 0026 012B     		cmp	r3, #1
 2693 0028 01D8     		bhi	.L289
 2694              	.LVL313:
 2695              	.L276:
 319:../switch_sdk/core/yt/yt_l2.c ****     CMM_PARAM_CHK(NULL == YT_DISPATCH(unit), CMM_ERR_NOT_INIT);
 2696              		.loc 1 319 5 discriminator 5 view .LVU744
 319:../switch_sdk/core/yt/yt_l2.c ****     CMM_PARAM_CHK(NULL == YT_DISPATCH(unit), CMM_ERR_NOT_INIT);
 2697              		.loc 1 319 5 discriminator 5 view .LVU745
 319:../switch_sdk/core/yt/yt_l2.c ****     CMM_PARAM_CHK(NULL == YT_DISPATCH(unit), CMM_ERR_NOT_INIT);
 2698              		.loc 1 319 5 discriminator 5 view .LVU746
 2699 002a 0520     		movs	r0, #5
 2700 002c F8E7     		b	.L274
 2701              	.LVL314:
 2702              	.L289:
 319:../switch_sdk/core/yt/yt_l2.c ****     CMM_PARAM_CHK(NULL == YT_DISPATCH(unit), CMM_ERR_NOT_INIT);
 2703              		.loc 1 319 5 discriminator 3 view .LVU747
 2704              	.LBB54:
 319:../switch_sdk/core/yt/yt_l2.c ****     CMM_PARAM_CHK(NULL == YT_DISPATCH(unit), CMM_ERR_NOT_INIT);
 2705              		.loc 1 319 5 discriminator 3 view .LVU748
 2706 002e 1B4B     		ldr	r3, .L293+8
 2707 0030 5A69     		ldr	r2, [r3, #20]
 2708 0032 1B4B     		ldr	r3, .L293+12
 2709 0034 9968     		ldr	r1, [r3, #8]
 2710              	.LVL315:
 319:../switch_sdk/core/yt/yt_l2.c ****     CMM_PARAM_CHK(NULL == YT_DISPATCH(unit), CMM_ERR_NOT_INIT);
 2711              		.loc 1 319 5 is_stmt 0 discriminator 3 view .LVU749
 2712 0036 1B48     		ldr	r0, .L293+16
 2713              	.LVL316:
 319:../switch_sdk/core/yt/yt_l2.c ****     CMM_PARAM_CHK(NULL == YT_DISPATCH(unit), CMM_ERR_NOT_INIT);
 2714              		.loc 1 319 5 discriminator 3 view .LVU750
 2715 0038 FFF7FEFF 		bl	osal_printf
 2716              	.LVL317:
 2717 003c F5E7     		b	.L276
 2718              	.LVL318:
 2719              	.L286:
 319:../switch_sdk/core/yt/yt_l2.c ****     CMM_PARAM_CHK(NULL == YT_DISPATCH(unit), CMM_ERR_NOT_INIT);
 2720              		.loc 1 319 5 discriminator 3 view .LVU751
 2721              	.LBE54:
 320:../switch_sdk/core/yt/yt_l2.c ****     CMM_PARAM_CHK((!(YT_DISPATCH(unit)->is_inited)), CMM_ERR_NOT_INIT);
 2722              		.loc 1 320 5 is_stmt 1 discriminator 1 view .LVU752
 320:../switch_sdk/core/yt/yt_l2.c ****     CMM_PARAM_CHK((!(YT_DISPATCH(unit)->is_inited)), CMM_ERR_NOT_INIT);
 2723              		.loc 1 320 5 discriminator 1 view .LVU753
 2724 003e 164B     		ldr	r3, .L293+4
 2725 0040 1B78     		ldrb	r3, [r3]	@ zero_extendqisi2
 2726 0042 012B     		cmp	r3, #1
 2727 0044 01D8     		bhi	.L290
 2728              	.LVL319:
 2729              	.L279:
 320:../switch_sdk/core/yt/yt_l2.c ****     CMM_PARAM_CHK((!(YT_DISPATCH(unit)->is_inited)), CMM_ERR_NOT_INIT);
 2730              		.loc 1 320 5 discriminator 5 view .LVU754
 320:../switch_sdk/core/yt/yt_l2.c ****     CMM_PARAM_CHK((!(YT_DISPATCH(unit)->is_inited)), CMM_ERR_NOT_INIT);
 2731              		.loc 1 320 5 discriminator 5 view .LVU755
 320:../switch_sdk/core/yt/yt_l2.c ****     CMM_PARAM_CHK((!(YT_DISPATCH(unit)->is_inited)), CMM_ERR_NOT_INIT);
 2732              		.loc 1 320 5 discriminator 5 view .LVU756
 2733 0046 0420     		movs	r0, #4
 2734 0048 EAE7     		b	.L274
 2735              	.LVL320:
 2736              	.L290:
 320:../switch_sdk/core/yt/yt_l2.c ****     CMM_PARAM_CHK((!(YT_DISPATCH(unit)->is_inited)), CMM_ERR_NOT_INIT);
 2737              		.loc 1 320 5 discriminator 3 view .LVU757
 2738              	.LBB55:
 320:../switch_sdk/core/yt/yt_l2.c ****     CMM_PARAM_CHK((!(YT_DISPATCH(unit)->is_inited)), CMM_ERR_NOT_INIT);
 2739              		.loc 1 320 5 discriminator 3 view .LVU758
 2740 004a 144B     		ldr	r3, .L293+8
 2741 004c 1A69     		ldr	r2, [r3, #16]
 2742 004e 144B     		ldr	r3, .L293+12
 2743 0050 9968     		ldr	r1, [r3, #8]
 2744              	.LVL321:
 320:../switch_sdk/core/yt/yt_l2.c ****     CMM_PARAM_CHK((!(YT_DISPATCH(unit)->is_inited)), CMM_ERR_NOT_INIT);
 2745              		.loc 1 320 5 is_stmt 0 discriminator 3 view .LVU759
 2746 0052 1448     		ldr	r0, .L293+16
 2747              	.LVL322:
 320:../switch_sdk/core/yt/yt_l2.c ****     CMM_PARAM_CHK((!(YT_DISPATCH(unit)->is_inited)), CMM_ERR_NOT_INIT);
 2748              		.loc 1 320 5 discriminator 3 view .LVU760
 2749 0054 FFF7FEFF 		bl	osal_printf
 2750              	.LVL323:
 2751 0058 F5E7     		b	.L279
 2752              	.LVL324:
 2753              	.L287:
 320:../switch_sdk/core/yt/yt_l2.c ****     CMM_PARAM_CHK((!(YT_DISPATCH(unit)->is_inited)), CMM_ERR_NOT_INIT);
 2754              		.loc 1 320 5 discriminator 3 view .LVU761
 2755              	.LBE55:
 321:../switch_sdk/core/yt/yt_l2.c ****     CMM_PARAM_CHK((YT_VLAN_ID_MAX < vid), CMM_ERR_EXCEED_RANGE);
 2756              		.loc 1 321 5 is_stmt 1 discriminator 1 view .LVU762
 321:../switch_sdk/core/yt/yt_l2.c ****     CMM_PARAM_CHK((YT_VLAN_ID_MAX < vid), CMM_ERR_EXCEED_RANGE);
 2757              		.loc 1 321 5 discriminator 1 view .LVU763
 2758 005a 0F4B     		ldr	r3, .L293+4
 2759 005c 1B78     		ldrb	r3, [r3]	@ zero_extendqisi2
 2760 005e 012B     		cmp	r3, #1
 2761 0060 01D8     		bhi	.L291
 2762              	.LVL325:
 2763              	.L281:
 321:../switch_sdk/core/yt/yt_l2.c ****     CMM_PARAM_CHK((YT_VLAN_ID_MAX < vid), CMM_ERR_EXCEED_RANGE);
 2764              		.loc 1 321 5 discriminator 5 view .LVU764
 321:../switch_sdk/core/yt/yt_l2.c ****     CMM_PARAM_CHK((YT_VLAN_ID_MAX < vid), CMM_ERR_EXCEED_RANGE);
 2765              		.loc 1 321 5 discriminator 5 view .LVU765
 321:../switch_sdk/core/yt/yt_l2.c ****     CMM_PARAM_CHK((YT_VLAN_ID_MAX < vid), CMM_ERR_EXCEED_RANGE);
 2766              		.loc 1 321 5 discriminator 5 view .LVU766
 2767 0062 0420     		movs	r0, #4
 2768 0064 DCE7     		b	.L274
 2769              	.LVL326:
 2770              	.L291:
 321:../switch_sdk/core/yt/yt_l2.c ****     CMM_PARAM_CHK((YT_VLAN_ID_MAX < vid), CMM_ERR_EXCEED_RANGE);
 2771              		.loc 1 321 5 discriminator 3 view .LVU767
 2772              	.LBB56:
 321:../switch_sdk/core/yt/yt_l2.c ****     CMM_PARAM_CHK((YT_VLAN_ID_MAX < vid), CMM_ERR_EXCEED_RANGE);
 2773              		.loc 1 321 5 discriminator 3 view .LVU768
 2774 0066 0D4B     		ldr	r3, .L293+8
 2775 0068 1A69     		ldr	r2, [r3, #16]
 2776 006a 0D4B     		ldr	r3, .L293+12
 2777 006c 9968     		ldr	r1, [r3, #8]
 2778              	.LVL327:
 321:../switch_sdk/core/yt/yt_l2.c ****     CMM_PARAM_CHK((YT_VLAN_ID_MAX < vid), CMM_ERR_EXCEED_RANGE);
 2779              		.loc 1 321 5 is_stmt 0 discriminator 3 view .LVU769
 2780 006e 0D48     		ldr	r0, .L293+16
 2781 0070 FFF7FEFF 		bl	osal_printf
 2782              	.LVL328:
 2783 0074 F5E7     		b	.L281
 2784              	.LVL329:
 2785              	.L288:
 321:../switch_sdk/core/yt/yt_l2.c ****     CMM_PARAM_CHK((YT_VLAN_ID_MAX < vid), CMM_ERR_EXCEED_RANGE);
 2786              		.loc 1 321 5 discriminator 3 view .LVU770
 2787              	.LBE56:
 322:../switch_sdk/core/yt/yt_l2.c **** 
 2788              		.loc 1 322 5 is_stmt 1 discriminator 1 view .LVU771
 322:../switch_sdk/core/yt/yt_l2.c **** 
 2789              		.loc 1 322 5 discriminator 1 view .LVU772
 2790 0076 084B     		ldr	r3, .L293+4
 2791 0078 1B78     		ldrb	r3, [r3]	@ zero_extendqisi2
 2792 007a 012B     		cmp	r3, #1
 2793 007c 01D8     		bhi	.L292
 2794              	.LVL330:
 2795              	.L283:
 322:../switch_sdk/core/yt/yt_l2.c **** 
 2796              		.loc 1 322 5 discriminator 5 view .LVU773
 322:../switch_sdk/core/yt/yt_l2.c **** 
 2797              		.loc 1 322 5 discriminator 5 view .LVU774
 322:../switch_sdk/core/yt/yt_l2.c **** 
 2798              		.loc 1 322 5 discriminator 5 view .LVU775
 2799 007e 1120     		movs	r0, #17
 2800 0080 CEE7     		b	.L274
 2801              	.LVL331:
 2802              	.L292:
 322:../switch_sdk/core/yt/yt_l2.c **** 
 2803              		.loc 1 322 5 discriminator 3 view .LVU776
 2804              	.LBB57:
 322:../switch_sdk/core/yt/yt_l2.c **** 
 2805              		.loc 1 322 5 discriminator 3 view .LVU777
 2806 0082 064B     		ldr	r3, .L293+8
 2807 0084 5A6C     		ldr	r2, [r3, #68]
 2808 0086 064B     		ldr	r3, .L293+12
 2809 0088 9968     		ldr	r1, [r3, #8]
 2810              	.LVL332:
 322:../switch_sdk/core/yt/yt_l2.c **** 
 2811              		.loc 1 322 5 is_stmt 0 discriminator 3 view .LVU778
 2812 008a 0648     		ldr	r0, .L293+16
 2813 008c FFF7FEFF 		bl	osal_printf
 2814              	.LVL333:
 2815 0090 F5E7     		b	.L283
 2816              	.L294:
 2817 0092 00BF     		.align	2
 2818              	.L293:
 2819 0094 00000000 		.word	gpfal_dispatch
 2820 0098 00000000 		.word	yt_debug_level
 2821 009c 00000000 		.word	_yt_errmsg
 2822 00a0 00000000 		.word	_yt_prompt_msg
 2823 00a4 00000000 		.word	.LC0
 2824              	.LBE57:
 2825              		.cfi_endproc
 2826              	.LFE16:
 2828              		.section	.text.yt_l2_fdb_type_get,"ax",%progbits
 2829              		.align	1
 2830              		.global	yt_l2_fdb_type_get
 2831              		.syntax unified
 2832              		.thumb
 2833              		.thumb_func
 2835              	yt_l2_fdb_type_get:
 2836              	.LVL334:
 2837              	.LFB17:
 326:../switch_sdk/core/yt/yt_l2.c **** 
 327:../switch_sdk/core/yt/yt_l2.c **** /**
 328:../switch_sdk/core/yt/yt_l2.c ****  * @internal      yt_l2_fdb_type_get
 329:../switch_sdk/core/yt/yt_l2.c ****  * @endinternal
 330:../switch_sdk/core/yt/yt_l2.c ****  *
 331:../switch_sdk/core/yt/yt_l2.c ****  * @brief         Description
 332:../switch_sdk/core/yt/yt_l2.c ****  * @note          APPLICABLE DEVICES  -Tiger
 333:../switch_sdk/core/yt/yt_l2.c ****  * @param[in]     unit                -unit id
 334:../switch_sdk/core/yt/yt_l2.c ****  * @param[in]     vid                 -vlan id
 335:../switch_sdk/core/yt/yt_l2.c ****  * @param[in]     mac_addr            -yt_types.h
 336:../switch_sdk/core/yt/yt_l2.c ****  * @param[in]     ptype               -FDB type,dynamic or static
 337:../switch_sdk/core/yt/yt_l2.c ****  * @retval        CMM_ERR_OK          -on success
 338:../switch_sdk/core/yt/yt_l2.c ****  * @retval        CMM_ERR_FAIL        -on fail
 339:../switch_sdk/core/yt/yt_l2.c ****  */
 340:../switch_sdk/core/yt/yt_l2.c **** yt_ret_t  yt_l2_fdb_type_get(yt_unit_t unit, yt_vlan_t vid, yt_mac_addr_t mac_addr, yt_l2_fdb_type_
 341:../switch_sdk/core/yt/yt_l2.c **** {
 2838              		.loc 1 341 1 is_stmt 1 view -0
 2839              		.cfi_startproc
 2840              		@ args = 4, pretend = 0, frame = 8
 2841              		@ frame_needed = 0, uses_anonymous_args = 0
 2842              		.loc 1 341 1 is_stmt 0 view .LVU780
 2843 0000 10B5     		push	{r4, lr}
 2844              		.cfi_def_cfa_offset 8
 2845              		.cfi_offset 4, -8
 2846              		.cfi_offset 14, -4
 2847 0002 84B0     		sub	sp, sp, #16
 2848              		.cfi_def_cfa_offset 24
 2849 0004 04AC     		add	r4, sp, #16
 2850 0006 04E90C00 		stmdb	r4, {r2, r3}
 342:../switch_sdk/core/yt/yt_l2.c ****     CMM_PARAM_CHK((YT_UNIT_NUM <= unit), CMM_ERR_INPUT);
 2851              		.loc 1 342 5 is_stmt 1 view .LVU781
 2852              		.loc 1 342 5 view .LVU782
 2853 000a B0B9     		cbnz	r0, .L308
 2854              		.loc 1 342 5 discriminator 2 view .LVU783
 343:../switch_sdk/core/yt/yt_l2.c ****     CMM_PARAM_CHK(NULL == YT_DISPATCH(unit), CMM_ERR_NOT_INIT);
 2855              		.loc 1 343 5 discriminator 2 view .LVU784
 2856              		.loc 1 343 5 discriminator 2 view .LVU785
 2857 000c 2E4B     		ldr	r3, .L318
 2858 000e 53F82030 		ldr	r3, [r3, r0, lsl #2]
 2859 0012 03B3     		cbz	r3, .L309
 2860              		.loc 1 343 5 discriminator 2 view .LVU786
 344:../switch_sdk/core/yt/yt_l2.c ****     CMM_PARAM_CHK((!(YT_DISPATCH(unit)->is_inited)), CMM_ERR_NOT_INIT);
 2861              		.loc 1 344 5 discriminator 2 view .LVU787
 2862              		.loc 1 344 5 discriminator 2 view .LVU788
 2863 0014 1A78     		ldrb	r2, [r3]	@ zero_extendqisi2
 2864 0016 002A     		cmp	r2, #0
 2865 0018 2BD0     		beq	.L310
 2866              		.loc 1 344 5 discriminator 2 view .LVU789
 345:../switch_sdk/core/yt/yt_l2.c ****     CMM_PARAM_CHK((YT_VLAN_ID_MAX < vid), CMM_ERR_EXCEED_RANGE);
 2867              		.loc 1 345 5 discriminator 2 view .LVU790
 2868              		.loc 1 345 5 discriminator 2 view .LVU791
 2869 001a B1F5805F 		cmp	r1, #4096
 2870 001e 36D2     		bcs	.L311
 2871              		.loc 1 345 5 discriminator 2 view .LVU792
 346:../switch_sdk/core/yt/yt_l2.c ****     CMM_PARAM_CHK((NULL == ptype), CMM_ERR_NULL_POINT);
 2872              		.loc 1 346 5 discriminator 2 view .LVU793
 2873              		.loc 1 346 5 discriminator 2 view .LVU794
 2874 0020 069A     		ldr	r2, [sp, #24]
 2875 0022 002A     		cmp	r2, #0
 2876 0024 41D0     		beq	.L312
 2877              		.loc 1 346 5 discriminator 2 view .LVU795
 347:../switch_sdk/core/yt/yt_l2.c **** 
 348:../switch_sdk/core/yt/yt_l2.c ****     return YT_DISPATCH(unit)->l2_fdb_type_get(unit, vid, mac_addr, ptype);
 2878              		.loc 1 348 5 discriminator 2 view .LVU796
 2879              		.loc 1 348 29 is_stmt 0 discriminator 2 view .LVU797
 2880 0026 D3F87443 		ldr	r4, [r3, #884]
 2881              		.loc 1 348 12 discriminator 2 view .LVU798
 2882 002a 069B     		ldr	r3, [sp, #24]
 2883 002c 0093     		str	r3, [sp]
 2884 002e 04AB     		add	r3, sp, #16
 2885 0030 13E90C00 		ldmdb	r3, {r2, r3}
 2886 0034 A047     		blx	r4
 2887              	.LVL335:
 2888              	.L295:
 349:../switch_sdk/core/yt/yt_l2.c **** }
 2889              		.loc 1 349 1 view .LVU799
 2890 0036 04B0     		add	sp, sp, #16
 2891              		.cfi_remember_state
 2892              		.cfi_def_cfa_offset 8
 2893              		@ sp needed
 2894 0038 10BD     		pop	{r4, pc}
 2895              	.LVL336:
 2896              	.L308:
 2897              		.cfi_restore_state
 342:../switch_sdk/core/yt/yt_l2.c ****     CMM_PARAM_CHK(NULL == YT_DISPATCH(unit), CMM_ERR_NOT_INIT);
 2898              		.loc 1 342 5 is_stmt 1 discriminator 1 view .LVU800
 342:../switch_sdk/core/yt/yt_l2.c ****     CMM_PARAM_CHK(NULL == YT_DISPATCH(unit), CMM_ERR_NOT_INIT);
 2899              		.loc 1 342 5 discriminator 1 view .LVU801
 2900 003a 244B     		ldr	r3, .L318+4
 2901 003c 1B78     		ldrb	r3, [r3]	@ zero_extendqisi2
 2902 003e 012B     		cmp	r3, #1
 2903 0040 01D8     		bhi	.L313
 2904              	.LVL337:
 2905              	.L297:
 342:../switch_sdk/core/yt/yt_l2.c ****     CMM_PARAM_CHK(NULL == YT_DISPATCH(unit), CMM_ERR_NOT_INIT);
 2906              		.loc 1 342 5 discriminator 5 view .LVU802
 342:../switch_sdk/core/yt/yt_l2.c ****     CMM_PARAM_CHK(NULL == YT_DISPATCH(unit), CMM_ERR_NOT_INIT);
 2907              		.loc 1 342 5 discriminator 5 view .LVU803
 342:../switch_sdk/core/yt/yt_l2.c ****     CMM_PARAM_CHK(NULL == YT_DISPATCH(unit), CMM_ERR_NOT_INIT);
 2908              		.loc 1 342 5 discriminator 5 view .LVU804
 2909 0042 0520     		movs	r0, #5
 2910 0044 F7E7     		b	.L295
 2911              	.LVL338:
 2912              	.L313:
 342:../switch_sdk/core/yt/yt_l2.c ****     CMM_PARAM_CHK(NULL == YT_DISPATCH(unit), CMM_ERR_NOT_INIT);
 2913              		.loc 1 342 5 discriminator 3 view .LVU805
 2914              	.LBB58:
 342:../switch_sdk/core/yt/yt_l2.c ****     CMM_PARAM_CHK(NULL == YT_DISPATCH(unit), CMM_ERR_NOT_INIT);
 2915              		.loc 1 342 5 discriminator 3 view .LVU806
 2916 0046 224B     		ldr	r3, .L318+8
 2917 0048 5A69     		ldr	r2, [r3, #20]
 2918 004a 224B     		ldr	r3, .L318+12
 2919 004c 9968     		ldr	r1, [r3, #8]
 2920              	.LVL339:
 342:../switch_sdk/core/yt/yt_l2.c ****     CMM_PARAM_CHK(NULL == YT_DISPATCH(unit), CMM_ERR_NOT_INIT);
 2921              		.loc 1 342 5 is_stmt 0 discriminator 3 view .LVU807
 2922 004e 2248     		ldr	r0, .L318+16
 2923              	.LVL340:
 342:../switch_sdk/core/yt/yt_l2.c ****     CMM_PARAM_CHK(NULL == YT_DISPATCH(unit), CMM_ERR_NOT_INIT);
 2924              		.loc 1 342 5 discriminator 3 view .LVU808
 2925 0050 FFF7FEFF 		bl	osal_printf
 2926              	.LVL341:
 2927 0054 F5E7     		b	.L297
 2928              	.LVL342:
 2929              	.L309:
 342:../switch_sdk/core/yt/yt_l2.c ****     CMM_PARAM_CHK(NULL == YT_DISPATCH(unit), CMM_ERR_NOT_INIT);
 2930              		.loc 1 342 5 discriminator 3 view .LVU809
 2931              	.LBE58:
 343:../switch_sdk/core/yt/yt_l2.c ****     CMM_PARAM_CHK((!(YT_DISPATCH(unit)->is_inited)), CMM_ERR_NOT_INIT);
 2932              		.loc 1 343 5 is_stmt 1 discriminator 1 view .LVU810
 343:../switch_sdk/core/yt/yt_l2.c ****     CMM_PARAM_CHK((!(YT_DISPATCH(unit)->is_inited)), CMM_ERR_NOT_INIT);
 2933              		.loc 1 343 5 discriminator 1 view .LVU811
 2934 0056 1D4B     		ldr	r3, .L318+4
 2935 0058 1B78     		ldrb	r3, [r3]	@ zero_extendqisi2
 2936 005a 012B     		cmp	r3, #1
 2937 005c 01D8     		bhi	.L314
 2938              	.LVL343:
 2939              	.L300:
 343:../switch_sdk/core/yt/yt_l2.c ****     CMM_PARAM_CHK((!(YT_DISPATCH(unit)->is_inited)), CMM_ERR_NOT_INIT);
 2940              		.loc 1 343 5 discriminator 5 view .LVU812
 343:../switch_sdk/core/yt/yt_l2.c ****     CMM_PARAM_CHK((!(YT_DISPATCH(unit)->is_inited)), CMM_ERR_NOT_INIT);
 2941              		.loc 1 343 5 discriminator 5 view .LVU813
 343:../switch_sdk/core/yt/yt_l2.c ****     CMM_PARAM_CHK((!(YT_DISPATCH(unit)->is_inited)), CMM_ERR_NOT_INIT);
 2942              		.loc 1 343 5 discriminator 5 view .LVU814
 2943 005e 0420     		movs	r0, #4
 2944 0060 E9E7     		b	.L295
 2945              	.LVL344:
 2946              	.L314:
 343:../switch_sdk/core/yt/yt_l2.c ****     CMM_PARAM_CHK((!(YT_DISPATCH(unit)->is_inited)), CMM_ERR_NOT_INIT);
 2947              		.loc 1 343 5 discriminator 3 view .LVU815
 2948              	.LBB59:
 343:../switch_sdk/core/yt/yt_l2.c ****     CMM_PARAM_CHK((!(YT_DISPATCH(unit)->is_inited)), CMM_ERR_NOT_INIT);
 2949              		.loc 1 343 5 discriminator 3 view .LVU816
 2950 0062 1B4B     		ldr	r3, .L318+8
 2951 0064 1A69     		ldr	r2, [r3, #16]
 2952 0066 1B4B     		ldr	r3, .L318+12
 2953 0068 9968     		ldr	r1, [r3, #8]
 2954              	.LVL345:
 343:../switch_sdk/core/yt/yt_l2.c ****     CMM_PARAM_CHK((!(YT_DISPATCH(unit)->is_inited)), CMM_ERR_NOT_INIT);
 2955              		.loc 1 343 5 is_stmt 0 discriminator 3 view .LVU817
 2956 006a 1B48     		ldr	r0, .L318+16
 2957              	.LVL346:
 343:../switch_sdk/core/yt/yt_l2.c ****     CMM_PARAM_CHK((!(YT_DISPATCH(unit)->is_inited)), CMM_ERR_NOT_INIT);
 2958              		.loc 1 343 5 discriminator 3 view .LVU818
 2959 006c FFF7FEFF 		bl	osal_printf
 2960              	.LVL347:
 2961 0070 F5E7     		b	.L300
 2962              	.LVL348:
 2963              	.L310:
 343:../switch_sdk/core/yt/yt_l2.c ****     CMM_PARAM_CHK((!(YT_DISPATCH(unit)->is_inited)), CMM_ERR_NOT_INIT);
 2964              		.loc 1 343 5 discriminator 3 view .LVU819
 2965              	.LBE59:
 344:../switch_sdk/core/yt/yt_l2.c ****     CMM_PARAM_CHK((YT_VLAN_ID_MAX < vid), CMM_ERR_EXCEED_RANGE);
 2966              		.loc 1 344 5 is_stmt 1 discriminator 1 view .LVU820
 344:../switch_sdk/core/yt/yt_l2.c ****     CMM_PARAM_CHK((YT_VLAN_ID_MAX < vid), CMM_ERR_EXCEED_RANGE);
 2967              		.loc 1 344 5 discriminator 1 view .LVU821
 2968 0072 164B     		ldr	r3, .L318+4
 2969 0074 1B78     		ldrb	r3, [r3]	@ zero_extendqisi2
 2970 0076 012B     		cmp	r3, #1
 2971 0078 01D8     		bhi	.L315
 2972              	.LVL349:
 2973              	.L302:
 344:../switch_sdk/core/yt/yt_l2.c ****     CMM_PARAM_CHK((YT_VLAN_ID_MAX < vid), CMM_ERR_EXCEED_RANGE);
 2974              		.loc 1 344 5 discriminator 5 view .LVU822
 344:../switch_sdk/core/yt/yt_l2.c ****     CMM_PARAM_CHK((YT_VLAN_ID_MAX < vid), CMM_ERR_EXCEED_RANGE);
 2975              		.loc 1 344 5 discriminator 5 view .LVU823
 344:../switch_sdk/core/yt/yt_l2.c ****     CMM_PARAM_CHK((YT_VLAN_ID_MAX < vid), CMM_ERR_EXCEED_RANGE);
 2976              		.loc 1 344 5 discriminator 5 view .LVU824
 2977 007a 0420     		movs	r0, #4
 2978 007c DBE7     		b	.L295
 2979              	.LVL350:
 2980              	.L315:
 344:../switch_sdk/core/yt/yt_l2.c ****     CMM_PARAM_CHK((YT_VLAN_ID_MAX < vid), CMM_ERR_EXCEED_RANGE);
 2981              		.loc 1 344 5 discriminator 3 view .LVU825
 2982              	.LBB60:
 344:../switch_sdk/core/yt/yt_l2.c ****     CMM_PARAM_CHK((YT_VLAN_ID_MAX < vid), CMM_ERR_EXCEED_RANGE);
 2983              		.loc 1 344 5 discriminator 3 view .LVU826
 2984 007e 144B     		ldr	r3, .L318+8
 2985 0080 1A69     		ldr	r2, [r3, #16]
 2986 0082 144B     		ldr	r3, .L318+12
 2987 0084 9968     		ldr	r1, [r3, #8]
 2988              	.LVL351:
 344:../switch_sdk/core/yt/yt_l2.c ****     CMM_PARAM_CHK((YT_VLAN_ID_MAX < vid), CMM_ERR_EXCEED_RANGE);
 2989              		.loc 1 344 5 is_stmt 0 discriminator 3 view .LVU827
 2990 0086 1448     		ldr	r0, .L318+16
 2991              	.LVL352:
 344:../switch_sdk/core/yt/yt_l2.c ****     CMM_PARAM_CHK((YT_VLAN_ID_MAX < vid), CMM_ERR_EXCEED_RANGE);
 2992              		.loc 1 344 5 discriminator 3 view .LVU828
 2993 0088 FFF7FEFF 		bl	osal_printf
 2994              	.LVL353:
 2995 008c F5E7     		b	.L302
 2996              	.LVL354:
 2997              	.L311:
 344:../switch_sdk/core/yt/yt_l2.c ****     CMM_PARAM_CHK((YT_VLAN_ID_MAX < vid), CMM_ERR_EXCEED_RANGE);
 2998              		.loc 1 344 5 discriminator 3 view .LVU829
 2999              	.LBE60:
 345:../switch_sdk/core/yt/yt_l2.c ****     CMM_PARAM_CHK((NULL == ptype), CMM_ERR_NULL_POINT);
 3000              		.loc 1 345 5 is_stmt 1 discriminator 1 view .LVU830
 345:../switch_sdk/core/yt/yt_l2.c ****     CMM_PARAM_CHK((NULL == ptype), CMM_ERR_NULL_POINT);
 3001              		.loc 1 345 5 discriminator 1 view .LVU831
 3002 008e 0F4B     		ldr	r3, .L318+4
 3003 0090 1B78     		ldrb	r3, [r3]	@ zero_extendqisi2
 3004 0092 012B     		cmp	r3, #1
 3005 0094 01D8     		bhi	.L316
 3006              	.LVL355:
 3007              	.L304:
 345:../switch_sdk/core/yt/yt_l2.c ****     CMM_PARAM_CHK((NULL == ptype), CMM_ERR_NULL_POINT);
 3008              		.loc 1 345 5 discriminator 5 view .LVU832
 345:../switch_sdk/core/yt/yt_l2.c ****     CMM_PARAM_CHK((NULL == ptype), CMM_ERR_NULL_POINT);
 3009              		.loc 1 345 5 discriminator 5 view .LVU833
 345:../switch_sdk/core/yt/yt_l2.c ****     CMM_PARAM_CHK((NULL == ptype), CMM_ERR_NULL_POINT);
 3010              		.loc 1 345 5 discriminator 5 view .LVU834
 3011 0096 1120     		movs	r0, #17
 3012 0098 CDE7     		b	.L295
 3013              	.LVL356:
 3014              	.L316:
 345:../switch_sdk/core/yt/yt_l2.c ****     CMM_PARAM_CHK((NULL == ptype), CMM_ERR_NULL_POINT);
 3015              		.loc 1 345 5 discriminator 3 view .LVU835
 3016              	.LBB61:
 345:../switch_sdk/core/yt/yt_l2.c ****     CMM_PARAM_CHK((NULL == ptype), CMM_ERR_NULL_POINT);
 3017              		.loc 1 345 5 discriminator 3 view .LVU836
 3018 009a 0D4B     		ldr	r3, .L318+8
 3019 009c 5A6C     		ldr	r2, [r3, #68]
 3020 009e 0D4B     		ldr	r3, .L318+12
 3021 00a0 9968     		ldr	r1, [r3, #8]
 3022              	.LVL357:
 345:../switch_sdk/core/yt/yt_l2.c ****     CMM_PARAM_CHK((NULL == ptype), CMM_ERR_NULL_POINT);
 3023              		.loc 1 345 5 is_stmt 0 discriminator 3 view .LVU837
 3024 00a2 0D48     		ldr	r0, .L318+16
 3025              	.LVL358:
 345:../switch_sdk/core/yt/yt_l2.c ****     CMM_PARAM_CHK((NULL == ptype), CMM_ERR_NULL_POINT);
 3026              		.loc 1 345 5 discriminator 3 view .LVU838
 3027 00a4 FFF7FEFF 		bl	osal_printf
 3028              	.LVL359:
 3029 00a8 F5E7     		b	.L304
 3030              	.LVL360:
 3031              	.L312:
 345:../switch_sdk/core/yt/yt_l2.c ****     CMM_PARAM_CHK((NULL == ptype), CMM_ERR_NULL_POINT);
 3032              		.loc 1 345 5 discriminator 3 view .LVU839
 3033              	.LBE61:
 346:../switch_sdk/core/yt/yt_l2.c **** 
 3034              		.loc 1 346 5 is_stmt 1 discriminator 1 view .LVU840
 346:../switch_sdk/core/yt/yt_l2.c **** 
 3035              		.loc 1 346 5 discriminator 1 view .LVU841
 3036 00aa 084B     		ldr	r3, .L318+4
 3037 00ac 1B78     		ldrb	r3, [r3]	@ zero_extendqisi2
 3038 00ae 012B     		cmp	r3, #1
 3039 00b0 01D8     		bhi	.L317
 3040              	.LVL361:
 3041              	.L306:
 346:../switch_sdk/core/yt/yt_l2.c **** 
 3042              		.loc 1 346 5 discriminator 5 view .LVU842
 346:../switch_sdk/core/yt/yt_l2.c **** 
 3043              		.loc 1 346 5 discriminator 5 view .LVU843
 346:../switch_sdk/core/yt/yt_l2.c **** 
 3044              		.loc 1 346 5 discriminator 5 view .LVU844
 3045 00b2 0220     		movs	r0, #2
 3046 00b4 BFE7     		b	.L295
 3047              	.LVL362:
 3048              	.L317:
 346:../switch_sdk/core/yt/yt_l2.c **** 
 3049              		.loc 1 346 5 discriminator 3 view .LVU845
 3050              	.LBB62:
 346:../switch_sdk/core/yt/yt_l2.c **** 
 3051              		.loc 1 346 5 discriminator 3 view .LVU846
 3052 00b6 064B     		ldr	r3, .L318+8
 3053 00b8 9A68     		ldr	r2, [r3, #8]
 3054 00ba 064B     		ldr	r3, .L318+12
 3055 00bc 9968     		ldr	r1, [r3, #8]
 3056              	.LVL363:
 346:../switch_sdk/core/yt/yt_l2.c **** 
 3057              		.loc 1 346 5 is_stmt 0 discriminator 3 view .LVU847
 3058 00be 0648     		ldr	r0, .L318+16
 3059              	.LVL364:
 346:../switch_sdk/core/yt/yt_l2.c **** 
 3060              		.loc 1 346 5 discriminator 3 view .LVU848
 3061 00c0 FFF7FEFF 		bl	osal_printf
 3062              	.LVL365:
 3063 00c4 F5E7     		b	.L306
 3064              	.L319:
 3065 00c6 00BF     		.align	2
 3066              	.L318:
 3067 00c8 00000000 		.word	gpfal_dispatch
 3068 00cc 00000000 		.word	yt_debug_level
 3069 00d0 00000000 		.word	_yt_errmsg
 3070 00d4 00000000 		.word	_yt_prompt_msg
 3071 00d8 00000000 		.word	.LC0
 3072              	.LBE62:
 3073              		.cfi_endproc
 3074              	.LFE17:
 3076              		.section	.text.yt_l2_port_learnlimit_en_set,"ax",%progbits
 3077              		.align	1
 3078              		.global	yt_l2_port_learnlimit_en_set
 3079              		.syntax unified
 3080              		.thumb
 3081              		.thumb_func
 3083              	yt_l2_port_learnlimit_en_set:
 3084              	.LVL366:
 3085              	.LFB18:
 350:../switch_sdk/core/yt/yt_l2.c **** 
 351:../switch_sdk/core/yt/yt_l2.c **** /**
 352:../switch_sdk/core/yt/yt_l2.c ****  * @internal      yt_l2_port_learnlimit_en_set
 353:../switch_sdk/core/yt/yt_l2.c ****  * @endinternal
 354:../switch_sdk/core/yt/yt_l2.c ****  *
 355:../switch_sdk/core/yt/yt_l2.c ****  * @brief         Description
 356:../switch_sdk/core/yt/yt_l2.c ****  * @note          APPLICABLE DEVICES  -Tiger
 357:../switch_sdk/core/yt/yt_l2.c ****  * @param[in]     unit                -unit id
 358:../switch_sdk/core/yt/yt_l2.c ****  * @param[in]     port                -port num
 359:../switch_sdk/core/yt/yt_l2.c ****  * @param[in]     enable              -enable or disable
 360:../switch_sdk/core/yt/yt_l2.c ****  * @retval        CMM_ERR_OK          -on success
 361:../switch_sdk/core/yt/yt_l2.c ****  * @retval        CMM_ERR_FAIL        -on fail
 362:../switch_sdk/core/yt/yt_l2.c ****  */
 363:../switch_sdk/core/yt/yt_l2.c **** yt_ret_t  yt_l2_port_learnlimit_en_set(yt_unit_t unit, yt_port_t port, yt_enable_t enable)
 364:../switch_sdk/core/yt/yt_l2.c **** {
 3086              		.loc 1 364 1 is_stmt 1 view -0
 3087              		.cfi_startproc
 3088              		@ args = 0, pretend = 0, frame = 0
 3089              		@ frame_needed = 0, uses_anonymous_args = 0
 3090              		.loc 1 364 1 is_stmt 0 view .LVU850
 3091 0000 08B5     		push	{r3, lr}
 3092              		.cfi_def_cfa_offset 8
 3093              		.cfi_offset 3, -8
 3094              		.cfi_offset 14, -4
 365:../switch_sdk/core/yt/yt_l2.c ****     CMM_PARAM_CHK((YT_UNIT_NUM <= unit), CMM_ERR_INPUT);
 3095              		.loc 1 365 5 is_stmt 1 view .LVU851
 3096              		.loc 1 365 5 view .LVU852
 3097 0002 C0B9     		cbnz	r0, .L334
 3098 0004 8446     		mov	ip, r0
 3099              		.loc 1 365 5 discriminator 2 view .LVU853
 366:../switch_sdk/core/yt/yt_l2.c ****     CMM_PARAM_CHK(NULL == YT_DISPATCH(unit), CMM_ERR_NOT_INIT);
 3100              		.loc 1 366 5 discriminator 2 view .LVU854
 3101              		.loc 1 366 5 discriminator 2 view .LVU855
 3102 0006 2F4B     		ldr	r3, .L343
 3103 0008 53F82030 		ldr	r3, [r3, r0, lsl #2]
 3104 000c 0BB3     		cbz	r3, .L335
 3105              		.loc 1 366 5 discriminator 2 view .LVU856
 367:../switch_sdk/core/yt/yt_l2.c ****     CMM_PARAM_CHK((!(YT_DISPATCH(unit)->is_inited)), CMM_ERR_NOT_INIT);
 3106              		.loc 1 367 5 discriminator 2 view .LVU857
 3107              		.loc 1 367 5 discriminator 2 view .LVU858
 3108 000e 1878     		ldrb	r0, [r3]	@ zero_extendqisi2
 3109              	.LVL367:
 3110              		.loc 1 367 5 is_stmt 0 discriminator 2 view .LVU859
 3111 0010 0028     		cmp	r0, #0
 3112 0012 2CD0     		beq	.L336
 3113              		.loc 1 367 5 is_stmt 1 discriminator 2 view .LVU860
 368:../switch_sdk/core/yt/yt_l2.c ****     CMM_PARAM_CHK((!(CMM_PORT_VALID(unit, port))), CMM_ERR_PORT);
 3114              		.loc 1 368 5 discriminator 2 view .LVU861
 3115              		.loc 1 368 5 discriminator 2 view .LVU862
 3116 0014 2C48     		ldr	r0, .L343+4
 3117 0016 0078     		ldrb	r0, [r0]	@ zero_extendqisi2
 3118 0018 0028     		cmp	r0, #0
 3119 001a 36D0     		beq	.L328
 3120 001c 2B48     		ldr	r0, .L343+8
 3121 001e 50F82C00 		ldr	r0, [r0, ip, lsl #2]
 3122 0022 007D     		ldrb	r0, [r0, #20]	@ zero_extendqisi2
 3123 0024 8842     		cmp	r0, r1
 3124 0026 30D9     		bls	.L328
 3125              		.loc 1 368 5 discriminator 4 view .LVU863
 369:../switch_sdk/core/yt/yt_l2.c ****     CMM_PARAM_CHK((YT_ENABLE < enable || YT_DISABLE > enable), CMM_ERR_INPUT);
 3126              		.loc 1 369 5 discriminator 4 view .LVU864
 3127              		.loc 1 369 5 discriminator 4 view .LVU865
 3128 0028 012A     		cmp	r2, #1
 3129 002a 3CD8     		bhi	.L337
 3130              		.loc 1 369 5 discriminator 2 view .LVU866
 370:../switch_sdk/core/yt/yt_l2.c **** 
 371:../switch_sdk/core/yt/yt_l2.c ****     return YT_DISPATCH(unit)->l2_port_learnlimit_en_set(unit, port, enable);
 3131              		.loc 1 371 5 discriminator 2 view .LVU867
 3132              		.loc 1 371 29 is_stmt 0 discriminator 2 view .LVU868
 3133 002c D3F87833 		ldr	r3, [r3, #888]
 3134              		.loc 1 371 12 discriminator 2 view .LVU869
 3135 0030 6046     		mov	r0, ip
 3136 0032 9847     		blx	r3
 3137              	.LVL368:
 3138              	.L320:
 372:../switch_sdk/core/yt/yt_l2.c **** }
 3139              		.loc 1 372 1 view .LVU870
 3140 0034 08BD     		pop	{r3, pc}
 3141              	.LVL369:
 3142              	.L334:
 365:../switch_sdk/core/yt/yt_l2.c ****     CMM_PARAM_CHK(NULL == YT_DISPATCH(unit), CMM_ERR_NOT_INIT);
 3143              		.loc 1 365 5 is_stmt 1 discriminator 1 view .LVU871
 365:../switch_sdk/core/yt/yt_l2.c ****     CMM_PARAM_CHK(NULL == YT_DISPATCH(unit), CMM_ERR_NOT_INIT);
 3144              		.loc 1 365 5 discriminator 1 view .LVU872
 3145 0036 264B     		ldr	r3, .L343+12
 3146 0038 1B78     		ldrb	r3, [r3]	@ zero_extendqisi2
 3147 003a 012B     		cmp	r3, #1
 3148 003c 01D8     		bhi	.L338
 3149              	.LVL370:
 3150              	.L322:
 365:../switch_sdk/core/yt/yt_l2.c ****     CMM_PARAM_CHK(NULL == YT_DISPATCH(unit), CMM_ERR_NOT_INIT);
 3151              		.loc 1 365 5 discriminator 5 view .LVU873
 365:../switch_sdk/core/yt/yt_l2.c ****     CMM_PARAM_CHK(NULL == YT_DISPATCH(unit), CMM_ERR_NOT_INIT);
 3152              		.loc 1 365 5 discriminator 5 view .LVU874
 365:../switch_sdk/core/yt/yt_l2.c ****     CMM_PARAM_CHK(NULL == YT_DISPATCH(unit), CMM_ERR_NOT_INIT);
 3153              		.loc 1 365 5 discriminator 5 view .LVU875
 3154 003e 0520     		movs	r0, #5
 3155 0040 F8E7     		b	.L320
 3156              	.LVL371:
 3157              	.L338:
 365:../switch_sdk/core/yt/yt_l2.c ****     CMM_PARAM_CHK(NULL == YT_DISPATCH(unit), CMM_ERR_NOT_INIT);
 3158              		.loc 1 365 5 discriminator 3 view .LVU876
 3159              	.LBB63:
 365:../switch_sdk/core/yt/yt_l2.c ****     CMM_PARAM_CHK(NULL == YT_DISPATCH(unit), CMM_ERR_NOT_INIT);
 3160              		.loc 1 365 5 discriminator 3 view .LVU877
 3161 0042 244B     		ldr	r3, .L343+16
 3162 0044 5A69     		ldr	r2, [r3, #20]
 3163              	.LVL372:
 365:../switch_sdk/core/yt/yt_l2.c ****     CMM_PARAM_CHK(NULL == YT_DISPATCH(unit), CMM_ERR_NOT_INIT);
 3164              		.loc 1 365 5 is_stmt 0 discriminator 3 view .LVU878
 3165 0046 244B     		ldr	r3, .L343+20
 3166 0048 9968     		ldr	r1, [r3, #8]
 3167              	.LVL373:
 365:../switch_sdk/core/yt/yt_l2.c ****     CMM_PARAM_CHK(NULL == YT_DISPATCH(unit), CMM_ERR_NOT_INIT);
 3168              		.loc 1 365 5 discriminator 3 view .LVU879
 3169 004a 2448     		ldr	r0, .L343+24
 3170              	.LVL374:
 365:../switch_sdk/core/yt/yt_l2.c ****     CMM_PARAM_CHK(NULL == YT_DISPATCH(unit), CMM_ERR_NOT_INIT);
 3171              		.loc 1 365 5 discriminator 3 view .LVU880
 3172 004c FFF7FEFF 		bl	osal_printf
 3173              	.LVL375:
 3174 0050 F5E7     		b	.L322
 3175              	.LVL376:
 3176              	.L335:
 365:../switch_sdk/core/yt/yt_l2.c ****     CMM_PARAM_CHK(NULL == YT_DISPATCH(unit), CMM_ERR_NOT_INIT);
 3177              		.loc 1 365 5 discriminator 3 view .LVU881
 3178              	.LBE63:
 366:../switch_sdk/core/yt/yt_l2.c ****     CMM_PARAM_CHK((!(YT_DISPATCH(unit)->is_inited)), CMM_ERR_NOT_INIT);
 3179              		.loc 1 366 5 is_stmt 1 discriminator 1 view .LVU882
 366:../switch_sdk/core/yt/yt_l2.c ****     CMM_PARAM_CHK((!(YT_DISPATCH(unit)->is_inited)), CMM_ERR_NOT_INIT);
 3180              		.loc 1 366 5 discriminator 1 view .LVU883
 3181 0052 1F4B     		ldr	r3, .L343+12
 3182 0054 1B78     		ldrb	r3, [r3]	@ zero_extendqisi2
 3183 0056 012B     		cmp	r3, #1
 3184 0058 01D8     		bhi	.L339
 3185              	.LVL377:
 3186              	.L325:
 366:../switch_sdk/core/yt/yt_l2.c ****     CMM_PARAM_CHK((!(YT_DISPATCH(unit)->is_inited)), CMM_ERR_NOT_INIT);
 3187              		.loc 1 366 5 discriminator 5 view .LVU884
 366:../switch_sdk/core/yt/yt_l2.c ****     CMM_PARAM_CHK((!(YT_DISPATCH(unit)->is_inited)), CMM_ERR_NOT_INIT);
 3188              		.loc 1 366 5 discriminator 5 view .LVU885
 366:../switch_sdk/core/yt/yt_l2.c ****     CMM_PARAM_CHK((!(YT_DISPATCH(unit)->is_inited)), CMM_ERR_NOT_INIT);
 3189              		.loc 1 366 5 discriminator 5 view .LVU886
 3190 005a 0420     		movs	r0, #4
 3191 005c EAE7     		b	.L320
 3192              	.LVL378:
 3193              	.L339:
 366:../switch_sdk/core/yt/yt_l2.c ****     CMM_PARAM_CHK((!(YT_DISPATCH(unit)->is_inited)), CMM_ERR_NOT_INIT);
 3194              		.loc 1 366 5 discriminator 3 view .LVU887
 3195              	.LBB64:
 366:../switch_sdk/core/yt/yt_l2.c ****     CMM_PARAM_CHK((!(YT_DISPATCH(unit)->is_inited)), CMM_ERR_NOT_INIT);
 3196              		.loc 1 366 5 discriminator 3 view .LVU888
 3197 005e 1D4B     		ldr	r3, .L343+16
 3198 0060 1A69     		ldr	r2, [r3, #16]
 3199              	.LVL379:
 366:../switch_sdk/core/yt/yt_l2.c ****     CMM_PARAM_CHK((!(YT_DISPATCH(unit)->is_inited)), CMM_ERR_NOT_INIT);
 3200              		.loc 1 366 5 is_stmt 0 discriminator 3 view .LVU889
 3201 0062 1D4B     		ldr	r3, .L343+20
 3202 0064 9968     		ldr	r1, [r3, #8]
 3203              	.LVL380:
 366:../switch_sdk/core/yt/yt_l2.c ****     CMM_PARAM_CHK((!(YT_DISPATCH(unit)->is_inited)), CMM_ERR_NOT_INIT);
 3204              		.loc 1 366 5 discriminator 3 view .LVU890
 3205 0066 1D48     		ldr	r0, .L343+24
 3206              	.LVL381:
 366:../switch_sdk/core/yt/yt_l2.c ****     CMM_PARAM_CHK((!(YT_DISPATCH(unit)->is_inited)), CMM_ERR_NOT_INIT);
 3207              		.loc 1 366 5 discriminator 3 view .LVU891
 3208 0068 FFF7FEFF 		bl	osal_printf
 3209              	.LVL382:
 3210 006c F5E7     		b	.L325
 3211              	.LVL383:
 3212              	.L336:
 366:../switch_sdk/core/yt/yt_l2.c ****     CMM_PARAM_CHK((!(YT_DISPATCH(unit)->is_inited)), CMM_ERR_NOT_INIT);
 3213              		.loc 1 366 5 discriminator 3 view .LVU892
 3214              	.LBE64:
 367:../switch_sdk/core/yt/yt_l2.c ****     CMM_PARAM_CHK((!(CMM_PORT_VALID(unit, port))), CMM_ERR_PORT);
 3215              		.loc 1 367 5 is_stmt 1 discriminator 1 view .LVU893
 367:../switch_sdk/core/yt/yt_l2.c ****     CMM_PARAM_CHK((!(CMM_PORT_VALID(unit, port))), CMM_ERR_PORT);
 3216              		.loc 1 367 5 discriminator 1 view .LVU894
 3217 006e 184B     		ldr	r3, .L343+12
 3218 0070 1B78     		ldrb	r3, [r3]	@ zero_extendqisi2
 3219 0072 012B     		cmp	r3, #1
 3220 0074 01D8     		bhi	.L340
 3221              	.LVL384:
 3222              	.L327:
 367:../switch_sdk/core/yt/yt_l2.c ****     CMM_PARAM_CHK((!(CMM_PORT_VALID(unit, port))), CMM_ERR_PORT);
 3223              		.loc 1 367 5 discriminator 5 view .LVU895
 367:../switch_sdk/core/yt/yt_l2.c ****     CMM_PARAM_CHK((!(CMM_PORT_VALID(unit, port))), CMM_ERR_PORT);
 3224              		.loc 1 367 5 discriminator 5 view .LVU896
 367:../switch_sdk/core/yt/yt_l2.c ****     CMM_PARAM_CHK((!(CMM_PORT_VALID(unit, port))), CMM_ERR_PORT);
 3225              		.loc 1 367 5 discriminator 5 view .LVU897
 3226 0076 0420     		movs	r0, #4
 3227 0078 DCE7     		b	.L320
 3228              	.LVL385:
 3229              	.L340:
 367:../switch_sdk/core/yt/yt_l2.c ****     CMM_PARAM_CHK((!(CMM_PORT_VALID(unit, port))), CMM_ERR_PORT);
 3230              		.loc 1 367 5 discriminator 3 view .LVU898
 3231              	.LBB65:
 367:../switch_sdk/core/yt/yt_l2.c ****     CMM_PARAM_CHK((!(CMM_PORT_VALID(unit, port))), CMM_ERR_PORT);
 3232              		.loc 1 367 5 discriminator 3 view .LVU899
 3233 007a 164B     		ldr	r3, .L343+16
 3234 007c 1A69     		ldr	r2, [r3, #16]
 3235              	.LVL386:
 367:../switch_sdk/core/yt/yt_l2.c ****     CMM_PARAM_CHK((!(CMM_PORT_VALID(unit, port))), CMM_ERR_PORT);
 3236              		.loc 1 367 5 is_stmt 0 discriminator 3 view .LVU900
 3237 007e 164B     		ldr	r3, .L343+20
 3238 0080 9968     		ldr	r1, [r3, #8]
 3239              	.LVL387:
 367:../switch_sdk/core/yt/yt_l2.c ****     CMM_PARAM_CHK((!(CMM_PORT_VALID(unit, port))), CMM_ERR_PORT);
 3240              		.loc 1 367 5 discriminator 3 view .LVU901
 3241 0082 1648     		ldr	r0, .L343+24
 3242 0084 FFF7FEFF 		bl	osal_printf
 3243              	.LVL388:
 3244 0088 F5E7     		b	.L327
 3245              	.LVL389:
 3246              	.L328:
 367:../switch_sdk/core/yt/yt_l2.c ****     CMM_PARAM_CHK((!(CMM_PORT_VALID(unit, port))), CMM_ERR_PORT);
 3247              		.loc 1 367 5 discriminator 3 view .LVU902
 3248              	.LBE65:
 368:../switch_sdk/core/yt/yt_l2.c ****     CMM_PARAM_CHK((YT_ENABLE < enable || YT_DISABLE > enable), CMM_ERR_INPUT);
 3249              		.loc 1 368 5 is_stmt 1 discriminator 3 view .LVU903
 368:../switch_sdk/core/yt/yt_l2.c ****     CMM_PARAM_CHK((YT_ENABLE < enable || YT_DISABLE > enable), CMM_ERR_INPUT);
 3250              		.loc 1 368 5 discriminator 3 view .LVU904
 3251 008a 114B     		ldr	r3, .L343+12
 3252 008c 1B78     		ldrb	r3, [r3]	@ zero_extendqisi2
 3253 008e 012B     		cmp	r3, #1
 3254 0090 01D8     		bhi	.L341
 3255              	.LVL390:
 3256              	.L330:
 368:../switch_sdk/core/yt/yt_l2.c ****     CMM_PARAM_CHK((YT_ENABLE < enable || YT_DISABLE > enable), CMM_ERR_INPUT);
 3257              		.loc 1 368 5 discriminator 7 view .LVU905
 368:../switch_sdk/core/yt/yt_l2.c ****     CMM_PARAM_CHK((YT_ENABLE < enable || YT_DISABLE > enable), CMM_ERR_INPUT);
 3258              		.loc 1 368 5 discriminator 7 view .LVU906
 368:../switch_sdk/core/yt/yt_l2.c ****     CMM_PARAM_CHK((YT_ENABLE < enable || YT_DISABLE > enable), CMM_ERR_INPUT);
 3259              		.loc 1 368 5 discriminator 7 view .LVU907
 3260 0092 0E20     		movs	r0, #14
 3261 0094 CEE7     		b	.L320
 3262              	.LVL391:
 3263              	.L341:
 368:../switch_sdk/core/yt/yt_l2.c ****     CMM_PARAM_CHK((YT_ENABLE < enable || YT_DISABLE > enable), CMM_ERR_INPUT);
 3264              		.loc 1 368 5 discriminator 5 view .LVU908
 3265              	.LBB66:
 368:../switch_sdk/core/yt/yt_l2.c ****     CMM_PARAM_CHK((YT_ENABLE < enable || YT_DISABLE > enable), CMM_ERR_INPUT);
 3266              		.loc 1 368 5 discriminator 5 view .LVU909
 3267 0096 0F4B     		ldr	r3, .L343+16
 3268 0098 9A6B     		ldr	r2, [r3, #56]
 3269              	.LVL392:
 368:../switch_sdk/core/yt/yt_l2.c ****     CMM_PARAM_CHK((YT_ENABLE < enable || YT_DISABLE > enable), CMM_ERR_INPUT);
 3270              		.loc 1 368 5 is_stmt 0 discriminator 5 view .LVU910
 3271 009a 0F4B     		ldr	r3, .L343+20
 3272 009c 9968     		ldr	r1, [r3, #8]
 3273              	.LVL393:
 368:../switch_sdk/core/yt/yt_l2.c ****     CMM_PARAM_CHK((YT_ENABLE < enable || YT_DISABLE > enable), CMM_ERR_INPUT);
 3274              		.loc 1 368 5 discriminator 5 view .LVU911
 3275 009e 0F48     		ldr	r0, .L343+24
 3276 00a0 FFF7FEFF 		bl	osal_printf
 3277              	.LVL394:
 3278 00a4 F5E7     		b	.L330
 3279              	.LVL395:
 3280              	.L337:
 368:../switch_sdk/core/yt/yt_l2.c ****     CMM_PARAM_CHK((YT_ENABLE < enable || YT_DISABLE > enable), CMM_ERR_INPUT);
 3281              		.loc 1 368 5 discriminator 5 view .LVU912
 3282              	.LBE66:
 369:../switch_sdk/core/yt/yt_l2.c **** 
 3283              		.loc 1 369 5 is_stmt 1 discriminator 1 view .LVU913
 369:../switch_sdk/core/yt/yt_l2.c **** 
 3284              		.loc 1 369 5 discriminator 1 view .LVU914
 3285 00a6 0A4B     		ldr	r3, .L343+12
 3286 00a8 1B78     		ldrb	r3, [r3]	@ zero_extendqisi2
 3287 00aa 012B     		cmp	r3, #1
 3288 00ac 01D8     		bhi	.L342
 3289              	.LVL396:
 3290              	.L332:
 369:../switch_sdk/core/yt/yt_l2.c **** 
 3291              		.loc 1 369 5 discriminator 5 view .LVU915
 369:../switch_sdk/core/yt/yt_l2.c **** 
 3292              		.loc 1 369 5 discriminator 5 view .LVU916
 369:../switch_sdk/core/yt/yt_l2.c **** 
 3293              		.loc 1 369 5 discriminator 5 view .LVU917
 3294 00ae 0520     		movs	r0, #5
 3295 00b0 C0E7     		b	.L320
 3296              	.LVL397:
 3297              	.L342:
 369:../switch_sdk/core/yt/yt_l2.c **** 
 3298              		.loc 1 369 5 discriminator 3 view .LVU918
 3299              	.LBB67:
 369:../switch_sdk/core/yt/yt_l2.c **** 
 3300              		.loc 1 369 5 discriminator 3 view .LVU919
 3301 00b2 084B     		ldr	r3, .L343+16
 3302 00b4 5A69     		ldr	r2, [r3, #20]
 3303              	.LVL398:
 369:../switch_sdk/core/yt/yt_l2.c **** 
 3304              		.loc 1 369 5 is_stmt 0 discriminator 3 view .LVU920
 3305 00b6 084B     		ldr	r3, .L343+20
 3306 00b8 9968     		ldr	r1, [r3, #8]
 3307              	.LVL399:
 369:../switch_sdk/core/yt/yt_l2.c **** 
 3308              		.loc 1 369 5 discriminator 3 view .LVU921
 3309 00ba 0848     		ldr	r0, .L343+24
 3310 00bc FFF7FEFF 		bl	osal_printf
 3311              	.LVL400:
 3312 00c0 F5E7     		b	.L332
 3313              	.L344:
 3314 00c2 00BF     		.align	2
 3315              	.L343:
 3316 00c4 00000000 		.word	gpfal_dispatch
 3317 00c8 00000000 		.word	gcal_inited
 3318 00cc 00000000 		.word	gpSwitchUnit
 3319 00d0 00000000 		.word	yt_debug_level
 3320 00d4 00000000 		.word	_yt_errmsg
 3321 00d8 00000000 		.word	_yt_prompt_msg
 3322 00dc 00000000 		.word	.LC0
 3323              	.LBE67:
 3324              		.cfi_endproc
 3325              	.LFE18:
 3327              		.section	.text.yt_l2_port_learnlimit_en_get,"ax",%progbits
 3328              		.align	1
 3329              		.global	yt_l2_port_learnlimit_en_get
 3330              		.syntax unified
 3331              		.thumb
 3332              		.thumb_func
 3334              	yt_l2_port_learnlimit_en_get:
 3335              	.LVL401:
 3336              	.LFB19:
 373:../switch_sdk/core/yt/yt_l2.c **** 
 374:../switch_sdk/core/yt/yt_l2.c **** /**
 375:../switch_sdk/core/yt/yt_l2.c ****  * @internal      yt_l2_port_learnlimit_en_get
 376:../switch_sdk/core/yt/yt_l2.c ****  * @endinternal
 377:../switch_sdk/core/yt/yt_l2.c ****  *
 378:../switch_sdk/core/yt/yt_l2.c ****  * @brief         Description
 379:../switch_sdk/core/yt/yt_l2.c ****  * @note          APPLICABLE DEVICES  -Tiger
 380:../switch_sdk/core/yt/yt_l2.c ****  * @param[in]     unit                -unit id
 381:../switch_sdk/core/yt/yt_l2.c ****  * @param[in]     port                -port num
 382:../switch_sdk/core/yt/yt_l2.c ****  * @param[out]    pEnable             -enable or disable
 383:../switch_sdk/core/yt/yt_l2.c ****  * @retval        CMM_ERR_OK          -on success
 384:../switch_sdk/core/yt/yt_l2.c ****  * @retval        CMM_ERR_FAIL        -on fail
 385:../switch_sdk/core/yt/yt_l2.c ****  */
 386:../switch_sdk/core/yt/yt_l2.c **** yt_ret_t  yt_l2_port_learnlimit_en_get(yt_unit_t unit, yt_port_t port, yt_enable_t *pEnable)
 387:../switch_sdk/core/yt/yt_l2.c **** {
 3337              		.loc 1 387 1 is_stmt 1 view -0
 3338              		.cfi_startproc
 3339              		@ args = 0, pretend = 0, frame = 0
 3340              		@ frame_needed = 0, uses_anonymous_args = 0
 3341              		.loc 1 387 1 is_stmt 0 view .LVU923
 3342 0000 08B5     		push	{r3, lr}
 3343              		.cfi_def_cfa_offset 8
 3344              		.cfi_offset 3, -8
 3345              		.cfi_offset 14, -4
 388:../switch_sdk/core/yt/yt_l2.c ****     CMM_PARAM_CHK((YT_UNIT_NUM <= unit), CMM_ERR_INPUT);
 3346              		.loc 1 388 5 is_stmt 1 view .LVU924
 3347              		.loc 1 388 5 view .LVU925
 3348 0002 C0B9     		cbnz	r0, .L359
 3349 0004 8446     		mov	ip, r0
 3350              		.loc 1 388 5 discriminator 2 view .LVU926
 389:../switch_sdk/core/yt/yt_l2.c ****     CMM_PARAM_CHK(NULL == YT_DISPATCH(unit), CMM_ERR_NOT_INIT);
 3351              		.loc 1 389 5 discriminator 2 view .LVU927
 3352              		.loc 1 389 5 discriminator 2 view .LVU928
 3353 0006 2F4B     		ldr	r3, .L368
 3354 0008 53F82030 		ldr	r3, [r3, r0, lsl #2]
 3355 000c 0BB3     		cbz	r3, .L360
 3356              		.loc 1 389 5 discriminator 2 view .LVU929
 390:../switch_sdk/core/yt/yt_l2.c ****     CMM_PARAM_CHK((!(YT_DISPATCH(unit)->is_inited)), CMM_ERR_NOT_INIT);
 3357              		.loc 1 390 5 discriminator 2 view .LVU930
 3358              		.loc 1 390 5 discriminator 2 view .LVU931
 3359 000e 1878     		ldrb	r0, [r3]	@ zero_extendqisi2
 3360              	.LVL402:
 3361              		.loc 1 390 5 is_stmt 0 discriminator 2 view .LVU932
 3362 0010 0028     		cmp	r0, #0
 3363 0012 2CD0     		beq	.L361
 3364              		.loc 1 390 5 is_stmt 1 discriminator 2 view .LVU933
 391:../switch_sdk/core/yt/yt_l2.c ****     CMM_PARAM_CHK((!(CMM_PORT_VALID(unit, port))), CMM_ERR_PORT);
 3365              		.loc 1 391 5 discriminator 2 view .LVU934
 3366              		.loc 1 391 5 discriminator 2 view .LVU935
 3367 0014 2C48     		ldr	r0, .L368+4
 3368 0016 0078     		ldrb	r0, [r0]	@ zero_extendqisi2
 3369 0018 0028     		cmp	r0, #0
 3370 001a 36D0     		beq	.L353
 3371 001c 2B48     		ldr	r0, .L368+8
 3372 001e 50F82C00 		ldr	r0, [r0, ip, lsl #2]
 3373 0022 007D     		ldrb	r0, [r0, #20]	@ zero_extendqisi2
 3374 0024 8842     		cmp	r0, r1
 3375 0026 30D9     		bls	.L353
 3376              		.loc 1 391 5 discriminator 4 view .LVU936
 392:../switch_sdk/core/yt/yt_l2.c ****     CMM_PARAM_CHK((NULL == pEnable), CMM_ERR_NULL_POINT);
 3377              		.loc 1 392 5 discriminator 4 view .LVU937
 3378              		.loc 1 392 5 discriminator 4 view .LVU938
 3379 0028 002A     		cmp	r2, #0
 3380 002a 3CD0     		beq	.L362
 3381              		.loc 1 392 5 discriminator 2 view .LVU939
 393:../switch_sdk/core/yt/yt_l2.c **** 
 394:../switch_sdk/core/yt/yt_l2.c ****     return YT_DISPATCH(unit)->l2_port_learnlimit_en_get(unit, port, pEnable);
 3382              		.loc 1 394 5 discriminator 2 view .LVU940
 3383              		.loc 1 394 29 is_stmt 0 discriminator 2 view .LVU941
 3384 002c D3F87C33 		ldr	r3, [r3, #892]
 3385              		.loc 1 394 12 discriminator 2 view .LVU942
 3386 0030 6046     		mov	r0, ip
 3387 0032 9847     		blx	r3
 3388              	.LVL403:
 3389              	.L345:
 395:../switch_sdk/core/yt/yt_l2.c **** }
 3390              		.loc 1 395 1 view .LVU943
 3391 0034 08BD     		pop	{r3, pc}
 3392              	.LVL404:
 3393              	.L359:
 388:../switch_sdk/core/yt/yt_l2.c ****     CMM_PARAM_CHK(NULL == YT_DISPATCH(unit), CMM_ERR_NOT_INIT);
 3394              		.loc 1 388 5 is_stmt 1 discriminator 1 view .LVU944
 388:../switch_sdk/core/yt/yt_l2.c ****     CMM_PARAM_CHK(NULL == YT_DISPATCH(unit), CMM_ERR_NOT_INIT);
 3395              		.loc 1 388 5 discriminator 1 view .LVU945
 3396 0036 264B     		ldr	r3, .L368+12
 3397 0038 1B78     		ldrb	r3, [r3]	@ zero_extendqisi2
 3398 003a 012B     		cmp	r3, #1
 3399 003c 01D8     		bhi	.L363
 3400              	.LVL405:
 3401              	.L347:
 388:../switch_sdk/core/yt/yt_l2.c ****     CMM_PARAM_CHK(NULL == YT_DISPATCH(unit), CMM_ERR_NOT_INIT);
 3402              		.loc 1 388 5 discriminator 5 view .LVU946
 388:../switch_sdk/core/yt/yt_l2.c ****     CMM_PARAM_CHK(NULL == YT_DISPATCH(unit), CMM_ERR_NOT_INIT);
 3403              		.loc 1 388 5 discriminator 5 view .LVU947
 388:../switch_sdk/core/yt/yt_l2.c ****     CMM_PARAM_CHK(NULL == YT_DISPATCH(unit), CMM_ERR_NOT_INIT);
 3404              		.loc 1 388 5 discriminator 5 view .LVU948
 3405 003e 0520     		movs	r0, #5
 3406 0040 F8E7     		b	.L345
 3407              	.LVL406:
 3408              	.L363:
 388:../switch_sdk/core/yt/yt_l2.c ****     CMM_PARAM_CHK(NULL == YT_DISPATCH(unit), CMM_ERR_NOT_INIT);
 3409              		.loc 1 388 5 discriminator 3 view .LVU949
 3410              	.LBB68:
 388:../switch_sdk/core/yt/yt_l2.c ****     CMM_PARAM_CHK(NULL == YT_DISPATCH(unit), CMM_ERR_NOT_INIT);
 3411              		.loc 1 388 5 discriminator 3 view .LVU950
 3412 0042 244B     		ldr	r3, .L368+16
 3413 0044 5A69     		ldr	r2, [r3, #20]
 3414              	.LVL407:
 388:../switch_sdk/core/yt/yt_l2.c ****     CMM_PARAM_CHK(NULL == YT_DISPATCH(unit), CMM_ERR_NOT_INIT);
 3415              		.loc 1 388 5 is_stmt 0 discriminator 3 view .LVU951
 3416 0046 244B     		ldr	r3, .L368+20
 3417 0048 9968     		ldr	r1, [r3, #8]
 3418              	.LVL408:
 388:../switch_sdk/core/yt/yt_l2.c ****     CMM_PARAM_CHK(NULL == YT_DISPATCH(unit), CMM_ERR_NOT_INIT);
 3419              		.loc 1 388 5 discriminator 3 view .LVU952
 3420 004a 2448     		ldr	r0, .L368+24
 3421              	.LVL409:
 388:../switch_sdk/core/yt/yt_l2.c ****     CMM_PARAM_CHK(NULL == YT_DISPATCH(unit), CMM_ERR_NOT_INIT);
 3422              		.loc 1 388 5 discriminator 3 view .LVU953
 3423 004c FFF7FEFF 		bl	osal_printf
 3424              	.LVL410:
 3425 0050 F5E7     		b	.L347
 3426              	.LVL411:
 3427              	.L360:
 388:../switch_sdk/core/yt/yt_l2.c ****     CMM_PARAM_CHK(NULL == YT_DISPATCH(unit), CMM_ERR_NOT_INIT);
 3428              		.loc 1 388 5 discriminator 3 view .LVU954
 3429              	.LBE68:
 389:../switch_sdk/core/yt/yt_l2.c ****     CMM_PARAM_CHK((!(YT_DISPATCH(unit)->is_inited)), CMM_ERR_NOT_INIT);
 3430              		.loc 1 389 5 is_stmt 1 discriminator 1 view .LVU955
 389:../switch_sdk/core/yt/yt_l2.c ****     CMM_PARAM_CHK((!(YT_DISPATCH(unit)->is_inited)), CMM_ERR_NOT_INIT);
 3431              		.loc 1 389 5 discriminator 1 view .LVU956
 3432 0052 1F4B     		ldr	r3, .L368+12
 3433 0054 1B78     		ldrb	r3, [r3]	@ zero_extendqisi2
 3434 0056 012B     		cmp	r3, #1
 3435 0058 01D8     		bhi	.L364
 3436              	.LVL412:
 3437              	.L350:
 389:../switch_sdk/core/yt/yt_l2.c ****     CMM_PARAM_CHK((!(YT_DISPATCH(unit)->is_inited)), CMM_ERR_NOT_INIT);
 3438              		.loc 1 389 5 discriminator 5 view .LVU957
 389:../switch_sdk/core/yt/yt_l2.c ****     CMM_PARAM_CHK((!(YT_DISPATCH(unit)->is_inited)), CMM_ERR_NOT_INIT);
 3439              		.loc 1 389 5 discriminator 5 view .LVU958
 389:../switch_sdk/core/yt/yt_l2.c ****     CMM_PARAM_CHK((!(YT_DISPATCH(unit)->is_inited)), CMM_ERR_NOT_INIT);
 3440              		.loc 1 389 5 discriminator 5 view .LVU959
 3441 005a 0420     		movs	r0, #4
 3442 005c EAE7     		b	.L345
 3443              	.LVL413:
 3444              	.L364:
 389:../switch_sdk/core/yt/yt_l2.c ****     CMM_PARAM_CHK((!(YT_DISPATCH(unit)->is_inited)), CMM_ERR_NOT_INIT);
 3445              		.loc 1 389 5 discriminator 3 view .LVU960
 3446              	.LBB69:
 389:../switch_sdk/core/yt/yt_l2.c ****     CMM_PARAM_CHK((!(YT_DISPATCH(unit)->is_inited)), CMM_ERR_NOT_INIT);
 3447              		.loc 1 389 5 discriminator 3 view .LVU961
 3448 005e 1D4B     		ldr	r3, .L368+16
 3449 0060 1A69     		ldr	r2, [r3, #16]
 3450              	.LVL414:
 389:../switch_sdk/core/yt/yt_l2.c ****     CMM_PARAM_CHK((!(YT_DISPATCH(unit)->is_inited)), CMM_ERR_NOT_INIT);
 3451              		.loc 1 389 5 is_stmt 0 discriminator 3 view .LVU962
 3452 0062 1D4B     		ldr	r3, .L368+20
 3453 0064 9968     		ldr	r1, [r3, #8]
 3454              	.LVL415:
 389:../switch_sdk/core/yt/yt_l2.c ****     CMM_PARAM_CHK((!(YT_DISPATCH(unit)->is_inited)), CMM_ERR_NOT_INIT);
 3455              		.loc 1 389 5 discriminator 3 view .LVU963
 3456 0066 1D48     		ldr	r0, .L368+24
 3457              	.LVL416:
 389:../switch_sdk/core/yt/yt_l2.c ****     CMM_PARAM_CHK((!(YT_DISPATCH(unit)->is_inited)), CMM_ERR_NOT_INIT);
 3458              		.loc 1 389 5 discriminator 3 view .LVU964
 3459 0068 FFF7FEFF 		bl	osal_printf
 3460              	.LVL417:
 3461 006c F5E7     		b	.L350
 3462              	.LVL418:
 3463              	.L361:
 389:../switch_sdk/core/yt/yt_l2.c ****     CMM_PARAM_CHK((!(YT_DISPATCH(unit)->is_inited)), CMM_ERR_NOT_INIT);
 3464              		.loc 1 389 5 discriminator 3 view .LVU965
 3465              	.LBE69:
 390:../switch_sdk/core/yt/yt_l2.c ****     CMM_PARAM_CHK((!(CMM_PORT_VALID(unit, port))), CMM_ERR_PORT);
 3466              		.loc 1 390 5 is_stmt 1 discriminator 1 view .LVU966
 390:../switch_sdk/core/yt/yt_l2.c ****     CMM_PARAM_CHK((!(CMM_PORT_VALID(unit, port))), CMM_ERR_PORT);
 3467              		.loc 1 390 5 discriminator 1 view .LVU967
 3468 006e 184B     		ldr	r3, .L368+12
 3469 0070 1B78     		ldrb	r3, [r3]	@ zero_extendqisi2
 3470 0072 012B     		cmp	r3, #1
 3471 0074 01D8     		bhi	.L365
 3472              	.LVL419:
 3473              	.L352:
 390:../switch_sdk/core/yt/yt_l2.c ****     CMM_PARAM_CHK((!(CMM_PORT_VALID(unit, port))), CMM_ERR_PORT);
 3474              		.loc 1 390 5 discriminator 5 view .LVU968
 390:../switch_sdk/core/yt/yt_l2.c ****     CMM_PARAM_CHK((!(CMM_PORT_VALID(unit, port))), CMM_ERR_PORT);
 3475              		.loc 1 390 5 discriminator 5 view .LVU969
 390:../switch_sdk/core/yt/yt_l2.c ****     CMM_PARAM_CHK((!(CMM_PORT_VALID(unit, port))), CMM_ERR_PORT);
 3476              		.loc 1 390 5 discriminator 5 view .LVU970
 3477 0076 0420     		movs	r0, #4
 3478 0078 DCE7     		b	.L345
 3479              	.LVL420:
 3480              	.L365:
 390:../switch_sdk/core/yt/yt_l2.c ****     CMM_PARAM_CHK((!(CMM_PORT_VALID(unit, port))), CMM_ERR_PORT);
 3481              		.loc 1 390 5 discriminator 3 view .LVU971
 3482              	.LBB70:
 390:../switch_sdk/core/yt/yt_l2.c ****     CMM_PARAM_CHK((!(CMM_PORT_VALID(unit, port))), CMM_ERR_PORT);
 3483              		.loc 1 390 5 discriminator 3 view .LVU972
 3484 007a 164B     		ldr	r3, .L368+16
 3485 007c 1A69     		ldr	r2, [r3, #16]
 3486              	.LVL421:
 390:../switch_sdk/core/yt/yt_l2.c ****     CMM_PARAM_CHK((!(CMM_PORT_VALID(unit, port))), CMM_ERR_PORT);
 3487              		.loc 1 390 5 is_stmt 0 discriminator 3 view .LVU973
 3488 007e 164B     		ldr	r3, .L368+20
 3489 0080 9968     		ldr	r1, [r3, #8]
 3490              	.LVL422:
 390:../switch_sdk/core/yt/yt_l2.c ****     CMM_PARAM_CHK((!(CMM_PORT_VALID(unit, port))), CMM_ERR_PORT);
 3491              		.loc 1 390 5 discriminator 3 view .LVU974
 3492 0082 1648     		ldr	r0, .L368+24
 3493 0084 FFF7FEFF 		bl	osal_printf
 3494              	.LVL423:
 3495 0088 F5E7     		b	.L352
 3496              	.LVL424:
 3497              	.L353:
 390:../switch_sdk/core/yt/yt_l2.c ****     CMM_PARAM_CHK((!(CMM_PORT_VALID(unit, port))), CMM_ERR_PORT);
 3498              		.loc 1 390 5 discriminator 3 view .LVU975
 3499              	.LBE70:
 391:../switch_sdk/core/yt/yt_l2.c ****     CMM_PARAM_CHK((NULL == pEnable), CMM_ERR_NULL_POINT);
 3500              		.loc 1 391 5 is_stmt 1 discriminator 3 view .LVU976
 391:../switch_sdk/core/yt/yt_l2.c ****     CMM_PARAM_CHK((NULL == pEnable), CMM_ERR_NULL_POINT);
 3501              		.loc 1 391 5 discriminator 3 view .LVU977
 3502 008a 114B     		ldr	r3, .L368+12
 3503 008c 1B78     		ldrb	r3, [r3]	@ zero_extendqisi2
 3504 008e 012B     		cmp	r3, #1
 3505 0090 01D8     		bhi	.L366
 3506              	.LVL425:
 3507              	.L355:
 391:../switch_sdk/core/yt/yt_l2.c ****     CMM_PARAM_CHK((NULL == pEnable), CMM_ERR_NULL_POINT);
 3508              		.loc 1 391 5 discriminator 7 view .LVU978
 391:../switch_sdk/core/yt/yt_l2.c ****     CMM_PARAM_CHK((NULL == pEnable), CMM_ERR_NULL_POINT);
 3509              		.loc 1 391 5 discriminator 7 view .LVU979
 391:../switch_sdk/core/yt/yt_l2.c ****     CMM_PARAM_CHK((NULL == pEnable), CMM_ERR_NULL_POINT);
 3510              		.loc 1 391 5 discriminator 7 view .LVU980
 3511 0092 0E20     		movs	r0, #14
 3512 0094 CEE7     		b	.L345
 3513              	.LVL426:
 3514              	.L366:
 391:../switch_sdk/core/yt/yt_l2.c ****     CMM_PARAM_CHK((NULL == pEnable), CMM_ERR_NULL_POINT);
 3515              		.loc 1 391 5 discriminator 5 view .LVU981
 3516              	.LBB71:
 391:../switch_sdk/core/yt/yt_l2.c ****     CMM_PARAM_CHK((NULL == pEnable), CMM_ERR_NULL_POINT);
 3517              		.loc 1 391 5 discriminator 5 view .LVU982
 3518 0096 0F4B     		ldr	r3, .L368+16
 3519 0098 9A6B     		ldr	r2, [r3, #56]
 3520              	.LVL427:
 391:../switch_sdk/core/yt/yt_l2.c ****     CMM_PARAM_CHK((NULL == pEnable), CMM_ERR_NULL_POINT);
 3521              		.loc 1 391 5 is_stmt 0 discriminator 5 view .LVU983
 3522 009a 0F4B     		ldr	r3, .L368+20
 3523 009c 9968     		ldr	r1, [r3, #8]
 3524              	.LVL428:
 391:../switch_sdk/core/yt/yt_l2.c ****     CMM_PARAM_CHK((NULL == pEnable), CMM_ERR_NULL_POINT);
 3525              		.loc 1 391 5 discriminator 5 view .LVU984
 3526 009e 0F48     		ldr	r0, .L368+24
 3527 00a0 FFF7FEFF 		bl	osal_printf
 3528              	.LVL429:
 3529 00a4 F5E7     		b	.L355
 3530              	.LVL430:
 3531              	.L362:
 391:../switch_sdk/core/yt/yt_l2.c ****     CMM_PARAM_CHK((NULL == pEnable), CMM_ERR_NULL_POINT);
 3532              		.loc 1 391 5 discriminator 5 view .LVU985
 3533              	.LBE71:
 392:../switch_sdk/core/yt/yt_l2.c **** 
 3534              		.loc 1 392 5 is_stmt 1 discriminator 1 view .LVU986
 392:../switch_sdk/core/yt/yt_l2.c **** 
 3535              		.loc 1 392 5 discriminator 1 view .LVU987
 3536 00a6 0A4B     		ldr	r3, .L368+12
 3537 00a8 1B78     		ldrb	r3, [r3]	@ zero_extendqisi2
 3538 00aa 012B     		cmp	r3, #1
 3539 00ac 01D8     		bhi	.L367
 3540              	.LVL431:
 3541              	.L357:
 392:../switch_sdk/core/yt/yt_l2.c **** 
 3542              		.loc 1 392 5 discriminator 5 view .LVU988
 392:../switch_sdk/core/yt/yt_l2.c **** 
 3543              		.loc 1 392 5 discriminator 5 view .LVU989
 392:../switch_sdk/core/yt/yt_l2.c **** 
 3544              		.loc 1 392 5 discriminator 5 view .LVU990
 3545 00ae 0220     		movs	r0, #2
 3546 00b0 C0E7     		b	.L345
 3547              	.LVL432:
 3548              	.L367:
 392:../switch_sdk/core/yt/yt_l2.c **** 
 3549              		.loc 1 392 5 discriminator 3 view .LVU991
 3550              	.LBB72:
 392:../switch_sdk/core/yt/yt_l2.c **** 
 3551              		.loc 1 392 5 discriminator 3 view .LVU992
 3552 00b2 084B     		ldr	r3, .L368+16
 3553 00b4 9A68     		ldr	r2, [r3, #8]
 3554              	.LVL433:
 392:../switch_sdk/core/yt/yt_l2.c **** 
 3555              		.loc 1 392 5 is_stmt 0 discriminator 3 view .LVU993
 3556 00b6 084B     		ldr	r3, .L368+20
 3557 00b8 9968     		ldr	r1, [r3, #8]
 3558              	.LVL434:
 392:../switch_sdk/core/yt/yt_l2.c **** 
 3559              		.loc 1 392 5 discriminator 3 view .LVU994
 3560 00ba 0848     		ldr	r0, .L368+24
 3561 00bc FFF7FEFF 		bl	osal_printf
 3562              	.LVL435:
 3563 00c0 F5E7     		b	.L357
 3564              	.L369:
 3565 00c2 00BF     		.align	2
 3566              	.L368:
 3567 00c4 00000000 		.word	gpfal_dispatch
 3568 00c8 00000000 		.word	gcal_inited
 3569 00cc 00000000 		.word	gpSwitchUnit
 3570 00d0 00000000 		.word	yt_debug_level
 3571 00d4 00000000 		.word	_yt_errmsg
 3572 00d8 00000000 		.word	_yt_prompt_msg
 3573 00dc 00000000 		.word	.LC0
 3574              	.LBE72:
 3575              		.cfi_endproc
 3576              	.LFE19:
 3578              		.section	.text.yt_l2_port_learnlimit_cnt_set,"ax",%progbits
 3579              		.align	1
 3580              		.global	yt_l2_port_learnlimit_cnt_set
 3581              		.syntax unified
 3582              		.thumb
 3583              		.thumb_func
 3585              	yt_l2_port_learnlimit_cnt_set:
 3586              	.LVL436:
 3587              	.LFB20:
 396:../switch_sdk/core/yt/yt_l2.c **** 
 397:../switch_sdk/core/yt/yt_l2.c **** /**
 398:../switch_sdk/core/yt/yt_l2.c ****  * @internal      yt_l2_port_learnlimit_cnt_set
 399:../switch_sdk/core/yt/yt_l2.c ****  * @endinternal
 400:../switch_sdk/core/yt/yt_l2.c ****  *
 401:../switch_sdk/core/yt/yt_l2.c ****  * @brief         Description
 402:../switch_sdk/core/yt/yt_l2.c ****  * @note          APPLICABLE DEVICES  -Tiger
 403:../switch_sdk/core/yt/yt_l2.c ****  * @param[in]     unit                -unit id
 404:../switch_sdk/core/yt/yt_l2.c ****  * @param[in]     port                -port num
 405:../switch_sdk/core/yt/yt_l2.c ****  * @param[in]     maxcnt              -x
 406:../switch_sdk/core/yt/yt_l2.c ****  * @retval        CMM_ERR_OK          -on success
 407:../switch_sdk/core/yt/yt_l2.c ****  * @retval        CMM_ERR_FAIL        -on fail
 408:../switch_sdk/core/yt/yt_l2.c ****  */
 409:../switch_sdk/core/yt/yt_l2.c **** yt_ret_t  yt_l2_port_learnlimit_cnt_set(yt_unit_t unit, yt_port_t port, uint32_t maxcnt)
 410:../switch_sdk/core/yt/yt_l2.c **** {
 3588              		.loc 1 410 1 is_stmt 1 view -0
 3589              		.cfi_startproc
 3590              		@ args = 0, pretend = 0, frame = 0
 3591              		@ frame_needed = 0, uses_anonymous_args = 0
 3592              		.loc 1 410 1 is_stmt 0 view .LVU996
 3593 0000 08B5     		push	{r3, lr}
 3594              		.cfi_def_cfa_offset 8
 3595              		.cfi_offset 3, -8
 3596              		.cfi_offset 14, -4
 411:../switch_sdk/core/yt/yt_l2.c ****     CMM_PARAM_CHK((YT_UNIT_NUM <= unit), CMM_ERR_INPUT);
 3597              		.loc 1 411 5 is_stmt 1 view .LVU997
 3598              		.loc 1 411 5 view .LVU998
 3599 0002 A8B9     		cbnz	r0, .L382
 3600 0004 8446     		mov	ip, r0
 3601              		.loc 1 411 5 discriminator 2 view .LVU999
 412:../switch_sdk/core/yt/yt_l2.c ****     CMM_PARAM_CHK(NULL == YT_DISPATCH(unit), CMM_ERR_NOT_INIT);
 3602              		.loc 1 412 5 discriminator 2 view .LVU1000
 3603              		.loc 1 412 5 discriminator 2 view .LVU1001
 3604 0006 264B     		ldr	r3, .L389
 3605 0008 53F82030 		ldr	r3, [r3, r0, lsl #2]
 3606 000c F3B1     		cbz	r3, .L383
 3607              		.loc 1 412 5 discriminator 2 view .LVU1002
 413:../switch_sdk/core/yt/yt_l2.c ****     CMM_PARAM_CHK((!(YT_DISPATCH(unit)->is_inited)), CMM_ERR_NOT_INIT);
 3608              		.loc 1 413 5 discriminator 2 view .LVU1003
 3609              		.loc 1 413 5 discriminator 2 view .LVU1004
 3610 000e 1878     		ldrb	r0, [r3]	@ zero_extendqisi2
 3611              	.LVL437:
 3612              		.loc 1 413 5 is_stmt 0 discriminator 2 view .LVU1005
 3613 0010 50B3     		cbz	r0, .L384
 3614              		.loc 1 413 5 is_stmt 1 discriminator 2 view .LVU1006
 414:../switch_sdk/core/yt/yt_l2.c ****     CMM_PARAM_CHK((!(CMM_PORT_VALID(unit, port))), CMM_ERR_PORT);
 3615              		.loc 1 414 5 discriminator 2 view .LVU1007
 3616              		.loc 1 414 5 discriminator 2 view .LVU1008
 3617 0012 2448     		ldr	r0, .L389+4
 3618 0014 0078     		ldrb	r0, [r0]	@ zero_extendqisi2
 3619 0016 0028     		cmp	r0, #0
 3620 0018 34D0     		beq	.L378
 3621 001a 2348     		ldr	r0, .L389+8
 3622 001c 50F82C00 		ldr	r0, [r0, ip, lsl #2]
 3623 0020 007D     		ldrb	r0, [r0, #20]	@ zero_extendqisi2
 3624 0022 8842     		cmp	r0, r1
 3625 0024 2ED9     		bls	.L378
 3626              		.loc 1 414 5 discriminator 4 view .LVU1009
 415:../switch_sdk/core/yt/yt_l2.c **** 
 416:../switch_sdk/core/yt/yt_l2.c ****     return YT_DISPATCH(unit)->l2_port_learnlimit_cnt_set(unit, port, maxcnt);
 3627              		.loc 1 416 5 discriminator 4 view .LVU1010
 3628              		.loc 1 416 29 is_stmt 0 discriminator 4 view .LVU1011
 3629 0026 D3F88033 		ldr	r3, [r3, #896]
 3630              		.loc 1 416 12 discriminator 4 view .LVU1012
 3631 002a 6046     		mov	r0, ip
 3632 002c 9847     		blx	r3
 3633              	.LVL438:
 3634              	.L370:
 417:../switch_sdk/core/yt/yt_l2.c **** }
 3635              		.loc 1 417 1 view .LVU1013
 3636 002e 08BD     		pop	{r3, pc}
 3637              	.LVL439:
 3638              	.L382:
 411:../switch_sdk/core/yt/yt_l2.c ****     CMM_PARAM_CHK(NULL == YT_DISPATCH(unit), CMM_ERR_NOT_INIT);
 3639              		.loc 1 411 5 is_stmt 1 discriminator 1 view .LVU1014
 411:../switch_sdk/core/yt/yt_l2.c ****     CMM_PARAM_CHK(NULL == YT_DISPATCH(unit), CMM_ERR_NOT_INIT);
 3640              		.loc 1 411 5 discriminator 1 view .LVU1015
 3641 0030 1E4B     		ldr	r3, .L389+12
 3642 0032 1B78     		ldrb	r3, [r3]	@ zero_extendqisi2
 3643 0034 012B     		cmp	r3, #1
 3644 0036 01D8     		bhi	.L385
 3645              	.LVL440:
 3646              	.L372:
 411:../switch_sdk/core/yt/yt_l2.c ****     CMM_PARAM_CHK(NULL == YT_DISPATCH(unit), CMM_ERR_NOT_INIT);
 3647              		.loc 1 411 5 discriminator 5 view .LVU1016
 411:../switch_sdk/core/yt/yt_l2.c ****     CMM_PARAM_CHK(NULL == YT_DISPATCH(unit), CMM_ERR_NOT_INIT);
 3648              		.loc 1 411 5 discriminator 5 view .LVU1017
 411:../switch_sdk/core/yt/yt_l2.c ****     CMM_PARAM_CHK(NULL == YT_DISPATCH(unit), CMM_ERR_NOT_INIT);
 3649              		.loc 1 411 5 discriminator 5 view .LVU1018
 3650 0038 0520     		movs	r0, #5
 3651 003a F8E7     		b	.L370
 3652              	.LVL441:
 3653              	.L385:
 411:../switch_sdk/core/yt/yt_l2.c ****     CMM_PARAM_CHK(NULL == YT_DISPATCH(unit), CMM_ERR_NOT_INIT);
 3654              		.loc 1 411 5 discriminator 3 view .LVU1019
 3655              	.LBB73:
 411:../switch_sdk/core/yt/yt_l2.c ****     CMM_PARAM_CHK(NULL == YT_DISPATCH(unit), CMM_ERR_NOT_INIT);
 3656              		.loc 1 411 5 discriminator 3 view .LVU1020
 3657 003c 1C4B     		ldr	r3, .L389+16
 3658 003e 5A69     		ldr	r2, [r3, #20]
 3659              	.LVL442:
 411:../switch_sdk/core/yt/yt_l2.c ****     CMM_PARAM_CHK(NULL == YT_DISPATCH(unit), CMM_ERR_NOT_INIT);
 3660              		.loc 1 411 5 is_stmt 0 discriminator 3 view .LVU1021
 3661 0040 1C4B     		ldr	r3, .L389+20
 3662 0042 9968     		ldr	r1, [r3, #8]
 3663              	.LVL443:
 411:../switch_sdk/core/yt/yt_l2.c ****     CMM_PARAM_CHK(NULL == YT_DISPATCH(unit), CMM_ERR_NOT_INIT);
 3664              		.loc 1 411 5 discriminator 3 view .LVU1022
 3665 0044 1C48     		ldr	r0, .L389+24
 3666              	.LVL444:
 411:../switch_sdk/core/yt/yt_l2.c ****     CMM_PARAM_CHK(NULL == YT_DISPATCH(unit), CMM_ERR_NOT_INIT);
 3667              		.loc 1 411 5 discriminator 3 view .LVU1023
 3668 0046 FFF7FEFF 		bl	osal_printf
 3669              	.LVL445:
 3670 004a F5E7     		b	.L372
 3671              	.LVL446:
 3672              	.L383:
 411:../switch_sdk/core/yt/yt_l2.c ****     CMM_PARAM_CHK(NULL == YT_DISPATCH(unit), CMM_ERR_NOT_INIT);
 3673              		.loc 1 411 5 discriminator 3 view .LVU1024
 3674              	.LBE73:
 412:../switch_sdk/core/yt/yt_l2.c ****     CMM_PARAM_CHK((!(YT_DISPATCH(unit)->is_inited)), CMM_ERR_NOT_INIT);
 3675              		.loc 1 412 5 is_stmt 1 discriminator 1 view .LVU1025
 412:../switch_sdk/core/yt/yt_l2.c ****     CMM_PARAM_CHK((!(YT_DISPATCH(unit)->is_inited)), CMM_ERR_NOT_INIT);
 3676              		.loc 1 412 5 discriminator 1 view .LVU1026
 3677 004c 174B     		ldr	r3, .L389+12
 3678 004e 1B78     		ldrb	r3, [r3]	@ zero_extendqisi2
 3679 0050 012B     		cmp	r3, #1
 3680 0052 01D8     		bhi	.L386
 3681              	.LVL447:
 3682              	.L375:
 412:../switch_sdk/core/yt/yt_l2.c ****     CMM_PARAM_CHK((!(YT_DISPATCH(unit)->is_inited)), CMM_ERR_NOT_INIT);
 3683              		.loc 1 412 5 discriminator 5 view .LVU1027
 412:../switch_sdk/core/yt/yt_l2.c ****     CMM_PARAM_CHK((!(YT_DISPATCH(unit)->is_inited)), CMM_ERR_NOT_INIT);
 3684              		.loc 1 412 5 discriminator 5 view .LVU1028
 412:../switch_sdk/core/yt/yt_l2.c ****     CMM_PARAM_CHK((!(YT_DISPATCH(unit)->is_inited)), CMM_ERR_NOT_INIT);
 3685              		.loc 1 412 5 discriminator 5 view .LVU1029
 3686 0054 0420     		movs	r0, #4
 3687 0056 EAE7     		b	.L370
 3688              	.LVL448:
 3689              	.L386:
 412:../switch_sdk/core/yt/yt_l2.c ****     CMM_PARAM_CHK((!(YT_DISPATCH(unit)->is_inited)), CMM_ERR_NOT_INIT);
 3690              		.loc 1 412 5 discriminator 3 view .LVU1030
 3691              	.LBB74:
 412:../switch_sdk/core/yt/yt_l2.c ****     CMM_PARAM_CHK((!(YT_DISPATCH(unit)->is_inited)), CMM_ERR_NOT_INIT);
 3692              		.loc 1 412 5 discriminator 3 view .LVU1031
 3693 0058 154B     		ldr	r3, .L389+16
 3694 005a 1A69     		ldr	r2, [r3, #16]
 3695              	.LVL449:
