   1              		.cpu cortex-m3
   2              		.arch armv7-m
   3              		.fpu softvfp
   4              		.eabi_attribute 20, 1
   5              		.eabi_attribute 21, 1
   6              		.eabi_attribute 23, 3
   7              		.eabi_attribute 24, 1
   8              		.eabi_attribute 25, 1
   9              		.eabi_attribute 26, 1
  10              		.eabi_attribute 30, 1
  11              		.eabi_attribute 34, 1
  12              		.eabi_attribute 18, 4
  13              		.file	"yt_l2.c"
  14              		.text
  15              	.Ltext0:
  16              		.cfi_sections	.debug_frame
  17              		.file 1 "../switch_sdk/core/yt/yt_l2.c"
  18              		.section	.rodata.yt_l2_init.str1.4,"aMS",%progbits,1
  19              		.align	2
  20              	.LC0:
  21 0000 25732573 		.ascii	"%s%s\015\012\000"
  21      0D0A00
  22              		.section	.text.yt_l2_init,"ax",%progbits
  23              		.align	1
  24              		.global	yt_l2_init
  25              		.syntax unified
  26              		.thumb
  27              		.thumb_func
  29              	yt_l2_init:
  30              	.LVL0:
  31              	.LFB3:
   1:../switch_sdk/core/yt/yt_l2.c **** /*******************************************************************************
   2:../switch_sdk/core/yt/yt_l2.c **** *                                                                              *
   3:../switch_sdk/core/yt/yt_l2.c **** *  Copyright (c), 2022, Motorcomm Electronic Technology Co.,Ltd.               *
   4:../switch_sdk/core/yt/yt_l2.c **** *  Motorcomm Confidential and Proprietary.                                     *
   5:../switch_sdk/core/yt/yt_l2.c **** *                                                                              *
   6:../switch_sdk/core/yt/yt_l2.c **** ********************************************************************************
   7:../switch_sdk/core/yt/yt_l2.c **** */
   8:../switch_sdk/core/yt/yt_l2.c **** /**
   9:../switch_sdk/core/yt/yt_l2.c **** ********************************************************************************
  10:../switch_sdk/core/yt/yt_l2.c **** * @file yt_l2.c
  11:../switch_sdk/core/yt/yt_l2.c **** *
  12:../switch_sdk/core/yt/yt_l2.c **** * @brief x
  13:../switch_sdk/core/yt/yt_l2.c **** *
  14:../switch_sdk/core/yt/yt_l2.c **** ********************************************************************************
  15:../switch_sdk/core/yt/yt_l2.c **** */
  16:../switch_sdk/core/yt/yt_l2.c **** #include "yt_l2.h"
  17:../switch_sdk/core/yt/yt_l2.c **** #include "fal_dispatch.h"
  18:../switch_sdk/core/yt/yt_l2.c **** 
  19:../switch_sdk/core/yt/yt_l2.c **** 
  20:../switch_sdk/core/yt/yt_l2.c **** /**
  21:../switch_sdk/core/yt/yt_l2.c ****  * @internal      yt_l2_init
  22:../switch_sdk/core/yt/yt_l2.c ****  * @endinternal
  23:../switch_sdk/core/yt/yt_l2.c ****  *
  24:../switch_sdk/core/yt/yt_l2.c ****  * @brief         Description
  25:../switch_sdk/core/yt/yt_l2.c ****  * @note          APPLICABLE DEVICES  -Tiger
  26:../switch_sdk/core/yt/yt_l2.c ****  * @param[in]     unit                -unit id
  27:../switch_sdk/core/yt/yt_l2.c ****  * @retval        CMM_ERR_OK          -on success
  28:../switch_sdk/core/yt/yt_l2.c ****  * @retval        CMM_ERR_FAIL        -on fail
  29:../switch_sdk/core/yt/yt_l2.c ****  */
  30:../switch_sdk/core/yt/yt_l2.c **** yt_ret_t yt_l2_init(yt_unit_t unit)
  31:../switch_sdk/core/yt/yt_l2.c **** {
  32              		.loc 1 31 1 view -0
  33              		.cfi_startproc
  34              		@ args = 0, pretend = 0, frame = 0
  35              		@ frame_needed = 0, uses_anonymous_args = 0
  36              		.loc 1 31 1 is_stmt 0 view .LVU1
  37 0000 08B5     		push	{r3, lr}
  38              		.cfi_def_cfa_offset 8
  39              		.cfi_offset 3, -8
  40              		.cfi_offset 14, -4
  32:../switch_sdk/core/yt/yt_l2.c ****     CMM_PARAM_CHK((YT_UNIT_NUM <= unit), CMM_ERR_INPUT);
  41              		.loc 1 32 5 is_stmt 1 view .LVU2
  42              		.loc 1 32 5 view .LVU3
  43 0002 48B9     		cbnz	r0, .L10
  44              		.loc 1 32 5 discriminator 2 view .LVU4
  33:../switch_sdk/core/yt/yt_l2.c ****     CMM_PARAM_CHK(NULL == YT_DISPATCH(unit), CMM_ERR_NOT_INIT);
  45              		.loc 1 33 5 discriminator 2 view .LVU5
  46              		.loc 1 33 5 discriminator 2 view .LVU6
  47 0004 194B     		ldr	r3, .L16
  48 0006 53F82030 		ldr	r3, [r3, r0, lsl #2]
  49 000a 9BB1     		cbz	r3, .L11
  50              		.loc 1 33 5 discriminator 2 view .LVU7
  34:../switch_sdk/core/yt/yt_l2.c ****     CMM_PARAM_CHK((!(YT_DISPATCH(unit)->is_inited)), CMM_ERR_NOT_INIT);
  51              		.loc 1 34 5 discriminator 2 view .LVU8
  52              		.loc 1 34 5 discriminator 2 view .LVU9
  53 000c 1978     		ldrb	r1, [r3]	@ zero_extendqisi2
  54 000e F9B1     		cbz	r1, .L12
  55              		.loc 1 34 5 discriminator 2 view .LVU10
  35:../switch_sdk/core/yt/yt_l2.c **** 
  36:../switch_sdk/core/yt/yt_l2.c ****     return YT_DISPATCH(unit)->l2_init(unit);
  56              		.loc 1 36 5 discriminator 2 view .LVU11
  57              		.loc 1 36 29 is_stmt 0 discriminator 2 view .LVU12
  58 0010 D3F83C33 		ldr	r3, [r3, #828]
  59              		.loc 1 36 12 discriminator 2 view .LVU13
  60 0014 9847     		blx	r3
  61              	.LVL1:
  62              	.L1:
  37:../switch_sdk/core/yt/yt_l2.c **** }
  63              		.loc 1 37 1 view .LVU14
  64 0016 08BD     		pop	{r3, pc}
  65              	.LVL2:
  66              	.L10:
  32:../switch_sdk/core/yt/yt_l2.c ****     CMM_PARAM_CHK(NULL == YT_DISPATCH(unit), CMM_ERR_NOT_INIT);
  67              		.loc 1 32 5 is_stmt 1 discriminator 1 view .LVU15
  32:../switch_sdk/core/yt/yt_l2.c ****     CMM_PARAM_CHK(NULL == YT_DISPATCH(unit), CMM_ERR_NOT_INIT);
  68              		.loc 1 32 5 discriminator 1 view .LVU16
  69 0018 154B     		ldr	r3, .L16+4
  70 001a 1B78     		ldrb	r3, [r3]	@ zero_extendqisi2
  71 001c 012B     		cmp	r3, #1
  72 001e 01D8     		bhi	.L13
  73              	.LVL3:
  74              	.L3:
  32:../switch_sdk/core/yt/yt_l2.c ****     CMM_PARAM_CHK(NULL == YT_DISPATCH(unit), CMM_ERR_NOT_INIT);
  75              		.loc 1 32 5 discriminator 5 view .LVU17
  32:../switch_sdk/core/yt/yt_l2.c ****     CMM_PARAM_CHK(NULL == YT_DISPATCH(unit), CMM_ERR_NOT_INIT);
  76              		.loc 1 32 5 discriminator 5 view .LVU18
  32:../switch_sdk/core/yt/yt_l2.c ****     CMM_PARAM_CHK(NULL == YT_DISPATCH(unit), CMM_ERR_NOT_INIT);
  77              		.loc 1 32 5 discriminator 5 view .LVU19
  78 0020 0520     		movs	r0, #5
  79 0022 F8E7     		b	.L1
  80              	.LVL4:
  81              	.L13:
  32:../switch_sdk/core/yt/yt_l2.c ****     CMM_PARAM_CHK(NULL == YT_DISPATCH(unit), CMM_ERR_NOT_INIT);
  82              		.loc 1 32 5 discriminator 3 view .LVU20
  83              	.LBB2:
  32:../switch_sdk/core/yt/yt_l2.c ****     CMM_PARAM_CHK(NULL == YT_DISPATCH(unit), CMM_ERR_NOT_INIT);
  84              		.loc 1 32 5 discriminator 3 view .LVU21
  85 0024 134B     		ldr	r3, .L16+8
  86 0026 5A69     		ldr	r2, [r3, #20]
  87 0028 134B     		ldr	r3, .L16+12
  88 002a 9968     		ldr	r1, [r3, #8]
  89 002c 1348     		ldr	r0, .L16+16
  90              	.LVL5:
  32:../switch_sdk/core/yt/yt_l2.c ****     CMM_PARAM_CHK(NULL == YT_DISPATCH(unit), CMM_ERR_NOT_INIT);
  91              		.loc 1 32 5 is_stmt 0 discriminator 3 view .LVU22
  92 002e FFF7FEFF 		bl	osal_printf
  93              	.LVL6:
  94 0032 F5E7     		b	.L3
  95              	.LVL7:
  96              	.L11:
  32:../switch_sdk/core/yt/yt_l2.c ****     CMM_PARAM_CHK(NULL == YT_DISPATCH(unit), CMM_ERR_NOT_INIT);
  97              		.loc 1 32 5 discriminator 3 view .LVU23
  98              	.LBE2:
  33:../switch_sdk/core/yt/yt_l2.c ****     CMM_PARAM_CHK((!(YT_DISPATCH(unit)->is_inited)), CMM_ERR_NOT_INIT);
  99              		.loc 1 33 5 is_stmt 1 discriminator 1 view .LVU24
  33:../switch_sdk/core/yt/yt_l2.c ****     CMM_PARAM_CHK((!(YT_DISPATCH(unit)->is_inited)), CMM_ERR_NOT_INIT);
 100              		.loc 1 33 5 discriminator 1 view .LVU25
 101 0034 0E4B     		ldr	r3, .L16+4
 102 0036 1B78     		ldrb	r3, [r3]	@ zero_extendqisi2
 103 0038 012B     		cmp	r3, #1
 104 003a 01D8     		bhi	.L14
 105              	.LVL8:
 106              	.L6:
  33:../switch_sdk/core/yt/yt_l2.c ****     CMM_PARAM_CHK((!(YT_DISPATCH(unit)->is_inited)), CMM_ERR_NOT_INIT);
 107              		.loc 1 33 5 discriminator 5 view .LVU26
  33:../switch_sdk/core/yt/yt_l2.c ****     CMM_PARAM_CHK((!(YT_DISPATCH(unit)->is_inited)), CMM_ERR_NOT_INIT);
 108              		.loc 1 33 5 discriminator 5 view .LVU27
  33:../switch_sdk/core/yt/yt_l2.c ****     CMM_PARAM_CHK((!(YT_DISPATCH(unit)->is_inited)), CMM_ERR_NOT_INIT);
 109              		.loc 1 33 5 discriminator 5 view .LVU28
 110 003c 0420     		movs	r0, #4
 111 003e EAE7     		b	.L1
 112              	.LVL9:
 113              	.L14:
  33:../switch_sdk/core/yt/yt_l2.c ****     CMM_PARAM_CHK((!(YT_DISPATCH(unit)->is_inited)), CMM_ERR_NOT_INIT);
 114              		.loc 1 33 5 discriminator 3 view .LVU29
 115              	.LBB3:
  33:../switch_sdk/core/yt/yt_l2.c ****     CMM_PARAM_CHK((!(YT_DISPATCH(unit)->is_inited)), CMM_ERR_NOT_INIT);
 116              		.loc 1 33 5 discriminator 3 view .LVU30
 117 0040 0C4B     		ldr	r3, .L16+8
 118 0042 1A69     		ldr	r2, [r3, #16]
 119 0044 0C4B     		ldr	r3, .L16+12
 120 0046 9968     		ldr	r1, [r3, #8]
 121 0048 0C48     		ldr	r0, .L16+16
 122              	.LVL10:
  33:../switch_sdk/core/yt/yt_l2.c ****     CMM_PARAM_CHK((!(YT_DISPATCH(unit)->is_inited)), CMM_ERR_NOT_INIT);
 123              		.loc 1 33 5 is_stmt 0 discriminator 3 view .LVU31
 124 004a FFF7FEFF 		bl	osal_printf
 125              	.LVL11:
 126 004e F5E7     		b	.L6
 127              	.LVL12:
 128              	.L12:
  33:../switch_sdk/core/yt/yt_l2.c ****     CMM_PARAM_CHK((!(YT_DISPATCH(unit)->is_inited)), CMM_ERR_NOT_INIT);
 129              		.loc 1 33 5 discriminator 3 view .LVU32
 130              	.LBE3:
  34:../switch_sdk/core/yt/yt_l2.c **** 
 131              		.loc 1 34 5 is_stmt 1 discriminator 1 view .LVU33
  34:../switch_sdk/core/yt/yt_l2.c **** 
 132              		.loc 1 34 5 discriminator 1 view .LVU34
 133 0050 074B     		ldr	r3, .L16+4
 134 0052 1B78     		ldrb	r3, [r3]	@ zero_extendqisi2
 135 0054 012B     		cmp	r3, #1
 136 0056 01D8     		bhi	.L15
 137              	.LVL13:
 138              	.L8:
  34:../switch_sdk/core/yt/yt_l2.c **** 
 139              		.loc 1 34 5 discriminator 5 view .LVU35
  34:../switch_sdk/core/yt/yt_l2.c **** 
 140              		.loc 1 34 5 discriminator 5 view .LVU36
  34:../switch_sdk/core/yt/yt_l2.c **** 
 141              		.loc 1 34 5 discriminator 5 view .LVU37
 142 0058 0420     		movs	r0, #4
 143 005a DCE7     		b	.L1
 144              	.LVL14:
 145              	.L15:
  34:../switch_sdk/core/yt/yt_l2.c **** 
 146              		.loc 1 34 5 discriminator 3 view .LVU38
 147              	.LBB4:
  34:../switch_sdk/core/yt/yt_l2.c **** 
 148              		.loc 1 34 5 discriminator 3 view .LVU39
 149 005c 054B     		ldr	r3, .L16+8
 150 005e 1A69     		ldr	r2, [r3, #16]
 151 0060 054B     		ldr	r3, .L16+12
 152 0062 9968     		ldr	r1, [r3, #8]
 153 0064 0548     		ldr	r0, .L16+16
 154              	.LVL15:
  34:../switch_sdk/core/yt/yt_l2.c **** 
 155              		.loc 1 34 5 is_stmt 0 discriminator 3 view .LVU40
 156 0066 FFF7FEFF 		bl	osal_printf
 157              	.LVL16:
 158 006a F5E7     		b	.L8
 159              	.L17:
 160              		.align	2
 161              	.L16:
 162 006c 00000000 		.word	gpfal_dispatch
 163 0070 00000000 		.word	yt_debug_level
 164 0074 00000000 		.word	_yt_errmsg
 165 0078 00000000 		.word	_yt_prompt_msg
 166 007c 00000000 		.word	.LC0
 167              	.LBE4:
 168              		.cfi_endproc
 169              	.LFE3:
 171              		.section	.text.yt_l2_mcast_addr_add,"ax",%progbits
 172              		.align	1
 173              		.global	yt_l2_mcast_addr_add
 174              		.syntax unified
 175              		.thumb
 176              		.thumb_func
 178              	yt_l2_mcast_addr_add:
 179              	.LVL17:
 180              	.LFB4:
  38:../switch_sdk/core/yt/yt_l2.c **** 
  39:../switch_sdk/core/yt/yt_l2.c **** /**
  40:../switch_sdk/core/yt/yt_l2.c ****  * @internal      yt_l2_mcast_addr_add
  41:../switch_sdk/core/yt/yt_l2.c ****  * @endinternal
  42:../switch_sdk/core/yt/yt_l2.c ****  *
  43:../switch_sdk/core/yt/yt_l2.c ****  * @brief         Description
  44:../switch_sdk/core/yt/yt_l2.c ****  * @note          APPLICABLE DEVICES  -Tiger
  45:../switch_sdk/core/yt/yt_l2.c ****  * @param[in]     unit                -unit id
  46:../switch_sdk/core/yt/yt_l2.c ****  * @param[in]     vid                 -vlan id
  47:../switch_sdk/core/yt/yt_l2.c ****  * @param[in]     mac_addr            -yt_types.h
  48:../switch_sdk/core/yt/yt_l2.c ****  * @param[in]     port_mask           -port bit mask
  49:../switch_sdk/core/yt/yt_l2.c ****  * @retval        CMM_ERR_OK          -on success
  50:../switch_sdk/core/yt/yt_l2.c ****  * @retval        CMM_ERR_FAIL        -on fail
  51:../switch_sdk/core/yt/yt_l2.c ****  */
  52:../switch_sdk/core/yt/yt_l2.c **** yt_ret_t  yt_l2_mcast_addr_add(yt_unit_t unit, yt_vlan_t vid, yt_mac_addr_t mac_addr, yt_port_mask_
  53:../switch_sdk/core/yt/yt_l2.c **** {
 181              		.loc 1 53 1 is_stmt 1 view -0
 182              		.cfi_startproc
 183              		@ args = 4, pretend = 0, frame = 8
 184              		@ frame_needed = 0, uses_anonymous_args = 0
 185              		.loc 1 53 1 is_stmt 0 view .LVU42
 186 0000 70B5     		push	{r4, r5, r6, lr}
 187              		.cfi_def_cfa_offset 16
 188              		.cfi_offset 4, -16
 189              		.cfi_offset 5, -12
 190              		.cfi_offset 6, -8
 191              		.cfi_offset 14, -4
 192 0002 84B0     		sub	sp, sp, #16
 193              		.cfi_def_cfa_offset 32
 194 0004 0D46     		mov	r5, r1
 195 0006 04A9     		add	r1, sp, #16
 196              	.LVL18:
 197              		.loc 1 53 1 view .LVU43
 198 0008 01E90C00 		stmdb	r1, {r2, r3}
  54:../switch_sdk/core/yt/yt_l2.c ****     CMM_PARAM_CHK((YT_UNIT_NUM <= unit), CMM_ERR_INPUT);
 199              		.loc 1 54 5 is_stmt 1 view .LVU44
 200              		.loc 1 54 5 view .LVU45
 201 000c F8B9     		cbnz	r0, .L31
 202 000e 0446     		mov	r4, r0
 203              		.loc 1 54 5 discriminator 2 view .LVU46
  55:../switch_sdk/core/yt/yt_l2.c ****     CMM_PARAM_CHK(NULL == YT_DISPATCH(unit), CMM_ERR_NOT_INIT);
 204              		.loc 1 55 5 discriminator 2 view .LVU47
 205              		.loc 1 55 5 discriminator 2 view .LVU48
 206 0010 324B     		ldr	r3, .L41
 207 0012 53F82030 		ldr	r3, [r3, r0, lsl #2]
 208 0016 43B3     		cbz	r3, .L32
 209              		.loc 1 55 5 discriminator 2 view .LVU49
  56:../switch_sdk/core/yt/yt_l2.c ****     CMM_PARAM_CHK((!(YT_DISPATCH(unit)->is_inited)), CMM_ERR_NOT_INIT);
 210              		.loc 1 56 5 discriminator 2 view .LVU50
 211              		.loc 1 56 5 discriminator 2 view .LVU51
 212 0018 1B78     		ldrb	r3, [r3]	@ zero_extendqisi2
 213 001a 002B     		cmp	r3, #0
 214 001c 33D0     		beq	.L33
 215              		.loc 1 56 5 discriminator 2 view .LVU52
  57:../switch_sdk/core/yt/yt_l2.c ****     CMM_PARAM_CHK((!(CMM_PLIST_VALID(unit, port_mask))), CMM_ERR_PORTLIST);
 216              		.loc 1 57 5 discriminator 2 view .LVU53
 217              		.loc 1 57 5 discriminator 2 view .LVU54
 218 001e 0022     		movs	r2, #0
 219 0020 0899     		ldr	r1, [sp, #32]
 220 0022 FFF7FEFF 		bl	cal_ytportmask_isvalid
 221              	.LVL19:
 222              		.loc 1 57 5 is_stmt 0 discriminator 2 view .LVU55
 223 0026 0028     		cmp	r0, #0
 224 0028 3BD1     		bne	.L34
 225              		.loc 1 57 5 is_stmt 1 discriminator 2 view .LVU56
  58:../switch_sdk/core/yt/yt_l2.c ****     CMM_PARAM_CHK((YT_VLAN_ID_MAX < vid), CMM_ERR_EXCEED_RANGE);
 226              		.loc 1 58 5 discriminator 2 view .LVU57
 227              		.loc 1 58 5 discriminator 2 view .LVU58
 228 002a B5F5805F 		cmp	r5, #4096
 229 002e 46D2     		bcs	.L35
 230              		.loc 1 58 5 discriminator 2 view .LVU59
  59:../switch_sdk/core/yt/yt_l2.c **** 
  60:../switch_sdk/core/yt/yt_l2.c ****     return YT_DISPATCH(unit)->l2_mcast_addr_add(unit, vid, mac_addr, port_mask);
 231              		.loc 1 60 5 discriminator 2 view .LVU60
 232              		.loc 1 60 12 is_stmt 0 discriminator 2 view .LVU61
 233 0030 2A4B     		ldr	r3, .L41
 234 0032 53F82430 		ldr	r3, [r3, r4, lsl #2]
 235              		.loc 1 60 29 discriminator 2 view .LVU62
 236 0036 D3F84063 		ldr	r6, [r3, #832]
 237              		.loc 1 60 12 discriminator 2 view .LVU63
 238 003a 089B     		ldr	r3, [sp, #32]
 239 003c 0093     		str	r3, [sp]
 240 003e 04AB     		add	r3, sp, #16
 241 0040 13E90C00 		ldmdb	r3, {r2, r3}
 242 0044 2946     		mov	r1, r5
 243 0046 2046     		mov	r0, r4
 244 0048 B047     		blx	r6
 245              	.LVL20:
 246              	.L18:
  61:../switch_sdk/core/yt/yt_l2.c **** }
 247              		.loc 1 61 1 view .LVU64
 248 004a 04B0     		add	sp, sp, #16
 249              		.cfi_remember_state
 250              		.cfi_def_cfa_offset 16
 251              		@ sp needed
 252 004c 70BD     		pop	{r4, r5, r6, pc}
 253              	.LVL21:
 254              	.L31:
 255              		.cfi_restore_state
  54:../switch_sdk/core/yt/yt_l2.c ****     CMM_PARAM_CHK(NULL == YT_DISPATCH(unit), CMM_ERR_NOT_INIT);
 256              		.loc 1 54 5 is_stmt 1 discriminator 1 view .LVU65
  54:../switch_sdk/core/yt/yt_l2.c ****     CMM_PARAM_CHK(NULL == YT_DISPATCH(unit), CMM_ERR_NOT_INIT);
 257              		.loc 1 54 5 discriminator 1 view .LVU66
 258 004e 244B     		ldr	r3, .L41+4
 259 0050 1B78     		ldrb	r3, [r3]	@ zero_extendqisi2
 260 0052 012B     		cmp	r3, #1
 261 0054 01D8     		bhi	.L36
 262              	.LVL22:
 263              	.L20:
  54:../switch_sdk/core/yt/yt_l2.c ****     CMM_PARAM_CHK(NULL == YT_DISPATCH(unit), CMM_ERR_NOT_INIT);
 264              		.loc 1 54 5 discriminator 5 view .LVU67
  54:../switch_sdk/core/yt/yt_l2.c ****     CMM_PARAM_CHK(NULL == YT_DISPATCH(unit), CMM_ERR_NOT_INIT);
 265              		.loc 1 54 5 discriminator 5 view .LVU68
  54:../switch_sdk/core/yt/yt_l2.c ****     CMM_PARAM_CHK(NULL == YT_DISPATCH(unit), CMM_ERR_NOT_INIT);
 266              		.loc 1 54 5 discriminator 5 view .LVU69
 267 0056 0520     		movs	r0, #5
 268 0058 F7E7     		b	.L18
 269              	.LVL23:
 270              	.L36:
  54:../switch_sdk/core/yt/yt_l2.c ****     CMM_PARAM_CHK(NULL == YT_DISPATCH(unit), CMM_ERR_NOT_INIT);
 271              		.loc 1 54 5 discriminator 3 view .LVU70
 272              	.LBB5:
  54:../switch_sdk/core/yt/yt_l2.c ****     CMM_PARAM_CHK(NULL == YT_DISPATCH(unit), CMM_ERR_NOT_INIT);
 273              		.loc 1 54 5 discriminator 3 view .LVU71
 274 005a 224B     		ldr	r3, .L41+8
 275 005c 5A69     		ldr	r2, [r3, #20]
 276 005e 224B     		ldr	r3, .L41+12
 277 0060 9968     		ldr	r1, [r3, #8]
 278 0062 2248     		ldr	r0, .L41+16
 279              	.LVL24:
  54:../switch_sdk/core/yt/yt_l2.c ****     CMM_PARAM_CHK(NULL == YT_DISPATCH(unit), CMM_ERR_NOT_INIT);
 280              		.loc 1 54 5 is_stmt 0 discriminator 3 view .LVU72
 281 0064 FFF7FEFF 		bl	osal_printf
 282              	.LVL25:
 283 0068 F5E7     		b	.L20
 284              	.LVL26:
 285              	.L32:
  54:../switch_sdk/core/yt/yt_l2.c ****     CMM_PARAM_CHK(NULL == YT_DISPATCH(unit), CMM_ERR_NOT_INIT);
 286              		.loc 1 54 5 discriminator 3 view .LVU73
 287              	.LBE5:
  55:../switch_sdk/core/yt/yt_l2.c ****     CMM_PARAM_CHK((!(YT_DISPATCH(unit)->is_inited)), CMM_ERR_NOT_INIT);
 288              		.loc 1 55 5 is_stmt 1 discriminator 1 view .LVU74
  55:../switch_sdk/core/yt/yt_l2.c ****     CMM_PARAM_CHK((!(YT_DISPATCH(unit)->is_inited)), CMM_ERR_NOT_INIT);
 289              		.loc 1 55 5 discriminator 1 view .LVU75
 290 006a 1D4B     		ldr	r3, .L41+4
 291 006c 1B78     		ldrb	r3, [r3]	@ zero_extendqisi2
 292 006e 012B     		cmp	r3, #1
 293 0070 01D8     		bhi	.L37
 294              	.LVL27:
 295              	.L23:
  55:../switch_sdk/core/yt/yt_l2.c ****     CMM_PARAM_CHK((!(YT_DISPATCH(unit)->is_inited)), CMM_ERR_NOT_INIT);
 296              		.loc 1 55 5 discriminator 5 view .LVU76
  55:../switch_sdk/core/yt/yt_l2.c ****     CMM_PARAM_CHK((!(YT_DISPATCH(unit)->is_inited)), CMM_ERR_NOT_INIT);
 297              		.loc 1 55 5 discriminator 5 view .LVU77
  55:../switch_sdk/core/yt/yt_l2.c ****     CMM_PARAM_CHK((!(YT_DISPATCH(unit)->is_inited)), CMM_ERR_NOT_INIT);
 298              		.loc 1 55 5 discriminator 5 view .LVU78
 299 0072 0420     		movs	r0, #4
 300 0074 E9E7     		b	.L18
 301              	.LVL28:
 302              	.L37:
  55:../switch_sdk/core/yt/yt_l2.c ****     CMM_PARAM_CHK((!(YT_DISPATCH(unit)->is_inited)), CMM_ERR_NOT_INIT);
 303              		.loc 1 55 5 discriminator 3 view .LVU79
 304              	.LBB6:
  55:../switch_sdk/core/yt/yt_l2.c ****     CMM_PARAM_CHK((!(YT_DISPATCH(unit)->is_inited)), CMM_ERR_NOT_INIT);
 305              		.loc 1 55 5 discriminator 3 view .LVU80
 306 0076 1B4B     		ldr	r3, .L41+8
 307 0078 1A69     		ldr	r2, [r3, #16]
 308 007a 1B4B     		ldr	r3, .L41+12
 309 007c 9968     		ldr	r1, [r3, #8]
 310 007e 1B48     		ldr	r0, .L41+16
 311              	.LVL29:
  55:../switch_sdk/core/yt/yt_l2.c ****     CMM_PARAM_CHK((!(YT_DISPATCH(unit)->is_inited)), CMM_ERR_NOT_INIT);
 312              		.loc 1 55 5 is_stmt 0 discriminator 3 view .LVU81
 313 0080 FFF7FEFF 		bl	osal_printf
 314              	.LVL30:
 315 0084 F5E7     		b	.L23
 316              	.LVL31:
 317              	.L33:
  55:../switch_sdk/core/yt/yt_l2.c ****     CMM_PARAM_CHK((!(YT_DISPATCH(unit)->is_inited)), CMM_ERR_NOT_INIT);
 318              		.loc 1 55 5 discriminator 3 view .LVU82
 319              	.LBE6:
  56:../switch_sdk/core/yt/yt_l2.c ****     CMM_PARAM_CHK((!(CMM_PLIST_VALID(unit, port_mask))), CMM_ERR_PORTLIST);
 320              		.loc 1 56 5 is_stmt 1 discriminator 1 view .LVU83
  56:../switch_sdk/core/yt/yt_l2.c ****     CMM_PARAM_CHK((!(CMM_PLIST_VALID(unit, port_mask))), CMM_ERR_PORTLIST);
 321              		.loc 1 56 5 discriminator 1 view .LVU84
 322 0086 164B     		ldr	r3, .L41+4
 323 0088 1B78     		ldrb	r3, [r3]	@ zero_extendqisi2
 324 008a 012B     		cmp	r3, #1
 325 008c 01D8     		bhi	.L38
 326              	.LVL32:
 327              	.L25:
  56:../switch_sdk/core/yt/yt_l2.c ****     CMM_PARAM_CHK((!(CMM_PLIST_VALID(unit, port_mask))), CMM_ERR_PORTLIST);
 328              		.loc 1 56 5 discriminator 5 view .LVU85
  56:../switch_sdk/core/yt/yt_l2.c ****     CMM_PARAM_CHK((!(CMM_PLIST_VALID(unit, port_mask))), CMM_ERR_PORTLIST);
 329              		.loc 1 56 5 discriminator 5 view .LVU86
  56:../switch_sdk/core/yt/yt_l2.c ****     CMM_PARAM_CHK((!(CMM_PLIST_VALID(unit, port_mask))), CMM_ERR_PORTLIST);
 330              		.loc 1 56 5 discriminator 5 view .LVU87
 331 008e 0420     		movs	r0, #4
 332 0090 DBE7     		b	.L18
 333              	.LVL33:
 334              	.L38:
  56:../switch_sdk/core/yt/yt_l2.c ****     CMM_PARAM_CHK((!(CMM_PLIST_VALID(unit, port_mask))), CMM_ERR_PORTLIST);
 335              		.loc 1 56 5 discriminator 3 view .LVU88
 336              	.LBB7:
  56:../switch_sdk/core/yt/yt_l2.c ****     CMM_PARAM_CHK((!(CMM_PLIST_VALID(unit, port_mask))), CMM_ERR_PORTLIST);
 337              		.loc 1 56 5 discriminator 3 view .LVU89
 338 0092 144B     		ldr	r3, .L41+8
 339 0094 1A69     		ldr	r2, [r3, #16]
 340 0096 144B     		ldr	r3, .L41+12
 341 0098 9968     		ldr	r1, [r3, #8]
 342 009a 1448     		ldr	r0, .L41+16
 343              	.LVL34:
  56:../switch_sdk/core/yt/yt_l2.c ****     CMM_PARAM_CHK((!(CMM_PLIST_VALID(unit, port_mask))), CMM_ERR_PORTLIST);
 344              		.loc 1 56 5 is_stmt 0 discriminator 3 view .LVU90
 345 009c FFF7FEFF 		bl	osal_printf
 346              	.LVL35:
 347 00a0 F5E7     		b	.L25
 348              	.L34:
 349              	.LBE7:
  57:../switch_sdk/core/yt/yt_l2.c ****     CMM_PARAM_CHK((YT_VLAN_ID_MAX < vid), CMM_ERR_EXCEED_RANGE);
 350              		.loc 1 57 5 is_stmt 1 discriminator 1 view .LVU91
  57:../switch_sdk/core/yt/yt_l2.c ****     CMM_PARAM_CHK((YT_VLAN_ID_MAX < vid), CMM_ERR_EXCEED_RANGE);
 351              		.loc 1 57 5 discriminator 1 view .LVU92
 352 00a2 0F4B     		ldr	r3, .L41+4
 353 00a4 1B78     		ldrb	r3, [r3]	@ zero_extendqisi2
 354 00a6 012B     		cmp	r3, #1
 355 00a8 01D8     		bhi	.L39
 356              	.L27:
  57:../switch_sdk/core/yt/yt_l2.c ****     CMM_PARAM_CHK((YT_VLAN_ID_MAX < vid), CMM_ERR_EXCEED_RANGE);
 357              		.loc 1 57 5 discriminator 5 view .LVU93
  57:../switch_sdk/core/yt/yt_l2.c ****     CMM_PARAM_CHK((YT_VLAN_ID_MAX < vid), CMM_ERR_EXCEED_RANGE);
 358              		.loc 1 57 5 discriminator 5 view .LVU94
  57:../switch_sdk/core/yt/yt_l2.c ****     CMM_PARAM_CHK((YT_VLAN_ID_MAX < vid), CMM_ERR_EXCEED_RANGE);
 359              		.loc 1 57 5 discriminator 5 view .LVU95
 360 00aa 0F20     		movs	r0, #15
 361 00ac CDE7     		b	.L18
 362              	.L39:
  57:../switch_sdk/core/yt/yt_l2.c ****     CMM_PARAM_CHK((YT_VLAN_ID_MAX < vid), CMM_ERR_EXCEED_RANGE);
 363              		.loc 1 57 5 discriminator 3 view .LVU96
 364              	.LBB8:
  57:../switch_sdk/core/yt/yt_l2.c ****     CMM_PARAM_CHK((YT_VLAN_ID_MAX < vid), CMM_ERR_EXCEED_RANGE);
 365              		.loc 1 57 5 discriminator 3 view .LVU97
 366 00ae 0D4B     		ldr	r3, .L41+8
 367 00b0 DA6B     		ldr	r2, [r3, #60]
 368 00b2 0D4B     		ldr	r3, .L41+12
 369 00b4 9968     		ldr	r1, [r3, #8]
 370 00b6 0D48     		ldr	r0, .L41+16
 371 00b8 FFF7FEFF 		bl	osal_printf
 372              	.LVL36:
 373 00bc F5E7     		b	.L27
 374              	.L35:
 375              	.LBE8:
  58:../switch_sdk/core/yt/yt_l2.c **** 
 376              		.loc 1 58 5 discriminator 1 view .LVU98
  58:../switch_sdk/core/yt/yt_l2.c **** 
 377              		.loc 1 58 5 discriminator 1 view .LVU99
 378 00be 084B     		ldr	r3, .L41+4
 379 00c0 1B78     		ldrb	r3, [r3]	@ zero_extendqisi2
 380 00c2 012B     		cmp	r3, #1
 381 00c4 01D8     		bhi	.L40
 382              	.L29:
  58:../switch_sdk/core/yt/yt_l2.c **** 
 383              		.loc 1 58 5 discriminator 5 view .LVU100
  58:../switch_sdk/core/yt/yt_l2.c **** 
 384              		.loc 1 58 5 discriminator 5 view .LVU101
  58:../switch_sdk/core/yt/yt_l2.c **** 
 385              		.loc 1 58 5 discriminator 5 view .LVU102
 386 00c6 1120     		movs	r0, #17
 387 00c8 BFE7     		b	.L18
 388              	.L40:
  58:../switch_sdk/core/yt/yt_l2.c **** 
 389              		.loc 1 58 5 discriminator 3 view .LVU103
 390              	.LBB9:
  58:../switch_sdk/core/yt/yt_l2.c **** 
 391              		.loc 1 58 5 discriminator 3 view .LVU104
 392 00ca 064B     		ldr	r3, .L41+8
 393 00cc 5A6C     		ldr	r2, [r3, #68]
 394 00ce 064B     		ldr	r3, .L41+12
 395 00d0 9968     		ldr	r1, [r3, #8]
 396 00d2 0648     		ldr	r0, .L41+16
 397 00d4 FFF7FEFF 		bl	osal_printf
 398              	.LVL37:
 399 00d8 F5E7     		b	.L29
 400              	.L42:
 401 00da 00BF     		.align	2
 402              	.L41:
 403 00dc 00000000 		.word	gpfal_dispatch
 404 00e0 00000000 		.word	yt_debug_level
 405 00e4 00000000 		.word	_yt_errmsg
 406 00e8 00000000 		.word	_yt_prompt_msg
 407 00ec 00000000 		.word	.LC0
 408              	.LBE9:
 409              		.cfi_endproc
 410              	.LFE4:
 412              		.section	.text.yt_l2_fdb_ucast_addr_add,"ax",%progbits
 413              		.align	1
 414              		.global	yt_l2_fdb_ucast_addr_add
 415              		.syntax unified
 416              		.thumb
 417              		.thumb_func
 419              	yt_l2_fdb_ucast_addr_add:
 420              	.LVL38:
 421              	.LFB5:
  62:../switch_sdk/core/yt/yt_l2.c **** 
  63:../switch_sdk/core/yt/yt_l2.c **** /**
  64:../switch_sdk/core/yt/yt_l2.c ****  * @internal      yt_l2_fdb_ucast_addr_add
  65:../switch_sdk/core/yt/yt_l2.c ****  * @endinternal
  66:../switch_sdk/core/yt/yt_l2.c ****  *
  67:../switch_sdk/core/yt/yt_l2.c ****  * @brief         Description
  68:../switch_sdk/core/yt/yt_l2.c ****  * @note          APPLICABLE DEVICES  -Tiger
  69:../switch_sdk/core/yt/yt_l2.c ****  * @param[in]     unit                -unit id
  70:../switch_sdk/core/yt/yt_l2.c ****  * @param[in]     vid                 -vlan id
  71:../switch_sdk/core/yt/yt_l2.c ****  * @param[in]     mac_addr            -yt_types.h
  72:../switch_sdk/core/yt/yt_l2.c ****  * @param[in]     port                -port num
  73:../switch_sdk/core/yt/yt_l2.c ****  * @param[in]     isLag               -yt_types.h
  74:../switch_sdk/core/yt/yt_l2.c ****  * @retval        CMM_ERR_OK          -on success
  75:../switch_sdk/core/yt/yt_l2.c ****  * @retval        CMM_ERR_FAIL        -on fail
  76:../switch_sdk/core/yt/yt_l2.c ****  */
  77:../switch_sdk/core/yt/yt_l2.c **** yt_ret_t  yt_l2_fdb_ucast_addr_add(yt_unit_t unit, yt_vlan_t vid, yt_mac_addr_t mac_addr, yt_port_t
  78:../switch_sdk/core/yt/yt_l2.c **** {
 422              		.loc 1 78 1 view -0
 423              		.cfi_startproc
 424              		@ args = 8, pretend = 0, frame = 8
 425              		@ frame_needed = 0, uses_anonymous_args = 0
 426              		.loc 1 78 1 is_stmt 0 view .LVU106
 427 0000 10B5     		push	{r4, lr}
 428              		.cfi_def_cfa_offset 8
 429              		.cfi_offset 4, -8
 430              		.cfi_offset 14, -4
 431 0002 84B0     		sub	sp, sp, #16
 432              		.cfi_def_cfa_offset 24
 433 0004 04AC     		add	r4, sp, #16
 434 0006 04E90C00 		stmdb	r4, {r2, r3}
 435 000a 9DF81C20 		ldrb	r2, [sp, #28]	@ zero_extendqisi2
  79:../switch_sdk/core/yt/yt_l2.c ****     CMM_PARAM_CHK((YT_UNIT_NUM <= unit), CMM_ERR_INPUT);
 436              		.loc 1 79 5 is_stmt 1 view .LVU107
 437              		.loc 1 79 5 view .LVU108
 438 000e 18BB     		cbnz	r0, .L57
 439 0010 8446     		mov	ip, r0
 440              		.loc 1 79 5 discriminator 2 view .LVU109
  80:../switch_sdk/core/yt/yt_l2.c ****     CMM_PARAM_CHK(NULL == YT_DISPATCH(unit), CMM_ERR_NOT_INIT);
 441              		.loc 1 80 5 discriminator 2 view .LVU110
 442              		.loc 1 80 5 discriminator 2 view .LVU111
 443 0012 344B     		ldr	r3, .L66
 444 0014 53F82030 		ldr	r3, [r3, r0, lsl #2]
 445 0018 002B     		cmp	r3, #0
 446 001a 2BD0     		beq	.L58
 447              		.loc 1 80 5 discriminator 2 view .LVU112
  81:../switch_sdk/core/yt/yt_l2.c ****     CMM_PARAM_CHK((!(YT_DISPATCH(unit)->is_inited)), CMM_ERR_NOT_INIT);
 448              		.loc 1 81 5 discriminator 2 view .LVU113
 449              		.loc 1 81 5 discriminator 2 view .LVU114
 450 001c 1878     		ldrb	r0, [r3]	@ zero_extendqisi2
 451              	.LVL39:
 452              		.loc 1 81 5 is_stmt 0 discriminator 2 view .LVU115
 453 001e 0028     		cmp	r0, #0
 454 0020 36D0     		beq	.L59
 455              		.loc 1 81 5 is_stmt 1 discriminator 2 view .LVU116
  82:../switch_sdk/core/yt/yt_l2.c ****     if(!isLag)
 456              		.loc 1 82 5 discriminator 2 view .LVU117
 457              		.loc 1 82 7 is_stmt 0 discriminator 2 view .LVU118
 458 0022 52B9     		cbnz	r2, .L51
  83:../switch_sdk/core/yt/yt_l2.c ****     {
  84:../switch_sdk/core/yt/yt_l2.c ****         CMM_PARAM_CHK((!(CMM_PORT_VALID(unit, port))), CMM_ERR_PORT);
 459              		.loc 1 84 9 is_stmt 1 view .LVU119
 460              		.loc 1 84 9 view .LVU120
 461 0024 3048     		ldr	r0, .L66+4
 462 0026 0078     		ldrb	r0, [r0]	@ zero_extendqisi2
 463 0028 0028     		cmp	r0, #0
 464 002a 3FD0     		beq	.L52
 465              		.loc 1 84 9 is_stmt 0 discriminator 2 view .LVU121
 466 002c 2F48     		ldr	r0, .L66+8
 467 002e 50F82C00 		ldr	r0, [r0, ip, lsl #2]
 468 0032 007D     		ldrb	r0, [r0, #20]	@ zero_extendqisi2
 469 0034 069C     		ldr	r4, [sp, #24]
 470 0036 A042     		cmp	r0, r4
 471 0038 38D9     		bls	.L52
 472              	.L51:
 473              		.loc 1 84 9 is_stmt 1 discriminator 4 view .LVU122
  85:../switch_sdk/core/yt/yt_l2.c ****     }
  86:../switch_sdk/core/yt/yt_l2.c ****     CMM_PARAM_CHK((YT_VLAN_ID_MAX < vid), CMM_ERR_EXCEED_RANGE);
 474              		.loc 1 86 5 discriminator 4 view .LVU123
 475              		.loc 1 86 5 discriminator 4 view .LVU124
 476 003a B1F5805F 		cmp	r1, #4096
 477 003e 43D2     		bcs	.L60
 478              		.loc 1 86 5 discriminator 2 view .LVU125
  87:../switch_sdk/core/yt/yt_l2.c **** 
  88:../switch_sdk/core/yt/yt_l2.c ****     return YT_DISPATCH(unit)->l2_fdb_ucast_addr_add(unit, vid, mac_addr, port, isLag);
 479              		.loc 1 88 5 discriminator 2 view .LVU126
 480              		.loc 1 88 29 is_stmt 0 discriminator 2 view .LVU127
 481 0040 D3F84443 		ldr	r4, [r3, #836]
 482              		.loc 1 88 12 discriminator 2 view .LVU128
 483 0044 0192     		str	r2, [sp, #4]
 484 0046 069B     		ldr	r3, [sp, #24]
 485 0048 0093     		str	r3, [sp]
 486 004a 04AB     		add	r3, sp, #16
 487 004c 13E90C00 		ldmdb	r3, {r2, r3}
 488 0050 6046     		mov	r0, ip
 489 0052 A047     		blx	r4
 490              	.LVL40:
 491              	.L43:
  89:../switch_sdk/core/yt/yt_l2.c **** }
 492              		.loc 1 89 1 view .LVU129
 493 0054 04B0     		add	sp, sp, #16
 494              		.cfi_remember_state
 495              		.cfi_def_cfa_offset 8
 496              		@ sp needed
 497 0056 10BD     		pop	{r4, pc}
 498              	.LVL41:
 499              	.L57:
 500              		.cfi_restore_state
  79:../switch_sdk/core/yt/yt_l2.c ****     CMM_PARAM_CHK(NULL == YT_DISPATCH(unit), CMM_ERR_NOT_INIT);
 501              		.loc 1 79 5 is_stmt 1 discriminator 1 view .LVU130
  79:../switch_sdk/core/yt/yt_l2.c ****     CMM_PARAM_CHK(NULL == YT_DISPATCH(unit), CMM_ERR_NOT_INIT);
 502              		.loc 1 79 5 discriminator 1 view .LVU131
 503 0058 254B     		ldr	r3, .L66+12
 504 005a 1B78     		ldrb	r3, [r3]	@ zero_extendqisi2
 505 005c 012B     		cmp	r3, #1
 506 005e 01D8     		bhi	.L61
 507              	.LVL42:
 508              	.L45:
  79:../switch_sdk/core/yt/yt_l2.c ****     CMM_PARAM_CHK(NULL == YT_DISPATCH(unit), CMM_ERR_NOT_INIT);
 509              		.loc 1 79 5 discriminator 5 view .LVU132
  79:../switch_sdk/core/yt/yt_l2.c ****     CMM_PARAM_CHK(NULL == YT_DISPATCH(unit), CMM_ERR_NOT_INIT);
 510              		.loc 1 79 5 discriminator 5 view .LVU133
  79:../switch_sdk/core/yt/yt_l2.c ****     CMM_PARAM_CHK(NULL == YT_DISPATCH(unit), CMM_ERR_NOT_INIT);
 511              		.loc 1 79 5 discriminator 5 view .LVU134
 512 0060 0520     		movs	r0, #5
 513 0062 F7E7     		b	.L43
 514              	.LVL43:
 515              	.L61:
  79:../switch_sdk/core/yt/yt_l2.c ****     CMM_PARAM_CHK(NULL == YT_DISPATCH(unit), CMM_ERR_NOT_INIT);
 516              		.loc 1 79 5 discriminator 3 view .LVU135
 517              	.LBB10:
  79:../switch_sdk/core/yt/yt_l2.c ****     CMM_PARAM_CHK(NULL == YT_DISPATCH(unit), CMM_ERR_NOT_INIT);
 518              		.loc 1 79 5 discriminator 3 view .LVU136
 519 0064 234B     		ldr	r3, .L66+16
 520 0066 5A69     		ldr	r2, [r3, #20]
 521 0068 234B     		ldr	r3, .L66+20
 522 006a 9968     		ldr	r1, [r3, #8]
 523              	.LVL44:
  79:../switch_sdk/core/yt/yt_l2.c ****     CMM_PARAM_CHK(NULL == YT_DISPATCH(unit), CMM_ERR_NOT_INIT);
 524              		.loc 1 79 5 is_stmt 0 discriminator 3 view .LVU137
 525 006c 2348     		ldr	r0, .L66+24
 526              	.LVL45:
  79:../switch_sdk/core/yt/yt_l2.c ****     CMM_PARAM_CHK(NULL == YT_DISPATCH(unit), CMM_ERR_NOT_INIT);
 527              		.loc 1 79 5 discriminator 3 view .LVU138
 528 006e FFF7FEFF 		bl	osal_printf
 529              	.LVL46:
 530 0072 F5E7     		b	.L45
 531              	.LVL47:
 532              	.L58:
  79:../switch_sdk/core/yt/yt_l2.c ****     CMM_PARAM_CHK(NULL == YT_DISPATCH(unit), CMM_ERR_NOT_INIT);
 533              		.loc 1 79 5 discriminator 3 view .LVU139
 534              	.LBE10:
  80:../switch_sdk/core/yt/yt_l2.c ****     CMM_PARAM_CHK((!(YT_DISPATCH(unit)->is_inited)), CMM_ERR_NOT_INIT);
 535              		.loc 1 80 5 is_stmt 1 discriminator 1 view .LVU140
  80:../switch_sdk/core/yt/yt_l2.c ****     CMM_PARAM_CHK((!(YT_DISPATCH(unit)->is_inited)), CMM_ERR_NOT_INIT);
 536              		.loc 1 80 5 discriminator 1 view .LVU141
 537 0074 1E4B     		ldr	r3, .L66+12
 538 0076 1B78     		ldrb	r3, [r3]	@ zero_extendqisi2
 539 0078 012B     		cmp	r3, #1
 540 007a 01D8     		bhi	.L62
 541              	.LVL48:
 542              	.L48:
  80:../switch_sdk/core/yt/yt_l2.c ****     CMM_PARAM_CHK((!(YT_DISPATCH(unit)->is_inited)), CMM_ERR_NOT_INIT);
 543              		.loc 1 80 5 discriminator 5 view .LVU142
  80:../switch_sdk/core/yt/yt_l2.c ****     CMM_PARAM_CHK((!(YT_DISPATCH(unit)->is_inited)), CMM_ERR_NOT_INIT);
 544              		.loc 1 80 5 discriminator 5 view .LVU143
  80:../switch_sdk/core/yt/yt_l2.c ****     CMM_PARAM_CHK((!(YT_DISPATCH(unit)->is_inited)), CMM_ERR_NOT_INIT);
 545              		.loc 1 80 5 discriminator 5 view .LVU144
 546 007c 0420     		movs	r0, #4
 547 007e E9E7     		b	.L43
 548              	.LVL49:
 549              	.L62:
  80:../switch_sdk/core/yt/yt_l2.c ****     CMM_PARAM_CHK((!(YT_DISPATCH(unit)->is_inited)), CMM_ERR_NOT_INIT);
 550              		.loc 1 80 5 discriminator 3 view .LVU145
 551              	.LBB11:
  80:../switch_sdk/core/yt/yt_l2.c ****     CMM_PARAM_CHK((!(YT_DISPATCH(unit)->is_inited)), CMM_ERR_NOT_INIT);
 552              		.loc 1 80 5 discriminator 3 view .LVU146
 553 0080 1C4B     		ldr	r3, .L66+16
 554 0082 1A69     		ldr	r2, [r3, #16]
 555 0084 1C4B     		ldr	r3, .L66+20
 556 0086 9968     		ldr	r1, [r3, #8]
 557              	.LVL50:
  80:../switch_sdk/core/yt/yt_l2.c ****     CMM_PARAM_CHK((!(YT_DISPATCH(unit)->is_inited)), CMM_ERR_NOT_INIT);
 558              		.loc 1 80 5 is_stmt 0 discriminator 3 view .LVU147
 559 0088 1C48     		ldr	r0, .L66+24
 560              	.LVL51:
  80:../switch_sdk/core/yt/yt_l2.c ****     CMM_PARAM_CHK((!(YT_DISPATCH(unit)->is_inited)), CMM_ERR_NOT_INIT);
 561              		.loc 1 80 5 discriminator 3 view .LVU148
 562 008a FFF7FEFF 		bl	osal_printf
 563              	.LVL52:
 564 008e F5E7     		b	.L48
 565              	.LVL53:
 566              	.L59:
  80:../switch_sdk/core/yt/yt_l2.c ****     CMM_PARAM_CHK((!(YT_DISPATCH(unit)->is_inited)), CMM_ERR_NOT_INIT);
 567              		.loc 1 80 5 discriminator 3 view .LVU149
 568              	.LBE11:
  81:../switch_sdk/core/yt/yt_l2.c ****     if(!isLag)
 569              		.loc 1 81 5 is_stmt 1 discriminator 1 view .LVU150
  81:../switch_sdk/core/yt/yt_l2.c ****     if(!isLag)
 570              		.loc 1 81 5 discriminator 1 view .LVU151
 571 0090 174B     		ldr	r3, .L66+12
 572 0092 1B78     		ldrb	r3, [r3]	@ zero_extendqisi2
 573 0094 012B     		cmp	r3, #1
 574 0096 01D8     		bhi	.L63
 575              	.LVL54:
 576              	.L50:
  81:../switch_sdk/core/yt/yt_l2.c ****     if(!isLag)
 577              		.loc 1 81 5 discriminator 5 view .LVU152
  81:../switch_sdk/core/yt/yt_l2.c ****     if(!isLag)
 578              		.loc 1 81 5 discriminator 5 view .LVU153
  81:../switch_sdk/core/yt/yt_l2.c ****     if(!isLag)
 579              		.loc 1 81 5 discriminator 5 view .LVU154
 580 0098 0420     		movs	r0, #4
 581 009a DBE7     		b	.L43
 582              	.LVL55:
 583              	.L63:
  81:../switch_sdk/core/yt/yt_l2.c ****     if(!isLag)
 584              		.loc 1 81 5 discriminator 3 view .LVU155
 585              	.LBB12:
  81:../switch_sdk/core/yt/yt_l2.c ****     if(!isLag)
 586              		.loc 1 81 5 discriminator 3 view .LVU156
 587 009c 154B     		ldr	r3, .L66+16
 588 009e 1A69     		ldr	r2, [r3, #16]
 589 00a0 154B     		ldr	r3, .L66+20
 590 00a2 9968     		ldr	r1, [r3, #8]
 591              	.LVL56:
  81:../switch_sdk/core/yt/yt_l2.c ****     if(!isLag)
 592              		.loc 1 81 5 is_stmt 0 discriminator 3 view .LVU157
 593 00a4 1548     		ldr	r0, .L66+24
 594 00a6 FFF7FEFF 		bl	osal_printf
 595              	.LVL57:
 596 00aa F5E7     		b	.L50
 597              	.LVL58:
 598              	.L52:
  81:../switch_sdk/core/yt/yt_l2.c ****     if(!isLag)
 599              		.loc 1 81 5 discriminator 3 view .LVU158
 600              	.LBE12:
  84:../switch_sdk/core/yt/yt_l2.c ****     }
 601              		.loc 1 84 9 is_stmt 1 discriminator 3 view .LVU159
  84:../switch_sdk/core/yt/yt_l2.c ****     }
 602              		.loc 1 84 9 discriminator 3 view .LVU160
 603 00ac 104B     		ldr	r3, .L66+12
 604 00ae 1B78     		ldrb	r3, [r3]	@ zero_extendqisi2
 605 00b0 012B     		cmp	r3, #1
 606 00b2 01D8     		bhi	.L64
 607              	.LVL59:
 608              	.L53:
  84:../switch_sdk/core/yt/yt_l2.c ****     }
 609              		.loc 1 84 9 discriminator 7 view .LVU161
  84:../switch_sdk/core/yt/yt_l2.c ****     }
 610              		.loc 1 84 9 discriminator 7 view .LVU162
  84:../switch_sdk/core/yt/yt_l2.c ****     }
 611              		.loc 1 84 9 discriminator 7 view .LVU163
 612 00b4 0E20     		movs	r0, #14
 613 00b6 CDE7     		b	.L43
 614              	.LVL60:
 615              	.L64:
  84:../switch_sdk/core/yt/yt_l2.c ****     }
 616              		.loc 1 84 9 discriminator 5 view .LVU164
 617              	.LBB13:
  84:../switch_sdk/core/yt/yt_l2.c ****     }
 618              		.loc 1 84 9 discriminator 5 view .LVU165
 619 00b8 0E4B     		ldr	r3, .L66+16
 620 00ba 9A6B     		ldr	r2, [r3, #56]
 621 00bc 0E4B     		ldr	r3, .L66+20
 622 00be 9968     		ldr	r1, [r3, #8]
 623              	.LVL61:
  84:../switch_sdk/core/yt/yt_l2.c ****     }
 624              		.loc 1 84 9 is_stmt 0 discriminator 5 view .LVU166
 625 00c0 0E48     		ldr	r0, .L66+24
 626 00c2 FFF7FEFF 		bl	osal_printf
 627              	.LVL62:
 628 00c6 F5E7     		b	.L53
 629              	.LVL63:
 630              	.L60:
  84:../switch_sdk/core/yt/yt_l2.c ****     }
 631              		.loc 1 84 9 discriminator 5 view .LVU167
 632              	.LBE13:
  86:../switch_sdk/core/yt/yt_l2.c **** 
 633              		.loc 1 86 5 is_stmt 1 discriminator 1 view .LVU168
  86:../switch_sdk/core/yt/yt_l2.c **** 
 634              		.loc 1 86 5 discriminator 1 view .LVU169
 635 00c8 094B     		ldr	r3, .L66+12
 636 00ca 1B78     		ldrb	r3, [r3]	@ zero_extendqisi2
 637 00cc 012B     		cmp	r3, #1
 638 00ce 01D8     		bhi	.L65
 639              	.LVL64:
 640              	.L55:
  86:../switch_sdk/core/yt/yt_l2.c **** 
 641              		.loc 1 86 5 discriminator 5 view .LVU170
  86:../switch_sdk/core/yt/yt_l2.c **** 
 642              		.loc 1 86 5 discriminator 5 view .LVU171
  86:../switch_sdk/core/yt/yt_l2.c **** 
 643              		.loc 1 86 5 discriminator 5 view .LVU172
 644 00d0 1120     		movs	r0, #17
 645 00d2 BFE7     		b	.L43
 646              	.LVL65:
 647              	.L65:
  86:../switch_sdk/core/yt/yt_l2.c **** 
 648              		.loc 1 86 5 discriminator 3 view .LVU173
 649              	.LBB14:
  86:../switch_sdk/core/yt/yt_l2.c **** 
 650              		.loc 1 86 5 discriminator 3 view .LVU174
 651 00d4 074B     		ldr	r3, .L66+16
 652 00d6 5A6C     		ldr	r2, [r3, #68]
 653 00d8 074B     		ldr	r3, .L66+20
 654 00da 9968     		ldr	r1, [r3, #8]
 655              	.LVL66:
  86:../switch_sdk/core/yt/yt_l2.c **** 
 656              		.loc 1 86 5 is_stmt 0 discriminator 3 view .LVU175
 657 00dc 0748     		ldr	r0, .L66+24
 658 00de FFF7FEFF 		bl	osal_printf
 659              	.LVL67:
 660 00e2 F5E7     		b	.L55
 661              	.L67:
 662              		.align	2
 663              	.L66:
 664 00e4 00000000 		.word	gpfal_dispatch
 665 00e8 00000000 		.word	gcal_inited
 666 00ec 00000000 		.word	gpSwitchUnit
 667 00f0 00000000 		.word	yt_debug_level
 668 00f4 00000000 		.word	_yt_errmsg
 669 00f8 00000000 		.word	_yt_prompt_msg
 670 00fc 00000000 		.word	.LC0
 671              	.LBE14:
 672              		.cfi_endproc
 673              	.LFE5:
 675              		.section	.text.yt_l2_fdb_ucast_addr_add_dynamic,"ax",%progbits
 676              		.align	1
 677              		.global	yt_l2_fdb_ucast_addr_add_dynamic
 678              		.syntax unified
 679              		.thumb
 680              		.thumb_func
 682              	yt_l2_fdb_ucast_addr_add_dynamic:
 683              	.LVL68:
 684              	.LFB6:
  90:../switch_sdk/core/yt/yt_l2.c **** 
  91:../switch_sdk/core/yt/yt_l2.c **** /**
  92:../switch_sdk/core/yt/yt_l2.c ****  * @internal      yt_l2_fdb_ucast_addr_add_dynamic
  93:../switch_sdk/core/yt/yt_l2.c ****  * @endinternal
  94:../switch_sdk/core/yt/yt_l2.c ****  *
  95:../switch_sdk/core/yt/yt_l2.c ****  * @brief         add l2 dynamic fdb table
  96:../switch_sdk/core/yt/yt_l2.c ****  * @note          APPLICABLE DEVICES  -Tiger
  97:../switch_sdk/core/yt/yt_l2.c ****  * @param[in]     unit                -unit id
  98:../switch_sdk/core/yt/yt_l2.c ****  * @param[in]     vid                 -vlan id
  99:../switch_sdk/core/yt/yt_l2.c ****  * @param[in]     mac_addr            -yt_types.h
 100:../switch_sdk/core/yt/yt_l2.c ****  * @param[in]     port                -port num
 101:../switch_sdk/core/yt/yt_l2.c ****  * @param[in]     isLag               -yt_types.h
 102:../switch_sdk/core/yt/yt_l2.c ****  * @retval        CMM_ERR_OK          -on success
 103:../switch_sdk/core/yt/yt_l2.c ****  * @retval        CMM_ERR_FAIL        -on fail
 104:../switch_sdk/core/yt/yt_l2.c ****  */
 105:../switch_sdk/core/yt/yt_l2.c **** yt_ret_t  yt_l2_fdb_ucast_addr_add_dynamic(yt_unit_t unit, yt_vlan_t vid, yt_mac_addr_t mac_addr, y
 106:../switch_sdk/core/yt/yt_l2.c **** {
 685              		.loc 1 106 1 is_stmt 1 view -0
 686              		.cfi_startproc
 687              		@ args = 8, pretend = 0, frame = 8
 688              		@ frame_needed = 0, uses_anonymous_args = 0
 689              		.loc 1 106 1 is_stmt 0 view .LVU177
 690 0000 10B5     		push	{r4, lr}
 691              		.cfi_def_cfa_offset 8
 692              		.cfi_offset 4, -8
 693              		.cfi_offset 14, -4
 694 0002 84B0     		sub	sp, sp, #16
 695              		.cfi_def_cfa_offset 24
 696 0004 04AC     		add	r4, sp, #16
 697 0006 04E90C00 		stmdb	r4, {r2, r3}
 698 000a 9DF81C20 		ldrb	r2, [sp, #28]	@ zero_extendqisi2
 107:../switch_sdk/core/yt/yt_l2.c ****     CMM_PARAM_CHK((YT_UNIT_NUM <= unit), CMM_ERR_INPUT);
 699              		.loc 1 107 5 is_stmt 1 view .LVU178
 700              		.loc 1 107 5 view .LVU179
 701 000e 18BB     		cbnz	r0, .L82
 702 0010 8446     		mov	ip, r0
 703              		.loc 1 107 5 discriminator 2 view .LVU180
 108:../switch_sdk/core/yt/yt_l2.c ****     CMM_PARAM_CHK(NULL == YT_DISPATCH(unit), CMM_ERR_NOT_INIT);
 704              		.loc 1 108 5 discriminator 2 view .LVU181
 705              		.loc 1 108 5 discriminator 2 view .LVU182
 706 0012 344B     		ldr	r3, .L91
 707 0014 53F82030 		ldr	r3, [r3, r0, lsl #2]
 708 0018 002B     		cmp	r3, #0
 709 001a 2BD0     		beq	.L83
 710              		.loc 1 108 5 discriminator 2 view .LVU183
 109:../switch_sdk/core/yt/yt_l2.c ****     CMM_PARAM_CHK((!(YT_DISPATCH(unit)->is_inited)), CMM_ERR_NOT_INIT);
 711              		.loc 1 109 5 discriminator 2 view .LVU184
 712              		.loc 1 109 5 discriminator 2 view .LVU185
 713 001c 1878     		ldrb	r0, [r3]	@ zero_extendqisi2
 714              	.LVL69:
 715              		.loc 1 109 5 is_stmt 0 discriminator 2 view .LVU186
 716 001e 0028     		cmp	r0, #0
 717 0020 36D0     		beq	.L84
 718              		.loc 1 109 5 is_stmt 1 discriminator 2 view .LVU187
 110:../switch_sdk/core/yt/yt_l2.c ****     if(!isLag)
 719              		.loc 1 110 5 discriminator 2 view .LVU188
 720              		.loc 1 110 7 is_stmt 0 discriminator 2 view .LVU189
 721 0022 52B9     		cbnz	r2, .L76
 111:../switch_sdk/core/yt/yt_l2.c ****     {
 112:../switch_sdk/core/yt/yt_l2.c ****         CMM_PARAM_CHK((!(CMM_PORT_VALID(unit, port))), CMM_ERR_PORT);
 722              		.loc 1 112 9 is_stmt 1 view .LVU190
 723              		.loc 1 112 9 view .LVU191
 724 0024 3048     		ldr	r0, .L91+4
 725 0026 0078     		ldrb	r0, [r0]	@ zero_extendqisi2
 726 0028 0028     		cmp	r0, #0
 727 002a 3FD0     		beq	.L77
 728              		.loc 1 112 9 is_stmt 0 discriminator 2 view .LVU192
 729 002c 2F48     		ldr	r0, .L91+8
 730 002e 50F82C00 		ldr	r0, [r0, ip, lsl #2]
 731 0032 007D     		ldrb	r0, [r0, #20]	@ zero_extendqisi2
 732 0034 069C     		ldr	r4, [sp, #24]
 733 0036 A042     		cmp	r0, r4
 734 0038 38D9     		bls	.L77
 735              	.L76:
 736              		.loc 1 112 9 is_stmt 1 discriminator 4 view .LVU193
 113:../switch_sdk/core/yt/yt_l2.c ****     }
 114:../switch_sdk/core/yt/yt_l2.c ****     CMM_PARAM_CHK((YT_VLAN_ID_MAX < vid), CMM_ERR_EXCEED_RANGE);
 737              		.loc 1 114 5 discriminator 4 view .LVU194
 738              		.loc 1 114 5 discriminator 4 view .LVU195
 739 003a B1F5805F 		cmp	r1, #4096
 740 003e 43D2     		bcs	.L85
 741              		.loc 1 114 5 discriminator 2 view .LVU196
 115:../switch_sdk/core/yt/yt_l2.c **** 
 116:../switch_sdk/core/yt/yt_l2.c ****     return YT_DISPATCH(unit)->l2_fdb_ucast_addr_add_dynamic(unit, vid, mac_addr, port, isLag);
 742              		.loc 1 116 5 discriminator 2 view .LVU197
 743              		.loc 1 116 29 is_stmt 0 discriminator 2 view .LVU198
 744 0040 D3F84843 		ldr	r4, [r3, #840]
 745              		.loc 1 116 12 discriminator 2 view .LVU199
 746 0044 0192     		str	r2, [sp, #4]
 747 0046 069B     		ldr	r3, [sp, #24]
 748 0048 0093     		str	r3, [sp]
 749 004a 04AB     		add	r3, sp, #16
 750 004c 13E90C00 		ldmdb	r3, {r2, r3}
 751 0050 6046     		mov	r0, ip
 752 0052 A047     		blx	r4
 753              	.LVL70:
 754              	.L68:
 117:../switch_sdk/core/yt/yt_l2.c **** }
 755              		.loc 1 117 1 view .LVU200
 756 0054 04B0     		add	sp, sp, #16
 757              		.cfi_remember_state
 758              		.cfi_def_cfa_offset 8
 759              		@ sp needed
 760 0056 10BD     		pop	{r4, pc}
 761              	.LVL71:
 762              	.L82:
 763              		.cfi_restore_state
 107:../switch_sdk/core/yt/yt_l2.c ****     CMM_PARAM_CHK(NULL == YT_DISPATCH(unit), CMM_ERR_NOT_INIT);
 764              		.loc 1 107 5 is_stmt 1 discriminator 1 view .LVU201
 107:../switch_sdk/core/yt/yt_l2.c ****     CMM_PARAM_CHK(NULL == YT_DISPATCH(unit), CMM_ERR_NOT_INIT);
 765              		.loc 1 107 5 discriminator 1 view .LVU202
 766 0058 254B     		ldr	r3, .L91+12
 767 005a 1B78     		ldrb	r3, [r3]	@ zero_extendqisi2
 768 005c 012B     		cmp	r3, #1
 769 005e 01D8     		bhi	.L86
 770              	.LVL72:
 771              	.L70:
 107:../switch_sdk/core/yt/yt_l2.c ****     CMM_PARAM_CHK(NULL == YT_DISPATCH(unit), CMM_ERR_NOT_INIT);
 772              		.loc 1 107 5 discriminator 5 view .LVU203
 107:../switch_sdk/core/yt/yt_l2.c ****     CMM_PARAM_CHK(NULL == YT_DISPATCH(unit), CMM_ERR_NOT_INIT);
 773              		.loc 1 107 5 discriminator 5 view .LVU204
 107:../switch_sdk/core/yt/yt_l2.c ****     CMM_PARAM_CHK(NULL == YT_DISPATCH(unit), CMM_ERR_NOT_INIT);
 774              		.loc 1 107 5 discriminator 5 view .LVU205
 775 0060 0520     		movs	r0, #5
 776 0062 F7E7     		b	.L68
 777              	.LVL73:
 778              	.L86:
 107:../switch_sdk/core/yt/yt_l2.c ****     CMM_PARAM_CHK(NULL == YT_DISPATCH(unit), CMM_ERR_NOT_INIT);
 779              		.loc 1 107 5 discriminator 3 view .LVU206
 780              	.LBB15:
 107:../switch_sdk/core/yt/yt_l2.c ****     CMM_PARAM_CHK(NULL == YT_DISPATCH(unit), CMM_ERR_NOT_INIT);
 781              		.loc 1 107 5 discriminator 3 view .LVU207
 782 0064 234B     		ldr	r3, .L91+16
 783 0066 5A69     		ldr	r2, [r3, #20]
 784 0068 234B     		ldr	r3, .L91+20
 785 006a 9968     		ldr	r1, [r3, #8]
 786              	.LVL74:
 107:../switch_sdk/core/yt/yt_l2.c ****     CMM_PARAM_CHK(NULL == YT_DISPATCH(unit), CMM_ERR_NOT_INIT);
 787              		.loc 1 107 5 is_stmt 0 discriminator 3 view .LVU208
 788 006c 2348     		ldr	r0, .L91+24
 789              	.LVL75:
 107:../switch_sdk/core/yt/yt_l2.c ****     CMM_PARAM_CHK(NULL == YT_DISPATCH(unit), CMM_ERR_NOT_INIT);
 790              		.loc 1 107 5 discriminator 3 view .LVU209
 791 006e FFF7FEFF 		bl	osal_printf
 792              	.LVL76:
 793 0072 F5E7     		b	.L70
 794              	.LVL77:
 795              	.L83:
 107:../switch_sdk/core/yt/yt_l2.c ****     CMM_PARAM_CHK(NULL == YT_DISPATCH(unit), CMM_ERR_NOT_INIT);
 796              		.loc 1 107 5 discriminator 3 view .LVU210
 797              	.LBE15:
 108:../switch_sdk/core/yt/yt_l2.c ****     CMM_PARAM_CHK((!(YT_DISPATCH(unit)->is_inited)), CMM_ERR_NOT_INIT);
 798              		.loc 1 108 5 is_stmt 1 discriminator 1 view .LVU211
 108:../switch_sdk/core/yt/yt_l2.c ****     CMM_PARAM_CHK((!(YT_DISPATCH(unit)->is_inited)), CMM_ERR_NOT_INIT);
 799              		.loc 1 108 5 discriminator 1 view .LVU212
 800 0074 1E4B     		ldr	r3, .L91+12
 801 0076 1B78     		ldrb	r3, [r3]	@ zero_extendqisi2
 802 0078 012B     		cmp	r3, #1
 803 007a 01D8     		bhi	.L87
 804              	.LVL78:
 805              	.L73:
 108:../switch_sdk/core/yt/yt_l2.c ****     CMM_PARAM_CHK((!(YT_DISPATCH(unit)->is_inited)), CMM_ERR_NOT_INIT);
 806              		.loc 1 108 5 discriminator 5 view .LVU213
 108:../switch_sdk/core/yt/yt_l2.c ****     CMM_PARAM_CHK((!(YT_DISPATCH(unit)->is_inited)), CMM_ERR_NOT_INIT);
 807              		.loc 1 108 5 discriminator 5 view .LVU214
 108:../switch_sdk/core/yt/yt_l2.c ****     CMM_PARAM_CHK((!(YT_DISPATCH(unit)->is_inited)), CMM_ERR_NOT_INIT);
 808              		.loc 1 108 5 discriminator 5 view .LVU215
 809 007c 0420     		movs	r0, #4
 810 007e E9E7     		b	.L68
 811              	.LVL79:
 812              	.L87:
 108:../switch_sdk/core/yt/yt_l2.c ****     CMM_PARAM_CHK((!(YT_DISPATCH(unit)->is_inited)), CMM_ERR_NOT_INIT);
 813              		.loc 1 108 5 discriminator 3 view .LVU216
 814              	.LBB16:
 108:../switch_sdk/core/yt/yt_l2.c ****     CMM_PARAM_CHK((!(YT_DISPATCH(unit)->is_inited)), CMM_ERR_NOT_INIT);
 815              		.loc 1 108 5 discriminator 3 view .LVU217
 816 0080 1C4B     		ldr	r3, .L91+16
 817 0082 1A69     		ldr	r2, [r3, #16]
 818 0084 1C4B     		ldr	r3, .L91+20
 819 0086 9968     		ldr	r1, [r3, #8]
 820              	.LVL80:
 108:../switch_sdk/core/yt/yt_l2.c ****     CMM_PARAM_CHK((!(YT_DISPATCH(unit)->is_inited)), CMM_ERR_NOT_INIT);
 821              		.loc 1 108 5 is_stmt 0 discriminator 3 view .LVU218
 822 0088 1C48     		ldr	r0, .L91+24
 823              	.LVL81:
 108:../switch_sdk/core/yt/yt_l2.c ****     CMM_PARAM_CHK((!(YT_DISPATCH(unit)->is_inited)), CMM_ERR_NOT_INIT);
 824              		.loc 1 108 5 discriminator 3 view .LVU219
 825 008a FFF7FEFF 		bl	osal_printf
 826              	.LVL82:
 827 008e F5E7     		b	.L73
 828              	.LVL83:
 829              	.L84:
 108:../switch_sdk/core/yt/yt_l2.c ****     CMM_PARAM_CHK((!(YT_DISPATCH(unit)->is_inited)), CMM_ERR_NOT_INIT);
 830              		.loc 1 108 5 discriminator 3 view .LVU220
 831              	.LBE16:
 109:../switch_sdk/core/yt/yt_l2.c ****     if(!isLag)
 832              		.loc 1 109 5 is_stmt 1 discriminator 1 view .LVU221
 109:../switch_sdk/core/yt/yt_l2.c ****     if(!isLag)
 833              		.loc 1 109 5 discriminator 1 view .LVU222
 834 0090 174B     		ldr	r3, .L91+12
 835 0092 1B78     		ldrb	r3, [r3]	@ zero_extendqisi2
 836 0094 012B     		cmp	r3, #1
 837 0096 01D8     		bhi	.L88
 838              	.LVL84:
 839              	.L75:
 109:../switch_sdk/core/yt/yt_l2.c ****     if(!isLag)
 840              		.loc 1 109 5 discriminator 5 view .LVU223
 109:../switch_sdk/core/yt/yt_l2.c ****     if(!isLag)
 841              		.loc 1 109 5 discriminator 5 view .LVU224
 109:../switch_sdk/core/yt/yt_l2.c ****     if(!isLag)
 842              		.loc 1 109 5 discriminator 5 view .LVU225
 843 0098 0420     		movs	r0, #4
 844 009a DBE7     		b	.L68
 845              	.LVL85:
 846              	.L88:
 109:../switch_sdk/core/yt/yt_l2.c ****     if(!isLag)
 847              		.loc 1 109 5 discriminator 3 view .LVU226
 848              	.LBB17:
 109:../switch_sdk/core/yt/yt_l2.c ****     if(!isLag)
 849              		.loc 1 109 5 discriminator 3 view .LVU227
 850 009c 154B     		ldr	r3, .L91+16
 851 009e 1A69     		ldr	r2, [r3, #16]
 852 00a0 154B     		ldr	r3, .L91+20
 853 00a2 9968     		ldr	r1, [r3, #8]
 854              	.LVL86:
 109:../switch_sdk/core/yt/yt_l2.c ****     if(!isLag)
 855              		.loc 1 109 5 is_stmt 0 discriminator 3 view .LVU228
 856 00a4 1548     		ldr	r0, .L91+24
 857 00a6 FFF7FEFF 		bl	osal_printf
 858              	.LVL87:
 859 00aa F5E7     		b	.L75
 860              	.LVL88:
 861              	.L77:
 109:../switch_sdk/core/yt/yt_l2.c ****     if(!isLag)
 862              		.loc 1 109 5 discriminator 3 view .LVU229
 863              	.LBE17:
 112:../switch_sdk/core/yt/yt_l2.c ****     }
 864              		.loc 1 112 9 is_stmt 1 discriminator 3 view .LVU230
 112:../switch_sdk/core/yt/yt_l2.c ****     }
 865              		.loc 1 112 9 discriminator 3 view .LVU231
 866 00ac 104B     		ldr	r3, .L91+12
 867 00ae 1B78     		ldrb	r3, [r3]	@ zero_extendqisi2
 868 00b0 012B     		cmp	r3, #1
 869 00b2 01D8     		bhi	.L89
 870              	.LVL89:
 871              	.L78:
 112:../switch_sdk/core/yt/yt_l2.c ****     }
 872              		.loc 1 112 9 discriminator 7 view .LVU232
 112:../switch_sdk/core/yt/yt_l2.c ****     }
 873              		.loc 1 112 9 discriminator 7 view .LVU233
 112:../switch_sdk/core/yt/yt_l2.c ****     }
 874              		.loc 1 112 9 discriminator 7 view .LVU234
 875 00b4 0E20     		movs	r0, #14
 876 00b6 CDE7     		b	.L68
 877              	.LVL90:
 878              	.L89:
 112:../switch_sdk/core/yt/yt_l2.c ****     }
 879              		.loc 1 112 9 discriminator 5 view .LVU235
 880              	.LBB18:
 112:../switch_sdk/core/yt/yt_l2.c ****     }
 881              		.loc 1 112 9 discriminator 5 view .LVU236
 882 00b8 0E4B     		ldr	r3, .L91+16
 883 00ba 9A6B     		ldr	r2, [r3, #56]
 884 00bc 0E4B     		ldr	r3, .L91+20
 885 00be 9968     		ldr	r1, [r3, #8]
 886              	.LVL91:
 112:../switch_sdk/core/yt/yt_l2.c ****     }
 887              		.loc 1 112 9 is_stmt 0 discriminator 5 view .LVU237
 888 00c0 0E48     		ldr	r0, .L91+24
 889 00c2 FFF7FEFF 		bl	osal_printf
 890              	.LVL92:
 891 00c6 F5E7     		b	.L78
 892              	.LVL93:
 893              	.L85:
 112:../switch_sdk/core/yt/yt_l2.c ****     }
 894              		.loc 1 112 9 discriminator 5 view .LVU238
 895              	.LBE18:
 114:../switch_sdk/core/yt/yt_l2.c **** 
 896              		.loc 1 114 5 is_stmt 1 discriminator 1 view .LVU239
 114:../switch_sdk/core/yt/yt_l2.c **** 
 897              		.loc 1 114 5 discriminator 1 view .LVU240
 898 00c8 094B     		ldr	r3, .L91+12
 899 00ca 1B78     		ldrb	r3, [r3]	@ zero_extendqisi2
 900 00cc 012B     		cmp	r3, #1
 901 00ce 01D8     		bhi	.L90
 902              	.LVL94:
 903              	.L80:
 114:../switch_sdk/core/yt/yt_l2.c **** 
 904              		.loc 1 114 5 discriminator 5 view .LVU241
 114:../switch_sdk/core/yt/yt_l2.c **** 
 905              		.loc 1 114 5 discriminator 5 view .LVU242
 114:../switch_sdk/core/yt/yt_l2.c **** 
 906              		.loc 1 114 5 discriminator 5 view .LVU243
 907 00d0 1120     		movs	r0, #17
 908 00d2 BFE7     		b	.L68
 909              	.LVL95:
 910              	.L90:
 114:../switch_sdk/core/yt/yt_l2.c **** 
 911              		.loc 1 114 5 discriminator 3 view .LVU244
 912              	.LBB19:
 114:../switch_sdk/core/yt/yt_l2.c **** 
 913              		.loc 1 114 5 discriminator 3 view .LVU245
 914 00d4 074B     		ldr	r3, .L91+16
 915 00d6 5A6C     		ldr	r2, [r3, #68]
 916 00d8 074B     		ldr	r3, .L91+20
 917 00da 9968     		ldr	r1, [r3, #8]
 918              	.LVL96:
 114:../switch_sdk/core/yt/yt_l2.c **** 
 919              		.loc 1 114 5 is_stmt 0 discriminator 3 view .LVU246
 920 00dc 0748     		ldr	r0, .L91+24
 921 00de FFF7FEFF 		bl	osal_printf
 922              	.LVL97:
 923 00e2 F5E7     		b	.L80
 924              	.L92:
 925              		.align	2
 926              	.L91:
 927 00e4 00000000 		.word	gpfal_dispatch
 928 00e8 00000000 		.word	gcal_inited
 929 00ec 00000000 		.word	gpSwitchUnit
 930 00f0 00000000 		.word	yt_debug_level
 931 00f4 00000000 		.word	_yt_errmsg
 932 00f8 00000000 		.word	_yt_prompt_msg
 933 00fc 00000000 		.word	.LC0
 934              	.LBE19:
 935              		.cfi_endproc
 936              	.LFE6:
 938              		.section	.text.yt_l2_fdb_ucast_addr_del,"ax",%progbits
 939              		.align	1
 940              		.global	yt_l2_fdb_ucast_addr_del
 941              		.syntax unified
 942              		.thumb
 943              		.thumb_func
 945              	yt_l2_fdb_ucast_addr_del:
 946              	.LVL98:
 947              	.LFB7:
 118:../switch_sdk/core/yt/yt_l2.c **** 
 119:../switch_sdk/core/yt/yt_l2.c **** /**
 120:../switch_sdk/core/yt/yt_l2.c ****  * @internal      yt_l2_fdb_ucast_addr_del
 121:../switch_sdk/core/yt/yt_l2.c ****  * @endinternal
 122:../switch_sdk/core/yt/yt_l2.c ****  *
 123:../switch_sdk/core/yt/yt_l2.c ****  * @brief         Description
 124:../switch_sdk/core/yt/yt_l2.c ****  * @note          APPLICABLE DEVICES  -Tiger
 125:../switch_sdk/core/yt/yt_l2.c ****  * @param[in]     unit                -unit id
 126:../switch_sdk/core/yt/yt_l2.c ****  * @param[in]     vid                 -vlan id
 127:../switch_sdk/core/yt/yt_l2.c ****  * @param[in]     mac_addr            -yt_types.h
 128:../switch_sdk/core/yt/yt_l2.c ****  * @retval        CMM_ERR_OK          -on success
 129:../switch_sdk/core/yt/yt_l2.c ****  * @retval        CMM_ERR_FAIL        -on fail
 130:../switch_sdk/core/yt/yt_l2.c ****  */
 131:../switch_sdk/core/yt/yt_l2.c **** yt_ret_t  yt_l2_fdb_ucast_addr_del(yt_unit_t unit, yt_vlan_t vid, yt_mac_addr_t mac_addr)
 132:../switch_sdk/core/yt/yt_l2.c **** {
 948              		.loc 1 132 1 is_stmt 1 view -0
 949              		.cfi_startproc
 950              		@ args = 0, pretend = 0, frame = 8
 951              		@ frame_needed = 0, uses_anonymous_args = 0
 952              		.loc 1 132 1 is_stmt 0 view .LVU248
 953 0000 10B5     		push	{r4, lr}
 954              		.cfi_def_cfa_offset 8
 955              		.cfi_offset 4, -8
 956              		.cfi_offset 14, -4
 957 0002 82B0     		sub	sp, sp, #8
 958              		.cfi_def_cfa_offset 16
 959 0004 02AC     		add	r4, sp, #8
 960 0006 04E90C00 		stmdb	r4, {r2, r3}
 133:../switch_sdk/core/yt/yt_l2.c ****     CMM_PARAM_CHK((YT_UNIT_NUM <= unit), CMM_ERR_INPUT);
 961              		.loc 1 133 5 is_stmt 1 view .LVU249
 962              		.loc 1 133 5 view .LVU250
 963 000a 80B9     		cbnz	r0, .L104
 964              		.loc 1 133 5 discriminator 2 view .LVU251
 134:../switch_sdk/core/yt/yt_l2.c ****     CMM_PARAM_CHK(NULL == YT_DISPATCH(unit), CMM_ERR_NOT_INIT);
 965              		.loc 1 134 5 discriminator 2 view .LVU252
 966              		.loc 1 134 5 discriminator 2 view .LVU253
 967 000c 244B     		ldr	r3, .L112
 968 000e 53F82030 		ldr	r3, [r3, r0, lsl #2]
 969 0012 D3B1     		cbz	r3, .L105
 970              		.loc 1 134 5 discriminator 2 view .LVU254
 135:../switch_sdk/core/yt/yt_l2.c ****     CMM_PARAM_CHK((!(YT_DISPATCH(unit)->is_inited)), CMM_ERR_NOT_INIT);
 971              		.loc 1 135 5 discriminator 2 view .LVU255
 972              		.loc 1 135 5 discriminator 2 view .LVU256
 973 0014 1A78     		ldrb	r2, [r3]	@ zero_extendqisi2
 974 0016 32B3     		cbz	r2, .L106
 975              		.loc 1 135 5 discriminator 2 view .LVU257
 136:../switch_sdk/core/yt/yt_l2.c ****     CMM_PARAM_CHK((YT_VLAN_ID_MAX < vid), CMM_ERR_EXCEED_RANGE);
 976              		.loc 1 136 5 discriminator 2 view .LVU258
 977              		.loc 1 136 5 discriminator 2 view .LVU259
 978 0018 B1F5805F 		cmp	r1, #4096
 979 001c 31D2     		bcs	.L107
 980              		.loc 1 136 5 discriminator 2 view .LVU260
 137:../switch_sdk/core/yt/yt_l2.c **** 
 138:../switch_sdk/core/yt/yt_l2.c ****     return YT_DISPATCH(unit)->l2_fdb_ucast_addr_del(unit, vid, mac_addr);
 981              		.loc 1 138 5 discriminator 2 view .LVU261
 982              		.loc 1 138 29 is_stmt 0 discriminator 2 view .LVU262
 983 001e D3F84C43 		ldr	r4, [r3, #844]
 984              		.loc 1 138 12 discriminator 2 view .LVU263
 985 0022 02AB     		add	r3, sp, #8
 986 0024 13E90C00 		ldmdb	r3, {r2, r3}
 987 0028 A047     		blx	r4
 988              	.LVL99:
 989              	.L93:
 139:../switch_sdk/core/yt/yt_l2.c **** }
 990              		.loc 1 139 1 view .LVU264
 991 002a 02B0     		add	sp, sp, #8
 992              		.cfi_remember_state
 993              		.cfi_def_cfa_offset 8
 994              		@ sp needed
 995 002c 10BD     		pop	{r4, pc}
 996              	.LVL100:
 997              	.L104:
 998              		.cfi_restore_state
 133:../switch_sdk/core/yt/yt_l2.c ****     CMM_PARAM_CHK(NULL == YT_DISPATCH(unit), CMM_ERR_NOT_INIT);
 999              		.loc 1 133 5 is_stmt 1 discriminator 1 view .LVU265
 133:../switch_sdk/core/yt/yt_l2.c ****     CMM_PARAM_CHK(NULL == YT_DISPATCH(unit), CMM_ERR_NOT_INIT);
 1000              		.loc 1 133 5 discriminator 1 view .LVU266
 1001 002e 1D4B     		ldr	r3, .L112+4
 1002 0030 1B78     		ldrb	r3, [r3]	@ zero_extendqisi2
 1003 0032 012B     		cmp	r3, #1
 1004 0034 01D8     		bhi	.L108
 1005              	.LVL101:
 1006              	.L95:
 133:../switch_sdk/core/yt/yt_l2.c ****     CMM_PARAM_CHK(NULL == YT_DISPATCH(unit), CMM_ERR_NOT_INIT);
 1007              		.loc 1 133 5 discriminator 5 view .LVU267
 133:../switch_sdk/core/yt/yt_l2.c ****     CMM_PARAM_CHK(NULL == YT_DISPATCH(unit), CMM_ERR_NOT_INIT);
 1008              		.loc 1 133 5 discriminator 5 view .LVU268
 133:../switch_sdk/core/yt/yt_l2.c ****     CMM_PARAM_CHK(NULL == YT_DISPATCH(unit), CMM_ERR_NOT_INIT);
 1009              		.loc 1 133 5 discriminator 5 view .LVU269
 1010 0036 0520     		movs	r0, #5
 1011 0038 F7E7     		b	.L93
 1012              	.LVL102:
 1013              	.L108:
 133:../switch_sdk/core/yt/yt_l2.c ****     CMM_PARAM_CHK(NULL == YT_DISPATCH(unit), CMM_ERR_NOT_INIT);
 1014              		.loc 1 133 5 discriminator 3 view .LVU270
 1015              	.LBB20:
 133:../switch_sdk/core/yt/yt_l2.c ****     CMM_PARAM_CHK(NULL == YT_DISPATCH(unit), CMM_ERR_NOT_INIT);
 1016              		.loc 1 133 5 discriminator 3 view .LVU271
 1017 003a 1B4B     		ldr	r3, .L112+8
 1018 003c 5A69     		ldr	r2, [r3, #20]
 1019 003e 1B4B     		ldr	r3, .L112+12
 1020 0040 9968     		ldr	r1, [r3, #8]
 1021              	.LVL103:
 133:../switch_sdk/core/yt/yt_l2.c ****     CMM_PARAM_CHK(NULL == YT_DISPATCH(unit), CMM_ERR_NOT_INIT);
 1022              		.loc 1 133 5 is_stmt 0 discriminator 3 view .LVU272
 1023 0042 1B48     		ldr	r0, .L112+16
 1024              	.LVL104:
 133:../switch_sdk/core/yt/yt_l2.c ****     CMM_PARAM_CHK(NULL == YT_DISPATCH(unit), CMM_ERR_NOT_INIT);
 1025              		.loc 1 133 5 discriminator 3 view .LVU273
 1026 0044 FFF7FEFF 		bl	osal_printf
 1027              	.LVL105:
 1028 0048 F5E7     		b	.L95
 1029              	.LVL106:
 1030              	.L105:
 133:../switch_sdk/core/yt/yt_l2.c ****     CMM_PARAM_CHK(NULL == YT_DISPATCH(unit), CMM_ERR_NOT_INIT);
 1031              		.loc 1 133 5 discriminator 3 view .LVU274
 1032              	.LBE20:
 134:../switch_sdk/core/yt/yt_l2.c ****     CMM_PARAM_CHK((!(YT_DISPATCH(unit)->is_inited)), CMM_ERR_NOT_INIT);
 1033              		.loc 1 134 5 is_stmt 1 discriminator 1 view .LVU275
 134:../switch_sdk/core/yt/yt_l2.c ****     CMM_PARAM_CHK((!(YT_DISPATCH(unit)->is_inited)), CMM_ERR_NOT_INIT);
 1034              		.loc 1 134 5 discriminator 1 view .LVU276
 1035 004a 164B     		ldr	r3, .L112+4
 1036 004c 1B78     		ldrb	r3, [r3]	@ zero_extendqisi2
 1037 004e 012B     		cmp	r3, #1
 1038 0050 01D8     		bhi	.L109
 1039              	.LVL107:
 1040              	.L98:
 134:../switch_sdk/core/yt/yt_l2.c ****     CMM_PARAM_CHK((!(YT_DISPATCH(unit)->is_inited)), CMM_ERR_NOT_INIT);
 1041              		.loc 1 134 5 discriminator 5 view .LVU277
 134:../switch_sdk/core/yt/yt_l2.c ****     CMM_PARAM_CHK((!(YT_DISPATCH(unit)->is_inited)), CMM_ERR_NOT_INIT);
 1042              		.loc 1 134 5 discriminator 5 view .LVU278
 134:../switch_sdk/core/yt/yt_l2.c ****     CMM_PARAM_CHK((!(YT_DISPATCH(unit)->is_inited)), CMM_ERR_NOT_INIT);
 1043              		.loc 1 134 5 discriminator 5 view .LVU279
 1044 0052 0420     		movs	r0, #4
 1045 0054 E9E7     		b	.L93
 1046              	.LVL108:
 1047              	.L109:
 134:../switch_sdk/core/yt/yt_l2.c ****     CMM_PARAM_CHK((!(YT_DISPATCH(unit)->is_inited)), CMM_ERR_NOT_INIT);
 1048              		.loc 1 134 5 discriminator 3 view .LVU280
 1049              	.LBB21:
 134:../switch_sdk/core/yt/yt_l2.c ****     CMM_PARAM_CHK((!(YT_DISPATCH(unit)->is_inited)), CMM_ERR_NOT_INIT);
 1050              		.loc 1 134 5 discriminator 3 view .LVU281
 1051 0056 144B     		ldr	r3, .L112+8
 1052 0058 1A69     		ldr	r2, [r3, #16]
 1053 005a 144B     		ldr	r3, .L112+12
 1054 005c 9968     		ldr	r1, [r3, #8]
 1055              	.LVL109:
 134:../switch_sdk/core/yt/yt_l2.c ****     CMM_PARAM_CHK((!(YT_DISPATCH(unit)->is_inited)), CMM_ERR_NOT_INIT);
 1056              		.loc 1 134 5 is_stmt 0 discriminator 3 view .LVU282
 1057 005e 1448     		ldr	r0, .L112+16
 1058              	.LVL110:
 134:../switch_sdk/core/yt/yt_l2.c ****     CMM_PARAM_CHK((!(YT_DISPATCH(unit)->is_inited)), CMM_ERR_NOT_INIT);
 1059              		.loc 1 134 5 discriminator 3 view .LVU283
 1060 0060 FFF7FEFF 		bl	osal_printf
 1061              	.LVL111:
 1062 0064 F5E7     		b	.L98
 1063              	.LVL112:
 1064              	.L106:
 134:../switch_sdk/core/yt/yt_l2.c ****     CMM_PARAM_CHK((!(YT_DISPATCH(unit)->is_inited)), CMM_ERR_NOT_INIT);
 1065              		.loc 1 134 5 discriminator 3 view .LVU284
 1066              	.LBE21:
 135:../switch_sdk/core/yt/yt_l2.c ****     CMM_PARAM_CHK((YT_VLAN_ID_MAX < vid), CMM_ERR_EXCEED_RANGE);
 1067              		.loc 1 135 5 is_stmt 1 discriminator 1 view .LVU285
 135:../switch_sdk/core/yt/yt_l2.c ****     CMM_PARAM_CHK((YT_VLAN_ID_MAX < vid), CMM_ERR_EXCEED_RANGE);
 1068              		.loc 1 135 5 discriminator 1 view .LVU286
 1069 0066 0F4B     		ldr	r3, .L112+4
 1070 0068 1B78     		ldrb	r3, [r3]	@ zero_extendqisi2
 1071 006a 012B     		cmp	r3, #1
 1072 006c 01D8     		bhi	.L110
 1073              	.LVL113:
 1074              	.L100:
 135:../switch_sdk/core/yt/yt_l2.c ****     CMM_PARAM_CHK((YT_VLAN_ID_MAX < vid), CMM_ERR_EXCEED_RANGE);
 1075              		.loc 1 135 5 discriminator 5 view .LVU287
 135:../switch_sdk/core/yt/yt_l2.c ****     CMM_PARAM_CHK((YT_VLAN_ID_MAX < vid), CMM_ERR_EXCEED_RANGE);
 1076              		.loc 1 135 5 discriminator 5 view .LVU288
 135:../switch_sdk/core/yt/yt_l2.c ****     CMM_PARAM_CHK((YT_VLAN_ID_MAX < vid), CMM_ERR_EXCEED_RANGE);
 1077              		.loc 1 135 5 discriminator 5 view .LVU289
 1078 006e 0420     		movs	r0, #4
 1079 0070 DBE7     		b	.L93
 1080              	.LVL114:
 1081              	.L110:
 135:../switch_sdk/core/yt/yt_l2.c ****     CMM_PARAM_CHK((YT_VLAN_ID_MAX < vid), CMM_ERR_EXCEED_RANGE);
 1082              		.loc 1 135 5 discriminator 3 view .LVU290
 1083              	.LBB22:
 135:../switch_sdk/core/yt/yt_l2.c ****     CMM_PARAM_CHK((YT_VLAN_ID_MAX < vid), CMM_ERR_EXCEED_RANGE);
 1084              		.loc 1 135 5 discriminator 3 view .LVU291
 1085 0072 0D4B     		ldr	r3, .L112+8
 1086 0074 1A69     		ldr	r2, [r3, #16]
 1087 0076 0D4B     		ldr	r3, .L112+12
 1088 0078 9968     		ldr	r1, [r3, #8]
 1089              	.LVL115:
 135:../switch_sdk/core/yt/yt_l2.c ****     CMM_PARAM_CHK((YT_VLAN_ID_MAX < vid), CMM_ERR_EXCEED_RANGE);
 1090              		.loc 1 135 5 is_stmt 0 discriminator 3 view .LVU292
 1091 007a 0D48     		ldr	r0, .L112+16
 1092              	.LVL116:
 135:../switch_sdk/core/yt/yt_l2.c ****     CMM_PARAM_CHK((YT_VLAN_ID_MAX < vid), CMM_ERR_EXCEED_RANGE);
 1093              		.loc 1 135 5 discriminator 3 view .LVU293
 1094 007c FFF7FEFF 		bl	osal_printf
 1095              	.LVL117:
 1096 0080 F5E7     		b	.L100
 1097              	.LVL118:
 1098              	.L107:
 135:../switch_sdk/core/yt/yt_l2.c ****     CMM_PARAM_CHK((YT_VLAN_ID_MAX < vid), CMM_ERR_EXCEED_RANGE);
 1099              		.loc 1 135 5 discriminator 3 view .LVU294
 1100              	.LBE22:
 136:../switch_sdk/core/yt/yt_l2.c **** 
 1101              		.loc 1 136 5 is_stmt 1 discriminator 1 view .LVU295
 136:../switch_sdk/core/yt/yt_l2.c **** 
 1102              		.loc 1 136 5 discriminator 1 view .LVU296
 1103 0082 084B     		ldr	r3, .L112+4
 1104 0084 1B78     		ldrb	r3, [r3]	@ zero_extendqisi2
 1105 0086 012B     		cmp	r3, #1
 1106 0088 01D8     		bhi	.L111
 1107              	.LVL119:
 1108              	.L102:
 136:../switch_sdk/core/yt/yt_l2.c **** 
 1109              		.loc 1 136 5 discriminator 5 view .LVU297
 136:../switch_sdk/core/yt/yt_l2.c **** 
 1110              		.loc 1 136 5 discriminator 5 view .LVU298
 136:../switch_sdk/core/yt/yt_l2.c **** 
 1111              		.loc 1 136 5 discriminator 5 view .LVU299
 1112 008a 1120     		movs	r0, #17
 1113 008c CDE7     		b	.L93
 1114              	.LVL120:
 1115              	.L111:
 136:../switch_sdk/core/yt/yt_l2.c **** 
 1116              		.loc 1 136 5 discriminator 3 view .LVU300
 1117              	.LBB23:
 136:../switch_sdk/core/yt/yt_l2.c **** 
 1118              		.loc 1 136 5 discriminator 3 view .LVU301
 1119 008e 064B     		ldr	r3, .L112+8
 1120 0090 5A6C     		ldr	r2, [r3, #68]
 1121 0092 064B     		ldr	r3, .L112+12
 1122 0094 9968     		ldr	r1, [r3, #8]
 1123              	.LVL121:
 136:../switch_sdk/core/yt/yt_l2.c **** 
 1124              		.loc 1 136 5 is_stmt 0 discriminator 3 view .LVU302
 1125 0096 0648     		ldr	r0, .L112+16
 1126              	.LVL122:
 136:../switch_sdk/core/yt/yt_l2.c **** 
 1127              		.loc 1 136 5 discriminator 3 view .LVU303
 1128 0098 FFF7FEFF 		bl	osal_printf
 1129              	.LVL123:
 1130 009c F5E7     		b	.L102
 1131              	.L113:
 1132 009e 00BF     		.align	2
 1133              	.L112:
 1134 00a0 00000000 		.word	gpfal_dispatch
 1135 00a4 00000000 		.word	yt_debug_level
 1136 00a8 00000000 		.word	_yt_errmsg
 1137 00ac 00000000 		.word	_yt_prompt_msg
 1138 00b0 00000000 		.word	.LC0
 1139              	.LBE23:
 1140              		.cfi_endproc
 1141              	.LFE7:
 1143              		.section	.text.yt_l2_mcast_addr_del,"ax",%progbits
 1144              		.align	1
 1145              		.global	yt_l2_mcast_addr_del
 1146              		.syntax unified
 1147              		.thumb
 1148              		.thumb_func
 1150              	yt_l2_mcast_addr_del:
 1151              	.LVL124:
 1152              	.LFB8:
 140:../switch_sdk/core/yt/yt_l2.c **** 
 141:../switch_sdk/core/yt/yt_l2.c **** /**
 142:../switch_sdk/core/yt/yt_l2.c ****  * @internal      yt_l2_mcast_addr_del
 143:../switch_sdk/core/yt/yt_l2.c ****  * @endinternal
 144:../switch_sdk/core/yt/yt_l2.c ****  *
 145:../switch_sdk/core/yt/yt_l2.c ****  * @brief         Description
 146:../switch_sdk/core/yt/yt_l2.c ****  * @note          APPLICABLE DEVICES  -Tiger
 147:../switch_sdk/core/yt/yt_l2.c ****  * @param[in]     unit                -unit id
 148:../switch_sdk/core/yt/yt_l2.c ****  * @param[in]     vid                 -vlan id
 149:../switch_sdk/core/yt/yt_l2.c ****  * @param[in]     mac_addr            -yt_types.h
 150:../switch_sdk/core/yt/yt_l2.c ****  * @retval        CMM_ERR_OK          -on success
 151:../switch_sdk/core/yt/yt_l2.c ****  * @retval        CMM_ERR_FAIL        -on fail
 152:../switch_sdk/core/yt/yt_l2.c ****  */
 153:../switch_sdk/core/yt/yt_l2.c **** yt_ret_t  yt_l2_mcast_addr_del(yt_unit_t unit, yt_vlan_t vid, yt_mac_addr_t mac_addr)
 154:../switch_sdk/core/yt/yt_l2.c **** {
 1153              		.loc 1 154 1 is_stmt 1 view -0
 1154              		.cfi_startproc
 1155              		@ args = 0, pretend = 0, frame = 8
 1156              		@ frame_needed = 0, uses_anonymous_args = 0
 1157              		.loc 1 154 1 is_stmt 0 view .LVU305
 1158 0000 10B5     		push	{r4, lr}
 1159              		.cfi_def_cfa_offset 8
 1160              		.cfi_offset 4, -8
 1161              		.cfi_offset 14, -4
 1162 0002 82B0     		sub	sp, sp, #8
 1163              		.cfi_def_cfa_offset 16
 1164 0004 02AC     		add	r4, sp, #8
 1165 0006 04E90C00 		stmdb	r4, {r2, r3}
 155:../switch_sdk/core/yt/yt_l2.c ****     CMM_PARAM_CHK((YT_UNIT_NUM <= unit), CMM_ERR_INPUT);
 1166              		.loc 1 155 5 is_stmt 1 view .LVU306
 1167              		.loc 1 155 5 view .LVU307
 1168 000a 80B9     		cbnz	r0, .L125
 1169              		.loc 1 155 5 discriminator 2 view .LVU308
 156:../switch_sdk/core/yt/yt_l2.c ****     CMM_PARAM_CHK(NULL == YT_DISPATCH(unit), CMM_ERR_NOT_INIT);
 1170              		.loc 1 156 5 discriminator 2 view .LVU309
 1171              		.loc 1 156 5 discriminator 2 view .LVU310
 1172 000c 244B     		ldr	r3, .L133
 1173 000e 53F82030 		ldr	r3, [r3, r0, lsl #2]
 1174 0012 D3B1     		cbz	r3, .L126
 1175              		.loc 1 156 5 discriminator 2 view .LVU311
 157:../switch_sdk/core/yt/yt_l2.c ****     CMM_PARAM_CHK((!(YT_DISPATCH(unit)->is_inited)), CMM_ERR_NOT_INIT);
 1176              		.loc 1 157 5 discriminator 2 view .LVU312
 1177              		.loc 1 157 5 discriminator 2 view .LVU313
 1178 0014 1A78     		ldrb	r2, [r3]	@ zero_extendqisi2
 1179 0016 32B3     		cbz	r2, .L127
 1180              		.loc 1 157 5 discriminator 2 view .LVU314
 158:../switch_sdk/core/yt/yt_l2.c ****     CMM_PARAM_CHK((YT_VLAN_ID_MAX < vid), CMM_ERR_EXCEED_RANGE);
 1181              		.loc 1 158 5 discriminator 2 view .LVU315
 1182              		.loc 1 158 5 discriminator 2 view .LVU316
 1183 0018 B1F5805F 		cmp	r1, #4096
 1184 001c 31D2     		bcs	.L128
 1185              		.loc 1 158 5 discriminator 2 view .LVU317
 159:../switch_sdk/core/yt/yt_l2.c **** 
 160:../switch_sdk/core/yt/yt_l2.c ****     return YT_DISPATCH(unit)->l2_mcast_addr_del(unit, vid, mac_addr);
 1186              		.loc 1 160 5 discriminator 2 view .LVU318
 1187              		.loc 1 160 29 is_stmt 0 discriminator 2 view .LVU319
 1188 001e D3F85043 		ldr	r4, [r3, #848]
 1189              		.loc 1 160 12 discriminator 2 view .LVU320
 1190 0022 02AB     		add	r3, sp, #8
 1191 0024 13E90C00 		ldmdb	r3, {r2, r3}
 1192 0028 A047     		blx	r4
 1193              	.LVL125:
 1194              	.L114:
 161:../switch_sdk/core/yt/yt_l2.c **** }
 1195              		.loc 1 161 1 view .LVU321
 1196 002a 02B0     		add	sp, sp, #8
 1197              		.cfi_remember_state
 1198              		.cfi_def_cfa_offset 8
 1199              		@ sp needed
 1200 002c 10BD     		pop	{r4, pc}
 1201              	.LVL126:
 1202              	.L125:
 1203              		.cfi_restore_state
 155:../switch_sdk/core/yt/yt_l2.c ****     CMM_PARAM_CHK(NULL == YT_DISPATCH(unit), CMM_ERR_NOT_INIT);
 1204              		.loc 1 155 5 is_stmt 1 discriminator 1 view .LVU322
 155:../switch_sdk/core/yt/yt_l2.c ****     CMM_PARAM_CHK(NULL == YT_DISPATCH(unit), CMM_ERR_NOT_INIT);
 1205              		.loc 1 155 5 discriminator 1 view .LVU323
 1206 002e 1D4B     		ldr	r3, .L133+4
 1207 0030 1B78     		ldrb	r3, [r3]	@ zero_extendqisi2
 1208 0032 012B     		cmp	r3, #1
 1209 0034 01D8     		bhi	.L129
 1210              	.LVL127:
 1211              	.L116:
 155:../switch_sdk/core/yt/yt_l2.c ****     CMM_PARAM_CHK(NULL == YT_DISPATCH(unit), CMM_ERR_NOT_INIT);
 1212              		.loc 1 155 5 discriminator 5 view .LVU324
 155:../switch_sdk/core/yt/yt_l2.c ****     CMM_PARAM_CHK(NULL == YT_DISPATCH(unit), CMM_ERR_NOT_INIT);
 1213              		.loc 1 155 5 discriminator 5 view .LVU325
 155:../switch_sdk/core/yt/yt_l2.c ****     CMM_PARAM_CHK(NULL == YT_DISPATCH(unit), CMM_ERR_NOT_INIT);
 1214              		.loc 1 155 5 discriminator 5 view .LVU326
 1215 0036 0520     		movs	r0, #5
 1216 0038 F7E7     		b	.L114
 1217              	.LVL128:
 1218              	.L129:
 155:../switch_sdk/core/yt/yt_l2.c ****     CMM_PARAM_CHK(NULL == YT_DISPATCH(unit), CMM_ERR_NOT_INIT);
 1219              		.loc 1 155 5 discriminator 3 view .LVU327
 1220              	.LBB24:
 155:../switch_sdk/core/yt/yt_l2.c ****     CMM_PARAM_CHK(NULL == YT_DISPATCH(unit), CMM_ERR_NOT_INIT);
 1221              		.loc 1 155 5 discriminator 3 view .LVU328
 1222 003a 1B4B     		ldr	r3, .L133+8
 1223 003c 5A69     		ldr	r2, [r3, #20]
 1224 003e 1B4B     		ldr	r3, .L133+12
 1225 0040 9968     		ldr	r1, [r3, #8]
 1226              	.LVL129:
 155:../switch_sdk/core/yt/yt_l2.c ****     CMM_PARAM_CHK(NULL == YT_DISPATCH(unit), CMM_ERR_NOT_INIT);
 1227              		.loc 1 155 5 is_stmt 0 discriminator 3 view .LVU329
 1228 0042 1B48     		ldr	r0, .L133+16
 1229              	.LVL130:
 155:../switch_sdk/core/yt/yt_l2.c ****     CMM_PARAM_CHK(NULL == YT_DISPATCH(unit), CMM_ERR_NOT_INIT);
 1230              		.loc 1 155 5 discriminator 3 view .LVU330
 1231 0044 FFF7FEFF 		bl	osal_printf
 1232              	.LVL131:
 1233 0048 F5E7     		b	.L116
 1234              	.LVL132:
 1235              	.L126:
 155:../switch_sdk/core/yt/yt_l2.c ****     CMM_PARAM_CHK(NULL == YT_DISPATCH(unit), CMM_ERR_NOT_INIT);
 1236              		.loc 1 155 5 discriminator 3 view .LVU331
 1237              	.LBE24:
 156:../switch_sdk/core/yt/yt_l2.c ****     CMM_PARAM_CHK((!(YT_DISPATCH(unit)->is_inited)), CMM_ERR_NOT_INIT);
 1238              		.loc 1 156 5 is_stmt 1 discriminator 1 view .LVU332
 156:../switch_sdk/core/yt/yt_l2.c ****     CMM_PARAM_CHK((!(YT_DISPATCH(unit)->is_inited)), CMM_ERR_NOT_INIT);
 1239              		.loc 1 156 5 discriminator 1 view .LVU333
 1240 004a 164B     		ldr	r3, .L133+4
 1241 004c 1B78     		ldrb	r3, [r3]	@ zero_extendqisi2
 1242 004e 012B     		cmp	r3, #1
 1243 0050 01D8     		bhi	.L130
 1244              	.LVL133:
 1245              	.L119:
 156:../switch_sdk/core/yt/yt_l2.c ****     CMM_PARAM_CHK((!(YT_DISPATCH(unit)->is_inited)), CMM_ERR_NOT_INIT);
 1246              		.loc 1 156 5 discriminator 5 view .LVU334
 156:../switch_sdk/core/yt/yt_l2.c ****     CMM_PARAM_CHK((!(YT_DISPATCH(unit)->is_inited)), CMM_ERR_NOT_INIT);
 1247              		.loc 1 156 5 discriminator 5 view .LVU335
 156:../switch_sdk/core/yt/yt_l2.c ****     CMM_PARAM_CHK((!(YT_DISPATCH(unit)->is_inited)), CMM_ERR_NOT_INIT);
 1248              		.loc 1 156 5 discriminator 5 view .LVU336
 1249 0052 0420     		movs	r0, #4
 1250 0054 E9E7     		b	.L114
 1251              	.LVL134:
 1252              	.L130:
 156:../switch_sdk/core/yt/yt_l2.c ****     CMM_PARAM_CHK((!(YT_DISPATCH(unit)->is_inited)), CMM_ERR_NOT_INIT);
 1253              		.loc 1 156 5 discriminator 3 view .LVU337
 1254              	.LBB25:
 156:../switch_sdk/core/yt/yt_l2.c ****     CMM_PARAM_CHK((!(YT_DISPATCH(unit)->is_inited)), CMM_ERR_NOT_INIT);
 1255              		.loc 1 156 5 discriminator 3 view .LVU338
 1256 0056 144B     		ldr	r3, .L133+8
 1257 0058 1A69     		ldr	r2, [r3, #16]
 1258 005a 144B     		ldr	r3, .L133+12
 1259 005c 9968     		ldr	r1, [r3, #8]
 1260              	.LVL135:
 156:../switch_sdk/core/yt/yt_l2.c ****     CMM_PARAM_CHK((!(YT_DISPATCH(unit)->is_inited)), CMM_ERR_NOT_INIT);
 1261              		.loc 1 156 5 is_stmt 0 discriminator 3 view .LVU339
 1262 005e 1448     		ldr	r0, .L133+16
 1263              	.LVL136:
 156:../switch_sdk/core/yt/yt_l2.c ****     CMM_PARAM_CHK((!(YT_DISPATCH(unit)->is_inited)), CMM_ERR_NOT_INIT);
 1264              		.loc 1 156 5 discriminator 3 view .LVU340
 1265 0060 FFF7FEFF 		bl	osal_printf
 1266              	.LVL137:
 1267 0064 F5E7     		b	.L119
 1268              	.LVL138:
 1269              	.L127:
 156:../switch_sdk/core/yt/yt_l2.c ****     CMM_PARAM_CHK((!(YT_DISPATCH(unit)->is_inited)), CMM_ERR_NOT_INIT);
 1270              		.loc 1 156 5 discriminator 3 view .LVU341
 1271              	.LBE25:
 157:../switch_sdk/core/yt/yt_l2.c ****     CMM_PARAM_CHK((YT_VLAN_ID_MAX < vid), CMM_ERR_EXCEED_RANGE);
 1272              		.loc 1 157 5 is_stmt 1 discriminator 1 view .LVU342
 157:../switch_sdk/core/yt/yt_l2.c ****     CMM_PARAM_CHK((YT_VLAN_ID_MAX < vid), CMM_ERR_EXCEED_RANGE);
 1273              		.loc 1 157 5 discriminator 1 view .LVU343
 1274 0066 0F4B     		ldr	r3, .L133+4
 1275 0068 1B78     		ldrb	r3, [r3]	@ zero_extendqisi2
 1276 006a 012B     		cmp	r3, #1
 1277 006c 01D8     		bhi	.L131
 1278              	.LVL139:
 1279              	.L121:
 157:../switch_sdk/core/yt/yt_l2.c ****     CMM_PARAM_CHK((YT_VLAN_ID_MAX < vid), CMM_ERR_EXCEED_RANGE);
 1280              		.loc 1 157 5 discriminator 5 view .LVU344
 157:../switch_sdk/core/yt/yt_l2.c ****     CMM_PARAM_CHK((YT_VLAN_ID_MAX < vid), CMM_ERR_EXCEED_RANGE);
 1281              		.loc 1 157 5 discriminator 5 view .LVU345
 157:../switch_sdk/core/yt/yt_l2.c ****     CMM_PARAM_CHK((YT_VLAN_ID_MAX < vid), CMM_ERR_EXCEED_RANGE);
 1282              		.loc 1 157 5 discriminator 5 view .LVU346
 1283 006e 0420     		movs	r0, #4
 1284 0070 DBE7     		b	.L114
 1285              	.LVL140:
 1286              	.L131:
 157:../switch_sdk/core/yt/yt_l2.c ****     CMM_PARAM_CHK((YT_VLAN_ID_MAX < vid), CMM_ERR_EXCEED_RANGE);
 1287              		.loc 1 157 5 discriminator 3 view .LVU347
 1288              	.LBB26:
 157:../switch_sdk/core/yt/yt_l2.c ****     CMM_PARAM_CHK((YT_VLAN_ID_MAX < vid), CMM_ERR_EXCEED_RANGE);
 1289              		.loc 1 157 5 discriminator 3 view .LVU348
 1290 0072 0D4B     		ldr	r3, .L133+8
 1291 0074 1A69     		ldr	r2, [r3, #16]
 1292 0076 0D4B     		ldr	r3, .L133+12
 1293 0078 9968     		ldr	r1, [r3, #8]
 1294              	.LVL141:
 157:../switch_sdk/core/yt/yt_l2.c ****     CMM_PARAM_CHK((YT_VLAN_ID_MAX < vid), CMM_ERR_EXCEED_RANGE);
 1295              		.loc 1 157 5 is_stmt 0 discriminator 3 view .LVU349
 1296 007a 0D48     		ldr	r0, .L133+16
 1297              	.LVL142:
 157:../switch_sdk/core/yt/yt_l2.c ****     CMM_PARAM_CHK((YT_VLAN_ID_MAX < vid), CMM_ERR_EXCEED_RANGE);
 1298              		.loc 1 157 5 discriminator 3 view .LVU350
 1299 007c FFF7FEFF 		bl	osal_printf
 1300              	.LVL143:
 1301 0080 F5E7     		b	.L121
 1302              	.LVL144:
 1303              	.L128:
 157:../switch_sdk/core/yt/yt_l2.c ****     CMM_PARAM_CHK((YT_VLAN_ID_MAX < vid), CMM_ERR_EXCEED_RANGE);
 1304              		.loc 1 157 5 discriminator 3 view .LVU351
 1305              	.LBE26:
 158:../switch_sdk/core/yt/yt_l2.c **** 
 1306              		.loc 1 158 5 is_stmt 1 discriminator 1 view .LVU352
 158:../switch_sdk/core/yt/yt_l2.c **** 
 1307              		.loc 1 158 5 discriminator 1 view .LVU353
 1308 0082 084B     		ldr	r3, .L133+4
 1309 0084 1B78     		ldrb	r3, [r3]	@ zero_extendqisi2
 1310 0086 012B     		cmp	r3, #1
 1311 0088 01D8     		bhi	.L132
 1312              	.LVL145:
 1313              	.L123:
 158:../switch_sdk/core/yt/yt_l2.c **** 
 1314              		.loc 1 158 5 discriminator 5 view .LVU354
 158:../switch_sdk/core/yt/yt_l2.c **** 
 1315              		.loc 1 158 5 discriminator 5 view .LVU355
 158:../switch_sdk/core/yt/yt_l2.c **** 
 1316              		.loc 1 158 5 discriminator 5 view .LVU356
 1317 008a 1120     		movs	r0, #17
 1318 008c CDE7     		b	.L114
 1319              	.LVL146:
 1320              	.L132:
 158:../switch_sdk/core/yt/yt_l2.c **** 
 1321              		.loc 1 158 5 discriminator 3 view .LVU357
 1322              	.LBB27:
 158:../switch_sdk/core/yt/yt_l2.c **** 
 1323              		.loc 1 158 5 discriminator 3 view .LVU358
 1324 008e 064B     		ldr	r3, .L133+8
 1325 0090 5A6C     		ldr	r2, [r3, #68]
 1326 0092 064B     		ldr	r3, .L133+12
 1327 0094 9968     		ldr	r1, [r3, #8]
 1328              	.LVL147:
 158:../switch_sdk/core/yt/yt_l2.c **** 
 1329              		.loc 1 158 5 is_stmt 0 discriminator 3 view .LVU359
 1330 0096 0648     		ldr	r0, .L133+16
 1331              	.LVL148:
 158:../switch_sdk/core/yt/yt_l2.c **** 
 1332              		.loc 1 158 5 discriminator 3 view .LVU360
 1333 0098 FFF7FEFF 		bl	osal_printf
 1334              	.LVL149:
 1335 009c F5E7     		b	.L123
 1336              	.L134:
 1337 009e 00BF     		.align	2
 1338              	.L133:
 1339 00a0 00000000 		.word	gpfal_dispatch
 1340 00a4 00000000 		.word	yt_debug_level
 1341 00a8 00000000 		.word	_yt_errmsg
 1342 00ac 00000000 		.word	_yt_prompt_msg
 1343 00b0 00000000 		.word	.LC0
 1344              	.LBE27:
 1345              		.cfi_endproc
 1346              	.LFE8:
 1348              		.section	.text.yt_l2_fdb_linkdownFlush_en_set,"ax",%progbits
 1349              		.align	1
 1350              		.global	yt_l2_fdb_linkdownFlush_en_set
 1351              		.syntax unified
 1352              		.thumb
 1353              		.thumb_func
 1355              	yt_l2_fdb_linkdownFlush_en_set:
 1356              	.LVL150:
 1357              	.LFB9:
 162:../switch_sdk/core/yt/yt_l2.c **** 
 163:../switch_sdk/core/yt/yt_l2.c **** /**
 164:../switch_sdk/core/yt/yt_l2.c ****  * @internal      yt_l2_fdb_linkdownFlush_en_set
 165:../switch_sdk/core/yt/yt_l2.c ****  * @endinternal
 166:../switch_sdk/core/yt/yt_l2.c ****  *
 167:../switch_sdk/core/yt/yt_l2.c ****  * @brief         Description
 168:../switch_sdk/core/yt/yt_l2.c ****  * @note          APPLICABLE DEVICES  -Tiger
 169:../switch_sdk/core/yt/yt_l2.c ****  * @param[in]     unit                -unit id
 170:../switch_sdk/core/yt/yt_l2.c ****  * @param[in]     enable              -enable or disable
 171:../switch_sdk/core/yt/yt_l2.c ****  * @retval        CMM_ERR_OK          -on success
 172:../switch_sdk/core/yt/yt_l2.c ****  * @retval        CMM_ERR_FAIL        -on fail
 173:../switch_sdk/core/yt/yt_l2.c ****  */
 174:../switch_sdk/core/yt/yt_l2.c **** yt_ret_t  yt_l2_fdb_linkdownFlush_en_set(yt_unit_t unit, yt_enable_t enable)
 175:../switch_sdk/core/yt/yt_l2.c **** {
 1358              		.loc 1 175 1 is_stmt 1 view -0
 1359              		.cfi_startproc
 1360              		@ args = 0, pretend = 0, frame = 0
 1361              		@ frame_needed = 0, uses_anonymous_args = 0
 1362              		.loc 1 175 1 is_stmt 0 view .LVU362
 1363 0000 08B5     		push	{r3, lr}
 1364              		.cfi_def_cfa_offset 8
 1365              		.cfi_offset 3, -8
 1366              		.cfi_offset 14, -4
 176:../switch_sdk/core/yt/yt_l2.c ****     CMM_PARAM_CHK((YT_UNIT_NUM <= unit), CMM_ERR_INPUT);
 1367              		.loc 1 176 5 is_stmt 1 view .LVU363
 1368              		.loc 1 176 5 view .LVU364
 1369 0002 68B9     		cbnz	r0, .L146
 1370 0004 0246     		mov	r2, r0
 1371              		.loc 1 176 5 discriminator 2 view .LVU365
 177:../switch_sdk/core/yt/yt_l2.c ****     CMM_PARAM_CHK(NULL == YT_DISPATCH(unit), CMM_ERR_NOT_INIT);
 1372              		.loc 1 177 5 discriminator 2 view .LVU366
 1373              		.loc 1 177 5 discriminator 2 view .LVU367
 1374 0006 224B     		ldr	r3, .L154
 1375 0008 53F82030 		ldr	r3, [r3, r0, lsl #2]
 1376 000c B3B1     		cbz	r3, .L147
 1377              		.loc 1 177 5 discriminator 2 view .LVU368
 178:../switch_sdk/core/yt/yt_l2.c ****     CMM_PARAM_CHK((!(YT_DISPATCH(unit)->is_inited)), CMM_ERR_NOT_INIT);
 1378              		.loc 1 178 5 discriminator 2 view .LVU369
 1379              		.loc 1 178 5 discriminator 2 view .LVU370
 1380 000e 1878     		ldrb	r0, [r3]	@ zero_extendqisi2
 1381              	.LVL151:
 1382              		.loc 1 178 5 is_stmt 0 discriminator 2 view .LVU371
 1383 0010 10B3     		cbz	r0, .L148
 1384              		.loc 1 178 5 is_stmt 1 discriminator 2 view .LVU372
 179:../switch_sdk/core/yt/yt_l2.c ****     CMM_PARAM_CHK((YT_ENABLE < enable || YT_DISABLE > enable), CMM_ERR_INPUT);
 1385              		.loc 1 179 5 discriminator 2 view .LVU373
 1386              		.loc 1 179 5 discriminator 2 view .LVU374
 1387 0012 0129     		cmp	r1, #1
 1388 0014 2ED8     		bhi	.L149
 1389              		.loc 1 179 5 discriminator 2 view .LVU375
 180:../switch_sdk/core/yt/yt_l2.c **** 
 181:../switch_sdk/core/yt/yt_l2.c ****     return YT_DISPATCH(unit)->l2_fdb_linkdownFlush_en_set(unit, enable);
 1390              		.loc 1 181 5 discriminator 2 view .LVU376
 1391              		.loc 1 181 29 is_stmt 0 discriminator 2 view .LVU377
 1392 0016 D3F85433 		ldr	r3, [r3, #852]
 1393              		.loc 1 181 12 discriminator 2 view .LVU378
 1394 001a 1046     		mov	r0, r2
 1395 001c 9847     		blx	r3
 1396              	.LVL152:
 1397              	.L135:
 182:../switch_sdk/core/yt/yt_l2.c **** }
 1398              		.loc 1 182 1 view .LVU379
 1399 001e 08BD     		pop	{r3, pc}
 1400              	.LVL153:
 1401              	.L146:
 176:../switch_sdk/core/yt/yt_l2.c ****     CMM_PARAM_CHK(NULL == YT_DISPATCH(unit), CMM_ERR_NOT_INIT);
 1402              		.loc 1 176 5 is_stmt 1 discriminator 1 view .LVU380
 176:../switch_sdk/core/yt/yt_l2.c ****     CMM_PARAM_CHK(NULL == YT_DISPATCH(unit), CMM_ERR_NOT_INIT);
 1403              		.loc 1 176 5 discriminator 1 view .LVU381
 1404 0020 1C4B     		ldr	r3, .L154+4
 1405 0022 1B78     		ldrb	r3, [r3]	@ zero_extendqisi2
 1406 0024 012B     		cmp	r3, #1
 1407 0026 01D8     		bhi	.L150
 1408              	.LVL154:
 1409              	.L137:
 176:../switch_sdk/core/yt/yt_l2.c ****     CMM_PARAM_CHK(NULL == YT_DISPATCH(unit), CMM_ERR_NOT_INIT);
 1410              		.loc 1 176 5 discriminator 5 view .LVU382
 176:../switch_sdk/core/yt/yt_l2.c ****     CMM_PARAM_CHK(NULL == YT_DISPATCH(unit), CMM_ERR_NOT_INIT);
 1411              		.loc 1 176 5 discriminator 5 view .LVU383
 176:../switch_sdk/core/yt/yt_l2.c ****     CMM_PARAM_CHK(NULL == YT_DISPATCH(unit), CMM_ERR_NOT_INIT);
 1412              		.loc 1 176 5 discriminator 5 view .LVU384
 1413 0028 0520     		movs	r0, #5
 1414 002a F8E7     		b	.L135
 1415              	.LVL155:
 1416              	.L150:
 176:../switch_sdk/core/yt/yt_l2.c ****     CMM_PARAM_CHK(NULL == YT_DISPATCH(unit), CMM_ERR_NOT_INIT);
 1417              		.loc 1 176 5 discriminator 3 view .LVU385
 1418              	.LBB28:
 176:../switch_sdk/core/yt/yt_l2.c ****     CMM_PARAM_CHK(NULL == YT_DISPATCH(unit), CMM_ERR_NOT_INIT);
 1419              		.loc 1 176 5 discriminator 3 view .LVU386
 1420 002c 1A4B     		ldr	r3, .L154+8
 1421 002e 5A69     		ldr	r2, [r3, #20]
 1422 0030 1A4B     		ldr	r3, .L154+12
 1423 0032 9968     		ldr	r1, [r3, #8]
 1424              	.LVL156:
 176:../switch_sdk/core/yt/yt_l2.c ****     CMM_PARAM_CHK(NULL == YT_DISPATCH(unit), CMM_ERR_NOT_INIT);
 1425              		.loc 1 176 5 is_stmt 0 discriminator 3 view .LVU387
 1426 0034 1A48     		ldr	r0, .L154+16
 1427              	.LVL157:
 176:../switch_sdk/core/yt/yt_l2.c ****     CMM_PARAM_CHK(NULL == YT_DISPATCH(unit), CMM_ERR_NOT_INIT);
 1428              		.loc 1 176 5 discriminator 3 view .LVU388
 1429 0036 FFF7FEFF 		bl	osal_printf
 1430              	.LVL158:
 1431 003a F5E7     		b	.L137
 1432              	.LVL159:
 1433              	.L147:
 176:../switch_sdk/core/yt/yt_l2.c ****     CMM_PARAM_CHK(NULL == YT_DISPATCH(unit), CMM_ERR_NOT_INIT);
 1434              		.loc 1 176 5 discriminator 3 view .LVU389
 1435              	.LBE28:
 177:../switch_sdk/core/yt/yt_l2.c ****     CMM_PARAM_CHK((!(YT_DISPATCH(unit)->is_inited)), CMM_ERR_NOT_INIT);
 1436              		.loc 1 177 5 is_stmt 1 discriminator 1 view .LVU390
 177:../switch_sdk/core/yt/yt_l2.c ****     CMM_PARAM_CHK((!(YT_DISPATCH(unit)->is_inited)), CMM_ERR_NOT_INIT);
 1437              		.loc 1 177 5 discriminator 1 view .LVU391
 1438 003c 154B     		ldr	r3, .L154+4
 1439 003e 1B78     		ldrb	r3, [r3]	@ zero_extendqisi2
 1440 0040 012B     		cmp	r3, #1
 1441 0042 01D8     		bhi	.L151
 1442              	.LVL160:
 1443              	.L140:
 177:../switch_sdk/core/yt/yt_l2.c ****     CMM_PARAM_CHK((!(YT_DISPATCH(unit)->is_inited)), CMM_ERR_NOT_INIT);
 1444              		.loc 1 177 5 discriminator 5 view .LVU392
 177:../switch_sdk/core/yt/yt_l2.c ****     CMM_PARAM_CHK((!(YT_DISPATCH(unit)->is_inited)), CMM_ERR_NOT_INIT);
 1445              		.loc 1 177 5 discriminator 5 view .LVU393
 177:../switch_sdk/core/yt/yt_l2.c ****     CMM_PARAM_CHK((!(YT_DISPATCH(unit)->is_inited)), CMM_ERR_NOT_INIT);
 1446              		.loc 1 177 5 discriminator 5 view .LVU394
 1447 0044 0420     		movs	r0, #4
 1448 0046 EAE7     		b	.L135
 1449              	.LVL161:
 1450              	.L151:
 177:../switch_sdk/core/yt/yt_l2.c ****     CMM_PARAM_CHK((!(YT_DISPATCH(unit)->is_inited)), CMM_ERR_NOT_INIT);
 1451              		.loc 1 177 5 discriminator 3 view .LVU395
 1452              	.LBB29:
 177:../switch_sdk/core/yt/yt_l2.c ****     CMM_PARAM_CHK((!(YT_DISPATCH(unit)->is_inited)), CMM_ERR_NOT_INIT);
 1453              		.loc 1 177 5 discriminator 3 view .LVU396
 1454 0048 134B     		ldr	r3, .L154+8
 1455 004a 1A69     		ldr	r2, [r3, #16]
 1456 004c 134B     		ldr	r3, .L154+12
 1457 004e 9968     		ldr	r1, [r3, #8]
 1458              	.LVL162:
 177:../switch_sdk/core/yt/yt_l2.c ****     CMM_PARAM_CHK((!(YT_DISPATCH(unit)->is_inited)), CMM_ERR_NOT_INIT);
 1459              		.loc 1 177 5 is_stmt 0 discriminator 3 view .LVU397
 1460 0050 1348     		ldr	r0, .L154+16
 1461              	.LVL163:
 177:../switch_sdk/core/yt/yt_l2.c ****     CMM_PARAM_CHK((!(YT_DISPATCH(unit)->is_inited)), CMM_ERR_NOT_INIT);
 1462              		.loc 1 177 5 discriminator 3 view .LVU398
 1463 0052 FFF7FEFF 		bl	osal_printf
 1464              	.LVL164:
 1465 0056 F5E7     		b	.L140
 1466              	.LVL165:
 1467              	.L148:
 177:../switch_sdk/core/yt/yt_l2.c ****     CMM_PARAM_CHK((!(YT_DISPATCH(unit)->is_inited)), CMM_ERR_NOT_INIT);
 1468              		.loc 1 177 5 discriminator 3 view .LVU399
 1469              	.LBE29:
 178:../switch_sdk/core/yt/yt_l2.c ****     CMM_PARAM_CHK((YT_ENABLE < enable || YT_DISABLE > enable), CMM_ERR_INPUT);
 1470              		.loc 1 178 5 is_stmt 1 discriminator 1 view .LVU400
 178:../switch_sdk/core/yt/yt_l2.c ****     CMM_PARAM_CHK((YT_ENABLE < enable || YT_DISABLE > enable), CMM_ERR_INPUT);
 1471              		.loc 1 178 5 discriminator 1 view .LVU401
 1472 0058 0E4B     		ldr	r3, .L154+4
 1473 005a 1B78     		ldrb	r3, [r3]	@ zero_extendqisi2
 1474 005c 012B     		cmp	r3, #1
 1475 005e 01D8     		bhi	.L152
 1476              	.LVL166:
 1477              	.L142:
 178:../switch_sdk/core/yt/yt_l2.c ****     CMM_PARAM_CHK((YT_ENABLE < enable || YT_DISABLE > enable), CMM_ERR_INPUT);
 1478              		.loc 1 178 5 discriminator 5 view .LVU402
 178:../switch_sdk/core/yt/yt_l2.c ****     CMM_PARAM_CHK((YT_ENABLE < enable || YT_DISABLE > enable), CMM_ERR_INPUT);
 1479              		.loc 1 178 5 discriminator 5 view .LVU403
 178:../switch_sdk/core/yt/yt_l2.c ****     CMM_PARAM_CHK((YT_ENABLE < enable || YT_DISABLE > enable), CMM_ERR_INPUT);
 1480              		.loc 1 178 5 discriminator 5 view .LVU404
 1481 0060 0420     		movs	r0, #4
 1482 0062 DCE7     		b	.L135
 1483              	.LVL167:
 1484              	.L152:
 178:../switch_sdk/core/yt/yt_l2.c ****     CMM_PARAM_CHK((YT_ENABLE < enable || YT_DISABLE > enable), CMM_ERR_INPUT);
 1485              		.loc 1 178 5 discriminator 3 view .LVU405
 1486              	.LBB30:
 178:../switch_sdk/core/yt/yt_l2.c ****     CMM_PARAM_CHK((YT_ENABLE < enable || YT_DISABLE > enable), CMM_ERR_INPUT);
 1487              		.loc 1 178 5 discriminator 3 view .LVU406
 1488 0064 0C4B     		ldr	r3, .L154+8
 1489 0066 1A69     		ldr	r2, [r3, #16]
 1490 0068 0C4B     		ldr	r3, .L154+12
 1491 006a 9968     		ldr	r1, [r3, #8]
 1492              	.LVL168:
 178:../switch_sdk/core/yt/yt_l2.c ****     CMM_PARAM_CHK((YT_ENABLE < enable || YT_DISABLE > enable), CMM_ERR_INPUT);
 1493              		.loc 1 178 5 is_stmt 0 discriminator 3 view .LVU407
 1494 006c 0C48     		ldr	r0, .L154+16
 1495 006e FFF7FEFF 		bl	osal_printf
 1496              	.LVL169:
 1497 0072 F5E7     		b	.L142
 1498              	.LVL170:
 1499              	.L149:
 178:../switch_sdk/core/yt/yt_l2.c ****     CMM_PARAM_CHK((YT_ENABLE < enable || YT_DISABLE > enable), CMM_ERR_INPUT);
 1500              		.loc 1 178 5 discriminator 3 view .LVU408
 1501              	.LBE30:
 179:../switch_sdk/core/yt/yt_l2.c **** 
 1502              		.loc 1 179 5 is_stmt 1 discriminator 1 view .LVU409
 179:../switch_sdk/core/yt/yt_l2.c **** 
 1503              		.loc 1 179 5 discriminator 1 view .LVU410
 1504 0074 074B     		ldr	r3, .L154+4
 1505 0076 1B78     		ldrb	r3, [r3]	@ zero_extendqisi2
 1506 0078 012B     		cmp	r3, #1
 1507 007a 01D8     		bhi	.L153
 1508              	.LVL171:
 1509              	.L144:
 179:../switch_sdk/core/yt/yt_l2.c **** 
 1510              		.loc 1 179 5 discriminator 5 view .LVU411
 179:../switch_sdk/core/yt/yt_l2.c **** 
 1511              		.loc 1 179 5 discriminator 5 view .LVU412
 179:../switch_sdk/core/yt/yt_l2.c **** 
 1512              		.loc 1 179 5 discriminator 5 view .LVU413
 1513 007c 0520     		movs	r0, #5
 1514 007e CEE7     		b	.L135
 1515              	.LVL172:
 1516              	.L153:
 179:../switch_sdk/core/yt/yt_l2.c **** 
 1517              		.loc 1 179 5 discriminator 3 view .LVU414
 1518              	.LBB31:
 179:../switch_sdk/core/yt/yt_l2.c **** 
 1519              		.loc 1 179 5 discriminator 3 view .LVU415
 1520 0080 054B     		ldr	r3, .L154+8
 1521 0082 5A69     		ldr	r2, [r3, #20]
 1522 0084 054B     		ldr	r3, .L154+12
 1523 0086 9968     		ldr	r1, [r3, #8]
 1524              	.LVL173:
 179:../switch_sdk/core/yt/yt_l2.c **** 
 1525              		.loc 1 179 5 is_stmt 0 discriminator 3 view .LVU416
 1526 0088 0548     		ldr	r0, .L154+16
 1527 008a FFF7FEFF 		bl	osal_printf
 1528              	.LVL174:
 1529 008e F5E7     		b	.L144
 1530              	.L155:
 1531              		.align	2
 1532              	.L154:
 1533 0090 00000000 		.word	gpfal_dispatch
 1534 0094 00000000 		.word	yt_debug_level
 1535 0098 00000000 		.word	_yt_errmsg
 1536 009c 00000000 		.word	_yt_prompt_msg
 1537 00a0 00000000 		.word	.LC0
 1538              	.LBE31:
 1539              		.cfi_endproc
 1540              	.LFE9:
 1542              		.section	.text.yt_l2_fdb_linkdownFlush_en_get,"ax",%progbits
 1543              		.align	1
 1544              		.global	yt_l2_fdb_linkdownFlush_en_get
 1545              		.syntax unified
 1546              		.thumb
 1547              		.thumb_func
 1549              	yt_l2_fdb_linkdownFlush_en_get:
 1550              	.LVL175:
 1551              	.LFB10:
 183:../switch_sdk/core/yt/yt_l2.c **** 
 184:../switch_sdk/core/yt/yt_l2.c **** /**
 185:../switch_sdk/core/yt/yt_l2.c ****  * @internal      yt_l2_fdb_linkdownFlush_en_get
 186:../switch_sdk/core/yt/yt_l2.c ****  * @endinternal
 187:../switch_sdk/core/yt/yt_l2.c ****  *
 188:../switch_sdk/core/yt/yt_l2.c ****  * @brief         Description
 189:../switch_sdk/core/yt/yt_l2.c ****  * @note          APPLICABLE DEVICES  -Tiger
 190:../switch_sdk/core/yt/yt_l2.c ****  * @param[in]     unit                -unit id
 191:../switch_sdk/core/yt/yt_l2.c ****  * @param[out]    pEnable             -enable or disable
 192:../switch_sdk/core/yt/yt_l2.c ****  * @retval        CMM_ERR_OK          -on success
 193:../switch_sdk/core/yt/yt_l2.c ****  * @retval        CMM_ERR_FAIL        -on fail
 194:../switch_sdk/core/yt/yt_l2.c ****  */
 195:../switch_sdk/core/yt/yt_l2.c **** yt_ret_t  yt_l2_fdb_linkdownFlush_en_get(yt_unit_t unit, yt_enable_t *pEnable)
 196:../switch_sdk/core/yt/yt_l2.c **** {
 1552              		.loc 1 196 1 is_stmt 1 view -0
 1553              		.cfi_startproc
 1554              		@ args = 0, pretend = 0, frame = 0
 1555              		@ frame_needed = 0, uses_anonymous_args = 0
 1556              		.loc 1 196 1 is_stmt 0 view .LVU418
 1557 0000 08B5     		push	{r3, lr}
 1558              		.cfi_def_cfa_offset 8
 1559              		.cfi_offset 3, -8
 1560              		.cfi_offset 14, -4
 197:../switch_sdk/core/yt/yt_l2.c ****     CMM_PARAM_CHK((YT_UNIT_NUM <= unit), CMM_ERR_INPUT);
 1561              		.loc 1 197 5 is_stmt 1 view .LVU419
 1562              		.loc 1 197 5 view .LVU420
 1563 0002 68B9     		cbnz	r0, .L167
 1564 0004 0246     		mov	r2, r0
 1565              		.loc 1 197 5 discriminator 2 view .LVU421
 198:../switch_sdk/core/yt/yt_l2.c ****     CMM_PARAM_CHK(NULL == YT_DISPATCH(unit), CMM_ERR_NOT_INIT);
 1566              		.loc 1 198 5 discriminator 2 view .LVU422
 1567              		.loc 1 198 5 discriminator 2 view .LVU423
 1568 0006 224B     		ldr	r3, .L175
 1569 0008 53F82030 		ldr	r3, [r3, r0, lsl #2]
 1570 000c B3B1     		cbz	r3, .L168
 1571              		.loc 1 198 5 discriminator 2 view .LVU424
 199:../switch_sdk/core/yt/yt_l2.c ****     CMM_PARAM_CHK((!(YT_DISPATCH(unit)->is_inited)), CMM_ERR_NOT_INIT);
 1572              		.loc 1 199 5 discriminator 2 view .LVU425
 1573              		.loc 1 199 5 discriminator 2 view .LVU426
 1574 000e 1878     		ldrb	r0, [r3]	@ zero_extendqisi2
 1575              	.LVL176:
 1576              		.loc 1 199 5 is_stmt 0 discriminator 2 view .LVU427
 1577 0010 10B3     		cbz	r0, .L169
 1578              		.loc 1 199 5 is_stmt 1 discriminator 2 view .LVU428
 200:../switch_sdk/core/yt/yt_l2.c ****     CMM_PARAM_CHK((NULL == pEnable), CMM_ERR_NULL_POINT);
 1579              		.loc 1 200 5 discriminator 2 view .LVU429
 1580              		.loc 1 200 5 discriminator 2 view .LVU430
 1581 0012 0029     		cmp	r1, #0
 1582 0014 2ED0     		beq	.L170
 1583              		.loc 1 200 5 discriminator 2 view .LVU431
 201:../switch_sdk/core/yt/yt_l2.c **** 
 202:../switch_sdk/core/yt/yt_l2.c ****     return YT_DISPATCH(unit)->l2_fdb_linkdownFlush_en_get(unit, pEnable);
 1584              		.loc 1 202 5 discriminator 2 view .LVU432
 1585              		.loc 1 202 29 is_stmt 0 discriminator 2 view .LVU433
 1586 0016 D3F85833 		ldr	r3, [r3, #856]
 1587              		.loc 1 202 12 discriminator 2 view .LVU434
 1588 001a 1046     		mov	r0, r2
 1589 001c 9847     		blx	r3
 1590              	.LVL177:
 1591              	.L156:
 203:../switch_sdk/core/yt/yt_l2.c **** }
 1592              		.loc 1 203 1 view .LVU435
 1593 001e 08BD     		pop	{r3, pc}
 1594              	.LVL178:
 1595              	.L167:
 197:../switch_sdk/core/yt/yt_l2.c ****     CMM_PARAM_CHK(NULL == YT_DISPATCH(unit), CMM_ERR_NOT_INIT);
 1596              		.loc 1 197 5 is_stmt 1 discriminator 1 view .LVU436
 197:../switch_sdk/core/yt/yt_l2.c ****     CMM_PARAM_CHK(NULL == YT_DISPATCH(unit), CMM_ERR_NOT_INIT);
 1597              		.loc 1 197 5 discriminator 1 view .LVU437
 1598 0020 1C4B     		ldr	r3, .L175+4
 1599 0022 1B78     		ldrb	r3, [r3]	@ zero_extendqisi2
 1600 0024 012B     		cmp	r3, #1
 1601 0026 01D8     		bhi	.L171
 1602              	.LVL179:
 1603              	.L158:
 197:../switch_sdk/core/yt/yt_l2.c ****     CMM_PARAM_CHK(NULL == YT_DISPATCH(unit), CMM_ERR_NOT_INIT);
 1604              		.loc 1 197 5 discriminator 5 view .LVU438
 197:../switch_sdk/core/yt/yt_l2.c ****     CMM_PARAM_CHK(NULL == YT_DISPATCH(unit), CMM_ERR_NOT_INIT);
 1605              		.loc 1 197 5 discriminator 5 view .LVU439
 197:../switch_sdk/core/yt/yt_l2.c ****     CMM_PARAM_CHK(NULL == YT_DISPATCH(unit), CMM_ERR_NOT_INIT);
 1606              		.loc 1 197 5 discriminator 5 view .LVU440
 1607 0028 0520     		movs	r0, #5
 1608 002a F8E7     		b	.L156
 1609              	.LVL180:
 1610              	.L171:
 197:../switch_sdk/core/yt/yt_l2.c ****     CMM_PARAM_CHK(NULL == YT_DISPATCH(unit), CMM_ERR_NOT_INIT);
 1611              		.loc 1 197 5 discriminator 3 view .LVU441
 1612              	.LBB32:
 197:../switch_sdk/core/yt/yt_l2.c ****     CMM_PARAM_CHK(NULL == YT_DISPATCH(unit), CMM_ERR_NOT_INIT);
 1613              		.loc 1 197 5 discriminator 3 view .LVU442
 1614 002c 1A4B     		ldr	r3, .L175+8
 1615 002e 5A69     		ldr	r2, [r3, #20]
 1616 0030 1A4B     		ldr	r3, .L175+12
 1617 0032 9968     		ldr	r1, [r3, #8]
 1618              	.LVL181:
 197:../switch_sdk/core/yt/yt_l2.c ****     CMM_PARAM_CHK(NULL == YT_DISPATCH(unit), CMM_ERR_NOT_INIT);
 1619              		.loc 1 197 5 is_stmt 0 discriminator 3 view .LVU443
 1620 0034 1A48     		ldr	r0, .L175+16
 1621              	.LVL182:
 197:../switch_sdk/core/yt/yt_l2.c ****     CMM_PARAM_CHK(NULL == YT_DISPATCH(unit), CMM_ERR_NOT_INIT);
 1622              		.loc 1 197 5 discriminator 3 view .LVU444
 1623 0036 FFF7FEFF 		bl	osal_printf
 1624              	.LVL183:
 1625 003a F5E7     		b	.L158
 1626              	.LVL184:
 1627              	.L168:
 197:../switch_sdk/core/yt/yt_l2.c ****     CMM_PARAM_CHK(NULL == YT_DISPATCH(unit), CMM_ERR_NOT_INIT);
 1628              		.loc 1 197 5 discriminator 3 view .LVU445
 1629              	.LBE32:
 198:../switch_sdk/core/yt/yt_l2.c ****     CMM_PARAM_CHK((!(YT_DISPATCH(unit)->is_inited)), CMM_ERR_NOT_INIT);
 1630              		.loc 1 198 5 is_stmt 1 discriminator 1 view .LVU446
 198:../switch_sdk/core/yt/yt_l2.c ****     CMM_PARAM_CHK((!(YT_DISPATCH(unit)->is_inited)), CMM_ERR_NOT_INIT);
 1631              		.loc 1 198 5 discriminator 1 view .LVU447
 1632 003c 154B     		ldr	r3, .L175+4
 1633 003e 1B78     		ldrb	r3, [r3]	@ zero_extendqisi2
 1634 0040 012B     		cmp	r3, #1
 1635 0042 01D8     		bhi	.L172
 1636              	.LVL185:
 1637              	.L161:
 198:../switch_sdk/core/yt/yt_l2.c ****     CMM_PARAM_CHK((!(YT_DISPATCH(unit)->is_inited)), CMM_ERR_NOT_INIT);
 1638              		.loc 1 198 5 discriminator 5 view .LVU448
 198:../switch_sdk/core/yt/yt_l2.c ****     CMM_PARAM_CHK((!(YT_DISPATCH(unit)->is_inited)), CMM_ERR_NOT_INIT);
 1639              		.loc 1 198 5 discriminator 5 view .LVU449
 198:../switch_sdk/core/yt/yt_l2.c ****     CMM_PARAM_CHK((!(YT_DISPATCH(unit)->is_inited)), CMM_ERR_NOT_INIT);
 1640              		.loc 1 198 5 discriminator 5 view .LVU450
 1641 0044 0420     		movs	r0, #4
 1642 0046 EAE7     		b	.L156
 1643              	.LVL186:
 1644              	.L172:
 198:../switch_sdk/core/yt/yt_l2.c ****     CMM_PARAM_CHK((!(YT_DISPATCH(unit)->is_inited)), CMM_ERR_NOT_INIT);
 1645              		.loc 1 198 5 discriminator 3 view .LVU451
 1646              	.LBB33:
 198:../switch_sdk/core/yt/yt_l2.c ****     CMM_PARAM_CHK((!(YT_DISPATCH(unit)->is_inited)), CMM_ERR_NOT_INIT);
 1647              		.loc 1 198 5 discriminator 3 view .LVU452
 1648 0048 134B     		ldr	r3, .L175+8
 1649 004a 1A69     		ldr	r2, [r3, #16]
 1650 004c 134B     		ldr	r3, .L175+12
 1651 004e 9968     		ldr	r1, [r3, #8]
 1652              	.LVL187:
 198:../switch_sdk/core/yt/yt_l2.c ****     CMM_PARAM_CHK((!(YT_DISPATCH(unit)->is_inited)), CMM_ERR_NOT_INIT);
 1653              		.loc 1 198 5 is_stmt 0 discriminator 3 view .LVU453
 1654 0050 1348     		ldr	r0, .L175+16
 1655              	.LVL188:
 198:../switch_sdk/core/yt/yt_l2.c ****     CMM_PARAM_CHK((!(YT_DISPATCH(unit)->is_inited)), CMM_ERR_NOT_INIT);
 1656              		.loc 1 198 5 discriminator 3 view .LVU454
 1657 0052 FFF7FEFF 		bl	osal_printf
 1658              	.LVL189:
 1659 0056 F5E7     		b	.L161
 1660              	.LVL190:
 1661              	.L169:
 198:../switch_sdk/core/yt/yt_l2.c ****     CMM_PARAM_CHK((!(YT_DISPATCH(unit)->is_inited)), CMM_ERR_NOT_INIT);
 1662              		.loc 1 198 5 discriminator 3 view .LVU455
 1663              	.LBE33:
 199:../switch_sdk/core/yt/yt_l2.c ****     CMM_PARAM_CHK((NULL == pEnable), CMM_ERR_NULL_POINT);
 1664              		.loc 1 199 5 is_stmt 1 discriminator 1 view .LVU456
 199:../switch_sdk/core/yt/yt_l2.c ****     CMM_PARAM_CHK((NULL == pEnable), CMM_ERR_NULL_POINT);
 1665              		.loc 1 199 5 discriminator 1 view .LVU457
 1666 0058 0E4B     		ldr	r3, .L175+4
 1667 005a 1B78     		ldrb	r3, [r3]	@ zero_extendqisi2
 1668 005c 012B     		cmp	r3, #1
 1669 005e 01D8     		bhi	.L173
 1670              	.LVL191:
 1671              	.L163:
 199:../switch_sdk/core/yt/yt_l2.c ****     CMM_PARAM_CHK((NULL == pEnable), CMM_ERR_NULL_POINT);
 1672              		.loc 1 199 5 discriminator 5 view .LVU458
 199:../switch_sdk/core/yt/yt_l2.c ****     CMM_PARAM_CHK((NULL == pEnable), CMM_ERR_NULL_POINT);
 1673              		.loc 1 199 5 discriminator 5 view .LVU459
 199:../switch_sdk/core/yt/yt_l2.c ****     CMM_PARAM_CHK((NULL == pEnable), CMM_ERR_NULL_POINT);
 1674              		.loc 1 199 5 discriminator 5 view .LVU460
 1675 0060 0420     		movs	r0, #4
 1676 0062 DCE7     		b	.L156
 1677              	.LVL192:
 1678              	.L173:
 199:../switch_sdk/core/yt/yt_l2.c ****     CMM_PARAM_CHK((NULL == pEnable), CMM_ERR_NULL_POINT);
 1679              		.loc 1 199 5 discriminator 3 view .LVU461
 1680              	.LBB34:
 199:../switch_sdk/core/yt/yt_l2.c ****     CMM_PARAM_CHK((NULL == pEnable), CMM_ERR_NULL_POINT);
 1681              		.loc 1 199 5 discriminator 3 view .LVU462
 1682 0064 0C4B     		ldr	r3, .L175+8
 1683 0066 1A69     		ldr	r2, [r3, #16]
 1684 0068 0C4B     		ldr	r3, .L175+12
 1685 006a 9968     		ldr	r1, [r3, #8]
 1686              	.LVL193:
 199:../switch_sdk/core/yt/yt_l2.c ****     CMM_PARAM_CHK((NULL == pEnable), CMM_ERR_NULL_POINT);
 1687              		.loc 1 199 5 is_stmt 0 discriminator 3 view .LVU463
 1688 006c 0C48     		ldr	r0, .L175+16
 1689 006e FFF7FEFF 		bl	osal_printf
 1690              	.LVL194:
 1691 0072 F5E7     		b	.L163
 1692              	.LVL195:
 1693              	.L170:
 199:../switch_sdk/core/yt/yt_l2.c ****     CMM_PARAM_CHK((NULL == pEnable), CMM_ERR_NULL_POINT);
 1694              		.loc 1 199 5 discriminator 3 view .LVU464
 1695              	.LBE34:
 200:../switch_sdk/core/yt/yt_l2.c **** 
 1696              		.loc 1 200 5 is_stmt 1 discriminator 1 view .LVU465
 200:../switch_sdk/core/yt/yt_l2.c **** 
 1697              		.loc 1 200 5 discriminator 1 view .LVU466
 1698 0074 074B     		ldr	r3, .L175+4
 1699 0076 1B78     		ldrb	r3, [r3]	@ zero_extendqisi2
 1700 0078 012B     		cmp	r3, #1
 1701 007a 01D8     		bhi	.L174
 1702              	.LVL196:
 1703              	.L165:
 200:../switch_sdk/core/yt/yt_l2.c **** 
 1704              		.loc 1 200 5 discriminator 5 view .LVU467
 200:../switch_sdk/core/yt/yt_l2.c **** 
 1705              		.loc 1 200 5 discriminator 5 view .LVU468
 200:../switch_sdk/core/yt/yt_l2.c **** 
 1706              		.loc 1 200 5 discriminator 5 view .LVU469
 1707 007c 0220     		movs	r0, #2
 1708 007e CEE7     		b	.L156
 1709              	.LVL197:
 1710              	.L174:
 200:../switch_sdk/core/yt/yt_l2.c **** 
 1711              		.loc 1 200 5 discriminator 3 view .LVU470
 1712              	.LBB35:
 200:../switch_sdk/core/yt/yt_l2.c **** 
 1713              		.loc 1 200 5 discriminator 3 view .LVU471
 1714 0080 054B     		ldr	r3, .L175+8
 1715 0082 9A68     		ldr	r2, [r3, #8]
 1716 0084 054B     		ldr	r3, .L175+12
 1717 0086 9968     		ldr	r1, [r3, #8]
 1718              	.LVL198:
 200:../switch_sdk/core/yt/yt_l2.c **** 
 1719              		.loc 1 200 5 is_stmt 0 discriminator 3 view .LVU472
 1720 0088 0548     		ldr	r0, .L175+16
 1721 008a FFF7FEFF 		bl	osal_printf
 1722              	.LVL199:
 1723 008e F5E7     		b	.L165
 1724              	.L176:
 1725              		.align	2
 1726              	.L175:
 1727 0090 00000000 		.word	gpfal_dispatch
 1728 0094 00000000 		.word	yt_debug_level
 1729 0098 00000000 		.word	_yt_errmsg
 1730 009c 00000000 		.word	_yt_prompt_msg
 1731 00a0 00000000 		.word	.LC0
 1732              	.LBE35:
 1733              		.cfi_endproc
 1734              	.LFE10:
 1736              		.section	.text.yt_l2_fdb_all_ucast_flush,"ax",%progbits
 1737              		.align	1
 1738              		.global	yt_l2_fdb_all_ucast_flush
 1739              		.syntax unified
 1740              		.thumb
 1741              		.thumb_func
 1743              	yt_l2_fdb_all_ucast_flush:
 1744              	.LVL200:
 1745              	.LFB11:
 204:../switch_sdk/core/yt/yt_l2.c **** 
 205:../switch_sdk/core/yt/yt_l2.c **** /**
 206:../switch_sdk/core/yt/yt_l2.c ****  * @internal      yt_l2_fdb_all_ucast_flush
 207:../switch_sdk/core/yt/yt_l2.c ****  * @endinternal
 208:../switch_sdk/core/yt/yt_l2.c ****  *
 209:../switch_sdk/core/yt/yt_l2.c ****  * @brief         Description
 210:../switch_sdk/core/yt/yt_l2.c ****  * @note          APPLICABLE DEVICES  -Tiger
 211:../switch_sdk/core/yt/yt_l2.c ****  * @param[in]     unit                -unit id
 212:../switch_sdk/core/yt/yt_l2.c ****  * @retval        CMM_ERR_OK          -on success
 213:../switch_sdk/core/yt/yt_l2.c ****  * @retval        CMM_ERR_FAIL        -on fail
 214:../switch_sdk/core/yt/yt_l2.c ****  */
 215:../switch_sdk/core/yt/yt_l2.c **** yt_ret_t yt_l2_fdb_all_ucast_flush(yt_unit_t unit)
 216:../switch_sdk/core/yt/yt_l2.c **** {
 1746              		.loc 1 216 1 is_stmt 1 view -0
 1747              		.cfi_startproc
 1748              		@ args = 0, pretend = 0, frame = 0
 1749              		@ frame_needed = 0, uses_anonymous_args = 0
 1750              		.loc 1 216 1 is_stmt 0 view .LVU474
 1751 0000 08B5     		push	{r3, lr}
 1752              		.cfi_def_cfa_offset 8
 1753              		.cfi_offset 3, -8
 1754              		.cfi_offset 14, -4
 217:../switch_sdk/core/yt/yt_l2.c ****     CMM_PARAM_CHK((YT_UNIT_NUM <= unit), CMM_ERR_INPUT);
 1755              		.loc 1 217 5 is_stmt 1 view .LVU475
 1756              		.loc 1 217 5 view .LVU476
 1757 0002 48B9     		cbnz	r0, .L186
 1758              		.loc 1 217 5 discriminator 2 view .LVU477
 218:../switch_sdk/core/yt/yt_l2.c ****     CMM_PARAM_CHK(NULL == YT_DISPATCH(unit), CMM_ERR_NOT_INIT);
 1759              		.loc 1 218 5 discriminator 2 view .LVU478
 1760              		.loc 1 218 5 discriminator 2 view .LVU479
 1761 0004 194B     		ldr	r3, .L192
 1762 0006 53F82030 		ldr	r3, [r3, r0, lsl #2]
 1763 000a 9BB1     		cbz	r3, .L187
 1764              		.loc 1 218 5 discriminator 2 view .LVU480
 219:../switch_sdk/core/yt/yt_l2.c ****     CMM_PARAM_CHK((!(YT_DISPATCH(unit)->is_inited)), CMM_ERR_NOT_INIT);
 1765              		.loc 1 219 5 discriminator 2 view .LVU481
 1766              		.loc 1 219 5 discriminator 2 view .LVU482
 1767 000c 1978     		ldrb	r1, [r3]	@ zero_extendqisi2
 1768 000e F9B1     		cbz	r1, .L188
 1769              		.loc 1 219 5 discriminator 2 view .LVU483
 220:../switch_sdk/core/yt/yt_l2.c **** 
 221:../switch_sdk/core/yt/yt_l2.c ****     return YT_DISPATCH(unit)->l2_fdb_all_ucast_flush(unit);
 1770              		.loc 1 221 5 discriminator 2 view .LVU484
 1771              		.loc 1 221 29 is_stmt 0 discriminator 2 view .LVU485
 1772 0010 D3F85C33 		ldr	r3, [r3, #860]
 1773              		.loc 1 221 12 discriminator 2 view .LVU486
 1774 0014 9847     		blx	r3
 1775              	.LVL201:
 1776              	.L177:
 222:../switch_sdk/core/yt/yt_l2.c **** }
 1777              		.loc 1 222 1 view .LVU487
 1778 0016 08BD     		pop	{r3, pc}
 1779              	.LVL202:
 1780              	.L186:
 217:../switch_sdk/core/yt/yt_l2.c ****     CMM_PARAM_CHK(NULL == YT_DISPATCH(unit), CMM_ERR_NOT_INIT);
 1781              		.loc 1 217 5 is_stmt 1 discriminator 1 view .LVU488
 217:../switch_sdk/core/yt/yt_l2.c ****     CMM_PARAM_CHK(NULL == YT_DISPATCH(unit), CMM_ERR_NOT_INIT);
 1782              		.loc 1 217 5 discriminator 1 view .LVU489
 1783 0018 154B     		ldr	r3, .L192+4
 1784 001a 1B78     		ldrb	r3, [r3]	@ zero_extendqisi2
 1785 001c 012B     		cmp	r3, #1
 1786 001e 01D8     		bhi	.L189
 1787              	.LVL203:
 1788              	.L179:
 217:../switch_sdk/core/yt/yt_l2.c ****     CMM_PARAM_CHK(NULL == YT_DISPATCH(unit), CMM_ERR_NOT_INIT);
 1789              		.loc 1 217 5 discriminator 5 view .LVU490
 217:../switch_sdk/core/yt/yt_l2.c ****     CMM_PARAM_CHK(NULL == YT_DISPATCH(unit), CMM_ERR_NOT_INIT);
 1790              		.loc 1 217 5 discriminator 5 view .LVU491
 217:../switch_sdk/core/yt/yt_l2.c ****     CMM_PARAM_CHK(NULL == YT_DISPATCH(unit), CMM_ERR_NOT_INIT);
 1791              		.loc 1 217 5 discriminator 5 view .LVU492
 1792 0020 0520     		movs	r0, #5
 1793 0022 F8E7     		b	.L177
 1794              	.LVL204:
 1795              	.L189:
 217:../switch_sdk/core/yt/yt_l2.c ****     CMM_PARAM_CHK(NULL == YT_DISPATCH(unit), CMM_ERR_NOT_INIT);
 1796              		.loc 1 217 5 discriminator 3 view .LVU493
 1797              	.LBB36:
 217:../switch_sdk/core/yt/yt_l2.c ****     CMM_PARAM_CHK(NULL == YT_DISPATCH(unit), CMM_ERR_NOT_INIT);
 1798              		.loc 1 217 5 discriminator 3 view .LVU494
 1799 0024 134B     		ldr	r3, .L192+8
 1800 0026 5A69     		ldr	r2, [r3, #20]
 1801 0028 134B     		ldr	r3, .L192+12
 1802 002a 9968     		ldr	r1, [r3, #8]
 1803 002c 1348     		ldr	r0, .L192+16
 1804              	.LVL205:
 217:../switch_sdk/core/yt/yt_l2.c ****     CMM_PARAM_CHK(NULL == YT_DISPATCH(unit), CMM_ERR_NOT_INIT);
 1805              		.loc 1 217 5 is_stmt 0 discriminator 3 view .LVU495
 1806 002e FFF7FEFF 		bl	osal_printf
 1807              	.LVL206:
 1808 0032 F5E7     		b	.L179
 1809              	.LVL207:
 1810              	.L187:
 217:../switch_sdk/core/yt/yt_l2.c ****     CMM_PARAM_CHK(NULL == YT_DISPATCH(unit), CMM_ERR_NOT_INIT);
 1811              		.loc 1 217 5 discriminator 3 view .LVU496
 1812              	.LBE36:
 218:../switch_sdk/core/yt/yt_l2.c ****     CMM_PARAM_CHK((!(YT_DISPATCH(unit)->is_inited)), CMM_ERR_NOT_INIT);
 1813              		.loc 1 218 5 is_stmt 1 discriminator 1 view .LVU497
 218:../switch_sdk/core/yt/yt_l2.c ****     CMM_PARAM_CHK((!(YT_DISPATCH(unit)->is_inited)), CMM_ERR_NOT_INIT);
 1814              		.loc 1 218 5 discriminator 1 view .LVU498
 1815 0034 0E4B     		ldr	r3, .L192+4
 1816 0036 1B78     		ldrb	r3, [r3]	@ zero_extendqisi2
 1817 0038 012B     		cmp	r3, #1
 1818 003a 01D8     		bhi	.L190
 1819              	.LVL208:
 1820              	.L182:
 218:../switch_sdk/core/yt/yt_l2.c ****     CMM_PARAM_CHK((!(YT_DISPATCH(unit)->is_inited)), CMM_ERR_NOT_INIT);
 1821              		.loc 1 218 5 discriminator 5 view .LVU499
 218:../switch_sdk/core/yt/yt_l2.c ****     CMM_PARAM_CHK((!(YT_DISPATCH(unit)->is_inited)), CMM_ERR_NOT_INIT);
 1822              		.loc 1 218 5 discriminator 5 view .LVU500
 218:../switch_sdk/core/yt/yt_l2.c ****     CMM_PARAM_CHK((!(YT_DISPATCH(unit)->is_inited)), CMM_ERR_NOT_INIT);
 1823              		.loc 1 218 5 discriminator 5 view .LVU501
 1824 003c 0420     		movs	r0, #4
 1825 003e EAE7     		b	.L177
 1826              	.LVL209:
 1827              	.L190:
 218:../switch_sdk/core/yt/yt_l2.c ****     CMM_PARAM_CHK((!(YT_DISPATCH(unit)->is_inited)), CMM_ERR_NOT_INIT);
 1828              		.loc 1 218 5 discriminator 3 view .LVU502
 1829              	.LBB37:
 218:../switch_sdk/core/yt/yt_l2.c ****     CMM_PARAM_CHK((!(YT_DISPATCH(unit)->is_inited)), CMM_ERR_NOT_INIT);
 1830              		.loc 1 218 5 discriminator 3 view .LVU503
 1831 0040 0C4B     		ldr	r3, .L192+8
 1832 0042 1A69     		ldr	r2, [r3, #16]
 1833 0044 0C4B     		ldr	r3, .L192+12
 1834 0046 9968     		ldr	r1, [r3, #8]
 1835 0048 0C48     		ldr	r0, .L192+16
 1836              	.LVL210:
 218:../switch_sdk/core/yt/yt_l2.c ****     CMM_PARAM_CHK((!(YT_DISPATCH(unit)->is_inited)), CMM_ERR_NOT_INIT);
 1837              		.loc 1 218 5 is_stmt 0 discriminator 3 view .LVU504
 1838 004a FFF7FEFF 		bl	osal_printf
 1839              	.LVL211:
 1840 004e F5E7     		b	.L182
 1841              	.LVL212:
 1842              	.L188:
 218:../switch_sdk/core/yt/yt_l2.c ****     CMM_PARAM_CHK((!(YT_DISPATCH(unit)->is_inited)), CMM_ERR_NOT_INIT);
 1843              		.loc 1 218 5 discriminator 3 view .LVU505
 1844              	.LBE37:
 219:../switch_sdk/core/yt/yt_l2.c **** 
 1845              		.loc 1 219 5 is_stmt 1 discriminator 1 view .LVU506
 219:../switch_sdk/core/yt/yt_l2.c **** 
 1846              		.loc 1 219 5 discriminator 1 view .LVU507
 1847 0050 074B     		ldr	r3, .L192+4
 1848 0052 1B78     		ldrb	r3, [r3]	@ zero_extendqisi2
 1849 0054 012B     		cmp	r3, #1
 1850 0056 01D8     		bhi	.L191
 1851              	.LVL213:
 1852              	.L184:
 219:../switch_sdk/core/yt/yt_l2.c **** 
 1853              		.loc 1 219 5 discriminator 5 view .LVU508
 219:../switch_sdk/core/yt/yt_l2.c **** 
 1854              		.loc 1 219 5 discriminator 5 view .LVU509
 219:../switch_sdk/core/yt/yt_l2.c **** 
 1855              		.loc 1 219 5 discriminator 5 view .LVU510
 1856 0058 0420     		movs	r0, #4
 1857 005a DCE7     		b	.L177
 1858              	.LVL214:
 1859              	.L191:
 219:../switch_sdk/core/yt/yt_l2.c **** 
 1860              		.loc 1 219 5 discriminator 3 view .LVU511
 1861              	.LBB38:
 219:../switch_sdk/core/yt/yt_l2.c **** 
 1862              		.loc 1 219 5 discriminator 3 view .LVU512
 1863 005c 054B     		ldr	r3, .L192+8
 1864 005e 1A69     		ldr	r2, [r3, #16]
 1865 0060 054B     		ldr	r3, .L192+12
 1866 0062 9968     		ldr	r1, [r3, #8]
 1867 0064 0548     		ldr	r0, .L192+16
 1868              	.LVL215:
 219:../switch_sdk/core/yt/yt_l2.c **** 
 1869              		.loc 1 219 5 is_stmt 0 discriminator 3 view .LVU513
 1870 0066 FFF7FEFF 		bl	osal_printf
 1871              	.LVL216:
 1872 006a F5E7     		b	.L184
 1873              	.L193:
 1874              		.align	2
 1875              	.L192:
 1876 006c 00000000 		.word	gpfal_dispatch
 1877 0070 00000000 		.word	yt_debug_level
 1878 0074 00000000 		.word	_yt_errmsg
 1879 0078 00000000 		.word	_yt_prompt_msg
 1880 007c 00000000 		.word	.LC0
 1881              	.LBE38:
 1882              		.cfi_endproc
 1883              	.LFE11:
 1885              		.section	.text.yt_l2_fdb_port_ucast_flush,"ax",%progbits
 1886              		.align	1
 1887              		.global	yt_l2_fdb_port_ucast_flush
 1888              		.syntax unified
 1889              		.thumb
 1890              		.thumb_func
 1892              	yt_l2_fdb_port_ucast_flush:
 1893              	.LVL217:
 1894              	.LFB12:
 223:../switch_sdk/core/yt/yt_l2.c **** 
 224:../switch_sdk/core/yt/yt_l2.c **** /**
 225:../switch_sdk/core/yt/yt_l2.c ****  * @internal      yt_l2_fdb_port_ucast_flush
 226:../switch_sdk/core/yt/yt_l2.c ****  * @endinternal
 227:../switch_sdk/core/yt/yt_l2.c ****  *
 228:../switch_sdk/core/yt/yt_l2.c ****  * @brief         Description
 229:../switch_sdk/core/yt/yt_l2.c ****  * @note          APPLICABLE DEVICES  -Tiger
 230:../switch_sdk/core/yt/yt_l2.c ****  * @param[in]     unit                -unit id
 231:../switch_sdk/core/yt/yt_l2.c ****  * @param[in]     port                -port num
 232:../switch_sdk/core/yt/yt_l2.c ****  * @retval        CMM_ERR_OK          -on success
 233:../switch_sdk/core/yt/yt_l2.c ****  * @retval        CMM_ERR_FAIL        -on fail
 234:../switch_sdk/core/yt/yt_l2.c ****  */
 235:../switch_sdk/core/yt/yt_l2.c **** yt_ret_t yt_l2_fdb_port_ucast_flush(yt_unit_t unit, yt_port_t port)
 236:../switch_sdk/core/yt/yt_l2.c **** {
 1895              		.loc 1 236 1 is_stmt 1 view -0
 1896              		.cfi_startproc
 1897              		@ args = 0, pretend = 0, frame = 0
 1898              		@ frame_needed = 0, uses_anonymous_args = 0
 1899              		.loc 1 236 1 is_stmt 0 view .LVU515
 1900 0000 08B5     		push	{r3, lr}
 1901              		.cfi_def_cfa_offset 8
 1902              		.cfi_offset 3, -8
 1903              		.cfi_offset 14, -4
 237:../switch_sdk/core/yt/yt_l2.c ****     CMM_PARAM_CHK((YT_UNIT_NUM <= unit), CMM_ERR_INPUT);
 1904              		.loc 1 237 5 is_stmt 1 view .LVU516
 1905              		.loc 1 237 5 view .LVU517
 1906 0002 A8B9     		cbnz	r0, .L206
 1907 0004 0246     		mov	r2, r0
 1908              		.loc 1 237 5 discriminator 2 view .LVU518
 238:../switch_sdk/core/yt/yt_l2.c ****     CMM_PARAM_CHK(NULL == YT_DISPATCH(unit), CMM_ERR_NOT_INIT);
 1909              		.loc 1 238 5 discriminator 2 view .LVU519
 1910              		.loc 1 238 5 discriminator 2 view .LVU520
 1911 0006 264B     		ldr	r3, .L213
 1912 0008 53F82030 		ldr	r3, [r3, r0, lsl #2]
 1913 000c F3B1     		cbz	r3, .L207
 1914              		.loc 1 238 5 discriminator 2 view .LVU521
 239:../switch_sdk/core/yt/yt_l2.c ****     CMM_PARAM_CHK((!(YT_DISPATCH(unit)->is_inited)), CMM_ERR_NOT_INIT);
 1915              		.loc 1 239 5 discriminator 2 view .LVU522
 1916              		.loc 1 239 5 discriminator 2 view .LVU523
 1917 000e 1878     		ldrb	r0, [r3]	@ zero_extendqisi2
 1918              	.LVL218:
 1919              		.loc 1 239 5 is_stmt 0 discriminator 2 view .LVU524
 1920 0010 50B3     		cbz	r0, .L208
 1921              		.loc 1 239 5 is_stmt 1 discriminator 2 view .LVU525
 240:../switch_sdk/core/yt/yt_l2.c ****     CMM_PARAM_CHK((!(CMM_PORT_VALID(unit, port))), CMM_ERR_PORT);
 1922              		.loc 1 240 5 discriminator 2 view .LVU526
 1923              		.loc 1 240 5 discriminator 2 view .LVU527
 1924 0012 2448     		ldr	r0, .L213+4
 1925 0014 0078     		ldrb	r0, [r0]	@ zero_extendqisi2
 1926 0016 0028     		cmp	r0, #0
 1927 0018 34D0     		beq	.L202
 1928 001a 2348     		ldr	r0, .L213+8
 1929 001c 50F82200 		ldr	r0, [r0, r2, lsl #2]
 1930 0020 007D     		ldrb	r0, [r0, #20]	@ zero_extendqisi2
 1931 0022 8842     		cmp	r0, r1
 1932 0024 2ED9     		bls	.L202
 1933              		.loc 1 240 5 discriminator 4 view .LVU528
 241:../switch_sdk/core/yt/yt_l2.c **** 
 242:../switch_sdk/core/yt/yt_l2.c ****     return YT_DISPATCH(unit)->l2_fdb_port_ucast_flush(unit, port);
 1934              		.loc 1 242 5 discriminator 4 view .LVU529
 1935              		.loc 1 242 29 is_stmt 0 discriminator 4 view .LVU530
 1936 0026 D3F86033 		ldr	r3, [r3, #864]
 1937              		.loc 1 242 12 discriminator 4 view .LVU531
 1938 002a 1046     		mov	r0, r2
 1939 002c 9847     		blx	r3
 1940              	.LVL219:
 1941              	.L194:
 243:../switch_sdk/core/yt/yt_l2.c **** }
 1942              		.loc 1 243 1 view .LVU532
 1943 002e 08BD     		pop	{r3, pc}
 1944              	.LVL220:
 1945              	.L206:
 237:../switch_sdk/core/yt/yt_l2.c ****     CMM_PARAM_CHK(NULL == YT_DISPATCH(unit), CMM_ERR_NOT_INIT);
 1946              		.loc 1 237 5 is_stmt 1 discriminator 1 view .LVU533
 237:../switch_sdk/core/yt/yt_l2.c ****     CMM_PARAM_CHK(NULL == YT_DISPATCH(unit), CMM_ERR_NOT_INIT);
 1947              		.loc 1 237 5 discriminator 1 view .LVU534
 1948 0030 1E4B     		ldr	r3, .L213+12
 1949 0032 1B78     		ldrb	r3, [r3]	@ zero_extendqisi2
 1950 0034 012B     		cmp	r3, #1
 1951 0036 01D8     		bhi	.L209
 1952              	.LVL221:
 1953              	.L196:
 237:../switch_sdk/core/yt/yt_l2.c ****     CMM_PARAM_CHK(NULL == YT_DISPATCH(unit), CMM_ERR_NOT_INIT);
 1954              		.loc 1 237 5 discriminator 5 view .LVU535
 237:../switch_sdk/core/yt/yt_l2.c ****     CMM_PARAM_CHK(NULL == YT_DISPATCH(unit), CMM_ERR_NOT_INIT);
 1955              		.loc 1 237 5 discriminator 5 view .LVU536
 237:../switch_sdk/core/yt/yt_l2.c ****     CMM_PARAM_CHK(NULL == YT_DISPATCH(unit), CMM_ERR_NOT_INIT);
 1956              		.loc 1 237 5 discriminator 5 view .LVU537
 1957 0038 0520     		movs	r0, #5
 1958 003a F8E7     		b	.L194
 1959              	.LVL222:
 1960              	.L209:
 237:../switch_sdk/core/yt/yt_l2.c ****     CMM_PARAM_CHK(NULL == YT_DISPATCH(unit), CMM_ERR_NOT_INIT);
 1961              		.loc 1 237 5 discriminator 3 view .LVU538
 1962              	.LBB39:
 237:../switch_sdk/core/yt/yt_l2.c ****     CMM_PARAM_CHK(NULL == YT_DISPATCH(unit), CMM_ERR_NOT_INIT);
 1963              		.loc 1 237 5 discriminator 3 view .LVU539
 1964 003c 1C4B     		ldr	r3, .L213+16
 1965 003e 5A69     		ldr	r2, [r3, #20]
 1966 0040 1C4B     		ldr	r3, .L213+20
 1967 0042 9968     		ldr	r1, [r3, #8]
 1968              	.LVL223:
 237:../switch_sdk/core/yt/yt_l2.c ****     CMM_PARAM_CHK(NULL == YT_DISPATCH(unit), CMM_ERR_NOT_INIT);
 1969              		.loc 1 237 5 is_stmt 0 discriminator 3 view .LVU540
 1970 0044 1C48     		ldr	r0, .L213+24
 1971              	.LVL224:
 237:../switch_sdk/core/yt/yt_l2.c ****     CMM_PARAM_CHK(NULL == YT_DISPATCH(unit), CMM_ERR_NOT_INIT);
 1972              		.loc 1 237 5 discriminator 3 view .LVU541
 1973 0046 FFF7FEFF 		bl	osal_printf
 1974              	.LVL225:
 1975 004a F5E7     		b	.L196
 1976              	.LVL226:
 1977              	.L207:
 237:../switch_sdk/core/yt/yt_l2.c ****     CMM_PARAM_CHK(NULL == YT_DISPATCH(unit), CMM_ERR_NOT_INIT);
 1978              		.loc 1 237 5 discriminator 3 view .LVU542
 1979              	.LBE39:
 238:../switch_sdk/core/yt/yt_l2.c ****     CMM_PARAM_CHK((!(YT_DISPATCH(unit)->is_inited)), CMM_ERR_NOT_INIT);
 1980              		.loc 1 238 5 is_stmt 1 discriminator 1 view .LVU543
 238:../switch_sdk/core/yt/yt_l2.c ****     CMM_PARAM_CHK((!(YT_DISPATCH(unit)->is_inited)), CMM_ERR_NOT_INIT);
 1981              		.loc 1 238 5 discriminator 1 view .LVU544
 1982 004c 174B     		ldr	r3, .L213+12
 1983 004e 1B78     		ldrb	r3, [r3]	@ zero_extendqisi2
 1984 0050 012B     		cmp	r3, #1
 1985 0052 01D8     		bhi	.L210
 1986              	.LVL227:
 1987              	.L199:
 238:../switch_sdk/core/yt/yt_l2.c ****     CMM_PARAM_CHK((!(YT_DISPATCH(unit)->is_inited)), CMM_ERR_NOT_INIT);
 1988              		.loc 1 238 5 discriminator 5 view .LVU545
 238:../switch_sdk/core/yt/yt_l2.c ****     CMM_PARAM_CHK((!(YT_DISPATCH(unit)->is_inited)), CMM_ERR_NOT_INIT);
 1989              		.loc 1 238 5 discriminator 5 view .LVU546
 238:../switch_sdk/core/yt/yt_l2.c ****     CMM_PARAM_CHK((!(YT_DISPATCH(unit)->is_inited)), CMM_ERR_NOT_INIT);
 1990              		.loc 1 238 5 discriminator 5 view .LVU547
 1991 0054 0420     		movs	r0, #4
 1992 0056 EAE7     		b	.L194
 1993              	.LVL228:
 1994              	.L210:
 238:../switch_sdk/core/yt/yt_l2.c ****     CMM_PARAM_CHK((!(YT_DISPATCH(unit)->is_inited)), CMM_ERR_NOT_INIT);
 1995              		.loc 1 238 5 discriminator 3 view .LVU548
 1996              	.LBB40:
 238:../switch_sdk/core/yt/yt_l2.c ****     CMM_PARAM_CHK((!(YT_DISPATCH(unit)->is_inited)), CMM_ERR_NOT_INIT);
 1997              		.loc 1 238 5 discriminator 3 view .LVU549
 1998 0058 154B     		ldr	r3, .L213+16
 1999 005a 1A69     		ldr	r2, [r3, #16]
 2000 005c 154B     		ldr	r3, .L213+20
 2001 005e 9968     		ldr	r1, [r3, #8]
 2002              	.LVL229:
 238:../switch_sdk/core/yt/yt_l2.c ****     CMM_PARAM_CHK((!(YT_DISPATCH(unit)->is_inited)), CMM_ERR_NOT_INIT);
 2003              		.loc 1 238 5 is_stmt 0 discriminator 3 view .LVU550
 2004 0060 1548     		ldr	r0, .L213+24
 2005              	.LVL230:
 238:../switch_sdk/core/yt/yt_l2.c ****     CMM_PARAM_CHK((!(YT_DISPATCH(unit)->is_inited)), CMM_ERR_NOT_INIT);
 2006              		.loc 1 238 5 discriminator 3 view .LVU551
 2007 0062 FFF7FEFF 		bl	osal_printf
 2008              	.LVL231:
 2009 0066 F5E7     		b	.L199
 2010              	.LVL232:
 2011              	.L208:
 238:../switch_sdk/core/yt/yt_l2.c ****     CMM_PARAM_CHK((!(YT_DISPATCH(unit)->is_inited)), CMM_ERR_NOT_INIT);
 2012              		.loc 1 238 5 discriminator 3 view .LVU552
 2013              	.LBE40:
 239:../switch_sdk/core/yt/yt_l2.c ****     CMM_PARAM_CHK((!(CMM_PORT_VALID(unit, port))), CMM_ERR_PORT);
 2014              		.loc 1 239 5 is_stmt 1 discriminator 1 view .LVU553
 239:../switch_sdk/core/yt/yt_l2.c ****     CMM_PARAM_CHK((!(CMM_PORT_VALID(unit, port))), CMM_ERR_PORT);
 2015              		.loc 1 239 5 discriminator 1 view .LVU554
 2016 0068 104B     		ldr	r3, .L213+12
 2017 006a 1B78     		ldrb	r3, [r3]	@ zero_extendqisi2
 2018 006c 012B     		cmp	r3, #1
 2019 006e 01D8     		bhi	.L211
 2020              	.LVL233:
 2021              	.L201:
 239:../switch_sdk/core/yt/yt_l2.c ****     CMM_PARAM_CHK((!(CMM_PORT_VALID(unit, port))), CMM_ERR_PORT);
 2022              		.loc 1 239 5 discriminator 5 view .LVU555
 239:../switch_sdk/core/yt/yt_l2.c ****     CMM_PARAM_CHK((!(CMM_PORT_VALID(unit, port))), CMM_ERR_PORT);
 2023              		.loc 1 239 5 discriminator 5 view .LVU556
 239:../switch_sdk/core/yt/yt_l2.c ****     CMM_PARAM_CHK((!(CMM_PORT_VALID(unit, port))), CMM_ERR_PORT);
 2024              		.loc 1 239 5 discriminator 5 view .LVU557
 2025 0070 0420     		movs	r0, #4
 2026 0072 DCE7     		b	.L194
 2027              	.LVL234:
 2028              	.L211:
 239:../switch_sdk/core/yt/yt_l2.c ****     CMM_PARAM_CHK((!(CMM_PORT_VALID(unit, port))), CMM_ERR_PORT);
 2029              		.loc 1 239 5 discriminator 3 view .LVU558
 2030              	.LBB41:
 239:../switch_sdk/core/yt/yt_l2.c ****     CMM_PARAM_CHK((!(CMM_PORT_VALID(unit, port))), CMM_ERR_PORT);
 2031              		.loc 1 239 5 discriminator 3 view .LVU559
 2032 0074 0E4B     		ldr	r3, .L213+16
 2033 0076 1A69     		ldr	r2, [r3, #16]
 2034 0078 0E4B     		ldr	r3, .L213+20
 2035 007a 9968     		ldr	r1, [r3, #8]
 2036              	.LVL235:
 239:../switch_sdk/core/yt/yt_l2.c ****     CMM_PARAM_CHK((!(CMM_PORT_VALID(unit, port))), CMM_ERR_PORT);
 2037              		.loc 1 239 5 is_stmt 0 discriminator 3 view .LVU560
 2038 007c 0E48     		ldr	r0, .L213+24
 2039 007e FFF7FEFF 		bl	osal_printf
 2040              	.LVL236:
 2041 0082 F5E7     		b	.L201
 2042              	.LVL237:
 2043              	.L202:
 239:../switch_sdk/core/yt/yt_l2.c ****     CMM_PARAM_CHK((!(CMM_PORT_VALID(unit, port))), CMM_ERR_PORT);
 2044              		.loc 1 239 5 discriminator 3 view .LVU561
 2045              	.LBE41:
 240:../switch_sdk/core/yt/yt_l2.c **** 
 2046              		.loc 1 240 5 is_stmt 1 discriminator 3 view .LVU562
 240:../switch_sdk/core/yt/yt_l2.c **** 
 2047              		.loc 1 240 5 discriminator 3 view .LVU563
 2048 0084 094B     		ldr	r3, .L213+12
 2049 0086 1B78     		ldrb	r3, [r3]	@ zero_extendqisi2
 2050 0088 012B     		cmp	r3, #1
 2051 008a 01D8     		bhi	.L212
 2052              	.LVL238:
 2053              	.L204:
 240:../switch_sdk/core/yt/yt_l2.c **** 
 2054              		.loc 1 240 5 discriminator 7 view .LVU564
 240:../switch_sdk/core/yt/yt_l2.c **** 
 2055              		.loc 1 240 5 discriminator 7 view .LVU565
 240:../switch_sdk/core/yt/yt_l2.c **** 
 2056              		.loc 1 240 5 discriminator 7 view .LVU566
 2057 008c 0E20     		movs	r0, #14
 2058 008e CEE7     		b	.L194
 2059              	.LVL239:
 2060              	.L212:
 240:../switch_sdk/core/yt/yt_l2.c **** 
 2061              		.loc 1 240 5 discriminator 5 view .LVU567
 2062              	.LBB42:
 240:../switch_sdk/core/yt/yt_l2.c **** 
 2063              		.loc 1 240 5 discriminator 5 view .LVU568
 2064 0090 074B     		ldr	r3, .L213+16
 2065 0092 9A6B     		ldr	r2, [r3, #56]
 2066 0094 074B     		ldr	r3, .L213+20
 2067 0096 9968     		ldr	r1, [r3, #8]
 2068              	.LVL240:
 240:../switch_sdk/core/yt/yt_l2.c **** 
 2069              		.loc 1 240 5 is_stmt 0 discriminator 5 view .LVU569
 2070 0098 0748     		ldr	r0, .L213+24
 2071 009a FFF7FEFF 		bl	osal_printf
 2072              	.LVL241:
 2073 009e F5E7     		b	.L204
 2074              	.L214:
 2075              		.align	2
 2076              	.L213:
 2077 00a0 00000000 		.word	gpfal_dispatch
 2078 00a4 00000000 		.word	gcal_inited
 2079 00a8 00000000 		.word	gpSwitchUnit
 2080 00ac 00000000 		.word	yt_debug_level
 2081 00b0 00000000 		.word	_yt_errmsg
 2082 00b4 00000000 		.word	_yt_prompt_msg
 2083 00b8 00000000 		.word	.LC0
 2084              	.LBE42:
 2085              		.cfi_endproc
 2086              	.LFE12:
 2088              		.section	.text.yt_l2_fdb_vlan_ucast_flush,"ax",%progbits
 2089              		.align	1
 2090              		.global	yt_l2_fdb_vlan_ucast_flush
 2091              		.syntax unified
 2092              		.thumb
 2093              		.thumb_func
 2095              	yt_l2_fdb_vlan_ucast_flush:
 2096              	.LVL242:
 2097              	.LFB13:
 244:../switch_sdk/core/yt/yt_l2.c **** 
 245:../switch_sdk/core/yt/yt_l2.c **** /**
 246:../switch_sdk/core/yt/yt_l2.c ****  * @internal      yt_l2_fdb_vlan_ucast_flush
 247:../switch_sdk/core/yt/yt_l2.c ****  * @endinternal
 248:../switch_sdk/core/yt/yt_l2.c ****  *
 249:../switch_sdk/core/yt/yt_l2.c ****  * @brief         Description
 250:../switch_sdk/core/yt/yt_l2.c ****  * @note          APPLICABLE DEVICES  -Tiger
 251:../switch_sdk/core/yt/yt_l2.c ****  * @param[in]     unit                -unit id
 252:../switch_sdk/core/yt/yt_l2.c ****  * @param[in]     vid                 -vlan id
 253:../switch_sdk/core/yt/yt_l2.c ****  * @retval        CMM_ERR_OK          -on success
 254:../switch_sdk/core/yt/yt_l2.c ****  * @retval        CMM_ERR_FAIL        -on fail
 255:../switch_sdk/core/yt/yt_l2.c ****  */
 256:../switch_sdk/core/yt/yt_l2.c **** yt_ret_t yt_l2_fdb_vlan_ucast_flush(yt_unit_t unit, yt_vlan_t vid)
 257:../switch_sdk/core/yt/yt_l2.c **** {
 2098              		.loc 1 257 1 is_stmt 1 view -0
 2099              		.cfi_startproc
 2100              		@ args = 0, pretend = 0, frame = 0
 2101              		@ frame_needed = 0, uses_anonymous_args = 0
 2102              		.loc 1 257 1 is_stmt 0 view .LVU571
 2103 0000 08B5     		push	{r3, lr}
 2104              		.cfi_def_cfa_offset 8
 2105              		.cfi_offset 3, -8
 2106              		.cfi_offset 14, -4
 258:../switch_sdk/core/yt/yt_l2.c ****     CMM_PARAM_CHK((YT_UNIT_NUM <= unit), CMM_ERR_INPUT);
 2107              		.loc 1 258 5 is_stmt 1 view .LVU572
 2108              		.loc 1 258 5 view .LVU573
 2109 0002 70B9     		cbnz	r0, .L226
 2110 0004 0246     		mov	r2, r0
 2111              		.loc 1 258 5 discriminator 2 view .LVU574
 259:../switch_sdk/core/yt/yt_l2.c ****     CMM_PARAM_CHK(NULL == YT_DISPATCH(unit), CMM_ERR_NOT_INIT);
 2112              		.loc 1 259 5 discriminator 2 view .LVU575
 2113              		.loc 1 259 5 discriminator 2 view .LVU576
 2114 0006 234B     		ldr	r3, .L234
 2115 0008 53F82030 		ldr	r3, [r3, r0, lsl #2]
 2116 000c BBB1     		cbz	r3, .L227
 2117              		.loc 1 259 5 discriminator 2 view .LVU577
 260:../switch_sdk/core/yt/yt_l2.c ****     CMM_PARAM_CHK((!(YT_DISPATCH(unit)->is_inited)), CMM_ERR_NOT_INIT);
 2118              		.loc 1 260 5 discriminator 2 view .LVU578
 2119              		.loc 1 260 5 discriminator 2 view .LVU579
 2120 000e 1878     		ldrb	r0, [r3]	@ zero_extendqisi2
 2121              	.LVL243:
 2122              		.loc 1 260 5 is_stmt 0 discriminator 2 view .LVU580
 2123 0010 18B3     		cbz	r0, .L228
 2124              		.loc 1 260 5 is_stmt 1 discriminator 2 view .LVU581
 261:../switch_sdk/core/yt/yt_l2.c ****     CMM_PARAM_CHK((YT_VLAN_ID_MAX < vid), CMM_ERR_EXCEED_RANGE);
 2125              		.loc 1 261 5 discriminator 2 view .LVU582
 2126              		.loc 1 261 5 discriminator 2 view .LVU583
 2127 0012 B1F5805F 		cmp	r1, #4096
 2128 0016 2ED2     		bcs	.L229
 2129              		.loc 1 261 5 discriminator 2 view .LVU584
 262:../switch_sdk/core/yt/yt_l2.c **** 
 263:../switch_sdk/core/yt/yt_l2.c ****     return YT_DISPATCH(unit)->l2_fdb_vlan_ucast_flush(unit, vid);
 2130              		.loc 1 263 5 discriminator 2 view .LVU585
 2131              		.loc 1 263 29 is_stmt 0 discriminator 2 view .LVU586
 2132 0018 D3F86433 		ldr	r3, [r3, #868]
 2133              		.loc 1 263 12 discriminator 2 view .LVU587
 2134 001c 1046     		mov	r0, r2
 2135 001e 9847     		blx	r3
 2136              	.LVL244:
 2137              	.L215:
 264:../switch_sdk/core/yt/yt_l2.c **** }
 2138              		.loc 1 264 1 view .LVU588
 2139 0020 08BD     		pop	{r3, pc}
 2140              	.LVL245:
 2141              	.L226:
 258:../switch_sdk/core/yt/yt_l2.c ****     CMM_PARAM_CHK(NULL == YT_DISPATCH(unit), CMM_ERR_NOT_INIT);
 2142              		.loc 1 258 5 is_stmt 1 discriminator 1 view .LVU589
 258:../switch_sdk/core/yt/yt_l2.c ****     CMM_PARAM_CHK(NULL == YT_DISPATCH(unit), CMM_ERR_NOT_INIT);
 2143              		.loc 1 258 5 discriminator 1 view .LVU590
 2144 0022 1D4B     		ldr	r3, .L234+4
 2145 0024 1B78     		ldrb	r3, [r3]	@ zero_extendqisi2
 2146 0026 012B     		cmp	r3, #1
 2147 0028 01D8     		bhi	.L230
 2148              	.LVL246:
 2149              	.L217:
 258:../switch_sdk/core/yt/yt_l2.c ****     CMM_PARAM_CHK(NULL == YT_DISPATCH(unit), CMM_ERR_NOT_INIT);
 2150              		.loc 1 258 5 discriminator 5 view .LVU591
 258:../switch_sdk/core/yt/yt_l2.c ****     CMM_PARAM_CHK(NULL == YT_DISPATCH(unit), CMM_ERR_NOT_INIT);
 2151              		.loc 1 258 5 discriminator 5 view .LVU592
 258:../switch_sdk/core/yt/yt_l2.c ****     CMM_PARAM_CHK(NULL == YT_DISPATCH(unit), CMM_ERR_NOT_INIT);
 2152              		.loc 1 258 5 discriminator 5 view .LVU593
 2153 002a 0520     		movs	r0, #5
 2154 002c F8E7     		b	.L215
 2155              	.LVL247:
 2156              	.L230:
 258:../switch_sdk/core/yt/yt_l2.c ****     CMM_PARAM_CHK(NULL == YT_DISPATCH(unit), CMM_ERR_NOT_INIT);
 2157              		.loc 1 258 5 discriminator 3 view .LVU594
 2158              	.LBB43:
 258:../switch_sdk/core/yt/yt_l2.c ****     CMM_PARAM_CHK(NULL == YT_DISPATCH(unit), CMM_ERR_NOT_INIT);
 2159              		.loc 1 258 5 discriminator 3 view .LVU595
 2160 002e 1B4B     		ldr	r3, .L234+8
 2161 0030 5A69     		ldr	r2, [r3, #20]
 2162 0032 1B4B     		ldr	r3, .L234+12
 2163 0034 9968     		ldr	r1, [r3, #8]
 2164              	.LVL248:
 258:../switch_sdk/core/yt/yt_l2.c ****     CMM_PARAM_CHK(NULL == YT_DISPATCH(unit), CMM_ERR_NOT_INIT);
 2165              		.loc 1 258 5 is_stmt 0 discriminator 3 view .LVU596
 2166 0036 1B48     		ldr	r0, .L234+16
 2167              	.LVL249:
 258:../switch_sdk/core/yt/yt_l2.c ****     CMM_PARAM_CHK(NULL == YT_DISPATCH(unit), CMM_ERR_NOT_INIT);
 2168              		.loc 1 258 5 discriminator 3 view .LVU597
 2169 0038 FFF7FEFF 		bl	osal_printf
 2170              	.LVL250:
 2171 003c F5E7     		b	.L217
 2172              	.LVL251:
 2173              	.L227:
 258:../switch_sdk/core/yt/yt_l2.c ****     CMM_PARAM_CHK(NULL == YT_DISPATCH(unit), CMM_ERR_NOT_INIT);
 2174              		.loc 1 258 5 discriminator 3 view .LVU598
 2175              	.LBE43:
 259:../switch_sdk/core/yt/yt_l2.c ****     CMM_PARAM_CHK((!(YT_DISPATCH(unit)->is_inited)), CMM_ERR_NOT_INIT);
 2176              		.loc 1 259 5 is_stmt 1 discriminator 1 view .LVU599
 259:../switch_sdk/core/yt/yt_l2.c ****     CMM_PARAM_CHK((!(YT_DISPATCH(unit)->is_inited)), CMM_ERR_NOT_INIT);
 2177              		.loc 1 259 5 discriminator 1 view .LVU600
 2178 003e 164B     		ldr	r3, .L234+4
 2179 0040 1B78     		ldrb	r3, [r3]	@ zero_extendqisi2
 2180 0042 012B     		cmp	r3, #1
 2181 0044 01D8     		bhi	.L231
 2182              	.LVL252:
 2183              	.L220:
 259:../switch_sdk/core/yt/yt_l2.c ****     CMM_PARAM_CHK((!(YT_DISPATCH(unit)->is_inited)), CMM_ERR_NOT_INIT);
 2184              		.loc 1 259 5 discriminator 5 view .LVU601
 259:../switch_sdk/core/yt/yt_l2.c ****     CMM_PARAM_CHK((!(YT_DISPATCH(unit)->is_inited)), CMM_ERR_NOT_INIT);
 2185              		.loc 1 259 5 discriminator 5 view .LVU602
 259:../switch_sdk/core/yt/yt_l2.c ****     CMM_PARAM_CHK((!(YT_DISPATCH(unit)->is_inited)), CMM_ERR_NOT_INIT);
 2186              		.loc 1 259 5 discriminator 5 view .LVU603
 2187 0046 0420     		movs	r0, #4
 2188 0048 EAE7     		b	.L215
 2189              	.LVL253:
 2190              	.L231:
 259:../switch_sdk/core/yt/yt_l2.c ****     CMM_PARAM_CHK((!(YT_DISPATCH(unit)->is_inited)), CMM_ERR_NOT_INIT);
 2191              		.loc 1 259 5 discriminator 3 view .LVU604
 2192              	.LBB44:
 259:../switch_sdk/core/yt/yt_l2.c ****     CMM_PARAM_CHK((!(YT_DISPATCH(unit)->is_inited)), CMM_ERR_NOT_INIT);
 2193              		.loc 1 259 5 discriminator 3 view .LVU605
 2194 004a 144B     		ldr	r3, .L234+8
 2195 004c 1A69     		ldr	r2, [r3, #16]
 2196 004e 144B     		ldr	r3, .L234+12
 2197 0050 9968     		ldr	r1, [r3, #8]
 2198              	.LVL254:
 259:../switch_sdk/core/yt/yt_l2.c ****     CMM_PARAM_CHK((!(YT_DISPATCH(unit)->is_inited)), CMM_ERR_NOT_INIT);
 2199              		.loc 1 259 5 is_stmt 0 discriminator 3 view .LVU606
 2200 0052 1448     		ldr	r0, .L234+16
 2201              	.LVL255:
 259:../switch_sdk/core/yt/yt_l2.c ****     CMM_PARAM_CHK((!(YT_DISPATCH(unit)->is_inited)), CMM_ERR_NOT_INIT);
 2202              		.loc 1 259 5 discriminator 3 view .LVU607
 2203 0054 FFF7FEFF 		bl	osal_printf
 2204              	.LVL256:
 2205 0058 F5E7     		b	.L220
 2206              	.LVL257:
 2207              	.L228:
 259:../switch_sdk/core/yt/yt_l2.c ****     CMM_PARAM_CHK((!(YT_DISPATCH(unit)->is_inited)), CMM_ERR_NOT_INIT);
 2208              		.loc 1 259 5 discriminator 3 view .LVU608
 2209              	.LBE44:
 260:../switch_sdk/core/yt/yt_l2.c ****     CMM_PARAM_CHK((YT_VLAN_ID_MAX < vid), CMM_ERR_EXCEED_RANGE);
 2210              		.loc 1 260 5 is_stmt 1 discriminator 1 view .LVU609
 260:../switch_sdk/core/yt/yt_l2.c ****     CMM_PARAM_CHK((YT_VLAN_ID_MAX < vid), CMM_ERR_EXCEED_RANGE);
 2211              		.loc 1 260 5 discriminator 1 view .LVU610
 2212 005a 0F4B     		ldr	r3, .L234+4
 2213 005c 1B78     		ldrb	r3, [r3]	@ zero_extendqisi2
 2214 005e 012B     		cmp	r3, #1
 2215 0060 01D8     		bhi	.L232
 2216              	.LVL258:
 2217              	.L222:
 260:../switch_sdk/core/yt/yt_l2.c ****     CMM_PARAM_CHK((YT_VLAN_ID_MAX < vid), CMM_ERR_EXCEED_RANGE);
 2218              		.loc 1 260 5 discriminator 5 view .LVU611
 260:../switch_sdk/core/yt/yt_l2.c ****     CMM_PARAM_CHK((YT_VLAN_ID_MAX < vid), CMM_ERR_EXCEED_RANGE);
 2219              		.loc 1 260 5 discriminator 5 view .LVU612
 260:../switch_sdk/core/yt/yt_l2.c ****     CMM_PARAM_CHK((YT_VLAN_ID_MAX < vid), CMM_ERR_EXCEED_RANGE);
 2220              		.loc 1 260 5 discriminator 5 view .LVU613
 2221 0062 0420     		movs	r0, #4
 2222 0064 DCE7     		b	.L215
 2223              	.LVL259:
 2224              	.L232:
 260:../switch_sdk/core/yt/yt_l2.c ****     CMM_PARAM_CHK((YT_VLAN_ID_MAX < vid), CMM_ERR_EXCEED_RANGE);
 2225              		.loc 1 260 5 discriminator 3 view .LVU614
 2226              	.LBB45:
 260:../switch_sdk/core/yt/yt_l2.c ****     CMM_PARAM_CHK((YT_VLAN_ID_MAX < vid), CMM_ERR_EXCEED_RANGE);
 2227              		.loc 1 260 5 discriminator 3 view .LVU615
 2228 0066 0D4B     		ldr	r3, .L234+8
 2229 0068 1A69     		ldr	r2, [r3, #16]
 2230 006a 0D4B     		ldr	r3, .L234+12
 2231 006c 9968     		ldr	r1, [r3, #8]
 2232              	.LVL260:
 260:../switch_sdk/core/yt/yt_l2.c ****     CMM_PARAM_CHK((YT_VLAN_ID_MAX < vid), CMM_ERR_EXCEED_RANGE);
 2233              		.loc 1 260 5 is_stmt 0 discriminator 3 view .LVU616
 2234 006e 0D48     		ldr	r0, .L234+16
 2235 0070 FFF7FEFF 		bl	osal_printf
 2236              	.LVL261:
 2237 0074 F5E7     		b	.L222
 2238              	.LVL262:
 2239              	.L229:
 260:../switch_sdk/core/yt/yt_l2.c ****     CMM_PARAM_CHK((YT_VLAN_ID_MAX < vid), CMM_ERR_EXCEED_RANGE);
 2240              		.loc 1 260 5 discriminator 3 view .LVU617
 2241              	.LBE45:
 261:../switch_sdk/core/yt/yt_l2.c **** 
 2242              		.loc 1 261 5 is_stmt 1 discriminator 1 view .LVU618
 261:../switch_sdk/core/yt/yt_l2.c **** 
 2243              		.loc 1 261 5 discriminator 1 view .LVU619
 2244 0076 084B     		ldr	r3, .L234+4
 2245 0078 1B78     		ldrb	r3, [r3]	@ zero_extendqisi2
 2246 007a 012B     		cmp	r3, #1
 2247 007c 01D8     		bhi	.L233
 2248              	.LVL263:
 2249              	.L224:
 261:../switch_sdk/core/yt/yt_l2.c **** 
 2250              		.loc 1 261 5 discriminator 5 view .LVU620
 261:../switch_sdk/core/yt/yt_l2.c **** 
 2251              		.loc 1 261 5 discriminator 5 view .LVU621
 261:../switch_sdk/core/yt/yt_l2.c **** 
 2252              		.loc 1 261 5 discriminator 5 view .LVU622
 2253 007e 1120     		movs	r0, #17
 2254 0080 CEE7     		b	.L215
 2255              	.LVL264:
 2256              	.L233:
 261:../switch_sdk/core/yt/yt_l2.c **** 
 2257              		.loc 1 261 5 discriminator 3 view .LVU623
 2258              	.LBB46:
 261:../switch_sdk/core/yt/yt_l2.c **** 
 2259              		.loc 1 261 5 discriminator 3 view .LVU624
 2260 0082 064B     		ldr	r3, .L234+8
 2261 0084 5A6C     		ldr	r2, [r3, #68]
 2262 0086 064B     		ldr	r3, .L234+12
 2263 0088 9968     		ldr	r1, [r3, #8]
 2264              	.LVL265:
 261:../switch_sdk/core/yt/yt_l2.c **** 
 2265              		.loc 1 261 5 is_stmt 0 discriminator 3 view .LVU625
 2266 008a 0648     		ldr	r0, .L234+16
 2267 008c FFF7FEFF 		bl	osal_printf
 2268              	.LVL266:
 2269 0090 F5E7     		b	.L224
 2270              	.L235:
 2271 0092 00BF     		.align	2
 2272              	.L234:
 2273 0094 00000000 		.word	gpfal_dispatch
 2274 0098 00000000 		.word	yt_debug_level
 2275 009c 00000000 		.word	_yt_errmsg
 2276 00a0 00000000 		.word	_yt_prompt_msg
 2277 00a4 00000000 		.word	.LC0
 2278              	.LBE46:
 2279              		.cfi_endproc
 2280              	.LFE13:
 2282              		.section	.text.yt_l2_all_mcast_flush,"ax",%progbits
 2283              		.align	1
 2284              		.global	yt_l2_all_mcast_flush
 2285              		.syntax unified
 2286              		.thumb
 2287              		.thumb_func
 2289              	yt_l2_all_mcast_flush:
 2290              	.LVL267:
 2291              	.LFB14:
 265:../switch_sdk/core/yt/yt_l2.c **** 
 266:../switch_sdk/core/yt/yt_l2.c **** /**
 267:../switch_sdk/core/yt/yt_l2.c ****  * @internal      yt_l2_all_mcast_flush
 268:../switch_sdk/core/yt/yt_l2.c ****  * @endinternal
 269:../switch_sdk/core/yt/yt_l2.c ****  *
 270:../switch_sdk/core/yt/yt_l2.c ****  * @brief         Description
 271:../switch_sdk/core/yt/yt_l2.c ****  * @note          APPLICABLE DEVICES  -Tiger
 272:../switch_sdk/core/yt/yt_l2.c ****  * @param[in]     unit                -unit id
 273:../switch_sdk/core/yt/yt_l2.c ****  * @retval        CMM_ERR_OK          -on success
 274:../switch_sdk/core/yt/yt_l2.c ****  * @retval        CMM_ERR_FAIL        -on fail
 275:../switch_sdk/core/yt/yt_l2.c ****  */
 276:../switch_sdk/core/yt/yt_l2.c **** yt_ret_t yt_l2_all_mcast_flush(yt_unit_t unit)
 277:../switch_sdk/core/yt/yt_l2.c **** {
 2292              		.loc 1 277 1 is_stmt 1 view -0
 2293              		.cfi_startproc
 2294              		@ args = 0, pretend = 0, frame = 0
 2295              		@ frame_needed = 0, uses_anonymous_args = 0
 2296              		.loc 1 277 1 is_stmt 0 view .LVU627
 2297 0000 08B5     		push	{r3, lr}
 2298              		.cfi_def_cfa_offset 8
 2299              		.cfi_offset 3, -8
 2300              		.cfi_offset 14, -4
 278:../switch_sdk/core/yt/yt_l2.c ****     CMM_PARAM_CHK((YT_UNIT_NUM <= unit), CMM_ERR_INPUT);
 2301              		.loc 1 278 5 is_stmt 1 view .LVU628
 2302              		.loc 1 278 5 view .LVU629
 2303 0002 48B9     		cbnz	r0, .L245
 2304              		.loc 1 278 5 discriminator 2 view .LVU630
 279:../switch_sdk/core/yt/yt_l2.c ****     CMM_PARAM_CHK(NULL == YT_DISPATCH(unit), CMM_ERR_NOT_INIT);
 2305              		.loc 1 279 5 discriminator 2 view .LVU631
 2306              		.loc 1 279 5 discriminator 2 view .LVU632
 2307 0004 194B     		ldr	r3, .L251
 2308 0006 53F82030 		ldr	r3, [r3, r0, lsl #2]
 2309 000a 9BB1     		cbz	r3, .L246
 2310              		.loc 1 279 5 discriminator 2 view .LVU633
 280:../switch_sdk/core/yt/yt_l2.c ****     CMM_PARAM_CHK((!(YT_DISPATCH(unit)->is_inited)), CMM_ERR_NOT_INIT);
 2311              		.loc 1 280 5 discriminator 2 view .LVU634
 2312              		.loc 1 280 5 discriminator 2 view .LVU635
 2313 000c 1978     		ldrb	r1, [r3]	@ zero_extendqisi2
 2314 000e F9B1     		cbz	r1, .L247
 2315              		.loc 1 280 5 discriminator 2 view .LVU636
 281:../switch_sdk/core/yt/yt_l2.c **** 
 282:../switch_sdk/core/yt/yt_l2.c ****     return YT_DISPATCH(unit)->l2_all_mcast_flush(unit);
 2316              		.loc 1 282 5 discriminator 2 view .LVU637
 2317              		.loc 1 282 29 is_stmt 0 discriminator 2 view .LVU638
 2318 0010 D3F86833 		ldr	r3, [r3, #872]
 2319              		.loc 1 282 12 discriminator 2 view .LVU639
 2320 0014 9847     		blx	r3
 2321              	.LVL268:
 2322              	.L236:
 283:../switch_sdk/core/yt/yt_l2.c **** }
 2323              		.loc 1 283 1 view .LVU640
 2324 0016 08BD     		pop	{r3, pc}
 2325              	.LVL269:
 2326              	.L245:
 278:../switch_sdk/core/yt/yt_l2.c ****     CMM_PARAM_CHK(NULL == YT_DISPATCH(unit), CMM_ERR_NOT_INIT);
 2327              		.loc 1 278 5 is_stmt 1 discriminator 1 view .LVU641
 278:../switch_sdk/core/yt/yt_l2.c ****     CMM_PARAM_CHK(NULL == YT_DISPATCH(unit), CMM_ERR_NOT_INIT);
 2328              		.loc 1 278 5 discriminator 1 view .LVU642
 2329 0018 154B     		ldr	r3, .L251+4
 2330 001a 1B78     		ldrb	r3, [r3]	@ zero_extendqisi2
 2331 001c 012B     		cmp	r3, #1
 2332 001e 01D8     		bhi	.L248
 2333              	.LVL270:
 2334              	.L238:
 278:../switch_sdk/core/yt/yt_l2.c ****     CMM_PARAM_CHK(NULL == YT_DISPATCH(unit), CMM_ERR_NOT_INIT);
 2335              		.loc 1 278 5 discriminator 5 view .LVU643
 278:../switch_sdk/core/yt/yt_l2.c ****     CMM_PARAM_CHK(NULL == YT_DISPATCH(unit), CMM_ERR_NOT_INIT);
 2336              		.loc 1 278 5 discriminator 5 view .LVU644
 278:../switch_sdk/core/yt/yt_l2.c ****     CMM_PARAM_CHK(NULL == YT_DISPATCH(unit), CMM_ERR_NOT_INIT);
 2337              		.loc 1 278 5 discriminator 5 view .LVU645
 2338 0020 0520     		movs	r0, #5
 2339 0022 F8E7     		b	.L236
 2340              	.LVL271:
 2341              	.L248:
 278:../switch_sdk/core/yt/yt_l2.c ****     CMM_PARAM_CHK(NULL == YT_DISPATCH(unit), CMM_ERR_NOT_INIT);
 2342              		.loc 1 278 5 discriminator 3 view .LVU646
 2343              	.LBB47:
 278:../switch_sdk/core/yt/yt_l2.c ****     CMM_PARAM_CHK(NULL == YT_DISPATCH(unit), CMM_ERR_NOT_INIT);
 2344              		.loc 1 278 5 discriminator 3 view .LVU647
 2345 0024 134B     		ldr	r3, .L251+8
 2346 0026 5A69     		ldr	r2, [r3, #20]
 2347 0028 134B     		ldr	r3, .L251+12
 2348 002a 9968     		ldr	r1, [r3, #8]
 2349 002c 1348     		ldr	r0, .L251+16
 2350              	.LVL272:
 278:../switch_sdk/core/yt/yt_l2.c ****     CMM_PARAM_CHK(NULL == YT_DISPATCH(unit), CMM_ERR_NOT_INIT);
 2351              		.loc 1 278 5 is_stmt 0 discriminator 3 view .LVU648
 2352 002e FFF7FEFF 		bl	osal_printf
 2353              	.LVL273:
 2354 0032 F5E7     		b	.L238
 2355              	.LVL274:
 2356              	.L246:
 278:../switch_sdk/core/yt/yt_l2.c ****     CMM_PARAM_CHK(NULL == YT_DISPATCH(unit), CMM_ERR_NOT_INIT);
 2357              		.loc 1 278 5 discriminator 3 view .LVU649
 2358              	.LBE47:
 279:../switch_sdk/core/yt/yt_l2.c ****     CMM_PARAM_CHK((!(YT_DISPATCH(unit)->is_inited)), CMM_ERR_NOT_INIT);
 2359              		.loc 1 279 5 is_stmt 1 discriminator 1 view .LVU650
 279:../switch_sdk/core/yt/yt_l2.c ****     CMM_PARAM_CHK((!(YT_DISPATCH(unit)->is_inited)), CMM_ERR_NOT_INIT);
 2360              		.loc 1 279 5 discriminator 1 view .LVU651
 2361 0034 0E4B     		ldr	r3, .L251+4
 2362 0036 1B78     		ldrb	r3, [r3]	@ zero_extendqisi2
 2363 0038 012B     		cmp	r3, #1
 2364 003a 01D8     		bhi	.L249
 2365              	.LVL275:
 2366              	.L241:
 279:../switch_sdk/core/yt/yt_l2.c ****     CMM_PARAM_CHK((!(YT_DISPATCH(unit)->is_inited)), CMM_ERR_NOT_INIT);
 2367              		.loc 1 279 5 discriminator 5 view .LVU652
 279:../switch_sdk/core/yt/yt_l2.c ****     CMM_PARAM_CHK((!(YT_DISPATCH(unit)->is_inited)), CMM_ERR_NOT_INIT);
 2368              		.loc 1 279 5 discriminator 5 view .LVU653
 279:../switch_sdk/core/yt/yt_l2.c ****     CMM_PARAM_CHK((!(YT_DISPATCH(unit)->is_inited)), CMM_ERR_NOT_INIT);
 2369              		.loc 1 279 5 discriminator 5 view .LVU654
 2370 003c 0420     		movs	r0, #4
 2371 003e EAE7     		b	.L236
 2372              	.LVL276:
 2373              	.L249:
 279:../switch_sdk/core/yt/yt_l2.c ****     CMM_PARAM_CHK((!(YT_DISPATCH(unit)->is_inited)), CMM_ERR_NOT_INIT);
 2374              		.loc 1 279 5 discriminator 3 view .LVU655
 2375              	.LBB48:
 279:../switch_sdk/core/yt/yt_l2.c ****     CMM_PARAM_CHK((!(YT_DISPATCH(unit)->is_inited)), CMM_ERR_NOT_INIT);
 2376              		.loc 1 279 5 discriminator 3 view .LVU656
 2377 0040 0C4B     		ldr	r3, .L251+8
 2378 0042 1A69     		ldr	r2, [r3, #16]
 2379 0044 0C4B     		ldr	r3, .L251+12
 2380 0046 9968     		ldr	r1, [r3, #8]
 2381 0048 0C48     		ldr	r0, .L251+16
 2382              	.LVL277:
 279:../switch_sdk/core/yt/yt_l2.c ****     CMM_PARAM_CHK((!(YT_DISPATCH(unit)->is_inited)), CMM_ERR_NOT_INIT);
 2383              		.loc 1 279 5 is_stmt 0 discriminator 3 view .LVU657
 2384 004a FFF7FEFF 		bl	osal_printf
 2385              	.LVL278:
 2386 004e F5E7     		b	.L241
 2387              	.LVL279:
 2388              	.L247:
 279:../switch_sdk/core/yt/yt_l2.c ****     CMM_PARAM_CHK((!(YT_DISPATCH(unit)->is_inited)), CMM_ERR_NOT_INIT);
 2389              		.loc 1 279 5 discriminator 3 view .LVU658
 2390              	.LBE48:
 280:../switch_sdk/core/yt/yt_l2.c **** 
 2391              		.loc 1 280 5 is_stmt 1 discriminator 1 view .LVU659
 280:../switch_sdk/core/yt/yt_l2.c **** 
 2392              		.loc 1 280 5 discriminator 1 view .LVU660
 2393 0050 074B     		ldr	r3, .L251+4
 2394 0052 1B78     		ldrb	r3, [r3]	@ zero_extendqisi2
 2395 0054 012B     		cmp	r3, #1
 2396 0056 01D8     		bhi	.L250
 2397              	.LVL280:
 2398              	.L243:
 280:../switch_sdk/core/yt/yt_l2.c **** 
 2399              		.loc 1 280 5 discriminator 5 view .LVU661
 280:../switch_sdk/core/yt/yt_l2.c **** 
 2400              		.loc 1 280 5 discriminator 5 view .LVU662
 280:../switch_sdk/core/yt/yt_l2.c **** 
 2401              		.loc 1 280 5 discriminator 5 view .LVU663
 2402 0058 0420     		movs	r0, #4
 2403 005a DCE7     		b	.L236
 2404              	.LVL281:
 2405              	.L250:
 280:../switch_sdk/core/yt/yt_l2.c **** 
 2406              		.loc 1 280 5 discriminator 3 view .LVU664
 2407              	.LBB49:
 280:../switch_sdk/core/yt/yt_l2.c **** 
 2408              		.loc 1 280 5 discriminator 3 view .LVU665
 2409 005c 054B     		ldr	r3, .L251+8
 2410 005e 1A69     		ldr	r2, [r3, #16]
 2411 0060 054B     		ldr	r3, .L251+12
 2412 0062 9968     		ldr	r1, [r3, #8]
 2413 0064 0548     		ldr	r0, .L251+16
 2414              	.LVL282:
 280:../switch_sdk/core/yt/yt_l2.c **** 
 2415              		.loc 1 280 5 is_stmt 0 discriminator 3 view .LVU666
 2416 0066 FFF7FEFF 		bl	osal_printf
 2417              	.LVL283:
 2418 006a F5E7     		b	.L243
 2419              	.L252:
 2420              		.align	2
 2421              	.L251:
 2422 006c 00000000 		.word	gpfal_dispatch
 2423 0070 00000000 		.word	yt_debug_level
 2424 0074 00000000 		.word	_yt_errmsg
 2425 0078 00000000 		.word	_yt_prompt_msg
 2426 007c 00000000 		.word	.LC0
 2427              	.LBE49:
 2428              		.cfi_endproc
 2429              	.LFE14:
 2431              		.section	.text.yt_l2_port_mcast_flush,"ax",%progbits
 2432              		.align	1
 2433              		.global	yt_l2_port_mcast_flush
 2434              		.syntax unified
 2435              		.thumb
 2436              		.thumb_func
 2438              	yt_l2_port_mcast_flush:
 2439              	.LVL284:
 2440              	.LFB15:
 284:../switch_sdk/core/yt/yt_l2.c **** 
 285:../switch_sdk/core/yt/yt_l2.c **** /**
 286:../switch_sdk/core/yt/yt_l2.c ****  * @internal      yt_l2_port_mcast_flush
 287:../switch_sdk/core/yt/yt_l2.c ****  * @endinternal
 288:../switch_sdk/core/yt/yt_l2.c ****  *
 289:../switch_sdk/core/yt/yt_l2.c ****  * @brief         Description
 290:../switch_sdk/core/yt/yt_l2.c ****  * @note          APPLICABLE DEVICES  -Tiger
 291:../switch_sdk/core/yt/yt_l2.c ****  * @param[in]     unit                -unit id
 292:../switch_sdk/core/yt/yt_l2.c ****  * @param[in]     port                -port num
 293:../switch_sdk/core/yt/yt_l2.c ****  * @retval        CMM_ERR_OK          -on success
 294:../switch_sdk/core/yt/yt_l2.c ****  * @retval        CMM_ERR_FAIL        -on fail
 295:../switch_sdk/core/yt/yt_l2.c ****  */
 296:../switch_sdk/core/yt/yt_l2.c **** yt_ret_t yt_l2_port_mcast_flush(yt_unit_t unit, yt_port_t port)
 297:../switch_sdk/core/yt/yt_l2.c **** {
 2441              		.loc 1 297 1 is_stmt 1 view -0
 2442              		.cfi_startproc
 2443              		@ args = 0, pretend = 0, frame = 0
 2444              		@ frame_needed = 0, uses_anonymous_args = 0
 2445              		.loc 1 297 1 is_stmt 0 view .LVU668
 2446 0000 08B5     		push	{r3, lr}
 2447              		.cfi_def_cfa_offset 8
 2448              		.cfi_offset 3, -8
 2449              		.cfi_offset 14, -4
 298:../switch_sdk/core/yt/yt_l2.c ****     CMM_PARAM_CHK((YT_UNIT_NUM <= unit), CMM_ERR_INPUT);
 2450              		.loc 1 298 5 is_stmt 1 view .LVU669
 2451              		.loc 1 298 5 view .LVU670
 2452 0002 A8B9     		cbnz	r0, .L265
 2453 0004 0246     		mov	r2, r0
 2454              		.loc 1 298 5 discriminator 2 view .LVU671
 299:../switch_sdk/core/yt/yt_l2.c ****     CMM_PARAM_CHK(NULL == YT_DISPATCH(unit), CMM_ERR_NOT_INIT);
 2455              		.loc 1 299 5 discriminator 2 view .LVU672
 2456              		.loc 1 299 5 discriminator 2 view .LVU673
 2457 0006 264B     		ldr	r3, .L272
 2458 0008 53F82030 		ldr	r3, [r3, r0, lsl #2]
 2459 000c F3B1     		cbz	r3, .L266
 2460              		.loc 1 299 5 discriminator 2 view .LVU674
 300:../switch_sdk/core/yt/yt_l2.c ****     CMM_PARAM_CHK((!(YT_DISPATCH(unit)->is_inited)), CMM_ERR_NOT_INIT);
 2461              		.loc 1 300 5 discriminator 2 view .LVU675
 2462              		.loc 1 300 5 discriminator 2 view .LVU676
 2463 000e 1878     		ldrb	r0, [r3]	@ zero_extendqisi2
 2464              	.LVL285:
 2465              		.loc 1 300 5 is_stmt 0 discriminator 2 view .LVU677
 2466 0010 50B3     		cbz	r0, .L267
 2467              		.loc 1 300 5 is_stmt 1 discriminator 2 view .LVU678
 301:../switch_sdk/core/yt/yt_l2.c ****     CMM_PARAM_CHK((!(CMM_PORT_VALID(unit, port))), CMM_ERR_PORT);
 2468              		.loc 1 301 5 discriminator 2 view .LVU679
 2469              		.loc 1 301 5 discriminator 2 view .LVU680
 2470 0012 2448     		ldr	r0, .L272+4
 2471 0014 0078     		ldrb	r0, [r0]	@ zero_extendqisi2
 2472 0016 0028     		cmp	r0, #0
 2473 0018 34D0     		beq	.L261
 2474 001a 2348     		ldr	r0, .L272+8
 2475 001c 50F82200 		ldr	r0, [r0, r2, lsl #2]
 2476 0020 007D     		ldrb	r0, [r0, #20]	@ zero_extendqisi2
 2477 0022 8842     		cmp	r0, r1
 2478 0024 2ED9     		bls	.L261
 2479              		.loc 1 301 5 discriminator 4 view .LVU681
 302:../switch_sdk/core/yt/yt_l2.c **** 
 303:../switch_sdk/core/yt/yt_l2.c ****     return YT_DISPATCH(unit)->l2_port_mcast_flush(unit, port);
 2480              		.loc 1 303 5 discriminator 4 view .LVU682
 2481              		.loc 1 303 29 is_stmt 0 discriminator 4 view .LVU683
 2482 0026 D3F86C33 		ldr	r3, [r3, #876]
 2483              		.loc 1 303 12 discriminator 4 view .LVU684
 2484 002a 1046     		mov	r0, r2
 2485 002c 9847     		blx	r3
 2486              	.LVL286:
 2487              	.L253:
 304:../switch_sdk/core/yt/yt_l2.c **** }
 2488              		.loc 1 304 1 view .LVU685
 2489 002e 08BD     		pop	{r3, pc}
 2490              	.LVL287:
 2491              	.L265:
 298:../switch_sdk/core/yt/yt_l2.c ****     CMM_PARAM_CHK(NULL == YT_DISPATCH(unit), CMM_ERR_NOT_INIT);
 2492              		.loc 1 298 5 is_stmt 1 discriminator 1 view .LVU686
 298:../switch_sdk/core/yt/yt_l2.c ****     CMM_PARAM_CHK(NULL == YT_DISPATCH(unit), CMM_ERR_NOT_INIT);
 2493              		.loc 1 298 5 discriminator 1 view .LVU687
 2494 0030 1E4B     		ldr	r3, .L272+12
 2495 0032 1B78     		ldrb	r3, [r3]	@ zero_extendqisi2
 2496 0034 012B     		cmp	r3, #1
 2497 0036 01D8     		bhi	.L268
 2498              	.LVL288:
 2499              	.L255:
 298:../switch_sdk/core/yt/yt_l2.c ****     CMM_PARAM_CHK(NULL == YT_DISPATCH(unit), CMM_ERR_NOT_INIT);
 2500              		.loc 1 298 5 discriminator 5 view .LVU688
 298:../switch_sdk/core/yt/yt_l2.c ****     CMM_PARAM_CHK(NULL == YT_DISPATCH(unit), CMM_ERR_NOT_INIT);
 2501              		.loc 1 298 5 discriminator 5 view .LVU689
 298:../switch_sdk/core/yt/yt_l2.c ****     CMM_PARAM_CHK(NULL == YT_DISPATCH(unit), CMM_ERR_NOT_INIT);
 2502              		.loc 1 298 5 discriminator 5 view .LVU690
 2503 0038 0520     		movs	r0, #5
 2504 003a F8E7     		b	.L253
 2505              	.LVL289:
 2506              	.L268:
 298:../switch_sdk/core/yt/yt_l2.c ****     CMM_PARAM_CHK(NULL == YT_DISPATCH(unit), CMM_ERR_NOT_INIT);
 2507              		.loc 1 298 5 discriminator 3 view .LVU691
 2508              	.LBB50:
 298:../switch_sdk/core/yt/yt_l2.c ****     CMM_PARAM_CHK(NULL == YT_DISPATCH(unit), CMM_ERR_NOT_INIT);
 2509              		.loc 1 298 5 discriminator 3 view .LVU692
 2510 003c 1C4B     		ldr	r3, .L272+16
 2511 003e 5A69     		ldr	r2, [r3, #20]
 2512 0040 1C4B     		ldr	r3, .L272+20
 2513 0042 9968     		ldr	r1, [r3, #8]
 2514              	.LVL290:
 298:../switch_sdk/core/yt/yt_l2.c ****     CMM_PARAM_CHK(NULL == YT_DISPATCH(unit), CMM_ERR_NOT_INIT);
 2515              		.loc 1 298 5 is_stmt 0 discriminator 3 view .LVU693
 2516 0044 1C48     		ldr	r0, .L272+24
 2517              	.LVL291:
 298:../switch_sdk/core/yt/yt_l2.c ****     CMM_PARAM_CHK(NULL == YT_DISPATCH(unit), CMM_ERR_NOT_INIT);
 2518              		.loc 1 298 5 discriminator 3 view .LVU694
 2519 0046 FFF7FEFF 		bl	osal_printf
 2520              	.LVL292:
 2521 004a F5E7     		b	.L255
 2522              	.LVL293:
 2523              	.L266:
 298:../switch_sdk/core/yt/yt_l2.c ****     CMM_PARAM_CHK(NULL == YT_DISPATCH(unit), CMM_ERR_NOT_INIT);
 2524              		.loc 1 298 5 discriminator 3 view .LVU695
 2525              	.LBE50:
 299:../switch_sdk/core/yt/yt_l2.c ****     CMM_PARAM_CHK((!(YT_DISPATCH(unit)->is_inited)), CMM_ERR_NOT_INIT);
 2526              		.loc 1 299 5 is_stmt 1 discriminator 1 view .LVU696
 299:../switch_sdk/core/yt/yt_l2.c ****     CMM_PARAM_CHK((!(YT_DISPATCH(unit)->is_inited)), CMM_ERR_NOT_INIT);
 2527              		.loc 1 299 5 discriminator 1 view .LVU697
 2528 004c 174B     		ldr	r3, .L272+12
 2529 004e 1B78     		ldrb	r3, [r3]	@ zero_extendqisi2
 2530 0050 012B     		cmp	r3, #1
 2531 0052 01D8     		bhi	.L269
 2532              	.LVL294:
 2533              	.L258:
 299:../switch_sdk/core/yt/yt_l2.c ****     CMM_PARAM_CHK((!(YT_DISPATCH(unit)->is_inited)), CMM_ERR_NOT_INIT);
 2534              		.loc 1 299 5 discriminator 5 view .LVU698
 299:../switch_sdk/core/yt/yt_l2.c ****     CMM_PARAM_CHK((!(YT_DISPATCH(unit)->is_inited)), CMM_ERR_NOT_INIT);
 2535              		.loc 1 299 5 discriminator 5 view .LVU699
 299:../switch_sdk/core/yt/yt_l2.c ****     CMM_PARAM_CHK((!(YT_DISPATCH(unit)->is_inited)), CMM_ERR_NOT_INIT);
 2536              		.loc 1 299 5 discriminator 5 view .LVU700
 2537 0054 0420     		movs	r0, #4
 2538 0056 EAE7     		b	.L253
 2539              	.LVL295:
 2540              	.L269:
 299:../switch_sdk/core/yt/yt_l2.c ****     CMM_PARAM_CHK((!(YT_DISPATCH(unit)->is_inited)), CMM_ERR_NOT_INIT);
 2541              		.loc 1 299 5 discriminator 3 view .LVU701
 2542              	.LBB51:
 299:../switch_sdk/core/yt/yt_l2.c ****     CMM_PARAM_CHK((!(YT_DISPATCH(unit)->is_inited)), CMM_ERR_NOT_INIT);
 2543              		.loc 1 299 5 discriminator 3 view .LVU702
 2544 0058 154B     		ldr	r3, .L272+16
 2545 005a 1A69     		ldr	r2, [r3, #16]
 2546 005c 154B     		ldr	r3, .L272+20
 2547 005e 9968     		ldr	r1, [r3, #8]
 2548              	.LVL296:
 299:../switch_sdk/core/yt/yt_l2.c ****     CMM_PARAM_CHK((!(YT_DISPATCH(unit)->is_inited)), CMM_ERR_NOT_INIT);
 2549              		.loc 1 299 5 is_stmt 0 discriminator 3 view .LVU703
 2550 0060 1548     		ldr	r0, .L272+24
 2551              	.LVL297:
 299:../switch_sdk/core/yt/yt_l2.c ****     CMM_PARAM_CHK((!(YT_DISPATCH(unit)->is_inited)), CMM_ERR_NOT_INIT);
 2552              		.loc 1 299 5 discriminator 3 view .LVU704
 2553 0062 FFF7FEFF 		bl	osal_printf
 2554              	.LVL298:
 2555 0066 F5E7     		b	.L258
 2556              	.LVL299:
 2557              	.L267:
 299:../switch_sdk/core/yt/yt_l2.c ****     CMM_PARAM_CHK((!(YT_DISPATCH(unit)->is_inited)), CMM_ERR_NOT_INIT);
 2558              		.loc 1 299 5 discriminator 3 view .LVU705
 2559              	.LBE51:
 300:../switch_sdk/core/yt/yt_l2.c ****     CMM_PARAM_CHK((!(CMM_PORT_VALID(unit, port))), CMM_ERR_PORT);
 2560              		.loc 1 300 5 is_stmt 1 discriminator 1 view .LVU706
 300:../switch_sdk/core/yt/yt_l2.c ****     CMM_PARAM_CHK((!(CMM_PORT_VALID(unit, port))), CMM_ERR_PORT);
 2561              		.loc 1 300 5 discriminator 1 view .LVU707
 2562 0068 104B     		ldr	r3, .L272+12
 2563 006a 1B78     		ldrb	r3, [r3]	@ zero_extendqisi2
 2564 006c 012B     		cmp	r3, #1
 2565 006e 01D8     		bhi	.L270
 2566              	.LVL300:
 2567              	.L260:
 300:../switch_sdk/core/yt/yt_l2.c ****     CMM_PARAM_CHK((!(CMM_PORT_VALID(unit, port))), CMM_ERR_PORT);
 2568              		.loc 1 300 5 discriminator 5 view .LVU708
 300:../switch_sdk/core/yt/yt_l2.c ****     CMM_PARAM_CHK((!(CMM_PORT_VALID(unit, port))), CMM_ERR_PORT);
 2569              		.loc 1 300 5 discriminator 5 view .LVU709
 300:../switch_sdk/core/yt/yt_l2.c ****     CMM_PARAM_CHK((!(CMM_PORT_VALID(unit, port))), CMM_ERR_PORT);
 2570              		.loc 1 300 5 discriminator 5 view .LVU710
 2571 0070 0420     		movs	r0, #4
 2572 0072 DCE7     		b	.L253
 2573              	.LVL301:
 2574              	.L270:
 300:../switch_sdk/core/yt/yt_l2.c ****     CMM_PARAM_CHK((!(CMM_PORT_VALID(unit, port))), CMM_ERR_PORT);
 2575              		.loc 1 300 5 discriminator 3 view .LVU711
 2576              	.LBB52:
 300:../switch_sdk/core/yt/yt_l2.c ****     CMM_PARAM_CHK((!(CMM_PORT_VALID(unit, port))), CMM_ERR_PORT);
 2577              		.loc 1 300 5 discriminator 3 view .LVU712
 2578 0074 0E4B     		ldr	r3, .L272+16
 2579 0076 1A69     		ldr	r2, [r3, #16]
 2580 0078 0E4B     		ldr	r3, .L272+20
 2581 007a 9968     		ldr	r1, [r3, #8]
 2582              	.LVL302:
 300:../switch_sdk/core/yt/yt_l2.c ****     CMM_PARAM_CHK((!(CMM_PORT_VALID(unit, port))), CMM_ERR_PORT);
 2583              		.loc 1 300 5 is_stmt 0 discriminator 3 view .LVU713
 2584 007c 0E48     		ldr	r0, .L272+24
 2585 007e FFF7FEFF 		bl	osal_printf
 2586              	.LVL303:
 2587 0082 F5E7     		b	.L260
 2588              	.LVL304:
 2589              	.L261:
 300:../switch_sdk/core/yt/yt_l2.c ****     CMM_PARAM_CHK((!(CMM_PORT_VALID(unit, port))), CMM_ERR_PORT);
 2590              		.loc 1 300 5 discriminator 3 view .LVU714
 2591              	.LBE52:
 301:../switch_sdk/core/yt/yt_l2.c **** 
 2592              		.loc 1 301 5 is_stmt 1 discriminator 3 view .LVU715
 301:../switch_sdk/core/yt/yt_l2.c **** 
 2593              		.loc 1 301 5 discriminator 3 view .LVU716
 2594 0084 094B     		ldr	r3, .L272+12
 2595 0086 1B78     		ldrb	r3, [r3]	@ zero_extendqisi2
 2596 0088 012B     		cmp	r3, #1
 2597 008a 01D8     		bhi	.L271
 2598              	.LVL305:
 2599              	.L263:
 301:../switch_sdk/core/yt/yt_l2.c **** 
 2600              		.loc 1 301 5 discriminator 7 view .LVU717
 301:../switch_sdk/core/yt/yt_l2.c **** 
 2601              		.loc 1 301 5 discriminator 7 view .LVU718
 301:../switch_sdk/core/yt/yt_l2.c **** 
 2602              		.loc 1 301 5 discriminator 7 view .LVU719
 2603 008c 0E20     		movs	r0, #14
 2604 008e CEE7     		b	.L253
 2605              	.LVL306:
 2606              	.L271:
 301:../switch_sdk/core/yt/yt_l2.c **** 
 2607              		.loc 1 301 5 discriminator 5 view .LVU720
 2608              	.LBB53:
 301:../switch_sdk/core/yt/yt_l2.c **** 
 2609              		.loc 1 301 5 discriminator 5 view .LVU721
 2610 0090 074B     		ldr	r3, .L272+16
 2611 0092 9A6B     		ldr	r2, [r3, #56]
 2612 0094 074B     		ldr	r3, .L272+20
 2613 0096 9968     		ldr	r1, [r3, #8]
 2614              	.LVL307:
 301:../switch_sdk/core/yt/yt_l2.c **** 
 2615              		.loc 1 301 5 is_stmt 0 discriminator 5 view .LVU722
 2616 0098 0748     		ldr	r0, .L272+24
 2617 009a FFF7FEFF 		bl	osal_printf
 2618              	.LVL308:
 2619 009e F5E7     		b	.L263
 2620              	.L273:
 2621              		.align	2
 2622              	.L272:
 2623 00a0 00000000 		.word	gpfal_dispatch
 2624 00a4 00000000 		.word	gcal_inited
 2625 00a8 00000000 		.word	gpSwitchUnit
 2626 00ac 00000000 		.word	yt_debug_level
 2627 00b0 00000000 		.word	_yt_errmsg
 2628 00b4 00000000 		.word	_yt_prompt_msg
 2629 00b8 00000000 		.word	.LC0
 2630              	.LBE53:
 2631              		.cfi_endproc
 2632              	.LFE15:
 2634              		.section	.text.yt_l2_vlan_mcast_flush,"ax",%progbits
 2635              		.align	1
 2636              		.global	yt_l2_vlan_mcast_flush
 2637              		.syntax unified
 2638              		.thumb
 2639              		.thumb_func
 2641              	yt_l2_vlan_mcast_flush:
 2642              	.LVL309:
 2643              	.LFB16:
 305:../switch_sdk/core/yt/yt_l2.c **** 
 306:../switch_sdk/core/yt/yt_l2.c **** /**
 307:../switch_sdk/core/yt/yt_l2.c ****  * @internal      yt_l2_vlan_mcast_flush
 308:../switch_sdk/core/yt/yt_l2.c ****  * @endinternal
 309:../switch_sdk/core/yt/yt_l2.c ****  *
 310:../switch_sdk/core/yt/yt_l2.c ****  * @brief         Description
 311:../switch_sdk/core/yt/yt_l2.c ****  * @note          APPLICABLE DEVICES  -Tiger
 312:../switch_sdk/core/yt/yt_l2.c ****  * @param[in]     unit                -unit id
 313:../switch_sdk/core/yt/yt_l2.c ****  * @param[in]     vid                 -vlan id
 314:../switch_sdk/core/yt/yt_l2.c ****  * @retval        CMM_ERR_OK          -on success
 315:../switch_sdk/core/yt/yt_l2.c ****  * @retval        CMM_ERR_FAIL        -on fail
 316:../switch_sdk/core/yt/yt_l2.c ****  */
 317:../switch_sdk/core/yt/yt_l2.c **** yt_ret_t yt_l2_vlan_mcast_flush(yt_unit_t unit, yt_vlan_t vid)
 318:../switch_sdk/core/yt/yt_l2.c **** {
 2644              		.loc 1 318 1 is_stmt 1 view -0
 2645              		.cfi_startproc
 2646              		@ args = 0, pretend = 0, frame = 0
 2647              		@ frame_needed = 0, uses_anonymous_args = 0
 2648              		.loc 1 318 1 is_stmt 0 view .LVU724
 2649 0000 08B5     		push	{r3, lr}
 2650              		.cfi_def_cfa_offset 8
 2651              		.cfi_offset 3, -8
 2652              		.cfi_offset 14, -4
 319:../switch_sdk/core/yt/yt_l2.c ****     CMM_PARAM_CHK((YT_UNIT_NUM <= unit), CMM_ERR_INPUT);
 2653              		.loc 1 319 5 is_stmt 1 view .LVU725
 2654              		.loc 1 319 5 view .LVU726
 2655 0002 70B9     		cbnz	r0, .L285
 2656 0004 0246     		mov	r2, r0
 2657              		.loc 1 319 5 discriminator 2 view .LVU727
 320:../switch_sdk/core/yt/yt_l2.c ****     CMM_PARAM_CHK(NULL == YT_DISPATCH(unit), CMM_ERR_NOT_INIT);
 2658              		.loc 1 320 5 discriminator 2 view .LVU728
 2659              		.loc 1 320 5 discriminator 2 view .LVU729
 2660 0006 234B     		ldr	r3, .L293
 2661 0008 53F82030 		ldr	r3, [r3, r0, lsl #2]
 2662 000c BBB1     		cbz	r3, .L286
 2663              		.loc 1 320 5 discriminator 2 view .LVU730
 321:../switch_sdk/core/yt/yt_l2.c ****     CMM_PARAM_CHK((!(YT_DISPATCH(unit)->is_inited)), CMM_ERR_NOT_INIT);
 2664              		.loc 1 321 5 discriminator 2 view .LVU731
 2665              		.loc 1 321 5 discriminator 2 view .LVU732
 2666 000e 1878     		ldrb	r0, [r3]	@ zero_extendqisi2
 2667              	.LVL310:
 2668              		.loc 1 321 5 is_stmt 0 discriminator 2 view .LVU733
 2669 0010 18B3     		cbz	r0, .L287
 2670              		.loc 1 321 5 is_stmt 1 discriminator 2 view .LVU734
 322:../switch_sdk/core/yt/yt_l2.c ****     CMM_PARAM_CHK((YT_VLAN_ID_MAX < vid), CMM_ERR_EXCEED_RANGE);
 2671              		.loc 1 322 5 discriminator 2 view .LVU735
 2672              		.loc 1 322 5 discriminator 2 view .LVU736
 2673 0012 B1F5805F 		cmp	r1, #4096
 2674 0016 2ED2     		bcs	.L288
 2675              		.loc 1 322 5 discriminator 2 view .LVU737
 323:../switch_sdk/core/yt/yt_l2.c **** 
 324:../switch_sdk/core/yt/yt_l2.c ****     return YT_DISPATCH(unit)->l2_vlan_mcast_flush(unit, vid);
 2676              		.loc 1 324 5 discriminator 2 view .LVU738
 2677              		.loc 1 324 29 is_stmt 0 discriminator 2 view .LVU739
 2678 0018 D3F87033 		ldr	r3, [r3, #880]
 2679              		.loc 1 324 12 discriminator 2 view .LVU740
 2680 001c 1046     		mov	r0, r2
 2681 001e 9847     		blx	r3
 2682              	.LVL311:
 2683              	.L274:
 325:../switch_sdk/core/yt/yt_l2.c **** }
 2684              		.loc 1 325 1 view .LVU741
 2685 0020 08BD     		pop	{r3, pc}
 2686              	.LVL312:
 2687              	.L285:
 319:../switch_sdk/core/yt/yt_l2.c ****     CMM_PARAM_CHK(NULL == YT_DISPATCH(unit), CMM_ERR_NOT_INIT);
 2688              		.loc 1 319 5 is_stmt 1 discriminator 1 view .LVU742
 319:../switch_sdk/core/yt/yt_l2.c ****     CMM_PARAM_CHK(NULL == YT_DISPATCH(unit), CMM_ERR_NOT_INIT);
 2689              		.loc 1 319 5 discriminator 1 view .LVU743
 2690 0022 1D4B     		ldr	r3, .L293+4
 2691 0024 1B78     		ldrb	r3, [r3]	@ zero_extendqisi2
 2692 0026 012B     		cmp	r3, #1
 2693 0028 01D8     		bhi	.L289
 2694              	.LVL313:
 2695              	.L276:
 319:../switch_sdk/core/yt/yt_l2.c ****     CMM_PARAM_CHK(NULL == YT_DISPATCH(unit), CMM_ERR_NOT_INIT);
 2696              		.loc 1 319 5 discriminator 5 view .LVU744
 319:../switch_sdk/core/yt/yt_l2.c ****     CMM_PARAM_CHK(NULL == YT_DISPATCH(unit), CMM_ERR_NOT_INIT);
 2697              		.loc 1 319 5 discriminator 5 view .LVU745
 319:../switch_sdk/core/yt/yt_l2.c ****     CMM_PARAM_CHK(NULL == YT_DISPATCH(unit), CMM_ERR_NOT_INIT);
 2698              		.loc 1 319 5 discriminator 5 view .LVU746
 2699 002a 0520     		movs	r0, #5
 2700 002c F8E7     		b	.L274
 2701              	.LVL314:
 2702              	.L289:
 319:../switch_sdk/core/yt/yt_l2.c ****     CMM_PARAM_CHK(NULL == YT_DISPATCH(unit), CMM_ERR_NOT_INIT);
 2703              		.loc 1 319 5 discriminator 3 view .LVU747
 2704              	.LBB54:
 319:../switch_sdk/core/yt/yt_l2.c ****     CMM_PARAM_CHK(NULL == YT_DISPATCH(unit), CMM_ERR_NOT_INIT);
 2705              		.loc 1 319 5 discriminator 3 view .LVU748
 2706 002e 1B4B     		ldr	r3, .L293+8
 2707 0030 5A69     		ldr	r2, [r3, #20]
 2708 0032 1B4B     		ldr	r3, .L293+12
 2709 0034 9968     		ldr	r1, [r3, #8]
 2710              	.LVL315:
 319:../switch_sdk/core/yt/yt_l2.c ****     CMM_PARAM_CHK(NULL == YT_DISPATCH(unit), CMM_ERR_NOT_INIT);
 2711              		.loc 1 319 5 is_stmt 0 discriminator 3 view .LVU749
 2712 0036 1B48     		ldr	r0, .L293+16
 2713              	.LVL316:
 319:../switch_sdk/core/yt/yt_l2.c ****     CMM_PARAM_CHK(NULL == YT_DISPATCH(unit), CMM_ERR_NOT_INIT);
 2714              		.loc 1 319 5 discriminator 3 view .LVU750
 2715 0038 FFF7FEFF 		bl	osal_printf
 2716              	.LVL317:
 2717 003c F5E7     		b	.L276
 2718              	.LVL318:
 2719              	.L286:
 319:../switch_sdk/core/yt/yt_l2.c ****     CMM_PARAM_CHK(NULL == YT_DISPATCH(unit), CMM_ERR_NOT_INIT);
 2720              		.loc 1 319 5 discriminator 3 view .LVU751
 2721              	.LBE54:
 320:../switch_sdk/core/yt/yt_l2.c ****     CMM_PARAM_CHK((!(YT_DISPATCH(unit)->is_inited)), CMM_ERR_NOT_INIT);
 2722              		.loc 1 320 5 is_stmt 1 discriminator 1 view .LVU752
 320:../switch_sdk/core/yt/yt_l2.c ****     CMM_PARAM_CHK((!(YT_DISPATCH(unit)->is_inited)), CMM_ERR_NOT_INIT);
 2723              		.loc 1 320 5 discriminator 1 view .LVU753
 2724 003e 164B     		ldr	r3, .L293+4
 2725 0040 1B78     		ldrb	r3, [r3]	@ zero_extendqisi2
 2726 0042 012B     		cmp	r3, #1
 2727 0044 01D8     		bhi	.L290
 2728              	.LVL319:
 2729              	.L279:
 320:../switch_sdk/core/yt/yt_l2.c ****     CMM_PARAM_CHK((!(YT_DISPATCH(unit)->is_inited)), CMM_ERR_NOT_INIT);
 2730              		.loc 1 320 5 discriminator 5 view .LVU754
 320:../switch_sdk/core/yt/yt_l2.c ****     CMM_PARAM_CHK((!(YT_DISPATCH(unit)->is_inited)), CMM_ERR_NOT_INIT);
 2731              		.loc 1 320 5 discriminator 5 view .LVU755
 320:../switch_sdk/core/yt/yt_l2.c ****     CMM_PARAM_CHK((!(YT_DISPATCH(unit)->is_inited)), CMM_ERR_NOT_INIT);
 2732              		.loc 1 320 5 discriminator 5 view .LVU756
 2733 0046 0420     		movs	r0, #4
 2734 0048 EAE7     		b	.L274
 2735              	.LVL320:
 2736              	.L290:
 320:../switch_sdk/core/yt/yt_l2.c ****     CMM_PARAM_CHK((!(YT_DISPATCH(unit)->is_inited)), CMM_ERR_NOT_INIT);
 2737              		.loc 1 320 5 discriminator 3 view .LVU757
 2738              	.LBB55:
 320:../switch_sdk/core/yt/yt_l2.c ****     CMM_PARAM_CHK((!(YT_DISPATCH(unit)->is_inited)), CMM_ERR_NOT_INIT);
 2739              		.loc 1 320 5 discriminator 3 view .LVU758
 2740 004a 144B     		ldr	r3, .L293+8
 2741 004c 1A69     		ldr	r2, [r3, #16]
 2742 004e 144B     		ldr	r3, .L293+12
 2743 0050 9968     		ldr	r1, [r3, #8]
 2744              	.LVL321:
 320:../switch_sdk/core/yt/yt_l2.c ****     CMM_PARAM_CHK((!(YT_DISPATCH(unit)->is_inited)), CMM_ERR_NOT_INIT);
 2745              		.loc 1 320 5 is_stmt 0 discriminator 3 view .LVU759
 2746 0052 1448     		ldr	r0, .L293+16
 2747              	.LVL322:
 320:../switch_sdk/core/yt/yt_l2.c ****     CMM_PARAM_CHK((!(YT_DISPATCH(unit)->is_inited)), CMM_ERR_NOT_INIT);
 2748              		.loc 1 320 5 discriminator 3 view .LVU760
 2749 0054 FFF7FEFF 		bl	osal_printf
 2750              	.LVL323:
 2751 0058 F5E7     		b	.L279
 2752              	.LVL324:
 2753              	.L287:
 320:../switch_sdk/core/yt/yt_l2.c ****     CMM_PARAM_CHK((!(YT_DISPATCH(unit)->is_inited)), CMM_ERR_NOT_INIT);
 2754              		.loc 1 320 5 discriminator 3 view .LVU761
 2755              	.LBE55:
 321:../switch_sdk/core/yt/yt_l2.c ****     CMM_PARAM_CHK((YT_VLAN_ID_MAX < vid), CMM_ERR_EXCEED_RANGE);
 2756              		.loc 1 321 5 is_stmt 1 discriminator 1 view .LVU762
 321:../switch_sdk/core/yt/yt_l2.c ****     CMM_PARAM_CHK((YT_VLAN_ID_MAX < vid), CMM_ERR_EXCEED_RANGE);
 2757              		.loc 1 321 5 discriminator 1 view .LVU763
 2758 005a 0F4B     		ldr	r3, .L293+4
 2759 005c 1B78     		ldrb	r3, [r3]	@ zero_extendqisi2
 2760 005e 012B     		cmp	r3, #1
 2761 0060 01D8     		bhi	.L291
 2762              	.LVL325:
 2763              	.L281:
 321:../switch_sdk/core/yt/yt_l2.c ****     CMM_PARAM_CHK((YT_VLAN_ID_MAX < vid), CMM_ERR_EXCEED_RANGE);
 2764              		.loc 1 321 5 discriminator 5 view .LVU764
 321:../switch_sdk/core/yt/yt_l2.c ****     CMM_PARAM_CHK((YT_VLAN_ID_MAX < vid), CMM_ERR_EXCEED_RANGE);
 2765              		.loc 1 321 5 discriminator 5 view .LVU765
 321:../switch_sdk/core/yt/yt_l2.c ****     CMM_PARAM_CHK((YT_VLAN_ID_MAX < vid), CMM_ERR_EXCEED_RANGE);
 2766              		.loc 1 321 5 discriminator 5 view .LVU766
 2767 0062 0420     		movs	r0, #4
 2768 0064 DCE7     		b	.L274
 2769              	.LVL326:
 2770              	.L291:
 321:../switch_sdk/core/yt/yt_l2.c ****     CMM_PARAM_CHK((YT_VLAN_ID_MAX < vid), CMM_ERR_EXCEED_RANGE);
 2771              		.loc 1 321 5 discriminator 3 view .LVU767
 2772              	.LBB56:
 321:../switch_sdk/core/yt/yt_l2.c ****     CMM_PARAM_CHK((YT_VLAN_ID_MAX < vid), CMM_ERR_EXCEED_RANGE);
 2773              		.loc 1 321 5 discriminator 3 view .LVU768
 2774 0066 0D4B     		ldr	r3, .L293+8
 2775 0068 1A69     		ldr	r2, [r3, #16]
 2776 006a 0D4B     		ldr	r3, .L293+12
 2777 006c 9968     		ldr	r1, [r3, #8]
 2778              	.LVL327:
 321:../switch_sdk/core/yt/yt_l2.c ****     CMM_PARAM_CHK((YT_VLAN_ID_MAX < vid), CMM_ERR_EXCEED_RANGE);
 2779              		.loc 1 321 5 is_stmt 0 discriminator 3 view .LVU769
 2780 006e 0D48     		ldr	r0, .L293+16
 2781 0070 FFF7FEFF 		bl	osal_printf
 2782              	.LVL328:
 2783 0074 F5E7     		b	.L281
 2784              	.LVL329:
 2785              	.L288:
 321:../switch_sdk/core/yt/yt_l2.c ****     CMM_PARAM_CHK((YT_VLAN_ID_MAX < vid), CMM_ERR_EXCEED_RANGE);
 2786              		.loc 1 321 5 discriminator 3 view .LVU770
 2787              	.LBE56:
 322:../switch_sdk/core/yt/yt_l2.c **** 
 2788              		.loc 1 322 5 is_stmt 1 discriminator 1 view .LVU771
 322:../switch_sdk/core/yt/yt_l2.c **** 
 2789              		.loc 1 322 5 discriminator 1 view .LVU772
 2790 0076 084B     		ldr	r3, .L293+4
 2791 0078 1B78     		ldrb	r3, [r3]	@ zero_extendqisi2
 2792 007a 012B     		cmp	r3, #1
 2793 007c 01D8     		bhi	.L292
 2794              	.LVL330:
 2795              	.L283:
 322:../switch_sdk/core/yt/yt_l2.c **** 
 2796              		.loc 1 322 5 discriminator 5 view .LVU773
 322:../switch_sdk/core/yt/yt_l2.c **** 
 2797              		.loc 1 322 5 discriminator 5 view .LVU774
 322:../switch_sdk/core/yt/yt_l2.c **** 
 2798              		.loc 1 322 5 discriminator 5 view .LVU775
 2799 007e 1120     		movs	r0, #17
 2800 0080 CEE7     		b	.L274
 2801              	.LVL331:
 2802              	.L292:
 322:../switch_sdk/core/yt/yt_l2.c **** 
 2803              		.loc 1 322 5 discriminator 3 view .LVU776
 2804              	.LBB57:
 322:../switch_sdk/core/yt/yt_l2.c **** 
 2805              		.loc 1 322 5 discriminator 3 view .LVU777
 2806 0082 064B     		ldr	r3, .L293+8
 2807 0084 5A6C     		ldr	r2, [r3, #68]
 2808 0086 064B     		ldr	r3, .L293+12
 2809 0088 9968     		ldr	r1, [r3, #8]
 2810              	.LVL332:
 322:../switch_sdk/core/yt/yt_l2.c **** 
 2811              		.loc 1 322 5 is_stmt 0 discriminator 3 view .LVU778
 2812 008a 0648     		ldr	r0, .L293+16
 2813 008c FFF7FEFF 		bl	osal_printf
 2814              	.LVL333:
 2815 0090 F5E7     		b	.L283
 2816              	.L294:
 2817 0092 00BF     		.align	2
 2818              	.L293:
 2819 0094 00000000 		.word	gpfal_dispatch
 2820 0098 00000000 		.word	yt_debug_level
 2821 009c 00000000 		.word	_yt_errmsg
 2822 00a0 00000000 		.word	_yt_prompt_msg
 2823 00a4 00000000 		.word	.LC0
 2824              	.LBE57:
 2825              		.cfi_endproc
 2826              	.LFE16:
 2828              		.section	.text.yt_l2_fdb_type_get,"ax",%progbits
 2829              		.align	1
 2830              		.global	yt_l2_fdb_type_get
 2831              		.syntax unified
 2832              		.thumb
 2833              		.thumb_func
 2835              	yt_l2_fdb_type_get:
 2836              	.LVL334:
 2837              	.LFB17:
 326:../switch_sdk/core/yt/yt_l2.c **** 
 327:../switch_sdk/core/yt/yt_l2.c **** /**
 328:../switch_sdk/core/yt/yt_l2.c ****  * @internal      yt_l2_fdb_type_get
 329:../switch_sdk/core/yt/yt_l2.c ****  * @endinternal
 330:../switch_sdk/core/yt/yt_l2.c ****  *
 331:../switch_sdk/core/yt/yt_l2.c ****  * @brief         Description
 332:../switch_sdk/core/yt/yt_l2.c ****  * @note          APPLICABLE DEVICES  -Tiger
 333:../switch_sdk/core/yt/yt_l2.c ****  * @param[in]     unit                -unit id
 334:../switch_sdk/core/yt/yt_l2.c ****  * @param[in]     vid                 -vlan id
 335:../switch_sdk/core/yt/yt_l2.c ****  * @param[in]     mac_addr            -yt_types.h
 336:../switch_sdk/core/yt/yt_l2.c ****  * @param[in]     ptype               -FDB type,dynamic or static
 337:../switch_sdk/core/yt/yt_l2.c ****  * @retval        CMM_ERR_OK          -on success
 338:../switch_sdk/core/yt/yt_l2.c ****  * @retval        CMM_ERR_FAIL        -on fail
 339:../switch_sdk/core/yt/yt_l2.c ****  */
 340:../switch_sdk/core/yt/yt_l2.c **** yt_ret_t  yt_l2_fdb_type_get(yt_unit_t unit, yt_vlan_t vid, yt_mac_addr_t mac_addr, yt_l2_fdb_type_
 341:../switch_sdk/core/yt/yt_l2.c **** {
 2838              		.loc 1 341 1 is_stmt 1 view -0
 2839              		.cfi_startproc
 2840              		@ args = 4, pretend = 0, frame = 8
 2841              		@ frame_needed = 0, uses_anonymous_args = 0
 2842              		.loc 1 341 1 is_stmt 0 view .LVU780
 2843 0000 10B5     		push	{r4, lr}
 2844              		.cfi_def_cfa_offset 8
 2845              		.cfi_offset 4, -8
 2846              		.cfi_offset 14, -4
 2847 0002 84B0     		sub	sp, sp, #16
 2848              		.cfi_def_cfa_offset 24
 2849 0004 04AC     		add	r4, sp, #16
 2850 0006 04E90C00 		stmdb	r4, {r2, r3}
 342:../switch_sdk/core/yt/yt_l2.c ****     CMM_PARAM_CHK((YT_UNIT_NUM <= unit), CMM_ERR_INPUT);
 2851              		.loc 1 342 5 is_stmt 1 view .LVU781
 2852              		.loc 1 342 5 view .LVU782
 2853 000a B0B9     		cbnz	r0, .L308
 2854              		.loc 1 342 5 discriminator 2 view .LVU783
 343:../switch_sdk/core/yt/yt_l2.c ****     CMM_PARAM_CHK(NULL == YT_DISPATCH(unit), CMM_ERR_NOT_INIT);
 2855              		.loc 1 343 5 discriminator 2 view .LVU784
 2856              		.loc 1 343 5 discriminator 2 view .LVU785
 2857 000c 2E4B     		ldr	r3, .L318
 2858 000e 53F82030 		ldr	r3, [r3, r0, lsl #2]
 2859 0012 03B3     		cbz	r3, .L309
 2860              		.loc 1 343 5 discriminator 2 view .LVU786
 344:../switch_sdk/core/yt/yt_l2.c ****     CMM_PARAM_CHK((!(YT_DISPATCH(unit)->is_inited)), CMM_ERR_NOT_INIT);
 2861              		.loc 1 344 5 discriminator 2 view .LVU787
 2862              		.loc 1 344 5 discriminator 2 view .LVU788
 2863 0014 1A78     		ldrb	r2, [r3]	@ zero_extendqisi2
 2864 0016 002A     		cmp	r2, #0
 2865 0018 2BD0     		beq	.L310
 2866              		.loc 1 344 5 discriminator 2 view .LVU789
 345:../switch_sdk/core/yt/yt_l2.c ****     CMM_PARAM_CHK((YT_VLAN_ID_MAX < vid), CMM_ERR_EXCEED_RANGE);
 2867              		.loc 1 345 5 discriminator 2 view .LVU790
 2868              		.loc 1 345 5 discriminator 2 view .LVU791
 2869 001a B1F5805F 		cmp	r1, #4096
 2870 001e 36D2     		bcs	.L311
 2871              		.loc 1 345 5 discriminator 2 view .LVU792
 346:../switch_sdk/core/yt/yt_l2.c ****     CMM_PARAM_CHK((NULL == ptype), CMM_ERR_NULL_POINT);
 2872              		.loc 1 346 5 discriminator 2 view .LVU793
 2873              		.loc 1 346 5 discriminator 2 view .LVU794
 2874 0020 069A     		ldr	r2, [sp, #24]
 2875 0022 002A     		cmp	r2, #0
 2876 0024 41D0     		beq	.L312
 2877              		.loc 1 346 5 discriminator 2 view .LVU795
 347:../switch_sdk/core/yt/yt_l2.c **** 
 348:../switch_sdk/core/yt/yt_l2.c ****     return YT_DISPATCH(unit)->l2_fdb_type_get(unit, vid, mac_addr, ptype);
 2878              		.loc 1 348 5 discriminator 2 view .LVU796
 2879              		.loc 1 348 29 is_stmt 0 discriminator 2 view .LVU797
 2880 0026 D3F87443 		ldr	r4, [r3, #884]
 2881              		.loc 1 348 12 discriminator 2 view .LVU798
 2882 002a 069B     		ldr	r3, [sp, #24]
 2883 002c 0093     		str	r3, [sp]
 2884 002e 04AB     		add	r3, sp, #16
 2885 0030 13E90C00 		ldmdb	r3, {r2, r3}
 2886 0034 A047     		blx	r4
 2887              	.LVL335:
 2888              	.L295:
 349:../switch_sdk/core/yt/yt_l2.c **** }
 2889              		.loc 1 349 1 view .LVU799
 2890 0036 04B0     		add	sp, sp, #16
 2891              		.cfi_remember_state
 2892              		.cfi_def_cfa_offset 8
 2893              		@ sp needed
 2894 0038 10BD     		pop	{r4, pc}
 2895              	.LVL336:
 2896              	.L308:
 2897              		.cfi_restore_state
 342:../switch_sdk/core/yt/yt_l2.c ****     CMM_PARAM_CHK(NULL == YT_DISPATCH(unit), CMM_ERR_NOT_INIT);
 2898              		.loc 1 342 5 is_stmt 1 discriminator 1 view .LVU800
 342:../switch_sdk/core/yt/yt_l2.c ****     CMM_PARAM_CHK(NULL == YT_DISPATCH(unit), CMM_ERR_NOT_INIT);
 2899              		.loc 1 342 5 discriminator 1 view .LVU801
 2900 003a 244B     		ldr	r3, .L318+4
 2901 003c 1B78     		ldrb	r3, [r3]	@ zero_extendqisi2
 2902 003e 012B     		cmp	r3, #1
 2903 0040 01D8     		bhi	.L313
 2904              	.LVL337:
 2905              	.L297:
 342:../switch_sdk/core/yt/yt_l2.c ****     CMM_PARAM_CHK(NULL == YT_DISPATCH(unit), CMM_ERR_NOT_INIT);
 2906              		.loc 1 342 5 discriminator 5 view .LVU802
 342:../switch_sdk/core/yt/yt_l2.c ****     CMM_PARAM_CHK(NULL == YT_DISPATCH(unit), CMM_ERR_NOT_INIT);
 2907              		.loc 1 342 5 discriminator 5 view .LVU803
 342:../switch_sdk/core/yt/yt_l2.c ****     CMM_PARAM_CHK(NULL == YT_DISPATCH(unit), CMM_ERR_NOT_INIT);
 2908              		.loc 1 342 5 discriminator 5 view .LVU804
 2909 0042 0520     		movs	r0, #5
 2910 0044 F7E7     		b	.L295
 2911              	.LVL338:
 2912              	.L313:
 342:../switch_sdk/core/yt/yt_l2.c ****     CMM_PARAM_CHK(NULL == YT_DISPATCH(unit), CMM_ERR_NOT_INIT);
 2913              		.loc 1 342 5 discriminator 3 view .LVU805
 2914              	.LBB58:
 342:../switch_sdk/core/yt/yt_l2.c ****     CMM_PARAM_CHK(NULL == YT_DISPATCH(unit), CMM_ERR_NOT_INIT);
 2915              		.loc 1 342 5 discriminator 3 view .LVU806
 2916 0046 224B     		ldr	r3, .L318+8
 2917 0048 5A69     		ldr	r2, [r3, #20]
 2918 004a 224B     		ldr	r3, .L318+12
 2919 004c 9968     		ldr	r1, [r3, #8]
 2920              	.LVL339:
 342:../switch_sdk/core/yt/yt_l2.c ****     CMM_PARAM_CHK(NULL == YT_DISPATCH(unit), CMM_ERR_NOT_INIT);
 2921              		.loc 1 342 5 is_stmt 0 discriminator 3 view .LVU807
 2922 004e 2248     		ldr	r0, .L318+16
 2923              	.LVL340:
 342:../switch_sdk/core/yt/yt_l2.c ****     CMM_PARAM_CHK(NULL == YT_DISPATCH(unit), CMM_ERR_NOT_INIT);
 2924              		.loc 1 342 5 discriminator 3 view .LVU808
 2925 0050 FFF7FEFF 		bl	osal_printf
 2926              	.LVL341:
 2927 0054 F5E7     		b	.L297
 2928              	.LVL342:
 2929              	.L309:
 342:../switch_sdk/core/yt/yt_l2.c ****     CMM_PARAM_CHK(NULL == YT_DISPATCH(unit), CMM_ERR_NOT_INIT);
 2930              		.loc 1 342 5 discriminator 3 view .LVU809
 2931              	.LBE58:
 343:../switch_sdk/core/yt/yt_l2.c ****     CMM_PARAM_CHK((!(YT_DISPATCH(unit)->is_inited)), CMM_ERR_NOT_INIT);
 2932              		.loc 1 343 5 is_stmt 1 discriminator 1 view .LVU810
 343:../switch_sdk/core/yt/yt_l2.c ****     CMM_PARAM_CHK((!(YT_DISPATCH(unit)->is_inited)), CMM_ERR_NOT_INIT);
 2933              		.loc 1 343 5 discriminator 1 view .LVU811
 2934 0056 1D4B     		ldr	r3, .L318+4
 2935 0058 1B78     		ldrb	r3, [r3]	@ zero_extendqisi2
 2936 005a 012B     		cmp	r3, #1
 2937 005c 01D8     		bhi	.L314
 2938              	.LVL343:
 2939              	.L300:
 343:../switch_sdk/core/yt/yt_l2.c ****     CMM_PARAM_CHK((!(YT_DISPATCH(unit)->is_inited)), CMM_ERR_NOT_INIT);
 2940              		.loc 1 343 5 discriminator 5 view .LVU812
 343:../switch_sdk/core/yt/yt_l2.c ****     CMM_PARAM_CHK((!(YT_DISPATCH(unit)->is_inited)), CMM_ERR_NOT_INIT);
 2941              		.loc 1 343 5 discriminator 5 view .LVU813
 343:../switch_sdk/core/yt/yt_l2.c ****     CMM_PARAM_CHK((!(YT_DISPATCH(unit)->is_inited)), CMM_ERR_NOT_INIT);
 2942              		.loc 1 343 5 discriminator 5 view .LVU814
 2943 005e 0420     		movs	r0, #4
 2944 0060 E9E7     		b	.L295
 2945              	.LVL344:
 2946              	.L314:
 343:../switch_sdk/core/yt/yt_l2.c ****     CMM_PARAM_CHK((!(YT_DISPATCH(unit)->is_inited)), CMM_ERR_NOT_INIT);
 2947              		.loc 1 343 5 discriminator 3 view .LVU815
 2948              	.LBB59:
 343:../switch_sdk/core/yt/yt_l2.c ****     CMM_PARAM_CHK((!(YT_DISPATCH(unit)->is_inited)), CMM_ERR_NOT_INIT);
 2949              		.loc 1 343 5 discriminator 3 view .LVU816
 2950 0062 1B4B     		ldr	r3, .L318+8
 2951 0064 1A69     		ldr	r2, [r3, #16]
 2952 0066 1B4B     		ldr	r3, .L318+12
 2953 0068 9968     		ldr	r1, [r3, #8]
 2954              	.LVL345:
 343:../switch_sdk/core/yt/yt_l2.c ****     CMM_PARAM_CHK((!(YT_DISPATCH(unit)->is_inited)), CMM_ERR_NOT_INIT);
 2955              		.loc 1 343 5 is_stmt 0 discriminator 3 view .LVU817
 2956 006a 1B48     		ldr	r0, .L318+16
 2957              	.LVL346:
 343:../switch_sdk/core/yt/yt_l2.c ****     CMM_PARAM_CHK((!(YT_DISPATCH(unit)->is_inited)), CMM_ERR_NOT_INIT);
 2958              		.loc 1 343 5 discriminator 3 view .LVU818
 2959 006c FFF7FEFF 		bl	osal_printf
 2960              	.LVL347:
 2961 0070 F5E7     		b	.L300
 2962              	.LVL348:
 2963              	.L310:
 343:../switch_sdk/core/yt/yt_l2.c ****     CMM_PARAM_CHK((!(YT_DISPATCH(unit)->is_inited)), CMM_ERR_NOT_INIT);
 2964              		.loc 1 343 5 discriminator 3 view .LVU819
 2965              	.LBE59:
 344:../switch_sdk/core/yt/yt_l2.c ****     CMM_PARAM_CHK((YT_VLAN_ID_MAX < vid), CMM_ERR_EXCEED_RANGE);
 2966              		.loc 1 344 5 is_stmt 1 discriminator 1 view .LVU820
 344:../switch_sdk/core/yt/yt_l2.c ****     CMM_PARAM_CHK((YT_VLAN_ID_MAX < vid), CMM_ERR_EXCEED_RANGE);
 2967              		.loc 1 344 5 discriminator 1 view .LVU821
 2968 0072 164B     		ldr	r3, .L318+4
 2969 0074 1B78     		ldrb	r3, [r3]	@ zero_extendqisi2
 2970 0076 012B     		cmp	r3, #1
 2971 0078 01D8     		bhi	.L315
 2972              	.LVL349:
 2973              	.L302:
 344:../switch_sdk/core/yt/yt_l2.c ****     CMM_PARAM_CHK((YT_VLAN_ID_MAX < vid), CMM_ERR_EXCEED_RANGE);
 2974              		.loc 1 344 5 discriminator 5 view .LVU822
 344:../switch_sdk/core/yt/yt_l2.c ****     CMM_PARAM_CHK((YT_VLAN_ID_MAX < vid), CMM_ERR_EXCEED_RANGE);
 2975              		.loc 1 344 5 discriminator 5 view .LVU823
 344:../switch_sdk/core/yt/yt_l2.c ****     CMM_PARAM_CHK((YT_VLAN_ID_MAX < vid), CMM_ERR_EXCEED_RANGE);
 2976              		.loc 1 344 5 discriminator 5 view .LVU824
 2977 007a 0420     		movs	r0, #4
 2978 007c DBE7     		b	.L295
 2979              	.LVL350:
 2980              	.L315:
 344:../switch_sdk/core/yt/yt_l2.c ****     CMM_PARAM_CHK((YT_VLAN_ID_MAX < vid), CMM_ERR_EXCEED_RANGE);
 2981              		.loc 1 344 5 discriminator 3 view .LVU825
 2982              	.LBB60:
 344:../switch_sdk/core/yt/yt_l2.c ****     CMM_PARAM_CHK((YT_VLAN_ID_MAX < vid), CMM_ERR_EXCEED_RANGE);
 2983              		.loc 1 344 5 discriminator 3 view .LVU826
 2984 007e 144B     		ldr	r3, .L318+8
 2985 0080 1A69     		ldr	r2, [r3, #16]
 2986 0082 144B     		ldr	r3, .L318+12
 2987 0084 9968     		ldr	r1, [r3, #8]
 2988              	.LVL351:
 344:../switch_sdk/core/yt/yt_l2.c ****     CMM_PARAM_CHK((YT_VLAN_ID_MAX < vid), CMM_ERR_EXCEED_RANGE);
 2989              		.loc 1 344 5 is_stmt 0 discriminator 3 view .LVU827
 2990 0086 1448     		ldr	r0, .L318+16
 2991              	.LVL352:
 344:../switch_sdk/core/yt/yt_l2.c ****     CMM_PARAM_CHK((YT_VLAN_ID_MAX < vid), CMM_ERR_EXCEED_RANGE);
 2992              		.loc 1 344 5 discriminator 3 view .LVU828
 2993 0088 FFF7FEFF 		bl	osal_printf
 2994              	.LVL353:
 2995 008c F5E7     		b	.L302
 2996              	.LVL354:
 2997              	.L311:
 344:../switch_sdk/core/yt/yt_l2.c ****     CMM_PARAM_CHK((YT_VLAN_ID_MAX < vid), CMM_ERR_EXCEED_RANGE);
 2998              		.loc 1 344 5 discriminator 3 view .LVU829
 2999              	.LBE60:
 345:../switch_sdk/core/yt/yt_l2.c ****     CMM_PARAM_CHK((NULL == ptype), CMM_ERR_NULL_POINT);
 3000              		.loc 1 345 5 is_stmt 1 discriminator 1 view .LVU830
 345:../switch_sdk/core/yt/yt_l2.c ****     CMM_PARAM_CHK((NULL == ptype), CMM_ERR_NULL_POINT);
 3001              		.loc 1 345 5 discriminator 1 view .LVU831
 3002 008e 0F4B     		ldr	r3, .L318+4
 3003 0090 1B78     		ldrb	r3, [r3]	@ zero_extendqisi2
 3004 0092 012B     		cmp	r3, #1
 3005 0094 01D8     		bhi	.L316
 3006              	.LVL355:
 3007              	.L304:
 345:../switch_sdk/core/yt/yt_l2.c ****     CMM_PARAM_CHK((NULL == ptype), CMM_ERR_NULL_POINT);
 3008              		.loc 1 345 5 discriminator 5 view .LVU832
 345:../switch_sdk/core/yt/yt_l2.c ****     CMM_PARAM_CHK((NULL == ptype), CMM_ERR_NULL_POINT);
 3009              		.loc 1 345 5 discriminator 5 view .LVU833
 345:../switch_sdk/core/yt/yt_l2.c ****     CMM_PARAM_CHK((NULL == ptype), CMM_ERR_NULL_POINT);
 3010              		.loc 1 345 5 discriminator 5 view .LVU834
 3011 0096 1120     		movs	r0, #17
 3012 0098 CDE7     		b	.L295
 3013              	.LVL356:
 3014              	.L316:
 345:../switch_sdk/core/yt/yt_l2.c ****     CMM_PARAM_CHK((NULL == ptype), CMM_ERR_NULL_POINT);
 3015              		.loc 1 345 5 discriminator 3 view .LVU835
 3016              	.LBB61:
 345:../switch_sdk/core/yt/yt_l2.c ****     CMM_PARAM_CHK((NULL == ptype), CMM_ERR_NULL_POINT);
 3017              		.loc 1 345 5 discriminator 3 view .LVU836
 3018 009a 0D4B     		ldr	r3, .L318+8
 3019 009c 5A6C     		ldr	r2, [r3, #68]
 3020 009e 0D4B     		ldr	r3, .L318+12
 3021 00a0 9968     		ldr	r1, [r3, #8]
 3022              	.LVL357:
 345:../switch_sdk/core/yt/yt_l2.c ****     CMM_PARAM_CHK((NULL == ptype), CMM_ERR_NULL_POINT);
 3023              		.loc 1 345 5 is_stmt 0 discriminator 3 view .LVU837
 3024 00a2 0D48     		ldr	r0, .L318+16
 3025              	.LVL358:
 345:../switch_sdk/core/yt/yt_l2.c ****     CMM_PARAM_CHK((NULL == ptype), CMM_ERR_NULL_POINT);
 3026              		.loc 1 345 5 discriminator 3 view .LVU838
 3027 00a4 FFF7FEFF 		bl	osal_printf
 3028              	.LVL359:
 3029 00a8 F5E7     		b	.L304
 3030              	.LVL360:
 3031              	.L312:
 345:../switch_sdk/core/yt/yt_l2.c ****     CMM_PARAM_CHK((NULL == ptype), CMM_ERR_NULL_POINT);
 3032              		.loc 1 345 5 discriminator 3 view .LVU839
 3033              	.LBE61:
 346:../switch_sdk/core/yt/yt_l2.c **** 
 3034              		.loc 1 346 5 is_stmt 1 discriminator 1 view .LVU840
 346:../switch_sdk/core/yt/yt_l2.c **** 
 3035              		.loc 1 346 5 discriminator 1 view .LVU841
 3036 00aa 084B     		ldr	r3, .L318+4
 3037 00ac 1B78     		ldrb	r3, [r3]	@ zero_extendqisi2
 3038 00ae 012B     		cmp	r3, #1
 3039 00b0 01D8     		bhi	.L317
 3040              	.LVL361:
 3041              	.L306:
 346:../switch_sdk/core/yt/yt_l2.c **** 
 3042              		.loc 1 346 5 discriminator 5 view .LVU842
 346:../switch_sdk/core/yt/yt_l2.c **** 
 3043              		.loc 1 346 5 discriminator 5 view .LVU843
 346:../switch_sdk/core/yt/yt_l2.c **** 
 3044              		.loc 1 346 5 discriminator 5 view .LVU844
 3045 00b2 0220     		movs	r0, #2
 3046 00b4 BFE7     		b	.L295
 3047              	.LVL362:
 3048              	.L317:
 346:../switch_sdk/core/yt/yt_l2.c **** 
 3049              		.loc 1 346 5 discriminator 3 view .LVU845
 3050              	.LBB62:
 346:../switch_sdk/core/yt/yt_l2.c **** 
 3051              		.loc 1 346 5 discriminator 3 view .LVU846
 3052 00b6 064B     		ldr	r3, .L318+8
 3053 00b8 9A68     		ldr	r2, [r3, #8]
 3054 00ba 064B     		ldr	r3, .L318+12
 3055 00bc 9968     		ldr	r1, [r3, #8]
 3056              	.LVL363:
 346:../switch_sdk/core/yt/yt_l2.c **** 
 3057              		.loc 1 346 5 is_stmt 0 discriminator 3 view .LVU847
 3058 00be 0648     		ldr	r0, .L318+16
 3059              	.LVL364:
 346:../switch_sdk/core/yt/yt_l2.c **** 
 3060              		.loc 1 346 5 discriminator 3 view .LVU848
 3061 00c0 FFF7FEFF 		bl	osal_printf
 3062              	.LVL365:
 3063 00c4 F5E7     		b	.L306
 3064              	.L319:
 3065 00c6 00BF     		.align	2
 3066              	.L318:
 3067 00c8 00000000 		.word	gpfal_dispatch
 3068 00cc 00000000 		.word	yt_debug_level
 3069 00d0 00000000 		.word	_yt_errmsg
 3070 00d4 00000000 		.word	_yt_prompt_msg
 3071 00d8 00000000 		.word	.LC0
 3072              	.LBE62:
 3073              		.cfi_endproc
 3074              	.LFE17:
 3076              		.section	.text.yt_l2_port_learnlimit_en_set,"ax",%progbits
 3077              		.align	1
 3078              		.global	yt_l2_port_learnlimit_en_set
 3079              		.syntax unified
 3080              		.thumb
 3081              		.thumb_func
 3083              	yt_l2_port_learnlimit_en_set:
 3084              	.LVL366:
 3085              	.LFB18:
 350:../switch_sdk/core/yt/yt_l2.c **** 
 351:../switch_sdk/core/yt/yt_l2.c **** /**
 352:../switch_sdk/core/yt/yt_l2.c ****  * @internal      yt_l2_port_learnlimit_en_set
 353:../switch_sdk/core/yt/yt_l2.c ****  * @endinternal
 354:../switch_sdk/core/yt/yt_l2.c ****  *
 355:../switch_sdk/core/yt/yt_l2.c ****  * @brief         Description
 356:../switch_sdk/core/yt/yt_l2.c ****  * @note          APPLICABLE DEVICES  -Tiger
 357:../switch_sdk/core/yt/yt_l2.c ****  * @param[in]     unit                -unit id
 358:../switch_sdk/core/yt/yt_l2.c ****  * @param[in]     port                -port num
 359:../switch_sdk/core/yt/yt_l2.c ****  * @param[in]     enable              -enable or disable
 360:../switch_sdk/core/yt/yt_l2.c ****  * @retval        CMM_ERR_OK          -on success
 361:../switch_sdk/core/yt/yt_l2.c ****  * @retval        CMM_ERR_FAIL        -on fail
 362:../switch_sdk/core/yt/yt_l2.c ****  */
 363:../switch_sdk/core/yt/yt_l2.c **** yt_ret_t  yt_l2_port_learnlimit_en_set(yt_unit_t unit, yt_port_t port, yt_enable_t enable)
 364:../switch_sdk/core/yt/yt_l2.c **** {
 3086              		.loc 1 364 1 is_stmt 1 view -0
 3087              		.cfi_startproc
 3088              		@ args = 0, pretend = 0, frame = 0
 3089              		@ frame_needed = 0, uses_anonymous_args = 0
 3090              		.loc 1 364 1 is_stmt 0 view .LVU850
 3091 0000 08B5     		push	{r3, lr}
 3092              		.cfi_def_cfa_offset 8
 3093              		.cfi_offset 3, -8
 3094              		.cfi_offset 14, -4
 365:../switch_sdk/core/yt/yt_l2.c ****     CMM_PARAM_CHK((YT_UNIT_NUM <= unit), CMM_ERR_INPUT);
 3095              		.loc 1 365 5 is_stmt 1 view .LVU851
 3096              		.loc 1 365 5 view .LVU852
 3097 0002 C0B9     		cbnz	r0, .L334
 3098 0004 8446     		mov	ip, r0
 3099              		.loc 1 365 5 discriminator 2 view .LVU853
 366:../switch_sdk/core/yt/yt_l2.c ****     CMM_PARAM_CHK(NULL == YT_DISPATCH(unit), CMM_ERR_NOT_INIT);
 3100              		.loc 1 366 5 discriminator 2 view .LVU854
 3101              		.loc 1 366 5 discriminator 2 view .LVU855
 3102 0006 2F4B     		ldr	r3, .L343
 3103 0008 53F82030 		ldr	r3, [r3, r0, lsl #2]
 3104 000c 0BB3     		cbz	r3, .L335
 3105              		.loc 1 366 5 discriminator 2 view .LVU856
 367:../switch_sdk/core/yt/yt_l2.c ****     CMM_PARAM_CHK((!(YT_DISPATCH(unit)->is_inited)), CMM_ERR_NOT_INIT);
 3106              		.loc 1 367 5 discriminator 2 view .LVU857
 3107              		.loc 1 367 5 discriminator 2 view .LVU858
 3108 000e 1878     		ldrb	r0, [r3]	@ zero_extendqisi2
 3109              	.LVL367:
 3110              		.loc 1 367 5 is_stmt 0 discriminator 2 view .LVU859
 3111 0010 0028     		cmp	r0, #0
 3112 0012 2CD0     		beq	.L336
 3113              		.loc 1 367 5 is_stmt 1 discriminator 2 view .LVU860
 368:../switch_sdk/core/yt/yt_l2.c ****     CMM_PARAM_CHK((!(CMM_PORT_VALID(unit, port))), CMM_ERR_PORT);
 3114              		.loc 1 368 5 discriminator 2 view .LVU861
 3115              		.loc 1 368 5 discriminator 2 view .LVU862
 3116 0014 2C48     		ldr	r0, .L343+4
 3117 0016 0078     		ldrb	r0, [r0]	@ zero_extendqisi2
 3118 0018 0028     		cmp	r0, #0
 3119 001a 36D0     		beq	.L328
 3120 001c 2B48     		ldr	r0, .L343+8
 3121 001e 50F82C00 		ldr	r0, [r0, ip, lsl #2]
 3122 0022 007D     		ldrb	r0, [r0, #20]	@ zero_extendqisi2
 3123 0024 8842     		cmp	r0, r1
 3124 0026 30D9     		bls	.L328
 3125              		.loc 1 368 5 discriminator 4 view .LVU863
 369:../switch_sdk/core/yt/yt_l2.c ****     CMM_PARAM_CHK((YT_ENABLE < enable || YT_DISABLE > enable), CMM_ERR_INPUT);
 3126              		.loc 1 369 5 discriminator 4 view .LVU864
 3127              		.loc 1 369 5 discriminator 4 view .LVU865
 3128 0028 012A     		cmp	r2, #1
 3129 002a 3CD8     		bhi	.L337
 3130              		.loc 1 369 5 discriminator 2 view .LVU866
 370:../switch_sdk/core/yt/yt_l2.c **** 
 371:../switch_sdk/core/yt/yt_l2.c ****     return YT_DISPATCH(unit)->l2_port_learnlimit_en_set(unit, port, enable);
 3131              		.loc 1 371 5 discriminator 2 view .LVU867
 3132              		.loc 1 371 29 is_stmt 0 discriminator 2 view .LVU868
 3133 002c D3F87833 		ldr	r3, [r3, #888]
 3134              		.loc 1 371 12 discriminator 2 view .LVU869
 3135 0030 6046     		mov	r0, ip
 3136 0032 9847     		blx	r3
 3137              	.LVL368:
 3138              	.L320:
 372:../switch_sdk/core/yt/yt_l2.c **** }
 3139              		.loc 1 372 1 view .LVU870
 3140 0034 08BD     		pop	{r3, pc}
 3141              	.LVL369:
 3142              	.L334:
 365:../switch_sdk/core/yt/yt_l2.c ****     CMM_PARAM_CHK(NULL == YT_DISPATCH(unit), CMM_ERR_NOT_INIT);
 3143              		.loc 1 365 5 is_stmt 1 discriminator 1 view .LVU871
 365:../switch_sdk/core/yt/yt_l2.c ****     CMM_PARAM_CHK(NULL == YT_DISPATCH(unit), CMM_ERR_NOT_INIT);
 3144              		.loc 1 365 5 discriminator 1 view .LVU872
 3145 0036 264B     		ldr	r3, .L343+12
 3146 0038 1B78     		ldrb	r3, [r3]	@ zero_extendqisi2
 3147 003a 012B     		cmp	r3, #1
 3148 003c 01D8     		bhi	.L338
 3149              	.LVL370:
 3150              	.L322:
 365:../switch_sdk/core/yt/yt_l2.c ****     CMM_PARAM_CHK(NULL == YT_DISPATCH(unit), CMM_ERR_NOT_INIT);
 3151              		.loc 1 365 5 discriminator 5 view .LVU873
 365:../switch_sdk/core/yt/yt_l2.c ****     CMM_PARAM_CHK(NULL == YT_DISPATCH(unit), CMM_ERR_NOT_INIT);
 3152              		.loc 1 365 5 discriminator 5 view .LVU874
 365:../switch_sdk/core/yt/yt_l2.c ****     CMM_PARAM_CHK(NULL == YT_DISPATCH(unit), CMM_ERR_NOT_INIT);
 3153              		.loc 1 365 5 discriminator 5 view .LVU875
 3154 003e 0520     		movs	r0, #5
 3155 0040 F8E7     		b	.L320
 3156              	.LVL371:
 3157              	.L338:
 365:../switch_sdk/core/yt/yt_l2.c ****     CMM_PARAM_CHK(NULL == YT_DISPATCH(unit), CMM_ERR_NOT_INIT);
 3158              		.loc 1 365 5 discriminator 3 view .LVU876
 3159              	.LBB63:
 365:../switch_sdk/core/yt/yt_l2.c ****     CMM_PARAM_CHK(NULL == YT_DISPATCH(unit), CMM_ERR_NOT_INIT);
 3160              		.loc 1 365 5 discriminator 3 view .LVU877
 3161 0042 244B     		ldr	r3, .L343+16
 3162 0044 5A69     		ldr	r2, [r3, #20]
 3163              	.LVL372:
 365:../switch_sdk/core/yt/yt_l2.c ****     CMM_PARAM_CHK(NULL == YT_DISPATCH(unit), CMM_ERR_NOT_INIT);
 3164              		.loc 1 365 5 is_stmt 0 discriminator 3 view .LVU878
 3165 0046 244B     		ldr	r3, .L343+20
 3166 0048 9968     		ldr	r1, [r3, #8]
 3167              	.LVL373:
 365:../switch_sdk/core/yt/yt_l2.c ****     CMM_PARAM_CHK(NULL == YT_DISPATCH(unit), CMM_ERR_NOT_INIT);
 3168              		.loc 1 365 5 discriminator 3 view .LVU879
 3169 004a 2448     		ldr	r0, .L343+24
 3170              	.LVL374:
 365:../switch_sdk/core/yt/yt_l2.c ****     CMM_PARAM_CHK(NULL == YT_DISPATCH(unit), CMM_ERR_NOT_INIT);
 3171              		.loc 1 365 5 discriminator 3 view .LVU880
 3172 004c FFF7FEFF 		bl	osal_printf
 3173              	.LVL375:
 3174 0050 F5E7     		b	.L322
 3175              	.LVL376:
 3176              	.L335:
 365:../switch_sdk/core/yt/yt_l2.c ****     CMM_PARAM_CHK(NULL == YT_DISPATCH(unit), CMM_ERR_NOT_INIT);
 3177              		.loc 1 365 5 discriminator 3 view .LVU881
 3178              	.LBE63:
 366:../switch_sdk/core/yt/yt_l2.c ****     CMM_PARAM_CHK((!(YT_DISPATCH(unit)->is_inited)), CMM_ERR_NOT_INIT);
 3179              		.loc 1 366 5 is_stmt 1 discriminator 1 view .LVU882
 366:../switch_sdk/core/yt/yt_l2.c ****     CMM_PARAM_CHK((!(YT_DISPATCH(unit)->is_inited)), CMM_ERR_NOT_INIT);
 3180              		.loc 1 366 5 discriminator 1 view .LVU883
 3181 0052 1F4B     		ldr	r3, .L343+12
 3182 0054 1B78     		ldrb	r3, [r3]	@ zero_extendqisi2
 3183 0056 012B     		cmp	r3, #1
 3184 0058 01D8     		bhi	.L339
 3185              	.LVL377:
 3186              	.L325:
 366:../switch_sdk/core/yt/yt_l2.c ****     CMM_PARAM_CHK((!(YT_DISPATCH(unit)->is_inited)), CMM_ERR_NOT_INIT);
 3187              		.loc 1 366 5 discriminator 5 view .LVU884
 366:../switch_sdk/core/yt/yt_l2.c ****     CMM_PARAM_CHK((!(YT_DISPATCH(unit)->is_inited)), CMM_ERR_NOT_INIT);
 3188              		.loc 1 366 5 discriminator 5 view .LVU885
 366:../switch_sdk/core/yt/yt_l2.c ****     CMM_PARAM_CHK((!(YT_DISPATCH(unit)->is_inited)), CMM_ERR_NOT_INIT);
 3189              		.loc 1 366 5 discriminator 5 view .LVU886
 3190 005a 0420     		movs	r0, #4
 3191 005c EAE7     		b	.L320
 3192              	.LVL378:
 3193              	.L339:
 366:../switch_sdk/core/yt/yt_l2.c ****     CMM_PARAM_CHK((!(YT_DISPATCH(unit)->is_inited)), CMM_ERR_NOT_INIT);
 3194              		.loc 1 366 5 discriminator 3 view .LVU887
 3195              	.LBB64:
 366:../switch_sdk/core/yt/yt_l2.c ****     CMM_PARAM_CHK((!(YT_DISPATCH(unit)->is_inited)), CMM_ERR_NOT_INIT);
 3196              		.loc 1 366 5 discriminator 3 view .LVU888
 3197 005e 1D4B     		ldr	r3, .L343+16
 3198 0060 1A69     		ldr	r2, [r3, #16]
 3199              	.LVL379:
 366:../switch_sdk/core/yt/yt_l2.c ****     CMM_PARAM_CHK((!(YT_DISPATCH(unit)->is_inited)), CMM_ERR_NOT_INIT);
 3200              		.loc 1 366 5 is_stmt 0 discriminator 3 view .LVU889
 3201 0062 1D4B     		ldr	r3, .L343+20
 3202 0064 9968     		ldr	r1, [r3, #8]
 3203              	.LVL380:
 366:../switch_sdk/core/yt/yt_l2.c ****     CMM_PARAM_CHK((!(YT_DISPATCH(unit)->is_inited)), CMM_ERR_NOT_INIT);
 3204              		.loc 1 366 5 discriminator 3 view .LVU890
 3205 0066 1D48     		ldr	r0, .L343+24
 3206              	.LVL381:
 366:../switch_sdk/core/yt/yt_l2.c ****     CMM_PARAM_CHK((!(YT_DISPATCH(unit)->is_inited)), CMM_ERR_NOT_INIT);
 3207              		.loc 1 366 5 discriminator 3 view .LVU891
 3208 0068 FFF7FEFF 		bl	osal_printf
 3209              	.LVL382:
 3210 006c F5E7     		b	.L325
 3211              	.LVL383:
 3212              	.L336:
 366:../switch_sdk/core/yt/yt_l2.c ****     CMM_PARAM_CHK((!(YT_DISPATCH(unit)->is_inited)), CMM_ERR_NOT_INIT);
 3213              		.loc 1 366 5 discriminator 3 view .LVU892
 3214              	.LBE64:
 367:../switch_sdk/core/yt/yt_l2.c ****     CMM_PARAM_CHK((!(CMM_PORT_VALID(unit, port))), CMM_ERR_PORT);
 3215              		.loc 1 367 5 is_stmt 1 discriminator 1 view .LVU893
 367:../switch_sdk/core/yt/yt_l2.c ****     CMM_PARAM_CHK((!(CMM_PORT_VALID(unit, port))), CMM_ERR_PORT);
 3216              		.loc 1 367 5 discriminator 1 view .LVU894
 3217 006e 184B     		ldr	r3, .L343+12
 3218 0070 1B78     		ldrb	r3, [r3]	@ zero_extendqisi2
 3219 0072 012B     		cmp	r3, #1
 3220 0074 01D8     		bhi	.L340
 3221              	.LVL384:
 3222              	.L327:
 367:../switch_sdk/core/yt/yt_l2.c ****     CMM_PARAM_CHK((!(CMM_PORT_VALID(unit, port))), CMM_ERR_PORT);
 3223              		.loc 1 367 5 discriminator 5 view .LVU895
 367:../switch_sdk/core/yt/yt_l2.c ****     CMM_PARAM_CHK((!(CMM_PORT_VALID(unit, port))), CMM_ERR_PORT);
 3224              		.loc 1 367 5 discriminator 5 view .LVU896
 367:../switch_sdk/core/yt/yt_l2.c ****     CMM_PARAM_CHK((!(CMM_PORT_VALID(unit, port))), CMM_ERR_PORT);
 3225              		.loc 1 367 5 discriminator 5 view .LVU897
 3226 0076 0420     		movs	r0, #4
 3227 0078 DCE7     		b	.L320
 3228              	.LVL385:
 3229              	.L340:
 367:../switch_sdk/core/yt/yt_l2.c ****     CMM_PARAM_CHK((!(CMM_PORT_VALID(unit, port))), CMM_ERR_PORT);
 3230              		.loc 1 367 5 discriminator 3 view .LVU898
 3231              	.LBB65:
 367:../switch_sdk/core/yt/yt_l2.c ****     CMM_PARAM_CHK((!(CMM_PORT_VALID(unit, port))), CMM_ERR_PORT);
 3232              		.loc 1 367 5 discriminator 3 view .LVU899
 3233 007a 164B     		ldr	r3, .L343+16
 3234 007c 1A69     		ldr	r2, [r3, #16]
 3235              	.LVL386:
 367:../switch_sdk/core/yt/yt_l2.c ****     CMM_PARAM_CHK((!(CMM_PORT_VALID(unit, port))), CMM_ERR_PORT);
 3236              		.loc 1 367 5 is_stmt 0 discriminator 3 view .LVU900
 3237 007e 164B     		ldr	r3, .L343+20
 3238 0080 9968     		ldr	r1, [r3, #8]
 3239              	.LVL387:
 367:../switch_sdk/core/yt/yt_l2.c ****     CMM_PARAM_CHK((!(CMM_PORT_VALID(unit, port))), CMM_ERR_PORT);
 3240              		.loc 1 367 5 discriminator 3 view .LVU901
 3241 0082 1648     		ldr	r0, .L343+24
 3242 0084 FFF7FEFF 		bl	osal_printf
 3243              	.LVL388:
 3244 0088 F5E7     		b	.L327
 3245              	.LVL389:
 3246              	.L328:
 367:../switch_sdk/core/yt/yt_l2.c ****     CMM_PARAM_CHK((!(CMM_PORT_VALID(unit, port))), CMM_ERR_PORT);
 3247              		.loc 1 367 5 discriminator 3 view .LVU902
 3248              	.LBE65:
 368:../switch_sdk/core/yt/yt_l2.c ****     CMM_PARAM_CHK((YT_ENABLE < enable || YT_DISABLE > enable), CMM_ERR_INPUT);
 3249              		.loc 1 368 5 is_stmt 1 discriminator 3 view .LVU903
 368:../switch_sdk/core/yt/yt_l2.c ****     CMM_PARAM_CHK((YT_ENABLE < enable || YT_DISABLE > enable), CMM_ERR_INPUT);
 3250              		.loc 1 368 5 discriminator 3 view .LVU904
 3251 008a 114B     		ldr	r3, .L343+12
 3252 008c 1B78     		ldrb	r3, [r3]	@ zero_extendqisi2
 3253 008e 012B     		cmp	r3, #1
 3254 0090 01D8     		bhi	.L341
 3255              	.LVL390:
 3256              	.L330:
 368:../switch_sdk/core/yt/yt_l2.c ****     CMM_PARAM_CHK((YT_ENABLE < enable || YT_DISABLE > enable), CMM_ERR_INPUT);
 3257              		.loc 1 368 5 discriminator 7 view .LVU905
 368:../switch_sdk/core/yt/yt_l2.c ****     CMM_PARAM_CHK((YT_ENABLE < enable || YT_DISABLE > enable), CMM_ERR_INPUT);
 3258              		.loc 1 368 5 discriminator 7 view .LVU906
 368:../switch_sdk/core/yt/yt_l2.c ****     CMM_PARAM_CHK((YT_ENABLE < enable || YT_DISABLE > enable), CMM_ERR_INPUT);
 3259              		.loc 1 368 5 discriminator 7 view .LVU907
 3260 0092 0E20     		movs	r0, #14
 3261 0094 CEE7     		b	.L320
 3262              	.LVL391:
 3263              	.L341:
 368:../switch_sdk/core/yt/yt_l2.c ****     CMM_PARAM_CHK((YT_ENABLE < enable || YT_DISABLE > enable), CMM_ERR_INPUT);
 3264              		.loc 1 368 5 discriminator 5 view .LVU908
 3265              	.LBB66:
 368:../switch_sdk/core/yt/yt_l2.c ****     CMM_PARAM_CHK((YT_ENABLE < enable || YT_DISABLE > enable), CMM_ERR_INPUT);
 3266              		.loc 1 368 5 discriminator 5 view .LVU909
 3267 0096 0F4B     		ldr	r3, .L343+16
 3268 0098 9A6B     		ldr	r2, [r3, #56]
 3269              	.LVL392:
 368:../switch_sdk/core/yt/yt_l2.c ****     CMM_PARAM_CHK((YT_ENABLE < enable || YT_DISABLE > enable), CMM_ERR_INPUT);
 3270              		.loc 1 368 5 is_stmt 0 discriminator 5 view .LVU910
 3271 009a 0F4B     		ldr	r3, .L343+20
 3272 009c 9968     		ldr	r1, [r3, #8]
 3273              	.LVL393:
 368:../switch_sdk/core/yt/yt_l2.c ****     CMM_PARAM_CHK((YT_ENABLE < enable || YT_DISABLE > enable), CMM_ERR_INPUT);
 3274              		.loc 1 368 5 discriminator 5 view .LVU911
 3275 009e 0F48     		ldr	r0, .L343+24
 3276 00a0 FFF7FEFF 		bl	osal_printf
 3277              	.LVL394:
 3278 00a4 F5E7     		b	.L330
 3279              	.LVL395:
 3280              	.L337:
 368:../switch_sdk/core/yt/yt_l2.c ****     CMM_PARAM_CHK((YT_ENABLE < enable || YT_DISABLE > enable), CMM_ERR_INPUT);
 3281              		.loc 1 368 5 discriminator 5 view .LVU912
 3282              	.LBE66:
 369:../switch_sdk/core/yt/yt_l2.c **** 
 3283              		.loc 1 369 5 is_stmt 1 discriminator 1 view .LVU913
 369:../switch_sdk/core/yt/yt_l2.c **** 
 3284              		.loc 1 369 5 discriminator 1 view .LVU914
 3285 00a6 0A4B     		ldr	r3, .L343+12
 3286 00a8 1B78     		ldrb	r3, [r3]	@ zero_extendqisi2
 3287 00aa 012B     		cmp	r3, #1
 3288 00ac 01D8     		bhi	.L342
 3289              	.LVL396:
 3290              	.L332:
 369:../switch_sdk/core/yt/yt_l2.c **** 
 3291              		.loc 1 369 5 discriminator 5 view .LVU915
 369:../switch_sdk/core/yt/yt_l2.c **** 
 3292              		.loc 1 369 5 discriminator 5 view .LVU916
 369:../switch_sdk/core/yt/yt_l2.c **** 
 3293              		.loc 1 369 5 discriminator 5 view .LVU917
 3294 00ae 0520     		movs	r0, #5
 3295 00b0 C0E7     		b	.L320
 3296              	.LVL397:
 3297              	.L342:
 369:../switch_sdk/core/yt/yt_l2.c **** 
 3298              		.loc 1 369 5 discriminator 3 view .LVU918
 3299              	.LBB67:
 369:../switch_sdk/core/yt/yt_l2.c **** 
 3300              		.loc 1 369 5 discriminator 3 view .LVU919
 3301 00b2 084B     		ldr	r3, .L343+16
 3302 00b4 5A69     		ldr	r2, [r3, #20]
 3303              	.LVL398:
 369:../switch_sdk/core/yt/yt_l2.c **** 
 3304              		.loc 1 369 5 is_stmt 0 discriminator 3 view .LVU920
 3305 00b6 084B     		ldr	r3, .L343+20
 3306 00b8 9968     		ldr	r1, [r3, #8]
 3307              	.LVL399:
 369:../switch_sdk/core/yt/yt_l2.c **** 
 3308              		.loc 1 369 5 discriminator 3 view .LVU921
 3309 00ba 0848     		ldr	r0, .L343+24
 3310 00bc FFF7FEFF 		bl	osal_printf
 3311              	.LVL400:
 3312 00c0 F5E7     		b	.L332
 3313              	.L344:
 3314 00c2 00BF     		.align	2
 3315              	.L343:
 3316 00c4 00000000 		.word	gpfal_dispatch
 3317 00c8 00000000 		.word	gcal_inited
 3318 00cc 00000000 		.word	gpSwitchUnit
 3319 00d0 00000000 		.word	yt_debug_level
 3320 00d4 00000000 		.word	_yt_errmsg
 3321 00d8 00000000 		.word	_yt_prompt_msg
 3322 00dc 00000000 		.word	.LC0
 3323              	.LBE67:
 3324              		.cfi_endproc
 3325              	.LFE18:
 3327              		.section	.text.yt_l2_port_learnlimit_en_get,"ax",%progbits
 3328              		.align	1
 3329              		.global	yt_l2_port_learnlimit_en_get
 3330              		.syntax unified
 3331              		.thumb
 3332              		.thumb_func
 3334              	yt_l2_port_learnlimit_en_get:
 3335              	.LVL401:
 3336              	.LFB19:
 373:../switch_sdk/core/yt/yt_l2.c **** 
 374:../switch_sdk/core/yt/yt_l2.c **** /**
 375:../switch_sdk/core/yt/yt_l2.c ****  * @internal      yt_l2_port_learnlimit_en_get
 376:../switch_sdk/core/yt/yt_l2.c ****  * @endinternal
 377:../switch_sdk/core/yt/yt_l2.c ****  *
 378:../switch_sdk/core/yt/yt_l2.c ****  * @brief         Description
 379:../switch_sdk/core/yt/yt_l2.c ****  * @note          APPLICABLE DEVICES  -Tiger
 380:../switch_sdk/core/yt/yt_l2.c ****  * @param[in]     unit                -unit id
 381:../switch_sdk/core/yt/yt_l2.c ****  * @param[in]     port                -port num
 382:../switch_sdk/core/yt/yt_l2.c ****  * @param[out]    pEnable             -enable or disable
 383:../switch_sdk/core/yt/yt_l2.c ****  * @retval        CMM_ERR_OK          -on success
 384:../switch_sdk/core/yt/yt_l2.c ****  * @retval        CMM_ERR_FAIL        -on fail
 385:../switch_sdk/core/yt/yt_l2.c ****  */
 386:../switch_sdk/core/yt/yt_l2.c **** yt_ret_t  yt_l2_port_learnlimit_en_get(yt_unit_t unit, yt_port_t port, yt_enable_t *pEnable)
 387:../switch_sdk/core/yt/yt_l2.c **** {
 3337              		.loc 1 387 1 is_stmt 1 view -0
 3338              		.cfi_startproc
 3339              		@ args = 0, pretend = 0, frame = 0
 3340              		@ frame_needed = 0, uses_anonymous_args = 0
 3341              		.loc 1 387 1 is_stmt 0 view .LVU923
 3342 0000 08B5     		push	{r3, lr}
 3343              		.cfi_def_cfa_offset 8
 3344              		.cfi_offset 3, -8
 3345              		.cfi_offset 14, -4
 388:../switch_sdk/core/yt/yt_l2.c ****     CMM_PARAM_CHK((YT_UNIT_NUM <= unit), CMM_ERR_INPUT);
 3346              		.loc 1 388 5 is_stmt 1 view .LVU924
 3347              		.loc 1 388 5 view .LVU925
 3348 0002 C0B9     		cbnz	r0, .L359
 3349 0004 8446     		mov	ip, r0
 3350              		.loc 1 388 5 discriminator 2 view .LVU926
 389:../switch_sdk/core/yt/yt_l2.c ****     CMM_PARAM_CHK(NULL == YT_DISPATCH(unit), CMM_ERR_NOT_INIT);
 3351              		.loc 1 389 5 discriminator 2 view .LVU927
 3352              		.loc 1 389 5 discriminator 2 view .LVU928
 3353 0006 2F4B     		ldr	r3, .L368
 3354 0008 53F82030 		ldr	r3, [r3, r0, lsl #2]
 3355 000c 0BB3     		cbz	r3, .L360
 3356              		.loc 1 389 5 discriminator 2 view .LVU929
 390:../switch_sdk/core/yt/yt_l2.c ****     CMM_PARAM_CHK((!(YT_DISPATCH(unit)->is_inited)), CMM_ERR_NOT_INIT);
 3357              		.loc 1 390 5 discriminator 2 view .LVU930
 3358              		.loc 1 390 5 discriminator 2 view .LVU931
 3359 000e 1878     		ldrb	r0, [r3]	@ zero_extendqisi2
 3360              	.LVL402:
 3361              		.loc 1 390 5 is_stmt 0 discriminator 2 view .LVU932
 3362 0010 0028     		cmp	r0, #0
 3363 0012 2CD0     		beq	.L361
 3364              		.loc 1 390 5 is_stmt 1 discriminator 2 view .LVU933
 391:../switch_sdk/core/yt/yt_l2.c ****     CMM_PARAM_CHK((!(CMM_PORT_VALID(unit, port))), CMM_ERR_PORT);
 3365              		.loc 1 391 5 discriminator 2 view .LVU934
 3366              		.loc 1 391 5 discriminator 2 view .LVU935
 3367 0014 2C48     		ldr	r0, .L368+4
 3368 0016 0078     		ldrb	r0, [r0]	@ zero_extendqisi2
 3369 0018 0028     		cmp	r0, #0
 3370 001a 36D0     		beq	.L353
 3371 001c 2B48     		ldr	r0, .L368+8
 3372 001e 50F82C00 		ldr	r0, [r0, ip, lsl #2]
 3373 0022 007D     		ldrb	r0, [r0, #20]	@ zero_extendqisi2
 3374 0024 8842     		cmp	r0, r1
 3375 0026 30D9     		bls	.L353
 3376              		.loc 1 391 5 discriminator 4 view .LVU936
 392:../switch_sdk/core/yt/yt_l2.c ****     CMM_PARAM_CHK((NULL == pEnable), CMM_ERR_NULL_POINT);
 3377              		.loc 1 392 5 discriminator 4 view .LVU937
 3378              		.loc 1 392 5 discriminator 4 view .LVU938
 3379 0028 002A     		cmp	r2, #0
 3380 002a 3CD0     		beq	.L362
 3381              		.loc 1 392 5 discriminator 2 view .LVU939
 393:../switch_sdk/core/yt/yt_l2.c **** 
 394:../switch_sdk/core/yt/yt_l2.c ****     return YT_DISPATCH(unit)->l2_port_learnlimit_en_get(unit, port, pEnable);
 3382              		.loc 1 394 5 discriminator 2 view .LVU940
 3383              		.loc 1 394 29 is_stmt 0 discriminator 2 view .LVU941
 3384 002c D3F87C33 		ldr	r3, [r3, #892]
 3385              		.loc 1 394 12 discriminator 2 view .LVU942
 3386 0030 6046     		mov	r0, ip
 3387 0032 9847     		blx	r3
 3388              	.LVL403:
 3389              	.L345:
 395:../switch_sdk/core/yt/yt_l2.c **** }
 3390              		.loc 1 395 1 view .LVU943
 3391 0034 08BD     		pop	{r3, pc}
 3392              	.LVL404:
 3393              	.L359:
 388:../switch_sdk/core/yt/yt_l2.c ****     CMM_PARAM_CHK(NULL == YT_DISPATCH(unit), CMM_ERR_NOT_INIT);
 3394              		.loc 1 388 5 is_stmt 1 discriminator 1 view .LVU944
 388:../switch_sdk/core/yt/yt_l2.c ****     CMM_PARAM_CHK(NULL == YT_DISPATCH(unit), CMM_ERR_NOT_INIT);
 3395              		.loc 1 388 5 discriminator 1 view .LVU945
 3396 0036 264B     		ldr	r3, .L368+12
 3397 0038 1B78     		ldrb	r3, [r3]	@ zero_extendqisi2
 3398 003a 012B     		cmp	r3, #1
 3399 003c 01D8     		bhi	.L363
 3400              	.LVL405:
 3401              	.L347:
 388:../switch_sdk/core/yt/yt_l2.c ****     CMM_PARAM_CHK(NULL == YT_DISPATCH(unit), CMM_ERR_NOT_INIT);
 3402              		.loc 1 388 5 discriminator 5 view .LVU946
 388:../switch_sdk/core/yt/yt_l2.c ****     CMM_PARAM_CHK(NULL == YT_DISPATCH(unit), CMM_ERR_NOT_INIT);
 3403              		.loc 1 388 5 discriminator 5 view .LVU947
 388:../switch_sdk/core/yt/yt_l2.c ****     CMM_PARAM_CHK(NULL == YT_DISPATCH(unit), CMM_ERR_NOT_INIT);
 3404              		.loc 1 388 5 discriminator 5 view .LVU948
 3405 003e 0520     		movs	r0, #5
 3406 0040 F8E7     		b	.L345
 3407              	.LVL406:
 3408              	.L363:
 388:../switch_sdk/core/yt/yt_l2.c ****     CMM_PARAM_CHK(NULL == YT_DISPATCH(unit), CMM_ERR_NOT_INIT);
 3409              		.loc 1 388 5 discriminator 3 view .LVU949
 3410              	.LBB68:
 388:../switch_sdk/core/yt/yt_l2.c ****     CMM_PARAM_CHK(NULL == YT_DISPATCH(unit), CMM_ERR_NOT_INIT);
 3411              		.loc 1 388 5 discriminator 3 view .LVU950
 3412 0042 244B     		ldr	r3, .L368+16
 3413 0044 5A69     		ldr	r2, [r3, #20]
 3414              	.LVL407:
 388:../switch_sdk/core/yt/yt_l2.c ****     CMM_PARAM_CHK(NULL == YT_DISPATCH(unit), CMM_ERR_NOT_INIT);
 3415              		.loc 1 388 5 is_stmt 0 discriminator 3 view .LVU951
 3416 0046 244B     		ldr	r3, .L368+20
 3417 0048 9968     		ldr	r1, [r3, #8]
 3418              	.LVL408:
 388:../switch_sdk/core/yt/yt_l2.c ****     CMM_PARAM_CHK(NULL == YT_DISPATCH(unit), CMM_ERR_NOT_INIT);
 3419              		.loc 1 388 5 discriminator 3 view .LVU952
 3420 004a 2448     		ldr	r0, .L368+24
 3421              	.LVL409:
 388:../switch_sdk/core/yt/yt_l2.c ****     CMM_PARAM_CHK(NULL == YT_DISPATCH(unit), CMM_ERR_NOT_INIT);
 3422              		.loc 1 388 5 discriminator 3 view .LVU953
 3423 004c FFF7FEFF 		bl	osal_printf
 3424              	.LVL410:
 3425 0050 F5E7     		b	.L347
 3426              	.LVL411:
 3427              	.L360:
 388:../switch_sdk/core/yt/yt_l2.c ****     CMM_PARAM_CHK(NULL == YT_DISPATCH(unit), CMM_ERR_NOT_INIT);
 3428              		.loc 1 388 5 discriminator 3 view .LVU954
 3429              	.LBE68:
 389:../switch_sdk/core/yt/yt_l2.c ****     CMM_PARAM_CHK((!(YT_DISPATCH(unit)->is_inited)), CMM_ERR_NOT_INIT);
 3430              		.loc 1 389 5 is_stmt 1 discriminator 1 view .LVU955
 389:../switch_sdk/core/yt/yt_l2.c ****     CMM_PARAM_CHK((!(YT_DISPATCH(unit)->is_inited)), CMM_ERR_NOT_INIT);
 3431              		.loc 1 389 5 discriminator 1 view .LVU956
 3432 0052 1F4B     		ldr	r3, .L368+12
 3433 0054 1B78     		ldrb	r3, [r3]	@ zero_extendqisi2
 3434 0056 012B     		cmp	r3, #1
 3435 0058 01D8     		bhi	.L364
 3436              	.LVL412:
 3437              	.L350:
 389:../switch_sdk/core/yt/yt_l2.c ****     CMM_PARAM_CHK((!(YT_DISPATCH(unit)->is_inited)), CMM_ERR_NOT_INIT);
 3438              		.loc 1 389 5 discriminator 5 view .LVU957
 389:../switch_sdk/core/yt/yt_l2.c ****     CMM_PARAM_CHK((!(YT_DISPATCH(unit)->is_inited)), CMM_ERR_NOT_INIT);
 3439              		.loc 1 389 5 discriminator 5 view .LVU958
 389:../switch_sdk/core/yt/yt_l2.c ****     CMM_PARAM_CHK((!(YT_DISPATCH(unit)->is_inited)), CMM_ERR_NOT_INIT);
 3440              		.loc 1 389 5 discriminator 5 view .LVU959
 3441 005a 0420     		movs	r0, #4
 3442 005c EAE7     		b	.L345
 3443              	.LVL413:
 3444              	.L364:
 389:../switch_sdk/core/yt/yt_l2.c ****     CMM_PARAM_CHK((!(YT_DISPATCH(unit)->is_inited)), CMM_ERR_NOT_INIT);
 3445              		.loc 1 389 5 discriminator 3 view .LVU960
 3446              	.LBB69:
 389:../switch_sdk/core/yt/yt_l2.c ****     CMM_PARAM_CHK((!(YT_DISPATCH(unit)->is_inited)), CMM_ERR_NOT_INIT);
 3447              		.loc 1 389 5 discriminator 3 view .LVU961
 3448 005e 1D4B     		ldr	r3, .L368+16
 3449 0060 1A69     		ldr	r2, [r3, #16]
 3450              	.LVL414:
 389:../switch_sdk/core/yt/yt_l2.c ****     CMM_PARAM_CHK((!(YT_DISPATCH(unit)->is_inited)), CMM_ERR_NOT_INIT);
 3451              		.loc 1 389 5 is_stmt 0 discriminator 3 view .LVU962
 3452 0062 1D4B     		ldr	r3, .L368+20
 3453 0064 9968     		ldr	r1, [r3, #8]
 3454              	.LVL415:
 389:../switch_sdk/core/yt/yt_l2.c ****     CMM_PARAM_CHK((!(YT_DISPATCH(unit)->is_inited)), CMM_ERR_NOT_INIT);
 3455              		.loc 1 389 5 discriminator 3 view .LVU963
 3456 0066 1D48     		ldr	r0, .L368+24
 3457              	.LVL416:
 389:../switch_sdk/core/yt/yt_l2.c ****     CMM_PARAM_CHK((!(YT_DISPATCH(unit)->is_inited)), CMM_ERR_NOT_INIT);
 3458              		.loc 1 389 5 discriminator 3 view .LVU964
 3459 0068 FFF7FEFF 		bl	osal_printf
 3460              	.LVL417:
 3461 006c F5E7     		b	.L350
 3462              	.LVL418:
 3463              	.L361:
 389:../switch_sdk/core/yt/yt_l2.c ****     CMM_PARAM_CHK((!(YT_DISPATCH(unit)->is_inited)), CMM_ERR_NOT_INIT);
 3464              		.loc 1 389 5 discriminator 3 view .LVU965
 3465              	.LBE69:
 390:../switch_sdk/core/yt/yt_l2.c ****     CMM_PARAM_CHK((!(CMM_PORT_VALID(unit, port))), CMM_ERR_PORT);
 3466              		.loc 1 390 5 is_stmt 1 discriminator 1 view .LVU966
 390:../switch_sdk/core/yt/yt_l2.c ****     CMM_PARAM_CHK((!(CMM_PORT_VALID(unit, port))), CMM_ERR_PORT);
 3467              		.loc 1 390 5 discriminator 1 view .LVU967
 3468 006e 184B     		ldr	r3, .L368+12
 3469 0070 1B78     		ldrb	r3, [r3]	@ zero_extendqisi2
 3470 0072 012B     		cmp	r3, #1
 3471 0074 01D8     		bhi	.L365
 3472              	.LVL419:
 3473              	.L352:
 390:../switch_sdk/core/yt/yt_l2.c ****     CMM_PARAM_CHK((!(CMM_PORT_VALID(unit, port))), CMM_ERR_PORT);
 3474              		.loc 1 390 5 discriminator 5 view .LVU968
 390:../switch_sdk/core/yt/yt_l2.c ****     CMM_PARAM_CHK((!(CMM_PORT_VALID(unit, port))), CMM_ERR_PORT);
 3475              		.loc 1 390 5 discriminator 5 view .LVU969
 390:../switch_sdk/core/yt/yt_l2.c ****     CMM_PARAM_CHK((!(CMM_PORT_VALID(unit, port))), CMM_ERR_PORT);
 3476              		.loc 1 390 5 discriminator 5 view .LVU970
 3477 0076 0420     		movs	r0, #4
 3478 0078 DCE7     		b	.L345
 3479              	.LVL420:
 3480              	.L365:
 390:../switch_sdk/core/yt/yt_l2.c ****     CMM_PARAM_CHK((!(CMM_PORT_VALID(unit, port))), CMM_ERR_PORT);
 3481              		.loc 1 390 5 discriminator 3 view .LVU971
 3482              	.LBB70:
 390:../switch_sdk/core/yt/yt_l2.c ****     CMM_PARAM_CHK((!(CMM_PORT_VALID(unit, port))), CMM_ERR_PORT);
 3483              		.loc 1 390 5 discriminator 3 view .LVU972
 3484 007a 164B     		ldr	r3, .L368+16
 3485 007c 1A69     		ldr	r2, [r3, #16]
 3486              	.LVL421:
 390:../switch_sdk/core/yt/yt_l2.c ****     CMM_PARAM_CHK((!(CMM_PORT_VALID(unit, port))), CMM_ERR_PORT);
 3487              		.loc 1 390 5 is_stmt 0 discriminator 3 view .LVU973
 3488 007e 164B     		ldr	r3, .L368+20
 3489 0080 9968     		ldr	r1, [r3, #8]
 3490              	.LVL422:
 390:../switch_sdk/core/yt/yt_l2.c ****     CMM_PARAM_CHK((!(CMM_PORT_VALID(unit, port))), CMM_ERR_PORT);
 3491              		.loc 1 390 5 discriminator 3 view .LVU974
 3492 0082 1648     		ldr	r0, .L368+24
 3493 0084 FFF7FEFF 		bl	osal_printf
 3494              	.LVL423:
 3495 0088 F5E7     		b	.L352
 3496              	.LVL424:
 3497              	.L353:
 390:../switch_sdk/core/yt/yt_l2.c ****     CMM_PARAM_CHK((!(CMM_PORT_VALID(unit, port))), CMM_ERR_PORT);
 3498              		.loc 1 390 5 discriminator 3 view .LVU975
 3499              	.LBE70:
 391:../switch_sdk/core/yt/yt_l2.c ****     CMM_PARAM_CHK((NULL == pEnable), CMM_ERR_NULL_POINT);
 3500              		.loc 1 391 5 is_stmt 1 discriminator 3 view .LVU976
 391:../switch_sdk/core/yt/yt_l2.c ****     CMM_PARAM_CHK((NULL == pEnable), CMM_ERR_NULL_POINT);
 3501              		.loc 1 391 5 discriminator 3 view .LVU977
 3502 008a 114B     		ldr	r3, .L368+12
 3503 008c 1B78     		ldrb	r3, [r3]	@ zero_extendqisi2
 3504 008e 012B     		cmp	r3, #1
 3505 0090 01D8     		bhi	.L366
 3506              	.LVL425:
 3507              	.L355:
 391:../switch_sdk/core/yt/yt_l2.c ****     CMM_PARAM_CHK((NULL == pEnable), CMM_ERR_NULL_POINT);
 3508              		.loc 1 391 5 discriminator 7 view .LVU978
 391:../switch_sdk/core/yt/yt_l2.c ****     CMM_PARAM_CHK((NULL == pEnable), CMM_ERR_NULL_POINT);
 3509              		.loc 1 391 5 discriminator 7 view .LVU979
 391:../switch_sdk/core/yt/yt_l2.c ****     CMM_PARAM_CHK((NULL == pEnable), CMM_ERR_NULL_POINT);
 3510              		.loc 1 391 5 discriminator 7 view .LVU980
 3511 0092 0E20     		movs	r0, #14
 3512 0094 CEE7     		b	.L345
 3513              	.LVL426:
 3514              	.L366:
 391:../switch_sdk/core/yt/yt_l2.c ****     CMM_PARAM_CHK((NULL == pEnable), CMM_ERR_NULL_POINT);
 3515              		.loc 1 391 5 discriminator 5 view .LVU981
 3516              	.LBB71:
 391:../switch_sdk/core/yt/yt_l2.c ****     CMM_PARAM_CHK((NULL == pEnable), CMM_ERR_NULL_POINT);
 3517              		.loc 1 391 5 discriminator 5 view .LVU982
 3518 0096 0F4B     		ldr	r3, .L368+16
 3519 0098 9A6B     		ldr	r2, [r3, #56]
 3520              	.LVL427:
 391:../switch_sdk/core/yt/yt_l2.c ****     CMM_PARAM_CHK((NULL == pEnable), CMM_ERR_NULL_POINT);
 3521              		.loc 1 391 5 is_stmt 0 discriminator 5 view .LVU983
 3522 009a 0F4B     		ldr	r3, .L368+20
 3523 009c 9968     		ldr	r1, [r3, #8]
 3524              	.LVL428:
 391:../switch_sdk/core/yt/yt_l2.c ****     CMM_PARAM_CHK((NULL == pEnable), CMM_ERR_NULL_POINT);
 3525              		.loc 1 391 5 discriminator 5 view .LVU984
 3526 009e 0F48     		ldr	r0, .L368+24
 3527 00a0 FFF7FEFF 		bl	osal_printf
 3528              	.LVL429:
 3529 00a4 F5E7     		b	.L355
 3530              	.LVL430:
 3531              	.L362:
 391:../switch_sdk/core/yt/yt_l2.c ****     CMM_PARAM_CHK((NULL == pEnable), CMM_ERR_NULL_POINT);
 3532              		.loc 1 391 5 discriminator 5 view .LVU985
 3533              	.LBE71:
 392:../switch_sdk/core/yt/yt_l2.c **** 
 3534              		.loc 1 392 5 is_stmt 1 discriminator 1 view .LVU986
 392:../switch_sdk/core/yt/yt_l2.c **** 
 3535              		.loc 1 392 5 discriminator 1 view .LVU987
 3536 00a6 0A4B     		ldr	r3, .L368+12
 3537 00a8 1B78     		ldrb	r3, [r3]	@ zero_extendqisi2
 3538 00aa 012B     		cmp	r3, #1
 3539 00ac 01D8     		bhi	.L367
 3540              	.LVL431:
 3541              	.L357:
 392:../switch_sdk/core/yt/yt_l2.c **** 
 3542              		.loc 1 392 5 discriminator 5 view .LVU988
 392:../switch_sdk/core/yt/yt_l2.c **** 
 3543              		.loc 1 392 5 discriminator 5 view .LVU989
 392:../switch_sdk/core/yt/yt_l2.c **** 
 3544              		.loc 1 392 5 discriminator 5 view .LVU990
 3545 00ae 0220     		movs	r0, #2
 3546 00b0 C0E7     		b	.L345
 3547              	.LVL432:
 3548              	.L367:
 392:../switch_sdk/core/yt/yt_l2.c **** 
 3549              		.loc 1 392 5 discriminator 3 view .LVU991
 3550              	.LBB72:
 392:../switch_sdk/core/yt/yt_l2.c **** 
 3551              		.loc 1 392 5 discriminator 3 view .LVU992
 3552 00b2 084B     		ldr	r3, .L368+16
 3553 00b4 9A68     		ldr	r2, [r3, #8]
 3554              	.LVL433:
 392:../switch_sdk/core/yt/yt_l2.c **** 
 3555              		.loc 1 392 5 is_stmt 0 discriminator 3 view .LVU993
 3556 00b6 084B     		ldr	r3, .L368+20
 3557 00b8 9968     		ldr	r1, [r3, #8]
 3558              	.LVL434:
 392:../switch_sdk/core/yt/yt_l2.c **** 
 3559              		.loc 1 392 5 discriminator 3 view .LVU994
 3560 00ba 0848     		ldr	r0, .L368+24
 3561 00bc FFF7FEFF 		bl	osal_printf
 3562              	.LVL435:
 3563 00c0 F5E7     		b	.L357
 3564              	.L369:
 3565 00c2 00BF     		.align	2
 3566              	.L368:
 3567 00c4 00000000 		.word	gpfal_dispatch
 3568 00c8 00000000 		.word	gcal_inited
 3569 00cc 00000000 		.word	gpSwitchUnit
 3570 00d0 00000000 		.word	yt_debug_level
 3571 00d4 00000000 		.word	_yt_errmsg
 3572 00d8 00000000 		.word	_yt_prompt_msg
 3573 00dc 00000000 		.word	.LC0
 3574              	.LBE72:
 3575              		.cfi_endproc
 3576              	.LFE19:
 3578              		.section	.text.yt_l2_port_learnlimit_cnt_set,"ax",%progbits
 3579              		.align	1
 3580              		.global	yt_l2_port_learnlimit_cnt_set
 3581              		.syntax unified
 3582              		.thumb
 3583              		.thumb_func
 3585              	yt_l2_port_learnlimit_cnt_set:
 3586              	.LVL436:
 3587              	.LFB20:
 396:../switch_sdk/core/yt/yt_l2.c **** 
 397:../switch_sdk/core/yt/yt_l2.c **** /**
 398:../switch_sdk/core/yt/yt_l2.c ****  * @internal      yt_l2_port_learnlimit_cnt_set
 399:../switch_sdk/core/yt/yt_l2.c ****  * @endinternal
 400:../switch_sdk/core/yt/yt_l2.c ****  *
 401:../switch_sdk/core/yt/yt_l2.c ****  * @brief         Description
 402:../switch_sdk/core/yt/yt_l2.c ****  * @note          APPLICABLE DEVICES  -Tiger
 403:../switch_sdk/core/yt/yt_l2.c ****  * @param[in]     unit                -unit id
 404:../switch_sdk/core/yt/yt_l2.c ****  * @param[in]     port                -port num
 405:../switch_sdk/core/yt/yt_l2.c ****  * @param[in]     maxcnt              -x
 406:../switch_sdk/core/yt/yt_l2.c ****  * @retval        CMM_ERR_OK          -on success
 407:../switch_sdk/core/yt/yt_l2.c ****  * @retval        CMM_ERR_FAIL        -on fail
 408:../switch_sdk/core/yt/yt_l2.c ****  */
 409:../switch_sdk/core/yt/yt_l2.c **** yt_ret_t  yt_l2_port_learnlimit_cnt_set(yt_unit_t unit, yt_port_t port, uint32_t maxcnt)
 410:../switch_sdk/core/yt/yt_l2.c **** {
 3588              		.loc 1 410 1 is_stmt 1 view -0
 3589              		.cfi_startproc
 3590              		@ args = 0, pretend = 0, frame = 0
 3591              		@ frame_needed = 0, uses_anonymous_args = 0
 3592              		.loc 1 410 1 is_stmt 0 view .LVU996
 3593 0000 08B5     		push	{r3, lr}
 3594              		.cfi_def_cfa_offset 8
 3595              		.cfi_offset 3, -8
 3596              		.cfi_offset 14, -4
 411:../switch_sdk/core/yt/yt_l2.c ****     CMM_PARAM_CHK((YT_UNIT_NUM <= unit), CMM_ERR_INPUT);
 3597              		.loc 1 411 5 is_stmt 1 view .LVU997
 3598              		.loc 1 411 5 view .LVU998
 3599 0002 A8B9     		cbnz	r0, .L382
 3600 0004 8446     		mov	ip, r0
 3601              		.loc 1 411 5 discriminator 2 view .LVU999
 412:../switch_sdk/core/yt/yt_l2.c ****     CMM_PARAM_CHK(NULL == YT_DISPATCH(unit), CMM_ERR_NOT_INIT);
 3602              		.loc 1 412 5 discriminator 2 view .LVU1000
 3603              		.loc 1 412 5 discriminator 2 view .LVU1001
 3604 0006 264B     		ldr	r3, .L389
 3605 0008 53F82030 		ldr	r3, [r3, r0, lsl #2]
 3606 000c F3B1     		cbz	r3, .L383
 3607              		.loc 1 412 5 discriminator 2 view .LVU1002
 413:../switch_sdk/core/yt/yt_l2.c ****     CMM_PARAM_CHK((!(YT_DISPATCH(unit)->is_inited)), CMM_ERR_NOT_INIT);
 3608              		.loc 1 413 5 discriminator 2 view .LVU1003
 3609              		.loc 1 413 5 discriminator 2 view .LVU1004
 3610 000e 1878     		ldrb	r0, [r3]	@ zero_extendqisi2
 3611              	.LVL437:
 3612              		.loc 1 413 5 is_stmt 0 discriminator 2 view .LVU1005
 3613 0010 50B3     		cbz	r0, .L384
 3614              		.loc 1 413 5 is_stmt 1 discriminator 2 view .LVU1006
 414:../switch_sdk/core/yt/yt_l2.c ****     CMM_PARAM_CHK((!(CMM_PORT_VALID(unit, port))), CMM_ERR_PORT);
 3615              		.loc 1 414 5 discriminator 2 view .LVU1007
 3616              		.loc 1 414 5 discriminator 2 view .LVU1008
 3617 0012 2448     		ldr	r0, .L389+4
 3618 0014 0078     		ldrb	r0, [r0]	@ zero_extendqisi2
 3619 0016 0028     		cmp	r0, #0
 3620 0018 34D0     		beq	.L378
 3621 001a 2348     		ldr	r0, .L389+8
 3622 001c 50F82C00 		ldr	r0, [r0, ip, lsl #2]
 3623 0020 007D     		ldrb	r0, [r0, #20]	@ zero_extendqisi2
 3624 0022 8842     		cmp	r0, r1
 3625 0024 2ED9     		bls	.L378
 3626              		.loc 1 414 5 discriminator 4 view .LVU1009
 415:../switch_sdk/core/yt/yt_l2.c **** 
 416:../switch_sdk/core/yt/yt_l2.c ****     return YT_DISPATCH(unit)->l2_port_learnlimit_cnt_set(unit, port, maxcnt);
 3627              		.loc 1 416 5 discriminator 4 view .LVU1010
 3628              		.loc 1 416 29 is_stmt 0 discriminator 4 view .LVU1011
 3629 0026 D3F88033 		ldr	r3, [r3, #896]
 3630              		.loc 1 416 12 discriminator 4 view .LVU1012
 3631 002a 6046     		mov	r0, ip
 3632 002c 9847     		blx	r3
 3633              	.LVL438:
 3634              	.L370:
 417:../switch_sdk/core/yt/yt_l2.c **** }
 3635              		.loc 1 417 1 view .LVU1013
 3636 002e 08BD     		pop	{r3, pc}
 3637              	.LVL439:
 3638              	.L382:
 411:../switch_sdk/core/yt/yt_l2.c ****     CMM_PARAM_CHK(NULL == YT_DISPATCH(unit), CMM_ERR_NOT_INIT);
 3639              		.loc 1 411 5 is_stmt 1 discriminator 1 view .LVU1014
 411:../switch_sdk/core/yt/yt_l2.c ****     CMM_PARAM_CHK(NULL == YT_DISPATCH(unit), CMM_ERR_NOT_INIT);
 3640              		.loc 1 411 5 discriminator 1 view .LVU1015
 3641 0030 1E4B     		ldr	r3, .L389+12
 3642 0032 1B78     		ldrb	r3, [r3]	@ zero_extendqisi2
 3643 0034 012B     		cmp	r3, #1
 3644 0036 01D8     		bhi	.L385
 3645              	.LVL440:
 3646              	.L372:
 411:../switch_sdk/core/yt/yt_l2.c ****     CMM_PARAM_CHK(NULL == YT_DISPATCH(unit), CMM_ERR_NOT_INIT);
 3647              		.loc 1 411 5 discriminator 5 view .LVU1016
 411:../switch_sdk/core/yt/yt_l2.c ****     CMM_PARAM_CHK(NULL == YT_DISPATCH(unit), CMM_ERR_NOT_INIT);
 3648              		.loc 1 411 5 discriminator 5 view .LVU1017
 411:../switch_sdk/core/yt/yt_l2.c ****     CMM_PARAM_CHK(NULL == YT_DISPATCH(unit), CMM_ERR_NOT_INIT);
 3649              		.loc 1 411 5 discriminator 5 view .LVU1018
 3650 0038 0520     		movs	r0, #5
 3651 003a F8E7     		b	.L370
 3652              	.LVL441:
 3653              	.L385:
 411:../switch_sdk/core/yt/yt_l2.c ****     CMM_PARAM_CHK(NULL == YT_DISPATCH(unit), CMM_ERR_NOT_INIT);
 3654              		.loc 1 411 5 discriminator 3 view .LVU1019
 3655              	.LBB73:
 411:../switch_sdk/core/yt/yt_l2.c ****     CMM_PARAM_CHK(NULL == YT_DISPATCH(unit), CMM_ERR_NOT_INIT);
 3656              		.loc 1 411 5 discriminator 3 view .LVU1020
 3657 003c 1C4B     		ldr	r3, .L389+16
 3658 003e 5A69     		ldr	r2, [r3, #20]
 3659              	.LVL442:
 411:../switch_sdk/core/yt/yt_l2.c ****     CMM_PARAM_CHK(NULL == YT_DISPATCH(unit), CMM_ERR_NOT_INIT);
 3660              		.loc 1 411 5 is_stmt 0 discriminator 3 view .LVU1021
 3661 0040 1C4B     		ldr	r3, .L389+20
 3662 0042 9968     		ldr	r1, [r3, #8]
 3663              	.LVL443:
 411:../switch_sdk/core/yt/yt_l2.c ****     CMM_PARAM_CHK(NULL == YT_DISPATCH(unit), CMM_ERR_NOT_INIT);
 3664              		.loc 1 411 5 discriminator 3 view .LVU1022
 3665 0044 1C48     		ldr	r0, .L389+24
 3666              	.LVL444:
 411:../switch_sdk/core/yt/yt_l2.c ****     CMM_PARAM_CHK(NULL == YT_DISPATCH(unit), CMM_ERR_NOT_INIT);
 3667              		.loc 1 411 5 discriminator 3 view .LVU1023
 3668 0046 FFF7FEFF 		bl	osal_printf
 3669              	.LVL445:
 3670 004a F5E7     		b	.L372
 3671              	.LVL446:
 3672              	.L383:
 411:../switch_sdk/core/yt/yt_l2.c ****     CMM_PARAM_CHK(NULL == YT_DISPATCH(unit), CMM_ERR_NOT_INIT);
 3673              		.loc 1 411 5 discriminator 3 view .LVU1024
 3674              	.LBE73:
 412:../switch_sdk/core/yt/yt_l2.c ****     CMM_PARAM_CHK((!(YT_DISPATCH(unit)->is_inited)), CMM_ERR_NOT_INIT);
 3675              		.loc 1 412 5 is_stmt 1 discriminator 1 view .LVU1025
 412:../switch_sdk/core/yt/yt_l2.c ****     CMM_PARAM_CHK((!(YT_DISPATCH(unit)->is_inited)), CMM_ERR_NOT_INIT);
 3676              		.loc 1 412 5 discriminator 1 view .LVU1026
 3677 004c 174B     		ldr	r3, .L389+12
 3678 004e 1B78     		ldrb	r3, [r3]	@ zero_extendqisi2
 3679 0050 012B     		cmp	r3, #1
 3680 0052 01D8     		bhi	.L386
 3681              	.LVL447:
 3682              	.L375:
 412:../switch_sdk/core/yt/yt_l2.c ****     CMM_PARAM_CHK((!(YT_DISPATCH(unit)->is_inited)), CMM_ERR_NOT_INIT);
 3683              		.loc 1 412 5 discriminator 5 view .LVU1027
 412:../switch_sdk/core/yt/yt_l2.c ****     CMM_PARAM_CHK((!(YT_DISPATCH(unit)->is_inited)), CMM_ERR_NOT_INIT);
 3684              		.loc 1 412 5 discriminator 5 view .LVU1028
 412:../switch_sdk/core/yt/yt_l2.c ****     CMM_PARAM_CHK((!(YT_DISPATCH(unit)->is_inited)), CMM_ERR_NOT_INIT);
 3685              		.loc 1 412 5 discriminator 5 view .LVU1029
 3686 0054 0420     		movs	r0, #4
 3687 0056 EAE7     		b	.L370
 3688              	.LVL448:
 3689              	.L386:
 412:../switch_sdk/core/yt/yt_l2.c ****     CMM_PARAM_CHK((!(YT_DISPATCH(unit)->is_inited)), CMM_ERR_NOT_INIT);
 3690              		.loc 1 412 5 discriminator 3 view .LVU1030
 3691              	.LBB74:
 412:../switch_sdk/core/yt/yt_l2.c ****     CMM_PARAM_CHK((!(YT_DISPATCH(unit)->is_inited)), CMM_ERR_NOT_INIT);
 3692              		.loc 1 412 5 discriminator 3 view .LVU1031
 3693 0058 154B     		ldr	r3, .L389+16
 3694 005a 1A69     		ldr	r2, [r3, #16]
 3695              	.LVL449:
 412:../switch_sdk/core/yt/yt_l2.c ****     CMM_PARAM_CHK((!(YT_DISPATCH(unit)->is_inited)), CMM_ERR_NOT_INIT);
 3696              		.loc 1 412 5 is_stmt 0 discriminator 3 view .LVU1032
 3697 005c 154B     		ldr	r3, .L389+20
 3698 005e 9968     		ldr	r1, [r3, #8]
 3699              	.LVL450:
 412:../switch_sdk/core/yt/yt_l2.c ****     CMM_PARAM_CHK((!(YT_DISPATCH(unit)->is_inited)), CMM_ERR_NOT_INIT);
 3700              		.loc 1 412 5 discriminator 3 view .LVU1033
 3701 0060 1548     		ldr	r0, .L389+24
 3702              	.LVL451:
 412:../switch_sdk/core/yt/yt_l2.c ****     CMM_PARAM_CHK((!(YT_DISPATCH(unit)->is_inited)), CMM_ERR_NOT_INIT);
 3703              		.loc 1 412 5 discriminator 3 view .LVU1034
 3704 0062 FFF7FEFF 		bl	osal_printf
 3705              	.LVL452:
 3706 0066 F5E7     		b	.L375
 3707              	.LVL453:
 3708              	.L384:
 412:../switch_sdk/core/yt/yt_l2.c ****     CMM_PARAM_CHK((!(YT_DISPATCH(unit)->is_inited)), CMM_ERR_NOT_INIT);
 3709              		.loc 1 412 5 discriminator 3 view .LVU1035
 3710              	.LBE74:
 413:../switch_sdk/core/yt/yt_l2.c ****     CMM_PARAM_CHK((!(CMM_PORT_VALID(unit, port))), CMM_ERR_PORT);
 3711              		.loc 1 413 5 is_stmt 1 discriminator 1 view .LVU1036
 413:../switch_sdk/core/yt/yt_l2.c ****     CMM_PARAM_CHK((!(CMM_PORT_VALID(unit, port))), CMM_ERR_PORT);
 3712              		.loc 1 413 5 discriminator 1 view .LVU1037
 3713 0068 104B     		ldr	r3, .L389+12
 3714 006a 1B78     		ldrb	r3, [r3]	@ zero_extendqisi2
 3715 006c 012B     		cmp	r3, #1
 3716 006e 01D8     		bhi	.L387
 3717              	.LVL454:
 3718              	.L377:
 413:../switch_sdk/core/yt/yt_l2.c ****     CMM_PARAM_CHK((!(CMM_PORT_VALID(unit, port))), CMM_ERR_PORT);
 3719              		.loc 1 413 5 discriminator 5 view .LVU1038
 413:../switch_sdk/core/yt/yt_l2.c ****     CMM_PARAM_CHK((!(CMM_PORT_VALID(unit, port))), CMM_ERR_PORT);
 3720              		.loc 1 413 5 discriminator 5 view .LVU1039
 413:../switch_sdk/core/yt/yt_l2.c ****     CMM_PARAM_CHK((!(CMM_PORT_VALID(unit, port))), CMM_ERR_PORT);
 3721              		.loc 1 413 5 discriminator 5 view .LVU1040
 3722 0070 0420     		movs	r0, #4
 3723 0072 DCE7     		b	.L370
 3724              	.LVL455:
 3725              	.L387:
 413:../switch_sdk/core/yt/yt_l2.c ****     CMM_PARAM_CHK((!(CMM_PORT_VALID(unit, port))), CMM_ERR_PORT);
 3726              		.loc 1 413 5 discriminator 3 view .LVU1041
 3727              	.LBB75:
 413:../switch_sdk/core/yt/yt_l2.c ****     CMM_PARAM_CHK((!(CMM_PORT_VALID(unit, port))), CMM_ERR_PORT);
 3728              		.loc 1 413 5 discriminator 3 view .LVU1042
 3729 0074 0E4B     		ldr	r3, .L389+16
 3730 0076 1A69     		ldr	r2, [r3, #16]
 3731              	.LVL456:
 413:../switch_sdk/core/yt/yt_l2.c ****     CMM_PARAM_CHK((!(CMM_PORT_VALID(unit, port))), CMM_ERR_PORT);
 3732              		.loc 1 413 5 is_stmt 0 discriminator 3 view .LVU1043
 3733 0078 0E4B     		ldr	r3, .L389+20
 3734 007a 9968     		ldr	r1, [r3, #8]
 3735              	.LVL457:
 413:../switch_sdk/core/yt/yt_l2.c ****     CMM_PARAM_CHK((!(CMM_PORT_VALID(unit, port))), CMM_ERR_PORT);
 3736              		.loc 1 413 5 discriminator 3 view .LVU1044
 3737 007c 0E48     		ldr	r0, .L389+24
 3738 007e FFF7FEFF 		bl	osal_printf
 3739              	.LVL458:
 3740 0082 F5E7     		b	.L377
 3741              	.LVL459:
 3742              	.L378:
 413:../switch_sdk/core/yt/yt_l2.c ****     CMM_PARAM_CHK((!(CMM_PORT_VALID(unit, port))), CMM_ERR_PORT);
 3743              		.loc 1 413 5 discriminator 3 view .LVU1045
 3744              	.LBE75:
 414:../switch_sdk/core/yt/yt_l2.c **** 
 3745              		.loc 1 414 5 is_stmt 1 discriminator 3 view .LVU1046
 414:../switch_sdk/core/yt/yt_l2.c **** 
 3746              		.loc 1 414 5 discriminator 3 view .LVU1047
 3747 0084 094B     		ldr	r3, .L389+12
 3748 0086 1B78     		ldrb	r3, [r3]	@ zero_extendqisi2
 3749 0088 012B     		cmp	r3, #1
 3750 008a 01D8     		bhi	.L388
 3751              	.LVL460:
 3752              	.L380:
 414:../switch_sdk/core/yt/yt_l2.c **** 
 3753              		.loc 1 414 5 discriminator 7 view .LVU1048
 414:../switch_sdk/core/yt/yt_l2.c **** 
 3754              		.loc 1 414 5 discriminator 7 view .LVU1049
 414:../switch_sdk/core/yt/yt_l2.c **** 
 3755              		.loc 1 414 5 discriminator 7 view .LVU1050
 3756 008c 0E20     		movs	r0, #14
 3757 008e CEE7     		b	.L370
 3758              	.LVL461:
 3759              	.L388:
 414:../switch_sdk/core/yt/yt_l2.c **** 
 3760              		.loc 1 414 5 discriminator 5 view .LVU1051
 3761              	.LBB76:
 414:../switch_sdk/core/yt/yt_l2.c **** 
 3762              		.loc 1 414 5 discriminator 5 view .LVU1052
 3763 0090 074B     		ldr	r3, .L389+16
 3764 0092 9A6B     		ldr	r2, [r3, #56]
 3765              	.LVL462:
 414:../switch_sdk/core/yt/yt_l2.c **** 
 3766              		.loc 1 414 5 is_stmt 0 discriminator 5 view .LVU1053
 3767 0094 074B     		ldr	r3, .L389+20
 3768 0096 9968     		ldr	r1, [r3, #8]
 3769              	.LVL463:
 414:../switch_sdk/core/yt/yt_l2.c **** 
 3770              		.loc 1 414 5 discriminator 5 view .LVU1054
 3771 0098 0748     		ldr	r0, .L389+24
 3772 009a FFF7FEFF 		bl	osal_printf
 3773              	.LVL464:
 3774 009e F5E7     		b	.L380
 3775              	.L390:
 3776              		.align	2
 3777              	.L389:
 3778 00a0 00000000 		.word	gpfal_dispatch
 3779 00a4 00000000 		.word	gcal_inited
 3780 00a8 00000000 		.word	gpSwitchUnit
 3781 00ac 00000000 		.word	yt_debug_level
 3782 00b0 00000000 		.word	_yt_errmsg
 3783 00b4 00000000 		.word	_yt_prompt_msg
 3784 00b8 00000000 		.word	.LC0
 3785              	.LBE76:
 3786              		.cfi_endproc
 3787              	.LFE20:
 3789              		.section	.text.yt_l2_port_learnlimit_cnt_get,"ax",%progbits
 3790              		.align	1
 3791              		.global	yt_l2_port_learnlimit_cnt_get
 3792              		.syntax unified
 3793              		.thumb
 3794              		.thumb_func
 3796              	yt_l2_port_learnlimit_cnt_get:
 3797              	.LVL465:
 3798              	.LFB21:
 418:../switch_sdk/core/yt/yt_l2.c **** 
 419:../switch_sdk/core/yt/yt_l2.c **** /**
 420:../switch_sdk/core/yt/yt_l2.c ****  * @internal      yt_l2_port_learnlimit_cnt_get
 421:../switch_sdk/core/yt/yt_l2.c ****  * @endinternal
 422:../switch_sdk/core/yt/yt_l2.c ****  *
 423:../switch_sdk/core/yt/yt_l2.c ****  * @brief         Description
 424:../switch_sdk/core/yt/yt_l2.c ****  * @note          APPLICABLE DEVICES  -Tiger
 425:../switch_sdk/core/yt/yt_l2.c ****  * @param[in]     unit                -unit id
 426:../switch_sdk/core/yt/yt_l2.c ****  * @param[in]     port                -port num
 427:../switch_sdk/core/yt/yt_l2.c ****  * @param[out]    pmaxcnt             -x
 428:../switch_sdk/core/yt/yt_l2.c ****  * @retval        CMM_ERR_OK          -on success
 429:../switch_sdk/core/yt/yt_l2.c ****  * @retval        CMM_ERR_FAIL        -on fail
 430:../switch_sdk/core/yt/yt_l2.c ****  */
 431:../switch_sdk/core/yt/yt_l2.c **** yt_ret_t  yt_l2_port_learnlimit_cnt_get(yt_unit_t unit, yt_port_t port, uint32_t *pmaxcnt)
 432:../switch_sdk/core/yt/yt_l2.c **** {
 3799              		.loc 1 432 1 is_stmt 1 view -0
 3800              		.cfi_startproc
 3801              		@ args = 0, pretend = 0, frame = 0
 3802              		@ frame_needed = 0, uses_anonymous_args = 0
 3803              		.loc 1 432 1 is_stmt 0 view .LVU1056
 3804 0000 08B5     		push	{r3, lr}
 3805              		.cfi_def_cfa_offset 8
 3806              		.cfi_offset 3, -8
 3807              		.cfi_offset 14, -4
 433:../switch_sdk/core/yt/yt_l2.c ****     CMM_PARAM_CHK((YT_UNIT_NUM <= unit), CMM_ERR_INPUT);
 3808              		.loc 1 433 5 is_stmt 1 view .LVU1057
 3809              		.loc 1 433 5 view .LVU1058
 3810 0002 C0B9     		cbnz	r0, .L405
 3811 0004 8446     		mov	ip, r0
 3812              		.loc 1 433 5 discriminator 2 view .LVU1059
 434:../switch_sdk/core/yt/yt_l2.c ****     CMM_PARAM_CHK(NULL == YT_DISPATCH(unit), CMM_ERR_NOT_INIT);
 3813              		.loc 1 434 5 discriminator 2 view .LVU1060
 3814              		.loc 1 434 5 discriminator 2 view .LVU1061
 3815 0006 2F4B     		ldr	r3, .L414
 3816 0008 53F82030 		ldr	r3, [r3, r0, lsl #2]
 3817 000c 0BB3     		cbz	r3, .L406
 3818              		.loc 1 434 5 discriminator 2 view .LVU1062
 435:../switch_sdk/core/yt/yt_l2.c ****     CMM_PARAM_CHK((!(YT_DISPATCH(unit)->is_inited)), CMM_ERR_NOT_INIT);
 3819              		.loc 1 435 5 discriminator 2 view .LVU1063
 3820              		.loc 1 435 5 discriminator 2 view .LVU1064
 3821 000e 1878     		ldrb	r0, [r3]	@ zero_extendqisi2
 3822              	.LVL466:
 3823              		.loc 1 435 5 is_stmt 0 discriminator 2 view .LVU1065
 3824 0010 0028     		cmp	r0, #0
 3825 0012 2CD0     		beq	.L407
 3826              		.loc 1 435 5 is_stmt 1 discriminator 2 view .LVU1066
 436:../switch_sdk/core/yt/yt_l2.c ****     CMM_PARAM_CHK((!(CMM_PORT_VALID(unit, port))), CMM_ERR_PORT);
 3827              		.loc 1 436 5 discriminator 2 view .LVU1067
 3828              		.loc 1 436 5 discriminator 2 view .LVU1068
 3829 0014 2C48     		ldr	r0, .L414+4
 3830 0016 0078     		ldrb	r0, [r0]	@ zero_extendqisi2
 3831 0018 0028     		cmp	r0, #0
 3832 001a 36D0     		beq	.L399
 3833 001c 2B48     		ldr	r0, .L414+8
 3834 001e 50F82C00 		ldr	r0, [r0, ip, lsl #2]
 3835 0022 007D     		ldrb	r0, [r0, #20]	@ zero_extendqisi2
 3836 0024 8842     		cmp	r0, r1
 3837 0026 30D9     		bls	.L399
 3838              		.loc 1 436 5 discriminator 4 view .LVU1069
 437:../switch_sdk/core/yt/yt_l2.c ****     CMM_PARAM_CHK((NULL == pmaxcnt), CMM_ERR_NULL_POINT);
 3839              		.loc 1 437 5 discriminator 4 view .LVU1070
 3840              		.loc 1 437 5 discriminator 4 view .LVU1071
 3841 0028 002A     		cmp	r2, #0
 3842 002a 3CD0     		beq	.L408
 3843              		.loc 1 437 5 discriminator 2 view .LVU1072
 438:../switch_sdk/core/yt/yt_l2.c **** 
 439:../switch_sdk/core/yt/yt_l2.c ****     return YT_DISPATCH(unit)->l2_port_learnlimit_cnt_get(unit, port, pmaxcnt);
 3844              		.loc 1 439 5 discriminator 2 view .LVU1073
 3845              		.loc 1 439 29 is_stmt 0 discriminator 2 view .LVU1074
 3846 002c D3F88433 		ldr	r3, [r3, #900]
 3847              		.loc 1 439 12 discriminator 2 view .LVU1075
 3848 0030 6046     		mov	r0, ip
 3849 0032 9847     		blx	r3
 3850              	.LVL467:
 3851              	.L391:
 440:../switch_sdk/core/yt/yt_l2.c **** }
 3852              		.loc 1 440 1 view .LVU1076
 3853 0034 08BD     		pop	{r3, pc}
 3854              	.LVL468:
 3855              	.L405:
 433:../switch_sdk/core/yt/yt_l2.c ****     CMM_PARAM_CHK(NULL == YT_DISPATCH(unit), CMM_ERR_NOT_INIT);
 3856              		.loc 1 433 5 is_stmt 1 discriminator 1 view .LVU1077
 433:../switch_sdk/core/yt/yt_l2.c ****     CMM_PARAM_CHK(NULL == YT_DISPATCH(unit), CMM_ERR_NOT_INIT);
 3857              		.loc 1 433 5 discriminator 1 view .LVU1078
 3858 0036 264B     		ldr	r3, .L414+12
 3859 0038 1B78     		ldrb	r3, [r3]	@ zero_extendqisi2
 3860 003a 012B     		cmp	r3, #1
 3861 003c 01D8     		bhi	.L409
 3862              	.LVL469:
 3863              	.L393:
 433:../switch_sdk/core/yt/yt_l2.c ****     CMM_PARAM_CHK(NULL == YT_DISPATCH(unit), CMM_ERR_NOT_INIT);
 3864              		.loc 1 433 5 discriminator 5 view .LVU1079
 433:../switch_sdk/core/yt/yt_l2.c ****     CMM_PARAM_CHK(NULL == YT_DISPATCH(unit), CMM_ERR_NOT_INIT);
 3865              		.loc 1 433 5 discriminator 5 view .LVU1080
 433:../switch_sdk/core/yt/yt_l2.c ****     CMM_PARAM_CHK(NULL == YT_DISPATCH(unit), CMM_ERR_NOT_INIT);
 3866              		.loc 1 433 5 discriminator 5 view .LVU1081
 3867 003e 0520     		movs	r0, #5
 3868 0040 F8E7     		b	.L391
 3869              	.LVL470:
 3870              	.L409:
 433:../switch_sdk/core/yt/yt_l2.c ****     CMM_PARAM_CHK(NULL == YT_DISPATCH(unit), CMM_ERR_NOT_INIT);
 3871              		.loc 1 433 5 discriminator 3 view .LVU1082
 3872              	.LBB77:
 433:../switch_sdk/core/yt/yt_l2.c ****     CMM_PARAM_CHK(NULL == YT_DISPATCH(unit), CMM_ERR_NOT_INIT);
 3873              		.loc 1 433 5 discriminator 3 view .LVU1083
 3874 0042 244B     		ldr	r3, .L414+16
 3875 0044 5A69     		ldr	r2, [r3, #20]
 3876              	.LVL471:
 433:../switch_sdk/core/yt/yt_l2.c ****     CMM_PARAM_CHK(NULL == YT_DISPATCH(unit), CMM_ERR_NOT_INIT);
 3877              		.loc 1 433 5 is_stmt 0 discriminator 3 view .LVU1084
 3878 0046 244B     		ldr	r3, .L414+20
 3879 0048 9968     		ldr	r1, [r3, #8]
 3880              	.LVL472:
 433:../switch_sdk/core/yt/yt_l2.c ****     CMM_PARAM_CHK(NULL == YT_DISPATCH(unit), CMM_ERR_NOT_INIT);
 3881              		.loc 1 433 5 discriminator 3 view .LVU1085
 3882 004a 2448     		ldr	r0, .L414+24
 3883              	.LVL473:
 433:../switch_sdk/core/yt/yt_l2.c ****     CMM_PARAM_CHK(NULL == YT_DISPATCH(unit), CMM_ERR_NOT_INIT);
 3884              		.loc 1 433 5 discriminator 3 view .LVU1086
 3885 004c FFF7FEFF 		bl	osal_printf
 3886              	.LVL474:
 3887 0050 F5E7     		b	.L393
 3888              	.LVL475:
 3889              	.L406:
 433:../switch_sdk/core/yt/yt_l2.c ****     CMM_PARAM_CHK(NULL == YT_DISPATCH(unit), CMM_ERR_NOT_INIT);
 3890              		.loc 1 433 5 discriminator 3 view .LVU1087
 3891              	.LBE77:
 434:../switch_sdk/core/yt/yt_l2.c ****     CMM_PARAM_CHK((!(YT_DISPATCH(unit)->is_inited)), CMM_ERR_NOT_INIT);
 3892              		.loc 1 434 5 is_stmt 1 discriminator 1 view .LVU1088
 434:../switch_sdk/core/yt/yt_l2.c ****     CMM_PARAM_CHK((!(YT_DISPATCH(unit)->is_inited)), CMM_ERR_NOT_INIT);
 3893              		.loc 1 434 5 discriminator 1 view .LVU1089
 3894 0052 1F4B     		ldr	r3, .L414+12
 3895 0054 1B78     		ldrb	r3, [r3]	@ zero_extendqisi2
 3896 0056 012B     		cmp	r3, #1
 3897 0058 01D8     		bhi	.L410
 3898              	.LVL476:
 3899              	.L396:
 434:../switch_sdk/core/yt/yt_l2.c ****     CMM_PARAM_CHK((!(YT_DISPATCH(unit)->is_inited)), CMM_ERR_NOT_INIT);
 3900              		.loc 1 434 5 discriminator 5 view .LVU1090
 434:../switch_sdk/core/yt/yt_l2.c ****     CMM_PARAM_CHK((!(YT_DISPATCH(unit)->is_inited)), CMM_ERR_NOT_INIT);
 3901              		.loc 1 434 5 discriminator 5 view .LVU1091
 434:../switch_sdk/core/yt/yt_l2.c ****     CMM_PARAM_CHK((!(YT_DISPATCH(unit)->is_inited)), CMM_ERR_NOT_INIT);
 3902              		.loc 1 434 5 discriminator 5 view .LVU1092
 3903 005a 0420     		movs	r0, #4
 3904 005c EAE7     		b	.L391
 3905              	.LVL477:
 3906              	.L410:
 434:../switch_sdk/core/yt/yt_l2.c ****     CMM_PARAM_CHK((!(YT_DISPATCH(unit)->is_inited)), CMM_ERR_NOT_INIT);
 3907              		.loc 1 434 5 discriminator 3 view .LVU1093
 3908              	.LBB78:
 434:../switch_sdk/core/yt/yt_l2.c ****     CMM_PARAM_CHK((!(YT_DISPATCH(unit)->is_inited)), CMM_ERR_NOT_INIT);
 3909              		.loc 1 434 5 discriminator 3 view .LVU1094
 3910 005e 1D4B     		ldr	r3, .L414+16
 3911 0060 1A69     		ldr	r2, [r3, #16]
 3912              	.LVL478:
 434:../switch_sdk/core/yt/yt_l2.c ****     CMM_PARAM_CHK((!(YT_DISPATCH(unit)->is_inited)), CMM_ERR_NOT_INIT);
 3913              		.loc 1 434 5 is_stmt 0 discriminator 3 view .LVU1095
 3914 0062 1D4B     		ldr	r3, .L414+20
 3915 0064 9968     		ldr	r1, [r3, #8]
 3916              	.LVL479:
 434:../switch_sdk/core/yt/yt_l2.c ****     CMM_PARAM_CHK((!(YT_DISPATCH(unit)->is_inited)), CMM_ERR_NOT_INIT);
 3917              		.loc 1 434 5 discriminator 3 view .LVU1096
 3918 0066 1D48     		ldr	r0, .L414+24
 3919              	.LVL480:
 434:../switch_sdk/core/yt/yt_l2.c ****     CMM_PARAM_CHK((!(YT_DISPATCH(unit)->is_inited)), CMM_ERR_NOT_INIT);
 3920              		.loc 1 434 5 discriminator 3 view .LVU1097
 3921 0068 FFF7FEFF 		bl	osal_printf
 3922              	.LVL481:
 3923 006c F5E7     		b	.L396
 3924              	.LVL482:
 3925              	.L407:
 434:../switch_sdk/core/yt/yt_l2.c ****     CMM_PARAM_CHK((!(YT_DISPATCH(unit)->is_inited)), CMM_ERR_NOT_INIT);
 3926              		.loc 1 434 5 discriminator 3 view .LVU1098
 3927              	.LBE78:
 435:../switch_sdk/core/yt/yt_l2.c ****     CMM_PARAM_CHK((!(CMM_PORT_VALID(unit, port))), CMM_ERR_PORT);
 3928              		.loc 1 435 5 is_stmt 1 discriminator 1 view .LVU1099
 435:../switch_sdk/core/yt/yt_l2.c ****     CMM_PARAM_CHK((!(CMM_PORT_VALID(unit, port))), CMM_ERR_PORT);
 3929              		.loc 1 435 5 discriminator 1 view .LVU1100
 3930 006e 184B     		ldr	r3, .L414+12
 3931 0070 1B78     		ldrb	r3, [r3]	@ zero_extendqisi2
 3932 0072 012B     		cmp	r3, #1
 3933 0074 01D8     		bhi	.L411
 3934              	.LVL483:
 3935              	.L398:
 435:../switch_sdk/core/yt/yt_l2.c ****     CMM_PARAM_CHK((!(CMM_PORT_VALID(unit, port))), CMM_ERR_PORT);
 3936              		.loc 1 435 5 discriminator 5 view .LVU1101
 435:../switch_sdk/core/yt/yt_l2.c ****     CMM_PARAM_CHK((!(CMM_PORT_VALID(unit, port))), CMM_ERR_PORT);
 3937              		.loc 1 435 5 discriminator 5 view .LVU1102
 435:../switch_sdk/core/yt/yt_l2.c ****     CMM_PARAM_CHK((!(CMM_PORT_VALID(unit, port))), CMM_ERR_PORT);
 3938              		.loc 1 435 5 discriminator 5 view .LVU1103
 3939 0076 0420     		movs	r0, #4
 3940 0078 DCE7     		b	.L391
 3941              	.LVL484:
 3942              	.L411:
 435:../switch_sdk/core/yt/yt_l2.c ****     CMM_PARAM_CHK((!(CMM_PORT_VALID(unit, port))), CMM_ERR_PORT);
 3943              		.loc 1 435 5 discriminator 3 view .LVU1104
 3944              	.LBB79:
 435:../switch_sdk/core/yt/yt_l2.c ****     CMM_PARAM_CHK((!(CMM_PORT_VALID(unit, port))), CMM_ERR_PORT);
 3945              		.loc 1 435 5 discriminator 3 view .LVU1105
 3946 007a 164B     		ldr	r3, .L414+16
 3947 007c 1A69     		ldr	r2, [r3, #16]
 3948              	.LVL485:
 435:../switch_sdk/core/yt/yt_l2.c ****     CMM_PARAM_CHK((!(CMM_PORT_VALID(unit, port))), CMM_ERR_PORT);
 3949              		.loc 1 435 5 is_stmt 0 discriminator 3 view .LVU1106
 3950 007e 164B     		ldr	r3, .L414+20
 3951 0080 9968     		ldr	r1, [r3, #8]
 3952              	.LVL486:
 435:../switch_sdk/core/yt/yt_l2.c ****     CMM_PARAM_CHK((!(CMM_PORT_VALID(unit, port))), CMM_ERR_PORT);
 3953              		.loc 1 435 5 discriminator 3 view .LVU1107
 3954 0082 1648     		ldr	r0, .L414+24
 3955 0084 FFF7FEFF 		bl	osal_printf
 3956              	.LVL487:
 3957 0088 F5E7     		b	.L398
 3958              	.LVL488:
 3959              	.L399:
 435:../switch_sdk/core/yt/yt_l2.c ****     CMM_PARAM_CHK((!(CMM_PORT_VALID(unit, port))), CMM_ERR_PORT);
 3960              		.loc 1 435 5 discriminator 3 view .LVU1108
 3961              	.LBE79:
 436:../switch_sdk/core/yt/yt_l2.c ****     CMM_PARAM_CHK((NULL == pmaxcnt), CMM_ERR_NULL_POINT);
 3962              		.loc 1 436 5 is_stmt 1 discriminator 3 view .LVU1109
 436:../switch_sdk/core/yt/yt_l2.c ****     CMM_PARAM_CHK((NULL == pmaxcnt), CMM_ERR_NULL_POINT);
 3963              		.loc 1 436 5 discriminator 3 view .LVU1110
 3964 008a 114B     		ldr	r3, .L414+12
 3965 008c 1B78     		ldrb	r3, [r3]	@ zero_extendqisi2
 3966 008e 012B     		cmp	r3, #1
 3967 0090 01D8     		bhi	.L412
 3968              	.LVL489:
 3969              	.L401:
 436:../switch_sdk/core/yt/yt_l2.c ****     CMM_PARAM_CHK((NULL == pmaxcnt), CMM_ERR_NULL_POINT);
 3970              		.loc 1 436 5 discriminator 7 view .LVU1111
 436:../switch_sdk/core/yt/yt_l2.c ****     CMM_PARAM_CHK((NULL == pmaxcnt), CMM_ERR_NULL_POINT);
 3971              		.loc 1 436 5 discriminator 7 view .LVU1112
 436:../switch_sdk/core/yt/yt_l2.c ****     CMM_PARAM_CHK((NULL == pmaxcnt), CMM_ERR_NULL_POINT);
 3972              		.loc 1 436 5 discriminator 7 view .LVU1113
 3973 0092 0E20     		movs	r0, #14
 3974 0094 CEE7     		b	.L391
 3975              	.LVL490:
 3976              	.L412:
 436:../switch_sdk/core/yt/yt_l2.c ****     CMM_PARAM_CHK((NULL == pmaxcnt), CMM_ERR_NULL_POINT);
 3977              		.loc 1 436 5 discriminator 5 view .LVU1114
 3978              	.LBB80:
 436:../switch_sdk/core/yt/yt_l2.c ****     CMM_PARAM_CHK((NULL == pmaxcnt), CMM_ERR_NULL_POINT);
 3979              		.loc 1 436 5 discriminator 5 view .LVU1115
 3980 0096 0F4B     		ldr	r3, .L414+16
 3981 0098 9A6B     		ldr	r2, [r3, #56]
 3982              	.LVL491:
 436:../switch_sdk/core/yt/yt_l2.c ****     CMM_PARAM_CHK((NULL == pmaxcnt), CMM_ERR_NULL_POINT);
 3983              		.loc 1 436 5 is_stmt 0 discriminator 5 view .LVU1116
 3984 009a 0F4B     		ldr	r3, .L414+20
 3985 009c 9968     		ldr	r1, [r3, #8]
 3986              	.LVL492:
 436:../switch_sdk/core/yt/yt_l2.c ****     CMM_PARAM_CHK((NULL == pmaxcnt), CMM_ERR_NULL_POINT);
 3987              		.loc 1 436 5 discriminator 5 view .LVU1117
 3988 009e 0F48     		ldr	r0, .L414+24
 3989 00a0 FFF7FEFF 		bl	osal_printf
 3990              	.LVL493:
 3991 00a4 F5E7     		b	.L401
 3992              	.LVL494:
 3993              	.L408:
 436:../switch_sdk/core/yt/yt_l2.c ****     CMM_PARAM_CHK((NULL == pmaxcnt), CMM_ERR_NULL_POINT);
 3994              		.loc 1 436 5 discriminator 5 view .LVU1118
 3995              	.LBE80:
 437:../switch_sdk/core/yt/yt_l2.c **** 
 3996              		.loc 1 437 5 is_stmt 1 discriminator 1 view .LVU1119
 437:../switch_sdk/core/yt/yt_l2.c **** 
 3997              		.loc 1 437 5 discriminator 1 view .LVU1120
 3998 00a6 0A4B     		ldr	r3, .L414+12
 3999 00a8 1B78     		ldrb	r3, [r3]	@ zero_extendqisi2
 4000 00aa 012B     		cmp	r3, #1
 4001 00ac 01D8     		bhi	.L413
 4002              	.LVL495:
 4003              	.L403:
 437:../switch_sdk/core/yt/yt_l2.c **** 
 4004              		.loc 1 437 5 discriminator 5 view .LVU1121
 437:../switch_sdk/core/yt/yt_l2.c **** 
 4005              		.loc 1 437 5 discriminator 5 view .LVU1122
 437:../switch_sdk/core/yt/yt_l2.c **** 
 4006              		.loc 1 437 5 discriminator 5 view .LVU1123
 4007 00ae 0220     		movs	r0, #2
 4008 00b0 C0E7     		b	.L391
 4009              	.LVL496:
 4010              	.L413:
 437:../switch_sdk/core/yt/yt_l2.c **** 
 4011              		.loc 1 437 5 discriminator 3 view .LVU1124
 4012              	.LBB81:
 437:../switch_sdk/core/yt/yt_l2.c **** 
 4013              		.loc 1 437 5 discriminator 3 view .LVU1125
 4014 00b2 084B     		ldr	r3, .L414+16
 4015 00b4 9A68     		ldr	r2, [r3, #8]
 4016              	.LVL497:
 437:../switch_sdk/core/yt/yt_l2.c **** 
 4017              		.loc 1 437 5 is_stmt 0 discriminator 3 view .LVU1126
 4018 00b6 084B     		ldr	r3, .L414+20
 4019 00b8 9968     		ldr	r1, [r3, #8]
 4020              	.LVL498:
 437:../switch_sdk/core/yt/yt_l2.c **** 
 4021              		.loc 1 437 5 discriminator 3 view .LVU1127
 4022 00ba 0848     		ldr	r0, .L414+24
 4023 00bc FFF7FEFF 		bl	osal_printf
 4024              	.LVL499:
 4025 00c0 F5E7     		b	.L403
 4026              	.L415:
 4027 00c2 00BF     		.align	2
 4028              	.L414:
 4029 00c4 00000000 		.word	gpfal_dispatch
 4030 00c8 00000000 		.word	gcal_inited
 4031 00cc 00000000 		.word	gpSwitchUnit
 4032 00d0 00000000 		.word	yt_debug_level
 4033 00d4 00000000 		.word	_yt_errmsg
 4034 00d8 00000000 		.word	_yt_prompt_msg
 4035 00dc 00000000 		.word	.LC0
 4036              	.LBE81:
 4037              		.cfi_endproc
 4038              	.LFE21:
 4040              		.section	.text.yt_l2_port_learnlimit_exceed_drop_set,"ax",%progbits
 4041              		.align	1
 4042              		.global	yt_l2_port_learnlimit_exceed_drop_set
 4043              		.syntax unified
 4044              		.thumb
 4045              		.thumb_func
 4047              	yt_l2_port_learnlimit_exceed_drop_set:
 4048              	.LVL500:
 4049              	.LFB22:
 441:../switch_sdk/core/yt/yt_l2.c **** 
 442:../switch_sdk/core/yt/yt_l2.c **** /**
 443:../switch_sdk/core/yt/yt_l2.c ****  * @internal      yt_l2_port_learnlimit_exceed_drop_set
 444:../switch_sdk/core/yt/yt_l2.c ****  * @endinternal
 445:../switch_sdk/core/yt/yt_l2.c ****  *
 446:../switch_sdk/core/yt/yt_l2.c ****  * @brief         Description
 447:../switch_sdk/core/yt/yt_l2.c ****  * @note          APPLICABLE DEVICES  -Tiger
 448:../switch_sdk/core/yt/yt_l2.c ****  * @param[in]     unit                -unit id
 449:../switch_sdk/core/yt/yt_l2.c ****  * @param[in]     port                -port num
 450:../switch_sdk/core/yt/yt_l2.c ****  * @param[in]     enable              -enable or disable
 451:../switch_sdk/core/yt/yt_l2.c ****  * @retval        CMM_ERR_OK          -on success
 452:../switch_sdk/core/yt/yt_l2.c ****  * @retval        CMM_ERR_FAIL        -on fail
 453:../switch_sdk/core/yt/yt_l2.c ****  */
 454:../switch_sdk/core/yt/yt_l2.c **** yt_ret_t  yt_l2_port_learnlimit_exceed_drop_set(yt_unit_t unit, yt_port_t port, yt_enable_t enable)
 455:../switch_sdk/core/yt/yt_l2.c **** {
 4050              		.loc 1 455 1 is_stmt 1 view -0
 4051              		.cfi_startproc
 4052              		@ args = 0, pretend = 0, frame = 0
 4053              		@ frame_needed = 0, uses_anonymous_args = 0
 4054              		.loc 1 455 1 is_stmt 0 view .LVU1129
 4055 0000 08B5     		push	{r3, lr}
 4056              		.cfi_def_cfa_offset 8
 4057              		.cfi_offset 3, -8
 4058              		.cfi_offset 14, -4
 456:../switch_sdk/core/yt/yt_l2.c ****     CMM_PARAM_CHK((YT_UNIT_NUM <= unit), CMM_ERR_INPUT);
 4059              		.loc 1 456 5 is_stmt 1 view .LVU1130
 4060              		.loc 1 456 5 view .LVU1131
 4061 0002 C0B9     		cbnz	r0, .L430
 4062 0004 8446     		mov	ip, r0
 4063              		.loc 1 456 5 discriminator 2 view .LVU1132
 457:../switch_sdk/core/yt/yt_l2.c ****     CMM_PARAM_CHK(NULL == YT_DISPATCH(unit), CMM_ERR_NOT_INIT);
 4064              		.loc 1 457 5 discriminator 2 view .LVU1133
 4065              		.loc 1 457 5 discriminator 2 view .LVU1134
 4066 0006 2F4B     		ldr	r3, .L439
 4067 0008 53F82030 		ldr	r3, [r3, r0, lsl #2]
 4068 000c 0BB3     		cbz	r3, .L431
 4069              		.loc 1 457 5 discriminator 2 view .LVU1135
 458:../switch_sdk/core/yt/yt_l2.c ****     CMM_PARAM_CHK((!(YT_DISPATCH(unit)->is_inited)), CMM_ERR_NOT_INIT);
 4070              		.loc 1 458 5 discriminator 2 view .LVU1136
 4071              		.loc 1 458 5 discriminator 2 view .LVU1137
 4072 000e 1878     		ldrb	r0, [r3]	@ zero_extendqisi2
 4073              	.LVL501:
 4074              		.loc 1 458 5 is_stmt 0 discriminator 2 view .LVU1138
 4075 0010 0028     		cmp	r0, #0
 4076 0012 2CD0     		beq	.L432
 4077              		.loc 1 458 5 is_stmt 1 discriminator 2 view .LVU1139
 459:../switch_sdk/core/yt/yt_l2.c ****     CMM_PARAM_CHK((!(CMM_PORT_VALID(unit, port))), CMM_ERR_PORT);
 4078              		.loc 1 459 5 discriminator 2 view .LVU1140
 4079              		.loc 1 459 5 discriminator 2 view .LVU1141
 4080 0014 2C48     		ldr	r0, .L439+4
 4081 0016 0078     		ldrb	r0, [r0]	@ zero_extendqisi2
 4082 0018 0028     		cmp	r0, #0
 4083 001a 36D0     		beq	.L424
 4084 001c 2B48     		ldr	r0, .L439+8
 4085 001e 50F82C00 		ldr	r0, [r0, ip, lsl #2]
 4086 0022 007D     		ldrb	r0, [r0, #20]	@ zero_extendqisi2
 4087 0024 8842     		cmp	r0, r1
 4088 0026 30D9     		bls	.L424
 4089              		.loc 1 459 5 discriminator 4 view .LVU1142
 460:../switch_sdk/core/yt/yt_l2.c ****     CMM_PARAM_CHK((YT_ENABLE < enable || YT_DISABLE > enable), CMM_ERR_INPUT);
 4090              		.loc 1 460 5 discriminator 4 view .LVU1143
 4091              		.loc 1 460 5 discriminator 4 view .LVU1144
 4092 0028 012A     		cmp	r2, #1
 4093 002a 3CD8     		bhi	.L433
 4094              		.loc 1 460 5 discriminator 2 view .LVU1145
 461:../switch_sdk/core/yt/yt_l2.c **** 
 462:../switch_sdk/core/yt/yt_l2.c ****     return YT_DISPATCH(unit)->l2_port_learnlimit_exceed_drop_set(unit, port, enable);
 4095              		.loc 1 462 5 discriminator 2 view .LVU1146
 4096              		.loc 1 462 29 is_stmt 0 discriminator 2 view .LVU1147
 4097 002c D3F88833 		ldr	r3, [r3, #904]
 4098              		.loc 1 462 12 discriminator 2 view .LVU1148
 4099 0030 6046     		mov	r0, ip
 4100 0032 9847     		blx	r3
 4101              	.LVL502:
 4102              	.L416:
 463:../switch_sdk/core/yt/yt_l2.c **** }
 4103              		.loc 1 463 1 view .LVU1149
 4104 0034 08BD     		pop	{r3, pc}
 4105              	.LVL503:
 4106              	.L430:
 456:../switch_sdk/core/yt/yt_l2.c ****     CMM_PARAM_CHK(NULL == YT_DISPATCH(unit), CMM_ERR_NOT_INIT);
 4107              		.loc 1 456 5 is_stmt 1 discriminator 1 view .LVU1150
 456:../switch_sdk/core/yt/yt_l2.c ****     CMM_PARAM_CHK(NULL == YT_DISPATCH(unit), CMM_ERR_NOT_INIT);
 4108              		.loc 1 456 5 discriminator 1 view .LVU1151
 4109 0036 264B     		ldr	r3, .L439+12
 4110 0038 1B78     		ldrb	r3, [r3]	@ zero_extendqisi2
 4111 003a 012B     		cmp	r3, #1
 4112 003c 01D8     		bhi	.L434
 4113              	.LVL504:
 4114              	.L418:
 456:../switch_sdk/core/yt/yt_l2.c ****     CMM_PARAM_CHK(NULL == YT_DISPATCH(unit), CMM_ERR_NOT_INIT);
 4115              		.loc 1 456 5 discriminator 5 view .LVU1152
 456:../switch_sdk/core/yt/yt_l2.c ****     CMM_PARAM_CHK(NULL == YT_DISPATCH(unit), CMM_ERR_NOT_INIT);
 4116              		.loc 1 456 5 discriminator 5 view .LVU1153
 456:../switch_sdk/core/yt/yt_l2.c ****     CMM_PARAM_CHK(NULL == YT_DISPATCH(unit), CMM_ERR_NOT_INIT);
 4117              		.loc 1 456 5 discriminator 5 view .LVU1154
 4118 003e 0520     		movs	r0, #5
 4119 0040 F8E7     		b	.L416
 4120              	.LVL505:
 4121              	.L434:
 456:../switch_sdk/core/yt/yt_l2.c ****     CMM_PARAM_CHK(NULL == YT_DISPATCH(unit), CMM_ERR_NOT_INIT);
 4122              		.loc 1 456 5 discriminator 3 view .LVU1155
 4123              	.LBB82:
 456:../switch_sdk/core/yt/yt_l2.c ****     CMM_PARAM_CHK(NULL == YT_DISPATCH(unit), CMM_ERR_NOT_INIT);
 4124              		.loc 1 456 5 discriminator 3 view .LVU1156
 4125 0042 244B     		ldr	r3, .L439+16
 4126 0044 5A69     		ldr	r2, [r3, #20]
 4127              	.LVL506:
 456:../switch_sdk/core/yt/yt_l2.c ****     CMM_PARAM_CHK(NULL == YT_DISPATCH(unit), CMM_ERR_NOT_INIT);
 4128              		.loc 1 456 5 is_stmt 0 discriminator 3 view .LVU1157
 4129 0046 244B     		ldr	r3, .L439+20
 4130 0048 9968     		ldr	r1, [r3, #8]
 4131              	.LVL507:
 456:../switch_sdk/core/yt/yt_l2.c ****     CMM_PARAM_CHK(NULL == YT_DISPATCH(unit), CMM_ERR_NOT_INIT);
 4132              		.loc 1 456 5 discriminator 3 view .LVU1158
 4133 004a 2448     		ldr	r0, .L439+24
 4134              	.LVL508:
 456:../switch_sdk/core/yt/yt_l2.c ****     CMM_PARAM_CHK(NULL == YT_DISPATCH(unit), CMM_ERR_NOT_INIT);
 4135              		.loc 1 456 5 discriminator 3 view .LVU1159
 4136 004c FFF7FEFF 		bl	osal_printf
 4137              	.LVL509:
 4138 0050 F5E7     		b	.L418
 4139              	.LVL510:
 4140              	.L431:
 456:../switch_sdk/core/yt/yt_l2.c ****     CMM_PARAM_CHK(NULL == YT_DISPATCH(unit), CMM_ERR_NOT_INIT);
 4141              		.loc 1 456 5 discriminator 3 view .LVU1160
 4142              	.LBE82:
 457:../switch_sdk/core/yt/yt_l2.c ****     CMM_PARAM_CHK((!(YT_DISPATCH(unit)->is_inited)), CMM_ERR_NOT_INIT);
 4143              		.loc 1 457 5 is_stmt 1 discriminator 1 view .LVU1161
 457:../switch_sdk/core/yt/yt_l2.c ****     CMM_PARAM_CHK((!(YT_DISPATCH(unit)->is_inited)), CMM_ERR_NOT_INIT);
 4144              		.loc 1 457 5 discriminator 1 view .LVU1162
 4145 0052 1F4B     		ldr	r3, .L439+12
 4146 0054 1B78     		ldrb	r3, [r3]	@ zero_extendqisi2
 4147 0056 012B     		cmp	r3, #1
 4148 0058 01D8     		bhi	.L435
 4149              	.LVL511:
 4150              	.L421:
 457:../switch_sdk/core/yt/yt_l2.c ****     CMM_PARAM_CHK((!(YT_DISPATCH(unit)->is_inited)), CMM_ERR_NOT_INIT);
 4151              		.loc 1 457 5 discriminator 5 view .LVU1163
 457:../switch_sdk/core/yt/yt_l2.c ****     CMM_PARAM_CHK((!(YT_DISPATCH(unit)->is_inited)), CMM_ERR_NOT_INIT);
 4152              		.loc 1 457 5 discriminator 5 view .LVU1164
 457:../switch_sdk/core/yt/yt_l2.c ****     CMM_PARAM_CHK((!(YT_DISPATCH(unit)->is_inited)), CMM_ERR_NOT_INIT);
 4153              		.loc 1 457 5 discriminator 5 view .LVU1165
 4154 005a 0420     		movs	r0, #4
 4155 005c EAE7     		b	.L416
 4156              	.LVL512:
 4157              	.L435:
 457:../switch_sdk/core/yt/yt_l2.c ****     CMM_PARAM_CHK((!(YT_DISPATCH(unit)->is_inited)), CMM_ERR_NOT_INIT);
 4158              		.loc 1 457 5 discriminator 3 view .LVU1166
 4159              	.LBB83:
 457:../switch_sdk/core/yt/yt_l2.c ****     CMM_PARAM_CHK((!(YT_DISPATCH(unit)->is_inited)), CMM_ERR_NOT_INIT);
 4160              		.loc 1 457 5 discriminator 3 view .LVU1167
 4161 005e 1D4B     		ldr	r3, .L439+16
 4162 0060 1A69     		ldr	r2, [r3, #16]
 4163              	.LVL513:
 457:../switch_sdk/core/yt/yt_l2.c ****     CMM_PARAM_CHK((!(YT_DISPATCH(unit)->is_inited)), CMM_ERR_NOT_INIT);
 4164              		.loc 1 457 5 is_stmt 0 discriminator 3 view .LVU1168
 4165 0062 1D4B     		ldr	r3, .L439+20
 4166 0064 9968     		ldr	r1, [r3, #8]
 4167              	.LVL514:
 457:../switch_sdk/core/yt/yt_l2.c ****     CMM_PARAM_CHK((!(YT_DISPATCH(unit)->is_inited)), CMM_ERR_NOT_INIT);
 4168              		.loc 1 457 5 discriminator 3 view .LVU1169
 4169 0066 1D48     		ldr	r0, .L439+24
 4170              	.LVL515:
 457:../switch_sdk/core/yt/yt_l2.c ****     CMM_PARAM_CHK((!(YT_DISPATCH(unit)->is_inited)), CMM_ERR_NOT_INIT);
 4171              		.loc 1 457 5 discriminator 3 view .LVU1170
 4172 0068 FFF7FEFF 		bl	osal_printf
 4173              	.LVL516:
 4174 006c F5E7     		b	.L421
 4175              	.LVL517:
 4176              	.L432:
 457:../switch_sdk/core/yt/yt_l2.c ****     CMM_PARAM_CHK((!(YT_DISPATCH(unit)->is_inited)), CMM_ERR_NOT_INIT);
 4177              		.loc 1 457 5 discriminator 3 view .LVU1171
 4178              	.LBE83:
 458:../switch_sdk/core/yt/yt_l2.c ****     CMM_PARAM_CHK((!(CMM_PORT_VALID(unit, port))), CMM_ERR_PORT);
 4179              		.loc 1 458 5 is_stmt 1 discriminator 1 view .LVU1172
 458:../switch_sdk/core/yt/yt_l2.c ****     CMM_PARAM_CHK((!(CMM_PORT_VALID(unit, port))), CMM_ERR_PORT);
 4180              		.loc 1 458 5 discriminator 1 view .LVU1173
 4181 006e 184B     		ldr	r3, .L439+12
 4182 0070 1B78     		ldrb	r3, [r3]	@ zero_extendqisi2
 4183 0072 012B     		cmp	r3, #1
 4184 0074 01D8     		bhi	.L436
 4185              	.LVL518:
 4186              	.L423:
 458:../switch_sdk/core/yt/yt_l2.c ****     CMM_PARAM_CHK((!(CMM_PORT_VALID(unit, port))), CMM_ERR_PORT);
 4187              		.loc 1 458 5 discriminator 5 view .LVU1174
 458:../switch_sdk/core/yt/yt_l2.c ****     CMM_PARAM_CHK((!(CMM_PORT_VALID(unit, port))), CMM_ERR_PORT);
 4188              		.loc 1 458 5 discriminator 5 view .LVU1175
 458:../switch_sdk/core/yt/yt_l2.c ****     CMM_PARAM_CHK((!(CMM_PORT_VALID(unit, port))), CMM_ERR_PORT);
 4189              		.loc 1 458 5 discriminator 5 view .LVU1176
 4190 0076 0420     		movs	r0, #4
 4191 0078 DCE7     		b	.L416
 4192              	.LVL519:
 4193              	.L436:
 458:../switch_sdk/core/yt/yt_l2.c ****     CMM_PARAM_CHK((!(CMM_PORT_VALID(unit, port))), CMM_ERR_PORT);
 4194              		.loc 1 458 5 discriminator 3 view .LVU1177
 4195              	.LBB84:
 458:../switch_sdk/core/yt/yt_l2.c ****     CMM_PARAM_CHK((!(CMM_PORT_VALID(unit, port))), CMM_ERR_PORT);
 4196              		.loc 1 458 5 discriminator 3 view .LVU1178
 4197 007a 164B     		ldr	r3, .L439+16
 4198 007c 1A69     		ldr	r2, [r3, #16]
 4199              	.LVL520:
 458:../switch_sdk/core/yt/yt_l2.c ****     CMM_PARAM_CHK((!(CMM_PORT_VALID(unit, port))), CMM_ERR_PORT);
 4200              		.loc 1 458 5 is_stmt 0 discriminator 3 view .LVU1179
 4201 007e 164B     		ldr	r3, .L439+20
 4202 0080 9968     		ldr	r1, [r3, #8]
 4203              	.LVL521:
 458:../switch_sdk/core/yt/yt_l2.c ****     CMM_PARAM_CHK((!(CMM_PORT_VALID(unit, port))), CMM_ERR_PORT);
 4204              		.loc 1 458 5 discriminator 3 view .LVU1180
 4205 0082 1648     		ldr	r0, .L439+24
 4206 0084 FFF7FEFF 		bl	osal_printf
 4207              	.LVL522:
 4208 0088 F5E7     		b	.L423
 4209              	.LVL523:
 4210              	.L424:
 458:../switch_sdk/core/yt/yt_l2.c ****     CMM_PARAM_CHK((!(CMM_PORT_VALID(unit, port))), CMM_ERR_PORT);
 4211              		.loc 1 458 5 discriminator 3 view .LVU1181
 4212              	.LBE84:
 459:../switch_sdk/core/yt/yt_l2.c ****     CMM_PARAM_CHK((YT_ENABLE < enable || YT_DISABLE > enable), CMM_ERR_INPUT);
 4213              		.loc 1 459 5 is_stmt 1 discriminator 3 view .LVU1182
 459:../switch_sdk/core/yt/yt_l2.c ****     CMM_PARAM_CHK((YT_ENABLE < enable || YT_DISABLE > enable), CMM_ERR_INPUT);
 4214              		.loc 1 459 5 discriminator 3 view .LVU1183
 4215 008a 114B     		ldr	r3, .L439+12
 4216 008c 1B78     		ldrb	r3, [r3]	@ zero_extendqisi2
 4217 008e 012B     		cmp	r3, #1
 4218 0090 01D8     		bhi	.L437
 4219              	.LVL524:
 4220              	.L426:
 459:../switch_sdk/core/yt/yt_l2.c ****     CMM_PARAM_CHK((YT_ENABLE < enable || YT_DISABLE > enable), CMM_ERR_INPUT);
 4221              		.loc 1 459 5 discriminator 7 view .LVU1184
 459:../switch_sdk/core/yt/yt_l2.c ****     CMM_PARAM_CHK((YT_ENABLE < enable || YT_DISABLE > enable), CMM_ERR_INPUT);
 4222              		.loc 1 459 5 discriminator 7 view .LVU1185
 459:../switch_sdk/core/yt/yt_l2.c ****     CMM_PARAM_CHK((YT_ENABLE < enable || YT_DISABLE > enable), CMM_ERR_INPUT);
 4223              		.loc 1 459 5 discriminator 7 view .LVU1186
 4224 0092 0E20     		movs	r0, #14
 4225 0094 CEE7     		b	.L416
 4226              	.LVL525:
 4227              	.L437:
 459:../switch_sdk/core/yt/yt_l2.c ****     CMM_PARAM_CHK((YT_ENABLE < enable || YT_DISABLE > enable), CMM_ERR_INPUT);
 4228              		.loc 1 459 5 discriminator 5 view .LVU1187
 4229              	.LBB85:
 459:../switch_sdk/core/yt/yt_l2.c ****     CMM_PARAM_CHK((YT_ENABLE < enable || YT_DISABLE > enable), CMM_ERR_INPUT);
 4230              		.loc 1 459 5 discriminator 5 view .LVU1188
 4231 0096 0F4B     		ldr	r3, .L439+16
 4232 0098 9A6B     		ldr	r2, [r3, #56]
 4233              	.LVL526:
 459:../switch_sdk/core/yt/yt_l2.c ****     CMM_PARAM_CHK((YT_ENABLE < enable || YT_DISABLE > enable), CMM_ERR_INPUT);
 4234              		.loc 1 459 5 is_stmt 0 discriminator 5 view .LVU1189
 4235 009a 0F4B     		ldr	r3, .L439+20
 4236 009c 9968     		ldr	r1, [r3, #8]
 4237              	.LVL527:
 459:../switch_sdk/core/yt/yt_l2.c ****     CMM_PARAM_CHK((YT_ENABLE < enable || YT_DISABLE > enable), CMM_ERR_INPUT);
 4238              		.loc 1 459 5 discriminator 5 view .LVU1190
 4239 009e 0F48     		ldr	r0, .L439+24
 4240 00a0 FFF7FEFF 		bl	osal_printf
 4241              	.LVL528:
 4242 00a4 F5E7     		b	.L426
 4243              	.LVL529:
 4244              	.L433:
 459:../switch_sdk/core/yt/yt_l2.c ****     CMM_PARAM_CHK((YT_ENABLE < enable || YT_DISABLE > enable), CMM_ERR_INPUT);
 4245              		.loc 1 459 5 discriminator 5 view .LVU1191
 4246              	.LBE85:
 460:../switch_sdk/core/yt/yt_l2.c **** 
 4247              		.loc 1 460 5 is_stmt 1 discriminator 1 view .LVU1192
 460:../switch_sdk/core/yt/yt_l2.c **** 
 4248              		.loc 1 460 5 discriminator 1 view .LVU1193
 4249 00a6 0A4B     		ldr	r3, .L439+12
 4250 00a8 1B78     		ldrb	r3, [r3]	@ zero_extendqisi2
 4251 00aa 012B     		cmp	r3, #1
 4252 00ac 01D8     		bhi	.L438
 4253              	.LVL530:
 4254              	.L428:
 460:../switch_sdk/core/yt/yt_l2.c **** 
 4255              		.loc 1 460 5 discriminator 5 view .LVU1194
 460:../switch_sdk/core/yt/yt_l2.c **** 
 4256              		.loc 1 460 5 discriminator 5 view .LVU1195
 460:../switch_sdk/core/yt/yt_l2.c **** 
 4257              		.loc 1 460 5 discriminator 5 view .LVU1196
 4258 00ae 0520     		movs	r0, #5
 4259 00b0 C0E7     		b	.L416
 4260              	.LVL531:
 4261              	.L438:
 460:../switch_sdk/core/yt/yt_l2.c **** 
 4262              		.loc 1 460 5 discriminator 3 view .LVU1197
 4263              	.LBB86:
 460:../switch_sdk/core/yt/yt_l2.c **** 
 4264              		.loc 1 460 5 discriminator 3 view .LVU1198
 4265 00b2 084B     		ldr	r3, .L439+16
 4266 00b4 5A69     		ldr	r2, [r3, #20]
 4267              	.LVL532:
 460:../switch_sdk/core/yt/yt_l2.c **** 
 4268              		.loc 1 460 5 is_stmt 0 discriminator 3 view .LVU1199
 4269 00b6 084B     		ldr	r3, .L439+20
 4270 00b8 9968     		ldr	r1, [r3, #8]
 4271              	.LVL533:
 460:../switch_sdk/core/yt/yt_l2.c **** 
 4272              		.loc 1 460 5 discriminator 3 view .LVU1200
 4273 00ba 0848     		ldr	r0, .L439+24
 4274 00bc FFF7FEFF 		bl	osal_printf
 4275              	.LVL534:
 4276 00c0 F5E7     		b	.L428
 4277              	.L440:
 4278 00c2 00BF     		.align	2
 4279              	.L439:
 4280 00c4 00000000 		.word	gpfal_dispatch
 4281 00c8 00000000 		.word	gcal_inited
 4282 00cc 00000000 		.word	gpSwitchUnit
 4283 00d0 00000000 		.word	yt_debug_level
 4284 00d4 00000000 		.word	_yt_errmsg
 4285 00d8 00000000 		.word	_yt_prompt_msg
 4286 00dc 00000000 		.word	.LC0
 4287              	.LBE86:
 4288              		.cfi_endproc
 4289              	.LFE22:
 4291              		.section	.text.yt_l2_port_learnlimit_exceed_drop_get,"ax",%progbits
 4292              		.align	1
 4293              		.global	yt_l2_port_learnlimit_exceed_drop_get
 4294              		.syntax unified
 4295              		.thumb
 4296              		.thumb_func
 4298              	yt_l2_port_learnlimit_exceed_drop_get:
 4299              	.LVL535:
 4300              	.LFB23:
 464:../switch_sdk/core/yt/yt_l2.c **** 
 465:../switch_sdk/core/yt/yt_l2.c **** /**
 466:../switch_sdk/core/yt/yt_l2.c ****  * @internal      yt_l2_port_learnlimit_exceed_drop_get
 467:../switch_sdk/core/yt/yt_l2.c ****  * @endinternal
 468:../switch_sdk/core/yt/yt_l2.c ****  *
 469:../switch_sdk/core/yt/yt_l2.c ****  * @brief         Description
 470:../switch_sdk/core/yt/yt_l2.c ****  * @note          APPLICABLE DEVICES  -Tiger
 471:../switch_sdk/core/yt/yt_l2.c ****  * @param[in]     unit                -unit id
 472:../switch_sdk/core/yt/yt_l2.c ****  * @param[in]     port                -port num
 473:../switch_sdk/core/yt/yt_l2.c ****  * @param[out]    pEnable             -enable or disable
 474:../switch_sdk/core/yt/yt_l2.c ****  * @retval        CMM_ERR_OK          -on success
 475:../switch_sdk/core/yt/yt_l2.c ****  * @retval        CMM_ERR_FAIL        -on fail
 476:../switch_sdk/core/yt/yt_l2.c ****  */
 477:../switch_sdk/core/yt/yt_l2.c **** yt_ret_t  yt_l2_port_learnlimit_exceed_drop_get(yt_unit_t unit, yt_port_t port, yt_enable_t *pEnabl
 478:../switch_sdk/core/yt/yt_l2.c **** {
 4301              		.loc 1 478 1 is_stmt 1 view -0
 4302              		.cfi_startproc
 4303              		@ args = 0, pretend = 0, frame = 0
 4304              		@ frame_needed = 0, uses_anonymous_args = 0
 4305              		.loc 1 478 1 is_stmt 0 view .LVU1202
 4306 0000 08B5     		push	{r3, lr}
 4307              		.cfi_def_cfa_offset 8
 4308              		.cfi_offset 3, -8
 4309              		.cfi_offset 14, -4
 479:../switch_sdk/core/yt/yt_l2.c ****     CMM_PARAM_CHK((YT_UNIT_NUM <= unit), CMM_ERR_INPUT);
 4310              		.loc 1 479 5 is_stmt 1 view .LVU1203
 4311              		.loc 1 479 5 view .LVU1204
 4312 0002 C0B9     		cbnz	r0, .L455
 4313 0004 8446     		mov	ip, r0
 4314              		.loc 1 479 5 discriminator 2 view .LVU1205
 480:../switch_sdk/core/yt/yt_l2.c ****     CMM_PARAM_CHK(NULL == YT_DISPATCH(unit), CMM_ERR_NOT_INIT);
 4315              		.loc 1 480 5 discriminator 2 view .LVU1206
 4316              		.loc 1 480 5 discriminator 2 view .LVU1207
 4317 0006 2F4B     		ldr	r3, .L464
 4318 0008 53F82030 		ldr	r3, [r3, r0, lsl #2]
 4319 000c 0BB3     		cbz	r3, .L456
 4320              		.loc 1 480 5 discriminator 2 view .LVU1208
 481:../switch_sdk/core/yt/yt_l2.c ****     CMM_PARAM_CHK((!(YT_DISPATCH(unit)->is_inited)), CMM_ERR_NOT_INIT);
 4321              		.loc 1 481 5 discriminator 2 view .LVU1209
 4322              		.loc 1 481 5 discriminator 2 view .LVU1210
 4323 000e 1878     		ldrb	r0, [r3]	@ zero_extendqisi2
 4324              	.LVL536:
 4325              		.loc 1 481 5 is_stmt 0 discriminator 2 view .LVU1211
 4326 0010 0028     		cmp	r0, #0
 4327 0012 2CD0     		beq	.L457
 4328              		.loc 1 481 5 is_stmt 1 discriminator 2 view .LVU1212
 482:../switch_sdk/core/yt/yt_l2.c ****     CMM_PARAM_CHK((!(CMM_PORT_VALID(unit, port))), CMM_ERR_PORT);
 4329              		.loc 1 482 5 discriminator 2 view .LVU1213
 4330              		.loc 1 482 5 discriminator 2 view .LVU1214
 4331 0014 2C48     		ldr	r0, .L464+4
 4332 0016 0078     		ldrb	r0, [r0]	@ zero_extendqisi2
 4333 0018 0028     		cmp	r0, #0
 4334 001a 36D0     		beq	.L449
 4335 001c 2B48     		ldr	r0, .L464+8
 4336 001e 50F82C00 		ldr	r0, [r0, ip, lsl #2]
 4337 0022 007D     		ldrb	r0, [r0, #20]	@ zero_extendqisi2
 4338 0024 8842     		cmp	r0, r1
 4339 0026 30D9     		bls	.L449
 4340              		.loc 1 482 5 discriminator 4 view .LVU1215
 483:../switch_sdk/core/yt/yt_l2.c ****     CMM_PARAM_CHK((NULL == pEnable), CMM_ERR_NULL_POINT);
 4341              		.loc 1 483 5 discriminator 4 view .LVU1216
 4342              		.loc 1 483 5 discriminator 4 view .LVU1217
 4343 0028 002A     		cmp	r2, #0
 4344 002a 3CD0     		beq	.L458
 4345              		.loc 1 483 5 discriminator 2 view .LVU1218
 484:../switch_sdk/core/yt/yt_l2.c **** 
 485:../switch_sdk/core/yt/yt_l2.c ****     return YT_DISPATCH(unit)->l2_port_learnlimit_exceed_drop_get(unit, port, pEnable);
 4346              		.loc 1 485 5 discriminator 2 view .LVU1219
 4347              		.loc 1 485 29 is_stmt 0 discriminator 2 view .LVU1220
 4348 002c D3F88C33 		ldr	r3, [r3, #908]
 4349              		.loc 1 485 12 discriminator 2 view .LVU1221
 4350 0030 6046     		mov	r0, ip
 4351 0032 9847     		blx	r3
 4352              	.LVL537:
 4353              	.L441:
 486:../switch_sdk/core/yt/yt_l2.c **** }
 4354              		.loc 1 486 1 view .LVU1222
 4355 0034 08BD     		pop	{r3, pc}
 4356              	.LVL538:
 4357              	.L455:
 479:../switch_sdk/core/yt/yt_l2.c ****     CMM_PARAM_CHK(NULL == YT_DISPATCH(unit), CMM_ERR_NOT_INIT);
 4358              		.loc 1 479 5 is_stmt 1 discriminator 1 view .LVU1223
 479:../switch_sdk/core/yt/yt_l2.c ****     CMM_PARAM_CHK(NULL == YT_DISPATCH(unit), CMM_ERR_NOT_INIT);
 4359              		.loc 1 479 5 discriminator 1 view .LVU1224
 4360 0036 264B     		ldr	r3, .L464+12
 4361 0038 1B78     		ldrb	r3, [r3]	@ zero_extendqisi2
 4362 003a 012B     		cmp	r3, #1
 4363 003c 01D8     		bhi	.L459
 4364              	.LVL539:
 4365              	.L443:
 479:../switch_sdk/core/yt/yt_l2.c ****     CMM_PARAM_CHK(NULL == YT_DISPATCH(unit), CMM_ERR_NOT_INIT);
 4366              		.loc 1 479 5 discriminator 5 view .LVU1225
 479:../switch_sdk/core/yt/yt_l2.c ****     CMM_PARAM_CHK(NULL == YT_DISPATCH(unit), CMM_ERR_NOT_INIT);
 4367              		.loc 1 479 5 discriminator 5 view .LVU1226
 479:../switch_sdk/core/yt/yt_l2.c ****     CMM_PARAM_CHK(NULL == YT_DISPATCH(unit), CMM_ERR_NOT_INIT);
 4368              		.loc 1 479 5 discriminator 5 view .LVU1227
 4369 003e 0520     		movs	r0, #5
 4370 0040 F8E7     		b	.L441
 4371              	.LVL540:
 4372              	.L459:
 479:../switch_sdk/core/yt/yt_l2.c ****     CMM_PARAM_CHK(NULL == YT_DISPATCH(unit), CMM_ERR_NOT_INIT);
 4373              		.loc 1 479 5 discriminator 3 view .LVU1228
 4374              	.LBB87:
 479:../switch_sdk/core/yt/yt_l2.c ****     CMM_PARAM_CHK(NULL == YT_DISPATCH(unit), CMM_ERR_NOT_INIT);
 4375              		.loc 1 479 5 discriminator 3 view .LVU1229
 4376 0042 244B     		ldr	r3, .L464+16
 4377 0044 5A69     		ldr	r2, [r3, #20]
 4378              	.LVL541:
 479:../switch_sdk/core/yt/yt_l2.c ****     CMM_PARAM_CHK(NULL == YT_DISPATCH(unit), CMM_ERR_NOT_INIT);
 4379              		.loc 1 479 5 is_stmt 0 discriminator 3 view .LVU1230
 4380 0046 244B     		ldr	r3, .L464+20
 4381 0048 9968     		ldr	r1, [r3, #8]
 4382              	.LVL542:
 479:../switch_sdk/core/yt/yt_l2.c ****     CMM_PARAM_CHK(NULL == YT_DISPATCH(unit), CMM_ERR_NOT_INIT);
 4383              		.loc 1 479 5 discriminator 3 view .LVU1231
 4384 004a 2448     		ldr	r0, .L464+24
 4385              	.LVL543:
 479:../switch_sdk/core/yt/yt_l2.c ****     CMM_PARAM_CHK(NULL == YT_DISPATCH(unit), CMM_ERR_NOT_INIT);
 4386              		.loc 1 479 5 discriminator 3 view .LVU1232
 4387 004c FFF7FEFF 		bl	osal_printf
 4388              	.LVL544:
 4389 0050 F5E7     		b	.L443
 4390              	.LVL545:
 4391              	.L456:
 479:../switch_sdk/core/yt/yt_l2.c ****     CMM_PARAM_CHK(NULL == YT_DISPATCH(unit), CMM_ERR_NOT_INIT);
 4392              		.loc 1 479 5 discriminator 3 view .LVU1233
 4393              	.LBE87:
 480:../switch_sdk/core/yt/yt_l2.c ****     CMM_PARAM_CHK((!(YT_DISPATCH(unit)->is_inited)), CMM_ERR_NOT_INIT);
 4394              		.loc 1 480 5 is_stmt 1 discriminator 1 view .LVU1234
 480:../switch_sdk/core/yt/yt_l2.c ****     CMM_PARAM_CHK((!(YT_DISPATCH(unit)->is_inited)), CMM_ERR_NOT_INIT);
 4395              		.loc 1 480 5 discriminator 1 view .LVU1235
 4396 0052 1F4B     		ldr	r3, .L464+12
 4397 0054 1B78     		ldrb	r3, [r3]	@ zero_extendqisi2
 4398 0056 012B     		cmp	r3, #1
 4399 0058 01D8     		bhi	.L460
 4400              	.LVL546:
 4401              	.L446:
 480:../switch_sdk/core/yt/yt_l2.c ****     CMM_PARAM_CHK((!(YT_DISPATCH(unit)->is_inited)), CMM_ERR_NOT_INIT);
 4402              		.loc 1 480 5 discriminator 5 view .LVU1236
 480:../switch_sdk/core/yt/yt_l2.c ****     CMM_PARAM_CHK((!(YT_DISPATCH(unit)->is_inited)), CMM_ERR_NOT_INIT);
 4403              		.loc 1 480 5 discriminator 5 view .LVU1237
 480:../switch_sdk/core/yt/yt_l2.c ****     CMM_PARAM_CHK((!(YT_DISPATCH(unit)->is_inited)), CMM_ERR_NOT_INIT);
 4404              		.loc 1 480 5 discriminator 5 view .LVU1238
 4405 005a 0420     		movs	r0, #4
 4406 005c EAE7     		b	.L441
 4407              	.LVL547:
 4408              	.L460:
 480:../switch_sdk/core/yt/yt_l2.c ****     CMM_PARAM_CHK((!(YT_DISPATCH(unit)->is_inited)), CMM_ERR_NOT_INIT);
 4409              		.loc 1 480 5 discriminator 3 view .LVU1239
 4410              	.LBB88:
 480:../switch_sdk/core/yt/yt_l2.c ****     CMM_PARAM_CHK((!(YT_DISPATCH(unit)->is_inited)), CMM_ERR_NOT_INIT);
 4411              		.loc 1 480 5 discriminator 3 view .LVU1240
 4412 005e 1D4B     		ldr	r3, .L464+16
 4413 0060 1A69     		ldr	r2, [r3, #16]
 4414              	.LVL548:
 480:../switch_sdk/core/yt/yt_l2.c ****     CMM_PARAM_CHK((!(YT_DISPATCH(unit)->is_inited)), CMM_ERR_NOT_INIT);
 4415              		.loc 1 480 5 is_stmt 0 discriminator 3 view .LVU1241
 4416 0062 1D4B     		ldr	r3, .L464+20
 4417 0064 9968     		ldr	r1, [r3, #8]
 4418              	.LVL549:
 480:../switch_sdk/core/yt/yt_l2.c ****     CMM_PARAM_CHK((!(YT_DISPATCH(unit)->is_inited)), CMM_ERR_NOT_INIT);
 4419              		.loc 1 480 5 discriminator 3 view .LVU1242
 4420 0066 1D48     		ldr	r0, .L464+24
 4421              	.LVL550:
 480:../switch_sdk/core/yt/yt_l2.c ****     CMM_PARAM_CHK((!(YT_DISPATCH(unit)->is_inited)), CMM_ERR_NOT_INIT);
 4422              		.loc 1 480 5 discriminator 3 view .LVU1243
 4423 0068 FFF7FEFF 		bl	osal_printf
 4424              	.LVL551:
 4425 006c F5E7     		b	.L446
 4426              	.LVL552:
 4427              	.L457:
 480:../switch_sdk/core/yt/yt_l2.c ****     CMM_PARAM_CHK((!(YT_DISPATCH(unit)->is_inited)), CMM_ERR_NOT_INIT);
 4428              		.loc 1 480 5 discriminator 3 view .LVU1244
 4429              	.LBE88:
 481:../switch_sdk/core/yt/yt_l2.c ****     CMM_PARAM_CHK((!(CMM_PORT_VALID(unit, port))), CMM_ERR_PORT);
 4430              		.loc 1 481 5 is_stmt 1 discriminator 1 view .LVU1245
 481:../switch_sdk/core/yt/yt_l2.c ****     CMM_PARAM_CHK((!(CMM_PORT_VALID(unit, port))), CMM_ERR_PORT);
 4431              		.loc 1 481 5 discriminator 1 view .LVU1246
 4432 006e 184B     		ldr	r3, .L464+12
 4433 0070 1B78     		ldrb	r3, [r3]	@ zero_extendqisi2
 4434 0072 012B     		cmp	r3, #1
 4435 0074 01D8     		bhi	.L461
 4436              	.LVL553:
 4437              	.L448:
 481:../switch_sdk/core/yt/yt_l2.c ****     CMM_PARAM_CHK((!(CMM_PORT_VALID(unit, port))), CMM_ERR_PORT);
 4438              		.loc 1 481 5 discriminator 5 view .LVU1247
 481:../switch_sdk/core/yt/yt_l2.c ****     CMM_PARAM_CHK((!(CMM_PORT_VALID(unit, port))), CMM_ERR_PORT);
 4439              		.loc 1 481 5 discriminator 5 view .LVU1248
 481:../switch_sdk/core/yt/yt_l2.c ****     CMM_PARAM_CHK((!(CMM_PORT_VALID(unit, port))), CMM_ERR_PORT);
 4440              		.loc 1 481 5 discriminator 5 view .LVU1249
 4441 0076 0420     		movs	r0, #4
 4442 0078 DCE7     		b	.L441
 4443              	.LVL554:
 4444              	.L461:
 481:../switch_sdk/core/yt/yt_l2.c ****     CMM_PARAM_CHK((!(CMM_PORT_VALID(unit, port))), CMM_ERR_PORT);
 4445              		.loc 1 481 5 discriminator 3 view .LVU1250
 4446              	.LBB89:
 481:../switch_sdk/core/yt/yt_l2.c ****     CMM_PARAM_CHK((!(CMM_PORT_VALID(unit, port))), CMM_ERR_PORT);
 4447              		.loc 1 481 5 discriminator 3 view .LVU1251
 4448 007a 164B     		ldr	r3, .L464+16
 4449 007c 1A69     		ldr	r2, [r3, #16]
 4450              	.LVL555:
 481:../switch_sdk/core/yt/yt_l2.c ****     CMM_PARAM_CHK((!(CMM_PORT_VALID(unit, port))), CMM_ERR_PORT);
 4451              		.loc 1 481 5 is_stmt 0 discriminator 3 view .LVU1252
 4452 007e 164B     		ldr	r3, .L464+20
 4453 0080 9968     		ldr	r1, [r3, #8]
 4454              	.LVL556:
 481:../switch_sdk/core/yt/yt_l2.c ****     CMM_PARAM_CHK((!(CMM_PORT_VALID(unit, port))), CMM_ERR_PORT);
 4455              		.loc 1 481 5 discriminator 3 view .LVU1253
 4456 0082 1648     		ldr	r0, .L464+24
 4457 0084 FFF7FEFF 		bl	osal_printf
 4458              	.LVL557:
 4459 0088 F5E7     		b	.L448
 4460              	.LVL558:
 4461              	.L449:
 481:../switch_sdk/core/yt/yt_l2.c ****     CMM_PARAM_CHK((!(CMM_PORT_VALID(unit, port))), CMM_ERR_PORT);
 4462              		.loc 1 481 5 discriminator 3 view .LVU1254
 4463              	.LBE89:
 482:../switch_sdk/core/yt/yt_l2.c ****     CMM_PARAM_CHK((NULL == pEnable), CMM_ERR_NULL_POINT);
 4464              		.loc 1 482 5 is_stmt 1 discriminator 3 view .LVU1255
 482:../switch_sdk/core/yt/yt_l2.c ****     CMM_PARAM_CHK((NULL == pEnable), CMM_ERR_NULL_POINT);
 4465              		.loc 1 482 5 discriminator 3 view .LVU1256
 4466 008a 114B     		ldr	r3, .L464+12
 4467 008c 1B78     		ldrb	r3, [r3]	@ zero_extendqisi2
 4468 008e 012B     		cmp	r3, #1
 4469 0090 01D8     		bhi	.L462
 4470              	.LVL559:
 4471              	.L451:
 482:../switch_sdk/core/yt/yt_l2.c ****     CMM_PARAM_CHK((NULL == pEnable), CMM_ERR_NULL_POINT);
 4472              		.loc 1 482 5 discriminator 7 view .LVU1257
 482:../switch_sdk/core/yt/yt_l2.c ****     CMM_PARAM_CHK((NULL == pEnable), CMM_ERR_NULL_POINT);
 4473              		.loc 1 482 5 discriminator 7 view .LVU1258
 482:../switch_sdk/core/yt/yt_l2.c ****     CMM_PARAM_CHK((NULL == pEnable), CMM_ERR_NULL_POINT);
 4474              		.loc 1 482 5 discriminator 7 view .LVU1259
 4475 0092 0E20     		movs	r0, #14
 4476 0094 CEE7     		b	.L441
 4477              	.LVL560:
 4478              	.L462:
 482:../switch_sdk/core/yt/yt_l2.c ****     CMM_PARAM_CHK((NULL == pEnable), CMM_ERR_NULL_POINT);
 4479              		.loc 1 482 5 discriminator 5 view .LVU1260
 4480              	.LBB90:
 482:../switch_sdk/core/yt/yt_l2.c ****     CMM_PARAM_CHK((NULL == pEnable), CMM_ERR_NULL_POINT);
 4481              		.loc 1 482 5 discriminator 5 view .LVU1261
 4482 0096 0F4B     		ldr	r3, .L464+16
 4483 0098 9A6B     		ldr	r2, [r3, #56]
 4484              	.LVL561:
 482:../switch_sdk/core/yt/yt_l2.c ****     CMM_PARAM_CHK((NULL == pEnable), CMM_ERR_NULL_POINT);
 4485              		.loc 1 482 5 is_stmt 0 discriminator 5 view .LVU1262
 4486 009a 0F4B     		ldr	r3, .L464+20
 4487 009c 9968     		ldr	r1, [r3, #8]
 4488              	.LVL562:
 482:../switch_sdk/core/yt/yt_l2.c ****     CMM_PARAM_CHK((NULL == pEnable), CMM_ERR_NULL_POINT);
 4489              		.loc 1 482 5 discriminator 5 view .LVU1263
 4490 009e 0F48     		ldr	r0, .L464+24
 4491 00a0 FFF7FEFF 		bl	osal_printf
 4492              	.LVL563:
 4493 00a4 F5E7     		b	.L451
 4494              	.LVL564:
 4495              	.L458:
 482:../switch_sdk/core/yt/yt_l2.c ****     CMM_PARAM_CHK((NULL == pEnable), CMM_ERR_NULL_POINT);
 4496              		.loc 1 482 5 discriminator 5 view .LVU1264
 4497              	.LBE90:
 483:../switch_sdk/core/yt/yt_l2.c **** 
 4498              		.loc 1 483 5 is_stmt 1 discriminator 1 view .LVU1265
 483:../switch_sdk/core/yt/yt_l2.c **** 
 4499              		.loc 1 483 5 discriminator 1 view .LVU1266
 4500 00a6 0A4B     		ldr	r3, .L464+12
 4501 00a8 1B78     		ldrb	r3, [r3]	@ zero_extendqisi2
 4502 00aa 012B     		cmp	r3, #1
 4503 00ac 01D8     		bhi	.L463
 4504              	.LVL565:
 4505              	.L453:
 483:../switch_sdk/core/yt/yt_l2.c **** 
 4506              		.loc 1 483 5 discriminator 5 view .LVU1267
 483:../switch_sdk/core/yt/yt_l2.c **** 
 4507              		.loc 1 483 5 discriminator 5 view .LVU1268
 483:../switch_sdk/core/yt/yt_l2.c **** 
 4508              		.loc 1 483 5 discriminator 5 view .LVU1269
 4509 00ae 0220     		movs	r0, #2
 4510 00b0 C0E7     		b	.L441
 4511              	.LVL566:
 4512              	.L463:
 483:../switch_sdk/core/yt/yt_l2.c **** 
 4513              		.loc 1 483 5 discriminator 3 view .LVU1270
 4514              	.LBB91:
 483:../switch_sdk/core/yt/yt_l2.c **** 
 4515              		.loc 1 483 5 discriminator 3 view .LVU1271
 4516 00b2 084B     		ldr	r3, .L464+16
 4517 00b4 9A68     		ldr	r2, [r3, #8]
 4518              	.LVL567:
 483:../switch_sdk/core/yt/yt_l2.c **** 
 4519              		.loc 1 483 5 is_stmt 0 discriminator 3 view .LVU1272
 4520 00b6 084B     		ldr	r3, .L464+20
 4521 00b8 9968     		ldr	r1, [r3, #8]
 4522              	.LVL568:
 483:../switch_sdk/core/yt/yt_l2.c **** 
 4523              		.loc 1 483 5 discriminator 3 view .LVU1273
 4524 00ba 0848     		ldr	r0, .L464+24
 4525 00bc FFF7FEFF 		bl	osal_printf
 4526              	.LVL569:
 4527 00c0 F5E7     		b	.L453
 4528              	.L465:
 4529 00c2 00BF     		.align	2
 4530              	.L464:
 4531 00c4 00000000 		.word	gpfal_dispatch
 4532 00c8 00000000 		.word	gcal_inited
 4533 00cc 00000000 		.word	gpSwitchUnit
 4534 00d0 00000000 		.word	yt_debug_level
 4535 00d4 00000000 		.word	_yt_errmsg
 4536 00d8 00000000 		.word	_yt_prompt_msg
 4537 00dc 00000000 		.word	.LC0
 4538              	.LBE91:
 4539              		.cfi_endproc
 4540              	.LFE23:
 4542              		.section	.text.yt_l2_system_learnlimit_en_set,"ax",%progbits
 4543              		.align	1
 4544              		.global	yt_l2_system_learnlimit_en_set
 4545              		.syntax unified
 4546              		.thumb
 4547              		.thumb_func
 4549              	yt_l2_system_learnlimit_en_set:
 4550              	.LVL570:
 4551              	.LFB24:
 487:../switch_sdk/core/yt/yt_l2.c **** 
 488:../switch_sdk/core/yt/yt_l2.c **** /**
 489:../switch_sdk/core/yt/yt_l2.c ****  * @internal      yt_l2_system_learnlimit_en_set
 490:../switch_sdk/core/yt/yt_l2.c ****  * @endinternal
 491:../switch_sdk/core/yt/yt_l2.c ****  *
 492:../switch_sdk/core/yt/yt_l2.c ****  * @brief         Description
 493:../switch_sdk/core/yt/yt_l2.c ****  * @note          APPLICABLE DEVICES  -Tiger
 494:../switch_sdk/core/yt/yt_l2.c ****  * @param[in]     unit                -unit id
 495:../switch_sdk/core/yt/yt_l2.c ****  * @param[in]     enable              -enable or disable
 496:../switch_sdk/core/yt/yt_l2.c ****  * @retval        CMM_ERR_OK          -on success
 497:../switch_sdk/core/yt/yt_l2.c ****  * @retval        CMM_ERR_FAIL        -on fail
 498:../switch_sdk/core/yt/yt_l2.c ****  */
 499:../switch_sdk/core/yt/yt_l2.c **** yt_ret_t  yt_l2_system_learnlimit_en_set(yt_unit_t unit, yt_enable_t enable)
 500:../switch_sdk/core/yt/yt_l2.c **** {
 4552              		.loc 1 500 1 is_stmt 1 view -0
 4553              		.cfi_startproc
 4554              		@ args = 0, pretend = 0, frame = 0
 4555              		@ frame_needed = 0, uses_anonymous_args = 0
 4556              		.loc 1 500 1 is_stmt 0 view .LVU1275
 4557 0000 08B5     		push	{r3, lr}
 4558              		.cfi_def_cfa_offset 8
 4559              		.cfi_offset 3, -8
 4560              		.cfi_offset 14, -4
 501:../switch_sdk/core/yt/yt_l2.c ****     CMM_PARAM_CHK((YT_UNIT_NUM <= unit), CMM_ERR_INPUT);
 4561              		.loc 1 501 5 is_stmt 1 view .LVU1276
 4562              		.loc 1 501 5 view .LVU1277
 4563 0002 68B9     		cbnz	r0, .L477
 4564 0004 0246     		mov	r2, r0
 4565              		.loc 1 501 5 discriminator 2 view .LVU1278
 502:../switch_sdk/core/yt/yt_l2.c ****     CMM_PARAM_CHK(NULL == YT_DISPATCH(unit), CMM_ERR_NOT_INIT);
 4566              		.loc 1 502 5 discriminator 2 view .LVU1279
 4567              		.loc 1 502 5 discriminator 2 view .LVU1280
 4568 0006 224B     		ldr	r3, .L485
 4569 0008 53F82030 		ldr	r3, [r3, r0, lsl #2]
 4570 000c B3B1     		cbz	r3, .L478
 4571              		.loc 1 502 5 discriminator 2 view .LVU1281
 503:../switch_sdk/core/yt/yt_l2.c ****     CMM_PARAM_CHK((!(YT_DISPATCH(unit)->is_inited)), CMM_ERR_NOT_INIT);
 4572              		.loc 1 503 5 discriminator 2 view .LVU1282
 4573              		.loc 1 503 5 discriminator 2 view .LVU1283
 4574 000e 1878     		ldrb	r0, [r3]	@ zero_extendqisi2
 4575              	.LVL571:
 4576              		.loc 1 503 5 is_stmt 0 discriminator 2 view .LVU1284
 4577 0010 10B3     		cbz	r0, .L479
 4578              		.loc 1 503 5 is_stmt 1 discriminator 2 view .LVU1285
 504:../switch_sdk/core/yt/yt_l2.c ****     CMM_PARAM_CHK((YT_ENABLE < enable || YT_DISABLE > enable), CMM_ERR_INPUT);
 4579              		.loc 1 504 5 discriminator 2 view .LVU1286
 4580              		.loc 1 504 5 discriminator 2 view .LVU1287
 4581 0012 0129     		cmp	r1, #1
 4582 0014 2ED8     		bhi	.L480
 4583              		.loc 1 504 5 discriminator 2 view .LVU1288
 505:../switch_sdk/core/yt/yt_l2.c **** 
 506:../switch_sdk/core/yt/yt_l2.c ****     return YT_DISPATCH(unit)->l2_system_learnlimit_en_set(unit, enable);
 4584              		.loc 1 506 5 discriminator 2 view .LVU1289
 4585              		.loc 1 506 29 is_stmt 0 discriminator 2 view .LVU1290
 4586 0016 D3F89033 		ldr	r3, [r3, #912]
 4587              		.loc 1 506 12 discriminator 2 view .LVU1291
 4588 001a 1046     		mov	r0, r2
 4589 001c 9847     		blx	r3
 4590              	.LVL572:
 4591              	.L466:
 507:../switch_sdk/core/yt/yt_l2.c **** }
 4592              		.loc 1 507 1 view .LVU1292
 4593 001e 08BD     		pop	{r3, pc}
 4594              	.LVL573:
 4595              	.L477:
 501:../switch_sdk/core/yt/yt_l2.c ****     CMM_PARAM_CHK(NULL == YT_DISPATCH(unit), CMM_ERR_NOT_INIT);
 4596              		.loc 1 501 5 is_stmt 1 discriminator 1 view .LVU1293
 501:../switch_sdk/core/yt/yt_l2.c ****     CMM_PARAM_CHK(NULL == YT_DISPATCH(unit), CMM_ERR_NOT_INIT);
 4597              		.loc 1 501 5 discriminator 1 view .LVU1294
 4598 0020 1C4B     		ldr	r3, .L485+4
 4599 0022 1B78     		ldrb	r3, [r3]	@ zero_extendqisi2
 4600 0024 012B     		cmp	r3, #1
 4601 0026 01D8     		bhi	.L481
 4602              	.LVL574:
 4603              	.L468:
 501:../switch_sdk/core/yt/yt_l2.c ****     CMM_PARAM_CHK(NULL == YT_DISPATCH(unit), CMM_ERR_NOT_INIT);
 4604              		.loc 1 501 5 discriminator 5 view .LVU1295
 501:../switch_sdk/core/yt/yt_l2.c ****     CMM_PARAM_CHK(NULL == YT_DISPATCH(unit), CMM_ERR_NOT_INIT);
 4605              		.loc 1 501 5 discriminator 5 view .LVU1296
 501:../switch_sdk/core/yt/yt_l2.c ****     CMM_PARAM_CHK(NULL == YT_DISPATCH(unit), CMM_ERR_NOT_INIT);
 4606              		.loc 1 501 5 discriminator 5 view .LVU1297
 4607 0028 0520     		movs	r0, #5
 4608 002a F8E7     		b	.L466
 4609              	.LVL575:
 4610              	.L481:
 501:../switch_sdk/core/yt/yt_l2.c ****     CMM_PARAM_CHK(NULL == YT_DISPATCH(unit), CMM_ERR_NOT_INIT);
 4611              		.loc 1 501 5 discriminator 3 view .LVU1298
 4612              	.LBB92:
 501:../switch_sdk/core/yt/yt_l2.c ****     CMM_PARAM_CHK(NULL == YT_DISPATCH(unit), CMM_ERR_NOT_INIT);
 4613              		.loc 1 501 5 discriminator 3 view .LVU1299
 4614 002c 1A4B     		ldr	r3, .L485+8
 4615 002e 5A69     		ldr	r2, [r3, #20]
 4616 0030 1A4B     		ldr	r3, .L485+12
 4617 0032 9968     		ldr	r1, [r3, #8]
 4618              	.LVL576:
 501:../switch_sdk/core/yt/yt_l2.c ****     CMM_PARAM_CHK(NULL == YT_DISPATCH(unit), CMM_ERR_NOT_INIT);
 4619              		.loc 1 501 5 is_stmt 0 discriminator 3 view .LVU1300
 4620 0034 1A48     		ldr	r0, .L485+16
 4621              	.LVL577:
 501:../switch_sdk/core/yt/yt_l2.c ****     CMM_PARAM_CHK(NULL == YT_DISPATCH(unit), CMM_ERR_NOT_INIT);
 4622              		.loc 1 501 5 discriminator 3 view .LVU1301
 4623 0036 FFF7FEFF 		bl	osal_printf
 4624              	.LVL578:
 4625 003a F5E7     		b	.L468
 4626              	.LVL579:
 4627              	.L478:
 501:../switch_sdk/core/yt/yt_l2.c ****     CMM_PARAM_CHK(NULL == YT_DISPATCH(unit), CMM_ERR_NOT_INIT);
 4628              		.loc 1 501 5 discriminator 3 view .LVU1302
 4629              	.LBE92:
 502:../switch_sdk/core/yt/yt_l2.c ****     CMM_PARAM_CHK((!(YT_DISPATCH(unit)->is_inited)), CMM_ERR_NOT_INIT);
 4630              		.loc 1 502 5 is_stmt 1 discriminator 1 view .LVU1303
 502:../switch_sdk/core/yt/yt_l2.c ****     CMM_PARAM_CHK((!(YT_DISPATCH(unit)->is_inited)), CMM_ERR_NOT_INIT);
 4631              		.loc 1 502 5 discriminator 1 view .LVU1304
 4632 003c 154B     		ldr	r3, .L485+4
 4633 003e 1B78     		ldrb	r3, [r3]	@ zero_extendqisi2
 4634 0040 012B     		cmp	r3, #1
 4635 0042 01D8     		bhi	.L482
 4636              	.LVL580:
 4637              	.L471:
 502:../switch_sdk/core/yt/yt_l2.c ****     CMM_PARAM_CHK((!(YT_DISPATCH(unit)->is_inited)), CMM_ERR_NOT_INIT);
 4638              		.loc 1 502 5 discriminator 5 view .LVU1305
 502:../switch_sdk/core/yt/yt_l2.c ****     CMM_PARAM_CHK((!(YT_DISPATCH(unit)->is_inited)), CMM_ERR_NOT_INIT);
 4639              		.loc 1 502 5 discriminator 5 view .LVU1306
 502:../switch_sdk/core/yt/yt_l2.c ****     CMM_PARAM_CHK((!(YT_DISPATCH(unit)->is_inited)), CMM_ERR_NOT_INIT);
 4640              		.loc 1 502 5 discriminator 5 view .LVU1307
 4641 0044 0420     		movs	r0, #4
 4642 0046 EAE7     		b	.L466
 4643              	.LVL581:
 4644              	.L482:
 502:../switch_sdk/core/yt/yt_l2.c ****     CMM_PARAM_CHK((!(YT_DISPATCH(unit)->is_inited)), CMM_ERR_NOT_INIT);
 4645              		.loc 1 502 5 discriminator 3 view .LVU1308
 4646              	.LBB93:
 502:../switch_sdk/core/yt/yt_l2.c ****     CMM_PARAM_CHK((!(YT_DISPATCH(unit)->is_inited)), CMM_ERR_NOT_INIT);
 4647              		.loc 1 502 5 discriminator 3 view .LVU1309
 4648 0048 134B     		ldr	r3, .L485+8
 4649 004a 1A69     		ldr	r2, [r3, #16]
 4650 004c 134B     		ldr	r3, .L485+12
 4651 004e 9968     		ldr	r1, [r3, #8]
 4652              	.LVL582:
 502:../switch_sdk/core/yt/yt_l2.c ****     CMM_PARAM_CHK((!(YT_DISPATCH(unit)->is_inited)), CMM_ERR_NOT_INIT);
 4653              		.loc 1 502 5 is_stmt 0 discriminator 3 view .LVU1310
 4654 0050 1348     		ldr	r0, .L485+16
 4655              	.LVL583:
 502:../switch_sdk/core/yt/yt_l2.c ****     CMM_PARAM_CHK((!(YT_DISPATCH(unit)->is_inited)), CMM_ERR_NOT_INIT);
 4656              		.loc 1 502 5 discriminator 3 view .LVU1311
 4657 0052 FFF7FEFF 		bl	osal_printf
 4658              	.LVL584:
 4659 0056 F5E7     		b	.L471
 4660              	.LVL585:
 4661              	.L479:
 502:../switch_sdk/core/yt/yt_l2.c ****     CMM_PARAM_CHK((!(YT_DISPATCH(unit)->is_inited)), CMM_ERR_NOT_INIT);
 4662              		.loc 1 502 5 discriminator 3 view .LVU1312
 4663              	.LBE93:
 503:../switch_sdk/core/yt/yt_l2.c ****     CMM_PARAM_CHK((YT_ENABLE < enable || YT_DISABLE > enable), CMM_ERR_INPUT);
 4664              		.loc 1 503 5 is_stmt 1 discriminator 1 view .LVU1313
 503:../switch_sdk/core/yt/yt_l2.c ****     CMM_PARAM_CHK((YT_ENABLE < enable || YT_DISABLE > enable), CMM_ERR_INPUT);
 4665              		.loc 1 503 5 discriminator 1 view .LVU1314
 4666 0058 0E4B     		ldr	r3, .L485+4
 4667 005a 1B78     		ldrb	r3, [r3]	@ zero_extendqisi2
 4668 005c 012B     		cmp	r3, #1
 4669 005e 01D8     		bhi	.L483
 4670              	.LVL586:
 4671              	.L473:
 503:../switch_sdk/core/yt/yt_l2.c ****     CMM_PARAM_CHK((YT_ENABLE < enable || YT_DISABLE > enable), CMM_ERR_INPUT);
 4672              		.loc 1 503 5 discriminator 5 view .LVU1315
 503:../switch_sdk/core/yt/yt_l2.c ****     CMM_PARAM_CHK((YT_ENABLE < enable || YT_DISABLE > enable), CMM_ERR_INPUT);
 4673              		.loc 1 503 5 discriminator 5 view .LVU1316
 503:../switch_sdk/core/yt/yt_l2.c ****     CMM_PARAM_CHK((YT_ENABLE < enable || YT_DISABLE > enable), CMM_ERR_INPUT);
 4674              		.loc 1 503 5 discriminator 5 view .LVU1317
 4675 0060 0420     		movs	r0, #4
 4676 0062 DCE7     		b	.L466
 4677              	.LVL587:
 4678              	.L483:
 503:../switch_sdk/core/yt/yt_l2.c ****     CMM_PARAM_CHK((YT_ENABLE < enable || YT_DISABLE > enable), CMM_ERR_INPUT);
 4679              		.loc 1 503 5 discriminator 3 view .LVU1318
 4680              	.LBB94:
 503:../switch_sdk/core/yt/yt_l2.c ****     CMM_PARAM_CHK((YT_ENABLE < enable || YT_DISABLE > enable), CMM_ERR_INPUT);
 4681              		.loc 1 503 5 discriminator 3 view .LVU1319
 4682 0064 0C4B     		ldr	r3, .L485+8
 4683 0066 1A69     		ldr	r2, [r3, #16]
 4684 0068 0C4B     		ldr	r3, .L485+12
 4685 006a 9968     		ldr	r1, [r3, #8]
 4686              	.LVL588:
 503:../switch_sdk/core/yt/yt_l2.c ****     CMM_PARAM_CHK((YT_ENABLE < enable || YT_DISABLE > enable), CMM_ERR_INPUT);
 4687              		.loc 1 503 5 is_stmt 0 discriminator 3 view .LVU1320
 4688 006c 0C48     		ldr	r0, .L485+16
 4689 006e FFF7FEFF 		bl	osal_printf
 4690              	.LVL589:
 4691 0072 F5E7     		b	.L473
 4692              	.LVL590:
 4693              	.L480:
 503:../switch_sdk/core/yt/yt_l2.c ****     CMM_PARAM_CHK((YT_ENABLE < enable || YT_DISABLE > enable), CMM_ERR_INPUT);
 4694              		.loc 1 503 5 discriminator 3 view .LVU1321
 4695              	.LBE94:
 504:../switch_sdk/core/yt/yt_l2.c **** 
 4696              		.loc 1 504 5 is_stmt 1 discriminator 1 view .LVU1322
 504:../switch_sdk/core/yt/yt_l2.c **** 
 4697              		.loc 1 504 5 discriminator 1 view .LVU1323
 4698 0074 074B     		ldr	r3, .L485+4
 4699 0076 1B78     		ldrb	r3, [r3]	@ zero_extendqisi2
 4700 0078 012B     		cmp	r3, #1
 4701 007a 01D8     		bhi	.L484
 4702              	.LVL591:
 4703              	.L475:
 504:../switch_sdk/core/yt/yt_l2.c **** 
 4704              		.loc 1 504 5 discriminator 5 view .LVU1324
 504:../switch_sdk/core/yt/yt_l2.c **** 
 4705              		.loc 1 504 5 discriminator 5 view .LVU1325
 504:../switch_sdk/core/yt/yt_l2.c **** 
 4706              		.loc 1 504 5 discriminator 5 view .LVU1326
 4707 007c 0520     		movs	r0, #5
 4708 007e CEE7     		b	.L466
 4709              	.LVL592:
 4710              	.L484:
 504:../switch_sdk/core/yt/yt_l2.c **** 
 4711              		.loc 1 504 5 discriminator 3 view .LVU1327
 4712              	.LBB95:
 504:../switch_sdk/core/yt/yt_l2.c **** 
 4713              		.loc 1 504 5 discriminator 3 view .LVU1328
 4714 0080 054B     		ldr	r3, .L485+8
 4715 0082 5A69     		ldr	r2, [r3, #20]
 4716 0084 054B     		ldr	r3, .L485+12
 4717 0086 9968     		ldr	r1, [r3, #8]
 4718              	.LVL593:
 504:../switch_sdk/core/yt/yt_l2.c **** 
 4719              		.loc 1 504 5 is_stmt 0 discriminator 3 view .LVU1329
 4720 0088 0548     		ldr	r0, .L485+16
 4721 008a FFF7FEFF 		bl	osal_printf
 4722              	.LVL594:
 4723 008e F5E7     		b	.L475
 4724              	.L486:
 4725              		.align	2
 4726              	.L485:
 4727 0090 00000000 		.word	gpfal_dispatch
 4728 0094 00000000 		.word	yt_debug_level
 4729 0098 00000000 		.word	_yt_errmsg
 4730 009c 00000000 		.word	_yt_prompt_msg
 4731 00a0 00000000 		.word	.LC0
 4732              	.LBE95:
 4733              		.cfi_endproc
 4734              	.LFE24:
 4736              		.section	.text.yt_l2_system_learnlimit_en_get,"ax",%progbits
 4737              		.align	1
 4738              		.global	yt_l2_system_learnlimit_en_get
 4739              		.syntax unified
 4740              		.thumb
 4741              		.thumb_func
 4743              	yt_l2_system_learnlimit_en_get:
 4744              	.LVL595:
 4745              	.LFB25:
 508:../switch_sdk/core/yt/yt_l2.c **** 
 509:../switch_sdk/core/yt/yt_l2.c **** /**
 510:../switch_sdk/core/yt/yt_l2.c ****  * @internal      yt_l2_system_learnlimit_en_get
 511:../switch_sdk/core/yt/yt_l2.c ****  * @endinternal
 512:../switch_sdk/core/yt/yt_l2.c ****  *
 513:../switch_sdk/core/yt/yt_l2.c ****  * @brief         Description
 514:../switch_sdk/core/yt/yt_l2.c ****  * @note          APPLICABLE DEVICES  -Tiger
 515:../switch_sdk/core/yt/yt_l2.c ****  * @param[in]     unit                -unit id
 516:../switch_sdk/core/yt/yt_l2.c ****  * @param[out]    pEnable             -enable or disable
 517:../switch_sdk/core/yt/yt_l2.c ****  * @retval        CMM_ERR_OK          -on success
 518:../switch_sdk/core/yt/yt_l2.c ****  * @retval        CMM_ERR_FAIL        -on fail
 519:../switch_sdk/core/yt/yt_l2.c ****  */
 520:../switch_sdk/core/yt/yt_l2.c **** yt_ret_t  yt_l2_system_learnlimit_en_get(yt_unit_t unit, yt_enable_t *pEnable)
 521:../switch_sdk/core/yt/yt_l2.c **** {
 4746              		.loc 1 521 1 is_stmt 1 view -0
 4747              		.cfi_startproc
 4748              		@ args = 0, pretend = 0, frame = 0
 4749              		@ frame_needed = 0, uses_anonymous_args = 0
 4750              		.loc 1 521 1 is_stmt 0 view .LVU1331
 4751 0000 08B5     		push	{r3, lr}
 4752              		.cfi_def_cfa_offset 8
 4753              		.cfi_offset 3, -8
 4754              		.cfi_offset 14, -4
 522:../switch_sdk/core/yt/yt_l2.c ****     CMM_PARAM_CHK((YT_UNIT_NUM <= unit), CMM_ERR_INPUT);
 4755              		.loc 1 522 5 is_stmt 1 view .LVU1332
 4756              		.loc 1 522 5 view .LVU1333
 4757 0002 68B9     		cbnz	r0, .L498
 4758 0004 0246     		mov	r2, r0
 4759              		.loc 1 522 5 discriminator 2 view .LVU1334
 523:../switch_sdk/core/yt/yt_l2.c ****     CMM_PARAM_CHK(NULL == YT_DISPATCH(unit), CMM_ERR_NOT_INIT);
 4760              		.loc 1 523 5 discriminator 2 view .LVU1335
 4761              		.loc 1 523 5 discriminator 2 view .LVU1336
 4762 0006 224B     		ldr	r3, .L506
 4763 0008 53F82030 		ldr	r3, [r3, r0, lsl #2]
 4764 000c B3B1     		cbz	r3, .L499
 4765              		.loc 1 523 5 discriminator 2 view .LVU1337
 524:../switch_sdk/core/yt/yt_l2.c ****     CMM_PARAM_CHK((!(YT_DISPATCH(unit)->is_inited)), CMM_ERR_NOT_INIT);
 4766              		.loc 1 524 5 discriminator 2 view .LVU1338
 4767              		.loc 1 524 5 discriminator 2 view .LVU1339
 4768 000e 1878     		ldrb	r0, [r3]	@ zero_extendqisi2
 4769              	.LVL596:
 4770              		.loc 1 524 5 is_stmt 0 discriminator 2 view .LVU1340
 4771 0010 10B3     		cbz	r0, .L500
 4772              		.loc 1 524 5 is_stmt 1 discriminator 2 view .LVU1341
 525:../switch_sdk/core/yt/yt_l2.c ****     CMM_PARAM_CHK((NULL == pEnable), CMM_ERR_NULL_POINT);
 4773              		.loc 1 525 5 discriminator 2 view .LVU1342
 4774              		.loc 1 525 5 discriminator 2 view .LVU1343
 4775 0012 0029     		cmp	r1, #0
 4776 0014 2ED0     		beq	.L501
 4777              		.loc 1 525 5 discriminator 2 view .LVU1344
 526:../switch_sdk/core/yt/yt_l2.c **** 
 527:../switch_sdk/core/yt/yt_l2.c ****     return YT_DISPATCH(unit)->l2_system_learnlimit_en_get(unit, pEnable);
 4778              		.loc 1 527 5 discriminator 2 view .LVU1345
 4779              		.loc 1 527 29 is_stmt 0 discriminator 2 view .LVU1346
 4780 0016 D3F89433 		ldr	r3, [r3, #916]
 4781              		.loc 1 527 12 discriminator 2 view .LVU1347
 4782 001a 1046     		mov	r0, r2
 4783 001c 9847     		blx	r3
 4784              	.LVL597:
 4785              	.L487:
 528:../switch_sdk/core/yt/yt_l2.c **** }
 4786              		.loc 1 528 1 view .LVU1348
 4787 001e 08BD     		pop	{r3, pc}
 4788              	.LVL598:
 4789              	.L498:
 522:../switch_sdk/core/yt/yt_l2.c ****     CMM_PARAM_CHK(NULL == YT_DISPATCH(unit), CMM_ERR_NOT_INIT);
 4790              		.loc 1 522 5 is_stmt 1 discriminator 1 view .LVU1349
 522:../switch_sdk/core/yt/yt_l2.c ****     CMM_PARAM_CHK(NULL == YT_DISPATCH(unit), CMM_ERR_NOT_INIT);
 4791              		.loc 1 522 5 discriminator 1 view .LVU1350
 4792 0020 1C4B     		ldr	r3, .L506+4
 4793 0022 1B78     		ldrb	r3, [r3]	@ zero_extendqisi2
 4794 0024 012B     		cmp	r3, #1
 4795 0026 01D8     		bhi	.L502
 4796              	.LVL599:
 4797              	.L489:
 522:../switch_sdk/core/yt/yt_l2.c ****     CMM_PARAM_CHK(NULL == YT_DISPATCH(unit), CMM_ERR_NOT_INIT);
 4798              		.loc 1 522 5 discriminator 5 view .LVU1351
 522:../switch_sdk/core/yt/yt_l2.c ****     CMM_PARAM_CHK(NULL == YT_DISPATCH(unit), CMM_ERR_NOT_INIT);
 4799              		.loc 1 522 5 discriminator 5 view .LVU1352
 522:../switch_sdk/core/yt/yt_l2.c ****     CMM_PARAM_CHK(NULL == YT_DISPATCH(unit), CMM_ERR_NOT_INIT);
 4800              		.loc 1 522 5 discriminator 5 view .LVU1353
 4801 0028 0520     		movs	r0, #5
 4802 002a F8E7     		b	.L487
 4803              	.LVL600:
 4804              	.L502:
 522:../switch_sdk/core/yt/yt_l2.c ****     CMM_PARAM_CHK(NULL == YT_DISPATCH(unit), CMM_ERR_NOT_INIT);
 4805              		.loc 1 522 5 discriminator 3 view .LVU1354
 4806              	.LBB96:
 522:../switch_sdk/core/yt/yt_l2.c ****     CMM_PARAM_CHK(NULL == YT_DISPATCH(unit), CMM_ERR_NOT_INIT);
 4807              		.loc 1 522 5 discriminator 3 view .LVU1355
 4808 002c 1A4B     		ldr	r3, .L506+8
 4809 002e 5A69     		ldr	r2, [r3, #20]
 4810 0030 1A4B     		ldr	r3, .L506+12
 4811 0032 9968     		ldr	r1, [r3, #8]
 4812              	.LVL601:
 522:../switch_sdk/core/yt/yt_l2.c ****     CMM_PARAM_CHK(NULL == YT_DISPATCH(unit), CMM_ERR_NOT_INIT);
 4813              		.loc 1 522 5 is_stmt 0 discriminator 3 view .LVU1356
 4814 0034 1A48     		ldr	r0, .L506+16
 4815              	.LVL602:
 522:../switch_sdk/core/yt/yt_l2.c ****     CMM_PARAM_CHK(NULL == YT_DISPATCH(unit), CMM_ERR_NOT_INIT);
 4816              		.loc 1 522 5 discriminator 3 view .LVU1357
 4817 0036 FFF7FEFF 		bl	osal_printf
 4818              	.LVL603:
 4819 003a F5E7     		b	.L489
 4820              	.LVL604:
 4821              	.L499:
 522:../switch_sdk/core/yt/yt_l2.c ****     CMM_PARAM_CHK(NULL == YT_DISPATCH(unit), CMM_ERR_NOT_INIT);
 4822              		.loc 1 522 5 discriminator 3 view .LVU1358
 4823              	.LBE96:
 523:../switch_sdk/core/yt/yt_l2.c ****     CMM_PARAM_CHK((!(YT_DISPATCH(unit)->is_inited)), CMM_ERR_NOT_INIT);
 4824              		.loc 1 523 5 is_stmt 1 discriminator 1 view .LVU1359
 523:../switch_sdk/core/yt/yt_l2.c ****     CMM_PARAM_CHK((!(YT_DISPATCH(unit)->is_inited)), CMM_ERR_NOT_INIT);
 4825              		.loc 1 523 5 discriminator 1 view .LVU1360
 4826 003c 154B     		ldr	r3, .L506+4
 4827 003e 1B78     		ldrb	r3, [r3]	@ zero_extendqisi2
 4828 0040 012B     		cmp	r3, #1
 4829 0042 01D8     		bhi	.L503
 4830              	.LVL605:
 4831              	.L492:
 523:../switch_sdk/core/yt/yt_l2.c ****     CMM_PARAM_CHK((!(YT_DISPATCH(unit)->is_inited)), CMM_ERR_NOT_INIT);
 4832              		.loc 1 523 5 discriminator 5 view .LVU1361
 523:../switch_sdk/core/yt/yt_l2.c ****     CMM_PARAM_CHK((!(YT_DISPATCH(unit)->is_inited)), CMM_ERR_NOT_INIT);
 4833              		.loc 1 523 5 discriminator 5 view .LVU1362
 523:../switch_sdk/core/yt/yt_l2.c ****     CMM_PARAM_CHK((!(YT_DISPATCH(unit)->is_inited)), CMM_ERR_NOT_INIT);
 4834              		.loc 1 523 5 discriminator 5 view .LVU1363
 4835 0044 0420     		movs	r0, #4
 4836 0046 EAE7     		b	.L487
 4837              	.LVL606:
 4838              	.L503:
 523:../switch_sdk/core/yt/yt_l2.c ****     CMM_PARAM_CHK((!(YT_DISPATCH(unit)->is_inited)), CMM_ERR_NOT_INIT);
 4839              		.loc 1 523 5 discriminator 3 view .LVU1364
 4840              	.LBB97:
 523:../switch_sdk/core/yt/yt_l2.c ****     CMM_PARAM_CHK((!(YT_DISPATCH(unit)->is_inited)), CMM_ERR_NOT_INIT);
 4841              		.loc 1 523 5 discriminator 3 view .LVU1365
 4842 0048 134B     		ldr	r3, .L506+8
 4843 004a 1A69     		ldr	r2, [r3, #16]
 4844 004c 134B     		ldr	r3, .L506+12
 4845 004e 9968     		ldr	r1, [r3, #8]
 4846              	.LVL607:
 523:../switch_sdk/core/yt/yt_l2.c ****     CMM_PARAM_CHK((!(YT_DISPATCH(unit)->is_inited)), CMM_ERR_NOT_INIT);
 4847              		.loc 1 523 5 is_stmt 0 discriminator 3 view .LVU1366
 4848 0050 1348     		ldr	r0, .L506+16
 4849              	.LVL608:
 523:../switch_sdk/core/yt/yt_l2.c ****     CMM_PARAM_CHK((!(YT_DISPATCH(unit)->is_inited)), CMM_ERR_NOT_INIT);
 4850              		.loc 1 523 5 discriminator 3 view .LVU1367
 4851 0052 FFF7FEFF 		bl	osal_printf
 4852              	.LVL609:
 4853 0056 F5E7     		b	.L492
 4854              	.LVL610:
 4855              	.L500:
 523:../switch_sdk/core/yt/yt_l2.c ****     CMM_PARAM_CHK((!(YT_DISPATCH(unit)->is_inited)), CMM_ERR_NOT_INIT);
 4856              		.loc 1 523 5 discriminator 3 view .LVU1368
 4857              	.LBE97:
 524:../switch_sdk/core/yt/yt_l2.c ****     CMM_PARAM_CHK((NULL == pEnable), CMM_ERR_NULL_POINT);
 4858              		.loc 1 524 5 is_stmt 1 discriminator 1 view .LVU1369
 524:../switch_sdk/core/yt/yt_l2.c ****     CMM_PARAM_CHK((NULL == pEnable), CMM_ERR_NULL_POINT);
 4859              		.loc 1 524 5 discriminator 1 view .LVU1370
 4860 0058 0E4B     		ldr	r3, .L506+4
 4861 005a 1B78     		ldrb	r3, [r3]	@ zero_extendqisi2
 4862 005c 012B     		cmp	r3, #1
 4863 005e 01D8     		bhi	.L504
 4864              	.LVL611:
 4865              	.L494:
 524:../switch_sdk/core/yt/yt_l2.c ****     CMM_PARAM_CHK((NULL == pEnable), CMM_ERR_NULL_POINT);
 4866              		.loc 1 524 5 discriminator 5 view .LVU1371
 524:../switch_sdk/core/yt/yt_l2.c ****     CMM_PARAM_CHK((NULL == pEnable), CMM_ERR_NULL_POINT);
 4867              		.loc 1 524 5 discriminator 5 view .LVU1372
 524:../switch_sdk/core/yt/yt_l2.c ****     CMM_PARAM_CHK((NULL == pEnable), CMM_ERR_NULL_POINT);
 4868              		.loc 1 524 5 discriminator 5 view .LVU1373
 4869 0060 0420     		movs	r0, #4
 4870 0062 DCE7     		b	.L487
 4871              	.LVL612:
 4872              	.L504:
 524:../switch_sdk/core/yt/yt_l2.c ****     CMM_PARAM_CHK((NULL == pEnable), CMM_ERR_NULL_POINT);
 4873              		.loc 1 524 5 discriminator 3 view .LVU1374
 4874              	.LBB98:
 524:../switch_sdk/core/yt/yt_l2.c ****     CMM_PARAM_CHK((NULL == pEnable), CMM_ERR_NULL_POINT);
 4875              		.loc 1 524 5 discriminator 3 view .LVU1375
 4876 0064 0C4B     		ldr	r3, .L506+8
 4877 0066 1A69     		ldr	r2, [r3, #16]
 4878 0068 0C4B     		ldr	r3, .L506+12
 4879 006a 9968     		ldr	r1, [r3, #8]
 4880              	.LVL613:
 524:../switch_sdk/core/yt/yt_l2.c ****     CMM_PARAM_CHK((NULL == pEnable), CMM_ERR_NULL_POINT);
 4881              		.loc 1 524 5 is_stmt 0 discriminator 3 view .LVU1376
 4882 006c 0C48     		ldr	r0, .L506+16
 4883 006e FFF7FEFF 		bl	osal_printf
 4884              	.LVL614:
 4885 0072 F5E7     		b	.L494
 4886              	.LVL615:
 4887              	.L501:
 524:../switch_sdk/core/yt/yt_l2.c ****     CMM_PARAM_CHK((NULL == pEnable), CMM_ERR_NULL_POINT);
 4888              		.loc 1 524 5 discriminator 3 view .LVU1377
 4889              	.LBE98:
 525:../switch_sdk/core/yt/yt_l2.c **** 
 4890              		.loc 1 525 5 is_stmt 1 discriminator 1 view .LVU1378
 525:../switch_sdk/core/yt/yt_l2.c **** 
 4891              		.loc 1 525 5 discriminator 1 view .LVU1379
 4892 0074 074B     		ldr	r3, .L506+4
 4893 0076 1B78     		ldrb	r3, [r3]	@ zero_extendqisi2
 4894 0078 012B     		cmp	r3, #1
 4895 007a 01D8     		bhi	.L505
 4896              	.LVL616:
 4897              	.L496:
 525:../switch_sdk/core/yt/yt_l2.c **** 
 4898              		.loc 1 525 5 discriminator 5 view .LVU1380
 525:../switch_sdk/core/yt/yt_l2.c **** 
 4899              		.loc 1 525 5 discriminator 5 view .LVU1381
 525:../switch_sdk/core/yt/yt_l2.c **** 
 4900              		.loc 1 525 5 discriminator 5 view .LVU1382
 4901 007c 0220     		movs	r0, #2
 4902 007e CEE7     		b	.L487
 4903              	.LVL617:
 4904              	.L505:
 525:../switch_sdk/core/yt/yt_l2.c **** 
 4905              		.loc 1 525 5 discriminator 3 view .LVU1383
 4906              	.LBB99:
 525:../switch_sdk/core/yt/yt_l2.c **** 
 4907              		.loc 1 525 5 discriminator 3 view .LVU1384
 4908 0080 054B     		ldr	r3, .L506+8
 4909 0082 9A68     		ldr	r2, [r3, #8]
 4910 0084 054B     		ldr	r3, .L506+12
 4911 0086 9968     		ldr	r1, [r3, #8]
 4912              	.LVL618:
 525:../switch_sdk/core/yt/yt_l2.c **** 
 4913              		.loc 1 525 5 is_stmt 0 discriminator 3 view .LVU1385
 4914 0088 0548     		ldr	r0, .L506+16
 4915 008a FFF7FEFF 		bl	osal_printf
 4916              	.LVL619:
 4917 008e F5E7     		b	.L496
 4918              	.L507:
 4919              		.align	2
 4920              	.L506:
 4921 0090 00000000 		.word	gpfal_dispatch
 4922 0094 00000000 		.word	yt_debug_level
 4923 0098 00000000 		.word	_yt_errmsg
 4924 009c 00000000 		.word	_yt_prompt_msg
 4925 00a0 00000000 		.word	.LC0
 4926              	.LBE99:
 4927              		.cfi_endproc
 4928              	.LFE25:
 4930              		.section	.text.yt_l2_system_learnlimit_cnt_set,"ax",%progbits
 4931              		.align	1
 4932              		.global	yt_l2_system_learnlimit_cnt_set
 4933              		.syntax unified
 4934              		.thumb
 4935              		.thumb_func
 4937              	yt_l2_system_learnlimit_cnt_set:
 4938              	.LVL620:
 4939              	.LFB26:
 529:../switch_sdk/core/yt/yt_l2.c **** 
 530:../switch_sdk/core/yt/yt_l2.c **** /**
 531:../switch_sdk/core/yt/yt_l2.c ****  * @internal      yt_l2_system_learnlimit_cnt_set
 532:../switch_sdk/core/yt/yt_l2.c ****  * @endinternal
 533:../switch_sdk/core/yt/yt_l2.c ****  *
 534:../switch_sdk/core/yt/yt_l2.c ****  * @brief         Description
 535:../switch_sdk/core/yt/yt_l2.c ****  * @note          APPLICABLE DEVICES  -Tiger
 536:../switch_sdk/core/yt/yt_l2.c ****  * @param[in]     unit                -unit id
 537:../switch_sdk/core/yt/yt_l2.c ****  * @param[in]     maxcnt              -x
 538:../switch_sdk/core/yt/yt_l2.c ****  * @retval        CMM_ERR_OK          -on success
 539:../switch_sdk/core/yt/yt_l2.c ****  * @retval        CMM_ERR_FAIL        -on fail
 540:../switch_sdk/core/yt/yt_l2.c ****  */
 541:../switch_sdk/core/yt/yt_l2.c **** yt_ret_t  yt_l2_system_learnlimit_cnt_set(yt_unit_t unit, uint32_t maxcnt)
 542:../switch_sdk/core/yt/yt_l2.c **** {
 4940              		.loc 1 542 1 is_stmt 1 view -0
 4941              		.cfi_startproc
 4942              		@ args = 0, pretend = 0, frame = 0
 4943              		@ frame_needed = 0, uses_anonymous_args = 0
 4944              		.loc 1 542 1 is_stmt 0 view .LVU1387
 4945 0000 08B5     		push	{r3, lr}
 4946              		.cfi_def_cfa_offset 8
 4947              		.cfi_offset 3, -8
 4948              		.cfi_offset 14, -4
 543:../switch_sdk/core/yt/yt_l2.c ****     CMM_PARAM_CHK((YT_UNIT_NUM <= unit), CMM_ERR_INPUT);
 4949              		.loc 1 543 5 is_stmt 1 view .LVU1388
 4950              		.loc 1 543 5 view .LVU1389
 4951 0002 58B9     		cbnz	r0, .L517
 4952 0004 0246     		mov	r2, r0
 4953              		.loc 1 543 5 discriminator 2 view .LVU1390
 544:../switch_sdk/core/yt/yt_l2.c ****     CMM_PARAM_CHK(NULL == YT_DISPATCH(unit), CMM_ERR_NOT_INIT);
 4954              		.loc 1 544 5 discriminator 2 view .LVU1391
 4955              		.loc 1 544 5 discriminator 2 view .LVU1392
 4956 0006 1A4B     		ldr	r3, .L523
 4957 0008 53F82030 		ldr	r3, [r3, r0, lsl #2]
 4958 000c A3B1     		cbz	r3, .L518
 4959              		.loc 1 544 5 discriminator 2 view .LVU1393
 545:../switch_sdk/core/yt/yt_l2.c ****     CMM_PARAM_CHK((!(YT_DISPATCH(unit)->is_inited)), CMM_ERR_NOT_INIT);
 4960              		.loc 1 545 5 discriminator 2 view .LVU1394
 4961              		.loc 1 545 5 discriminator 2 view .LVU1395
 4962 000e 1878     		ldrb	r0, [r3]	@ zero_extendqisi2
 4963              	.LVL621:
 4964              		.loc 1 545 5 is_stmt 0 discriminator 2 view .LVU1396
 4965 0010 00B3     		cbz	r0, .L519
 4966              		.loc 1 545 5 is_stmt 1 discriminator 2 view .LVU1397
 546:../switch_sdk/core/yt/yt_l2.c **** 
 547:../switch_sdk/core/yt/yt_l2.c ****     return YT_DISPATCH(unit)->l2_system_learnlimit_cnt_set(unit, maxcnt);
 4967              		.loc 1 547 5 discriminator 2 view .LVU1398
 4968              		.loc 1 547 29 is_stmt 0 discriminator 2 view .LVU1399
 4969 0012 D3F89833 		ldr	r3, [r3, #920]
 4970              		.loc 1 547 12 discriminator 2 view .LVU1400
 4971 0016 1046     		mov	r0, r2
 4972 0018 9847     		blx	r3
 4973              	.LVL622:
 4974              	.L508:
 548:../switch_sdk/core/yt/yt_l2.c **** }
 4975              		.loc 1 548 1 view .LVU1401
 4976 001a 08BD     		pop	{r3, pc}
 4977              	.LVL623:
 4978              	.L517:
 543:../switch_sdk/core/yt/yt_l2.c ****     CMM_PARAM_CHK(NULL == YT_DISPATCH(unit), CMM_ERR_NOT_INIT);
 4979              		.loc 1 543 5 is_stmt 1 discriminator 1 view .LVU1402
 543:../switch_sdk/core/yt/yt_l2.c ****     CMM_PARAM_CHK(NULL == YT_DISPATCH(unit), CMM_ERR_NOT_INIT);
 4980              		.loc 1 543 5 discriminator 1 view .LVU1403
 4981 001c 154B     		ldr	r3, .L523+4
 4982 001e 1B78     		ldrb	r3, [r3]	@ zero_extendqisi2
 4983 0020 012B     		cmp	r3, #1
 4984 0022 01D8     		bhi	.L520
 4985              	.LVL624:
 4986              	.L510:
 543:../switch_sdk/core/yt/yt_l2.c ****     CMM_PARAM_CHK(NULL == YT_DISPATCH(unit), CMM_ERR_NOT_INIT);
 4987              		.loc 1 543 5 discriminator 5 view .LVU1404
 543:../switch_sdk/core/yt/yt_l2.c ****     CMM_PARAM_CHK(NULL == YT_DISPATCH(unit), CMM_ERR_NOT_INIT);
 4988              		.loc 1 543 5 discriminator 5 view .LVU1405
 543:../switch_sdk/core/yt/yt_l2.c ****     CMM_PARAM_CHK(NULL == YT_DISPATCH(unit), CMM_ERR_NOT_INIT);
 4989              		.loc 1 543 5 discriminator 5 view .LVU1406
 4990 0024 0520     		movs	r0, #5
 4991 0026 F8E7     		b	.L508
 4992              	.LVL625:
 4993              	.L520:
 543:../switch_sdk/core/yt/yt_l2.c ****     CMM_PARAM_CHK(NULL == YT_DISPATCH(unit), CMM_ERR_NOT_INIT);
 4994              		.loc 1 543 5 discriminator 3 view .LVU1407
 4995              	.LBB100:
 543:../switch_sdk/core/yt/yt_l2.c ****     CMM_PARAM_CHK(NULL == YT_DISPATCH(unit), CMM_ERR_NOT_INIT);
 4996              		.loc 1 543 5 discriminator 3 view .LVU1408
 4997 0028 134B     		ldr	r3, .L523+8
 4998 002a 5A69     		ldr	r2, [r3, #20]
 4999 002c 134B     		ldr	r3, .L523+12
 5000 002e 9968     		ldr	r1, [r3, #8]
 5001              	.LVL626:
 543:../switch_sdk/core/yt/yt_l2.c ****     CMM_PARAM_CHK(NULL == YT_DISPATCH(unit), CMM_ERR_NOT_INIT);
 5002              		.loc 1 543 5 is_stmt 0 discriminator 3 view .LVU1409
 5003 0030 1348     		ldr	r0, .L523+16
 5004              	.LVL627:
 543:../switch_sdk/core/yt/yt_l2.c ****     CMM_PARAM_CHK(NULL == YT_DISPATCH(unit), CMM_ERR_NOT_INIT);
 5005              		.loc 1 543 5 discriminator 3 view .LVU1410
 5006 0032 FFF7FEFF 		bl	osal_printf
 5007              	.LVL628:
 5008 0036 F5E7     		b	.L510
 5009              	.LVL629:
 5010              	.L518:
 543:../switch_sdk/core/yt/yt_l2.c ****     CMM_PARAM_CHK(NULL == YT_DISPATCH(unit), CMM_ERR_NOT_INIT);
 5011              		.loc 1 543 5 discriminator 3 view .LVU1411
 5012              	.LBE100:
 544:../switch_sdk/core/yt/yt_l2.c ****     CMM_PARAM_CHK((!(YT_DISPATCH(unit)->is_inited)), CMM_ERR_NOT_INIT);
 5013              		.loc 1 544 5 is_stmt 1 discriminator 1 view .LVU1412
 544:../switch_sdk/core/yt/yt_l2.c ****     CMM_PARAM_CHK((!(YT_DISPATCH(unit)->is_inited)), CMM_ERR_NOT_INIT);
 5014              		.loc 1 544 5 discriminator 1 view .LVU1413
 5015 0038 0E4B     		ldr	r3, .L523+4
 5016 003a 1B78     		ldrb	r3, [r3]	@ zero_extendqisi2
 5017 003c 012B     		cmp	r3, #1
 5018 003e 01D8     		bhi	.L521
 5019              	.LVL630:
 5020              	.L513:
 544:../switch_sdk/core/yt/yt_l2.c ****     CMM_PARAM_CHK((!(YT_DISPATCH(unit)->is_inited)), CMM_ERR_NOT_INIT);
 5021              		.loc 1 544 5 discriminator 5 view .LVU1414
 544:../switch_sdk/core/yt/yt_l2.c ****     CMM_PARAM_CHK((!(YT_DISPATCH(unit)->is_inited)), CMM_ERR_NOT_INIT);
 5022              		.loc 1 544 5 discriminator 5 view .LVU1415
 544:../switch_sdk/core/yt/yt_l2.c ****     CMM_PARAM_CHK((!(YT_DISPATCH(unit)->is_inited)), CMM_ERR_NOT_INIT);
 5023              		.loc 1 544 5 discriminator 5 view .LVU1416
 5024 0040 0420     		movs	r0, #4
 5025 0042 EAE7     		b	.L508
 5026              	.LVL631:
 5027              	.L521:
 544:../switch_sdk/core/yt/yt_l2.c ****     CMM_PARAM_CHK((!(YT_DISPATCH(unit)->is_inited)), CMM_ERR_NOT_INIT);
 5028              		.loc 1 544 5 discriminator 3 view .LVU1417
 5029              	.LBB101:
 544:../switch_sdk/core/yt/yt_l2.c ****     CMM_PARAM_CHK((!(YT_DISPATCH(unit)->is_inited)), CMM_ERR_NOT_INIT);
 5030              		.loc 1 544 5 discriminator 3 view .LVU1418
 5031 0044 0C4B     		ldr	r3, .L523+8
 5032 0046 1A69     		ldr	r2, [r3, #16]
 5033 0048 0C4B     		ldr	r3, .L523+12
 5034 004a 9968     		ldr	r1, [r3, #8]
 5035              	.LVL632:
 544:../switch_sdk/core/yt/yt_l2.c ****     CMM_PARAM_CHK((!(YT_DISPATCH(unit)->is_inited)), CMM_ERR_NOT_INIT);
 5036              		.loc 1 544 5 is_stmt 0 discriminator 3 view .LVU1419
 5037 004c 0C48     		ldr	r0, .L523+16
 5038              	.LVL633:
 544:../switch_sdk/core/yt/yt_l2.c ****     CMM_PARAM_CHK((!(YT_DISPATCH(unit)->is_inited)), CMM_ERR_NOT_INIT);
 5039              		.loc 1 544 5 discriminator 3 view .LVU1420
 5040 004e FFF7FEFF 		bl	osal_printf
 5041              	.LVL634:
 5042 0052 F5E7     		b	.L513
 5043              	.LVL635:
 5044              	.L519:
 544:../switch_sdk/core/yt/yt_l2.c ****     CMM_PARAM_CHK((!(YT_DISPATCH(unit)->is_inited)), CMM_ERR_NOT_INIT);
 5045              		.loc 1 544 5 discriminator 3 view .LVU1421
 5046              	.LBE101:
 545:../switch_sdk/core/yt/yt_l2.c **** 
 5047              		.loc 1 545 5 is_stmt 1 discriminator 1 view .LVU1422
 545:../switch_sdk/core/yt/yt_l2.c **** 
 5048              		.loc 1 545 5 discriminator 1 view .LVU1423
 5049 0054 074B     		ldr	r3, .L523+4
 5050 0056 1B78     		ldrb	r3, [r3]	@ zero_extendqisi2
 5051 0058 012B     		cmp	r3, #1
 5052 005a 01D8     		bhi	.L522
 5053              	.LVL636:
 5054              	.L515:
 545:../switch_sdk/core/yt/yt_l2.c **** 
 5055              		.loc 1 545 5 discriminator 5 view .LVU1424
 545:../switch_sdk/core/yt/yt_l2.c **** 
 5056              		.loc 1 545 5 discriminator 5 view .LVU1425
 545:../switch_sdk/core/yt/yt_l2.c **** 
 5057              		.loc 1 545 5 discriminator 5 view .LVU1426
 5058 005c 0420     		movs	r0, #4
 5059 005e DCE7     		b	.L508
 5060              	.LVL637:
 5061              	.L522:
 545:../switch_sdk/core/yt/yt_l2.c **** 
 5062              		.loc 1 545 5 discriminator 3 view .LVU1427
 5063              	.LBB102:
 545:../switch_sdk/core/yt/yt_l2.c **** 
 5064              		.loc 1 545 5 discriminator 3 view .LVU1428
 5065 0060 054B     		ldr	r3, .L523+8
 5066 0062 1A69     		ldr	r2, [r3, #16]
 5067 0064 054B     		ldr	r3, .L523+12
 5068 0066 9968     		ldr	r1, [r3, #8]
 5069              	.LVL638:
 545:../switch_sdk/core/yt/yt_l2.c **** 
 5070              		.loc 1 545 5 is_stmt 0 discriminator 3 view .LVU1429
 5071 0068 0548     		ldr	r0, .L523+16
 5072 006a FFF7FEFF 		bl	osal_printf
 5073              	.LVL639:
 5074 006e F5E7     		b	.L515
 5075              	.L524:
 5076              		.align	2
 5077              	.L523:
 5078 0070 00000000 		.word	gpfal_dispatch
 5079 0074 00000000 		.word	yt_debug_level
 5080 0078 00000000 		.word	_yt_errmsg
 5081 007c 00000000 		.word	_yt_prompt_msg
 5082 0080 00000000 		.word	.LC0
 5083              	.LBE102:
 5084              		.cfi_endproc
 5085              	.LFE26:
 5087              		.section	.text.yt_l2_system_learnlimit_cnt_get,"ax",%progbits
 5088              		.align	1
 5089              		.global	yt_l2_system_learnlimit_cnt_get
 5090              		.syntax unified
 5091              		.thumb
 5092              		.thumb_func
 5094              	yt_l2_system_learnlimit_cnt_get:
 5095              	.LVL640:
 5096              	.LFB27:
 549:../switch_sdk/core/yt/yt_l2.c **** 
 550:../switch_sdk/core/yt/yt_l2.c **** /**
 551:../switch_sdk/core/yt/yt_l2.c ****  * @internal      yt_l2_system_learnlimit_cnt_get
 552:../switch_sdk/core/yt/yt_l2.c ****  * @endinternal
 553:../switch_sdk/core/yt/yt_l2.c ****  *
 554:../switch_sdk/core/yt/yt_l2.c ****  * @brief         Description
 555:../switch_sdk/core/yt/yt_l2.c ****  * @note          APPLICABLE DEVICES  -Tiger
 556:../switch_sdk/core/yt/yt_l2.c ****  * @param[in]     unit                -unit id
 557:../switch_sdk/core/yt/yt_l2.c ****  * @param[out]    pmaxcnt             -x
 558:../switch_sdk/core/yt/yt_l2.c ****  * @retval        CMM_ERR_OK          -on success
 559:../switch_sdk/core/yt/yt_l2.c ****  * @retval        CMM_ERR_FAIL        -on fail
 560:../switch_sdk/core/yt/yt_l2.c ****  */
 561:../switch_sdk/core/yt/yt_l2.c **** yt_ret_t  yt_l2_system_learnlimit_cnt_get(yt_unit_t unit, uint32_t *pmaxcnt)
 562:../switch_sdk/core/yt/yt_l2.c **** {
 5097              		.loc 1 562 1 is_stmt 1 view -0
 5098              		.cfi_startproc
 5099              		@ args = 0, pretend = 0, frame = 0
 5100              		@ frame_needed = 0, uses_anonymous_args = 0
 5101              		.loc 1 562 1 is_stmt 0 view .LVU1431
 5102 0000 08B5     		push	{r3, lr}
 5103              		.cfi_def_cfa_offset 8
 5104              		.cfi_offset 3, -8
 5105              		.cfi_offset 14, -4
 563:../switch_sdk/core/yt/yt_l2.c ****     CMM_PARAM_CHK((YT_UNIT_NUM <= unit), CMM_ERR_INPUT);
 5106              		.loc 1 563 5 is_stmt 1 view .LVU1432
 5107              		.loc 1 563 5 view .LVU1433
 5108 0002 68B9     		cbnz	r0, .L536
 5109 0004 0246     		mov	r2, r0
 5110              		.loc 1 563 5 discriminator 2 view .LVU1434
 564:../switch_sdk/core/yt/yt_l2.c ****     CMM_PARAM_CHK(NULL == YT_DISPATCH(unit), CMM_ERR_NOT_INIT);
 5111              		.loc 1 564 5 discriminator 2 view .LVU1435
 5112              		.loc 1 564 5 discriminator 2 view .LVU1436
 5113 0006 224B     		ldr	r3, .L544
 5114 0008 53F82030 		ldr	r3, [r3, r0, lsl #2]
 5115 000c B3B1     		cbz	r3, .L537
 5116              		.loc 1 564 5 discriminator 2 view .LVU1437
 565:../switch_sdk/core/yt/yt_l2.c ****     CMM_PARAM_CHK((!(YT_DISPATCH(unit)->is_inited)), CMM_ERR_NOT_INIT);
 5117              		.loc 1 565 5 discriminator 2 view .LVU1438
 5118              		.loc 1 565 5 discriminator 2 view .LVU1439
 5119 000e 1878     		ldrb	r0, [r3]	@ zero_extendqisi2
 5120              	.LVL641:
 5121              		.loc 1 565 5 is_stmt 0 discriminator 2 view .LVU1440
 5122 0010 10B3     		cbz	r0, .L538
 5123              		.loc 1 565 5 is_stmt 1 discriminator 2 view .LVU1441
 566:../switch_sdk/core/yt/yt_l2.c ****     CMM_PARAM_CHK((NULL == pmaxcnt), CMM_ERR_NULL_POINT);
 5124              		.loc 1 566 5 discriminator 2 view .LVU1442
 5125              		.loc 1 566 5 discriminator 2 view .LVU1443
 5126 0012 0029     		cmp	r1, #0
 5127 0014 2ED0     		beq	.L539
 5128              		.loc 1 566 5 discriminator 2 view .LVU1444
 567:../switch_sdk/core/yt/yt_l2.c **** 
 568:../switch_sdk/core/yt/yt_l2.c ****     return YT_DISPATCH(unit)->l2_system_learnlimit_cnt_get(unit, pmaxcnt);
 5129              		.loc 1 568 5 discriminator 2 view .LVU1445
 5130              		.loc 1 568 29 is_stmt 0 discriminator 2 view .LVU1446
 5131 0016 D3F89C33 		ldr	r3, [r3, #924]
 5132              		.loc 1 568 12 discriminator 2 view .LVU1447
 5133 001a 1046     		mov	r0, r2
 5134 001c 9847     		blx	r3
 5135              	.LVL642:
 5136              	.L525:
 569:../switch_sdk/core/yt/yt_l2.c **** }
 5137              		.loc 1 569 1 view .LVU1448
 5138 001e 08BD     		pop	{r3, pc}
 5139              	.LVL643:
 5140              	.L536:
 563:../switch_sdk/core/yt/yt_l2.c ****     CMM_PARAM_CHK(NULL == YT_DISPATCH(unit), CMM_ERR_NOT_INIT);
 5141              		.loc 1 563 5 is_stmt 1 discriminator 1 view .LVU1449
 563:../switch_sdk/core/yt/yt_l2.c ****     CMM_PARAM_CHK(NULL == YT_DISPATCH(unit), CMM_ERR_NOT_INIT);
 5142              		.loc 1 563 5 discriminator 1 view .LVU1450
 5143 0020 1C4B     		ldr	r3, .L544+4
 5144 0022 1B78     		ldrb	r3, [r3]	@ zero_extendqisi2
 5145 0024 012B     		cmp	r3, #1
 5146 0026 01D8     		bhi	.L540
 5147              	.LVL644:
 5148              	.L527:
 563:../switch_sdk/core/yt/yt_l2.c ****     CMM_PARAM_CHK(NULL == YT_DISPATCH(unit), CMM_ERR_NOT_INIT);
 5149              		.loc 1 563 5 discriminator 5 view .LVU1451
 563:../switch_sdk/core/yt/yt_l2.c ****     CMM_PARAM_CHK(NULL == YT_DISPATCH(unit), CMM_ERR_NOT_INIT);
 5150              		.loc 1 563 5 discriminator 5 view .LVU1452
 563:../switch_sdk/core/yt/yt_l2.c ****     CMM_PARAM_CHK(NULL == YT_DISPATCH(unit), CMM_ERR_NOT_INIT);
 5151              		.loc 1 563 5 discriminator 5 view .LVU1453
 5152 0028 0520     		movs	r0, #5
 5153 002a F8E7     		b	.L525
 5154              	.LVL645:
 5155              	.L540:
 563:../switch_sdk/core/yt/yt_l2.c ****     CMM_PARAM_CHK(NULL == YT_DISPATCH(unit), CMM_ERR_NOT_INIT);
 5156              		.loc 1 563 5 discriminator 3 view .LVU1454
 5157              	.LBB103:
 563:../switch_sdk/core/yt/yt_l2.c ****     CMM_PARAM_CHK(NULL == YT_DISPATCH(unit), CMM_ERR_NOT_INIT);
 5158              		.loc 1 563 5 discriminator 3 view .LVU1455
 5159 002c 1A4B     		ldr	r3, .L544+8
 5160 002e 5A69     		ldr	r2, [r3, #20]
 5161 0030 1A4B     		ldr	r3, .L544+12
 5162 0032 9968     		ldr	r1, [r3, #8]
 5163              	.LVL646:
 563:../switch_sdk/core/yt/yt_l2.c ****     CMM_PARAM_CHK(NULL == YT_DISPATCH(unit), CMM_ERR_NOT_INIT);
 5164              		.loc 1 563 5 is_stmt 0 discriminator 3 view .LVU1456
 5165 0034 1A48     		ldr	r0, .L544+16
 5166              	.LVL647:
 563:../switch_sdk/core/yt/yt_l2.c ****     CMM_PARAM_CHK(NULL == YT_DISPATCH(unit), CMM_ERR_NOT_INIT);
 5167              		.loc 1 563 5 discriminator 3 view .LVU1457
 5168 0036 FFF7FEFF 		bl	osal_printf
 5169              	.LVL648:
 5170 003a F5E7     		b	.L527
 5171              	.LVL649:
 5172              	.L537:
 563:../switch_sdk/core/yt/yt_l2.c ****     CMM_PARAM_CHK(NULL == YT_DISPATCH(unit), CMM_ERR_NOT_INIT);
 5173              		.loc 1 563 5 discriminator 3 view .LVU1458
 5174              	.LBE103:
 564:../switch_sdk/core/yt/yt_l2.c ****     CMM_PARAM_CHK((!(YT_DISPATCH(unit)->is_inited)), CMM_ERR_NOT_INIT);
 5175              		.loc 1 564 5 is_stmt 1 discriminator 1 view .LVU1459
 564:../switch_sdk/core/yt/yt_l2.c ****     CMM_PARAM_CHK((!(YT_DISPATCH(unit)->is_inited)), CMM_ERR_NOT_INIT);
 5176              		.loc 1 564 5 discriminator 1 view .LVU1460
 5177 003c 154B     		ldr	r3, .L544+4
 5178 003e 1B78     		ldrb	r3, [r3]	@ zero_extendqisi2
 5179 0040 012B     		cmp	r3, #1
 5180 0042 01D8     		bhi	.L541
 5181              	.LVL650:
 5182              	.L530:
 564:../switch_sdk/core/yt/yt_l2.c ****     CMM_PARAM_CHK((!(YT_DISPATCH(unit)->is_inited)), CMM_ERR_NOT_INIT);
 5183              		.loc 1 564 5 discriminator 5 view .LVU1461
 564:../switch_sdk/core/yt/yt_l2.c ****     CMM_PARAM_CHK((!(YT_DISPATCH(unit)->is_inited)), CMM_ERR_NOT_INIT);
 5184              		.loc 1 564 5 discriminator 5 view .LVU1462
 564:../switch_sdk/core/yt/yt_l2.c ****     CMM_PARAM_CHK((!(YT_DISPATCH(unit)->is_inited)), CMM_ERR_NOT_INIT);
 5185              		.loc 1 564 5 discriminator 5 view .LVU1463
 5186 0044 0420     		movs	r0, #4
 5187 0046 EAE7     		b	.L525
 5188              	.LVL651:
 5189              	.L541:
 564:../switch_sdk/core/yt/yt_l2.c ****     CMM_PARAM_CHK((!(YT_DISPATCH(unit)->is_inited)), CMM_ERR_NOT_INIT);
 5190              		.loc 1 564 5 discriminator 3 view .LVU1464
 5191              	.LBB104:
 564:../switch_sdk/core/yt/yt_l2.c ****     CMM_PARAM_CHK((!(YT_DISPATCH(unit)->is_inited)), CMM_ERR_NOT_INIT);
 5192              		.loc 1 564 5 discriminator 3 view .LVU1465
 5193 0048 134B     		ldr	r3, .L544+8
 5194 004a 1A69     		ldr	r2, [r3, #16]
 5195 004c 134B     		ldr	r3, .L544+12
 5196 004e 9968     		ldr	r1, [r3, #8]
 5197              	.LVL652:
 564:../switch_sdk/core/yt/yt_l2.c ****     CMM_PARAM_CHK((!(YT_DISPATCH(unit)->is_inited)), CMM_ERR_NOT_INIT);
 5198              		.loc 1 564 5 is_stmt 0 discriminator 3 view .LVU1466
 5199 0050 1348     		ldr	r0, .L544+16
 5200              	.LVL653:
 564:../switch_sdk/core/yt/yt_l2.c ****     CMM_PARAM_CHK((!(YT_DISPATCH(unit)->is_inited)), CMM_ERR_NOT_INIT);
 5201              		.loc 1 564 5 discriminator 3 view .LVU1467
 5202 0052 FFF7FEFF 		bl	osal_printf
 5203              	.LVL654:
 5204 0056 F5E7     		b	.L530
 5205              	.LVL655:
 5206              	.L538:
 564:../switch_sdk/core/yt/yt_l2.c ****     CMM_PARAM_CHK((!(YT_DISPATCH(unit)->is_inited)), CMM_ERR_NOT_INIT);
 5207              		.loc 1 564 5 discriminator 3 view .LVU1468
 5208              	.LBE104:
 565:../switch_sdk/core/yt/yt_l2.c ****     CMM_PARAM_CHK((NULL == pmaxcnt), CMM_ERR_NULL_POINT);
 5209              		.loc 1 565 5 is_stmt 1 discriminator 1 view .LVU1469
 565:../switch_sdk/core/yt/yt_l2.c ****     CMM_PARAM_CHK((NULL == pmaxcnt), CMM_ERR_NULL_POINT);
 5210              		.loc 1 565 5 discriminator 1 view .LVU1470
 5211 0058 0E4B     		ldr	r3, .L544+4
 5212 005a 1B78     		ldrb	r3, [r3]	@ zero_extendqisi2
 5213 005c 012B     		cmp	r3, #1
 5214 005e 01D8     		bhi	.L542
 5215              	.LVL656:
 5216              	.L532:
 565:../switch_sdk/core/yt/yt_l2.c ****     CMM_PARAM_CHK((NULL == pmaxcnt), CMM_ERR_NULL_POINT);
 5217              		.loc 1 565 5 discriminator 5 view .LVU1471
 565:../switch_sdk/core/yt/yt_l2.c ****     CMM_PARAM_CHK((NULL == pmaxcnt), CMM_ERR_NULL_POINT);
 5218              		.loc 1 565 5 discriminator 5 view .LVU1472
 565:../switch_sdk/core/yt/yt_l2.c ****     CMM_PARAM_CHK((NULL == pmaxcnt), CMM_ERR_NULL_POINT);
 5219              		.loc 1 565 5 discriminator 5 view .LVU1473
 5220 0060 0420     		movs	r0, #4
 5221 0062 DCE7     		b	.L525
 5222              	.LVL657:
 5223              	.L542:
 565:../switch_sdk/core/yt/yt_l2.c ****     CMM_PARAM_CHK((NULL == pmaxcnt), CMM_ERR_NULL_POINT);
 5224              		.loc 1 565 5 discriminator 3 view .LVU1474
 5225              	.LBB105:
 565:../switch_sdk/core/yt/yt_l2.c ****     CMM_PARAM_CHK((NULL == pmaxcnt), CMM_ERR_NULL_POINT);
 5226              		.loc 1 565 5 discriminator 3 view .LVU1475
 5227 0064 0C4B     		ldr	r3, .L544+8
 5228 0066 1A69     		ldr	r2, [r3, #16]
 5229 0068 0C4B     		ldr	r3, .L544+12
 5230 006a 9968     		ldr	r1, [r3, #8]
 5231              	.LVL658:
 565:../switch_sdk/core/yt/yt_l2.c ****     CMM_PARAM_CHK((NULL == pmaxcnt), CMM_ERR_NULL_POINT);
 5232              		.loc 1 565 5 is_stmt 0 discriminator 3 view .LVU1476
 5233 006c 0C48     		ldr	r0, .L544+16
 5234 006e FFF7FEFF 		bl	osal_printf
 5235              	.LVL659:
 5236 0072 F5E7     		b	.L532
 5237              	.LVL660:
 5238              	.L539:
 565:../switch_sdk/core/yt/yt_l2.c ****     CMM_PARAM_CHK((NULL == pmaxcnt), CMM_ERR_NULL_POINT);
 5239              		.loc 1 565 5 discriminator 3 view .LVU1477
 5240              	.LBE105:
 566:../switch_sdk/core/yt/yt_l2.c **** 
 5241              		.loc 1 566 5 is_stmt 1 discriminator 1 view .LVU1478
 566:../switch_sdk/core/yt/yt_l2.c **** 
 5242              		.loc 1 566 5 discriminator 1 view .LVU1479
 5243 0074 074B     		ldr	r3, .L544+4
 5244 0076 1B78     		ldrb	r3, [r3]	@ zero_extendqisi2
 5245 0078 012B     		cmp	r3, #1
 5246 007a 01D8     		bhi	.L543
 5247              	.LVL661:
 5248              	.L534:
 566:../switch_sdk/core/yt/yt_l2.c **** 
 5249              		.loc 1 566 5 discriminator 5 view .LVU1480
 566:../switch_sdk/core/yt/yt_l2.c **** 
 5250              		.loc 1 566 5 discriminator 5 view .LVU1481
 566:../switch_sdk/core/yt/yt_l2.c **** 
 5251              		.loc 1 566 5 discriminator 5 view .LVU1482
 5252 007c 0220     		movs	r0, #2
 5253 007e CEE7     		b	.L525
 5254              	.LVL662:
 5255              	.L543:
 566:../switch_sdk/core/yt/yt_l2.c **** 
 5256              		.loc 1 566 5 discriminator 3 view .LVU1483
 5257              	.LBB106:
 566:../switch_sdk/core/yt/yt_l2.c **** 
 5258              		.loc 1 566 5 discriminator 3 view .LVU1484
 5259 0080 054B     		ldr	r3, .L544+8
 5260 0082 9A68     		ldr	r2, [r3, #8]
 5261 0084 054B     		ldr	r3, .L544+12
 5262 0086 9968     		ldr	r1, [r3, #8]
 5263              	.LVL663:
 566:../switch_sdk/core/yt/yt_l2.c **** 
 5264              		.loc 1 566 5 is_stmt 0 discriminator 3 view .LVU1485
 5265 0088 0548     		ldr	r0, .L544+16
 5266 008a FFF7FEFF 		bl	osal_printf
 5267              	.LVL664:
 5268 008e F5E7     		b	.L534
 5269              	.L545:
 5270              		.align	2
 5271              	.L544:
 5272 0090 00000000 		.word	gpfal_dispatch
 5273 0094 00000000 		.word	yt_debug_level
 5274 0098 00000000 		.word	_yt_errmsg
 5275 009c 00000000 		.word	_yt_prompt_msg
 5276 00a0 00000000 		.word	.LC0
 5277              	.LBE106:
 5278              		.cfi_endproc
 5279              	.LFE27:
 5281              		.section	.text.yt_l2_system_learnlimit_exceed_drop_set,"ax",%progbits
 5282              		.align	1
 5283              		.global	yt_l2_system_learnlimit_exceed_drop_set
 5284              		.syntax unified
 5285              		.thumb
 5286              		.thumb_func
 5288              	yt_l2_system_learnlimit_exceed_drop_set:
 5289              	.LVL665:
 5290              	.LFB28:
 570:../switch_sdk/core/yt/yt_l2.c **** 
 571:../switch_sdk/core/yt/yt_l2.c **** /**
 572:../switch_sdk/core/yt/yt_l2.c ****  * @internal      yt_l2_system_learnlimit_exceed_drop_set
 573:../switch_sdk/core/yt/yt_l2.c ****  * @endinternal
 574:../switch_sdk/core/yt/yt_l2.c ****  *
 575:../switch_sdk/core/yt/yt_l2.c ****  * @brief         Description
 576:../switch_sdk/core/yt/yt_l2.c ****  * @note          APPLICABLE DEVICES  -Tiger
 577:../switch_sdk/core/yt/yt_l2.c ****  * @param[in]     unit                -unit id
 578:../switch_sdk/core/yt/yt_l2.c ****  * @param[in]     enable              -enable or disable
 579:../switch_sdk/core/yt/yt_l2.c ****  * @retval        CMM_ERR_OK          -on success
 580:../switch_sdk/core/yt/yt_l2.c ****  * @retval        CMM_ERR_FAIL        -on fail
 581:../switch_sdk/core/yt/yt_l2.c ****  */
 582:../switch_sdk/core/yt/yt_l2.c **** yt_ret_t  yt_l2_system_learnlimit_exceed_drop_set(yt_unit_t unit, yt_enable_t enable)
 583:../switch_sdk/core/yt/yt_l2.c **** {
 5291              		.loc 1 583 1 is_stmt 1 view -0
 5292              		.cfi_startproc
 5293              		@ args = 0, pretend = 0, frame = 0
 5294              		@ frame_needed = 0, uses_anonymous_args = 0
 5295              		.loc 1 583 1 is_stmt 0 view .LVU1487
 5296 0000 08B5     		push	{r3, lr}
 5297              		.cfi_def_cfa_offset 8
 5298              		.cfi_offset 3, -8
 5299              		.cfi_offset 14, -4
 584:../switch_sdk/core/yt/yt_l2.c ****     CMM_PARAM_CHK((YT_UNIT_NUM <= unit), CMM_ERR_INPUT);
 5300              		.loc 1 584 5 is_stmt 1 view .LVU1488
 5301              		.loc 1 584 5 view .LVU1489
 5302 0002 68B9     		cbnz	r0, .L557
 5303 0004 0246     		mov	r2, r0
 5304              		.loc 1 584 5 discriminator 2 view .LVU1490
 585:../switch_sdk/core/yt/yt_l2.c ****     CMM_PARAM_CHK(NULL == YT_DISPATCH(unit), CMM_ERR_NOT_INIT);
 5305              		.loc 1 585 5 discriminator 2 view .LVU1491
 5306              		.loc 1 585 5 discriminator 2 view .LVU1492
 5307 0006 224B     		ldr	r3, .L565
 5308 0008 53F82030 		ldr	r3, [r3, r0, lsl #2]
 5309 000c B3B1     		cbz	r3, .L558
 5310              		.loc 1 585 5 discriminator 2 view .LVU1493
 586:../switch_sdk/core/yt/yt_l2.c ****     CMM_PARAM_CHK((!(YT_DISPATCH(unit)->is_inited)), CMM_ERR_NOT_INIT);
 5311              		.loc 1 586 5 discriminator 2 view .LVU1494
 5312              		.loc 1 586 5 discriminator 2 view .LVU1495
 5313 000e 1878     		ldrb	r0, [r3]	@ zero_extendqisi2
 5314              	.LVL666:
 5315              		.loc 1 586 5 is_stmt 0 discriminator 2 view .LVU1496
 5316 0010 10B3     		cbz	r0, .L559
 5317              		.loc 1 586 5 is_stmt 1 discriminator 2 view .LVU1497
 587:../switch_sdk/core/yt/yt_l2.c ****     CMM_PARAM_CHK((YT_ENABLE < enable || YT_DISABLE > enable), CMM_ERR_INPUT);
 5318              		.loc 1 587 5 discriminator 2 view .LVU1498
 5319              		.loc 1 587 5 discriminator 2 view .LVU1499
 5320 0012 0129     		cmp	r1, #1
 5321 0014 2ED8     		bhi	.L560
 5322              		.loc 1 587 5 discriminator 2 view .LVU1500
 588:../switch_sdk/core/yt/yt_l2.c **** 
 589:../switch_sdk/core/yt/yt_l2.c ****     return YT_DISPATCH(unit)->l2_system_learnlimit_exceed_drop_set(unit, enable);
 5323              		.loc 1 589 5 discriminator 2 view .LVU1501
 5324              		.loc 1 589 29 is_stmt 0 discriminator 2 view .LVU1502
 5325 0016 D3F8A033 		ldr	r3, [r3, #928]
 5326              		.loc 1 589 12 discriminator 2 view .LVU1503
 5327 001a 1046     		mov	r0, r2
 5328 001c 9847     		blx	r3
 5329              	.LVL667:
 5330              	.L546:
 590:../switch_sdk/core/yt/yt_l2.c **** }
 5331              		.loc 1 590 1 view .LVU1504
 5332 001e 08BD     		pop	{r3, pc}
 5333              	.LVL668:
 5334              	.L557:
 584:../switch_sdk/core/yt/yt_l2.c ****     CMM_PARAM_CHK(NULL == YT_DISPATCH(unit), CMM_ERR_NOT_INIT);
 5335              		.loc 1 584 5 is_stmt 1 discriminator 1 view .LVU1505
 584:../switch_sdk/core/yt/yt_l2.c ****     CMM_PARAM_CHK(NULL == YT_DISPATCH(unit), CMM_ERR_NOT_INIT);
 5336              		.loc 1 584 5 discriminator 1 view .LVU1506
 5337 0020 1C4B     		ldr	r3, .L565+4
 5338 0022 1B78     		ldrb	r3, [r3]	@ zero_extendqisi2
 5339 0024 012B     		cmp	r3, #1
 5340 0026 01D8     		bhi	.L561
 5341              	.LVL669:
 5342              	.L548:
 584:../switch_sdk/core/yt/yt_l2.c ****     CMM_PARAM_CHK(NULL == YT_DISPATCH(unit), CMM_ERR_NOT_INIT);
 5343              		.loc 1 584 5 discriminator 5 view .LVU1507
 584:../switch_sdk/core/yt/yt_l2.c ****     CMM_PARAM_CHK(NULL == YT_DISPATCH(unit), CMM_ERR_NOT_INIT);
 5344              		.loc 1 584 5 discriminator 5 view .LVU1508
 584:../switch_sdk/core/yt/yt_l2.c ****     CMM_PARAM_CHK(NULL == YT_DISPATCH(unit), CMM_ERR_NOT_INIT);
 5345              		.loc 1 584 5 discriminator 5 view .LVU1509
 5346 0028 0520     		movs	r0, #5
 5347 002a F8E7     		b	.L546
 5348              	.LVL670:
 5349              	.L561:
 584:../switch_sdk/core/yt/yt_l2.c ****     CMM_PARAM_CHK(NULL == YT_DISPATCH(unit), CMM_ERR_NOT_INIT);
 5350              		.loc 1 584 5 discriminator 3 view .LVU1510
 5351              	.LBB107:
 584:../switch_sdk/core/yt/yt_l2.c ****     CMM_PARAM_CHK(NULL == YT_DISPATCH(unit), CMM_ERR_NOT_INIT);
 5352              		.loc 1 584 5 discriminator 3 view .LVU1511
 5353 002c 1A4B     		ldr	r3, .L565+8
 5354 002e 5A69     		ldr	r2, [r3, #20]
 5355 0030 1A4B     		ldr	r3, .L565+12
 5356 0032 9968     		ldr	r1, [r3, #8]
 5357              	.LVL671:
 584:../switch_sdk/core/yt/yt_l2.c ****     CMM_PARAM_CHK(NULL == YT_DISPATCH(unit), CMM_ERR_NOT_INIT);
 5358              		.loc 1 584 5 is_stmt 0 discriminator 3 view .LVU1512
 5359 0034 1A48     		ldr	r0, .L565+16
 5360              	.LVL672:
 584:../switch_sdk/core/yt/yt_l2.c ****     CMM_PARAM_CHK(NULL == YT_DISPATCH(unit), CMM_ERR_NOT_INIT);
 5361              		.loc 1 584 5 discriminator 3 view .LVU1513
 5362 0036 FFF7FEFF 		bl	osal_printf
 5363              	.LVL673:
 5364 003a F5E7     		b	.L548
 5365              	.LVL674:
 5366              	.L558:
 584:../switch_sdk/core/yt/yt_l2.c ****     CMM_PARAM_CHK(NULL == YT_DISPATCH(unit), CMM_ERR_NOT_INIT);
 5367              		.loc 1 584 5 discriminator 3 view .LVU1514
 5368              	.LBE107:
 585:../switch_sdk/core/yt/yt_l2.c ****     CMM_PARAM_CHK((!(YT_DISPATCH(unit)->is_inited)), CMM_ERR_NOT_INIT);
 5369              		.loc 1 585 5 is_stmt 1 discriminator 1 view .LVU1515
 585:../switch_sdk/core/yt/yt_l2.c ****     CMM_PARAM_CHK((!(YT_DISPATCH(unit)->is_inited)), CMM_ERR_NOT_INIT);
 5370              		.loc 1 585 5 discriminator 1 view .LVU1516
 5371 003c 154B     		ldr	r3, .L565+4
 5372 003e 1B78     		ldrb	r3, [r3]	@ zero_extendqisi2
 5373 0040 012B     		cmp	r3, #1
 5374 0042 01D8     		bhi	.L562
 5375              	.LVL675:
 5376              	.L551:
 585:../switch_sdk/core/yt/yt_l2.c ****     CMM_PARAM_CHK((!(YT_DISPATCH(unit)->is_inited)), CMM_ERR_NOT_INIT);
 5377              		.loc 1 585 5 discriminator 5 view .LVU1517
 585:../switch_sdk/core/yt/yt_l2.c ****     CMM_PARAM_CHK((!(YT_DISPATCH(unit)->is_inited)), CMM_ERR_NOT_INIT);
 5378              		.loc 1 585 5 discriminator 5 view .LVU1518
 585:../switch_sdk/core/yt/yt_l2.c ****     CMM_PARAM_CHK((!(YT_DISPATCH(unit)->is_inited)), CMM_ERR_NOT_INIT);
 5379              		.loc 1 585 5 discriminator 5 view .LVU1519
 5380 0044 0420     		movs	r0, #4
 5381 0046 EAE7     		b	.L546
 5382              	.LVL676:
 5383              	.L562:
 585:../switch_sdk/core/yt/yt_l2.c ****     CMM_PARAM_CHK((!(YT_DISPATCH(unit)->is_inited)), CMM_ERR_NOT_INIT);
 5384              		.loc 1 585 5 discriminator 3 view .LVU1520
 5385              	.LBB108:
 585:../switch_sdk/core/yt/yt_l2.c ****     CMM_PARAM_CHK((!(YT_DISPATCH(unit)->is_inited)), CMM_ERR_NOT_INIT);
 5386              		.loc 1 585 5 discriminator 3 view .LVU1521
 5387 0048 134B     		ldr	r3, .L565+8
 5388 004a 1A69     		ldr	r2, [r3, #16]
 5389 004c 134B     		ldr	r3, .L565+12
 5390 004e 9968     		ldr	r1, [r3, #8]
 5391              	.LVL677:
 585:../switch_sdk/core/yt/yt_l2.c ****     CMM_PARAM_CHK((!(YT_DISPATCH(unit)->is_inited)), CMM_ERR_NOT_INIT);
 5392              		.loc 1 585 5 is_stmt 0 discriminator 3 view .LVU1522
 5393 0050 1348     		ldr	r0, .L565+16
 5394              	.LVL678:
 585:../switch_sdk/core/yt/yt_l2.c ****     CMM_PARAM_CHK((!(YT_DISPATCH(unit)->is_inited)), CMM_ERR_NOT_INIT);
 5395              		.loc 1 585 5 discriminator 3 view .LVU1523
 5396 0052 FFF7FEFF 		bl	osal_printf
 5397              	.LVL679:
 5398 0056 F5E7     		b	.L551
 5399              	.LVL680:
 5400              	.L559:
 585:../switch_sdk/core/yt/yt_l2.c ****     CMM_PARAM_CHK((!(YT_DISPATCH(unit)->is_inited)), CMM_ERR_NOT_INIT);
 5401              		.loc 1 585 5 discriminator 3 view .LVU1524
 5402              	.LBE108:
 586:../switch_sdk/core/yt/yt_l2.c ****     CMM_PARAM_CHK((YT_ENABLE < enable || YT_DISABLE > enable), CMM_ERR_INPUT);
 5403              		.loc 1 586 5 is_stmt 1 discriminator 1 view .LVU1525
 586:../switch_sdk/core/yt/yt_l2.c ****     CMM_PARAM_CHK((YT_ENABLE < enable || YT_DISABLE > enable), CMM_ERR_INPUT);
 5404              		.loc 1 586 5 discriminator 1 view .LVU1526
 5405 0058 0E4B     		ldr	r3, .L565+4
 5406 005a 1B78     		ldrb	r3, [r3]	@ zero_extendqisi2
 5407 005c 012B     		cmp	r3, #1
 5408 005e 01D8     		bhi	.L563
 5409              	.LVL681:
 5410              	.L553:
 586:../switch_sdk/core/yt/yt_l2.c ****     CMM_PARAM_CHK((YT_ENABLE < enable || YT_DISABLE > enable), CMM_ERR_INPUT);
 5411              		.loc 1 586 5 discriminator 5 view .LVU1527
 586:../switch_sdk/core/yt/yt_l2.c ****     CMM_PARAM_CHK((YT_ENABLE < enable || YT_DISABLE > enable), CMM_ERR_INPUT);
 5412              		.loc 1 586 5 discriminator 5 view .LVU1528
 586:../switch_sdk/core/yt/yt_l2.c ****     CMM_PARAM_CHK((YT_ENABLE < enable || YT_DISABLE > enable), CMM_ERR_INPUT);
 5413              		.loc 1 586 5 discriminator 5 view .LVU1529
 5414 0060 0420     		movs	r0, #4
 5415 0062 DCE7     		b	.L546
 5416              	.LVL682:
 5417              	.L563:
 586:../switch_sdk/core/yt/yt_l2.c ****     CMM_PARAM_CHK((YT_ENABLE < enable || YT_DISABLE > enable), CMM_ERR_INPUT);
 5418              		.loc 1 586 5 discriminator 3 view .LVU1530
 5419              	.LBB109:
 586:../switch_sdk/core/yt/yt_l2.c ****     CMM_PARAM_CHK((YT_ENABLE < enable || YT_DISABLE > enable), CMM_ERR_INPUT);
 5420              		.loc 1 586 5 discriminator 3 view .LVU1531
 5421 0064 0C4B     		ldr	r3, .L565+8
 5422 0066 1A69     		ldr	r2, [r3, #16]
 5423 0068 0C4B     		ldr	r3, .L565+12
 5424 006a 9968     		ldr	r1, [r3, #8]
 5425              	.LVL683:
 586:../switch_sdk/core/yt/yt_l2.c ****     CMM_PARAM_CHK((YT_ENABLE < enable || YT_DISABLE > enable), CMM_ERR_INPUT);
 5426              		.loc 1 586 5 is_stmt 0 discriminator 3 view .LVU1532
 5427 006c 0C48     		ldr	r0, .L565+16
 5428 006e FFF7FEFF 		bl	osal_printf
 5429              	.LVL684:
 5430 0072 F5E7     		b	.L553
 5431              	.LVL685:
 5432              	.L560:
 586:../switch_sdk/core/yt/yt_l2.c ****     CMM_PARAM_CHK((YT_ENABLE < enable || YT_DISABLE > enable), CMM_ERR_INPUT);
 5433              		.loc 1 586 5 discriminator 3 view .LVU1533
 5434              	.LBE109:
 587:../switch_sdk/core/yt/yt_l2.c **** 
 5435              		.loc 1 587 5 is_stmt 1 discriminator 1 view .LVU1534
 587:../switch_sdk/core/yt/yt_l2.c **** 
 5436              		.loc 1 587 5 discriminator 1 view .LVU1535
 5437 0074 074B     		ldr	r3, .L565+4
 5438 0076 1B78     		ldrb	r3, [r3]	@ zero_extendqisi2
 5439 0078 012B     		cmp	r3, #1
 5440 007a 01D8     		bhi	.L564
 5441              	.LVL686:
 5442              	.L555:
 587:../switch_sdk/core/yt/yt_l2.c **** 
 5443              		.loc 1 587 5 discriminator 5 view .LVU1536
 587:../switch_sdk/core/yt/yt_l2.c **** 
 5444              		.loc 1 587 5 discriminator 5 view .LVU1537
 587:../switch_sdk/core/yt/yt_l2.c **** 
 5445              		.loc 1 587 5 discriminator 5 view .LVU1538
 5446 007c 0520     		movs	r0, #5
 5447 007e CEE7     		b	.L546
 5448              	.LVL687:
 5449              	.L564:
 587:../switch_sdk/core/yt/yt_l2.c **** 
 5450              		.loc 1 587 5 discriminator 3 view .LVU1539
 5451              	.LBB110:
 587:../switch_sdk/core/yt/yt_l2.c **** 
 5452              		.loc 1 587 5 discriminator 3 view .LVU1540
 5453 0080 054B     		ldr	r3, .L565+8
 5454 0082 5A69     		ldr	r2, [r3, #20]
 5455 0084 054B     		ldr	r3, .L565+12
 5456 0086 9968     		ldr	r1, [r3, #8]
 5457              	.LVL688:
 587:../switch_sdk/core/yt/yt_l2.c **** 
 5458              		.loc 1 587 5 is_stmt 0 discriminator 3 view .LVU1541
 5459 0088 0548     		ldr	r0, .L565+16
 5460 008a FFF7FEFF 		bl	osal_printf
 5461              	.LVL689:
 5462 008e F5E7     		b	.L555
 5463              	.L566:
 5464              		.align	2
 5465              	.L565:
 5466 0090 00000000 		.word	gpfal_dispatch
 5467 0094 00000000 		.word	yt_debug_level
 5468 0098 00000000 		.word	_yt_errmsg
 5469 009c 00000000 		.word	_yt_prompt_msg
 5470 00a0 00000000 		.word	.LC0
 5471              	.LBE110:
 5472              		.cfi_endproc
 5473              	.LFE28:
 5475              		.section	.text.yt_l2_system_learnlimit_exceed_drop_get,"ax",%progbits
 5476              		.align	1
 5477              		.global	yt_l2_system_learnlimit_exceed_drop_get
 5478              		.syntax unified
 5479              		.thumb
 5480              		.thumb_func
 5482              	yt_l2_system_learnlimit_exceed_drop_get:
 5483              	.LVL690:
 5484              	.LFB29:
 591:../switch_sdk/core/yt/yt_l2.c **** 
 592:../switch_sdk/core/yt/yt_l2.c **** /**
 593:../switch_sdk/core/yt/yt_l2.c ****  * @internal      yt_l2_system_learnlimit_exceed_drop_get
 594:../switch_sdk/core/yt/yt_l2.c ****  * @endinternal
 595:../switch_sdk/core/yt/yt_l2.c ****  *
 596:../switch_sdk/core/yt/yt_l2.c ****  * @brief         Description
 597:../switch_sdk/core/yt/yt_l2.c ****  * @note          APPLICABLE DEVICES  -Tiger
 598:../switch_sdk/core/yt/yt_l2.c ****  * @param[in]     unit                -unit id
 599:../switch_sdk/core/yt/yt_l2.c ****  * @param[out]    pEnable             -enable or disable
 600:../switch_sdk/core/yt/yt_l2.c ****  * @retval        CMM_ERR_OK          -on success
 601:../switch_sdk/core/yt/yt_l2.c ****  * @retval        CMM_ERR_FAIL        -on fail
 602:../switch_sdk/core/yt/yt_l2.c ****  */
 603:../switch_sdk/core/yt/yt_l2.c **** yt_ret_t  yt_l2_system_learnlimit_exceed_drop_get(yt_unit_t unit, yt_enable_t *pEnable)
 604:../switch_sdk/core/yt/yt_l2.c **** {
 5485              		.loc 1 604 1 is_stmt 1 view -0
 5486              		.cfi_startproc
 5487              		@ args = 0, pretend = 0, frame = 0
 5488              		@ frame_needed = 0, uses_anonymous_args = 0
 5489              		.loc 1 604 1 is_stmt 0 view .LVU1543
 5490 0000 08B5     		push	{r3, lr}
 5491              		.cfi_def_cfa_offset 8
 5492              		.cfi_offset 3, -8
 5493              		.cfi_offset 14, -4
 605:../switch_sdk/core/yt/yt_l2.c ****     CMM_PARAM_CHK((YT_UNIT_NUM <= unit), CMM_ERR_INPUT);
 5494              		.loc 1 605 5 is_stmt 1 view .LVU1544
 5495              		.loc 1 605 5 view .LVU1545
 5496 0002 68B9     		cbnz	r0, .L578
 5497 0004 0246     		mov	r2, r0
 5498              		.loc 1 605 5 discriminator 2 view .LVU1546
 606:../switch_sdk/core/yt/yt_l2.c ****     CMM_PARAM_CHK(NULL == YT_DISPATCH(unit), CMM_ERR_NOT_INIT);
 5499              		.loc 1 606 5 discriminator 2 view .LVU1547
 5500              		.loc 1 606 5 discriminator 2 view .LVU1548
 5501 0006 224B     		ldr	r3, .L586
 5502 0008 53F82030 		ldr	r3, [r3, r0, lsl #2]
 5503 000c B3B1     		cbz	r3, .L579
 5504              		.loc 1 606 5 discriminator 2 view .LVU1549
 607:../switch_sdk/core/yt/yt_l2.c ****     CMM_PARAM_CHK((!(YT_DISPATCH(unit)->is_inited)), CMM_ERR_NOT_INIT);
 5505              		.loc 1 607 5 discriminator 2 view .LVU1550
 5506              		.loc 1 607 5 discriminator 2 view .LVU1551
 5507 000e 1878     		ldrb	r0, [r3]	@ zero_extendqisi2
 5508              	.LVL691:
 5509              		.loc 1 607 5 is_stmt 0 discriminator 2 view .LVU1552
 5510 0010 10B3     		cbz	r0, .L580
 5511              		.loc 1 607 5 is_stmt 1 discriminator 2 view .LVU1553
 608:../switch_sdk/core/yt/yt_l2.c ****     CMM_PARAM_CHK((NULL == pEnable), CMM_ERR_NULL_POINT);
 5512              		.loc 1 608 5 discriminator 2 view .LVU1554
 5513              		.loc 1 608 5 discriminator 2 view .LVU1555
 5514 0012 0029     		cmp	r1, #0
 5515 0014 2ED0     		beq	.L581
 5516              		.loc 1 608 5 discriminator 2 view .LVU1556
 609:../switch_sdk/core/yt/yt_l2.c **** 
 610:../switch_sdk/core/yt/yt_l2.c ****     return YT_DISPATCH(unit)->l2_system_learnlimit_exceed_drop_get(unit, pEnable);
 5517              		.loc 1 610 5 discriminator 2 view .LVU1557
 5518              		.loc 1 610 29 is_stmt 0 discriminator 2 view .LVU1558
 5519 0016 D3F8A433 		ldr	r3, [r3, #932]
 5520              		.loc 1 610 12 discriminator 2 view .LVU1559
 5521 001a 1046     		mov	r0, r2
 5522 001c 9847     		blx	r3
 5523              	.LVL692:
 5524              	.L567:
 611:../switch_sdk/core/yt/yt_l2.c **** }
 5525              		.loc 1 611 1 view .LVU1560
 5526 001e 08BD     		pop	{r3, pc}
 5527              	.LVL693:
 5528              	.L578:
 605:../switch_sdk/core/yt/yt_l2.c ****     CMM_PARAM_CHK(NULL == YT_DISPATCH(unit), CMM_ERR_NOT_INIT);
 5529              		.loc 1 605 5 is_stmt 1 discriminator 1 view .LVU1561
 605:../switch_sdk/core/yt/yt_l2.c ****     CMM_PARAM_CHK(NULL == YT_DISPATCH(unit), CMM_ERR_NOT_INIT);
 5530              		.loc 1 605 5 discriminator 1 view .LVU1562
 5531 0020 1C4B     		ldr	r3, .L586+4
 5532 0022 1B78     		ldrb	r3, [r3]	@ zero_extendqisi2
 5533 0024 012B     		cmp	r3, #1
 5534 0026 01D8     		bhi	.L582
 5535              	.LVL694:
 5536              	.L569:
 605:../switch_sdk/core/yt/yt_l2.c ****     CMM_PARAM_CHK(NULL == YT_DISPATCH(unit), CMM_ERR_NOT_INIT);
 5537              		.loc 1 605 5 discriminator 5 view .LVU1563
 605:../switch_sdk/core/yt/yt_l2.c ****     CMM_PARAM_CHK(NULL == YT_DISPATCH(unit), CMM_ERR_NOT_INIT);
 5538              		.loc 1 605 5 discriminator 5 view .LVU1564
 605:../switch_sdk/core/yt/yt_l2.c ****     CMM_PARAM_CHK(NULL == YT_DISPATCH(unit), CMM_ERR_NOT_INIT);
 5539              		.loc 1 605 5 discriminator 5 view .LVU1565
 5540 0028 0520     		movs	r0, #5
 5541 002a F8E7     		b	.L567
 5542              	.LVL695:
 5543              	.L582:
 605:../switch_sdk/core/yt/yt_l2.c ****     CMM_PARAM_CHK(NULL == YT_DISPATCH(unit), CMM_ERR_NOT_INIT);
 5544              		.loc 1 605 5 discriminator 3 view .LVU1566
 5545              	.LBB111:
 605:../switch_sdk/core/yt/yt_l2.c ****     CMM_PARAM_CHK(NULL == YT_DISPATCH(unit), CMM_ERR_NOT_INIT);
 5546              		.loc 1 605 5 discriminator 3 view .LVU1567
 5547 002c 1A4B     		ldr	r3, .L586+8
 5548 002e 5A69     		ldr	r2, [r3, #20]
 5549 0030 1A4B     		ldr	r3, .L586+12
 5550 0032 9968     		ldr	r1, [r3, #8]
 5551              	.LVL696:
 605:../switch_sdk/core/yt/yt_l2.c ****     CMM_PARAM_CHK(NULL == YT_DISPATCH(unit), CMM_ERR_NOT_INIT);
 5552              		.loc 1 605 5 is_stmt 0 discriminator 3 view .LVU1568
 5553 0034 1A48     		ldr	r0, .L586+16
 5554              	.LVL697:
 605:../switch_sdk/core/yt/yt_l2.c ****     CMM_PARAM_CHK(NULL == YT_DISPATCH(unit), CMM_ERR_NOT_INIT);
 5555              		.loc 1 605 5 discriminator 3 view .LVU1569
 5556 0036 FFF7FEFF 		bl	osal_printf
 5557              	.LVL698:
 5558 003a F5E7     		b	.L569
 5559              	.LVL699:
 5560              	.L579:
 605:../switch_sdk/core/yt/yt_l2.c ****     CMM_PARAM_CHK(NULL == YT_DISPATCH(unit), CMM_ERR_NOT_INIT);
 5561              		.loc 1 605 5 discriminator 3 view .LVU1570
 5562              	.LBE111:
 606:../switch_sdk/core/yt/yt_l2.c ****     CMM_PARAM_CHK((!(YT_DISPATCH(unit)->is_inited)), CMM_ERR_NOT_INIT);
 5563              		.loc 1 606 5 is_stmt 1 discriminator 1 view .LVU1571
 606:../switch_sdk/core/yt/yt_l2.c ****     CMM_PARAM_CHK((!(YT_DISPATCH(unit)->is_inited)), CMM_ERR_NOT_INIT);
 5564              		.loc 1 606 5 discriminator 1 view .LVU1572
 5565 003c 154B     		ldr	r3, .L586+4
 5566 003e 1B78     		ldrb	r3, [r3]	@ zero_extendqisi2
 5567 0040 012B     		cmp	r3, #1
 5568 0042 01D8     		bhi	.L583
 5569              	.LVL700:
 5570              	.L572:
 606:../switch_sdk/core/yt/yt_l2.c ****     CMM_PARAM_CHK((!(YT_DISPATCH(unit)->is_inited)), CMM_ERR_NOT_INIT);
 5571              		.loc 1 606 5 discriminator 5 view .LVU1573
 606:../switch_sdk/core/yt/yt_l2.c ****     CMM_PARAM_CHK((!(YT_DISPATCH(unit)->is_inited)), CMM_ERR_NOT_INIT);
 5572              		.loc 1 606 5 discriminator 5 view .LVU1574
 606:../switch_sdk/core/yt/yt_l2.c ****     CMM_PARAM_CHK((!(YT_DISPATCH(unit)->is_inited)), CMM_ERR_NOT_INIT);
 5573              		.loc 1 606 5 discriminator 5 view .LVU1575
 5574 0044 0420     		movs	r0, #4
 5575 0046 EAE7     		b	.L567
 5576              	.LVL701:
 5577              	.L583:
 606:../switch_sdk/core/yt/yt_l2.c ****     CMM_PARAM_CHK((!(YT_DISPATCH(unit)->is_inited)), CMM_ERR_NOT_INIT);
 5578              		.loc 1 606 5 discriminator 3 view .LVU1576
 5579              	.LBB112:
 606:../switch_sdk/core/yt/yt_l2.c ****     CMM_PARAM_CHK((!(YT_DISPATCH(unit)->is_inited)), CMM_ERR_NOT_INIT);
 5580              		.loc 1 606 5 discriminator 3 view .LVU1577
 5581 0048 134B     		ldr	r3, .L586+8
 5582 004a 1A69     		ldr	r2, [r3, #16]
 5583 004c 134B     		ldr	r3, .L586+12
 5584 004e 9968     		ldr	r1, [r3, #8]
 5585              	.LVL702:
 606:../switch_sdk/core/yt/yt_l2.c ****     CMM_PARAM_CHK((!(YT_DISPATCH(unit)->is_inited)), CMM_ERR_NOT_INIT);
 5586              		.loc 1 606 5 is_stmt 0 discriminator 3 view .LVU1578
 5587 0050 1348     		ldr	r0, .L586+16
 5588              	.LVL703:
 606:../switch_sdk/core/yt/yt_l2.c ****     CMM_PARAM_CHK((!(YT_DISPATCH(unit)->is_inited)), CMM_ERR_NOT_INIT);
 5589              		.loc 1 606 5 discriminator 3 view .LVU1579
 5590 0052 FFF7FEFF 		bl	osal_printf
 5591              	.LVL704:
 5592 0056 F5E7     		b	.L572
 5593              	.LVL705:
 5594              	.L580:
 606:../switch_sdk/core/yt/yt_l2.c ****     CMM_PARAM_CHK((!(YT_DISPATCH(unit)->is_inited)), CMM_ERR_NOT_INIT);
 5595              		.loc 1 606 5 discriminator 3 view .LVU1580
 5596              	.LBE112:
 607:../switch_sdk/core/yt/yt_l2.c ****     CMM_PARAM_CHK((NULL == pEnable), CMM_ERR_NULL_POINT);
 5597              		.loc 1 607 5 is_stmt 1 discriminator 1 view .LVU1581
 607:../switch_sdk/core/yt/yt_l2.c ****     CMM_PARAM_CHK((NULL == pEnable), CMM_ERR_NULL_POINT);
 5598              		.loc 1 607 5 discriminator 1 view .LVU1582
 5599 0058 0E4B     		ldr	r3, .L586+4
 5600 005a 1B78     		ldrb	r3, [r3]	@ zero_extendqisi2
 5601 005c 012B     		cmp	r3, #1
 5602 005e 01D8     		bhi	.L584
 5603              	.LVL706:
 5604              	.L574:
 607:../switch_sdk/core/yt/yt_l2.c ****     CMM_PARAM_CHK((NULL == pEnable), CMM_ERR_NULL_POINT);
 5605              		.loc 1 607 5 discriminator 5 view .LVU1583
 607:../switch_sdk/core/yt/yt_l2.c ****     CMM_PARAM_CHK((NULL == pEnable), CMM_ERR_NULL_POINT);
 5606              		.loc 1 607 5 discriminator 5 view .LVU1584
 607:../switch_sdk/core/yt/yt_l2.c ****     CMM_PARAM_CHK((NULL == pEnable), CMM_ERR_NULL_POINT);
 5607              		.loc 1 607 5 discriminator 5 view .LVU1585
 5608 0060 0420     		movs	r0, #4
 5609 0062 DCE7     		b	.L567
 5610              	.LVL707:
 5611              	.L584:
 607:../switch_sdk/core/yt/yt_l2.c ****     CMM_PARAM_CHK((NULL == pEnable), CMM_ERR_NULL_POINT);
 5612              		.loc 1 607 5 discriminator 3 view .LVU1586
 5613              	.LBB113:
 607:../switch_sdk/core/yt/yt_l2.c ****     CMM_PARAM_CHK((NULL == pEnable), CMM_ERR_NULL_POINT);
 5614              		.loc 1 607 5 discriminator 3 view .LVU1587
 5615 0064 0C4B     		ldr	r3, .L586+8
 5616 0066 1A69     		ldr	r2, [r3, #16]
 5617 0068 0C4B     		ldr	r3, .L586+12
 5618 006a 9968     		ldr	r1, [r3, #8]
 5619              	.LVL708:
 607:../switch_sdk/core/yt/yt_l2.c ****     CMM_PARAM_CHK((NULL == pEnable), CMM_ERR_NULL_POINT);
 5620              		.loc 1 607 5 is_stmt 0 discriminator 3 view .LVU1588
 5621 006c 0C48     		ldr	r0, .L586+16
 5622 006e FFF7FEFF 		bl	osal_printf
 5623              	.LVL709:
 5624 0072 F5E7     		b	.L574
 5625              	.LVL710:
 5626              	.L581:
 607:../switch_sdk/core/yt/yt_l2.c ****     CMM_PARAM_CHK((NULL == pEnable), CMM_ERR_NULL_POINT);
 5627              		.loc 1 607 5 discriminator 3 view .LVU1589
 5628              	.LBE113:
 608:../switch_sdk/core/yt/yt_l2.c **** 
 5629              		.loc 1 608 5 is_stmt 1 discriminator 1 view .LVU1590
 608:../switch_sdk/core/yt/yt_l2.c **** 
 5630              		.loc 1 608 5 discriminator 1 view .LVU1591
 5631 0074 074B     		ldr	r3, .L586+4
 5632 0076 1B78     		ldrb	r3, [r3]	@ zero_extendqisi2
 5633 0078 012B     		cmp	r3, #1
 5634 007a 01D8     		bhi	.L585
 5635              	.LVL711:
 5636              	.L576:
 608:../switch_sdk/core/yt/yt_l2.c **** 
 5637              		.loc 1 608 5 discriminator 5 view .LVU1592
 608:../switch_sdk/core/yt/yt_l2.c **** 
 5638              		.loc 1 608 5 discriminator 5 view .LVU1593
 608:../switch_sdk/core/yt/yt_l2.c **** 
 5639              		.loc 1 608 5 discriminator 5 view .LVU1594
 5640 007c 0220     		movs	r0, #2
 5641 007e CEE7     		b	.L567
 5642              	.LVL712:
 5643              	.L585:
 608:../switch_sdk/core/yt/yt_l2.c **** 
 5644              		.loc 1 608 5 discriminator 3 view .LVU1595
 5645              	.LBB114:
 608:../switch_sdk/core/yt/yt_l2.c **** 
 5646              		.loc 1 608 5 discriminator 3 view .LVU1596
 5647 0080 054B     		ldr	r3, .L586+8
 5648 0082 9A68     		ldr	r2, [r3, #8]
 5649 0084 054B     		ldr	r3, .L586+12
 5650 0086 9968     		ldr	r1, [r3, #8]
 5651              	.LVL713:
 608:../switch_sdk/core/yt/yt_l2.c **** 
 5652              		.loc 1 608 5 is_stmt 0 discriminator 3 view .LVU1597
 5653 0088 0548     		ldr	r0, .L586+16
 5654 008a FFF7FEFF 		bl	osal_printf
 5655              	.LVL714:
 5656 008e F5E7     		b	.L576
 5657              	.L587:
 5658              		.align	2
 5659              	.L586:
 5660 0090 00000000 		.word	gpfal_dispatch
 5661 0094 00000000 		.word	yt_debug_level
 5662 0098 00000000 		.word	_yt_errmsg
 5663 009c 00000000 		.word	_yt_prompt_msg
 5664 00a0 00000000 		.word	.LC0
 5665              	.LBE114:
 5666              		.cfi_endproc
 5667              	.LFE29:
 5669              		.section	.text.yt_l2_fdb_drop_sa_set,"ax",%progbits
 5670              		.align	1
 5671              		.global	yt_l2_fdb_drop_sa_set
 5672              		.syntax unified
 5673              		.thumb
 5674              		.thumb_func
 5676              	yt_l2_fdb_drop_sa_set:
 5677              	.LVL715:
 5678              	.LFB30:
 612:../switch_sdk/core/yt/yt_l2.c **** 
 613:../switch_sdk/core/yt/yt_l2.c **** /**
 614:../switch_sdk/core/yt/yt_l2.c ****  * @internal      yt_l2_fdb_drop_sa_set
 615:../switch_sdk/core/yt/yt_l2.c ****  * @endinternal
 616:../switch_sdk/core/yt/yt_l2.c ****  *
 617:../switch_sdk/core/yt/yt_l2.c ****  * @brief         Description
 618:../switch_sdk/core/yt/yt_l2.c ****  * @note          APPLICABLE DEVICES  -Tiger
 619:../switch_sdk/core/yt/yt_l2.c ****  * @param[in]     unit                -unit id
 620:../switch_sdk/core/yt/yt_l2.c ****  * @param[in]     vid                 -vlan id
 621:../switch_sdk/core/yt/yt_l2.c ****  * @param[in]     mac_addr            -yt_types.h
 622:../switch_sdk/core/yt/yt_l2.c ****  * @param[in]     enable              -enable or disable
 623:../switch_sdk/core/yt/yt_l2.c ****  * @retval        CMM_ERR_OK          -on success
 624:../switch_sdk/core/yt/yt_l2.c ****  * @retval        CMM_ERR_FAIL        -on fail
 625:../switch_sdk/core/yt/yt_l2.c ****  */
 626:../switch_sdk/core/yt/yt_l2.c **** yt_ret_t  yt_l2_fdb_drop_sa_set(yt_unit_t unit, yt_vlan_t vid, yt_mac_addr_t mac_addr, yt_enable_t 
 627:../switch_sdk/core/yt/yt_l2.c **** {
 5679              		.loc 1 627 1 is_stmt 1 view -0
 5680              		.cfi_startproc
 5681              		@ args = 4, pretend = 0, frame = 8
 5682              		@ frame_needed = 0, uses_anonymous_args = 0
 5683              		.loc 1 627 1 is_stmt 0 view .LVU1599
 5684 0000 10B5     		push	{r4, lr}
 5685              		.cfi_def_cfa_offset 8
 5686              		.cfi_offset 4, -8
 5687              		.cfi_offset 14, -4
 5688 0002 84B0     		sub	sp, sp, #16
 5689              		.cfi_def_cfa_offset 24
 5690 0004 04AC     		add	r4, sp, #16
 5691 0006 04E90C00 		stmdb	r4, {r2, r3}
 5692 000a 9DF81820 		ldrb	r2, [sp, #24]	@ zero_extendqisi2
 628:../switch_sdk/core/yt/yt_l2.c ****     CMM_PARAM_CHK((YT_UNIT_NUM <= unit), CMM_ERR_INPUT);
 5693              		.loc 1 628 5 is_stmt 1 view .LVU1600
 5694              		.loc 1 628 5 view .LVU1601
 5695 000e A8B9     		cbnz	r0, .L601
 5696 0010 8446     		mov	ip, r0
 5697              		.loc 1 628 5 discriminator 2 view .LVU1602
 629:../switch_sdk/core/yt/yt_l2.c ****     CMM_PARAM_CHK(NULL == YT_DISPATCH(unit), CMM_ERR_NOT_INIT);
 5698              		.loc 1 629 5 discriminator 2 view .LVU1603
 5699              		.loc 1 629 5 discriminator 2 view .LVU1604
 5700 0012 2D4B     		ldr	r3, .L611
 5701 0014 53F82030 		ldr	r3, [r3, r0, lsl #2]
 5702 0018 F3B1     		cbz	r3, .L602
 5703              		.loc 1 629 5 discriminator 2 view .LVU1605
 630:../switch_sdk/core/yt/yt_l2.c ****     CMM_PARAM_CHK((!(YT_DISPATCH(unit)->is_inited)), CMM_ERR_NOT_INIT);
 5704              		.loc 1 630 5 discriminator 2 view .LVU1606
 5705              		.loc 1 630 5 discriminator 2 view .LVU1607
 5706 001a 1878     		ldrb	r0, [r3]	@ zero_extendqisi2
 5707              	.LVL716:
 5708              		.loc 1 630 5 is_stmt 0 discriminator 2 view .LVU1608
 5709 001c 50B3     		cbz	r0, .L603
 5710              		.loc 1 630 5 is_stmt 1 discriminator 2 view .LVU1609
 631:../switch_sdk/core/yt/yt_l2.c ****     CMM_PARAM_CHK((YT_VLAN_ID_MAX < vid), CMM_ERR_EXCEED_RANGE);
 5711              		.loc 1 631 5 discriminator 2 view .LVU1610
 5712              		.loc 1 631 5 discriminator 2 view .LVU1611
 5713 001e B1F5805F 		cmp	r1, #4096
 5714 0022 35D2     		bcs	.L604
 5715              		.loc 1 631 5 discriminator 2 view .LVU1612
 632:../switch_sdk/core/yt/yt_l2.c ****     CMM_PARAM_CHK((YT_ENABLE < enable || YT_DISABLE > enable), CMM_ERR_INPUT);
 5716              		.loc 1 632 5 discriminator 2 view .LVU1613
 5717              		.loc 1 632 5 discriminator 2 view .LVU1614
 5718 0024 012A     		cmp	r2, #1
 5719 0026 41D8     		bhi	.L605
 5720              		.loc 1 632 5 discriminator 2 view .LVU1615
 633:../switch_sdk/core/yt/yt_l2.c **** 
 634:../switch_sdk/core/yt/yt_l2.c ****     return YT_DISPATCH(unit)->l2_fdb_drop_sa_set(unit, vid, mac_addr, enable);
 5721              		.loc 1 634 5 discriminator 2 view .LVU1616
 5722              		.loc 1 634 29 is_stmt 0 discriminator 2 view .LVU1617
 5723 0028 D3F8C443 		ldr	r4, [r3, #964]
 5724              		.loc 1 634 12 discriminator 2 view .LVU1618
 5725 002c 0092     		str	r2, [sp]
 5726 002e 04AB     		add	r3, sp, #16
 5727 0030 13E90C00 		ldmdb	r3, {r2, r3}
 5728 0034 6046     		mov	r0, ip
 5729 0036 A047     		blx	r4
 5730              	.LVL717:
 5731              	.L588:
 635:../switch_sdk/core/yt/yt_l2.c **** }
 5732              		.loc 1 635 1 view .LVU1619
 5733 0038 04B0     		add	sp, sp, #16
 5734              		.cfi_remember_state
 5735              		.cfi_def_cfa_offset 8
 5736              		@ sp needed
 5737 003a 10BD     		pop	{r4, pc}
 5738              	.LVL718:
 5739              	.L601:
 5740              		.cfi_restore_state
 628:../switch_sdk/core/yt/yt_l2.c ****     CMM_PARAM_CHK(NULL == YT_DISPATCH(unit), CMM_ERR_NOT_INIT);
 5741              		.loc 1 628 5 is_stmt 1 discriminator 1 view .LVU1620
 628:../switch_sdk/core/yt/yt_l2.c ****     CMM_PARAM_CHK(NULL == YT_DISPATCH(unit), CMM_ERR_NOT_INIT);
 5742              		.loc 1 628 5 discriminator 1 view .LVU1621
 5743 003c 234B     		ldr	r3, .L611+4
 5744 003e 1B78     		ldrb	r3, [r3]	@ zero_extendqisi2
 5745 0040 012B     		cmp	r3, #1
 5746 0042 01D8     		bhi	.L606
 5747              	.LVL719:
 5748              	.L590:
 628:../switch_sdk/core/yt/yt_l2.c ****     CMM_PARAM_CHK(NULL == YT_DISPATCH(unit), CMM_ERR_NOT_INIT);
 5749              		.loc 1 628 5 discriminator 5 view .LVU1622
 628:../switch_sdk/core/yt/yt_l2.c ****     CMM_PARAM_CHK(NULL == YT_DISPATCH(unit), CMM_ERR_NOT_INIT);
 5750              		.loc 1 628 5 discriminator 5 view .LVU1623
 628:../switch_sdk/core/yt/yt_l2.c ****     CMM_PARAM_CHK(NULL == YT_DISPATCH(unit), CMM_ERR_NOT_INIT);
 5751              		.loc 1 628 5 discriminator 5 view .LVU1624
 5752 0044 0520     		movs	r0, #5
 5753 0046 F7E7     		b	.L588
 5754              	.LVL720:
 5755              	.L606:
 628:../switch_sdk/core/yt/yt_l2.c ****     CMM_PARAM_CHK(NULL == YT_DISPATCH(unit), CMM_ERR_NOT_INIT);
 5756              		.loc 1 628 5 discriminator 3 view .LVU1625
 5757              	.LBB115:
 628:../switch_sdk/core/yt/yt_l2.c ****     CMM_PARAM_CHK(NULL == YT_DISPATCH(unit), CMM_ERR_NOT_INIT);
 5758              		.loc 1 628 5 discriminator 3 view .LVU1626
 5759 0048 214B     		ldr	r3, .L611+8
 5760 004a 5A69     		ldr	r2, [r3, #20]
 5761 004c 214B     		ldr	r3, .L611+12
 5762 004e 9968     		ldr	r1, [r3, #8]
 5763              	.LVL721:
 628:../switch_sdk/core/yt/yt_l2.c ****     CMM_PARAM_CHK(NULL == YT_DISPATCH(unit), CMM_ERR_NOT_INIT);
 5764              		.loc 1 628 5 is_stmt 0 discriminator 3 view .LVU1627
 5765 0050 2148     		ldr	r0, .L611+16
 5766              	.LVL722:
 628:../switch_sdk/core/yt/yt_l2.c ****     CMM_PARAM_CHK(NULL == YT_DISPATCH(unit), CMM_ERR_NOT_INIT);
 5767              		.loc 1 628 5 discriminator 3 view .LVU1628
 5768 0052 FFF7FEFF 		bl	osal_printf
 5769              	.LVL723:
 5770 0056 F5E7     		b	.L590
 5771              	.LVL724:
 5772              	.L602:
 628:../switch_sdk/core/yt/yt_l2.c ****     CMM_PARAM_CHK(NULL == YT_DISPATCH(unit), CMM_ERR_NOT_INIT);
 5773              		.loc 1 628 5 discriminator 3 view .LVU1629
 5774              	.LBE115:
 629:../switch_sdk/core/yt/yt_l2.c ****     CMM_PARAM_CHK((!(YT_DISPATCH(unit)->is_inited)), CMM_ERR_NOT_INIT);
 5775              		.loc 1 629 5 is_stmt 1 discriminator 1 view .LVU1630
 629:../switch_sdk/core/yt/yt_l2.c ****     CMM_PARAM_CHK((!(YT_DISPATCH(unit)->is_inited)), CMM_ERR_NOT_INIT);
 5776              		.loc 1 629 5 discriminator 1 view .LVU1631
 5777 0058 1C4B     		ldr	r3, .L611+4
 5778 005a 1B78     		ldrb	r3, [r3]	@ zero_extendqisi2
 5779 005c 012B     		cmp	r3, #1
 5780 005e 01D8     		bhi	.L607
 5781              	.LVL725:
 5782              	.L593:
 629:../switch_sdk/core/yt/yt_l2.c ****     CMM_PARAM_CHK((!(YT_DISPATCH(unit)->is_inited)), CMM_ERR_NOT_INIT);
 5783              		.loc 1 629 5 discriminator 5 view .LVU1632
 629:../switch_sdk/core/yt/yt_l2.c ****     CMM_PARAM_CHK((!(YT_DISPATCH(unit)->is_inited)), CMM_ERR_NOT_INIT);
 5784              		.loc 1 629 5 discriminator 5 view .LVU1633
 629:../switch_sdk/core/yt/yt_l2.c ****     CMM_PARAM_CHK((!(YT_DISPATCH(unit)->is_inited)), CMM_ERR_NOT_INIT);
 5785              		.loc 1 629 5 discriminator 5 view .LVU1634
 5786 0060 0420     		movs	r0, #4
 5787 0062 E9E7     		b	.L588
 5788              	.LVL726:
 5789              	.L607:
 629:../switch_sdk/core/yt/yt_l2.c ****     CMM_PARAM_CHK((!(YT_DISPATCH(unit)->is_inited)), CMM_ERR_NOT_INIT);
 5790              		.loc 1 629 5 discriminator 3 view .LVU1635
 5791              	.LBB116:
 629:../switch_sdk/core/yt/yt_l2.c ****     CMM_PARAM_CHK((!(YT_DISPATCH(unit)->is_inited)), CMM_ERR_NOT_INIT);
 5792              		.loc 1 629 5 discriminator 3 view .LVU1636
 5793 0064 1A4B     		ldr	r3, .L611+8
 5794 0066 1A69     		ldr	r2, [r3, #16]
 5795 0068 1A4B     		ldr	r3, .L611+12
 5796 006a 9968     		ldr	r1, [r3, #8]
 5797              	.LVL727:
 629:../switch_sdk/core/yt/yt_l2.c ****     CMM_PARAM_CHK((!(YT_DISPATCH(unit)->is_inited)), CMM_ERR_NOT_INIT);
 5798              		.loc 1 629 5 is_stmt 0 discriminator 3 view .LVU1637
 5799 006c 1A48     		ldr	r0, .L611+16
 5800              	.LVL728:
 629:../switch_sdk/core/yt/yt_l2.c ****     CMM_PARAM_CHK((!(YT_DISPATCH(unit)->is_inited)), CMM_ERR_NOT_INIT);
 5801              		.loc 1 629 5 discriminator 3 view .LVU1638
 5802 006e FFF7FEFF 		bl	osal_printf
 5803              	.LVL729:
 5804 0072 F5E7     		b	.L593
 5805              	.LVL730:
 5806              	.L603:
 629:../switch_sdk/core/yt/yt_l2.c ****     CMM_PARAM_CHK((!(YT_DISPATCH(unit)->is_inited)), CMM_ERR_NOT_INIT);
 5807              		.loc 1 629 5 discriminator 3 view .LVU1639
 5808              	.LBE116:
 630:../switch_sdk/core/yt/yt_l2.c ****     CMM_PARAM_CHK((YT_VLAN_ID_MAX < vid), CMM_ERR_EXCEED_RANGE);
 5809              		.loc 1 630 5 is_stmt 1 discriminator 1 view .LVU1640
 630:../switch_sdk/core/yt/yt_l2.c ****     CMM_PARAM_CHK((YT_VLAN_ID_MAX < vid), CMM_ERR_EXCEED_RANGE);
 5810              		.loc 1 630 5 discriminator 1 view .LVU1641
 5811 0074 154B     		ldr	r3, .L611+4
 5812 0076 1B78     		ldrb	r3, [r3]	@ zero_extendqisi2
 5813 0078 012B     		cmp	r3, #1
 5814 007a 01D8     		bhi	.L608
 5815              	.LVL731:
 5816              	.L595:
 630:../switch_sdk/core/yt/yt_l2.c ****     CMM_PARAM_CHK((YT_VLAN_ID_MAX < vid), CMM_ERR_EXCEED_RANGE);
 5817              		.loc 1 630 5 discriminator 5 view .LVU1642
 630:../switch_sdk/core/yt/yt_l2.c ****     CMM_PARAM_CHK((YT_VLAN_ID_MAX < vid), CMM_ERR_EXCEED_RANGE);
 5818              		.loc 1 630 5 discriminator 5 view .LVU1643
 630:../switch_sdk/core/yt/yt_l2.c ****     CMM_PARAM_CHK((YT_VLAN_ID_MAX < vid), CMM_ERR_EXCEED_RANGE);
 5819              		.loc 1 630 5 discriminator 5 view .LVU1644
 5820 007c 0420     		movs	r0, #4
 5821 007e DBE7     		b	.L588
 5822              	.LVL732:
 5823              	.L608:
 630:../switch_sdk/core/yt/yt_l2.c ****     CMM_PARAM_CHK((YT_VLAN_ID_MAX < vid), CMM_ERR_EXCEED_RANGE);
 5824              		.loc 1 630 5 discriminator 3 view .LVU1645
 5825              	.LBB117:
 630:../switch_sdk/core/yt/yt_l2.c ****     CMM_PARAM_CHK((YT_VLAN_ID_MAX < vid), CMM_ERR_EXCEED_RANGE);
 5826              		.loc 1 630 5 discriminator 3 view .LVU1646
 5827 0080 134B     		ldr	r3, .L611+8
 5828 0082 1A69     		ldr	r2, [r3, #16]
 5829 0084 134B     		ldr	r3, .L611+12
 5830 0086 9968     		ldr	r1, [r3, #8]
 5831              	.LVL733:
 630:../switch_sdk/core/yt/yt_l2.c ****     CMM_PARAM_CHK((YT_VLAN_ID_MAX < vid), CMM_ERR_EXCEED_RANGE);
 5832              		.loc 1 630 5 is_stmt 0 discriminator 3 view .LVU1647
 5833 0088 1348     		ldr	r0, .L611+16
 5834 008a FFF7FEFF 		bl	osal_printf
 5835              	.LVL734:
 5836 008e F5E7     		b	.L595
 5837              	.LVL735:
 5838              	.L604:
 630:../switch_sdk/core/yt/yt_l2.c ****     CMM_PARAM_CHK((YT_VLAN_ID_MAX < vid), CMM_ERR_EXCEED_RANGE);
 5839              		.loc 1 630 5 discriminator 3 view .LVU1648
 5840              	.LBE117:
 631:../switch_sdk/core/yt/yt_l2.c ****     CMM_PARAM_CHK((YT_ENABLE < enable || YT_DISABLE > enable), CMM_ERR_INPUT);
 5841              		.loc 1 631 5 is_stmt 1 discriminator 1 view .LVU1649
 631:../switch_sdk/core/yt/yt_l2.c ****     CMM_PARAM_CHK((YT_ENABLE < enable || YT_DISABLE > enable), CMM_ERR_INPUT);
 5842              		.loc 1 631 5 discriminator 1 view .LVU1650
 5843 0090 0E4B     		ldr	r3, .L611+4
 5844 0092 1B78     		ldrb	r3, [r3]	@ zero_extendqisi2
 5845 0094 012B     		cmp	r3, #1
 5846 0096 01D8     		bhi	.L609
 5847              	.LVL736:
 5848              	.L597:
 631:../switch_sdk/core/yt/yt_l2.c ****     CMM_PARAM_CHK((YT_ENABLE < enable || YT_DISABLE > enable), CMM_ERR_INPUT);
 5849              		.loc 1 631 5 discriminator 5 view .LVU1651
 631:../switch_sdk/core/yt/yt_l2.c ****     CMM_PARAM_CHK((YT_ENABLE < enable || YT_DISABLE > enable), CMM_ERR_INPUT);
 5850              		.loc 1 631 5 discriminator 5 view .LVU1652
 631:../switch_sdk/core/yt/yt_l2.c ****     CMM_PARAM_CHK((YT_ENABLE < enable || YT_DISABLE > enable), CMM_ERR_INPUT);
 5851              		.loc 1 631 5 discriminator 5 view .LVU1653
 5852 0098 1120     		movs	r0, #17
 5853 009a CDE7     		b	.L588
 5854              	.LVL737:
 5855              	.L609:
 631:../switch_sdk/core/yt/yt_l2.c ****     CMM_PARAM_CHK((YT_ENABLE < enable || YT_DISABLE > enable), CMM_ERR_INPUT);
 5856              		.loc 1 631 5 discriminator 3 view .LVU1654
 5857              	.LBB118:
 631:../switch_sdk/core/yt/yt_l2.c ****     CMM_PARAM_CHK((YT_ENABLE < enable || YT_DISABLE > enable), CMM_ERR_INPUT);
 5858              		.loc 1 631 5 discriminator 3 view .LVU1655
 5859 009c 0C4B     		ldr	r3, .L611+8
 5860 009e 5A6C     		ldr	r2, [r3, #68]
 5861 00a0 0C4B     		ldr	r3, .L611+12
 5862 00a2 9968     		ldr	r1, [r3, #8]
 5863              	.LVL738:
 631:../switch_sdk/core/yt/yt_l2.c ****     CMM_PARAM_CHK((YT_ENABLE < enable || YT_DISABLE > enable), CMM_ERR_INPUT);
 5864              		.loc 1 631 5 is_stmt 0 discriminator 3 view .LVU1656
 5865 00a4 0C48     		ldr	r0, .L611+16
 5866 00a6 FFF7FEFF 		bl	osal_printf
 5867              	.LVL739:
 5868 00aa F5E7     		b	.L597
 5869              	.LVL740:
 5870              	.L605:
 631:../switch_sdk/core/yt/yt_l2.c ****     CMM_PARAM_CHK((YT_ENABLE < enable || YT_DISABLE > enable), CMM_ERR_INPUT);
 5871              		.loc 1 631 5 discriminator 3 view .LVU1657
 5872              	.LBE118:
 632:../switch_sdk/core/yt/yt_l2.c **** 
 5873              		.loc 1 632 5 is_stmt 1 discriminator 1 view .LVU1658
 632:../switch_sdk/core/yt/yt_l2.c **** 
 5874              		.loc 1 632 5 discriminator 1 view .LVU1659
 5875 00ac 074B     		ldr	r3, .L611+4
 5876 00ae 1B78     		ldrb	r3, [r3]	@ zero_extendqisi2
 5877 00b0 012B     		cmp	r3, #1
 5878 00b2 01D8     		bhi	.L610
 5879              	.LVL741:
 5880              	.L599:
 632:../switch_sdk/core/yt/yt_l2.c **** 
 5881              		.loc 1 632 5 discriminator 5 view .LVU1660
 632:../switch_sdk/core/yt/yt_l2.c **** 
 5882              		.loc 1 632 5 discriminator 5 view .LVU1661
 632:../switch_sdk/core/yt/yt_l2.c **** 
 5883              		.loc 1 632 5 discriminator 5 view .LVU1662
 5884 00b4 0520     		movs	r0, #5
 5885 00b6 BFE7     		b	.L588
 5886              	.LVL742:
 5887              	.L610:
 632:../switch_sdk/core/yt/yt_l2.c **** 
 5888              		.loc 1 632 5 discriminator 3 view .LVU1663
 5889              	.LBB119:
 632:../switch_sdk/core/yt/yt_l2.c **** 
 5890              		.loc 1 632 5 discriminator 3 view .LVU1664
 5891 00b8 054B     		ldr	r3, .L611+8
 5892 00ba 5A69     		ldr	r2, [r3, #20]
 5893 00bc 054B     		ldr	r3, .L611+12
 5894 00be 9968     		ldr	r1, [r3, #8]
 5895              	.LVL743:
 632:../switch_sdk/core/yt/yt_l2.c **** 
 5896              		.loc 1 632 5 is_stmt 0 discriminator 3 view .LVU1665
 5897 00c0 0548     		ldr	r0, .L611+16
 5898 00c2 FFF7FEFF 		bl	osal_printf
 5899              	.LVL744:
 5900 00c6 F5E7     		b	.L599
 5901              	.L612:
 5902              		.align	2
 5903              	.L611:
 5904 00c8 00000000 		.word	gpfal_dispatch
 5905 00cc 00000000 		.word	yt_debug_level
 5906 00d0 00000000 		.word	_yt_errmsg
 5907 00d4 00000000 		.word	_yt_prompt_msg
 5908 00d8 00000000 		.word	.LC0
 5909              	.LBE119:
 5910              		.cfi_endproc
 5911              	.LFE30:
 5913              		.section	.text.yt_l2_fdb_drop_sa_get,"ax",%progbits
 5914              		.align	1
 5915              		.global	yt_l2_fdb_drop_sa_get
 5916              		.syntax unified
 5917              		.thumb
 5918              		.thumb_func
 5920              	yt_l2_fdb_drop_sa_get:
 5921              	.LVL745:
 5922              	.LFB31:
 636:../switch_sdk/core/yt/yt_l2.c **** 
 637:../switch_sdk/core/yt/yt_l2.c **** /**
 638:../switch_sdk/core/yt/yt_l2.c ****  * @internal      yt_l2_fdb_drop_sa_get
 639:../switch_sdk/core/yt/yt_l2.c ****  * @endinternal
 640:../switch_sdk/core/yt/yt_l2.c ****  *
 641:../switch_sdk/core/yt/yt_l2.c ****  * @brief         Description
 642:../switch_sdk/core/yt/yt_l2.c ****  * @note          APPLICABLE DEVICES  -Tiger
 643:../switch_sdk/core/yt/yt_l2.c ****  * @param[in]     unit                -unit id
 644:../switch_sdk/core/yt/yt_l2.c ****  * @param[in]     vid                 -vlan id
 645:../switch_sdk/core/yt/yt_l2.c ****  * @param[in]     mac_addr            -yt_types.h
 646:../switch_sdk/core/yt/yt_l2.c ****  * @param[in]     pEnable             -enable or disable
 647:../switch_sdk/core/yt/yt_l2.c ****  * @retval        CMM_ERR_OK          -on success
 648:../switch_sdk/core/yt/yt_l2.c ****  * @retval        CMM_ERR_FAIL        -on fail
 649:../switch_sdk/core/yt/yt_l2.c ****  */
 650:../switch_sdk/core/yt/yt_l2.c **** yt_ret_t  yt_l2_fdb_drop_sa_get(yt_unit_t unit, yt_vlan_t vid, yt_mac_addr_t mac_addr,  yt_enable_t
 651:../switch_sdk/core/yt/yt_l2.c **** {
 5923              		.loc 1 651 1 is_stmt 1 view -0
 5924              		.cfi_startproc
 5925              		@ args = 4, pretend = 0, frame = 8
 5926              		@ frame_needed = 0, uses_anonymous_args = 0
 5927              		.loc 1 651 1 is_stmt 0 view .LVU1667
 5928 0000 10B5     		push	{r4, lr}
 5929              		.cfi_def_cfa_offset 8
 5930              		.cfi_offset 4, -8
 5931              		.cfi_offset 14, -4
 5932 0002 84B0     		sub	sp, sp, #16
 5933              		.cfi_def_cfa_offset 24
 5934 0004 04AC     		add	r4, sp, #16
 5935 0006 04E90C00 		stmdb	r4, {r2, r3}
 652:../switch_sdk/core/yt/yt_l2.c ****     CMM_PARAM_CHK((YT_UNIT_NUM <= unit), CMM_ERR_INPUT);
 5936              		.loc 1 652 5 is_stmt 1 view .LVU1668
 5937              		.loc 1 652 5 view .LVU1669
 5938 000a B0B9     		cbnz	r0, .L626
 5939              		.loc 1 652 5 discriminator 2 view .LVU1670
 653:../switch_sdk/core/yt/yt_l2.c ****     CMM_PARAM_CHK(NULL == YT_DISPATCH(unit), CMM_ERR_NOT_INIT);
 5940              		.loc 1 653 5 discriminator 2 view .LVU1671
 5941              		.loc 1 653 5 discriminator 2 view .LVU1672
 5942 000c 2E4B     		ldr	r3, .L636
 5943 000e 53F82030 		ldr	r3, [r3, r0, lsl #2]
 5944 0012 03B3     		cbz	r3, .L627
 5945              		.loc 1 653 5 discriminator 2 view .LVU1673
 654:../switch_sdk/core/yt/yt_l2.c ****     CMM_PARAM_CHK((!(YT_DISPATCH(unit)->is_inited)), CMM_ERR_NOT_INIT);
 5946              		.loc 1 654 5 discriminator 2 view .LVU1674
 5947              		.loc 1 654 5 discriminator 2 view .LVU1675
 5948 0014 1A78     		ldrb	r2, [r3]	@ zero_extendqisi2
 5949 0016 002A     		cmp	r2, #0
 5950 0018 2BD0     		beq	.L628
 5951              		.loc 1 654 5 discriminator 2 view .LVU1676
 655:../switch_sdk/core/yt/yt_l2.c ****     CMM_PARAM_CHK((YT_VLAN_ID_MAX < vid), CMM_ERR_EXCEED_RANGE);
 5952              		.loc 1 655 5 discriminator 2 view .LVU1677
 5953              		.loc 1 655 5 discriminator 2 view .LVU1678
 5954 001a B1F5805F 		cmp	r1, #4096
 5955 001e 36D2     		bcs	.L629
 5956              		.loc 1 655 5 discriminator 2 view .LVU1679
 656:../switch_sdk/core/yt/yt_l2.c ****     CMM_PARAM_CHK((NULL == pEnable), CMM_ERR_NULL_POINT);
 5957              		.loc 1 656 5 discriminator 2 view .LVU1680
 5958              		.loc 1 656 5 discriminator 2 view .LVU1681
 5959 0020 069A     		ldr	r2, [sp, #24]
 5960 0022 002A     		cmp	r2, #0
 5961 0024 41D0     		beq	.L630
 5962              		.loc 1 656 5 discriminator 2 view .LVU1682
 657:../switch_sdk/core/yt/yt_l2.c **** 
 658:../switch_sdk/core/yt/yt_l2.c ****     return YT_DISPATCH(unit)->l2_fdb_drop_sa_get(unit, vid, mac_addr, pEnable);
 5963              		.loc 1 658 5 discriminator 2 view .LVU1683
 5964              		.loc 1 658 29 is_stmt 0 discriminator 2 view .LVU1684
 5965 0026 D3F8C843 		ldr	r4, [r3, #968]
 5966              		.loc 1 658 12 discriminator 2 view .LVU1685
 5967 002a 069B     		ldr	r3, [sp, #24]
 5968 002c 0093     		str	r3, [sp]
 5969 002e 04AB     		add	r3, sp, #16
 5970 0030 13E90C00 		ldmdb	r3, {r2, r3}
 5971 0034 A047     		blx	r4
 5972              	.LVL746:
 5973              	.L613:
 659:../switch_sdk/core/yt/yt_l2.c **** }
 5974              		.loc 1 659 1 view .LVU1686
 5975 0036 04B0     		add	sp, sp, #16
 5976              		.cfi_remember_state
 5977              		.cfi_def_cfa_offset 8
 5978              		@ sp needed
 5979 0038 10BD     		pop	{r4, pc}
 5980              	.LVL747:
 5981              	.L626:
 5982              		.cfi_restore_state
 652:../switch_sdk/core/yt/yt_l2.c ****     CMM_PARAM_CHK(NULL == YT_DISPATCH(unit), CMM_ERR_NOT_INIT);
 5983              		.loc 1 652 5 is_stmt 1 discriminator 1 view .LVU1687
 652:../switch_sdk/core/yt/yt_l2.c ****     CMM_PARAM_CHK(NULL == YT_DISPATCH(unit), CMM_ERR_NOT_INIT);
 5984              		.loc 1 652 5 discriminator 1 view .LVU1688
 5985 003a 244B     		ldr	r3, .L636+4
 5986 003c 1B78     		ldrb	r3, [r3]	@ zero_extendqisi2
 5987 003e 012B     		cmp	r3, #1
 5988 0040 01D8     		bhi	.L631
 5989              	.LVL748:
 5990              	.L615:
 652:../switch_sdk/core/yt/yt_l2.c ****     CMM_PARAM_CHK(NULL == YT_DISPATCH(unit), CMM_ERR_NOT_INIT);
 5991              		.loc 1 652 5 discriminator 5 view .LVU1689
 652:../switch_sdk/core/yt/yt_l2.c ****     CMM_PARAM_CHK(NULL == YT_DISPATCH(unit), CMM_ERR_NOT_INIT);
 5992              		.loc 1 652 5 discriminator 5 view .LVU1690
 652:../switch_sdk/core/yt/yt_l2.c ****     CMM_PARAM_CHK(NULL == YT_DISPATCH(unit), CMM_ERR_NOT_INIT);
 5993              		.loc 1 652 5 discriminator 5 view .LVU1691
 5994 0042 0520     		movs	r0, #5
 5995 0044 F7E7     		b	.L613
 5996              	.LVL749:
 5997              	.L631:
 652:../switch_sdk/core/yt/yt_l2.c ****     CMM_PARAM_CHK(NULL == YT_DISPATCH(unit), CMM_ERR_NOT_INIT);
 5998              		.loc 1 652 5 discriminator 3 view .LVU1692
 5999              	.LBB120:
 652:../switch_sdk/core/yt/yt_l2.c ****     CMM_PARAM_CHK(NULL == YT_DISPATCH(unit), CMM_ERR_NOT_INIT);
 6000              		.loc 1 652 5 discriminator 3 view .LVU1693
 6001 0046 224B     		ldr	r3, .L636+8
 6002 0048 5A69     		ldr	r2, [r3, #20]
 6003 004a 224B     		ldr	r3, .L636+12
 6004 004c 9968     		ldr	r1, [r3, #8]
 6005              	.LVL750:
 652:../switch_sdk/core/yt/yt_l2.c ****     CMM_PARAM_CHK(NULL == YT_DISPATCH(unit), CMM_ERR_NOT_INIT);
 6006              		.loc 1 652 5 is_stmt 0 discriminator 3 view .LVU1694
 6007 004e 2248     		ldr	r0, .L636+16
 6008              	.LVL751:
 652:../switch_sdk/core/yt/yt_l2.c ****     CMM_PARAM_CHK(NULL == YT_DISPATCH(unit), CMM_ERR_NOT_INIT);
 6009              		.loc 1 652 5 discriminator 3 view .LVU1695
 6010 0050 FFF7FEFF 		bl	osal_printf
 6011              	.LVL752:
 6012 0054 F5E7     		b	.L615
 6013              	.LVL753:
 6014              	.L627:
 652:../switch_sdk/core/yt/yt_l2.c ****     CMM_PARAM_CHK(NULL == YT_DISPATCH(unit), CMM_ERR_NOT_INIT);
 6015              		.loc 1 652 5 discriminator 3 view .LVU1696
 6016              	.LBE120:
 653:../switch_sdk/core/yt/yt_l2.c ****     CMM_PARAM_CHK((!(YT_DISPATCH(unit)->is_inited)), CMM_ERR_NOT_INIT);
 6017              		.loc 1 653 5 is_stmt 1 discriminator 1 view .LVU1697
 653:../switch_sdk/core/yt/yt_l2.c ****     CMM_PARAM_CHK((!(YT_DISPATCH(unit)->is_inited)), CMM_ERR_NOT_INIT);
 6018              		.loc 1 653 5 discriminator 1 view .LVU1698
 6019 0056 1D4B     		ldr	r3, .L636+4
 6020 0058 1B78     		ldrb	r3, [r3]	@ zero_extendqisi2
 6021 005a 012B     		cmp	r3, #1
 6022 005c 01D8     		bhi	.L632
 6023              	.LVL754:
 6024              	.L618:
 653:../switch_sdk/core/yt/yt_l2.c ****     CMM_PARAM_CHK((!(YT_DISPATCH(unit)->is_inited)), CMM_ERR_NOT_INIT);
 6025              		.loc 1 653 5 discriminator 5 view .LVU1699
 653:../switch_sdk/core/yt/yt_l2.c ****     CMM_PARAM_CHK((!(YT_DISPATCH(unit)->is_inited)), CMM_ERR_NOT_INIT);
 6026              		.loc 1 653 5 discriminator 5 view .LVU1700
 653:../switch_sdk/core/yt/yt_l2.c ****     CMM_PARAM_CHK((!(YT_DISPATCH(unit)->is_inited)), CMM_ERR_NOT_INIT);
 6027              		.loc 1 653 5 discriminator 5 view .LVU1701
 6028 005e 0420     		movs	r0, #4
 6029 0060 E9E7     		b	.L613
 6030              	.LVL755:
 6031              	.L632:
 653:../switch_sdk/core/yt/yt_l2.c ****     CMM_PARAM_CHK((!(YT_DISPATCH(unit)->is_inited)), CMM_ERR_NOT_INIT);
 6032              		.loc 1 653 5 discriminator 3 view .LVU1702
 6033              	.LBB121:
 653:../switch_sdk/core/yt/yt_l2.c ****     CMM_PARAM_CHK((!(YT_DISPATCH(unit)->is_inited)), CMM_ERR_NOT_INIT);
 6034              		.loc 1 653 5 discriminator 3 view .LVU1703
 6035 0062 1B4B     		ldr	r3, .L636+8
 6036 0064 1A69     		ldr	r2, [r3, #16]
 6037 0066 1B4B     		ldr	r3, .L636+12
 6038 0068 9968     		ldr	r1, [r3, #8]
 6039              	.LVL756:
 653:../switch_sdk/core/yt/yt_l2.c ****     CMM_PARAM_CHK((!(YT_DISPATCH(unit)->is_inited)), CMM_ERR_NOT_INIT);
 6040              		.loc 1 653 5 is_stmt 0 discriminator 3 view .LVU1704
 6041 006a 1B48     		ldr	r0, .L636+16
 6042              	.LVL757:
 653:../switch_sdk/core/yt/yt_l2.c ****     CMM_PARAM_CHK((!(YT_DISPATCH(unit)->is_inited)), CMM_ERR_NOT_INIT);
 6043              		.loc 1 653 5 discriminator 3 view .LVU1705
 6044 006c FFF7FEFF 		bl	osal_printf
 6045              	.LVL758:
 6046 0070 F5E7     		b	.L618
 6047              	.LVL759:
 6048              	.L628:
 653:../switch_sdk/core/yt/yt_l2.c ****     CMM_PARAM_CHK((!(YT_DISPATCH(unit)->is_inited)), CMM_ERR_NOT_INIT);
 6049              		.loc 1 653 5 discriminator 3 view .LVU1706
 6050              	.LBE121:
 654:../switch_sdk/core/yt/yt_l2.c ****     CMM_PARAM_CHK((YT_VLAN_ID_MAX < vid), CMM_ERR_EXCEED_RANGE);
 6051              		.loc 1 654 5 is_stmt 1 discriminator 1 view .LVU1707
 654:../switch_sdk/core/yt/yt_l2.c ****     CMM_PARAM_CHK((YT_VLAN_ID_MAX < vid), CMM_ERR_EXCEED_RANGE);
 6052              		.loc 1 654 5 discriminator 1 view .LVU1708
 6053 0072 164B     		ldr	r3, .L636+4
 6054 0074 1B78     		ldrb	r3, [r3]	@ zero_extendqisi2
 6055 0076 012B     		cmp	r3, #1
 6056 0078 01D8     		bhi	.L633
 6057              	.LVL760:
 6058              	.L620:
 654:../switch_sdk/core/yt/yt_l2.c ****     CMM_PARAM_CHK((YT_VLAN_ID_MAX < vid), CMM_ERR_EXCEED_RANGE);
 6059              		.loc 1 654 5 discriminator 5 view .LVU1709
 654:../switch_sdk/core/yt/yt_l2.c ****     CMM_PARAM_CHK((YT_VLAN_ID_MAX < vid), CMM_ERR_EXCEED_RANGE);
 6060              		.loc 1 654 5 discriminator 5 view .LVU1710
 654:../switch_sdk/core/yt/yt_l2.c ****     CMM_PARAM_CHK((YT_VLAN_ID_MAX < vid), CMM_ERR_EXCEED_RANGE);
 6061              		.loc 1 654 5 discriminator 5 view .LVU1711
 6062 007a 0420     		movs	r0, #4
 6063 007c DBE7     		b	.L613
 6064              	.LVL761:
 6065              	.L633:
 654:../switch_sdk/core/yt/yt_l2.c ****     CMM_PARAM_CHK((YT_VLAN_ID_MAX < vid), CMM_ERR_EXCEED_RANGE);
 6066              		.loc 1 654 5 discriminator 3 view .LVU1712
 6067              	.LBB122:
 654:../switch_sdk/core/yt/yt_l2.c ****     CMM_PARAM_CHK((YT_VLAN_ID_MAX < vid), CMM_ERR_EXCEED_RANGE);
 6068              		.loc 1 654 5 discriminator 3 view .LVU1713
 6069 007e 144B     		ldr	r3, .L636+8
 6070 0080 1A69     		ldr	r2, [r3, #16]
 6071 0082 144B     		ldr	r3, .L636+12
 6072 0084 9968     		ldr	r1, [r3, #8]
 6073              	.LVL762:
 654:../switch_sdk/core/yt/yt_l2.c ****     CMM_PARAM_CHK((YT_VLAN_ID_MAX < vid), CMM_ERR_EXCEED_RANGE);
 6074              		.loc 1 654 5 is_stmt 0 discriminator 3 view .LVU1714
 6075 0086 1448     		ldr	r0, .L636+16
 6076              	.LVL763:
 654:../switch_sdk/core/yt/yt_l2.c ****     CMM_PARAM_CHK((YT_VLAN_ID_MAX < vid), CMM_ERR_EXCEED_RANGE);
 6077              		.loc 1 654 5 discriminator 3 view .LVU1715
 6078 0088 FFF7FEFF 		bl	osal_printf
 6079              	.LVL764:
 6080 008c F5E7     		b	.L620
 6081              	.LVL765:
 6082              	.L629:
 654:../switch_sdk/core/yt/yt_l2.c ****     CMM_PARAM_CHK((YT_VLAN_ID_MAX < vid), CMM_ERR_EXCEED_RANGE);
 6083              		.loc 1 654 5 discriminator 3 view .LVU1716
 6084              	.LBE122:
 655:../switch_sdk/core/yt/yt_l2.c ****     CMM_PARAM_CHK((NULL == pEnable), CMM_ERR_NULL_POINT);
 6085              		.loc 1 655 5 is_stmt 1 discriminator 1 view .LVU1717
 655:../switch_sdk/core/yt/yt_l2.c ****     CMM_PARAM_CHK((NULL == pEnable), CMM_ERR_NULL_POINT);
 6086              		.loc 1 655 5 discriminator 1 view .LVU1718
 6087 008e 0F4B     		ldr	r3, .L636+4
 6088 0090 1B78     		ldrb	r3, [r3]	@ zero_extendqisi2
 6089 0092 012B     		cmp	r3, #1
 6090 0094 01D8     		bhi	.L634
 6091              	.LVL766:
 6092              	.L622:
 655:../switch_sdk/core/yt/yt_l2.c ****     CMM_PARAM_CHK((NULL == pEnable), CMM_ERR_NULL_POINT);
 6093              		.loc 1 655 5 discriminator 5 view .LVU1719
 655:../switch_sdk/core/yt/yt_l2.c ****     CMM_PARAM_CHK((NULL == pEnable), CMM_ERR_NULL_POINT);
 6094              		.loc 1 655 5 discriminator 5 view .LVU1720
 655:../switch_sdk/core/yt/yt_l2.c ****     CMM_PARAM_CHK((NULL == pEnable), CMM_ERR_NULL_POINT);
 6095              		.loc 1 655 5 discriminator 5 view .LVU1721
 6096 0096 1120     		movs	r0, #17
 6097 0098 CDE7     		b	.L613
 6098              	.LVL767:
 6099              	.L634:
 655:../switch_sdk/core/yt/yt_l2.c ****     CMM_PARAM_CHK((NULL == pEnable), CMM_ERR_NULL_POINT);
 6100              		.loc 1 655 5 discriminator 3 view .LVU1722
 6101              	.LBB123:
 655:../switch_sdk/core/yt/yt_l2.c ****     CMM_PARAM_CHK((NULL == pEnable), CMM_ERR_NULL_POINT);
 6102              		.loc 1 655 5 discriminator 3 view .LVU1723
 6103 009a 0D4B     		ldr	r3, .L636+8
 6104 009c 5A6C     		ldr	r2, [r3, #68]
 6105 009e 0D4B     		ldr	r3, .L636+12
 6106 00a0 9968     		ldr	r1, [r3, #8]
 6107              	.LVL768:
 655:../switch_sdk/core/yt/yt_l2.c ****     CMM_PARAM_CHK((NULL == pEnable), CMM_ERR_NULL_POINT);
 6108              		.loc 1 655 5 is_stmt 0 discriminator 3 view .LVU1724
 6109 00a2 0D48     		ldr	r0, .L636+16
 6110              	.LVL769:
 655:../switch_sdk/core/yt/yt_l2.c ****     CMM_PARAM_CHK((NULL == pEnable), CMM_ERR_NULL_POINT);
 6111              		.loc 1 655 5 discriminator 3 view .LVU1725
 6112 00a4 FFF7FEFF 		bl	osal_printf
 6113              	.LVL770:
 6114 00a8 F5E7     		b	.L622
 6115              	.LVL771:
 6116              	.L630:
 655:../switch_sdk/core/yt/yt_l2.c ****     CMM_PARAM_CHK((NULL == pEnable), CMM_ERR_NULL_POINT);
 6117              		.loc 1 655 5 discriminator 3 view .LVU1726
 6118              	.LBE123:
 656:../switch_sdk/core/yt/yt_l2.c **** 
 6119              		.loc 1 656 5 is_stmt 1 discriminator 1 view .LVU1727
 656:../switch_sdk/core/yt/yt_l2.c **** 
 6120              		.loc 1 656 5 discriminator 1 view .LVU1728
 6121 00aa 084B     		ldr	r3, .L636+4
 6122 00ac 1B78     		ldrb	r3, [r3]	@ zero_extendqisi2
 6123 00ae 012B     		cmp	r3, #1
 6124 00b0 01D8     		bhi	.L635
 6125              	.LVL772:
 6126              	.L624:
 656:../switch_sdk/core/yt/yt_l2.c **** 
 6127              		.loc 1 656 5 discriminator 5 view .LVU1729
 656:../switch_sdk/core/yt/yt_l2.c **** 
 6128              		.loc 1 656 5 discriminator 5 view .LVU1730
 656:../switch_sdk/core/yt/yt_l2.c **** 
 6129              		.loc 1 656 5 discriminator 5 view .LVU1731
 6130 00b2 0220     		movs	r0, #2
 6131 00b4 BFE7     		b	.L613
 6132              	.LVL773:
 6133              	.L635:
 656:../switch_sdk/core/yt/yt_l2.c **** 
 6134              		.loc 1 656 5 discriminator 3 view .LVU1732
 6135              	.LBB124:
 656:../switch_sdk/core/yt/yt_l2.c **** 
 6136              		.loc 1 656 5 discriminator 3 view .LVU1733
 6137 00b6 064B     		ldr	r3, .L636+8
 6138 00b8 9A68     		ldr	r2, [r3, #8]
 6139 00ba 064B     		ldr	r3, .L636+12
 6140 00bc 9968     		ldr	r1, [r3, #8]
 6141              	.LVL774:
 656:../switch_sdk/core/yt/yt_l2.c **** 
 6142              		.loc 1 656 5 is_stmt 0 discriminator 3 view .LVU1734
 6143 00be 0648     		ldr	r0, .L636+16
 6144              	.LVL775:
 656:../switch_sdk/core/yt/yt_l2.c **** 
 6145              		.loc 1 656 5 discriminator 3 view .LVU1735
 6146 00c0 FFF7FEFF 		bl	osal_printf
 6147              	.LVL776:
 6148 00c4 F5E7     		b	.L624
 6149              	.L637:
 6150 00c6 00BF     		.align	2
 6151              	.L636:
 6152 00c8 00000000 		.word	gpfal_dispatch
 6153 00cc 00000000 		.word	yt_debug_level
 6154 00d0 00000000 		.word	_yt_errmsg
 6155 00d4 00000000 		.word	_yt_prompt_msg
 6156 00d8 00000000 		.word	.LC0
 6157              	.LBE124:
 6158              		.cfi_endproc
 6159              	.LFE31:
 6161              		.section	.text.yt_l2_fdb_drop_da_set,"ax",%progbits
 6162              		.align	1
 6163              		.global	yt_l2_fdb_drop_da_set
 6164              		.syntax unified
 6165              		.thumb
 6166              		.thumb_func
 6168              	yt_l2_fdb_drop_da_set:
 6169              	.LVL777:
 6170              	.LFB32:
 660:../switch_sdk/core/yt/yt_l2.c **** 
 661:../switch_sdk/core/yt/yt_l2.c **** /**
 662:../switch_sdk/core/yt/yt_l2.c ****  * @internal      yt_l2_fdb_drop_da_set
 663:../switch_sdk/core/yt/yt_l2.c ****  * @endinternal
 664:../switch_sdk/core/yt/yt_l2.c ****  *
 665:../switch_sdk/core/yt/yt_l2.c ****  * @brief         Description
 666:../switch_sdk/core/yt/yt_l2.c ****  * @note          APPLICABLE DEVICES  -Tiger
 667:../switch_sdk/core/yt/yt_l2.c ****  * @param[in]     unit                -unit id
 668:../switch_sdk/core/yt/yt_l2.c ****  * @param[in]     vid                 -vlan id
 669:../switch_sdk/core/yt/yt_l2.c ****  * @param[in]     mac_addr            -yt_types.h
 670:../switch_sdk/core/yt/yt_l2.c ****  * @param[in]     enable              -enable or disable
 671:../switch_sdk/core/yt/yt_l2.c ****  * @retval        CMM_ERR_OK          -on success
 672:../switch_sdk/core/yt/yt_l2.c ****  * @retval        CMM_ERR_FAIL        -on fail
 673:../switch_sdk/core/yt/yt_l2.c ****  */
 674:../switch_sdk/core/yt/yt_l2.c **** yt_ret_t  yt_l2_fdb_drop_da_set(yt_unit_t unit, yt_vlan_t vid, yt_mac_addr_t mac_addr, yt_enable_t 
 675:../switch_sdk/core/yt/yt_l2.c **** {
 6171              		.loc 1 675 1 is_stmt 1 view -0
 6172              		.cfi_startproc
 6173              		@ args = 4, pretend = 0, frame = 8
 6174              		@ frame_needed = 0, uses_anonymous_args = 0
 6175              		.loc 1 675 1 is_stmt 0 view .LVU1737
 6176 0000 10B5     		push	{r4, lr}
 6177              		.cfi_def_cfa_offset 8
 6178              		.cfi_offset 4, -8
 6179              		.cfi_offset 14, -4
 6180 0002 84B0     		sub	sp, sp, #16
 6181              		.cfi_def_cfa_offset 24
 6182 0004 04AC     		add	r4, sp, #16
 6183 0006 04E90C00 		stmdb	r4, {r2, r3}
 6184 000a 9DF81820 		ldrb	r2, [sp, #24]	@ zero_extendqisi2
 676:../switch_sdk/core/yt/yt_l2.c ****     CMM_PARAM_CHK((YT_UNIT_NUM <= unit), CMM_ERR_INPUT);
 6185              		.loc 1 676 5 is_stmt 1 view .LVU1738
 6186              		.loc 1 676 5 view .LVU1739
 6187 000e A8B9     		cbnz	r0, .L651
 6188 0010 8446     		mov	ip, r0
 6189              		.loc 1 676 5 discriminator 2 view .LVU1740
 677:../switch_sdk/core/yt/yt_l2.c ****     CMM_PARAM_CHK(NULL == YT_DISPATCH(unit), CMM_ERR_NOT_INIT);
 6190              		.loc 1 677 5 discriminator 2 view .LVU1741
 6191              		.loc 1 677 5 discriminator 2 view .LVU1742
 6192 0012 2D4B     		ldr	r3, .L661
 6193 0014 53F82030 		ldr	r3, [r3, r0, lsl #2]
 6194 0018 F3B1     		cbz	r3, .L652
 6195              		.loc 1 677 5 discriminator 2 view .LVU1743
 678:../switch_sdk/core/yt/yt_l2.c ****     CMM_PARAM_CHK((!(YT_DISPATCH(unit)->is_inited)), CMM_ERR_NOT_INIT);
 6196              		.loc 1 678 5 discriminator 2 view .LVU1744
 6197              		.loc 1 678 5 discriminator 2 view .LVU1745
 6198 001a 1878     		ldrb	r0, [r3]	@ zero_extendqisi2
 6199              	.LVL778:
 6200              		.loc 1 678 5 is_stmt 0 discriminator 2 view .LVU1746
 6201 001c 50B3     		cbz	r0, .L653
 6202              		.loc 1 678 5 is_stmt 1 discriminator 2 view .LVU1747
 679:../switch_sdk/core/yt/yt_l2.c ****     CMM_PARAM_CHK((YT_VLAN_ID_MAX < vid), CMM_ERR_EXCEED_RANGE);
 6203              		.loc 1 679 5 discriminator 2 view .LVU1748
 6204              		.loc 1 679 5 discriminator 2 view .LVU1749
 6205 001e B1F5805F 		cmp	r1, #4096
 6206 0022 35D2     		bcs	.L654
 6207              		.loc 1 679 5 discriminator 2 view .LVU1750
 680:../switch_sdk/core/yt/yt_l2.c ****     CMM_PARAM_CHK((YT_ENABLE < enable || YT_DISABLE > enable), CMM_ERR_INPUT);
 6208              		.loc 1 680 5 discriminator 2 view .LVU1751
 6209              		.loc 1 680 5 discriminator 2 view .LVU1752
 6210 0024 012A     		cmp	r2, #1
 6211 0026 41D8     		bhi	.L655
 6212              		.loc 1 680 5 discriminator 2 view .LVU1753
 681:../switch_sdk/core/yt/yt_l2.c **** 
 682:../switch_sdk/core/yt/yt_l2.c ****     return YT_DISPATCH(unit)->l2_fdb_drop_da_set(unit, vid, mac_addr, enable);
 6213              		.loc 1 682 5 discriminator 2 view .LVU1754
 6214              		.loc 1 682 29 is_stmt 0 discriminator 2 view .LVU1755
 6215 0028 D3F8CC43 		ldr	r4, [r3, #972]
 6216              		.loc 1 682 12 discriminator 2 view .LVU1756
 6217 002c 0092     		str	r2, [sp]
 6218 002e 04AB     		add	r3, sp, #16
 6219 0030 13E90C00 		ldmdb	r3, {r2, r3}
 6220 0034 6046     		mov	r0, ip
 6221 0036 A047     		blx	r4
 6222              	.LVL779:
 6223              	.L638:
 683:../switch_sdk/core/yt/yt_l2.c **** }
 6224              		.loc 1 683 1 view .LVU1757
 6225 0038 04B0     		add	sp, sp, #16
 6226              		.cfi_remember_state
 6227              		.cfi_def_cfa_offset 8
 6228              		@ sp needed
 6229 003a 10BD     		pop	{r4, pc}
 6230              	.LVL780:
 6231              	.L651:
 6232              		.cfi_restore_state
 676:../switch_sdk/core/yt/yt_l2.c ****     CMM_PARAM_CHK(NULL == YT_DISPATCH(unit), CMM_ERR_NOT_INIT);
 6233              		.loc 1 676 5 is_stmt 1 discriminator 1 view .LVU1758
 676:../switch_sdk/core/yt/yt_l2.c ****     CMM_PARAM_CHK(NULL == YT_DISPATCH(unit), CMM_ERR_NOT_INIT);
 6234              		.loc 1 676 5 discriminator 1 view .LVU1759
 6235 003c 234B     		ldr	r3, .L661+4
 6236 003e 1B78     		ldrb	r3, [r3]	@ zero_extendqisi2
 6237 0040 012B     		cmp	r3, #1
 6238 0042 01D8     		bhi	.L656
 6239              	.LVL781:
 6240              	.L640:
 676:../switch_sdk/core/yt/yt_l2.c ****     CMM_PARAM_CHK(NULL == YT_DISPATCH(unit), CMM_ERR_NOT_INIT);
 6241              		.loc 1 676 5 discriminator 5 view .LVU1760
 676:../switch_sdk/core/yt/yt_l2.c ****     CMM_PARAM_CHK(NULL == YT_DISPATCH(unit), CMM_ERR_NOT_INIT);
 6242              		.loc 1 676 5 discriminator 5 view .LVU1761
 676:../switch_sdk/core/yt/yt_l2.c ****     CMM_PARAM_CHK(NULL == YT_DISPATCH(unit), CMM_ERR_NOT_INIT);
 6243              		.loc 1 676 5 discriminator 5 view .LVU1762
 6244 0044 0520     		movs	r0, #5
 6245 0046 F7E7     		b	.L638
 6246              	.LVL782:
 6247              	.L656:
 676:../switch_sdk/core/yt/yt_l2.c ****     CMM_PARAM_CHK(NULL == YT_DISPATCH(unit), CMM_ERR_NOT_INIT);
 6248              		.loc 1 676 5 discriminator 3 view .LVU1763
 6249              	.LBB125:
 676:../switch_sdk/core/yt/yt_l2.c ****     CMM_PARAM_CHK(NULL == YT_DISPATCH(unit), CMM_ERR_NOT_INIT);
 6250              		.loc 1 676 5 discriminator 3 view .LVU1764
 6251 0048 214B     		ldr	r3, .L661+8
 6252 004a 5A69     		ldr	r2, [r3, #20]
 6253 004c 214B     		ldr	r3, .L661+12
 6254 004e 9968     		ldr	r1, [r3, #8]
 6255              	.LVL783:
 676:../switch_sdk/core/yt/yt_l2.c ****     CMM_PARAM_CHK(NULL == YT_DISPATCH(unit), CMM_ERR_NOT_INIT);
 6256              		.loc 1 676 5 is_stmt 0 discriminator 3 view .LVU1765
 6257 0050 2148     		ldr	r0, .L661+16
 6258              	.LVL784:
 676:../switch_sdk/core/yt/yt_l2.c ****     CMM_PARAM_CHK(NULL == YT_DISPATCH(unit), CMM_ERR_NOT_INIT);
 6259              		.loc 1 676 5 discriminator 3 view .LVU1766
 6260 0052 FFF7FEFF 		bl	osal_printf
 6261              	.LVL785:
 6262 0056 F5E7     		b	.L640
 6263              	.LVL786:
 6264              	.L652:
 676:../switch_sdk/core/yt/yt_l2.c ****     CMM_PARAM_CHK(NULL == YT_DISPATCH(unit), CMM_ERR_NOT_INIT);
 6265              		.loc 1 676 5 discriminator 3 view .LVU1767
 6266              	.LBE125:
 677:../switch_sdk/core/yt/yt_l2.c ****     CMM_PARAM_CHK((!(YT_DISPATCH(unit)->is_inited)), CMM_ERR_NOT_INIT);
 6267              		.loc 1 677 5 is_stmt 1 discriminator 1 view .LVU1768
 677:../switch_sdk/core/yt/yt_l2.c ****     CMM_PARAM_CHK((!(YT_DISPATCH(unit)->is_inited)), CMM_ERR_NOT_INIT);
 6268              		.loc 1 677 5 discriminator 1 view .LVU1769
 6269 0058 1C4B     		ldr	r3, .L661+4
 6270 005a 1B78     		ldrb	r3, [r3]	@ zero_extendqisi2
 6271 005c 012B     		cmp	r3, #1
 6272 005e 01D8     		bhi	.L657
 6273              	.LVL787:
 6274              	.L643:
 677:../switch_sdk/core/yt/yt_l2.c ****     CMM_PARAM_CHK((!(YT_DISPATCH(unit)->is_inited)), CMM_ERR_NOT_INIT);
 6275              		.loc 1 677 5 discriminator 5 view .LVU1770
 677:../switch_sdk/core/yt/yt_l2.c ****     CMM_PARAM_CHK((!(YT_DISPATCH(unit)->is_inited)), CMM_ERR_NOT_INIT);
 6276              		.loc 1 677 5 discriminator 5 view .LVU1771
 677:../switch_sdk/core/yt/yt_l2.c ****     CMM_PARAM_CHK((!(YT_DISPATCH(unit)->is_inited)), CMM_ERR_NOT_INIT);
 6277              		.loc 1 677 5 discriminator 5 view .LVU1772
 6278 0060 0420     		movs	r0, #4
 6279 0062 E9E7     		b	.L638
 6280              	.LVL788:
 6281              	.L657:
 677:../switch_sdk/core/yt/yt_l2.c ****     CMM_PARAM_CHK((!(YT_DISPATCH(unit)->is_inited)), CMM_ERR_NOT_INIT);
 6282              		.loc 1 677 5 discriminator 3 view .LVU1773
 6283              	.LBB126:
 677:../switch_sdk/core/yt/yt_l2.c ****     CMM_PARAM_CHK((!(YT_DISPATCH(unit)->is_inited)), CMM_ERR_NOT_INIT);
 6284              		.loc 1 677 5 discriminator 3 view .LVU1774
 6285 0064 1A4B     		ldr	r3, .L661+8
 6286 0066 1A69     		ldr	r2, [r3, #16]
 6287 0068 1A4B     		ldr	r3, .L661+12
 6288 006a 9968     		ldr	r1, [r3, #8]
 6289              	.LVL789:
 677:../switch_sdk/core/yt/yt_l2.c ****     CMM_PARAM_CHK((!(YT_DISPATCH(unit)->is_inited)), CMM_ERR_NOT_INIT);
 6290              		.loc 1 677 5 is_stmt 0 discriminator 3 view .LVU1775
 6291 006c 1A48     		ldr	r0, .L661+16
 6292              	.LVL790:
 677:../switch_sdk/core/yt/yt_l2.c ****     CMM_PARAM_CHK((!(YT_DISPATCH(unit)->is_inited)), CMM_ERR_NOT_INIT);
 6293              		.loc 1 677 5 discriminator 3 view .LVU1776
 6294 006e FFF7FEFF 		bl	osal_printf
 6295              	.LVL791:
 6296 0072 F5E7     		b	.L643
 6297              	.LVL792:
 6298              	.L653:
 677:../switch_sdk/core/yt/yt_l2.c ****     CMM_PARAM_CHK((!(YT_DISPATCH(unit)->is_inited)), CMM_ERR_NOT_INIT);
 6299              		.loc 1 677 5 discriminator 3 view .LVU1777
 6300              	.LBE126:
 678:../switch_sdk/core/yt/yt_l2.c ****     CMM_PARAM_CHK((YT_VLAN_ID_MAX < vid), CMM_ERR_EXCEED_RANGE);
 6301              		.loc 1 678 5 is_stmt 1 discriminator 1 view .LVU1778
 678:../switch_sdk/core/yt/yt_l2.c ****     CMM_PARAM_CHK((YT_VLAN_ID_MAX < vid), CMM_ERR_EXCEED_RANGE);
 6302              		.loc 1 678 5 discriminator 1 view .LVU1779
 6303 0074 154B     		ldr	r3, .L661+4
 6304 0076 1B78     		ldrb	r3, [r3]	@ zero_extendqisi2
 6305 0078 012B     		cmp	r3, #1
 6306 007a 01D8     		bhi	.L658
 6307              	.LVL793:
 6308              	.L645:
 678:../switch_sdk/core/yt/yt_l2.c ****     CMM_PARAM_CHK((YT_VLAN_ID_MAX < vid), CMM_ERR_EXCEED_RANGE);
 6309              		.loc 1 678 5 discriminator 5 view .LVU1780
 678:../switch_sdk/core/yt/yt_l2.c ****     CMM_PARAM_CHK((YT_VLAN_ID_MAX < vid), CMM_ERR_EXCEED_RANGE);
 6310              		.loc 1 678 5 discriminator 5 view .LVU1781
 678:../switch_sdk/core/yt/yt_l2.c ****     CMM_PARAM_CHK((YT_VLAN_ID_MAX < vid), CMM_ERR_EXCEED_RANGE);
 6311              		.loc 1 678 5 discriminator 5 view .LVU1782
 6312 007c 0420     		movs	r0, #4
 6313 007e DBE7     		b	.L638
 6314              	.LVL794:
 6315              	.L658:
 678:../switch_sdk/core/yt/yt_l2.c ****     CMM_PARAM_CHK((YT_VLAN_ID_MAX < vid), CMM_ERR_EXCEED_RANGE);
 6316              		.loc 1 678 5 discriminator 3 view .LVU1783
 6317              	.LBB127:
 678:../switch_sdk/core/yt/yt_l2.c ****     CMM_PARAM_CHK((YT_VLAN_ID_MAX < vid), CMM_ERR_EXCEED_RANGE);
 6318              		.loc 1 678 5 discriminator 3 view .LVU1784
 6319 0080 134B     		ldr	r3, .L661+8
 6320 0082 1A69     		ldr	r2, [r3, #16]
 6321 0084 134B     		ldr	r3, .L661+12
 6322 0086 9968     		ldr	r1, [r3, #8]
 6323              	.LVL795:
 678:../switch_sdk/core/yt/yt_l2.c ****     CMM_PARAM_CHK((YT_VLAN_ID_MAX < vid), CMM_ERR_EXCEED_RANGE);
 6324              		.loc 1 678 5 is_stmt 0 discriminator 3 view .LVU1785
 6325 0088 1348     		ldr	r0, .L661+16
 6326 008a FFF7FEFF 		bl	osal_printf
 6327              	.LVL796:
 6328 008e F5E7     		b	.L645
 6329              	.LVL797:
 6330              	.L654:
 678:../switch_sdk/core/yt/yt_l2.c ****     CMM_PARAM_CHK((YT_VLAN_ID_MAX < vid), CMM_ERR_EXCEED_RANGE);
 6331              		.loc 1 678 5 discriminator 3 view .LVU1786
 6332              	.LBE127:
 679:../switch_sdk/core/yt/yt_l2.c ****     CMM_PARAM_CHK((YT_ENABLE < enable || YT_DISABLE > enable), CMM_ERR_INPUT);
 6333              		.loc 1 679 5 is_stmt 1 discriminator 1 view .LVU1787
 679:../switch_sdk/core/yt/yt_l2.c ****     CMM_PARAM_CHK((YT_ENABLE < enable || YT_DISABLE > enable), CMM_ERR_INPUT);
 6334              		.loc 1 679 5 discriminator 1 view .LVU1788
 6335 0090 0E4B     		ldr	r3, .L661+4
 6336 0092 1B78     		ldrb	r3, [r3]	@ zero_extendqisi2
 6337 0094 012B     		cmp	r3, #1
 6338 0096 01D8     		bhi	.L659
 6339              	.LVL798:
 6340              	.L647:
 679:../switch_sdk/core/yt/yt_l2.c ****     CMM_PARAM_CHK((YT_ENABLE < enable || YT_DISABLE > enable), CMM_ERR_INPUT);
 6341              		.loc 1 679 5 discriminator 5 view .LVU1789
 679:../switch_sdk/core/yt/yt_l2.c ****     CMM_PARAM_CHK((YT_ENABLE < enable || YT_DISABLE > enable), CMM_ERR_INPUT);
 6342              		.loc 1 679 5 discriminator 5 view .LVU1790
 679:../switch_sdk/core/yt/yt_l2.c ****     CMM_PARAM_CHK((YT_ENABLE < enable || YT_DISABLE > enable), CMM_ERR_INPUT);
 6343              		.loc 1 679 5 discriminator 5 view .LVU1791
 6344 0098 1120     		movs	r0, #17
 6345 009a CDE7     		b	.L638
 6346              	.LVL799:
 6347              	.L659:
 679:../switch_sdk/core/yt/yt_l2.c ****     CMM_PARAM_CHK((YT_ENABLE < enable || YT_DISABLE > enable), CMM_ERR_INPUT);
 6348              		.loc 1 679 5 discriminator 3 view .LVU1792
 6349              	.LBB128:
 679:../switch_sdk/core/yt/yt_l2.c ****     CMM_PARAM_CHK((YT_ENABLE < enable || YT_DISABLE > enable), CMM_ERR_INPUT);
 6350              		.loc 1 679 5 discriminator 3 view .LVU1793
 6351 009c 0C4B     		ldr	r3, .L661+8
 6352 009e 5A6C     		ldr	r2, [r3, #68]
 6353 00a0 0C4B     		ldr	r3, .L661+12
 6354 00a2 9968     		ldr	r1, [r3, #8]
 6355              	.LVL800:
 679:../switch_sdk/core/yt/yt_l2.c ****     CMM_PARAM_CHK((YT_ENABLE < enable || YT_DISABLE > enable), CMM_ERR_INPUT);
 6356              		.loc 1 679 5 is_stmt 0 discriminator 3 view .LVU1794
 6357 00a4 0C48     		ldr	r0, .L661+16
 6358 00a6 FFF7FEFF 		bl	osal_printf
 6359              	.LVL801:
 6360 00aa F5E7     		b	.L647
 6361              	.LVL802:
 6362              	.L655:
 679:../switch_sdk/core/yt/yt_l2.c ****     CMM_PARAM_CHK((YT_ENABLE < enable || YT_DISABLE > enable), CMM_ERR_INPUT);
 6363              		.loc 1 679 5 discriminator 3 view .LVU1795
 6364              	.LBE128:
 680:../switch_sdk/core/yt/yt_l2.c **** 
 6365              		.loc 1 680 5 is_stmt 1 discriminator 1 view .LVU1796
 680:../switch_sdk/core/yt/yt_l2.c **** 
 6366              		.loc 1 680 5 discriminator 1 view .LVU1797
 6367 00ac 074B     		ldr	r3, .L661+4
 6368 00ae 1B78     		ldrb	r3, [r3]	@ zero_extendqisi2
 6369 00b0 012B     		cmp	r3, #1
 6370 00b2 01D8     		bhi	.L660
 6371              	.LVL803:
 6372              	.L649:
 680:../switch_sdk/core/yt/yt_l2.c **** 
 6373              		.loc 1 680 5 discriminator 5 view .LVU1798
 680:../switch_sdk/core/yt/yt_l2.c **** 
 6374              		.loc 1 680 5 discriminator 5 view .LVU1799
 680:../switch_sdk/core/yt/yt_l2.c **** 
 6375              		.loc 1 680 5 discriminator 5 view .LVU1800
 6376 00b4 0520     		movs	r0, #5
 6377 00b6 BFE7     		b	.L638
 6378              	.LVL804:
 6379              	.L660:
 680:../switch_sdk/core/yt/yt_l2.c **** 
 6380              		.loc 1 680 5 discriminator 3 view .LVU1801
 6381              	.LBB129:
 680:../switch_sdk/core/yt/yt_l2.c **** 
 6382              		.loc 1 680 5 discriminator 3 view .LVU1802
 6383 00b8 054B     		ldr	r3, .L661+8
 6384 00ba 5A69     		ldr	r2, [r3, #20]
 6385 00bc 054B     		ldr	r3, .L661+12
 6386 00be 9968     		ldr	r1, [r3, #8]
 6387              	.LVL805:
 680:../switch_sdk/core/yt/yt_l2.c **** 
 6388              		.loc 1 680 5 is_stmt 0 discriminator 3 view .LVU1803
 6389 00c0 0548     		ldr	r0, .L661+16
 6390 00c2 FFF7FEFF 		bl	osal_printf
 6391              	.LVL806:
 6392 00c6 F5E7     		b	.L649
 6393              	.L662:
 6394              		.align	2
 6395              	.L661:
 6396 00c8 00000000 		.word	gpfal_dispatch
 6397 00cc 00000000 		.word	yt_debug_level
 6398 00d0 00000000 		.word	_yt_errmsg
 6399 00d4 00000000 		.word	_yt_prompt_msg
 6400 00d8 00000000 		.word	.LC0
 6401              	.LBE129:
 6402              		.cfi_endproc
 6403              	.LFE32:
 6405              		.section	.text.yt_l2_fdb_drop_da_get,"ax",%progbits
 6406              		.align	1
 6407              		.global	yt_l2_fdb_drop_da_get
 6408              		.syntax unified
 6409              		.thumb
 6410              		.thumb_func
 6412              	yt_l2_fdb_drop_da_get:
 6413              	.LVL807:
 6414              	.LFB33:
 684:../switch_sdk/core/yt/yt_l2.c **** 
 685:../switch_sdk/core/yt/yt_l2.c **** /**
 686:../switch_sdk/core/yt/yt_l2.c ****  * @internal      yt_l2_fdb_drop_da_get
 687:../switch_sdk/core/yt/yt_l2.c ****  * @endinternal
 688:../switch_sdk/core/yt/yt_l2.c ****  *
 689:../switch_sdk/core/yt/yt_l2.c ****  * @brief         Description
 690:../switch_sdk/core/yt/yt_l2.c ****  * @note          APPLICABLE DEVICES  -Tiger
 691:../switch_sdk/core/yt/yt_l2.c ****  * @param[in]     unit                -unit id
 692:../switch_sdk/core/yt/yt_l2.c ****  * @param[in]     vid                 -vlan id
 693:../switch_sdk/core/yt/yt_l2.c ****  * @param[in]     mac_addr            -yt_types.h
 694:../switch_sdk/core/yt/yt_l2.c ****  * @param[in]     pEnable             -enable or disable
 695:../switch_sdk/core/yt/yt_l2.c ****  * @retval        CMM_ERR_OK          -on success
 696:../switch_sdk/core/yt/yt_l2.c ****  * @retval        CMM_ERR_FAIL        -on fail
 697:../switch_sdk/core/yt/yt_l2.c ****  */
 698:../switch_sdk/core/yt/yt_l2.c **** yt_ret_t  yt_l2_fdb_drop_da_get(yt_unit_t unit, yt_vlan_t vid, yt_mac_addr_t mac_addr,  yt_enable_t
 699:../switch_sdk/core/yt/yt_l2.c **** {
 6415              		.loc 1 699 1 is_stmt 1 view -0
 6416              		.cfi_startproc
 6417              		@ args = 4, pretend = 0, frame = 8
 6418              		@ frame_needed = 0, uses_anonymous_args = 0
 6419              		.loc 1 699 1 is_stmt 0 view .LVU1805
 6420 0000 10B5     		push	{r4, lr}
 6421              		.cfi_def_cfa_offset 8
 6422              		.cfi_offset 4, -8
 6423              		.cfi_offset 14, -4
 6424 0002 84B0     		sub	sp, sp, #16
 6425              		.cfi_def_cfa_offset 24
 6426 0004 04AC     		add	r4, sp, #16
 6427 0006 04E90C00 		stmdb	r4, {r2, r3}
 700:../switch_sdk/core/yt/yt_l2.c ****     CMM_PARAM_CHK((YT_UNIT_NUM <= unit), CMM_ERR_INPUT);
 6428              		.loc 1 700 5 is_stmt 1 view .LVU1806
 6429              		.loc 1 700 5 view .LVU1807
 6430 000a B0B9     		cbnz	r0, .L676
 6431              		.loc 1 700 5 discriminator 2 view .LVU1808
 701:../switch_sdk/core/yt/yt_l2.c ****     CMM_PARAM_CHK(NULL == YT_DISPATCH(unit), CMM_ERR_NOT_INIT);
 6432              		.loc 1 701 5 discriminator 2 view .LVU1809
 6433              		.loc 1 701 5 discriminator 2 view .LVU1810
 6434 000c 2E4B     		ldr	r3, .L686
 6435 000e 53F82030 		ldr	r3, [r3, r0, lsl #2]
 6436 0012 03B3     		cbz	r3, .L677
 6437              		.loc 1 701 5 discriminator 2 view .LVU1811
 702:../switch_sdk/core/yt/yt_l2.c ****     CMM_PARAM_CHK((!(YT_DISPATCH(unit)->is_inited)), CMM_ERR_NOT_INIT);
 6438              		.loc 1 702 5 discriminator 2 view .LVU1812
 6439              		.loc 1 702 5 discriminator 2 view .LVU1813
 6440 0014 1A78     		ldrb	r2, [r3]	@ zero_extendqisi2
 6441 0016 002A     		cmp	r2, #0
 6442 0018 2BD0     		beq	.L678
 6443              		.loc 1 702 5 discriminator 2 view .LVU1814
 703:../switch_sdk/core/yt/yt_l2.c ****     CMM_PARAM_CHK((YT_VLAN_ID_MAX < vid), CMM_ERR_EXCEED_RANGE);
 6444              		.loc 1 703 5 discriminator 2 view .LVU1815
 6445              		.loc 1 703 5 discriminator 2 view .LVU1816
 6446 001a B1F5805F 		cmp	r1, #4096
 6447 001e 36D2     		bcs	.L679
 6448              		.loc 1 703 5 discriminator 2 view .LVU1817
 704:../switch_sdk/core/yt/yt_l2.c ****     CMM_PARAM_CHK((NULL == pEnable), CMM_ERR_NULL_POINT);
 6449              		.loc 1 704 5 discriminator 2 view .LVU1818
 6450              		.loc 1 704 5 discriminator 2 view .LVU1819
 6451 0020 069A     		ldr	r2, [sp, #24]
 6452 0022 002A     		cmp	r2, #0
 6453 0024 41D0     		beq	.L680
 6454              		.loc 1 704 5 discriminator 2 view .LVU1820
 705:../switch_sdk/core/yt/yt_l2.c **** 
 706:../switch_sdk/core/yt/yt_l2.c ****     return YT_DISPATCH(unit)->l2_fdb_drop_da_get(unit, vid, mac_addr, pEnable);
 6455              		.loc 1 706 5 discriminator 2 view .LVU1821
 6456              		.loc 1 706 29 is_stmt 0 discriminator 2 view .LVU1822
 6457 0026 D3F8D043 		ldr	r4, [r3, #976]
 6458              		.loc 1 706 12 discriminator 2 view .LVU1823
 6459 002a 069B     		ldr	r3, [sp, #24]
 6460 002c 0093     		str	r3, [sp]
 6461 002e 04AB     		add	r3, sp, #16
 6462 0030 13E90C00 		ldmdb	r3, {r2, r3}
 6463 0034 A047     		blx	r4
 6464              	.LVL808:
 6465              	.L663:
 707:../switch_sdk/core/yt/yt_l2.c **** }
 6466              		.loc 1 707 1 view .LVU1824
 6467 0036 04B0     		add	sp, sp, #16
 6468              		.cfi_remember_state
 6469              		.cfi_def_cfa_offset 8
 6470              		@ sp needed
 6471 0038 10BD     		pop	{r4, pc}
 6472              	.LVL809:
 6473              	.L676:
 6474              		.cfi_restore_state
 700:../switch_sdk/core/yt/yt_l2.c ****     CMM_PARAM_CHK(NULL == YT_DISPATCH(unit), CMM_ERR_NOT_INIT);
 6475              		.loc 1 700 5 is_stmt 1 discriminator 1 view .LVU1825
 700:../switch_sdk/core/yt/yt_l2.c ****     CMM_PARAM_CHK(NULL == YT_DISPATCH(unit), CMM_ERR_NOT_INIT);
 6476              		.loc 1 700 5 discriminator 1 view .LVU1826
 6477 003a 244B     		ldr	r3, .L686+4
 6478 003c 1B78     		ldrb	r3, [r3]	@ zero_extendqisi2
 6479 003e 012B     		cmp	r3, #1
 6480 0040 01D8     		bhi	.L681
 6481              	.LVL810:
 6482              	.L665:
 700:../switch_sdk/core/yt/yt_l2.c ****     CMM_PARAM_CHK(NULL == YT_DISPATCH(unit), CMM_ERR_NOT_INIT);
 6483              		.loc 1 700 5 discriminator 5 view .LVU1827
 700:../switch_sdk/core/yt/yt_l2.c ****     CMM_PARAM_CHK(NULL == YT_DISPATCH(unit), CMM_ERR_NOT_INIT);
 6484              		.loc 1 700 5 discriminator 5 view .LVU1828
 700:../switch_sdk/core/yt/yt_l2.c ****     CMM_PARAM_CHK(NULL == YT_DISPATCH(unit), CMM_ERR_NOT_INIT);
 6485              		.loc 1 700 5 discriminator 5 view .LVU1829
 6486 0042 0520     		movs	r0, #5
 6487 0044 F7E7     		b	.L663
 6488              	.LVL811:
 6489              	.L681:
 700:../switch_sdk/core/yt/yt_l2.c ****     CMM_PARAM_CHK(NULL == YT_DISPATCH(unit), CMM_ERR_NOT_INIT);
 6490              		.loc 1 700 5 discriminator 3 view .LVU1830
 6491              	.LBB130:
 700:../switch_sdk/core/yt/yt_l2.c ****     CMM_PARAM_CHK(NULL == YT_DISPATCH(unit), CMM_ERR_NOT_INIT);
 6492              		.loc 1 700 5 discriminator 3 view .LVU1831
 6493 0046 224B     		ldr	r3, .L686+8
 6494 0048 5A69     		ldr	r2, [r3, #20]
 6495 004a 224B     		ldr	r3, .L686+12
 6496 004c 9968     		ldr	r1, [r3, #8]
 6497              	.LVL812:
 700:../switch_sdk/core/yt/yt_l2.c ****     CMM_PARAM_CHK(NULL == YT_DISPATCH(unit), CMM_ERR_NOT_INIT);
 6498              		.loc 1 700 5 is_stmt 0 discriminator 3 view .LVU1832
 6499 004e 2248     		ldr	r0, .L686+16
 6500              	.LVL813:
 700:../switch_sdk/core/yt/yt_l2.c ****     CMM_PARAM_CHK(NULL == YT_DISPATCH(unit), CMM_ERR_NOT_INIT);
 6501              		.loc 1 700 5 discriminator 3 view .LVU1833
 6502 0050 FFF7FEFF 		bl	osal_printf
 6503              	.LVL814:
 6504 0054 F5E7     		b	.L665
 6505              	.LVL815:
 6506              	.L677:
 700:../switch_sdk/core/yt/yt_l2.c ****     CMM_PARAM_CHK(NULL == YT_DISPATCH(unit), CMM_ERR_NOT_INIT);
 6507              		.loc 1 700 5 discriminator 3 view .LVU1834
 6508              	.LBE130:
 701:../switch_sdk/core/yt/yt_l2.c ****     CMM_PARAM_CHK((!(YT_DISPATCH(unit)->is_inited)), CMM_ERR_NOT_INIT);
 6509              		.loc 1 701 5 is_stmt 1 discriminator 1 view .LVU1835
 701:../switch_sdk/core/yt/yt_l2.c ****     CMM_PARAM_CHK((!(YT_DISPATCH(unit)->is_inited)), CMM_ERR_NOT_INIT);
 6510              		.loc 1 701 5 discriminator 1 view .LVU1836
 6511 0056 1D4B     		ldr	r3, .L686+4
 6512 0058 1B78     		ldrb	r3, [r3]	@ zero_extendqisi2
 6513 005a 012B     		cmp	r3, #1
 6514 005c 01D8     		bhi	.L682
 6515              	.LVL816:
 6516              	.L668:
 701:../switch_sdk/core/yt/yt_l2.c ****     CMM_PARAM_CHK((!(YT_DISPATCH(unit)->is_inited)), CMM_ERR_NOT_INIT);
 6517              		.loc 1 701 5 discriminator 5 view .LVU1837
 701:../switch_sdk/core/yt/yt_l2.c ****     CMM_PARAM_CHK((!(YT_DISPATCH(unit)->is_inited)), CMM_ERR_NOT_INIT);
 6518              		.loc 1 701 5 discriminator 5 view .LVU1838
 701:../switch_sdk/core/yt/yt_l2.c ****     CMM_PARAM_CHK((!(YT_DISPATCH(unit)->is_inited)), CMM_ERR_NOT_INIT);
 6519              		.loc 1 701 5 discriminator 5 view .LVU1839
 6520 005e 0420     		movs	r0, #4
 6521 0060 E9E7     		b	.L663
 6522              	.LVL817:
 6523              	.L682:
 701:../switch_sdk/core/yt/yt_l2.c ****     CMM_PARAM_CHK((!(YT_DISPATCH(unit)->is_inited)), CMM_ERR_NOT_INIT);
 6524              		.loc 1 701 5 discriminator 3 view .LVU1840
 6525              	.LBB131:
 701:../switch_sdk/core/yt/yt_l2.c ****     CMM_PARAM_CHK((!(YT_DISPATCH(unit)->is_inited)), CMM_ERR_NOT_INIT);
 6526              		.loc 1 701 5 discriminator 3 view .LVU1841
 6527 0062 1B4B     		ldr	r3, .L686+8
 6528 0064 1A69     		ldr	r2, [r3, #16]
 6529 0066 1B4B     		ldr	r3, .L686+12
 6530 0068 9968     		ldr	r1, [r3, #8]
 6531              	.LVL818:
 701:../switch_sdk/core/yt/yt_l2.c ****     CMM_PARAM_CHK((!(YT_DISPATCH(unit)->is_inited)), CMM_ERR_NOT_INIT);
 6532              		.loc 1 701 5 is_stmt 0 discriminator 3 view .LVU1842
 6533 006a 1B48     		ldr	r0, .L686+16
 6534              	.LVL819:
 701:../switch_sdk/core/yt/yt_l2.c ****     CMM_PARAM_CHK((!(YT_DISPATCH(unit)->is_inited)), CMM_ERR_NOT_INIT);
 6535              		.loc 1 701 5 discriminator 3 view .LVU1843
 6536 006c FFF7FEFF 		bl	osal_printf
 6537              	.LVL820:
 6538 0070 F5E7     		b	.L668
 6539              	.LVL821:
 6540              	.L678:
 701:../switch_sdk/core/yt/yt_l2.c ****     CMM_PARAM_CHK((!(YT_DISPATCH(unit)->is_inited)), CMM_ERR_NOT_INIT);
 6541              		.loc 1 701 5 discriminator 3 view .LVU1844
 6542              	.LBE131:
 702:../switch_sdk/core/yt/yt_l2.c ****     CMM_PARAM_CHK((YT_VLAN_ID_MAX < vid), CMM_ERR_EXCEED_RANGE);
 6543              		.loc 1 702 5 is_stmt 1 discriminator 1 view .LVU1845
 702:../switch_sdk/core/yt/yt_l2.c ****     CMM_PARAM_CHK((YT_VLAN_ID_MAX < vid), CMM_ERR_EXCEED_RANGE);
 6544              		.loc 1 702 5 discriminator 1 view .LVU1846
 6545 0072 164B     		ldr	r3, .L686+4
 6546 0074 1B78     		ldrb	r3, [r3]	@ zero_extendqisi2
 6547 0076 012B     		cmp	r3, #1
 6548 0078 01D8     		bhi	.L683
 6549              	.LVL822:
 6550              	.L670:
 702:../switch_sdk/core/yt/yt_l2.c ****     CMM_PARAM_CHK((YT_VLAN_ID_MAX < vid), CMM_ERR_EXCEED_RANGE);
 6551              		.loc 1 702 5 discriminator 5 view .LVU1847
 702:../switch_sdk/core/yt/yt_l2.c ****     CMM_PARAM_CHK((YT_VLAN_ID_MAX < vid), CMM_ERR_EXCEED_RANGE);
 6552              		.loc 1 702 5 discriminator 5 view .LVU1848
 702:../switch_sdk/core/yt/yt_l2.c ****     CMM_PARAM_CHK((YT_VLAN_ID_MAX < vid), CMM_ERR_EXCEED_RANGE);
 6553              		.loc 1 702 5 discriminator 5 view .LVU1849
 6554 007a 0420     		movs	r0, #4
 6555 007c DBE7     		b	.L663
 6556              	.LVL823:
 6557              	.L683:
 702:../switch_sdk/core/yt/yt_l2.c ****     CMM_PARAM_CHK((YT_VLAN_ID_MAX < vid), CMM_ERR_EXCEED_RANGE);
 6558              		.loc 1 702 5 discriminator 3 view .LVU1850
 6559              	.LBB132:
 702:../switch_sdk/core/yt/yt_l2.c ****     CMM_PARAM_CHK((YT_VLAN_ID_MAX < vid), CMM_ERR_EXCEED_RANGE);
 6560              		.loc 1 702 5 discriminator 3 view .LVU1851
 6561 007e 144B     		ldr	r3, .L686+8
 6562 0080 1A69     		ldr	r2, [r3, #16]
 6563 0082 144B     		ldr	r3, .L686+12
 6564 0084 9968     		ldr	r1, [r3, #8]
 6565              	.LVL824:
 702:../switch_sdk/core/yt/yt_l2.c ****     CMM_PARAM_CHK((YT_VLAN_ID_MAX < vid), CMM_ERR_EXCEED_RANGE);
 6566              		.loc 1 702 5 is_stmt 0 discriminator 3 view .LVU1852
 6567 0086 1448     		ldr	r0, .L686+16
 6568              	.LVL825:
 702:../switch_sdk/core/yt/yt_l2.c ****     CMM_PARAM_CHK((YT_VLAN_ID_MAX < vid), CMM_ERR_EXCEED_RANGE);
 6569              		.loc 1 702 5 discriminator 3 view .LVU1853
 6570 0088 FFF7FEFF 		bl	osal_printf
 6571              	.LVL826:
 6572 008c F5E7     		b	.L670
 6573              	.LVL827:
 6574              	.L679:
 702:../switch_sdk/core/yt/yt_l2.c ****     CMM_PARAM_CHK((YT_VLAN_ID_MAX < vid), CMM_ERR_EXCEED_RANGE);
 6575              		.loc 1 702 5 discriminator 3 view .LVU1854
 6576              	.LBE132:
 703:../switch_sdk/core/yt/yt_l2.c ****     CMM_PARAM_CHK((NULL == pEnable), CMM_ERR_NULL_POINT);
 6577              		.loc 1 703 5 is_stmt 1 discriminator 1 view .LVU1855
 703:../switch_sdk/core/yt/yt_l2.c ****     CMM_PARAM_CHK((NULL == pEnable), CMM_ERR_NULL_POINT);
 6578              		.loc 1 703 5 discriminator 1 view .LVU1856
 6579 008e 0F4B     		ldr	r3, .L686+4
 6580 0090 1B78     		ldrb	r3, [r3]	@ zero_extendqisi2
 6581 0092 012B     		cmp	r3, #1
 6582 0094 01D8     		bhi	.L684
 6583              	.LVL828:
 6584              	.L672:
 703:../switch_sdk/core/yt/yt_l2.c ****     CMM_PARAM_CHK((NULL == pEnable), CMM_ERR_NULL_POINT);
 6585              		.loc 1 703 5 discriminator 5 view .LVU1857
 703:../switch_sdk/core/yt/yt_l2.c ****     CMM_PARAM_CHK((NULL == pEnable), CMM_ERR_NULL_POINT);
 6586              		.loc 1 703 5 discriminator 5 view .LVU1858
 703:../switch_sdk/core/yt/yt_l2.c ****     CMM_PARAM_CHK((NULL == pEnable), CMM_ERR_NULL_POINT);
 6587              		.loc 1 703 5 discriminator 5 view .LVU1859
 6588 0096 1120     		movs	r0, #17
 6589 0098 CDE7     		b	.L663
 6590              	.LVL829:
 6591              	.L684:
 703:../switch_sdk/core/yt/yt_l2.c ****     CMM_PARAM_CHK((NULL == pEnable), CMM_ERR_NULL_POINT);
 6592              		.loc 1 703 5 discriminator 3 view .LVU1860
 6593              	.LBB133:
 703:../switch_sdk/core/yt/yt_l2.c ****     CMM_PARAM_CHK((NULL == pEnable), CMM_ERR_NULL_POINT);
 6594              		.loc 1 703 5 discriminator 3 view .LVU1861
 6595 009a 0D4B     		ldr	r3, .L686+8
 6596 009c 5A6C     		ldr	r2, [r3, #68]
 6597 009e 0D4B     		ldr	r3, .L686+12
 6598 00a0 9968     		ldr	r1, [r3, #8]
 6599              	.LVL830:
 703:../switch_sdk/core/yt/yt_l2.c ****     CMM_PARAM_CHK((NULL == pEnable), CMM_ERR_NULL_POINT);
 6600              		.loc 1 703 5 is_stmt 0 discriminator 3 view .LVU1862
 6601 00a2 0D48     		ldr	r0, .L686+16
 6602              	.LVL831:
 703:../switch_sdk/core/yt/yt_l2.c ****     CMM_PARAM_CHK((NULL == pEnable), CMM_ERR_NULL_POINT);
 6603              		.loc 1 703 5 discriminator 3 view .LVU1863
 6604 00a4 FFF7FEFF 		bl	osal_printf
 6605              	.LVL832:
 6606 00a8 F5E7     		b	.L672
 6607              	.LVL833:
 6608              	.L680:
 703:../switch_sdk/core/yt/yt_l2.c ****     CMM_PARAM_CHK((NULL == pEnable), CMM_ERR_NULL_POINT);
 6609              		.loc 1 703 5 discriminator 3 view .LVU1864
 6610              	.LBE133:
 704:../switch_sdk/core/yt/yt_l2.c **** 
 6611              		.loc 1 704 5 is_stmt 1 discriminator 1 view .LVU1865
 704:../switch_sdk/core/yt/yt_l2.c **** 
 6612              		.loc 1 704 5 discriminator 1 view .LVU1866
 6613 00aa 084B     		ldr	r3, .L686+4
 6614 00ac 1B78     		ldrb	r3, [r3]	@ zero_extendqisi2
 6615 00ae 012B     		cmp	r3, #1
 6616 00b0 01D8     		bhi	.L685
 6617              	.LVL834:
 6618              	.L674:
 704:../switch_sdk/core/yt/yt_l2.c **** 
 6619              		.loc 1 704 5 discriminator 5 view .LVU1867
 704:../switch_sdk/core/yt/yt_l2.c **** 
 6620              		.loc 1 704 5 discriminator 5 view .LVU1868
 704:../switch_sdk/core/yt/yt_l2.c **** 
 6621              		.loc 1 704 5 discriminator 5 view .LVU1869
 6622 00b2 0220     		movs	r0, #2
 6623 00b4 BFE7     		b	.L663
 6624              	.LVL835:
 6625              	.L685:
 704:../switch_sdk/core/yt/yt_l2.c **** 
 6626              		.loc 1 704 5 discriminator 3 view .LVU1870
 6627              	.LBB134:
 704:../switch_sdk/core/yt/yt_l2.c **** 
 6628              		.loc 1 704 5 discriminator 3 view .LVU1871
 6629 00b6 064B     		ldr	r3, .L686+8
 6630 00b8 9A68     		ldr	r2, [r3, #8]
 6631 00ba 064B     		ldr	r3, .L686+12
 6632 00bc 9968     		ldr	r1, [r3, #8]
 6633              	.LVL836:
 704:../switch_sdk/core/yt/yt_l2.c **** 
 6634              		.loc 1 704 5 is_stmt 0 discriminator 3 view .LVU1872
 6635 00be 0648     		ldr	r0, .L686+16
 6636              	.LVL837:
 704:../switch_sdk/core/yt/yt_l2.c **** 
 6637              		.loc 1 704 5 discriminator 3 view .LVU1873
 6638 00c0 FFF7FEFF 		bl	osal_printf
 6639              	.LVL838:
 6640 00c4 F5E7     		b	.L674
 6641              	.L687:
 6642 00c6 00BF     		.align	2
 6643              	.L686:
 6644 00c8 00000000 		.word	gpfal_dispatch
 6645 00cc 00000000 		.word	yt_debug_level
 6646 00d0 00000000 		.word	_yt_errmsg
 6647 00d4 00000000 		.word	_yt_prompt_msg
 6648 00d8 00000000 		.word	.LC0
 6649              	.LBE134:
 6650              		.cfi_endproc
 6651              	.LFE33:
 6653              		.section	.text.yt_l2_fdb_copy2cpu_set,"ax",%progbits
 6654              		.align	1
 6655              		.global	yt_l2_fdb_copy2cpu_set
 6656              		.syntax unified
 6657              		.thumb
 6658              		.thumb_func
 6660              	yt_l2_fdb_copy2cpu_set:
 6661              	.LVL839:
 6662              	.LFB34:
 708:../switch_sdk/core/yt/yt_l2.c **** 
 709:../switch_sdk/core/yt/yt_l2.c **** /**
 710:../switch_sdk/core/yt/yt_l2.c ****  * @internal      yt_l2_fdb_copy2cpu_set
 711:../switch_sdk/core/yt/yt_l2.c ****  * @endinternal
 712:../switch_sdk/core/yt/yt_l2.c ****  *
 713:../switch_sdk/core/yt/yt_l2.c ****  * @brief         Description
 714:../switch_sdk/core/yt/yt_l2.c ****  * @note          APPLICABLE DEVICES  -Tiger
 715:../switch_sdk/core/yt/yt_l2.c ****  * @param[in]     unit                -unit id
 716:../switch_sdk/core/yt/yt_l2.c ****  * @param[in]     vid                 -vlan id
 717:../switch_sdk/core/yt/yt_l2.c ****  * @param[in]     mac_addr            -yt_types.h
 718:../switch_sdk/core/yt/yt_l2.c ****  * @param[in]     enable              -enable or disable
 719:../switch_sdk/core/yt/yt_l2.c ****  * @retval        CMM_ERR_OK          -on success
 720:../switch_sdk/core/yt/yt_l2.c ****  * @retval        CMM_ERR_FAIL        -on fail
 721:../switch_sdk/core/yt/yt_l2.c ****  */
 722:../switch_sdk/core/yt/yt_l2.c **** yt_ret_t  yt_l2_fdb_copy2cpu_set(yt_unit_t unit, yt_vlan_t vid, yt_mac_addr_t mac_addr, yt_enable_t
 723:../switch_sdk/core/yt/yt_l2.c **** {
 6663              		.loc 1 723 1 is_stmt 1 view -0
 6664              		.cfi_startproc
 6665              		@ args = 4, pretend = 0, frame = 8
 6666              		@ frame_needed = 0, uses_anonymous_args = 0
 6667              		.loc 1 723 1 is_stmt 0 view .LVU1875
 6668 0000 10B5     		push	{r4, lr}
 6669              		.cfi_def_cfa_offset 8
 6670              		.cfi_offset 4, -8
 6671              		.cfi_offset 14, -4
 6672 0002 84B0     		sub	sp, sp, #16
 6673              		.cfi_def_cfa_offset 24
 6674 0004 04AC     		add	r4, sp, #16
 6675 0006 04E90C00 		stmdb	r4, {r2, r3}
 6676 000a 9DF81820 		ldrb	r2, [sp, #24]	@ zero_extendqisi2
 724:../switch_sdk/core/yt/yt_l2.c ****     CMM_PARAM_CHK((YT_UNIT_NUM <= unit), CMM_ERR_INPUT);
 6677              		.loc 1 724 5 is_stmt 1 view .LVU1876
 6678              		.loc 1 724 5 view .LVU1877
 6679 000e A8B9     		cbnz	r0, .L701
 6680 0010 8446     		mov	ip, r0
 6681              		.loc 1 724 5 discriminator 2 view .LVU1878
 725:../switch_sdk/core/yt/yt_l2.c ****     CMM_PARAM_CHK(NULL == YT_DISPATCH(unit), CMM_ERR_NOT_INIT);
 6682              		.loc 1 725 5 discriminator 2 view .LVU1879
 6683              		.loc 1 725 5 discriminator 2 view .LVU1880
 6684 0012 2D4B     		ldr	r3, .L711
 6685 0014 53F82030 		ldr	r3, [r3, r0, lsl #2]
 6686 0018 F3B1     		cbz	r3, .L702
 6687              		.loc 1 725 5 discriminator 2 view .LVU1881
 726:../switch_sdk/core/yt/yt_l2.c ****     CMM_PARAM_CHK((!(YT_DISPATCH(unit)->is_inited)), CMM_ERR_NOT_INIT);
 6688              		.loc 1 726 5 discriminator 2 view .LVU1882
 6689              		.loc 1 726 5 discriminator 2 view .LVU1883
 6690 001a 1878     		ldrb	r0, [r3]	@ zero_extendqisi2
 6691              	.LVL840:
 6692              		.loc 1 726 5 is_stmt 0 discriminator 2 view .LVU1884
 6693 001c 50B3     		cbz	r0, .L703
 6694              		.loc 1 726 5 is_stmt 1 discriminator 2 view .LVU1885
 727:../switch_sdk/core/yt/yt_l2.c ****     CMM_PARAM_CHK((YT_VLAN_ID_MAX < vid), CMM_ERR_EXCEED_RANGE);
 6695              		.loc 1 727 5 discriminator 2 view .LVU1886
 6696              		.loc 1 727 5 discriminator 2 view .LVU1887
 6697 001e B1F5805F 		cmp	r1, #4096
 6698 0022 35D2     		bcs	.L704
 6699              		.loc 1 727 5 discriminator 2 view .LVU1888
 728:../switch_sdk/core/yt/yt_l2.c ****     CMM_PARAM_CHK((YT_ENABLE < enable || YT_DISABLE > enable), CMM_ERR_INPUT);
 6700              		.loc 1 728 5 discriminator 2 view .LVU1889
 6701              		.loc 1 728 5 discriminator 2 view .LVU1890
 6702 0024 012A     		cmp	r2, #1
 6703 0026 41D8     		bhi	.L705
 6704              		.loc 1 728 5 discriminator 2 view .LVU1891
 729:../switch_sdk/core/yt/yt_l2.c **** 
 730:../switch_sdk/core/yt/yt_l2.c ****     return YT_DISPATCH(unit)->l2_fdb_copy2cpu_set(unit, vid, mac_addr, enable);
 6705              		.loc 1 730 5 discriminator 2 view .LVU1892
 6706              		.loc 1 730 29 is_stmt 0 discriminator 2 view .LVU1893
 6707 0028 D3F8D443 		ldr	r4, [r3, #980]
 6708              		.loc 1 730 12 discriminator 2 view .LVU1894
 6709 002c 0092     		str	r2, [sp]
 6710 002e 04AB     		add	r3, sp, #16
 6711 0030 13E90C00 		ldmdb	r3, {r2, r3}
 6712 0034 6046     		mov	r0, ip
 6713 0036 A047     		blx	r4
 6714              	.LVL841:
 6715              	.L688:
 731:../switch_sdk/core/yt/yt_l2.c **** }
 6716              		.loc 1 731 1 view .LVU1895
 6717 0038 04B0     		add	sp, sp, #16
 6718              		.cfi_remember_state
 6719              		.cfi_def_cfa_offset 8
 6720              		@ sp needed
 6721 003a 10BD     		pop	{r4, pc}
 6722              	.LVL842:
 6723              	.L701:
 6724              		.cfi_restore_state
 724:../switch_sdk/core/yt/yt_l2.c ****     CMM_PARAM_CHK(NULL == YT_DISPATCH(unit), CMM_ERR_NOT_INIT);
 6725              		.loc 1 724 5 is_stmt 1 discriminator 1 view .LVU1896
 724:../switch_sdk/core/yt/yt_l2.c ****     CMM_PARAM_CHK(NULL == YT_DISPATCH(unit), CMM_ERR_NOT_INIT);
 6726              		.loc 1 724 5 discriminator 1 view .LVU1897
 6727 003c 234B     		ldr	r3, .L711+4
 6728 003e 1B78     		ldrb	r3, [r3]	@ zero_extendqisi2
 6729 0040 012B     		cmp	r3, #1
 6730 0042 01D8     		bhi	.L706
 6731              	.LVL843:
 6732              	.L690:
 724:../switch_sdk/core/yt/yt_l2.c ****     CMM_PARAM_CHK(NULL == YT_DISPATCH(unit), CMM_ERR_NOT_INIT);
 6733              		.loc 1 724 5 discriminator 5 view .LVU1898
 724:../switch_sdk/core/yt/yt_l2.c ****     CMM_PARAM_CHK(NULL == YT_DISPATCH(unit), CMM_ERR_NOT_INIT);
 6734              		.loc 1 724 5 discriminator 5 view .LVU1899
 724:../switch_sdk/core/yt/yt_l2.c ****     CMM_PARAM_CHK(NULL == YT_DISPATCH(unit), CMM_ERR_NOT_INIT);
 6735              		.loc 1 724 5 discriminator 5 view .LVU1900
 6736 0044 0520     		movs	r0, #5
 6737 0046 F7E7     		b	.L688
 6738              	.LVL844:
 6739              	.L706:
 724:../switch_sdk/core/yt/yt_l2.c ****     CMM_PARAM_CHK(NULL == YT_DISPATCH(unit), CMM_ERR_NOT_INIT);
 6740              		.loc 1 724 5 discriminator 3 view .LVU1901
 6741              	.LBB135:
 724:../switch_sdk/core/yt/yt_l2.c ****     CMM_PARAM_CHK(NULL == YT_DISPATCH(unit), CMM_ERR_NOT_INIT);
 6742              		.loc 1 724 5 discriminator 3 view .LVU1902
 6743 0048 214B     		ldr	r3, .L711+8
 6744 004a 5A69     		ldr	r2, [r3, #20]
 6745 004c 214B     		ldr	r3, .L711+12
 6746 004e 9968     		ldr	r1, [r3, #8]
 6747              	.LVL845:
 724:../switch_sdk/core/yt/yt_l2.c ****     CMM_PARAM_CHK(NULL == YT_DISPATCH(unit), CMM_ERR_NOT_INIT);
 6748              		.loc 1 724 5 is_stmt 0 discriminator 3 view .LVU1903
 6749 0050 2148     		ldr	r0, .L711+16
 6750              	.LVL846:
 724:../switch_sdk/core/yt/yt_l2.c ****     CMM_PARAM_CHK(NULL == YT_DISPATCH(unit), CMM_ERR_NOT_INIT);
 6751              		.loc 1 724 5 discriminator 3 view .LVU1904
 6752 0052 FFF7FEFF 		bl	osal_printf
 6753              	.LVL847:
 6754 0056 F5E7     		b	.L690
 6755              	.LVL848:
 6756              	.L702:
 724:../switch_sdk/core/yt/yt_l2.c ****     CMM_PARAM_CHK(NULL == YT_DISPATCH(unit), CMM_ERR_NOT_INIT);
 6757              		.loc 1 724 5 discriminator 3 view .LVU1905
 6758              	.LBE135:
 725:../switch_sdk/core/yt/yt_l2.c ****     CMM_PARAM_CHK((!(YT_DISPATCH(unit)->is_inited)), CMM_ERR_NOT_INIT);
 6759              		.loc 1 725 5 is_stmt 1 discriminator 1 view .LVU1906
 725:../switch_sdk/core/yt/yt_l2.c ****     CMM_PARAM_CHK((!(YT_DISPATCH(unit)->is_inited)), CMM_ERR_NOT_INIT);
 6760              		.loc 1 725 5 discriminator 1 view .LVU1907
 6761 0058 1C4B     		ldr	r3, .L711+4
 6762 005a 1B78     		ldrb	r3, [r3]	@ zero_extendqisi2
 6763 005c 012B     		cmp	r3, #1
 6764 005e 01D8     		bhi	.L707
 6765              	.LVL849:
 6766              	.L693:
 725:../switch_sdk/core/yt/yt_l2.c ****     CMM_PARAM_CHK((!(YT_DISPATCH(unit)->is_inited)), CMM_ERR_NOT_INIT);
 6767              		.loc 1 725 5 discriminator 5 view .LVU1908
 725:../switch_sdk/core/yt/yt_l2.c ****     CMM_PARAM_CHK((!(YT_DISPATCH(unit)->is_inited)), CMM_ERR_NOT_INIT);
 6768              		.loc 1 725 5 discriminator 5 view .LVU1909
 725:../switch_sdk/core/yt/yt_l2.c ****     CMM_PARAM_CHK((!(YT_DISPATCH(unit)->is_inited)), CMM_ERR_NOT_INIT);
 6769              		.loc 1 725 5 discriminator 5 view .LVU1910
 6770 0060 0420     		movs	r0, #4
 6771 0062 E9E7     		b	.L688
 6772              	.LVL850:
 6773              	.L707:
 725:../switch_sdk/core/yt/yt_l2.c ****     CMM_PARAM_CHK((!(YT_DISPATCH(unit)->is_inited)), CMM_ERR_NOT_INIT);
 6774              		.loc 1 725 5 discriminator 3 view .LVU1911
 6775              	.LBB136:
 725:../switch_sdk/core/yt/yt_l2.c ****     CMM_PARAM_CHK((!(YT_DISPATCH(unit)->is_inited)), CMM_ERR_NOT_INIT);
 6776              		.loc 1 725 5 discriminator 3 view .LVU1912
 6777 0064 1A4B     		ldr	r3, .L711+8
 6778 0066 1A69     		ldr	r2, [r3, #16]
 6779 0068 1A4B     		ldr	r3, .L711+12
 6780 006a 9968     		ldr	r1, [r3, #8]
 6781              	.LVL851:
 725:../switch_sdk/core/yt/yt_l2.c ****     CMM_PARAM_CHK((!(YT_DISPATCH(unit)->is_inited)), CMM_ERR_NOT_INIT);
 6782              		.loc 1 725 5 is_stmt 0 discriminator 3 view .LVU1913
 6783 006c 1A48     		ldr	r0, .L711+16
 6784              	.LVL852:
 725:../switch_sdk/core/yt/yt_l2.c ****     CMM_PARAM_CHK((!(YT_DISPATCH(unit)->is_inited)), CMM_ERR_NOT_INIT);
 6785              		.loc 1 725 5 discriminator 3 view .LVU1914
 6786 006e FFF7FEFF 		bl	osal_printf
 6787              	.LVL853:
 6788 0072 F5E7     		b	.L693
 6789              	.LVL854:
 6790              	.L703:
 725:../switch_sdk/core/yt/yt_l2.c ****     CMM_PARAM_CHK((!(YT_DISPATCH(unit)->is_inited)), CMM_ERR_NOT_INIT);
 6791              		.loc 1 725 5 discriminator 3 view .LVU1915
 6792              	.LBE136:
 726:../switch_sdk/core/yt/yt_l2.c ****     CMM_PARAM_CHK((YT_VLAN_ID_MAX < vid), CMM_ERR_EXCEED_RANGE);
 6793              		.loc 1 726 5 is_stmt 1 discriminator 1 view .LVU1916
 726:../switch_sdk/core/yt/yt_l2.c ****     CMM_PARAM_CHK((YT_VLAN_ID_MAX < vid), CMM_ERR_EXCEED_RANGE);
 6794              		.loc 1 726 5 discriminator 1 view .LVU1917
 6795 0074 154B     		ldr	r3, .L711+4
 6796 0076 1B78     		ldrb	r3, [r3]	@ zero_extendqisi2
 6797 0078 012B     		cmp	r3, #1
 6798 007a 01D8     		bhi	.L708
 6799              	.LVL855:
 6800              	.L695:
 726:../switch_sdk/core/yt/yt_l2.c ****     CMM_PARAM_CHK((YT_VLAN_ID_MAX < vid), CMM_ERR_EXCEED_RANGE);
 6801              		.loc 1 726 5 discriminator 5 view .LVU1918
 726:../switch_sdk/core/yt/yt_l2.c ****     CMM_PARAM_CHK((YT_VLAN_ID_MAX < vid), CMM_ERR_EXCEED_RANGE);
 6802              		.loc 1 726 5 discriminator 5 view .LVU1919
 726:../switch_sdk/core/yt/yt_l2.c ****     CMM_PARAM_CHK((YT_VLAN_ID_MAX < vid), CMM_ERR_EXCEED_RANGE);
 6803              		.loc 1 726 5 discriminator 5 view .LVU1920
 6804 007c 0420     		movs	r0, #4
 6805 007e DBE7     		b	.L688
 6806              	.LVL856:
 6807              	.L708:
 726:../switch_sdk/core/yt/yt_l2.c ****     CMM_PARAM_CHK((YT_VLAN_ID_MAX < vid), CMM_ERR_EXCEED_RANGE);
 6808              		.loc 1 726 5 discriminator 3 view .LVU1921
 6809              	.LBB137:
 726:../switch_sdk/core/yt/yt_l2.c ****     CMM_PARAM_CHK((YT_VLAN_ID_MAX < vid), CMM_ERR_EXCEED_RANGE);
 6810              		.loc 1 726 5 discriminator 3 view .LVU1922
 6811 0080 134B     		ldr	r3, .L711+8
 6812 0082 1A69     		ldr	r2, [r3, #16]
 6813 0084 134B     		ldr	r3, .L711+12
 6814 0086 9968     		ldr	r1, [r3, #8]
 6815              	.LVL857:
 726:../switch_sdk/core/yt/yt_l2.c ****     CMM_PARAM_CHK((YT_VLAN_ID_MAX < vid), CMM_ERR_EXCEED_RANGE);
 6816              		.loc 1 726 5 is_stmt 0 discriminator 3 view .LVU1923
 6817 0088 1348     		ldr	r0, .L711+16
 6818 008a FFF7FEFF 		bl	osal_printf
 6819              	.LVL858:
 6820 008e F5E7     		b	.L695
 6821              	.LVL859:
 6822              	.L704:
 726:../switch_sdk/core/yt/yt_l2.c ****     CMM_PARAM_CHK((YT_VLAN_ID_MAX < vid), CMM_ERR_EXCEED_RANGE);
 6823              		.loc 1 726 5 discriminator 3 view .LVU1924
 6824              	.LBE137:
 727:../switch_sdk/core/yt/yt_l2.c ****     CMM_PARAM_CHK((YT_ENABLE < enable || YT_DISABLE > enable), CMM_ERR_INPUT);
 6825              		.loc 1 727 5 is_stmt 1 discriminator 1 view .LVU1925
 727:../switch_sdk/core/yt/yt_l2.c ****     CMM_PARAM_CHK((YT_ENABLE < enable || YT_DISABLE > enable), CMM_ERR_INPUT);
 6826              		.loc 1 727 5 discriminator 1 view .LVU1926
 6827 0090 0E4B     		ldr	r3, .L711+4
 6828 0092 1B78     		ldrb	r3, [r3]	@ zero_extendqisi2
 6829 0094 012B     		cmp	r3, #1
 6830 0096 01D8     		bhi	.L709
 6831              	.LVL860:
 6832              	.L697:
 727:../switch_sdk/core/yt/yt_l2.c ****     CMM_PARAM_CHK((YT_ENABLE < enable || YT_DISABLE > enable), CMM_ERR_INPUT);
 6833              		.loc 1 727 5 discriminator 5 view .LVU1927
 727:../switch_sdk/core/yt/yt_l2.c ****     CMM_PARAM_CHK((YT_ENABLE < enable || YT_DISABLE > enable), CMM_ERR_INPUT);
 6834              		.loc 1 727 5 discriminator 5 view .LVU1928
 727:../switch_sdk/core/yt/yt_l2.c ****     CMM_PARAM_CHK((YT_ENABLE < enable || YT_DISABLE > enable), CMM_ERR_INPUT);
 6835              		.loc 1 727 5 discriminator 5 view .LVU1929
 6836 0098 1120     		movs	r0, #17
 6837 009a CDE7     		b	.L688
 6838              	.LVL861:
 6839              	.L709:
 727:../switch_sdk/core/yt/yt_l2.c ****     CMM_PARAM_CHK((YT_ENABLE < enable || YT_DISABLE > enable), CMM_ERR_INPUT);
 6840              		.loc 1 727 5 discriminator 3 view .LVU1930
 6841              	.LBB138:
 727:../switch_sdk/core/yt/yt_l2.c ****     CMM_PARAM_CHK((YT_ENABLE < enable || YT_DISABLE > enable), CMM_ERR_INPUT);
 6842              		.loc 1 727 5 discriminator 3 view .LVU1931
 6843 009c 0C4B     		ldr	r3, .L711+8
 6844 009e 5A6C     		ldr	r2, [r3, #68]
 6845 00a0 0C4B     		ldr	r3, .L711+12
 6846 00a2 9968     		ldr	r1, [r3, #8]
 6847              	.LVL862:
 727:../switch_sdk/core/yt/yt_l2.c ****     CMM_PARAM_CHK((YT_ENABLE < enable || YT_DISABLE > enable), CMM_ERR_INPUT);
 6848              		.loc 1 727 5 is_stmt 0 discriminator 3 view .LVU1932
 6849 00a4 0C48     		ldr	r0, .L711+16
 6850 00a6 FFF7FEFF 		bl	osal_printf
 6851              	.LVL863:
 6852 00aa F5E7     		b	.L697
 6853              	.LVL864:
 6854              	.L705:
 727:../switch_sdk/core/yt/yt_l2.c ****     CMM_PARAM_CHK((YT_ENABLE < enable || YT_DISABLE > enable), CMM_ERR_INPUT);
 6855              		.loc 1 727 5 discriminator 3 view .LVU1933
 6856              	.LBE138:
 728:../switch_sdk/core/yt/yt_l2.c **** 
 6857              		.loc 1 728 5 is_stmt 1 discriminator 1 view .LVU1934
 728:../switch_sdk/core/yt/yt_l2.c **** 
 6858              		.loc 1 728 5 discriminator 1 view .LVU1935
 6859 00ac 074B     		ldr	r3, .L711+4
 6860 00ae 1B78     		ldrb	r3, [r3]	@ zero_extendqisi2
 6861 00b0 012B     		cmp	r3, #1
 6862 00b2 01D8     		bhi	.L710
 6863              	.LVL865:
 6864              	.L699:
 728:../switch_sdk/core/yt/yt_l2.c **** 
 6865              		.loc 1 728 5 discriminator 5 view .LVU1936
 728:../switch_sdk/core/yt/yt_l2.c **** 
 6866              		.loc 1 728 5 discriminator 5 view .LVU1937
 728:../switch_sdk/core/yt/yt_l2.c **** 
 6867              		.loc 1 728 5 discriminator 5 view .LVU1938
 6868 00b4 0520     		movs	r0, #5
 6869 00b6 BFE7     		b	.L688
 6870              	.LVL866:
 6871              	.L710:
 728:../switch_sdk/core/yt/yt_l2.c **** 
 6872              		.loc 1 728 5 discriminator 3 view .LVU1939
 6873              	.LBB139:
 728:../switch_sdk/core/yt/yt_l2.c **** 
 6874              		.loc 1 728 5 discriminator 3 view .LVU1940
 6875 00b8 054B     		ldr	r3, .L711+8
 6876 00ba 5A69     		ldr	r2, [r3, #20]
 6877 00bc 054B     		ldr	r3, .L711+12
 6878 00be 9968     		ldr	r1, [r3, #8]
 6879              	.LVL867:
 728:../switch_sdk/core/yt/yt_l2.c **** 
 6880              		.loc 1 728 5 is_stmt 0 discriminator 3 view .LVU1941
 6881 00c0 0548     		ldr	r0, .L711+16
 6882 00c2 FFF7FEFF 		bl	osal_printf
 6883              	.LVL868:
 6884 00c6 F5E7     		b	.L699
 6885              	.L712:
 6886              		.align	2
 6887              	.L711:
 6888 00c8 00000000 		.word	gpfal_dispatch
 6889 00cc 00000000 		.word	yt_debug_level
 6890 00d0 00000000 		.word	_yt_errmsg
 6891 00d4 00000000 		.word	_yt_prompt_msg
 6892 00d8 00000000 		.word	.LC0
 6893              	.LBE139:
 6894              		.cfi_endproc
 6895              	.LFE34:
 6897              		.section	.text.yt_l2_fdb_copy2cpu_get,"ax",%progbits
 6898              		.align	1
 6899              		.global	yt_l2_fdb_copy2cpu_get
 6900              		.syntax unified
 6901              		.thumb
 6902              		.thumb_func
 6904              	yt_l2_fdb_copy2cpu_get:
 6905              	.LVL869:
 6906              	.LFB35:
 732:../switch_sdk/core/yt/yt_l2.c **** 
 733:../switch_sdk/core/yt/yt_l2.c **** /**
 734:../switch_sdk/core/yt/yt_l2.c ****  * @internal      yt_l2_fdb_copy2cpu_get
 735:../switch_sdk/core/yt/yt_l2.c ****  * @endinternal
 736:../switch_sdk/core/yt/yt_l2.c ****  *
 737:../switch_sdk/core/yt/yt_l2.c ****  * @brief         Description
 738:../switch_sdk/core/yt/yt_l2.c ****  * @note          APPLICABLE DEVICES  -Tiger
 739:../switch_sdk/core/yt/yt_l2.c ****  * @param[in]     unit                -unit id
 740:../switch_sdk/core/yt/yt_l2.c ****  * @param[in]     vid                 -vlan id
 741:../switch_sdk/core/yt/yt_l2.c ****  * @param[in]     mac_addr            -yt_types.h
 742:../switch_sdk/core/yt/yt_l2.c ****  * @param[in]     pEnable             -enable or disable
 743:../switch_sdk/core/yt/yt_l2.c ****  * @retval        CMM_ERR_OK          -on success
 744:../switch_sdk/core/yt/yt_l2.c ****  * @retval        CMM_ERR_FAIL        -on fail
 745:../switch_sdk/core/yt/yt_l2.c ****  */
 746:../switch_sdk/core/yt/yt_l2.c **** yt_ret_t  yt_l2_fdb_copy2cpu_get(yt_unit_t unit, yt_vlan_t vid, yt_mac_addr_t mac_addr, yt_enable_t
 747:../switch_sdk/core/yt/yt_l2.c **** {
 6907              		.loc 1 747 1 is_stmt 1 view -0
 6908              		.cfi_startproc
 6909              		@ args = 4, pretend = 0, frame = 8
 6910              		@ frame_needed = 0, uses_anonymous_args = 0
 6911              		.loc 1 747 1 is_stmt 0 view .LVU1943
 6912 0000 10B5     		push	{r4, lr}
 6913              		.cfi_def_cfa_offset 8
 6914              		.cfi_offset 4, -8
 6915              		.cfi_offset 14, -4
 6916 0002 84B0     		sub	sp, sp, #16
 6917              		.cfi_def_cfa_offset 24
 6918 0004 04AC     		add	r4, sp, #16
 6919 0006 04E90C00 		stmdb	r4, {r2, r3}
 748:../switch_sdk/core/yt/yt_l2.c ****     CMM_PARAM_CHK((YT_UNIT_NUM <= unit), CMM_ERR_INPUT);
 6920              		.loc 1 748 5 is_stmt 1 view .LVU1944
 6921              		.loc 1 748 5 view .LVU1945
 6922 000a B0B9     		cbnz	r0, .L726
 6923              		.loc 1 748 5 discriminator 2 view .LVU1946
 749:../switch_sdk/core/yt/yt_l2.c ****     CMM_PARAM_CHK(NULL == YT_DISPATCH(unit), CMM_ERR_NOT_INIT);
 6924              		.loc 1 749 5 discriminator 2 view .LVU1947
 6925              		.loc 1 749 5 discriminator 2 view .LVU1948
 6926 000c 2E4B     		ldr	r3, .L736
 6927 000e 53F82030 		ldr	r3, [r3, r0, lsl #2]
 6928 0012 03B3     		cbz	r3, .L727
 6929              		.loc 1 749 5 discriminator 2 view .LVU1949
 750:../switch_sdk/core/yt/yt_l2.c ****     CMM_PARAM_CHK((!(YT_DISPATCH(unit)->is_inited)), CMM_ERR_NOT_INIT);
 6930              		.loc 1 750 5 discriminator 2 view .LVU1950
 6931              		.loc 1 750 5 discriminator 2 view .LVU1951
 6932 0014 1A78     		ldrb	r2, [r3]	@ zero_extendqisi2
 6933 0016 002A     		cmp	r2, #0
 6934 0018 2BD0     		beq	.L728
 6935              		.loc 1 750 5 discriminator 2 view .LVU1952
 751:../switch_sdk/core/yt/yt_l2.c ****     CMM_PARAM_CHK((YT_VLAN_ID_MAX < vid), CMM_ERR_EXCEED_RANGE);
 6936              		.loc 1 751 5 discriminator 2 view .LVU1953
 6937              		.loc 1 751 5 discriminator 2 view .LVU1954
 6938 001a B1F5805F 		cmp	r1, #4096
 6939 001e 36D2     		bcs	.L729
 6940              		.loc 1 751 5 discriminator 2 view .LVU1955
 752:../switch_sdk/core/yt/yt_l2.c ****     CMM_PARAM_CHK((NULL == pEnable), CMM_ERR_NULL_POINT);
 6941              		.loc 1 752 5 discriminator 2 view .LVU1956
 6942              		.loc 1 752 5 discriminator 2 view .LVU1957
 6943 0020 069A     		ldr	r2, [sp, #24]
 6944 0022 002A     		cmp	r2, #0
 6945 0024 41D0     		beq	.L730
 6946              		.loc 1 752 5 discriminator 2 view .LVU1958
 753:../switch_sdk/core/yt/yt_l2.c **** 
 754:../switch_sdk/core/yt/yt_l2.c ****     return YT_DISPATCH(unit)->l2_fdb_copy2cpu_get(unit, vid, mac_addr, pEnable);
 6947              		.loc 1 754 5 discriminator 2 view .LVU1959
 6948              		.loc 1 754 29 is_stmt 0 discriminator 2 view .LVU1960
 6949 0026 D3F8D843 		ldr	r4, [r3, #984]
 6950              		.loc 1 754 12 discriminator 2 view .LVU1961
 6951 002a 069B     		ldr	r3, [sp, #24]
 6952 002c 0093     		str	r3, [sp]
 6953 002e 04AB     		add	r3, sp, #16
 6954 0030 13E90C00 		ldmdb	r3, {r2, r3}
 6955 0034 A047     		blx	r4
 6956              	.LVL870:
 6957              	.L713:
 755:../switch_sdk/core/yt/yt_l2.c **** }
 6958              		.loc 1 755 1 view .LVU1962
 6959 0036 04B0     		add	sp, sp, #16
 6960              		.cfi_remember_state
 6961              		.cfi_def_cfa_offset 8
 6962              		@ sp needed
 6963 0038 10BD     		pop	{r4, pc}
 6964              	.LVL871:
 6965              	.L726:
 6966              		.cfi_restore_state
 748:../switch_sdk/core/yt/yt_l2.c ****     CMM_PARAM_CHK(NULL == YT_DISPATCH(unit), CMM_ERR_NOT_INIT);
 6967              		.loc 1 748 5 is_stmt 1 discriminator 1 view .LVU1963
 748:../switch_sdk/core/yt/yt_l2.c ****     CMM_PARAM_CHK(NULL == YT_DISPATCH(unit), CMM_ERR_NOT_INIT);
 6968              		.loc 1 748 5 discriminator 1 view .LVU1964
 6969 003a 244B     		ldr	r3, .L736+4
 6970 003c 1B78     		ldrb	r3, [r3]	@ zero_extendqisi2
 6971 003e 012B     		cmp	r3, #1
 6972 0040 01D8     		bhi	.L731
 6973              	.LVL872:
 6974              	.L715:
 748:../switch_sdk/core/yt/yt_l2.c ****     CMM_PARAM_CHK(NULL == YT_DISPATCH(unit), CMM_ERR_NOT_INIT);
 6975              		.loc 1 748 5 discriminator 5 view .LVU1965
 748:../switch_sdk/core/yt/yt_l2.c ****     CMM_PARAM_CHK(NULL == YT_DISPATCH(unit), CMM_ERR_NOT_INIT);
 6976              		.loc 1 748 5 discriminator 5 view .LVU1966
 748:../switch_sdk/core/yt/yt_l2.c ****     CMM_PARAM_CHK(NULL == YT_DISPATCH(unit), CMM_ERR_NOT_INIT);
 6977              		.loc 1 748 5 discriminator 5 view .LVU1967
 6978 0042 0520     		movs	r0, #5
 6979 0044 F7E7     		b	.L713
 6980              	.LVL873:
 6981              	.L731:
 748:../switch_sdk/core/yt/yt_l2.c ****     CMM_PARAM_CHK(NULL == YT_DISPATCH(unit), CMM_ERR_NOT_INIT);
 6982              		.loc 1 748 5 discriminator 3 view .LVU1968
 6983              	.LBB140:
 748:../switch_sdk/core/yt/yt_l2.c ****     CMM_PARAM_CHK(NULL == YT_DISPATCH(unit), CMM_ERR_NOT_INIT);
 6984              		.loc 1 748 5 discriminator 3 view .LVU1969
 6985 0046 224B     		ldr	r3, .L736+8
 6986 0048 5A69     		ldr	r2, [r3, #20]
 6987 004a 224B     		ldr	r3, .L736+12
 6988 004c 9968     		ldr	r1, [r3, #8]
 6989              	.LVL874:
 748:../switch_sdk/core/yt/yt_l2.c ****     CMM_PARAM_CHK(NULL == YT_DISPATCH(unit), CMM_ERR_NOT_INIT);
 6990              		.loc 1 748 5 is_stmt 0 discriminator 3 view .LVU1970
 6991 004e 2248     		ldr	r0, .L736+16
 6992              	.LVL875:
 748:../switch_sdk/core/yt/yt_l2.c ****     CMM_PARAM_CHK(NULL == YT_DISPATCH(unit), CMM_ERR_NOT_INIT);
 6993              		.loc 1 748 5 discriminator 3 view .LVU1971
 6994 0050 FFF7FEFF 		bl	osal_printf
 6995              	.LVL876:
 6996 0054 F5E7     		b	.L715
 6997              	.LVL877:
 6998              	.L727:
 748:../switch_sdk/core/yt/yt_l2.c ****     CMM_PARAM_CHK(NULL == YT_DISPATCH(unit), CMM_ERR_NOT_INIT);
 6999              		.loc 1 748 5 discriminator 3 view .LVU1972
 7000              	.LBE140:
 749:../switch_sdk/core/yt/yt_l2.c ****     CMM_PARAM_CHK((!(YT_DISPATCH(unit)->is_inited)), CMM_ERR_NOT_INIT);
 7001              		.loc 1 749 5 is_stmt 1 discriminator 1 view .LVU1973
 749:../switch_sdk/core/yt/yt_l2.c ****     CMM_PARAM_CHK((!(YT_DISPATCH(unit)->is_inited)), CMM_ERR_NOT_INIT);
 7002              		.loc 1 749 5 discriminator 1 view .LVU1974
 7003 0056 1D4B     		ldr	r3, .L736+4
 7004 0058 1B78     		ldrb	r3, [r3]	@ zero_extendqisi2
 7005 005a 012B     		cmp	r3, #1
 7006 005c 01D8     		bhi	.L732
 7007              	.LVL878:
 7008              	.L718:
 749:../switch_sdk/core/yt/yt_l2.c ****     CMM_PARAM_CHK((!(YT_DISPATCH(unit)->is_inited)), CMM_ERR_NOT_INIT);
 7009              		.loc 1 749 5 discriminator 5 view .LVU1975
 749:../switch_sdk/core/yt/yt_l2.c ****     CMM_PARAM_CHK((!(YT_DISPATCH(unit)->is_inited)), CMM_ERR_NOT_INIT);
 7010              		.loc 1 749 5 discriminator 5 view .LVU1976
 749:../switch_sdk/core/yt/yt_l2.c ****     CMM_PARAM_CHK((!(YT_DISPATCH(unit)->is_inited)), CMM_ERR_NOT_INIT);
 7011              		.loc 1 749 5 discriminator 5 view .LVU1977
 7012 005e 0420     		movs	r0, #4
 7013 0060 E9E7     		b	.L713
 7014              	.LVL879:
 7015              	.L732:
 749:../switch_sdk/core/yt/yt_l2.c ****     CMM_PARAM_CHK((!(YT_DISPATCH(unit)->is_inited)), CMM_ERR_NOT_INIT);
 7016              		.loc 1 749 5 discriminator 3 view .LVU1978
 7017              	.LBB141:
 749:../switch_sdk/core/yt/yt_l2.c ****     CMM_PARAM_CHK((!(YT_DISPATCH(unit)->is_inited)), CMM_ERR_NOT_INIT);
 7018              		.loc 1 749 5 discriminator 3 view .LVU1979
 7019 0062 1B4B     		ldr	r3, .L736+8
 7020 0064 1A69     		ldr	r2, [r3, #16]
 7021 0066 1B4B     		ldr	r3, .L736+12
 7022 0068 9968     		ldr	r1, [r3, #8]
 7023              	.LVL880:
 749:../switch_sdk/core/yt/yt_l2.c ****     CMM_PARAM_CHK((!(YT_DISPATCH(unit)->is_inited)), CMM_ERR_NOT_INIT);
 7024              		.loc 1 749 5 is_stmt 0 discriminator 3 view .LVU1980
 7025 006a 1B48     		ldr	r0, .L736+16
 7026              	.LVL881:
 749:../switch_sdk/core/yt/yt_l2.c ****     CMM_PARAM_CHK((!(YT_DISPATCH(unit)->is_inited)), CMM_ERR_NOT_INIT);
 7027              		.loc 1 749 5 discriminator 3 view .LVU1981
 7028 006c FFF7FEFF 		bl	osal_printf
 7029              	.LVL882:
 7030 0070 F5E7     		b	.L718
 7031              	.LVL883:
 7032              	.L728:
 749:../switch_sdk/core/yt/yt_l2.c ****     CMM_PARAM_CHK((!(YT_DISPATCH(unit)->is_inited)), CMM_ERR_NOT_INIT);
 7033              		.loc 1 749 5 discriminator 3 view .LVU1982
 7034              	.LBE141:
 750:../switch_sdk/core/yt/yt_l2.c ****     CMM_PARAM_CHK((YT_VLAN_ID_MAX < vid), CMM_ERR_EXCEED_RANGE);
 7035              		.loc 1 750 5 is_stmt 1 discriminator 1 view .LVU1983
 750:../switch_sdk/core/yt/yt_l2.c ****     CMM_PARAM_CHK((YT_VLAN_ID_MAX < vid), CMM_ERR_EXCEED_RANGE);
 7036              		.loc 1 750 5 discriminator 1 view .LVU1984
 7037 0072 164B     		ldr	r3, .L736+4
 7038 0074 1B78     		ldrb	r3, [r3]	@ zero_extendqisi2
 7039 0076 012B     		cmp	r3, #1
 7040 0078 01D8     		bhi	.L733
 7041              	.LVL884:
 7042              	.L720:
 750:../switch_sdk/core/yt/yt_l2.c ****     CMM_PARAM_CHK((YT_VLAN_ID_MAX < vid), CMM_ERR_EXCEED_RANGE);
 7043              		.loc 1 750 5 discriminator 5 view .LVU1985
 750:../switch_sdk/core/yt/yt_l2.c ****     CMM_PARAM_CHK((YT_VLAN_ID_MAX < vid), CMM_ERR_EXCEED_RANGE);
 7044              		.loc 1 750 5 discriminator 5 view .LVU1986
 750:../switch_sdk/core/yt/yt_l2.c ****     CMM_PARAM_CHK((YT_VLAN_ID_MAX < vid), CMM_ERR_EXCEED_RANGE);
 7045              		.loc 1 750 5 discriminator 5 view .LVU1987
 7046 007a 0420     		movs	r0, #4
 7047 007c DBE7     		b	.L713
 7048              	.LVL885:
 7049              	.L733:
 750:../switch_sdk/core/yt/yt_l2.c ****     CMM_PARAM_CHK((YT_VLAN_ID_MAX < vid), CMM_ERR_EXCEED_RANGE);
 7050              		.loc 1 750 5 discriminator 3 view .LVU1988
 7051              	.LBB142:
 750:../switch_sdk/core/yt/yt_l2.c ****     CMM_PARAM_CHK((YT_VLAN_ID_MAX < vid), CMM_ERR_EXCEED_RANGE);
 7052              		.loc 1 750 5 discriminator 3 view .LVU1989
 7053 007e 144B     		ldr	r3, .L736+8
 7054 0080 1A69     		ldr	r2, [r3, #16]
 7055 0082 144B     		ldr	r3, .L736+12
 7056 0084 9968     		ldr	r1, [r3, #8]
 7057              	.LVL886:
 750:../switch_sdk/core/yt/yt_l2.c ****     CMM_PARAM_CHK((YT_VLAN_ID_MAX < vid), CMM_ERR_EXCEED_RANGE);
 7058              		.loc 1 750 5 is_stmt 0 discriminator 3 view .LVU1990
 7059 0086 1448     		ldr	r0, .L736+16
 7060              	.LVL887:
 750:../switch_sdk/core/yt/yt_l2.c ****     CMM_PARAM_CHK((YT_VLAN_ID_MAX < vid), CMM_ERR_EXCEED_RANGE);
 7061              		.loc 1 750 5 discriminator 3 view .LVU1991
 7062 0088 FFF7FEFF 		bl	osal_printf
 7063              	.LVL888:
 7064 008c F5E7     		b	.L720
 7065              	.LVL889:
 7066              	.L729:
 750:../switch_sdk/core/yt/yt_l2.c ****     CMM_PARAM_CHK((YT_VLAN_ID_MAX < vid), CMM_ERR_EXCEED_RANGE);
 7067              		.loc 1 750 5 discriminator 3 view .LVU1992
 7068              	.LBE142:
 751:../switch_sdk/core/yt/yt_l2.c ****     CMM_PARAM_CHK((NULL == pEnable), CMM_ERR_NULL_POINT);
 7069              		.loc 1 751 5 is_stmt 1 discriminator 1 view .LVU1993
 751:../switch_sdk/core/yt/yt_l2.c ****     CMM_PARAM_CHK((NULL == pEnable), CMM_ERR_NULL_POINT);
 7070              		.loc 1 751 5 discriminator 1 view .LVU1994
 7071 008e 0F4B     		ldr	r3, .L736+4
 7072 0090 1B78     		ldrb	r3, [r3]	@ zero_extendqisi2
 7073 0092 012B     		cmp	r3, #1
 7074 0094 01D8     		bhi	.L734
 7075              	.LVL890:
 7076              	.L722:
 751:../switch_sdk/core/yt/yt_l2.c ****     CMM_PARAM_CHK((NULL == pEnable), CMM_ERR_NULL_POINT);
 7077              		.loc 1 751 5 discriminator 5 view .LVU1995
 751:../switch_sdk/core/yt/yt_l2.c ****     CMM_PARAM_CHK((NULL == pEnable), CMM_ERR_NULL_POINT);
 7078              		.loc 1 751 5 discriminator 5 view .LVU1996
 751:../switch_sdk/core/yt/yt_l2.c ****     CMM_PARAM_CHK((NULL == pEnable), CMM_ERR_NULL_POINT);
 7079              		.loc 1 751 5 discriminator 5 view .LVU1997
 7080 0096 1120     		movs	r0, #17
 7081 0098 CDE7     		b	.L713
 7082              	.LVL891:
 7083              	.L734:
 751:../switch_sdk/core/yt/yt_l2.c ****     CMM_PARAM_CHK((NULL == pEnable), CMM_ERR_NULL_POINT);
 7084              		.loc 1 751 5 discriminator 3 view .LVU1998
 7085              	.LBB143:
 751:../switch_sdk/core/yt/yt_l2.c ****     CMM_PARAM_CHK((NULL == pEnable), CMM_ERR_NULL_POINT);
 7086              		.loc 1 751 5 discriminator 3 view .LVU1999
 7087 009a 0D4B     		ldr	r3, .L736+8
 7088 009c 5A6C     		ldr	r2, [r3, #68]
 7089 009e 0D4B     		ldr	r3, .L736+12
 7090 00a0 9968     		ldr	r1, [r3, #8]
 7091              	.LVL892:
 751:../switch_sdk/core/yt/yt_l2.c ****     CMM_PARAM_CHK((NULL == pEnable), CMM_ERR_NULL_POINT);
 7092              		.loc 1 751 5 is_stmt 0 discriminator 3 view .LVU2000
 7093 00a2 0D48     		ldr	r0, .L736+16
 7094              	.LVL893:
 751:../switch_sdk/core/yt/yt_l2.c ****     CMM_PARAM_CHK((NULL == pEnable), CMM_ERR_NULL_POINT);
 7095              		.loc 1 751 5 discriminator 3 view .LVU2001
 7096 00a4 FFF7FEFF 		bl	osal_printf
 7097              	.LVL894:
 7098 00a8 F5E7     		b	.L722
 7099              	.LVL895:
 7100              	.L730:
 751:../switch_sdk/core/yt/yt_l2.c ****     CMM_PARAM_CHK((NULL == pEnable), CMM_ERR_NULL_POINT);
 7101              		.loc 1 751 5 discriminator 3 view .LVU2002
 7102              	.LBE143:
 752:../switch_sdk/core/yt/yt_l2.c **** 
 7103              		.loc 1 752 5 is_stmt 1 discriminator 1 view .LVU2003
 752:../switch_sdk/core/yt/yt_l2.c **** 
 7104              		.loc 1 752 5 discriminator 1 view .LVU2004
 7105 00aa 084B     		ldr	r3, .L736+4
 7106 00ac 1B78     		ldrb	r3, [r3]	@ zero_extendqisi2
 7107 00ae 012B     		cmp	r3, #1
 7108 00b0 01D8     		bhi	.L735
 7109              	.LVL896:
 7110              	.L724:
 752:../switch_sdk/core/yt/yt_l2.c **** 
 7111              		.loc 1 752 5 discriminator 5 view .LVU2005
 752:../switch_sdk/core/yt/yt_l2.c **** 
 7112              		.loc 1 752 5 discriminator 5 view .LVU2006
 752:../switch_sdk/core/yt/yt_l2.c **** 
 7113              		.loc 1 752 5 discriminator 5 view .LVU2007
 7114 00b2 0220     		movs	r0, #2
 7115 00b4 BFE7     		b	.L713
 7116              	.LVL897:
 7117              	.L735:
 752:../switch_sdk/core/yt/yt_l2.c **** 
 7118              		.loc 1 752 5 discriminator 3 view .LVU2008
 7119              	.LBB144:
 752:../switch_sdk/core/yt/yt_l2.c **** 
 7120              		.loc 1 752 5 discriminator 3 view .LVU2009
 7121 00b6 064B     		ldr	r3, .L736+8
 7122 00b8 9A68     		ldr	r2, [r3, #8]
 7123 00ba 064B     		ldr	r3, .L736+12
 7124 00bc 9968     		ldr	r1, [r3, #8]
 7125              	.LVL898:
 752:../switch_sdk/core/yt/yt_l2.c **** 
 7126              		.loc 1 752 5 is_stmt 0 discriminator 3 view .LVU2010
 7127 00be 0648     		ldr	r0, .L736+16
 7128              	.LVL899:
 752:../switch_sdk/core/yt/yt_l2.c **** 
 7129              		.loc 1 752 5 discriminator 3 view .LVU2011
 7130 00c0 FFF7FEFF 		bl	osal_printf
 7131              	.LVL900:
 7132 00c4 F5E7     		b	.L724
 7133              	.L737:
 7134 00c6 00BF     		.align	2
 7135              	.L736:
 7136 00c8 00000000 		.word	gpfal_dispatch
 7137 00cc 00000000 		.word	yt_debug_level
 7138 00d0 00000000 		.word	_yt_errmsg
 7139 00d4 00000000 		.word	_yt_prompt_msg
 7140 00d8 00000000 		.word	.LC0
 7141              	.LBE144:
 7142              		.cfi_endproc
 7143              	.LFE35:
 7145              		.section	.text.yt_l2_filter_mcast_set,"ax",%progbits
 7146              		.align	1
 7147              		.global	yt_l2_filter_mcast_set
 7148              		.syntax unified
 7149              		.thumb
 7150              		.thumb_func
 7152              	yt_l2_filter_mcast_set:
 7153              	.LVL901:
 7154              	.LFB36:
 756:../switch_sdk/core/yt/yt_l2.c **** 
 757:../switch_sdk/core/yt/yt_l2.c **** /**
 758:../switch_sdk/core/yt/yt_l2.c ****  * @internal      yt_l2_filter_mcast_set
 759:../switch_sdk/core/yt/yt_l2.c ****  * @endinternal
 760:../switch_sdk/core/yt/yt_l2.c ****  *
 761:../switch_sdk/core/yt/yt_l2.c ****  * @brief         Description
 762:../switch_sdk/core/yt/yt_l2.c ****  * @note          APPLICABLE DEVICES  -Tiger
 763:../switch_sdk/core/yt/yt_l2.c ****  * @param[in]     unit                -unit id
 764:../switch_sdk/core/yt/yt_l2.c ****  * @param[in]     port_mask           -port bit mask
 765:../switch_sdk/core/yt/yt_l2.c ****  * @retval        CMM_ERR_OK          -on success
 766:../switch_sdk/core/yt/yt_l2.c ****  * @retval        CMM_ERR_FAIL        -on fail
 767:../switch_sdk/core/yt/yt_l2.c ****  */
 768:../switch_sdk/core/yt/yt_l2.c **** yt_ret_t  yt_l2_filter_mcast_set(yt_unit_t unit, yt_port_mask_t port_mask)
 769:../switch_sdk/core/yt/yt_l2.c **** {
 7155              		.loc 1 769 1 is_stmt 1 view -0
 7156              		.cfi_startproc
 7157              		@ args = 0, pretend = 0, frame = 0
 7158              		@ frame_needed = 0, uses_anonymous_args = 0
 7159              		.loc 1 769 1 is_stmt 0 view .LVU2013
 7160 0000 38B5     		push	{r3, r4, r5, lr}
 7161              		.cfi_def_cfa_offset 16
 7162              		.cfi_offset 3, -16
 7163              		.cfi_offset 4, -12
 7164              		.cfi_offset 5, -8
 7165              		.cfi_offset 14, -4
 770:../switch_sdk/core/yt/yt_l2.c ****     CMM_PARAM_CHK((YT_UNIT_NUM <= unit), CMM_ERR_INPUT);
 7166              		.loc 1 770 5 is_stmt 1 view .LVU2014
 7167              		.loc 1 770 5 view .LVU2015
 7168 0002 A8B9     		cbnz	r0, .L749
 7169 0004 0D46     		mov	r5, r1
 7170              	.LVL902:
 7171              		.loc 1 770 5 is_stmt 0 view .LVU2016
 7172 0006 0446     		mov	r4, r0
 7173              		.loc 1 770 5 is_stmt 1 discriminator 2 view .LVU2017
 771:../switch_sdk/core/yt/yt_l2.c ****     CMM_PARAM_CHK(NULL == YT_DISPATCH(unit), CMM_ERR_NOT_INIT);
 7174              		.loc 1 771 5 discriminator 2 view .LVU2018
 7175              		.loc 1 771 5 discriminator 2 view .LVU2019
 7176 0008 254B     		ldr	r3, .L757
 7177 000a 53F82030 		ldr	r3, [r3, r0, lsl #2]
 7178 000e EBB1     		cbz	r3, .L750
 7179              		.loc 1 771 5 discriminator 2 view .LVU2020
 772:../switch_sdk/core/yt/yt_l2.c ****     CMM_PARAM_CHK((!(YT_DISPATCH(unit)->is_inited)), CMM_ERR_NOT_INIT);
 7180              		.loc 1 772 5 discriminator 2 view .LVU2021
 7181              		.loc 1 772 5 discriminator 2 view .LVU2022
 7182 0010 1B78     		ldrb	r3, [r3]	@ zero_extendqisi2
 7183 0012 4BB3     		cbz	r3, .L751
 7184              		.loc 1 772 5 discriminator 2 view .LVU2023
 773:../switch_sdk/core/yt/yt_l2.c ****     CMM_PARAM_CHK((!(CMM_PLIST_CPUPORT_VALID(unit, port_mask))), CMM_ERR_PORTLIST);
 7185              		.loc 1 773 5 discriminator 2 view .LVU2024
 7186              		.loc 1 773 5 discriminator 2 view .LVU2025
 7187 0014 0122     		movs	r2, #1
 7188 0016 FFF7FEFF 		bl	cal_ytportmask_isvalid
 7189              	.LVL903:
 7190              		.loc 1 773 5 is_stmt 0 discriminator 2 view .LVU2026
 7191 001a 0028     		cmp	r0, #0
 7192 001c 32D1     		bne	.L752
 7193              		.loc 1 773 5 is_stmt 1 discriminator 2 view .LVU2027
 774:../switch_sdk/core/yt/yt_l2.c **** 
 775:../switch_sdk/core/yt/yt_l2.c ****     return YT_DISPATCH(unit)->l2_filter_mcast_set(unit, port_mask);
 7194              		.loc 1 775 5 discriminator 2 view .LVU2028
 7195              		.loc 1 775 12 is_stmt 0 discriminator 2 view .LVU2029
 7196 001e 204B     		ldr	r3, .L757
 7197 0020 53F82430 		ldr	r3, [r3, r4, lsl #2]
 7198              		.loc 1 775 29 discriminator 2 view .LVU2030
 7199 0024 D3F8DC33 		ldr	r3, [r3, #988]
 7200              	.LVL904:
 7201              		.loc 1 775 12 discriminator 2 view .LVU2031
 7202 0028 2946     		mov	r1, r5
 7203 002a 2046     		mov	r0, r4
 7204 002c 9847     		blx	r3
 7205              	.LVL905:
 7206              	.L738:
 776:../switch_sdk/core/yt/yt_l2.c **** }
 7207              		.loc 1 776 1 view .LVU2032
 7208 002e 38BD     		pop	{r3, r4, r5, pc}
 7209              	.LVL906:
 7210              	.L749:
 770:../switch_sdk/core/yt/yt_l2.c ****     CMM_PARAM_CHK(NULL == YT_DISPATCH(unit), CMM_ERR_NOT_INIT);
 7211              		.loc 1 770 5 is_stmt 1 discriminator 1 view .LVU2033
 770:../switch_sdk/core/yt/yt_l2.c ****     CMM_PARAM_CHK(NULL == YT_DISPATCH(unit), CMM_ERR_NOT_INIT);
 7212              		.loc 1 770 5 discriminator 1 view .LVU2034
 7213 0030 1C4B     		ldr	r3, .L757+4
 7214 0032 1B78     		ldrb	r3, [r3]	@ zero_extendqisi2
 7215 0034 012B     		cmp	r3, #1
 7216 0036 01D8     		bhi	.L753
 7217              	.LVL907:
 7218              	.L740:
 770:../switch_sdk/core/yt/yt_l2.c ****     CMM_PARAM_CHK(NULL == YT_DISPATCH(unit), CMM_ERR_NOT_INIT);
 7219              		.loc 1 770 5 discriminator 5 view .LVU2035
 770:../switch_sdk/core/yt/yt_l2.c ****     CMM_PARAM_CHK(NULL == YT_DISPATCH(unit), CMM_ERR_NOT_INIT);
 7220              		.loc 1 770 5 discriminator 5 view .LVU2036
 770:../switch_sdk/core/yt/yt_l2.c ****     CMM_PARAM_CHK(NULL == YT_DISPATCH(unit), CMM_ERR_NOT_INIT);
 7221              		.loc 1 770 5 discriminator 5 view .LVU2037
 7222 0038 0520     		movs	r0, #5
 7223 003a F8E7     		b	.L738
 7224              	.LVL908:
 7225              	.L753:
 770:../switch_sdk/core/yt/yt_l2.c ****     CMM_PARAM_CHK(NULL == YT_DISPATCH(unit), CMM_ERR_NOT_INIT);
 7226              		.loc 1 770 5 discriminator 3 view .LVU2038
 7227              	.LBB145:
 770:../switch_sdk/core/yt/yt_l2.c ****     CMM_PARAM_CHK(NULL == YT_DISPATCH(unit), CMM_ERR_NOT_INIT);
 7228              		.loc 1 770 5 discriminator 3 view .LVU2039
 7229 003c 1A4B     		ldr	r3, .L757+8
 7230 003e 5A69     		ldr	r2, [r3, #20]
 7231 0040 1A4B     		ldr	r3, .L757+12
 7232 0042 9968     		ldr	r1, [r3, #8]
 7233              	.LVL909:
 770:../switch_sdk/core/yt/yt_l2.c ****     CMM_PARAM_CHK(NULL == YT_DISPATCH(unit), CMM_ERR_NOT_INIT);
 7234              		.loc 1 770 5 is_stmt 0 discriminator 3 view .LVU2040
 7235 0044 1A48     		ldr	r0, .L757+16
 7236              	.LVL910:
 770:../switch_sdk/core/yt/yt_l2.c ****     CMM_PARAM_CHK(NULL == YT_DISPATCH(unit), CMM_ERR_NOT_INIT);
 7237              		.loc 1 770 5 discriminator 3 view .LVU2041
 7238 0046 FFF7FEFF 		bl	osal_printf
 7239              	.LVL911:
 7240 004a F5E7     		b	.L740
 7241              	.LVL912:
 7242              	.L750:
 770:../switch_sdk/core/yt/yt_l2.c ****     CMM_PARAM_CHK(NULL == YT_DISPATCH(unit), CMM_ERR_NOT_INIT);
 7243              		.loc 1 770 5 discriminator 3 view .LVU2042
 7244              	.LBE145:
 771:../switch_sdk/core/yt/yt_l2.c ****     CMM_PARAM_CHK((!(YT_DISPATCH(unit)->is_inited)), CMM_ERR_NOT_INIT);
 7245              		.loc 1 771 5 is_stmt 1 discriminator 1 view .LVU2043
 771:../switch_sdk/core/yt/yt_l2.c ****     CMM_PARAM_CHK((!(YT_DISPATCH(unit)->is_inited)), CMM_ERR_NOT_INIT);
 7246              		.loc 1 771 5 discriminator 1 view .LVU2044
 7247 004c 154B     		ldr	r3, .L757+4
 7248 004e 1B78     		ldrb	r3, [r3]	@ zero_extendqisi2
 7249 0050 012B     		cmp	r3, #1
 7250 0052 01D8     		bhi	.L754
 7251              	.LVL913:
 7252              	.L743:
 771:../switch_sdk/core/yt/yt_l2.c ****     CMM_PARAM_CHK((!(YT_DISPATCH(unit)->is_inited)), CMM_ERR_NOT_INIT);
 7253              		.loc 1 771 5 discriminator 5 view .LVU2045
 771:../switch_sdk/core/yt/yt_l2.c ****     CMM_PARAM_CHK((!(YT_DISPATCH(unit)->is_inited)), CMM_ERR_NOT_INIT);
 7254              		.loc 1 771 5 discriminator 5 view .LVU2046
 771:../switch_sdk/core/yt/yt_l2.c ****     CMM_PARAM_CHK((!(YT_DISPATCH(unit)->is_inited)), CMM_ERR_NOT_INIT);
 7255              		.loc 1 771 5 discriminator 5 view .LVU2047
 7256 0054 0420     		movs	r0, #4
 7257 0056 EAE7     		b	.L738
 7258              	.LVL914:
 7259              	.L754:
 771:../switch_sdk/core/yt/yt_l2.c ****     CMM_PARAM_CHK((!(YT_DISPATCH(unit)->is_inited)), CMM_ERR_NOT_INIT);
 7260              		.loc 1 771 5 discriminator 3 view .LVU2048
 7261              	.LBB146:
 771:../switch_sdk/core/yt/yt_l2.c ****     CMM_PARAM_CHK((!(YT_DISPATCH(unit)->is_inited)), CMM_ERR_NOT_INIT);
 7262              		.loc 1 771 5 discriminator 3 view .LVU2049
 7263 0058 134B     		ldr	r3, .L757+8
 7264 005a 1A69     		ldr	r2, [r3, #16]
 7265 005c 134B     		ldr	r3, .L757+12
 7266 005e 9968     		ldr	r1, [r3, #8]
 7267 0060 1348     		ldr	r0, .L757+16
 7268              	.LVL915:
 771:../switch_sdk/core/yt/yt_l2.c ****     CMM_PARAM_CHK((!(YT_DISPATCH(unit)->is_inited)), CMM_ERR_NOT_INIT);
 7269              		.loc 1 771 5 is_stmt 0 discriminator 3 view .LVU2050
 7270 0062 FFF7FEFF 		bl	osal_printf
 7271              	.LVL916:
 7272 0066 F5E7     		b	.L743
 7273              	.LVL917:
 7274              	.L751:
 771:../switch_sdk/core/yt/yt_l2.c ****     CMM_PARAM_CHK((!(YT_DISPATCH(unit)->is_inited)), CMM_ERR_NOT_INIT);
 7275              		.loc 1 771 5 discriminator 3 view .LVU2051
 7276              	.LBE146:
 772:../switch_sdk/core/yt/yt_l2.c ****     CMM_PARAM_CHK((!(CMM_PLIST_CPUPORT_VALID(unit, port_mask))), CMM_ERR_PORTLIST);
 7277              		.loc 1 772 5 is_stmt 1 discriminator 1 view .LVU2052
 772:../switch_sdk/core/yt/yt_l2.c ****     CMM_PARAM_CHK((!(CMM_PLIST_CPUPORT_VALID(unit, port_mask))), CMM_ERR_PORTLIST);
 7278              		.loc 1 772 5 discriminator 1 view .LVU2053
 7279 0068 0E4B     		ldr	r3, .L757+4
 7280 006a 1B78     		ldrb	r3, [r3]	@ zero_extendqisi2
 7281 006c 012B     		cmp	r3, #1
 7282 006e 01D8     		bhi	.L755
 7283              	.LVL918:
 7284              	.L745:
 772:../switch_sdk/core/yt/yt_l2.c ****     CMM_PARAM_CHK((!(CMM_PLIST_CPUPORT_VALID(unit, port_mask))), CMM_ERR_PORTLIST);
 7285              		.loc 1 772 5 discriminator 5 view .LVU2054
 772:../switch_sdk/core/yt/yt_l2.c ****     CMM_PARAM_CHK((!(CMM_PLIST_CPUPORT_VALID(unit, port_mask))), CMM_ERR_PORTLIST);
 7286              		.loc 1 772 5 discriminator 5 view .LVU2055
 772:../switch_sdk/core/yt/yt_l2.c ****     CMM_PARAM_CHK((!(CMM_PLIST_CPUPORT_VALID(unit, port_mask))), CMM_ERR_PORTLIST);
 7287              		.loc 1 772 5 discriminator 5 view .LVU2056
 7288 0070 0420     		movs	r0, #4
 7289 0072 DCE7     		b	.L738
 7290              	.LVL919:
 7291              	.L755:
 772:../switch_sdk/core/yt/yt_l2.c ****     CMM_PARAM_CHK((!(CMM_PLIST_CPUPORT_VALID(unit, port_mask))), CMM_ERR_PORTLIST);
 7292              		.loc 1 772 5 discriminator 3 view .LVU2057
 7293              	.LBB147:
 772:../switch_sdk/core/yt/yt_l2.c ****     CMM_PARAM_CHK((!(CMM_PLIST_CPUPORT_VALID(unit, port_mask))), CMM_ERR_PORTLIST);
 7294              		.loc 1 772 5 discriminator 3 view .LVU2058
 7295 0074 0C4B     		ldr	r3, .L757+8
 7296 0076 1A69     		ldr	r2, [r3, #16]
 7297 0078 0C4B     		ldr	r3, .L757+12
 7298 007a 9968     		ldr	r1, [r3, #8]
 7299 007c 0C48     		ldr	r0, .L757+16
 7300              	.LVL920:
 772:../switch_sdk/core/yt/yt_l2.c ****     CMM_PARAM_CHK((!(CMM_PLIST_CPUPORT_VALID(unit, port_mask))), CMM_ERR_PORTLIST);
 7301              		.loc 1 772 5 is_stmt 0 discriminator 3 view .LVU2059
 7302 007e FFF7FEFF 		bl	osal_printf
 7303              	.LVL921:
 7304 0082 F5E7     		b	.L745
 7305              	.L752:
 7306              	.LBE147:
 773:../switch_sdk/core/yt/yt_l2.c **** 
 7307              		.loc 1 773 5 is_stmt 1 discriminator 1 view .LVU2060
 773:../switch_sdk/core/yt/yt_l2.c **** 
 7308              		.loc 1 773 5 discriminator 1 view .LVU2061
 7309 0084 074B     		ldr	r3, .L757+4
 7310 0086 1B78     		ldrb	r3, [r3]	@ zero_extendqisi2
 7311 0088 012B     		cmp	r3, #1
 7312 008a 01D8     		bhi	.L756
 7313              	.L747:
 773:../switch_sdk/core/yt/yt_l2.c **** 
 7314              		.loc 1 773 5 discriminator 5 view .LVU2062
 773:../switch_sdk/core/yt/yt_l2.c **** 
 7315              		.loc 1 773 5 discriminator 5 view .LVU2063
 773:../switch_sdk/core/yt/yt_l2.c **** 
 7316              		.loc 1 773 5 discriminator 5 view .LVU2064
 7317 008c 0F20     		movs	r0, #15
 7318 008e CEE7     		b	.L738
 7319              	.L756:
 773:../switch_sdk/core/yt/yt_l2.c **** 
 7320              		.loc 1 773 5 discriminator 3 view .LVU2065
 7321              	.LBB148:
 773:../switch_sdk/core/yt/yt_l2.c **** 
 7322              		.loc 1 773 5 discriminator 3 view .LVU2066
 7323 0090 054B     		ldr	r3, .L757+8
 7324 0092 DA6B     		ldr	r2, [r3, #60]
 7325 0094 054B     		ldr	r3, .L757+12
 7326 0096 9968     		ldr	r1, [r3, #8]
 7327 0098 0548     		ldr	r0, .L757+16
 7328 009a FFF7FEFF 		bl	osal_printf
 7329              	.LVL922:
 7330 009e F5E7     		b	.L747
 7331              	.L758:
 7332              		.align	2
 7333              	.L757:
 7334 00a0 00000000 		.word	gpfal_dispatch
 7335 00a4 00000000 		.word	yt_debug_level
 7336 00a8 00000000 		.word	_yt_errmsg
 7337 00ac 00000000 		.word	_yt_prompt_msg
 7338 00b0 00000000 		.word	.LC0
 7339              	.LBE148:
 7340              		.cfi_endproc
 7341              	.LFE36:
 7343              		.section	.text.yt_l2_filter_mcast_get,"ax",%progbits
 7344              		.align	1
 7345              		.global	yt_l2_filter_mcast_get
 7346              		.syntax unified
 7347              		.thumb
 7348              		.thumb_func
 7350              	yt_l2_filter_mcast_get:
 7351              	.LVL923:
 7352              	.LFB37:
 777:../switch_sdk/core/yt/yt_l2.c **** 
 778:../switch_sdk/core/yt/yt_l2.c **** /**
 779:../switch_sdk/core/yt/yt_l2.c ****  * @internal      yt_l2_filter_mcast_get
 780:../switch_sdk/core/yt/yt_l2.c ****  * @endinternal
 781:../switch_sdk/core/yt/yt_l2.c ****  *
 782:../switch_sdk/core/yt/yt_l2.c ****  * @brief         Description
 783:../switch_sdk/core/yt/yt_l2.c ****  * @note          APPLICABLE DEVICES  -Tiger
 784:../switch_sdk/core/yt/yt_l2.c ****  * @param[in]     unit                -unit id
 785:../switch_sdk/core/yt/yt_l2.c ****  * @param[out]    pport_mask          -port bit mask
 786:../switch_sdk/core/yt/yt_l2.c ****  * @retval        CMM_ERR_OK          -on success
 787:../switch_sdk/core/yt/yt_l2.c ****  * @retval        CMM_ERR_FAIL        -on fail
 788:../switch_sdk/core/yt/yt_l2.c ****  */
 789:../switch_sdk/core/yt/yt_l2.c **** yt_ret_t  yt_l2_filter_mcast_get(yt_unit_t unit, yt_port_mask_t *pport_mask)
 790:../switch_sdk/core/yt/yt_l2.c **** {
 7353              		.loc 1 790 1 view -0
 7354              		.cfi_startproc
 7355              		@ args = 0, pretend = 0, frame = 0
 7356              		@ frame_needed = 0, uses_anonymous_args = 0
 7357              		.loc 1 790 1 is_stmt 0 view .LVU2068
 7358 0000 08B5     		push	{r3, lr}
 7359              		.cfi_def_cfa_offset 8
 7360              		.cfi_offset 3, -8
 7361              		.cfi_offset 14, -4
 791:../switch_sdk/core/yt/yt_l2.c ****     CMM_PARAM_CHK((YT_UNIT_NUM <= unit), CMM_ERR_INPUT);
 7362              		.loc 1 791 5 is_stmt 1 view .LVU2069
 7363              		.loc 1 791 5 view .LVU2070
 7364 0002 68B9     		cbnz	r0, .L770
 7365 0004 0246     		mov	r2, r0
 7366              		.loc 1 791 5 discriminator 2 view .LVU2071
 792:../switch_sdk/core/yt/yt_l2.c ****     CMM_PARAM_CHK(NULL == YT_DISPATCH(unit), CMM_ERR_NOT_INIT);
 7367              		.loc 1 792 5 discriminator 2 view .LVU2072
 7368              		.loc 1 792 5 discriminator 2 view .LVU2073
 7369 0006 224B     		ldr	r3, .L778
 7370 0008 53F82030 		ldr	r3, [r3, r0, lsl #2]
 7371 000c B3B1     		cbz	r3, .L771
 7372              		.loc 1 792 5 discriminator 2 view .LVU2074
 793:../switch_sdk/core/yt/yt_l2.c ****     CMM_PARAM_CHK((!(YT_DISPATCH(unit)->is_inited)), CMM_ERR_NOT_INIT);
 7373              		.loc 1 793 5 discriminator 2 view .LVU2075
 7374              		.loc 1 793 5 discriminator 2 view .LVU2076
 7375 000e 1878     		ldrb	r0, [r3]	@ zero_extendqisi2
 7376              	.LVL924:
 7377              		.loc 1 793 5 is_stmt 0 discriminator 2 view .LVU2077
 7378 0010 10B3     		cbz	r0, .L772
 7379              		.loc 1 793 5 is_stmt 1 discriminator 2 view .LVU2078
 794:../switch_sdk/core/yt/yt_l2.c ****     CMM_PARAM_CHK((NULL == pport_mask), CMM_ERR_NULL_POINT);
 7380              		.loc 1 794 5 discriminator 2 view .LVU2079
 7381              		.loc 1 794 5 discriminator 2 view .LVU2080
 7382 0012 0029     		cmp	r1, #0
 7383 0014 2ED0     		beq	.L773
 7384              		.loc 1 794 5 discriminator 2 view .LVU2081
 795:../switch_sdk/core/yt/yt_l2.c **** 
 796:../switch_sdk/core/yt/yt_l2.c ****     return YT_DISPATCH(unit)->l2_filter_mcast_get(unit, pport_mask);
 7385              		.loc 1 796 5 discriminator 2 view .LVU2082
 7386              		.loc 1 796 29 is_stmt 0 discriminator 2 view .LVU2083
 7387 0016 D3F8E033 		ldr	r3, [r3, #992]
 7388              		.loc 1 796 12 discriminator 2 view .LVU2084
 7389 001a 1046     		mov	r0, r2
 7390 001c 9847     		blx	r3
 7391              	.LVL925:
 7392              	.L759:
 797:../switch_sdk/core/yt/yt_l2.c **** }
 7393              		.loc 1 797 1 view .LVU2085
 7394 001e 08BD     		pop	{r3, pc}
 7395              	.LVL926:
 7396              	.L770:
 791:../switch_sdk/core/yt/yt_l2.c ****     CMM_PARAM_CHK(NULL == YT_DISPATCH(unit), CMM_ERR_NOT_INIT);
 7397              		.loc 1 791 5 is_stmt 1 discriminator 1 view .LVU2086
 791:../switch_sdk/core/yt/yt_l2.c ****     CMM_PARAM_CHK(NULL == YT_DISPATCH(unit), CMM_ERR_NOT_INIT);
 7398              		.loc 1 791 5 discriminator 1 view .LVU2087
 7399 0020 1C4B     		ldr	r3, .L778+4
 7400 0022 1B78     		ldrb	r3, [r3]	@ zero_extendqisi2
 7401 0024 012B     		cmp	r3, #1
 7402 0026 01D8     		bhi	.L774
 7403              	.LVL927:
 7404              	.L761:
 791:../switch_sdk/core/yt/yt_l2.c ****     CMM_PARAM_CHK(NULL == YT_DISPATCH(unit), CMM_ERR_NOT_INIT);
 7405              		.loc 1 791 5 discriminator 5 view .LVU2088
 791:../switch_sdk/core/yt/yt_l2.c ****     CMM_PARAM_CHK(NULL == YT_DISPATCH(unit), CMM_ERR_NOT_INIT);
 7406              		.loc 1 791 5 discriminator 5 view .LVU2089
 791:../switch_sdk/core/yt/yt_l2.c ****     CMM_PARAM_CHK(NULL == YT_DISPATCH(unit), CMM_ERR_NOT_INIT);
 7407              		.loc 1 791 5 discriminator 5 view .LVU2090
 7408 0028 0520     		movs	r0, #5
 7409 002a F8E7     		b	.L759
 7410              	.LVL928:
 7411              	.L774:
 791:../switch_sdk/core/yt/yt_l2.c ****     CMM_PARAM_CHK(NULL == YT_DISPATCH(unit), CMM_ERR_NOT_INIT);
 7412              		.loc 1 791 5 discriminator 3 view .LVU2091
 7413              	.LBB149:
 791:../switch_sdk/core/yt/yt_l2.c ****     CMM_PARAM_CHK(NULL == YT_DISPATCH(unit), CMM_ERR_NOT_INIT);
 7414              		.loc 1 791 5 discriminator 3 view .LVU2092
 7415 002c 1A4B     		ldr	r3, .L778+8
 7416 002e 5A69     		ldr	r2, [r3, #20]
 7417 0030 1A4B     		ldr	r3, .L778+12
 7418 0032 9968     		ldr	r1, [r3, #8]
 7419              	.LVL929:
 791:../switch_sdk/core/yt/yt_l2.c ****     CMM_PARAM_CHK(NULL == YT_DISPATCH(unit), CMM_ERR_NOT_INIT);
 7420              		.loc 1 791 5 is_stmt 0 discriminator 3 view .LVU2093
 7421 0034 1A48     		ldr	r0, .L778+16
 7422              	.LVL930:
 791:../switch_sdk/core/yt/yt_l2.c ****     CMM_PARAM_CHK(NULL == YT_DISPATCH(unit), CMM_ERR_NOT_INIT);
 7423              		.loc 1 791 5 discriminator 3 view .LVU2094
 7424 0036 FFF7FEFF 		bl	osal_printf
 7425              	.LVL931:
 7426 003a F5E7     		b	.L761
 7427              	.LVL932:
 7428              	.L771:
 791:../switch_sdk/core/yt/yt_l2.c ****     CMM_PARAM_CHK(NULL == YT_DISPATCH(unit), CMM_ERR_NOT_INIT);
 7429              		.loc 1 791 5 discriminator 3 view .LVU2095
 7430              	.LBE149:
 792:../switch_sdk/core/yt/yt_l2.c ****     CMM_PARAM_CHK((!(YT_DISPATCH(unit)->is_inited)), CMM_ERR_NOT_INIT);
 7431              		.loc 1 792 5 is_stmt 1 discriminator 1 view .LVU2096
 792:../switch_sdk/core/yt/yt_l2.c ****     CMM_PARAM_CHK((!(YT_DISPATCH(unit)->is_inited)), CMM_ERR_NOT_INIT);
 7432              		.loc 1 792 5 discriminator 1 view .LVU2097
 7433 003c 154B     		ldr	r3, .L778+4
 7434 003e 1B78     		ldrb	r3, [r3]	@ zero_extendqisi2
 7435 0040 012B     		cmp	r3, #1
 7436 0042 01D8     		bhi	.L775
 7437              	.LVL933:
 7438              	.L764:
 792:../switch_sdk/core/yt/yt_l2.c ****     CMM_PARAM_CHK((!(YT_DISPATCH(unit)->is_inited)), CMM_ERR_NOT_INIT);
 7439              		.loc 1 792 5 discriminator 5 view .LVU2098
 792:../switch_sdk/core/yt/yt_l2.c ****     CMM_PARAM_CHK((!(YT_DISPATCH(unit)->is_inited)), CMM_ERR_NOT_INIT);
 7440              		.loc 1 792 5 discriminator 5 view .LVU2099
 792:../switch_sdk/core/yt/yt_l2.c ****     CMM_PARAM_CHK((!(YT_DISPATCH(unit)->is_inited)), CMM_ERR_NOT_INIT);
 7441              		.loc 1 792 5 discriminator 5 view .LVU2100
 7442 0044 0420     		movs	r0, #4
 7443 0046 EAE7     		b	.L759
 7444              	.LVL934:
 7445              	.L775:
 792:../switch_sdk/core/yt/yt_l2.c ****     CMM_PARAM_CHK((!(YT_DISPATCH(unit)->is_inited)), CMM_ERR_NOT_INIT);
 7446              		.loc 1 792 5 discriminator 3 view .LVU2101
 7447              	.LBB150:
 792:../switch_sdk/core/yt/yt_l2.c ****     CMM_PARAM_CHK((!(YT_DISPATCH(unit)->is_inited)), CMM_ERR_NOT_INIT);
 7448              		.loc 1 792 5 discriminator 3 view .LVU2102
 7449 0048 134B     		ldr	r3, .L778+8
 7450 004a 1A69     		ldr	r2, [r3, #16]
 7451 004c 134B     		ldr	r3, .L778+12
 7452 004e 9968     		ldr	r1, [r3, #8]
 7453              	.LVL935:
 792:../switch_sdk/core/yt/yt_l2.c ****     CMM_PARAM_CHK((!(YT_DISPATCH(unit)->is_inited)), CMM_ERR_NOT_INIT);
 7454              		.loc 1 792 5 is_stmt 0 discriminator 3 view .LVU2103
 7455 0050 1348     		ldr	r0, .L778+16
 7456              	.LVL936:
 792:../switch_sdk/core/yt/yt_l2.c ****     CMM_PARAM_CHK((!(YT_DISPATCH(unit)->is_inited)), CMM_ERR_NOT_INIT);
 7457              		.loc 1 792 5 discriminator 3 view .LVU2104
 7458 0052 FFF7FEFF 		bl	osal_printf
 7459              	.LVL937:
 7460 0056 F5E7     		b	.L764
 7461              	.LVL938:
 7462              	.L772:
 792:../switch_sdk/core/yt/yt_l2.c ****     CMM_PARAM_CHK((!(YT_DISPATCH(unit)->is_inited)), CMM_ERR_NOT_INIT);
 7463              		.loc 1 792 5 discriminator 3 view .LVU2105
 7464              	.LBE150:
 793:../switch_sdk/core/yt/yt_l2.c ****     CMM_PARAM_CHK((NULL == pport_mask), CMM_ERR_NULL_POINT);
 7465              		.loc 1 793 5 is_stmt 1 discriminator 1 view .LVU2106
 793:../switch_sdk/core/yt/yt_l2.c ****     CMM_PARAM_CHK((NULL == pport_mask), CMM_ERR_NULL_POINT);
 7466              		.loc 1 793 5 discriminator 1 view .LVU2107
 7467 0058 0E4B     		ldr	r3, .L778+4
 7468 005a 1B78     		ldrb	r3, [r3]	@ zero_extendqisi2
 7469 005c 012B     		cmp	r3, #1
 7470 005e 01D8     		bhi	.L776
 7471              	.LVL939:
 7472              	.L766:
 793:../switch_sdk/core/yt/yt_l2.c ****     CMM_PARAM_CHK((NULL == pport_mask), CMM_ERR_NULL_POINT);
 7473              		.loc 1 793 5 discriminator 5 view .LVU2108
 793:../switch_sdk/core/yt/yt_l2.c ****     CMM_PARAM_CHK((NULL == pport_mask), CMM_ERR_NULL_POINT);
 7474              		.loc 1 793 5 discriminator 5 view .LVU2109
 793:../switch_sdk/core/yt/yt_l2.c ****     CMM_PARAM_CHK((NULL == pport_mask), CMM_ERR_NULL_POINT);
 7475              		.loc 1 793 5 discriminator 5 view .LVU2110
 7476 0060 0420     		movs	r0, #4
 7477 0062 DCE7     		b	.L759
 7478              	.LVL940:
 7479              	.L776:
 793:../switch_sdk/core/yt/yt_l2.c ****     CMM_PARAM_CHK((NULL == pport_mask), CMM_ERR_NULL_POINT);
 7480              		.loc 1 793 5 discriminator 3 view .LVU2111
 7481              	.LBB151:
 793:../switch_sdk/core/yt/yt_l2.c ****     CMM_PARAM_CHK((NULL == pport_mask), CMM_ERR_NULL_POINT);
 7482              		.loc 1 793 5 discriminator 3 view .LVU2112
 7483 0064 0C4B     		ldr	r3, .L778+8
 7484 0066 1A69     		ldr	r2, [r3, #16]
 7485 0068 0C4B     		ldr	r3, .L778+12
 7486 006a 9968     		ldr	r1, [r3, #8]
 7487              	.LVL941:
 793:../switch_sdk/core/yt/yt_l2.c ****     CMM_PARAM_CHK((NULL == pport_mask), CMM_ERR_NULL_POINT);
 7488              		.loc 1 793 5 is_stmt 0 discriminator 3 view .LVU2113
 7489 006c 0C48     		ldr	r0, .L778+16
 7490 006e FFF7FEFF 		bl	osal_printf
 7491              	.LVL942:
 7492 0072 F5E7     		b	.L766
 7493              	.LVL943:
 7494              	.L773:
 793:../switch_sdk/core/yt/yt_l2.c ****     CMM_PARAM_CHK((NULL == pport_mask), CMM_ERR_NULL_POINT);
 7495              		.loc 1 793 5 discriminator 3 view .LVU2114
 7496              	.LBE151:
 794:../switch_sdk/core/yt/yt_l2.c **** 
 7497              		.loc 1 794 5 is_stmt 1 discriminator 1 view .LVU2115
 794:../switch_sdk/core/yt/yt_l2.c **** 
 7498              		.loc 1 794 5 discriminator 1 view .LVU2116
 7499 0074 074B     		ldr	r3, .L778+4
 7500 0076 1B78     		ldrb	r3, [r3]	@ zero_extendqisi2
 7501 0078 012B     		cmp	r3, #1
 7502 007a 01D8     		bhi	.L777
 7503              	.LVL944:
 7504              	.L768:
 794:../switch_sdk/core/yt/yt_l2.c **** 
 7505              		.loc 1 794 5 discriminator 5 view .LVU2117
 794:../switch_sdk/core/yt/yt_l2.c **** 
 7506              		.loc 1 794 5 discriminator 5 view .LVU2118
 794:../switch_sdk/core/yt/yt_l2.c **** 
 7507              		.loc 1 794 5 discriminator 5 view .LVU2119
 7508 007c 0220     		movs	r0, #2
 7509 007e CEE7     		b	.L759
 7510              	.LVL945:
 7511              	.L777:
 794:../switch_sdk/core/yt/yt_l2.c **** 
 7512              		.loc 1 794 5 discriminator 3 view .LVU2120
 7513              	.LBB152:
 794:../switch_sdk/core/yt/yt_l2.c **** 
 7514              		.loc 1 794 5 discriminator 3 view .LVU2121
 7515 0080 054B     		ldr	r3, .L778+8
 7516 0082 9A68     		ldr	r2, [r3, #8]
 7517 0084 054B     		ldr	r3, .L778+12
 7518 0086 9968     		ldr	r1, [r3, #8]
 7519              	.LVL946:
 794:../switch_sdk/core/yt/yt_l2.c **** 
 7520              		.loc 1 794 5 is_stmt 0 discriminator 3 view .LVU2122
 7521 0088 0548     		ldr	r0, .L778+16
 7522 008a FFF7FEFF 		bl	osal_printf
 7523              	.LVL947:
 7524 008e F5E7     		b	.L768
 7525              	.L779:
 7526              		.align	2
 7527              	.L778:
 7528 0090 00000000 		.word	gpfal_dispatch
 7529 0094 00000000 		.word	yt_debug_level
 7530 0098 00000000 		.word	_yt_errmsg
 7531 009c 00000000 		.word	_yt_prompt_msg
 7532 00a0 00000000 		.word	.LC0
 7533              	.LBE152:
 7534              		.cfi_endproc
 7535              	.LFE37:
 7537              		.section	.text.yt_l2_filter_bcast_set,"ax",%progbits
 7538              		.align	1
 7539              		.global	yt_l2_filter_bcast_set
 7540              		.syntax unified
 7541              		.thumb
 7542              		.thumb_func
 7544              	yt_l2_filter_bcast_set:
 7545              	.LVL948:
 7546              	.LFB38:
 798:../switch_sdk/core/yt/yt_l2.c **** 
 799:../switch_sdk/core/yt/yt_l2.c **** /**
 800:../switch_sdk/core/yt/yt_l2.c ****  * @internal      yt_l2_filter_bcast_set
 801:../switch_sdk/core/yt/yt_l2.c ****  * @endinternal
 802:../switch_sdk/core/yt/yt_l2.c ****  *
 803:../switch_sdk/core/yt/yt_l2.c ****  * @brief         Description
 804:../switch_sdk/core/yt/yt_l2.c ****  * @note          APPLICABLE DEVICES  -Tiger
 805:../switch_sdk/core/yt/yt_l2.c ****  * @param[in]     unit                -unit id
 806:../switch_sdk/core/yt/yt_l2.c ****  * @param[in]     port_mask           -port bit mask
 807:../switch_sdk/core/yt/yt_l2.c ****  * @retval        CMM_ERR_OK          -on success
 808:../switch_sdk/core/yt/yt_l2.c ****  * @retval        CMM_ERR_FAIL        -on fail
 809:../switch_sdk/core/yt/yt_l2.c ****  */
 810:../switch_sdk/core/yt/yt_l2.c **** yt_ret_t  yt_l2_filter_bcast_set(yt_unit_t unit, yt_port_mask_t port_mask)
 811:../switch_sdk/core/yt/yt_l2.c **** {
 7547              		.loc 1 811 1 is_stmt 1 view -0
 7548              		.cfi_startproc
 7549              		@ args = 0, pretend = 0, frame = 0
 7550              		@ frame_needed = 0, uses_anonymous_args = 0
 7551              		.loc 1 811 1 is_stmt 0 view .LVU2124
 7552 0000 38B5     		push	{r3, r4, r5, lr}
 7553              		.cfi_def_cfa_offset 16
 7554              		.cfi_offset 3, -16
 7555              		.cfi_offset 4, -12
 7556              		.cfi_offset 5, -8
 7557              		.cfi_offset 14, -4
 812:../switch_sdk/core/yt/yt_l2.c ****     CMM_PARAM_CHK((YT_UNIT_NUM <= unit), CMM_ERR_INPUT);
 7558              		.loc 1 812 5 is_stmt 1 view .LVU2125
 7559              		.loc 1 812 5 view .LVU2126
 7560 0002 A8B9     		cbnz	r0, .L791
 7561 0004 0D46     		mov	r5, r1
 7562              	.LVL949:
 7563              		.loc 1 812 5 is_stmt 0 view .LVU2127
 7564 0006 0446     		mov	r4, r0
 7565              		.loc 1 812 5 is_stmt 1 discriminator 2 view .LVU2128
 813:../switch_sdk/core/yt/yt_l2.c ****     CMM_PARAM_CHK(NULL == YT_DISPATCH(unit), CMM_ERR_NOT_INIT);
 7566              		.loc 1 813 5 discriminator 2 view .LVU2129
 7567              		.loc 1 813 5 discriminator 2 view .LVU2130
 7568 0008 254B     		ldr	r3, .L799
 7569 000a 53F82030 		ldr	r3, [r3, r0, lsl #2]
 7570 000e EBB1     		cbz	r3, .L792
 7571              		.loc 1 813 5 discriminator 2 view .LVU2131
 814:../switch_sdk/core/yt/yt_l2.c ****     CMM_PARAM_CHK((!(YT_DISPATCH(unit)->is_inited)), CMM_ERR_NOT_INIT);
 7572              		.loc 1 814 5 discriminator 2 view .LVU2132
 7573              		.loc 1 814 5 discriminator 2 view .LVU2133
 7574 0010 1B78     		ldrb	r3, [r3]	@ zero_extendqisi2
 7575 0012 4BB3     		cbz	r3, .L793
 7576              		.loc 1 814 5 discriminator 2 view .LVU2134
 815:../switch_sdk/core/yt/yt_l2.c ****     CMM_PARAM_CHK((!(CMM_PLIST_CPUPORT_VALID(unit, port_mask))), CMM_ERR_PORTLIST);
 7577              		.loc 1 815 5 discriminator 2 view .LVU2135
 7578              		.loc 1 815 5 discriminator 2 view .LVU2136
 7579 0014 0122     		movs	r2, #1
 7580 0016 FFF7FEFF 		bl	cal_ytportmask_isvalid
 7581              	.LVL950:
 7582              		.loc 1 815 5 is_stmt 0 discriminator 2 view .LVU2137
 7583 001a 0028     		cmp	r0, #0
 7584 001c 32D1     		bne	.L794
 7585              		.loc 1 815 5 is_stmt 1 discriminator 2 view .LVU2138
 816:../switch_sdk/core/yt/yt_l2.c **** 
 817:../switch_sdk/core/yt/yt_l2.c ****     return YT_DISPATCH(unit)->l2_filter_bcast_set(unit, port_mask);
 7586              		.loc 1 817 5 discriminator 2 view .LVU2139
 7587              		.loc 1 817 12 is_stmt 0 discriminator 2 view .LVU2140
 7588 001e 204B     		ldr	r3, .L799
 7589 0020 53F82430 		ldr	r3, [r3, r4, lsl #2]
 7590              		.loc 1 817 29 discriminator 2 view .LVU2141
 7591 0024 D3F8E433 		ldr	r3, [r3, #996]
 7592              	.LVL951:
 7593              		.loc 1 817 12 discriminator 2 view .LVU2142
 7594 0028 2946     		mov	r1, r5
 7595 002a 2046     		mov	r0, r4
 7596 002c 9847     		blx	r3
 7597              	.LVL952:
 7598              	.L780:
 818:../switch_sdk/core/yt/yt_l2.c **** }
 7599              		.loc 1 818 1 view .LVU2143
 7600 002e 38BD     		pop	{r3, r4, r5, pc}
 7601              	.LVL953:
 7602              	.L791:
 812:../switch_sdk/core/yt/yt_l2.c ****     CMM_PARAM_CHK(NULL == YT_DISPATCH(unit), CMM_ERR_NOT_INIT);
 7603              		.loc 1 812 5 is_stmt 1 discriminator 1 view .LVU2144
 812:../switch_sdk/core/yt/yt_l2.c ****     CMM_PARAM_CHK(NULL == YT_DISPATCH(unit), CMM_ERR_NOT_INIT);
 7604              		.loc 1 812 5 discriminator 1 view .LVU2145
 7605 0030 1C4B     		ldr	r3, .L799+4
 7606 0032 1B78     		ldrb	r3, [r3]	@ zero_extendqisi2
 7607 0034 012B     		cmp	r3, #1
 7608 0036 01D8     		bhi	.L795
 7609              	.LVL954:
 7610              	.L782:
 812:../switch_sdk/core/yt/yt_l2.c ****     CMM_PARAM_CHK(NULL == YT_DISPATCH(unit), CMM_ERR_NOT_INIT);
 7611              		.loc 1 812 5 discriminator 5 view .LVU2146
 812:../switch_sdk/core/yt/yt_l2.c ****     CMM_PARAM_CHK(NULL == YT_DISPATCH(unit), CMM_ERR_NOT_INIT);
 7612              		.loc 1 812 5 discriminator 5 view .LVU2147
 812:../switch_sdk/core/yt/yt_l2.c ****     CMM_PARAM_CHK(NULL == YT_DISPATCH(unit), CMM_ERR_NOT_INIT);
 7613              		.loc 1 812 5 discriminator 5 view .LVU2148
 7614 0038 0520     		movs	r0, #5
 7615 003a F8E7     		b	.L780
 7616              	.LVL955:
 7617              	.L795:
 812:../switch_sdk/core/yt/yt_l2.c ****     CMM_PARAM_CHK(NULL == YT_DISPATCH(unit), CMM_ERR_NOT_INIT);
 7618              		.loc 1 812 5 discriminator 3 view .LVU2149
 7619              	.LBB153:
 812:../switch_sdk/core/yt/yt_l2.c ****     CMM_PARAM_CHK(NULL == YT_DISPATCH(unit), CMM_ERR_NOT_INIT);
 7620              		.loc 1 812 5 discriminator 3 view .LVU2150
 7621 003c 1A4B     		ldr	r3, .L799+8
 7622 003e 5A69     		ldr	r2, [r3, #20]
 7623 0040 1A4B     		ldr	r3, .L799+12
 7624 0042 9968     		ldr	r1, [r3, #8]
 7625              	.LVL956:
 812:../switch_sdk/core/yt/yt_l2.c ****     CMM_PARAM_CHK(NULL == YT_DISPATCH(unit), CMM_ERR_NOT_INIT);
 7626              		.loc 1 812 5 is_stmt 0 discriminator 3 view .LVU2151
 7627 0044 1A48     		ldr	r0, .L799+16
 7628              	.LVL957:
 812:../switch_sdk/core/yt/yt_l2.c ****     CMM_PARAM_CHK(NULL == YT_DISPATCH(unit), CMM_ERR_NOT_INIT);
 7629              		.loc 1 812 5 discriminator 3 view .LVU2152
 7630 0046 FFF7FEFF 		bl	osal_printf
 7631              	.LVL958:
 7632 004a F5E7     		b	.L782
 7633              	.LVL959:
 7634              	.L792:
 812:../switch_sdk/core/yt/yt_l2.c ****     CMM_PARAM_CHK(NULL == YT_DISPATCH(unit), CMM_ERR_NOT_INIT);
 7635              		.loc 1 812 5 discriminator 3 view .LVU2153
 7636              	.LBE153:
 813:../switch_sdk/core/yt/yt_l2.c ****     CMM_PARAM_CHK((!(YT_DISPATCH(unit)->is_inited)), CMM_ERR_NOT_INIT);
 7637              		.loc 1 813 5 is_stmt 1 discriminator 1 view .LVU2154
 813:../switch_sdk/core/yt/yt_l2.c ****     CMM_PARAM_CHK((!(YT_DISPATCH(unit)->is_inited)), CMM_ERR_NOT_INIT);
 7638              		.loc 1 813 5 discriminator 1 view .LVU2155
 7639 004c 154B     		ldr	r3, .L799+4
 7640 004e 1B78     		ldrb	r3, [r3]	@ zero_extendqisi2
 7641 0050 012B     		cmp	r3, #1
 7642 0052 01D8     		bhi	.L796
 7643              	.LVL960:
 7644              	.L785:
 813:../switch_sdk/core/yt/yt_l2.c ****     CMM_PARAM_CHK((!(YT_DISPATCH(unit)->is_inited)), CMM_ERR_NOT_INIT);
 7645              		.loc 1 813 5 discriminator 5 view .LVU2156
 813:../switch_sdk/core/yt/yt_l2.c ****     CMM_PARAM_CHK((!(YT_DISPATCH(unit)->is_inited)), CMM_ERR_NOT_INIT);
 7646              		.loc 1 813 5 discriminator 5 view .LVU2157
 813:../switch_sdk/core/yt/yt_l2.c ****     CMM_PARAM_CHK((!(YT_DISPATCH(unit)->is_inited)), CMM_ERR_NOT_INIT);
 7647              		.loc 1 813 5 discriminator 5 view .LVU2158
 7648 0054 0420     		movs	r0, #4
 7649 0056 EAE7     		b	.L780
 7650              	.LVL961:
 7651              	.L796:
 813:../switch_sdk/core/yt/yt_l2.c ****     CMM_PARAM_CHK((!(YT_DISPATCH(unit)->is_inited)), CMM_ERR_NOT_INIT);
 7652              		.loc 1 813 5 discriminator 3 view .LVU2159
 7653              	.LBB154:
 813:../switch_sdk/core/yt/yt_l2.c ****     CMM_PARAM_CHK((!(YT_DISPATCH(unit)->is_inited)), CMM_ERR_NOT_INIT);
 7654              		.loc 1 813 5 discriminator 3 view .LVU2160
 7655 0058 134B     		ldr	r3, .L799+8
 7656 005a 1A69     		ldr	r2, [r3, #16]
 7657 005c 134B     		ldr	r3, .L799+12
 7658 005e 9968     		ldr	r1, [r3, #8]
 7659 0060 1348     		ldr	r0, .L799+16
 7660              	.LVL962:
 813:../switch_sdk/core/yt/yt_l2.c ****     CMM_PARAM_CHK((!(YT_DISPATCH(unit)->is_inited)), CMM_ERR_NOT_INIT);
 7661              		.loc 1 813 5 is_stmt 0 discriminator 3 view .LVU2161
 7662 0062 FFF7FEFF 		bl	osal_printf
 7663              	.LVL963:
 7664 0066 F5E7     		b	.L785
 7665              	.LVL964:
 7666              	.L793:
 813:../switch_sdk/core/yt/yt_l2.c ****     CMM_PARAM_CHK((!(YT_DISPATCH(unit)->is_inited)), CMM_ERR_NOT_INIT);
 7667              		.loc 1 813 5 discriminator 3 view .LVU2162
 7668              	.LBE154:
 814:../switch_sdk/core/yt/yt_l2.c ****     CMM_PARAM_CHK((!(CMM_PLIST_CPUPORT_VALID(unit, port_mask))), CMM_ERR_PORTLIST);
 7669              		.loc 1 814 5 is_stmt 1 discriminator 1 view .LVU2163
 814:../switch_sdk/core/yt/yt_l2.c ****     CMM_PARAM_CHK((!(CMM_PLIST_CPUPORT_VALID(unit, port_mask))), CMM_ERR_PORTLIST);
 7670              		.loc 1 814 5 discriminator 1 view .LVU2164
 7671 0068 0E4B     		ldr	r3, .L799+4
 7672 006a 1B78     		ldrb	r3, [r3]	@ zero_extendqisi2
 7673 006c 012B     		cmp	r3, #1
 7674 006e 01D8     		bhi	.L797
 7675              	.LVL965:
 7676              	.L787:
 814:../switch_sdk/core/yt/yt_l2.c ****     CMM_PARAM_CHK((!(CMM_PLIST_CPUPORT_VALID(unit, port_mask))), CMM_ERR_PORTLIST);
 7677              		.loc 1 814 5 discriminator 5 view .LVU2165
 814:../switch_sdk/core/yt/yt_l2.c ****     CMM_PARAM_CHK((!(CMM_PLIST_CPUPORT_VALID(unit, port_mask))), CMM_ERR_PORTLIST);
 7678              		.loc 1 814 5 discriminator 5 view .LVU2166
 814:../switch_sdk/core/yt/yt_l2.c ****     CMM_PARAM_CHK((!(CMM_PLIST_CPUPORT_VALID(unit, port_mask))), CMM_ERR_PORTLIST);
 7679              		.loc 1 814 5 discriminator 5 view .LVU2167
 7680 0070 0420     		movs	r0, #4
 7681 0072 DCE7     		b	.L780
 7682              	.LVL966:
 7683              	.L797:
 814:../switch_sdk/core/yt/yt_l2.c ****     CMM_PARAM_CHK((!(CMM_PLIST_CPUPORT_VALID(unit, port_mask))), CMM_ERR_PORTLIST);
 7684              		.loc 1 814 5 discriminator 3 view .LVU2168
 7685              	.LBB155:
 814:../switch_sdk/core/yt/yt_l2.c ****     CMM_PARAM_CHK((!(CMM_PLIST_CPUPORT_VALID(unit, port_mask))), CMM_ERR_PORTLIST);
 7686              		.loc 1 814 5 discriminator 3 view .LVU2169
 7687 0074 0C4B     		ldr	r3, .L799+8
 7688 0076 1A69     		ldr	r2, [r3, #16]
 7689 0078 0C4B     		ldr	r3, .L799+12
 7690 007a 9968     		ldr	r1, [r3, #8]
 7691 007c 0C48     		ldr	r0, .L799+16
 7692              	.LVL967:
 814:../switch_sdk/core/yt/yt_l2.c ****     CMM_PARAM_CHK((!(CMM_PLIST_CPUPORT_VALID(unit, port_mask))), CMM_ERR_PORTLIST);
 7693              		.loc 1 814 5 is_stmt 0 discriminator 3 view .LVU2170
 7694 007e FFF7FEFF 		bl	osal_printf
 7695              	.LVL968:
 7696 0082 F5E7     		b	.L787
 7697              	.L794:
 7698              	.LBE155:
 815:../switch_sdk/core/yt/yt_l2.c **** 
 7699              		.loc 1 815 5 is_stmt 1 discriminator 1 view .LVU2171
 815:../switch_sdk/core/yt/yt_l2.c **** 
 7700              		.loc 1 815 5 discriminator 1 view .LVU2172
 7701 0084 074B     		ldr	r3, .L799+4
 7702 0086 1B78     		ldrb	r3, [r3]	@ zero_extendqisi2
 7703 0088 012B     		cmp	r3, #1
 7704 008a 01D8     		bhi	.L798
 7705              	.L789:
 815:../switch_sdk/core/yt/yt_l2.c **** 
 7706              		.loc 1 815 5 discriminator 5 view .LVU2173
 815:../switch_sdk/core/yt/yt_l2.c **** 
 7707              		.loc 1 815 5 discriminator 5 view .LVU2174
 815:../switch_sdk/core/yt/yt_l2.c **** 
 7708              		.loc 1 815 5 discriminator 5 view .LVU2175
 7709 008c 0F20     		movs	r0, #15
 7710 008e CEE7     		b	.L780
 7711              	.L798:
 815:../switch_sdk/core/yt/yt_l2.c **** 
 7712              		.loc 1 815 5 discriminator 3 view .LVU2176
 7713              	.LBB156:
 815:../switch_sdk/core/yt/yt_l2.c **** 
 7714              		.loc 1 815 5 discriminator 3 view .LVU2177
 7715 0090 054B     		ldr	r3, .L799+8
 7716 0092 DA6B     		ldr	r2, [r3, #60]
 7717 0094 054B     		ldr	r3, .L799+12
 7718 0096 9968     		ldr	r1, [r3, #8]
 7719 0098 0548     		ldr	r0, .L799+16
 7720 009a FFF7FEFF 		bl	osal_printf
 7721              	.LVL969:
 7722 009e F5E7     		b	.L789
 7723              	.L800:
 7724              		.align	2
 7725              	.L799:
 7726 00a0 00000000 		.word	gpfal_dispatch
 7727 00a4 00000000 		.word	yt_debug_level
 7728 00a8 00000000 		.word	_yt_errmsg
 7729 00ac 00000000 		.word	_yt_prompt_msg
 7730 00b0 00000000 		.word	.LC0
 7731              	.LBE156:
 7732              		.cfi_endproc
 7733              	.LFE38:
 7735              		.section	.text.yt_l2_filter_bcast_get,"ax",%progbits
 7736              		.align	1
 7737              		.global	yt_l2_filter_bcast_get
 7738              		.syntax unified
 7739              		.thumb
 7740              		.thumb_func
 7742              	yt_l2_filter_bcast_get:
 7743              	.LVL970:
 7744              	.LFB39:
 819:../switch_sdk/core/yt/yt_l2.c **** 
 820:../switch_sdk/core/yt/yt_l2.c **** /**
 821:../switch_sdk/core/yt/yt_l2.c ****  * @internal      yt_l2_filter_bcast_get
 822:../switch_sdk/core/yt/yt_l2.c ****  * @endinternal
 823:../switch_sdk/core/yt/yt_l2.c ****  *
 824:../switch_sdk/core/yt/yt_l2.c ****  * @brief         Description
 825:../switch_sdk/core/yt/yt_l2.c ****  * @note          APPLICABLE DEVICES  -Tiger
 826:../switch_sdk/core/yt/yt_l2.c ****  * @param[in]     unit                -unit id
 827:../switch_sdk/core/yt/yt_l2.c ****  * @param[out]    pport_mask          -port bit mask
 828:../switch_sdk/core/yt/yt_l2.c ****  * @retval        CMM_ERR_OK          -on success
 829:../switch_sdk/core/yt/yt_l2.c ****  * @retval        CMM_ERR_FAIL        -on fail
 830:../switch_sdk/core/yt/yt_l2.c ****  */
 831:../switch_sdk/core/yt/yt_l2.c **** yt_ret_t  yt_l2_filter_bcast_get(yt_unit_t unit, yt_port_mask_t *pport_mask)
 832:../switch_sdk/core/yt/yt_l2.c **** {
 7745              		.loc 1 832 1 view -0
 7746              		.cfi_startproc
 7747              		@ args = 0, pretend = 0, frame = 0
 7748              		@ frame_needed = 0, uses_anonymous_args = 0
 7749              		.loc 1 832 1 is_stmt 0 view .LVU2179
 7750 0000 08B5     		push	{r3, lr}
 7751              		.cfi_def_cfa_offset 8
 7752              		.cfi_offset 3, -8
 7753              		.cfi_offset 14, -4
 833:../switch_sdk/core/yt/yt_l2.c ****     CMM_PARAM_CHK((YT_UNIT_NUM <= unit), CMM_ERR_INPUT);
 7754              		.loc 1 833 5 is_stmt 1 view .LVU2180
 7755              		.loc 1 833 5 view .LVU2181
 7756 0002 68B9     		cbnz	r0, .L812
 7757 0004 0246     		mov	r2, r0
 7758              		.loc 1 833 5 discriminator 2 view .LVU2182
 834:../switch_sdk/core/yt/yt_l2.c ****     CMM_PARAM_CHK(NULL == YT_DISPATCH(unit), CMM_ERR_NOT_INIT);
 7759              		.loc 1 834 5 discriminator 2 view .LVU2183
 7760              		.loc 1 834 5 discriminator 2 view .LVU2184
 7761 0006 224B     		ldr	r3, .L820
 7762 0008 53F82030 		ldr	r3, [r3, r0, lsl #2]
 7763 000c B3B1     		cbz	r3, .L813
 7764              		.loc 1 834 5 discriminator 2 view .LVU2185
 835:../switch_sdk/core/yt/yt_l2.c ****     CMM_PARAM_CHK((!(YT_DISPATCH(unit)->is_inited)), CMM_ERR_NOT_INIT);
 7765              		.loc 1 835 5 discriminator 2 view .LVU2186
 7766              		.loc 1 835 5 discriminator 2 view .LVU2187
 7767 000e 1878     		ldrb	r0, [r3]	@ zero_extendqisi2
 7768              	.LVL971:
 7769              		.loc 1 835 5 is_stmt 0 discriminator 2 view .LVU2188
 7770 0010 10B3     		cbz	r0, .L814
 7771              		.loc 1 835 5 is_stmt 1 discriminator 2 view .LVU2189
 836:../switch_sdk/core/yt/yt_l2.c ****     CMM_PARAM_CHK((NULL == pport_mask), CMM_ERR_NULL_POINT);
 7772              		.loc 1 836 5 discriminator 2 view .LVU2190
 7773              		.loc 1 836 5 discriminator 2 view .LVU2191
 7774 0012 0029     		cmp	r1, #0
 7775 0014 2ED0     		beq	.L815
 7776              		.loc 1 836 5 discriminator 2 view .LVU2192
 837:../switch_sdk/core/yt/yt_l2.c **** 
 838:../switch_sdk/core/yt/yt_l2.c ****     return YT_DISPATCH(unit)->l2_filter_bcast_get(unit, pport_mask);
 7777              		.loc 1 838 5 discriminator 2 view .LVU2193
 7778              		.loc 1 838 29 is_stmt 0 discriminator 2 view .LVU2194
 7779 0016 D3F8E833 		ldr	r3, [r3, #1000]
 7780              		.loc 1 838 12 discriminator 2 view .LVU2195
 7781 001a 1046     		mov	r0, r2
 7782 001c 9847     		blx	r3
 7783              	.LVL972:
 7784              	.L801:
 839:../switch_sdk/core/yt/yt_l2.c **** }
 7785              		.loc 1 839 1 view .LVU2196
 7786 001e 08BD     		pop	{r3, pc}
 7787              	.LVL973:
 7788              	.L812:
 833:../switch_sdk/core/yt/yt_l2.c ****     CMM_PARAM_CHK(NULL == YT_DISPATCH(unit), CMM_ERR_NOT_INIT);
 7789              		.loc 1 833 5 is_stmt 1 discriminator 1 view .LVU2197
 833:../switch_sdk/core/yt/yt_l2.c ****     CMM_PARAM_CHK(NULL == YT_DISPATCH(unit), CMM_ERR_NOT_INIT);
 7790              		.loc 1 833 5 discriminator 1 view .LVU2198
 7791 0020 1C4B     		ldr	r3, .L820+4
 7792 0022 1B78     		ldrb	r3, [r3]	@ zero_extendqisi2
 7793 0024 012B     		cmp	r3, #1
 7794 0026 01D8     		bhi	.L816
 7795              	.LVL974:
 7796              	.L803:
 833:../switch_sdk/core/yt/yt_l2.c ****     CMM_PARAM_CHK(NULL == YT_DISPATCH(unit), CMM_ERR_NOT_INIT);
 7797              		.loc 1 833 5 discriminator 5 view .LVU2199
 833:../switch_sdk/core/yt/yt_l2.c ****     CMM_PARAM_CHK(NULL == YT_DISPATCH(unit), CMM_ERR_NOT_INIT);
 7798              		.loc 1 833 5 discriminator 5 view .LVU2200
 833:../switch_sdk/core/yt/yt_l2.c ****     CMM_PARAM_CHK(NULL == YT_DISPATCH(unit), CMM_ERR_NOT_INIT);
 7799              		.loc 1 833 5 discriminator 5 view .LVU2201
 7800 0028 0520     		movs	r0, #5
 7801 002a F8E7     		b	.L801
 7802              	.LVL975:
 7803              	.L816:
 833:../switch_sdk/core/yt/yt_l2.c ****     CMM_PARAM_CHK(NULL == YT_DISPATCH(unit), CMM_ERR_NOT_INIT);
 7804              		.loc 1 833 5 discriminator 3 view .LVU2202
 7805              	.LBB157:
 833:../switch_sdk/core/yt/yt_l2.c ****     CMM_PARAM_CHK(NULL == YT_DISPATCH(unit), CMM_ERR_NOT_INIT);
 7806              		.loc 1 833 5 discriminator 3 view .LVU2203
 7807 002c 1A4B     		ldr	r3, .L820+8
 7808 002e 5A69     		ldr	r2, [r3, #20]
 7809 0030 1A4B     		ldr	r3, .L820+12
 7810 0032 9968     		ldr	r1, [r3, #8]
 7811              	.LVL976:
 833:../switch_sdk/core/yt/yt_l2.c ****     CMM_PARAM_CHK(NULL == YT_DISPATCH(unit), CMM_ERR_NOT_INIT);
 7812              		.loc 1 833 5 is_stmt 0 discriminator 3 view .LVU2204
 7813 0034 1A48     		ldr	r0, .L820+16
 7814              	.LVL977:
 833:../switch_sdk/core/yt/yt_l2.c ****     CMM_PARAM_CHK(NULL == YT_DISPATCH(unit), CMM_ERR_NOT_INIT);
 7815              		.loc 1 833 5 discriminator 3 view .LVU2205
 7816 0036 FFF7FEFF 		bl	osal_printf
 7817              	.LVL978:
 7818 003a F5E7     		b	.L803
 7819              	.LVL979:
 7820              	.L813:
 833:../switch_sdk/core/yt/yt_l2.c ****     CMM_PARAM_CHK(NULL == YT_DISPATCH(unit), CMM_ERR_NOT_INIT);
 7821              		.loc 1 833 5 discriminator 3 view .LVU2206
 7822              	.LBE157:
 834:../switch_sdk/core/yt/yt_l2.c ****     CMM_PARAM_CHK((!(YT_DISPATCH(unit)->is_inited)), CMM_ERR_NOT_INIT);
 7823              		.loc 1 834 5 is_stmt 1 discriminator 1 view .LVU2207
 834:../switch_sdk/core/yt/yt_l2.c ****     CMM_PARAM_CHK((!(YT_DISPATCH(unit)->is_inited)), CMM_ERR_NOT_INIT);
 7824              		.loc 1 834 5 discriminator 1 view .LVU2208
 7825 003c 154B     		ldr	r3, .L820+4
 7826 003e 1B78     		ldrb	r3, [r3]	@ zero_extendqisi2
 7827 0040 012B     		cmp	r3, #1
 7828 0042 01D8     		bhi	.L817
 7829              	.LVL980:
 7830              	.L806:
 834:../switch_sdk/core/yt/yt_l2.c ****     CMM_PARAM_CHK((!(YT_DISPATCH(unit)->is_inited)), CMM_ERR_NOT_INIT);
 7831              		.loc 1 834 5 discriminator 5 view .LVU2209
 834:../switch_sdk/core/yt/yt_l2.c ****     CMM_PARAM_CHK((!(YT_DISPATCH(unit)->is_inited)), CMM_ERR_NOT_INIT);
 7832              		.loc 1 834 5 discriminator 5 view .LVU2210
 834:../switch_sdk/core/yt/yt_l2.c ****     CMM_PARAM_CHK((!(YT_DISPATCH(unit)->is_inited)), CMM_ERR_NOT_INIT);
 7833              		.loc 1 834 5 discriminator 5 view .LVU2211
 7834 0044 0420     		movs	r0, #4
 7835 0046 EAE7     		b	.L801
 7836              	.LVL981:
 7837              	.L817:
 834:../switch_sdk/core/yt/yt_l2.c ****     CMM_PARAM_CHK((!(YT_DISPATCH(unit)->is_inited)), CMM_ERR_NOT_INIT);
 7838              		.loc 1 834 5 discriminator 3 view .LVU2212
 7839              	.LBB158:
 834:../switch_sdk/core/yt/yt_l2.c ****     CMM_PARAM_CHK((!(YT_DISPATCH(unit)->is_inited)), CMM_ERR_NOT_INIT);
 7840              		.loc 1 834 5 discriminator 3 view .LVU2213
 7841 0048 134B     		ldr	r3, .L820+8
 7842 004a 1A69     		ldr	r2, [r3, #16]
 7843 004c 134B     		ldr	r3, .L820+12
 7844 004e 9968     		ldr	r1, [r3, #8]
 7845              	.LVL982:
 834:../switch_sdk/core/yt/yt_l2.c ****     CMM_PARAM_CHK((!(YT_DISPATCH(unit)->is_inited)), CMM_ERR_NOT_INIT);
 7846              		.loc 1 834 5 is_stmt 0 discriminator 3 view .LVU2214
 7847 0050 1348     		ldr	r0, .L820+16
 7848              	.LVL983:
 834:../switch_sdk/core/yt/yt_l2.c ****     CMM_PARAM_CHK((!(YT_DISPATCH(unit)->is_inited)), CMM_ERR_NOT_INIT);
 7849              		.loc 1 834 5 discriminator 3 view .LVU2215
 7850 0052 FFF7FEFF 		bl	osal_printf
 7851              	.LVL984:
 7852 0056 F5E7     		b	.L806
 7853              	.LVL985:
 7854              	.L814:
 834:../switch_sdk/core/yt/yt_l2.c ****     CMM_PARAM_CHK((!(YT_DISPATCH(unit)->is_inited)), CMM_ERR_NOT_INIT);
 7855              		.loc 1 834 5 discriminator 3 view .LVU2216
 7856              	.LBE158:
 835:../switch_sdk/core/yt/yt_l2.c ****     CMM_PARAM_CHK((NULL == pport_mask), CMM_ERR_NULL_POINT);
 7857              		.loc 1 835 5 is_stmt 1 discriminator 1 view .LVU2217
 835:../switch_sdk/core/yt/yt_l2.c ****     CMM_PARAM_CHK((NULL == pport_mask), CMM_ERR_NULL_POINT);
 7858              		.loc 1 835 5 discriminator 1 view .LVU2218
 7859 0058 0E4B     		ldr	r3, .L820+4
 7860 005a 1B78     		ldrb	r3, [r3]	@ zero_extendqisi2
 7861 005c 012B     		cmp	r3, #1
 7862 005e 01D8     		bhi	.L818
 7863              	.LVL986:
 7864              	.L808:
 835:../switch_sdk/core/yt/yt_l2.c ****     CMM_PARAM_CHK((NULL == pport_mask), CMM_ERR_NULL_POINT);
 7865              		.loc 1 835 5 discriminator 5 view .LVU2219
 835:../switch_sdk/core/yt/yt_l2.c ****     CMM_PARAM_CHK((NULL == pport_mask), CMM_ERR_NULL_POINT);
 7866              		.loc 1 835 5 discriminator 5 view .LVU2220
 835:../switch_sdk/core/yt/yt_l2.c ****     CMM_PARAM_CHK((NULL == pport_mask), CMM_ERR_NULL_POINT);
 7867              		.loc 1 835 5 discriminator 5 view .LVU2221
 7868 0060 0420     		movs	r0, #4
 7869 0062 DCE7     		b	.L801
 7870              	.LVL987:
 7871              	.L818:
 835:../switch_sdk/core/yt/yt_l2.c ****     CMM_PARAM_CHK((NULL == pport_mask), CMM_ERR_NULL_POINT);
 7872              		.loc 1 835 5 discriminator 3 view .LVU2222
 7873              	.LBB159:
 835:../switch_sdk/core/yt/yt_l2.c ****     CMM_PARAM_CHK((NULL == pport_mask), CMM_ERR_NULL_POINT);
 7874              		.loc 1 835 5 discriminator 3 view .LVU2223
 7875 0064 0C4B     		ldr	r3, .L820+8
 7876 0066 1A69     		ldr	r2, [r3, #16]
 7877 0068 0C4B     		ldr	r3, .L820+12
 7878 006a 9968     		ldr	r1, [r3, #8]
 7879              	.LVL988:
 835:../switch_sdk/core/yt/yt_l2.c ****     CMM_PARAM_CHK((NULL == pport_mask), CMM_ERR_NULL_POINT);
 7880              		.loc 1 835 5 is_stmt 0 discriminator 3 view .LVU2224
 7881 006c 0C48     		ldr	r0, .L820+16
 7882 006e FFF7FEFF 		bl	osal_printf
 7883              	.LVL989:
 7884 0072 F5E7     		b	.L808
 7885              	.LVL990:
 7886              	.L815:
 835:../switch_sdk/core/yt/yt_l2.c ****     CMM_PARAM_CHK((NULL == pport_mask), CMM_ERR_NULL_POINT);
 7887              		.loc 1 835 5 discriminator 3 view .LVU2225
 7888              	.LBE159:
 836:../switch_sdk/core/yt/yt_l2.c **** 
 7889              		.loc 1 836 5 is_stmt 1 discriminator 1 view .LVU2226
 836:../switch_sdk/core/yt/yt_l2.c **** 
 7890              		.loc 1 836 5 discriminator 1 view .LVU2227
 7891 0074 074B     		ldr	r3, .L820+4
 7892 0076 1B78     		ldrb	r3, [r3]	@ zero_extendqisi2
 7893 0078 012B     		cmp	r3, #1
 7894 007a 01D8     		bhi	.L819
 7895              	.LVL991:
 7896              	.L810:
 836:../switch_sdk/core/yt/yt_l2.c **** 
 7897              		.loc 1 836 5 discriminator 5 view .LVU2228
 836:../switch_sdk/core/yt/yt_l2.c **** 
 7898              		.loc 1 836 5 discriminator 5 view .LVU2229
 836:../switch_sdk/core/yt/yt_l2.c **** 
 7899              		.loc 1 836 5 discriminator 5 view .LVU2230
 7900 007c 0220     		movs	r0, #2
 7901 007e CEE7     		b	.L801
 7902              	.LVL992:
 7903              	.L819:
 836:../switch_sdk/core/yt/yt_l2.c **** 
 7904              		.loc 1 836 5 discriminator 3 view .LVU2231
 7905              	.LBB160:
 836:../switch_sdk/core/yt/yt_l2.c **** 
 7906              		.loc 1 836 5 discriminator 3 view .LVU2232
 7907 0080 054B     		ldr	r3, .L820+8
 7908 0082 9A68     		ldr	r2, [r3, #8]
 7909 0084 054B     		ldr	r3, .L820+12
 7910 0086 9968     		ldr	r1, [r3, #8]
 7911              	.LVL993:
 836:../switch_sdk/core/yt/yt_l2.c **** 
 7912              		.loc 1 836 5 is_stmt 0 discriminator 3 view .LVU2233
 7913 0088 0548     		ldr	r0, .L820+16
 7914 008a FFF7FEFF 		bl	osal_printf
 7915              	.LVL994:
 7916 008e F5E7     		b	.L810
 7917              	.L821:
 7918              		.align	2
 7919              	.L820:
 7920 0090 00000000 		.word	gpfal_dispatch
 7921 0094 00000000 		.word	yt_debug_level
 7922 0098 00000000 		.word	_yt_errmsg
 7923 009c 00000000 		.word	_yt_prompt_msg
 7924 00a0 00000000 		.word	.LC0
 7925              	.LBE160:
 7926              		.cfi_endproc
 7927              	.LFE39:
 7929              		.section	.text.yt_l2_filter_unknown_ucast_set,"ax",%progbits
 7930              		.align	1
 7931              		.global	yt_l2_filter_unknown_ucast_set
 7932              		.syntax unified
 7933              		.thumb
 7934              		.thumb_func
 7936              	yt_l2_filter_unknown_ucast_set:
 7937              	.LVL995:
 7938              	.LFB40:
 840:../switch_sdk/core/yt/yt_l2.c **** 
 841:../switch_sdk/core/yt/yt_l2.c **** /**
 842:../switch_sdk/core/yt/yt_l2.c ****  * @internal      yt_l2_filter_unknown_ucast_set
 843:../switch_sdk/core/yt/yt_l2.c ****  * @endinternal
 844:../switch_sdk/core/yt/yt_l2.c ****  *
 845:../switch_sdk/core/yt/yt_l2.c ****  * @brief         Description
 846:../switch_sdk/core/yt/yt_l2.c ****  * @note          APPLICABLE DEVICES  -Tiger
 847:../switch_sdk/core/yt/yt_l2.c ****  * @param[in]     unit                -unit id
 848:../switch_sdk/core/yt/yt_l2.c ****  * @param[in]     port_mask           -port bit mask
 849:../switch_sdk/core/yt/yt_l2.c ****  * @retval        CMM_ERR_OK          -on success
 850:../switch_sdk/core/yt/yt_l2.c ****  * @retval        CMM_ERR_FAIL        -on fail
 851:../switch_sdk/core/yt/yt_l2.c ****  */
 852:../switch_sdk/core/yt/yt_l2.c **** yt_ret_t  yt_l2_filter_unknown_ucast_set(yt_unit_t unit, yt_port_mask_t port_mask)
 853:../switch_sdk/core/yt/yt_l2.c **** {
 7939              		.loc 1 853 1 is_stmt 1 view -0
 7940              		.cfi_startproc
 7941              		@ args = 0, pretend = 0, frame = 0
 7942              		@ frame_needed = 0, uses_anonymous_args = 0
 7943              		.loc 1 853 1 is_stmt 0 view .LVU2235
 7944 0000 38B5     		push	{r3, r4, r5, lr}
 7945              		.cfi_def_cfa_offset 16
 7946              		.cfi_offset 3, -16
 7947              		.cfi_offset 4, -12
 7948              		.cfi_offset 5, -8
 7949              		.cfi_offset 14, -4
 854:../switch_sdk/core/yt/yt_l2.c ****     CMM_PARAM_CHK((YT_UNIT_NUM <= unit), CMM_ERR_INPUT);
 7950              		.loc 1 854 5 is_stmt 1 view .LVU2236
 7951              		.loc 1 854 5 view .LVU2237
 7952 0002 A8B9     		cbnz	r0, .L833
 7953 0004 0D46     		mov	r5, r1
 7954              	.LVL996:
 7955              		.loc 1 854 5 is_stmt 0 view .LVU2238
 7956 0006 0446     		mov	r4, r0
 7957              		.loc 1 854 5 is_stmt 1 discriminator 2 view .LVU2239
 855:../switch_sdk/core/yt/yt_l2.c ****     CMM_PARAM_CHK(NULL == YT_DISPATCH(unit), CMM_ERR_NOT_INIT);
 7958              		.loc 1 855 5 discriminator 2 view .LVU2240
 7959              		.loc 1 855 5 discriminator 2 view .LVU2241
 7960 0008 254B     		ldr	r3, .L841
 7961 000a 53F82030 		ldr	r3, [r3, r0, lsl #2]
 7962 000e EBB1     		cbz	r3, .L834
 7963              		.loc 1 855 5 discriminator 2 view .LVU2242
 856:../switch_sdk/core/yt/yt_l2.c ****     CMM_PARAM_CHK((!(YT_DISPATCH(unit)->is_inited)), CMM_ERR_NOT_INIT);
 7964              		.loc 1 856 5 discriminator 2 view .LVU2243
 7965              		.loc 1 856 5 discriminator 2 view .LVU2244
 7966 0010 1B78     		ldrb	r3, [r3]	@ zero_extendqisi2
 7967 0012 4BB3     		cbz	r3, .L835
 7968              		.loc 1 856 5 discriminator 2 view .LVU2245
 857:../switch_sdk/core/yt/yt_l2.c ****     CMM_PARAM_CHK((!(CMM_PLIST_CPUPORT_VALID(unit, port_mask))), CMM_ERR_PORTLIST);
 7969              		.loc 1 857 5 discriminator 2 view .LVU2246
 7970              		.loc 1 857 5 discriminator 2 view .LVU2247
 7971 0014 0122     		movs	r2, #1
 7972 0016 FFF7FEFF 		bl	cal_ytportmask_isvalid
 7973              	.LVL997:
 7974              		.loc 1 857 5 is_stmt 0 discriminator 2 view .LVU2248
 7975 001a 0028     		cmp	r0, #0
 7976 001c 32D1     		bne	.L836
 7977              		.loc 1 857 5 is_stmt 1 discriminator 2 view .LVU2249
 858:../switch_sdk/core/yt/yt_l2.c **** 
 859:../switch_sdk/core/yt/yt_l2.c ****     return YT_DISPATCH(unit)->l2_filter_unknown_ucast_set(unit, port_mask);
 7978              		.loc 1 859 5 discriminator 2 view .LVU2250
 7979              		.loc 1 859 12 is_stmt 0 discriminator 2 view .LVU2251
 7980 001e 204B     		ldr	r3, .L841
 7981 0020 53F82430 		ldr	r3, [r3, r4, lsl #2]
 7982              		.loc 1 859 29 discriminator 2 view .LVU2252
 7983 0024 D3F8EC33 		ldr	r3, [r3, #1004]
 7984              	.LVL998:
 7985              		.loc 1 859 12 discriminator 2 view .LVU2253
 7986 0028 2946     		mov	r1, r5
 7987 002a 2046     		mov	r0, r4
 7988 002c 9847     		blx	r3
 7989              	.LVL999:
 7990              	.L822:
 860:../switch_sdk/core/yt/yt_l2.c **** }
 7991              		.loc 1 860 1 view .LVU2254
 7992 002e 38BD     		pop	{r3, r4, r5, pc}
 7993              	.LVL1000:
 7994              	.L833:
 854:../switch_sdk/core/yt/yt_l2.c ****     CMM_PARAM_CHK(NULL == YT_DISPATCH(unit), CMM_ERR_NOT_INIT);
 7995              		.loc 1 854 5 is_stmt 1 discriminator 1 view .LVU2255
 854:../switch_sdk/core/yt/yt_l2.c ****     CMM_PARAM_CHK(NULL == YT_DISPATCH(unit), CMM_ERR_NOT_INIT);
 7996              		.loc 1 854 5 discriminator 1 view .LVU2256
 7997 0030 1C4B     		ldr	r3, .L841+4
 7998 0032 1B78     		ldrb	r3, [r3]	@ zero_extendqisi2
 7999 0034 012B     		cmp	r3, #1
 8000 0036 01D8     		bhi	.L837
 8001              	.LVL1001:
 8002              	.L824:
 854:../switch_sdk/core/yt/yt_l2.c ****     CMM_PARAM_CHK(NULL == YT_DISPATCH(unit), CMM_ERR_NOT_INIT);
 8003              		.loc 1 854 5 discriminator 5 view .LVU2257
 854:../switch_sdk/core/yt/yt_l2.c ****     CMM_PARAM_CHK(NULL == YT_DISPATCH(unit), CMM_ERR_NOT_INIT);
 8004              		.loc 1 854 5 discriminator 5 view .LVU2258
 854:../switch_sdk/core/yt/yt_l2.c ****     CMM_PARAM_CHK(NULL == YT_DISPATCH(unit), CMM_ERR_NOT_INIT);
 8005              		.loc 1 854 5 discriminator 5 view .LVU2259
 8006 0038 0520     		movs	r0, #5
 8007 003a F8E7     		b	.L822
 8008              	.LVL1002:
 8009              	.L837:
 854:../switch_sdk/core/yt/yt_l2.c ****     CMM_PARAM_CHK(NULL == YT_DISPATCH(unit), CMM_ERR_NOT_INIT);
 8010              		.loc 1 854 5 discriminator 3 view .LVU2260
 8011              	.LBB161:
 854:../switch_sdk/core/yt/yt_l2.c ****     CMM_PARAM_CHK(NULL == YT_DISPATCH(unit), CMM_ERR_NOT_INIT);
 8012              		.loc 1 854 5 discriminator 3 view .LVU2261
 8013 003c 1A4B     		ldr	r3, .L841+8
 8014 003e 5A69     		ldr	r2, [r3, #20]
 8015 0040 1A4B     		ldr	r3, .L841+12
 8016 0042 9968     		ldr	r1, [r3, #8]
 8017              	.LVL1003:
 854:../switch_sdk/core/yt/yt_l2.c ****     CMM_PARAM_CHK(NULL == YT_DISPATCH(unit), CMM_ERR_NOT_INIT);
 8018              		.loc 1 854 5 is_stmt 0 discriminator 3 view .LVU2262
 8019 0044 1A48     		ldr	r0, .L841+16
 8020              	.LVL1004:
 854:../switch_sdk/core/yt/yt_l2.c ****     CMM_PARAM_CHK(NULL == YT_DISPATCH(unit), CMM_ERR_NOT_INIT);
 8021              		.loc 1 854 5 discriminator 3 view .LVU2263
 8022 0046 FFF7FEFF 		bl	osal_printf
 8023              	.LVL1005:
 8024 004a F5E7     		b	.L824
 8025              	.LVL1006:
 8026              	.L834:
 854:../switch_sdk/core/yt/yt_l2.c ****     CMM_PARAM_CHK(NULL == YT_DISPATCH(unit), CMM_ERR_NOT_INIT);
 8027              		.loc 1 854 5 discriminator 3 view .LVU2264
 8028              	.LBE161:
 855:../switch_sdk/core/yt/yt_l2.c ****     CMM_PARAM_CHK((!(YT_DISPATCH(unit)->is_inited)), CMM_ERR_NOT_INIT);
 8029              		.loc 1 855 5 is_stmt 1 discriminator 1 view .LVU2265
 855:../switch_sdk/core/yt/yt_l2.c ****     CMM_PARAM_CHK((!(YT_DISPATCH(unit)->is_inited)), CMM_ERR_NOT_INIT);
 8030              		.loc 1 855 5 discriminator 1 view .LVU2266
 8031 004c 154B     		ldr	r3, .L841+4
 8032 004e 1B78     		ldrb	r3, [r3]	@ zero_extendqisi2
 8033 0050 012B     		cmp	r3, #1
 8034 0052 01D8     		bhi	.L838
 8035              	.LVL1007:
 8036              	.L827:
 855:../switch_sdk/core/yt/yt_l2.c ****     CMM_PARAM_CHK((!(YT_DISPATCH(unit)->is_inited)), CMM_ERR_NOT_INIT);
 8037              		.loc 1 855 5 discriminator 5 view .LVU2267
 855:../switch_sdk/core/yt/yt_l2.c ****     CMM_PARAM_CHK((!(YT_DISPATCH(unit)->is_inited)), CMM_ERR_NOT_INIT);
 8038              		.loc 1 855 5 discriminator 5 view .LVU2268
 855:../switch_sdk/core/yt/yt_l2.c ****     CMM_PARAM_CHK((!(YT_DISPATCH(unit)->is_inited)), CMM_ERR_NOT_INIT);
 8039              		.loc 1 855 5 discriminator 5 view .LVU2269
 8040 0054 0420     		movs	r0, #4
 8041 0056 EAE7     		b	.L822
 8042              	.LVL1008:
 8043              	.L838:
 855:../switch_sdk/core/yt/yt_l2.c ****     CMM_PARAM_CHK((!(YT_DISPATCH(unit)->is_inited)), CMM_ERR_NOT_INIT);
 8044              		.loc 1 855 5 discriminator 3 view .LVU2270
 8045              	.LBB162:
 855:../switch_sdk/core/yt/yt_l2.c ****     CMM_PARAM_CHK((!(YT_DISPATCH(unit)->is_inited)), CMM_ERR_NOT_INIT);
 8046              		.loc 1 855 5 discriminator 3 view .LVU2271
 8047 0058 134B     		ldr	r3, .L841+8
 8048 005a 1A69     		ldr	r2, [r3, #16]
 8049 005c 134B     		ldr	r3, .L841+12
 8050 005e 9968     		ldr	r1, [r3, #8]
 8051 0060 1348     		ldr	r0, .L841+16
 8052              	.LVL1009:
 855:../switch_sdk/core/yt/yt_l2.c ****     CMM_PARAM_CHK((!(YT_DISPATCH(unit)->is_inited)), CMM_ERR_NOT_INIT);
 8053              		.loc 1 855 5 is_stmt 0 discriminator 3 view .LVU2272
 8054 0062 FFF7FEFF 		bl	osal_printf
 8055              	.LVL1010:
 8056 0066 F5E7     		b	.L827
 8057              	.LVL1011:
 8058              	.L835:
 855:../switch_sdk/core/yt/yt_l2.c ****     CMM_PARAM_CHK((!(YT_DISPATCH(unit)->is_inited)), CMM_ERR_NOT_INIT);
 8059              		.loc 1 855 5 discriminator 3 view .LVU2273
 8060              	.LBE162:
 856:../switch_sdk/core/yt/yt_l2.c ****     CMM_PARAM_CHK((!(CMM_PLIST_CPUPORT_VALID(unit, port_mask))), CMM_ERR_PORTLIST);
 8061              		.loc 1 856 5 is_stmt 1 discriminator 1 view .LVU2274
 856:../switch_sdk/core/yt/yt_l2.c ****     CMM_PARAM_CHK((!(CMM_PLIST_CPUPORT_VALID(unit, port_mask))), CMM_ERR_PORTLIST);
 8062              		.loc 1 856 5 discriminator 1 view .LVU2275
 8063 0068 0E4B     		ldr	r3, .L841+4
 8064 006a 1B78     		ldrb	r3, [r3]	@ zero_extendqisi2
 8065 006c 012B     		cmp	r3, #1
 8066 006e 01D8     		bhi	.L839
 8067              	.LVL1012:
 8068              	.L829:
 856:../switch_sdk/core/yt/yt_l2.c ****     CMM_PARAM_CHK((!(CMM_PLIST_CPUPORT_VALID(unit, port_mask))), CMM_ERR_PORTLIST);
 8069              		.loc 1 856 5 discriminator 5 view .LVU2276
 856:../switch_sdk/core/yt/yt_l2.c ****     CMM_PARAM_CHK((!(CMM_PLIST_CPUPORT_VALID(unit, port_mask))), CMM_ERR_PORTLIST);
 8070              		.loc 1 856 5 discriminator 5 view .LVU2277
 856:../switch_sdk/core/yt/yt_l2.c ****     CMM_PARAM_CHK((!(CMM_PLIST_CPUPORT_VALID(unit, port_mask))), CMM_ERR_PORTLIST);
 8071              		.loc 1 856 5 discriminator 5 view .LVU2278
 8072 0070 0420     		movs	r0, #4
 8073 0072 DCE7     		b	.L822
 8074              	.LVL1013:
 8075              	.L839:
 856:../switch_sdk/core/yt/yt_l2.c ****     CMM_PARAM_CHK((!(CMM_PLIST_CPUPORT_VALID(unit, port_mask))), CMM_ERR_PORTLIST);
 8076              		.loc 1 856 5 discriminator 3 view .LVU2279
 8077              	.LBB163:
 856:../switch_sdk/core/yt/yt_l2.c ****     CMM_PARAM_CHK((!(CMM_PLIST_CPUPORT_VALID(unit, port_mask))), CMM_ERR_PORTLIST);
 8078              		.loc 1 856 5 discriminator 3 view .LVU2280
 8079 0074 0C4B     		ldr	r3, .L841+8
 8080 0076 1A69     		ldr	r2, [r3, #16]
 8081 0078 0C4B     		ldr	r3, .L841+12
 8082 007a 9968     		ldr	r1, [r3, #8]
 8083 007c 0C48     		ldr	r0, .L841+16
 8084              	.LVL1014:
 856:../switch_sdk/core/yt/yt_l2.c ****     CMM_PARAM_CHK((!(CMM_PLIST_CPUPORT_VALID(unit, port_mask))), CMM_ERR_PORTLIST);
 8085              		.loc 1 856 5 is_stmt 0 discriminator 3 view .LVU2281
 8086 007e FFF7FEFF 		bl	osal_printf
 8087              	.LVL1015:
 8088 0082 F5E7     		b	.L829
 8089              	.L836:
 8090              	.LBE163:
 857:../switch_sdk/core/yt/yt_l2.c **** 
 8091              		.loc 1 857 5 is_stmt 1 discriminator 1 view .LVU2282
 857:../switch_sdk/core/yt/yt_l2.c **** 
 8092              		.loc 1 857 5 discriminator 1 view .LVU2283
 8093 0084 074B     		ldr	r3, .L841+4
 8094 0086 1B78     		ldrb	r3, [r3]	@ zero_extendqisi2
 8095 0088 012B     		cmp	r3, #1
 8096 008a 01D8     		bhi	.L840
 8097              	.L831:
 857:../switch_sdk/core/yt/yt_l2.c **** 
 8098              		.loc 1 857 5 discriminator 5 view .LVU2284
 857:../switch_sdk/core/yt/yt_l2.c **** 
 8099              		.loc 1 857 5 discriminator 5 view .LVU2285
 857:../switch_sdk/core/yt/yt_l2.c **** 
 8100              		.loc 1 857 5 discriminator 5 view .LVU2286
 8101 008c 0F20     		movs	r0, #15
 8102 008e CEE7     		b	.L822
 8103              	.L840:
 857:../switch_sdk/core/yt/yt_l2.c **** 
 8104              		.loc 1 857 5 discriminator 3 view .LVU2287
 8105              	.LBB164:
 857:../switch_sdk/core/yt/yt_l2.c **** 
 8106              		.loc 1 857 5 discriminator 3 view .LVU2288
 8107 0090 054B     		ldr	r3, .L841+8
 8108 0092 DA6B     		ldr	r2, [r3, #60]
 8109 0094 054B     		ldr	r3, .L841+12
 8110 0096 9968     		ldr	r1, [r3, #8]
 8111 0098 0548     		ldr	r0, .L841+16
 8112 009a FFF7FEFF 		bl	osal_printf
 8113              	.LVL1016:
 8114 009e F5E7     		b	.L831
 8115              	.L842:
 8116              		.align	2
 8117              	.L841:
 8118 00a0 00000000 		.word	gpfal_dispatch
 8119 00a4 00000000 		.word	yt_debug_level
 8120 00a8 00000000 		.word	_yt_errmsg
 8121 00ac 00000000 		.word	_yt_prompt_msg
 8122 00b0 00000000 		.word	.LC0
 8123              	.LBE164:
 8124              		.cfi_endproc
 8125              	.LFE40:
 8127              		.section	.text.yt_l2_filter_unknown_ucast_get,"ax",%progbits
 8128              		.align	1
 8129              		.global	yt_l2_filter_unknown_ucast_get
 8130              		.syntax unified
 8131              		.thumb
 8132              		.thumb_func
 8134              	yt_l2_filter_unknown_ucast_get:
 8135              	.LVL1017:
 8136              	.LFB41:
 861:../switch_sdk/core/yt/yt_l2.c **** 
 862:../switch_sdk/core/yt/yt_l2.c **** /**
 863:../switch_sdk/core/yt/yt_l2.c ****  * @internal      yt_l2_filter_unknown_ucast_get
 864:../switch_sdk/core/yt/yt_l2.c ****  * @endinternal
 865:../switch_sdk/core/yt/yt_l2.c ****  *
 866:../switch_sdk/core/yt/yt_l2.c ****  * @brief         Description
 867:../switch_sdk/core/yt/yt_l2.c ****  * @note          APPLICABLE DEVICES  -Tiger
 868:../switch_sdk/core/yt/yt_l2.c ****  * @param[in]     unit                -unit id
 869:../switch_sdk/core/yt/yt_l2.c ****  * @param[out]    pport_mask          -port bit mask
 870:../switch_sdk/core/yt/yt_l2.c ****  * @retval        CMM_ERR_OK          -on success
 871:../switch_sdk/core/yt/yt_l2.c ****  * @retval        CMM_ERR_FAIL        -on fail
 872:../switch_sdk/core/yt/yt_l2.c ****  */
 873:../switch_sdk/core/yt/yt_l2.c **** yt_ret_t  yt_l2_filter_unknown_ucast_get(yt_unit_t unit, yt_port_mask_t *pport_mask)
 874:../switch_sdk/core/yt/yt_l2.c **** {
 8137              		.loc 1 874 1 view -0
 8138              		.cfi_startproc
 8139              		@ args = 0, pretend = 0, frame = 0
 8140              		@ frame_needed = 0, uses_anonymous_args = 0
 8141              		.loc 1 874 1 is_stmt 0 view .LVU2290
 8142 0000 08B5     		push	{r3, lr}
 8143              		.cfi_def_cfa_offset 8
 8144              		.cfi_offset 3, -8
 8145              		.cfi_offset 14, -4
 875:../switch_sdk/core/yt/yt_l2.c ****     CMM_PARAM_CHK((YT_UNIT_NUM <= unit), CMM_ERR_INPUT);
 8146              		.loc 1 875 5 is_stmt 1 view .LVU2291
 8147              		.loc 1 875 5 view .LVU2292
 8148 0002 68B9     		cbnz	r0, .L854
 8149 0004 0246     		mov	r2, r0
 8150              		.loc 1 875 5 discriminator 2 view .LVU2293
 876:../switch_sdk/core/yt/yt_l2.c ****     CMM_PARAM_CHK(NULL == YT_DISPATCH(unit), CMM_ERR_NOT_INIT);
 8151              		.loc 1 876 5 discriminator 2 view .LVU2294
 8152              		.loc 1 876 5 discriminator 2 view .LVU2295
 8153 0006 224B     		ldr	r3, .L862
 8154 0008 53F82030 		ldr	r3, [r3, r0, lsl #2]
 8155 000c B3B1     		cbz	r3, .L855
 8156              		.loc 1 876 5 discriminator 2 view .LVU2296
 877:../switch_sdk/core/yt/yt_l2.c ****     CMM_PARAM_CHK((!(YT_DISPATCH(unit)->is_inited)), CMM_ERR_NOT_INIT);
 8157              		.loc 1 877 5 discriminator 2 view .LVU2297
 8158              		.loc 1 877 5 discriminator 2 view .LVU2298
 8159 000e 1878     		ldrb	r0, [r3]	@ zero_extendqisi2
 8160              	.LVL1018:
 8161              		.loc 1 877 5 is_stmt 0 discriminator 2 view .LVU2299
 8162 0010 10B3     		cbz	r0, .L856
 8163              		.loc 1 877 5 is_stmt 1 discriminator 2 view .LVU2300
 878:../switch_sdk/core/yt/yt_l2.c ****     CMM_PARAM_CHK((NULL == pport_mask), CMM_ERR_NULL_POINT);
 8164              		.loc 1 878 5 discriminator 2 view .LVU2301
 8165              		.loc 1 878 5 discriminator 2 view .LVU2302
 8166 0012 0029     		cmp	r1, #0
 8167 0014 2ED0     		beq	.L857
 8168              		.loc 1 878 5 discriminator 2 view .LVU2303
 879:../switch_sdk/core/yt/yt_l2.c **** 
 880:../switch_sdk/core/yt/yt_l2.c ****     return YT_DISPATCH(unit)->l2_filter_unknown_ucast_get(unit, pport_mask);
 8169              		.loc 1 880 5 discriminator 2 view .LVU2304
 8170              		.loc 1 880 29 is_stmt 0 discriminator 2 view .LVU2305
 8171 0016 D3F8F033 		ldr	r3, [r3, #1008]
 8172              		.loc 1 880 12 discriminator 2 view .LVU2306
 8173 001a 1046     		mov	r0, r2
 8174 001c 9847     		blx	r3
 8175              	.LVL1019:
 8176              	.L843:
 881:../switch_sdk/core/yt/yt_l2.c **** }
 8177              		.loc 1 881 1 view .LVU2307
 8178 001e 08BD     		pop	{r3, pc}
 8179              	.LVL1020:
 8180              	.L854:
 875:../switch_sdk/core/yt/yt_l2.c ****     CMM_PARAM_CHK(NULL == YT_DISPATCH(unit), CMM_ERR_NOT_INIT);
 8181              		.loc 1 875 5 is_stmt 1 discriminator 1 view .LVU2308
 875:../switch_sdk/core/yt/yt_l2.c ****     CMM_PARAM_CHK(NULL == YT_DISPATCH(unit), CMM_ERR_NOT_INIT);
 8182              		.loc 1 875 5 discriminator 1 view .LVU2309
 8183 0020 1C4B     		ldr	r3, .L862+4
 8184 0022 1B78     		ldrb	r3, [r3]	@ zero_extendqisi2
 8185 0024 012B     		cmp	r3, #1
 8186 0026 01D8     		bhi	.L858
 8187              	.LVL1021:
 8188              	.L845:
 875:../switch_sdk/core/yt/yt_l2.c ****     CMM_PARAM_CHK(NULL == YT_DISPATCH(unit), CMM_ERR_NOT_INIT);
 8189              		.loc 1 875 5 discriminator 5 view .LVU2310
 875:../switch_sdk/core/yt/yt_l2.c ****     CMM_PARAM_CHK(NULL == YT_DISPATCH(unit), CMM_ERR_NOT_INIT);
 8190              		.loc 1 875 5 discriminator 5 view .LVU2311
 875:../switch_sdk/core/yt/yt_l2.c ****     CMM_PARAM_CHK(NULL == YT_DISPATCH(unit), CMM_ERR_NOT_INIT);
 8191              		.loc 1 875 5 discriminator 5 view .LVU2312
 8192 0028 0520     		movs	r0, #5
 8193 002a F8E7     		b	.L843
 8194              	.LVL1022:
 8195              	.L858:
 875:../switch_sdk/core/yt/yt_l2.c ****     CMM_PARAM_CHK(NULL == YT_DISPATCH(unit), CMM_ERR_NOT_INIT);
 8196              		.loc 1 875 5 discriminator 3 view .LVU2313
 8197              	.LBB165:
 875:../switch_sdk/core/yt/yt_l2.c ****     CMM_PARAM_CHK(NULL == YT_DISPATCH(unit), CMM_ERR_NOT_INIT);
 8198              		.loc 1 875 5 discriminator 3 view .LVU2314
 8199 002c 1A4B     		ldr	r3, .L862+8
 8200 002e 5A69     		ldr	r2, [r3, #20]
 8201 0030 1A4B     		ldr	r3, .L862+12
 8202 0032 9968     		ldr	r1, [r3, #8]
 8203              	.LVL1023:
 875:../switch_sdk/core/yt/yt_l2.c ****     CMM_PARAM_CHK(NULL == YT_DISPATCH(unit), CMM_ERR_NOT_INIT);
 8204              		.loc 1 875 5 is_stmt 0 discriminator 3 view .LVU2315
 8205 0034 1A48     		ldr	r0, .L862+16
 8206              	.LVL1024:
 875:../switch_sdk/core/yt/yt_l2.c ****     CMM_PARAM_CHK(NULL == YT_DISPATCH(unit), CMM_ERR_NOT_INIT);
 8207              		.loc 1 875 5 discriminator 3 view .LVU2316
 8208 0036 FFF7FEFF 		bl	osal_printf
 8209              	.LVL1025:
 8210 003a F5E7     		b	.L845
 8211              	.LVL1026:
 8212              	.L855:
 875:../switch_sdk/core/yt/yt_l2.c ****     CMM_PARAM_CHK(NULL == YT_DISPATCH(unit), CMM_ERR_NOT_INIT);
 8213              		.loc 1 875 5 discriminator 3 view .LVU2317
 8214              	.LBE165:
 876:../switch_sdk/core/yt/yt_l2.c ****     CMM_PARAM_CHK((!(YT_DISPATCH(unit)->is_inited)), CMM_ERR_NOT_INIT);
 8215              		.loc 1 876 5 is_stmt 1 discriminator 1 view .LVU2318
 876:../switch_sdk/core/yt/yt_l2.c ****     CMM_PARAM_CHK((!(YT_DISPATCH(unit)->is_inited)), CMM_ERR_NOT_INIT);
 8216              		.loc 1 876 5 discriminator 1 view .LVU2319
 8217 003c 154B     		ldr	r3, .L862+4
 8218 003e 1B78     		ldrb	r3, [r3]	@ zero_extendqisi2
 8219 0040 012B     		cmp	r3, #1
 8220 0042 01D8     		bhi	.L859
 8221              	.LVL1027:
 8222              	.L848:
 876:../switch_sdk/core/yt/yt_l2.c ****     CMM_PARAM_CHK((!(YT_DISPATCH(unit)->is_inited)), CMM_ERR_NOT_INIT);
 8223              		.loc 1 876 5 discriminator 5 view .LVU2320
 876:../switch_sdk/core/yt/yt_l2.c ****     CMM_PARAM_CHK((!(YT_DISPATCH(unit)->is_inited)), CMM_ERR_NOT_INIT);
 8224              		.loc 1 876 5 discriminator 5 view .LVU2321
 876:../switch_sdk/core/yt/yt_l2.c ****     CMM_PARAM_CHK((!(YT_DISPATCH(unit)->is_inited)), CMM_ERR_NOT_INIT);
 8225              		.loc 1 876 5 discriminator 5 view .LVU2322
 8226 0044 0420     		movs	r0, #4
 8227 0046 EAE7     		b	.L843
 8228              	.LVL1028:
 8229              	.L859:
 876:../switch_sdk/core/yt/yt_l2.c ****     CMM_PARAM_CHK((!(YT_DISPATCH(unit)->is_inited)), CMM_ERR_NOT_INIT);
 8230              		.loc 1 876 5 discriminator 3 view .LVU2323
 8231              	.LBB166:
 876:../switch_sdk/core/yt/yt_l2.c ****     CMM_PARAM_CHK((!(YT_DISPATCH(unit)->is_inited)), CMM_ERR_NOT_INIT);
 8232              		.loc 1 876 5 discriminator 3 view .LVU2324
 8233 0048 134B     		ldr	r3, .L862+8
 8234 004a 1A69     		ldr	r2, [r3, #16]
 8235 004c 134B     		ldr	r3, .L862+12
 8236 004e 9968     		ldr	r1, [r3, #8]
 8237              	.LVL1029:
 876:../switch_sdk/core/yt/yt_l2.c ****     CMM_PARAM_CHK((!(YT_DISPATCH(unit)->is_inited)), CMM_ERR_NOT_INIT);
 8238              		.loc 1 876 5 is_stmt 0 discriminator 3 view .LVU2325
 8239 0050 1348     		ldr	r0, .L862+16
 8240              	.LVL1030:
 876:../switch_sdk/core/yt/yt_l2.c ****     CMM_PARAM_CHK((!(YT_DISPATCH(unit)->is_inited)), CMM_ERR_NOT_INIT);
 8241              		.loc 1 876 5 discriminator 3 view .LVU2326
 8242 0052 FFF7FEFF 		bl	osal_printf
 8243              	.LVL1031:
 8244 0056 F5E7     		b	.L848
 8245              	.LVL1032:
 8246              	.L856:
 876:../switch_sdk/core/yt/yt_l2.c ****     CMM_PARAM_CHK((!(YT_DISPATCH(unit)->is_inited)), CMM_ERR_NOT_INIT);
 8247              		.loc 1 876 5 discriminator 3 view .LVU2327
 8248              	.LBE166:
 877:../switch_sdk/core/yt/yt_l2.c ****     CMM_PARAM_CHK((NULL == pport_mask), CMM_ERR_NULL_POINT);
 8249              		.loc 1 877 5 is_stmt 1 discriminator 1 view .LVU2328
 877:../switch_sdk/core/yt/yt_l2.c ****     CMM_PARAM_CHK((NULL == pport_mask), CMM_ERR_NULL_POINT);
 8250              		.loc 1 877 5 discriminator 1 view .LVU2329
 8251 0058 0E4B     		ldr	r3, .L862+4
 8252 005a 1B78     		ldrb	r3, [r3]	@ zero_extendqisi2
 8253 005c 012B     		cmp	r3, #1
 8254 005e 01D8     		bhi	.L860
 8255              	.LVL1033:
 8256              	.L850:
 877:../switch_sdk/core/yt/yt_l2.c ****     CMM_PARAM_CHK((NULL == pport_mask), CMM_ERR_NULL_POINT);
 8257              		.loc 1 877 5 discriminator 5 view .LVU2330
 877:../switch_sdk/core/yt/yt_l2.c ****     CMM_PARAM_CHK((NULL == pport_mask), CMM_ERR_NULL_POINT);
 8258              		.loc 1 877 5 discriminator 5 view .LVU2331
 877:../switch_sdk/core/yt/yt_l2.c ****     CMM_PARAM_CHK((NULL == pport_mask), CMM_ERR_NULL_POINT);
 8259              		.loc 1 877 5 discriminator 5 view .LVU2332
 8260 0060 0420     		movs	r0, #4
 8261 0062 DCE7     		b	.L843
 8262              	.LVL1034:
 8263              	.L860:
 877:../switch_sdk/core/yt/yt_l2.c ****     CMM_PARAM_CHK((NULL == pport_mask), CMM_ERR_NULL_POINT);
 8264              		.loc 1 877 5 discriminator 3 view .LVU2333
 8265              	.LBB167:
 877:../switch_sdk/core/yt/yt_l2.c ****     CMM_PARAM_CHK((NULL == pport_mask), CMM_ERR_NULL_POINT);
 8266              		.loc 1 877 5 discriminator 3 view .LVU2334
 8267 0064 0C4B     		ldr	r3, .L862+8
 8268 0066 1A69     		ldr	r2, [r3, #16]
 8269 0068 0C4B     		ldr	r3, .L862+12
 8270 006a 9968     		ldr	r1, [r3, #8]
 8271              	.LVL1035:
 877:../switch_sdk/core/yt/yt_l2.c ****     CMM_PARAM_CHK((NULL == pport_mask), CMM_ERR_NULL_POINT);
 8272              		.loc 1 877 5 is_stmt 0 discriminator 3 view .LVU2335
 8273 006c 0C48     		ldr	r0, .L862+16
 8274 006e FFF7FEFF 		bl	osal_printf
 8275              	.LVL1036:
 8276 0072 F5E7     		b	.L850
 8277              	.LVL1037:
 8278              	.L857:
 877:../switch_sdk/core/yt/yt_l2.c ****     CMM_PARAM_CHK((NULL == pport_mask), CMM_ERR_NULL_POINT);
 8279              		.loc 1 877 5 discriminator 3 view .LVU2336
 8280              	.LBE167:
 878:../switch_sdk/core/yt/yt_l2.c **** 
 8281              		.loc 1 878 5 is_stmt 1 discriminator 1 view .LVU2337
 878:../switch_sdk/core/yt/yt_l2.c **** 
 8282              		.loc 1 878 5 discriminator 1 view .LVU2338
 8283 0074 074B     		ldr	r3, .L862+4
 8284 0076 1B78     		ldrb	r3, [r3]	@ zero_extendqisi2
 8285 0078 012B     		cmp	r3, #1
 8286 007a 01D8     		bhi	.L861
 8287              	.LVL1038:
 8288              	.L852:
 878:../switch_sdk/core/yt/yt_l2.c **** 
 8289              		.loc 1 878 5 discriminator 5 view .LVU2339
 878:../switch_sdk/core/yt/yt_l2.c **** 
 8290              		.loc 1 878 5 discriminator 5 view .LVU2340
 878:../switch_sdk/core/yt/yt_l2.c **** 
 8291              		.loc 1 878 5 discriminator 5 view .LVU2341
 8292 007c 0220     		movs	r0, #2
 8293 007e CEE7     		b	.L843
 8294              	.LVL1039:
 8295              	.L861:
 878:../switch_sdk/core/yt/yt_l2.c **** 
 8296              		.loc 1 878 5 discriminator 3 view .LVU2342
 8297              	.LBB168:
 878:../switch_sdk/core/yt/yt_l2.c **** 
 8298              		.loc 1 878 5 discriminator 3 view .LVU2343
 8299 0080 054B     		ldr	r3, .L862+8
 8300 0082 9A68     		ldr	r2, [r3, #8]
 8301 0084 054B     		ldr	r3, .L862+12
 8302 0086 9968     		ldr	r1, [r3, #8]
 8303              	.LVL1040:
 878:../switch_sdk/core/yt/yt_l2.c **** 
 8304              		.loc 1 878 5 is_stmt 0 discriminator 3 view .LVU2344
 8305 0088 0548     		ldr	r0, .L862+16
 8306 008a FFF7FEFF 		bl	osal_printf
 8307              	.LVL1041:
 8308 008e F5E7     		b	.L852
 8309              	.L863:
 8310              		.align	2
 8311              	.L862:
 8312 0090 00000000 		.word	gpfal_dispatch
 8313 0094 00000000 		.word	yt_debug_level
 8314 0098 00000000 		.word	_yt_errmsg
 8315 009c 00000000 		.word	_yt_prompt_msg
 8316 00a0 00000000 		.word	.LC0
 8317              	.LBE168:
 8318              		.cfi_endproc
 8319              	.LFE41:
 8321              		.section	.text.yt_l2_filter_unknown_mcast_set,"ax",%progbits
 8322              		.align	1
 8323              		.global	yt_l2_filter_unknown_mcast_set
 8324              		.syntax unified
 8325              		.thumb
 8326              		.thumb_func
 8328              	yt_l2_filter_unknown_mcast_set:
 8329              	.LVL1042:
 8330              	.LFB42:
 882:../switch_sdk/core/yt/yt_l2.c **** 
 883:../switch_sdk/core/yt/yt_l2.c **** /**
 884:../switch_sdk/core/yt/yt_l2.c ****  * @internal      yt_l2_filter_unknown_mcast_set
 885:../switch_sdk/core/yt/yt_l2.c ****  * @endinternal
 886:../switch_sdk/core/yt/yt_l2.c ****  *
 887:../switch_sdk/core/yt/yt_l2.c ****  * @brief         Description
 888:../switch_sdk/core/yt/yt_l2.c ****  * @note          APPLICABLE DEVICES  -Tiger
 889:../switch_sdk/core/yt/yt_l2.c ****  * @param[in]     unit                -unit id
 890:../switch_sdk/core/yt/yt_l2.c ****  * @param[in]     port_mask           -port bit mask
 891:../switch_sdk/core/yt/yt_l2.c ****  * @retval        CMM_ERR_OK          -on success
 892:../switch_sdk/core/yt/yt_l2.c ****  * @retval        CMM_ERR_FAIL        -on fail
 893:../switch_sdk/core/yt/yt_l2.c ****  */
 894:../switch_sdk/core/yt/yt_l2.c **** yt_ret_t  yt_l2_filter_unknown_mcast_set(yt_unit_t unit, yt_port_mask_t port_mask)
 895:../switch_sdk/core/yt/yt_l2.c **** {
 8331              		.loc 1 895 1 is_stmt 1 view -0
 8332              		.cfi_startproc
 8333              		@ args = 0, pretend = 0, frame = 0
 8334              		@ frame_needed = 0, uses_anonymous_args = 0
 8335              		.loc 1 895 1 is_stmt 0 view .LVU2346
 8336 0000 38B5     		push	{r3, r4, r5, lr}
 8337              		.cfi_def_cfa_offset 16
 8338              		.cfi_offset 3, -16
 8339              		.cfi_offset 4, -12
 8340              		.cfi_offset 5, -8
 8341              		.cfi_offset 14, -4
 896:../switch_sdk/core/yt/yt_l2.c ****     CMM_PARAM_CHK((YT_UNIT_NUM <= unit), CMM_ERR_INPUT);
 8342              		.loc 1 896 5 is_stmt 1 view .LVU2347
 8343              		.loc 1 896 5 view .LVU2348
 8344 0002 A8B9     		cbnz	r0, .L875
 8345 0004 0D46     		mov	r5, r1
 8346              	.LVL1043:
 8347              		.loc 1 896 5 is_stmt 0 view .LVU2349
 8348 0006 0446     		mov	r4, r0
 8349              		.loc 1 896 5 is_stmt 1 discriminator 2 view .LVU2350
 897:../switch_sdk/core/yt/yt_l2.c ****     CMM_PARAM_CHK(NULL == YT_DISPATCH(unit), CMM_ERR_NOT_INIT);
 8350              		.loc 1 897 5 discriminator 2 view .LVU2351
 8351              		.loc 1 897 5 discriminator 2 view .LVU2352
 8352 0008 254B     		ldr	r3, .L883
 8353 000a 53F82030 		ldr	r3, [r3, r0, lsl #2]
 8354 000e EBB1     		cbz	r3, .L876
 8355              		.loc 1 897 5 discriminator 2 view .LVU2353
 898:../switch_sdk/core/yt/yt_l2.c ****     CMM_PARAM_CHK((!(YT_DISPATCH(unit)->is_inited)), CMM_ERR_NOT_INIT);
 8356              		.loc 1 898 5 discriminator 2 view .LVU2354
 8357              		.loc 1 898 5 discriminator 2 view .LVU2355
 8358 0010 1B78     		ldrb	r3, [r3]	@ zero_extendqisi2
 8359 0012 4BB3     		cbz	r3, .L877
 8360              		.loc 1 898 5 discriminator 2 view .LVU2356
 899:../switch_sdk/core/yt/yt_l2.c ****     CMM_PARAM_CHK((!(CMM_PLIST_CPUPORT_VALID(unit, port_mask))), CMM_ERR_PORTLIST);
 8361              		.loc 1 899 5 discriminator 2 view .LVU2357
 8362              		.loc 1 899 5 discriminator 2 view .LVU2358
 8363 0014 0122     		movs	r2, #1
 8364 0016 FFF7FEFF 		bl	cal_ytportmask_isvalid
 8365              	.LVL1044:
 8366              		.loc 1 899 5 is_stmt 0 discriminator 2 view .LVU2359
 8367 001a 0028     		cmp	r0, #0
 8368 001c 32D1     		bne	.L878
 8369              		.loc 1 899 5 is_stmt 1 discriminator 2 view .LVU2360
 900:../switch_sdk/core/yt/yt_l2.c **** 
 901:../switch_sdk/core/yt/yt_l2.c ****     return YT_DISPATCH(unit)->l2_filter_unknown_mcast_set(unit, port_mask);
 8370              		.loc 1 901 5 discriminator 2 view .LVU2361
 8371              		.loc 1 901 12 is_stmt 0 discriminator 2 view .LVU2362
 8372 001e 204B     		ldr	r3, .L883
 8373 0020 53F82430 		ldr	r3, [r3, r4, lsl #2]
 8374              		.loc 1 901 29 discriminator 2 view .LVU2363
 8375 0024 D3F8F433 		ldr	r3, [r3, #1012]
 8376              	.LVL1045:
 8377              		.loc 1 901 12 discriminator 2 view .LVU2364
 8378 0028 2946     		mov	r1, r5
 8379 002a 2046     		mov	r0, r4
 8380 002c 9847     		blx	r3
 8381              	.LVL1046:
 8382              	.L864:
 902:../switch_sdk/core/yt/yt_l2.c **** }
 8383              		.loc 1 902 1 view .LVU2365
 8384 002e 38BD     		pop	{r3, r4, r5, pc}
 8385              	.LVL1047:
 8386              	.L875:
 896:../switch_sdk/core/yt/yt_l2.c ****     CMM_PARAM_CHK(NULL == YT_DISPATCH(unit), CMM_ERR_NOT_INIT);
 8387              		.loc 1 896 5 is_stmt 1 discriminator 1 view .LVU2366
 896:../switch_sdk/core/yt/yt_l2.c ****     CMM_PARAM_CHK(NULL == YT_DISPATCH(unit), CMM_ERR_NOT_INIT);
 8388              		.loc 1 896 5 discriminator 1 view .LVU2367
 8389 0030 1C4B     		ldr	r3, .L883+4
 8390 0032 1B78     		ldrb	r3, [r3]	@ zero_extendqisi2
 8391 0034 012B     		cmp	r3, #1
 8392 0036 01D8     		bhi	.L879
 8393              	.LVL1048:
 8394              	.L866:
 896:../switch_sdk/core/yt/yt_l2.c ****     CMM_PARAM_CHK(NULL == YT_DISPATCH(unit), CMM_ERR_NOT_INIT);
 8395              		.loc 1 896 5 discriminator 5 view .LVU2368
 896:../switch_sdk/core/yt/yt_l2.c ****     CMM_PARAM_CHK(NULL == YT_DISPATCH(unit), CMM_ERR_NOT_INIT);
 8396              		.loc 1 896 5 discriminator 5 view .LVU2369
 896:../switch_sdk/core/yt/yt_l2.c ****     CMM_PARAM_CHK(NULL == YT_DISPATCH(unit), CMM_ERR_NOT_INIT);
 8397              		.loc 1 896 5 discriminator 5 view .LVU2370
 8398 0038 0520     		movs	r0, #5
 8399 003a F8E7     		b	.L864
 8400              	.LVL1049:
 8401              	.L879:
 896:../switch_sdk/core/yt/yt_l2.c ****     CMM_PARAM_CHK(NULL == YT_DISPATCH(unit), CMM_ERR_NOT_INIT);
 8402              		.loc 1 896 5 discriminator 3 view .LVU2371
 8403              	.LBB169:
 896:../switch_sdk/core/yt/yt_l2.c ****     CMM_PARAM_CHK(NULL == YT_DISPATCH(unit), CMM_ERR_NOT_INIT);
 8404              		.loc 1 896 5 discriminator 3 view .LVU2372
 8405 003c 1A4B     		ldr	r3, .L883+8
 8406 003e 5A69     		ldr	r2, [r3, #20]
 8407 0040 1A4B     		ldr	r3, .L883+12
 8408 0042 9968     		ldr	r1, [r3, #8]
 8409              	.LVL1050:
 896:../switch_sdk/core/yt/yt_l2.c ****     CMM_PARAM_CHK(NULL == YT_DISPATCH(unit), CMM_ERR_NOT_INIT);
 8410              		.loc 1 896 5 is_stmt 0 discriminator 3 view .LVU2373
 8411 0044 1A48     		ldr	r0, .L883+16
 8412              	.LVL1051:
 896:../switch_sdk/core/yt/yt_l2.c ****     CMM_PARAM_CHK(NULL == YT_DISPATCH(unit), CMM_ERR_NOT_INIT);
 8413              		.loc 1 896 5 discriminator 3 view .LVU2374
 8414 0046 FFF7FEFF 		bl	osal_printf
 8415              	.LVL1052:
 8416 004a F5E7     		b	.L866
 8417              	.LVL1053:
 8418              	.L876:
 896:../switch_sdk/core/yt/yt_l2.c ****     CMM_PARAM_CHK(NULL == YT_DISPATCH(unit), CMM_ERR_NOT_INIT);
 8419              		.loc 1 896 5 discriminator 3 view .LVU2375
 8420              	.LBE169:
 897:../switch_sdk/core/yt/yt_l2.c ****     CMM_PARAM_CHK((!(YT_DISPATCH(unit)->is_inited)), CMM_ERR_NOT_INIT);
 8421              		.loc 1 897 5 is_stmt 1 discriminator 1 view .LVU2376
 897:../switch_sdk/core/yt/yt_l2.c ****     CMM_PARAM_CHK((!(YT_DISPATCH(unit)->is_inited)), CMM_ERR_NOT_INIT);
 8422              		.loc 1 897 5 discriminator 1 view .LVU2377
 8423 004c 154B     		ldr	r3, .L883+4
 8424 004e 1B78     		ldrb	r3, [r3]	@ zero_extendqisi2
 8425 0050 012B     		cmp	r3, #1
 8426 0052 01D8     		bhi	.L880
 8427              	.LVL1054:
 8428              	.L869:
 897:../switch_sdk/core/yt/yt_l2.c ****     CMM_PARAM_CHK((!(YT_DISPATCH(unit)->is_inited)), CMM_ERR_NOT_INIT);
 8429              		.loc 1 897 5 discriminator 5 view .LVU2378
 897:../switch_sdk/core/yt/yt_l2.c ****     CMM_PARAM_CHK((!(YT_DISPATCH(unit)->is_inited)), CMM_ERR_NOT_INIT);
 8430              		.loc 1 897 5 discriminator 5 view .LVU2379
 897:../switch_sdk/core/yt/yt_l2.c ****     CMM_PARAM_CHK((!(YT_DISPATCH(unit)->is_inited)), CMM_ERR_NOT_INIT);
 8431              		.loc 1 897 5 discriminator 5 view .LVU2380
 8432 0054 0420     		movs	r0, #4
 8433 0056 EAE7     		b	.L864
 8434              	.LVL1055:
 8435              	.L880:
 897:../switch_sdk/core/yt/yt_l2.c ****     CMM_PARAM_CHK((!(YT_DISPATCH(unit)->is_inited)), CMM_ERR_NOT_INIT);
 8436              		.loc 1 897 5 discriminator 3 view .LVU2381
 8437              	.LBB170:
 897:../switch_sdk/core/yt/yt_l2.c ****     CMM_PARAM_CHK((!(YT_DISPATCH(unit)->is_inited)), CMM_ERR_NOT_INIT);
 8438              		.loc 1 897 5 discriminator 3 view .LVU2382
 8439 0058 134B     		ldr	r3, .L883+8
 8440 005a 1A69     		ldr	r2, [r3, #16]
 8441 005c 134B     		ldr	r3, .L883+12
 8442 005e 9968     		ldr	r1, [r3, #8]
 8443 0060 1348     		ldr	r0, .L883+16
 8444              	.LVL1056:
 897:../switch_sdk/core/yt/yt_l2.c ****     CMM_PARAM_CHK((!(YT_DISPATCH(unit)->is_inited)), CMM_ERR_NOT_INIT);
 8445              		.loc 1 897 5 is_stmt 0 discriminator 3 view .LVU2383
 8446 0062 FFF7FEFF 		bl	osal_printf
 8447              	.LVL1057:
 8448 0066 F5E7     		b	.L869
 8449              	.LVL1058:
 8450              	.L877:
 897:../switch_sdk/core/yt/yt_l2.c ****     CMM_PARAM_CHK((!(YT_DISPATCH(unit)->is_inited)), CMM_ERR_NOT_INIT);
 8451              		.loc 1 897 5 discriminator 3 view .LVU2384
 8452              	.LBE170:
 898:../switch_sdk/core/yt/yt_l2.c ****     CMM_PARAM_CHK((!(CMM_PLIST_CPUPORT_VALID(unit, port_mask))), CMM_ERR_PORTLIST);
 8453              		.loc 1 898 5 is_stmt 1 discriminator 1 view .LVU2385
 898:../switch_sdk/core/yt/yt_l2.c ****     CMM_PARAM_CHK((!(CMM_PLIST_CPUPORT_VALID(unit, port_mask))), CMM_ERR_PORTLIST);
 8454              		.loc 1 898 5 discriminator 1 view .LVU2386
 8455 0068 0E4B     		ldr	r3, .L883+4
 8456 006a 1B78     		ldrb	r3, [r3]	@ zero_extendqisi2
 8457 006c 012B     		cmp	r3, #1
 8458 006e 01D8     		bhi	.L881
 8459              	.LVL1059:
 8460              	.L871:
 898:../switch_sdk/core/yt/yt_l2.c ****     CMM_PARAM_CHK((!(CMM_PLIST_CPUPORT_VALID(unit, port_mask))), CMM_ERR_PORTLIST);
 8461              		.loc 1 898 5 discriminator 5 view .LVU2387
 898:../switch_sdk/core/yt/yt_l2.c ****     CMM_PARAM_CHK((!(CMM_PLIST_CPUPORT_VALID(unit, port_mask))), CMM_ERR_PORTLIST);
 8462              		.loc 1 898 5 discriminator 5 view .LVU2388
 898:../switch_sdk/core/yt/yt_l2.c ****     CMM_PARAM_CHK((!(CMM_PLIST_CPUPORT_VALID(unit, port_mask))), CMM_ERR_PORTLIST);
 8463              		.loc 1 898 5 discriminator 5 view .LVU2389
 8464 0070 0420     		movs	r0, #4
 8465 0072 DCE7     		b	.L864
 8466              	.LVL1060:
 8467              	.L881:
 898:../switch_sdk/core/yt/yt_l2.c ****     CMM_PARAM_CHK((!(CMM_PLIST_CPUPORT_VALID(unit, port_mask))), CMM_ERR_PORTLIST);
 8468              		.loc 1 898 5 discriminator 3 view .LVU2390
 8469              	.LBB171:
 898:../switch_sdk/core/yt/yt_l2.c ****     CMM_PARAM_CHK((!(CMM_PLIST_CPUPORT_VALID(unit, port_mask))), CMM_ERR_PORTLIST);
 8470              		.loc 1 898 5 discriminator 3 view .LVU2391
 8471 0074 0C4B     		ldr	r3, .L883+8
 8472 0076 1A69     		ldr	r2, [r3, #16]
 8473 0078 0C4B     		ldr	r3, .L883+12
 8474 007a 9968     		ldr	r1, [r3, #8]
 8475 007c 0C48     		ldr	r0, .L883+16
 8476              	.LVL1061:
 898:../switch_sdk/core/yt/yt_l2.c ****     CMM_PARAM_CHK((!(CMM_PLIST_CPUPORT_VALID(unit, port_mask))), CMM_ERR_PORTLIST);
 8477              		.loc 1 898 5 is_stmt 0 discriminator 3 view .LVU2392
 8478 007e FFF7FEFF 		bl	osal_printf
 8479              	.LVL1062:
 8480 0082 F5E7     		b	.L871
 8481              	.L878:
 8482              	.LBE171:
 899:../switch_sdk/core/yt/yt_l2.c **** 
 8483              		.loc 1 899 5 is_stmt 1 discriminator 1 view .LVU2393
 899:../switch_sdk/core/yt/yt_l2.c **** 
 8484              		.loc 1 899 5 discriminator 1 view .LVU2394
 8485 0084 074B     		ldr	r3, .L883+4
 8486 0086 1B78     		ldrb	r3, [r3]	@ zero_extendqisi2
 8487 0088 012B     		cmp	r3, #1
 8488 008a 01D8     		bhi	.L882
 8489              	.L873:
 899:../switch_sdk/core/yt/yt_l2.c **** 
 8490              		.loc 1 899 5 discriminator 5 view .LVU2395
 899:../switch_sdk/core/yt/yt_l2.c **** 
 8491              		.loc 1 899 5 discriminator 5 view .LVU2396
 899:../switch_sdk/core/yt/yt_l2.c **** 
 8492              		.loc 1 899 5 discriminator 5 view .LVU2397
 8493 008c 0F20     		movs	r0, #15
 8494 008e CEE7     		b	.L864
 8495              	.L882:
 899:../switch_sdk/core/yt/yt_l2.c **** 
 8496              		.loc 1 899 5 discriminator 3 view .LVU2398
 8497              	.LBB172:
 899:../switch_sdk/core/yt/yt_l2.c **** 
 8498              		.loc 1 899 5 discriminator 3 view .LVU2399
 8499 0090 054B     		ldr	r3, .L883+8
 8500 0092 DA6B     		ldr	r2, [r3, #60]
 8501 0094 054B     		ldr	r3, .L883+12
 8502 0096 9968     		ldr	r1, [r3, #8]
 8503 0098 0548     		ldr	r0, .L883+16
 8504 009a FFF7FEFF 		bl	osal_printf
 8505              	.LVL1063:
 8506 009e F5E7     		b	.L873
 8507              	.L884:
 8508              		.align	2
 8509              	.L883:
 8510 00a0 00000000 		.word	gpfal_dispatch
 8511 00a4 00000000 		.word	yt_debug_level
 8512 00a8 00000000 		.word	_yt_errmsg
 8513 00ac 00000000 		.word	_yt_prompt_msg
 8514 00b0 00000000 		.word	.LC0
 8515              	.LBE172:
 8516              		.cfi_endproc
 8517              	.LFE42:
 8519              		.section	.text.yt_l2_filter_unknown_mcast_get,"ax",%progbits
 8520              		.align	1
 8521              		.global	yt_l2_filter_unknown_mcast_get
 8522              		.syntax unified
 8523              		.thumb
 8524              		.thumb_func
 8526              	yt_l2_filter_unknown_mcast_get:
 8527              	.LVL1064:
 8528              	.LFB43:
 903:../switch_sdk/core/yt/yt_l2.c **** 
 904:../switch_sdk/core/yt/yt_l2.c **** /**
 905:../switch_sdk/core/yt/yt_l2.c ****  * @internal      yt_l2_filter_unknown_mcast_get
 906:../switch_sdk/core/yt/yt_l2.c ****  * @endinternal
 907:../switch_sdk/core/yt/yt_l2.c ****  *
 908:../switch_sdk/core/yt/yt_l2.c ****  * @brief         Description
 909:../switch_sdk/core/yt/yt_l2.c ****  * @note          APPLICABLE DEVICES  -Tiger
 910:../switch_sdk/core/yt/yt_l2.c ****  * @param[in]     unit                -unit id
 911:../switch_sdk/core/yt/yt_l2.c ****  * @param[out]    pport_mask          -port bit mask
 912:../switch_sdk/core/yt/yt_l2.c ****  * @retval        CMM_ERR_OK          -on success
 913:../switch_sdk/core/yt/yt_l2.c ****  * @retval        CMM_ERR_FAIL        -on fail
 914:../switch_sdk/core/yt/yt_l2.c ****  */
 915:../switch_sdk/core/yt/yt_l2.c **** yt_ret_t  yt_l2_filter_unknown_mcast_get(yt_unit_t unit, yt_port_mask_t *pport_mask)
 916:../switch_sdk/core/yt/yt_l2.c **** {
 8529              		.loc 1 916 1 view -0
 8530              		.cfi_startproc
 8531              		@ args = 0, pretend = 0, frame = 0
 8532              		@ frame_needed = 0, uses_anonymous_args = 0
 8533              		.loc 1 916 1 is_stmt 0 view .LVU2401
 8534 0000 08B5     		push	{r3, lr}
 8535              		.cfi_def_cfa_offset 8
 8536              		.cfi_offset 3, -8
 8537              		.cfi_offset 14, -4
 917:../switch_sdk/core/yt/yt_l2.c ****     CMM_PARAM_CHK((YT_UNIT_NUM <= unit), CMM_ERR_INPUT);
 8538              		.loc 1 917 5 is_stmt 1 view .LVU2402
 8539              		.loc 1 917 5 view .LVU2403
 8540 0002 68B9     		cbnz	r0, .L896
 8541 0004 0246     		mov	r2, r0
 8542              		.loc 1 917 5 discriminator 2 view .LVU2404
 918:../switch_sdk/core/yt/yt_l2.c ****     CMM_PARAM_CHK(NULL == YT_DISPATCH(unit), CMM_ERR_NOT_INIT);
 8543              		.loc 1 918 5 discriminator 2 view .LVU2405
 8544              		.loc 1 918 5 discriminator 2 view .LVU2406
 8545 0006 224B     		ldr	r3, .L904
 8546 0008 53F82030 		ldr	r3, [r3, r0, lsl #2]
 8547 000c B3B1     		cbz	r3, .L897
 8548              		.loc 1 918 5 discriminator 2 view .LVU2407
 919:../switch_sdk/core/yt/yt_l2.c ****     CMM_PARAM_CHK((!(YT_DISPATCH(unit)->is_inited)), CMM_ERR_NOT_INIT);
 8549              		.loc 1 919 5 discriminator 2 view .LVU2408
 8550              		.loc 1 919 5 discriminator 2 view .LVU2409
 8551 000e 1878     		ldrb	r0, [r3]	@ zero_extendqisi2
 8552              	.LVL1065:
 8553              		.loc 1 919 5 is_stmt 0 discriminator 2 view .LVU2410
 8554 0010 10B3     		cbz	r0, .L898
 8555              		.loc 1 919 5 is_stmt 1 discriminator 2 view .LVU2411
 920:../switch_sdk/core/yt/yt_l2.c ****     CMM_PARAM_CHK((NULL == pport_mask), CMM_ERR_NULL_POINT);
 8556              		.loc 1 920 5 discriminator 2 view .LVU2412
 8557              		.loc 1 920 5 discriminator 2 view .LVU2413
 8558 0012 0029     		cmp	r1, #0
 8559 0014 2ED0     		beq	.L899
 8560              		.loc 1 920 5 discriminator 2 view .LVU2414
 921:../switch_sdk/core/yt/yt_l2.c **** 
 922:../switch_sdk/core/yt/yt_l2.c ****     return YT_DISPATCH(unit)->l2_filter_unknown_mcast_get(unit, pport_mask);
 8561              		.loc 1 922 5 discriminator 2 view .LVU2415
 8562              		.loc 1 922 29 is_stmt 0 discriminator 2 view .LVU2416
 8563 0016 D3F8F833 		ldr	r3, [r3, #1016]
 8564              		.loc 1 922 12 discriminator 2 view .LVU2417
 8565 001a 1046     		mov	r0, r2
 8566 001c 9847     		blx	r3
 8567              	.LVL1066:
 8568              	.L885:
 923:../switch_sdk/core/yt/yt_l2.c **** }
 8569              		.loc 1 923 1 view .LVU2418
 8570 001e 08BD     		pop	{r3, pc}
 8571              	.LVL1067:
 8572              	.L896:
 917:../switch_sdk/core/yt/yt_l2.c ****     CMM_PARAM_CHK(NULL == YT_DISPATCH(unit), CMM_ERR_NOT_INIT);
 8573              		.loc 1 917 5 is_stmt 1 discriminator 1 view .LVU2419
 917:../switch_sdk/core/yt/yt_l2.c ****     CMM_PARAM_CHK(NULL == YT_DISPATCH(unit), CMM_ERR_NOT_INIT);
 8574              		.loc 1 917 5 discriminator 1 view .LVU2420
 8575 0020 1C4B     		ldr	r3, .L904+4
 8576 0022 1B78     		ldrb	r3, [r3]	@ zero_extendqisi2
 8577 0024 012B     		cmp	r3, #1
 8578 0026 01D8     		bhi	.L900
 8579              	.LVL1068:
 8580              	.L887:
 917:../switch_sdk/core/yt/yt_l2.c ****     CMM_PARAM_CHK(NULL == YT_DISPATCH(unit), CMM_ERR_NOT_INIT);
 8581              		.loc 1 917 5 discriminator 5 view .LVU2421
 917:../switch_sdk/core/yt/yt_l2.c ****     CMM_PARAM_CHK(NULL == YT_DISPATCH(unit), CMM_ERR_NOT_INIT);
 8582              		.loc 1 917 5 discriminator 5 view .LVU2422
 917:../switch_sdk/core/yt/yt_l2.c ****     CMM_PARAM_CHK(NULL == YT_DISPATCH(unit), CMM_ERR_NOT_INIT);
 8583              		.loc 1 917 5 discriminator 5 view .LVU2423
 8584 0028 0520     		movs	r0, #5
 8585 002a F8E7     		b	.L885
 8586              	.LVL1069:
 8587              	.L900:
 917:../switch_sdk/core/yt/yt_l2.c ****     CMM_PARAM_CHK(NULL == YT_DISPATCH(unit), CMM_ERR_NOT_INIT);
 8588              		.loc 1 917 5 discriminator 3 view .LVU2424
 8589              	.LBB173:
 917:../switch_sdk/core/yt/yt_l2.c ****     CMM_PARAM_CHK(NULL == YT_DISPATCH(unit), CMM_ERR_NOT_INIT);
 8590              		.loc 1 917 5 discriminator 3 view .LVU2425
 8591 002c 1A4B     		ldr	r3, .L904+8
 8592 002e 5A69     		ldr	r2, [r3, #20]
 8593 0030 1A4B     		ldr	r3, .L904+12
 8594 0032 9968     		ldr	r1, [r3, #8]
 8595              	.LVL1070:
 917:../switch_sdk/core/yt/yt_l2.c ****     CMM_PARAM_CHK(NULL == YT_DISPATCH(unit), CMM_ERR_NOT_INIT);
 8596              		.loc 1 917 5 is_stmt 0 discriminator 3 view .LVU2426
 8597 0034 1A48     		ldr	r0, .L904+16
 8598              	.LVL1071:
 917:../switch_sdk/core/yt/yt_l2.c ****     CMM_PARAM_CHK(NULL == YT_DISPATCH(unit), CMM_ERR_NOT_INIT);
 8599              		.loc 1 917 5 discriminator 3 view .LVU2427
 8600 0036 FFF7FEFF 		bl	osal_printf
 8601              	.LVL1072:
 8602 003a F5E7     		b	.L887
 8603              	.LVL1073:
 8604              	.L897:
 917:../switch_sdk/core/yt/yt_l2.c ****     CMM_PARAM_CHK(NULL == YT_DISPATCH(unit), CMM_ERR_NOT_INIT);
 8605              		.loc 1 917 5 discriminator 3 view .LVU2428
 8606              	.LBE173:
 918:../switch_sdk/core/yt/yt_l2.c ****     CMM_PARAM_CHK((!(YT_DISPATCH(unit)->is_inited)), CMM_ERR_NOT_INIT);
 8607              		.loc 1 918 5 is_stmt 1 discriminator 1 view .LVU2429
 918:../switch_sdk/core/yt/yt_l2.c ****     CMM_PARAM_CHK((!(YT_DISPATCH(unit)->is_inited)), CMM_ERR_NOT_INIT);
 8608              		.loc 1 918 5 discriminator 1 view .LVU2430
 8609 003c 154B     		ldr	r3, .L904+4
 8610 003e 1B78     		ldrb	r3, [r3]	@ zero_extendqisi2
 8611 0040 012B     		cmp	r3, #1
 8612 0042 01D8     		bhi	.L901
 8613              	.LVL1074:
 8614              	.L890:
 918:../switch_sdk/core/yt/yt_l2.c ****     CMM_PARAM_CHK((!(YT_DISPATCH(unit)->is_inited)), CMM_ERR_NOT_INIT);
 8615              		.loc 1 918 5 discriminator 5 view .LVU2431
 918:../switch_sdk/core/yt/yt_l2.c ****     CMM_PARAM_CHK((!(YT_DISPATCH(unit)->is_inited)), CMM_ERR_NOT_INIT);
 8616              		.loc 1 918 5 discriminator 5 view .LVU2432
 918:../switch_sdk/core/yt/yt_l2.c ****     CMM_PARAM_CHK((!(YT_DISPATCH(unit)->is_inited)), CMM_ERR_NOT_INIT);
 8617              		.loc 1 918 5 discriminator 5 view .LVU2433
 8618 0044 0420     		movs	r0, #4
 8619 0046 EAE7     		b	.L885
 8620              	.LVL1075:
 8621              	.L901:
 918:../switch_sdk/core/yt/yt_l2.c ****     CMM_PARAM_CHK((!(YT_DISPATCH(unit)->is_inited)), CMM_ERR_NOT_INIT);
 8622              		.loc 1 918 5 discriminator 3 view .LVU2434
 8623              	.LBB174:
 918:../switch_sdk/core/yt/yt_l2.c ****     CMM_PARAM_CHK((!(YT_DISPATCH(unit)->is_inited)), CMM_ERR_NOT_INIT);
 8624              		.loc 1 918 5 discriminator 3 view .LVU2435
 8625 0048 134B     		ldr	r3, .L904+8
 8626 004a 1A69     		ldr	r2, [r3, #16]
 8627 004c 134B     		ldr	r3, .L904+12
 8628 004e 9968     		ldr	r1, [r3, #8]
 8629              	.LVL1076:
 918:../switch_sdk/core/yt/yt_l2.c ****     CMM_PARAM_CHK((!(YT_DISPATCH(unit)->is_inited)), CMM_ERR_NOT_INIT);
 8630              		.loc 1 918 5 is_stmt 0 discriminator 3 view .LVU2436
 8631 0050 1348     		ldr	r0, .L904+16
 8632              	.LVL1077:
 918:../switch_sdk/core/yt/yt_l2.c ****     CMM_PARAM_CHK((!(YT_DISPATCH(unit)->is_inited)), CMM_ERR_NOT_INIT);
 8633              		.loc 1 918 5 discriminator 3 view .LVU2437
 8634 0052 FFF7FEFF 		bl	osal_printf
 8635              	.LVL1078:
 8636 0056 F5E7     		b	.L890
 8637              	.LVL1079:
 8638              	.L898:
 918:../switch_sdk/core/yt/yt_l2.c ****     CMM_PARAM_CHK((!(YT_DISPATCH(unit)->is_inited)), CMM_ERR_NOT_INIT);
 8639              		.loc 1 918 5 discriminator 3 view .LVU2438
 8640              	.LBE174:
 919:../switch_sdk/core/yt/yt_l2.c ****     CMM_PARAM_CHK((NULL == pport_mask), CMM_ERR_NULL_POINT);
 8641              		.loc 1 919 5 is_stmt 1 discriminator 1 view .LVU2439
 919:../switch_sdk/core/yt/yt_l2.c ****     CMM_PARAM_CHK((NULL == pport_mask), CMM_ERR_NULL_POINT);
 8642              		.loc 1 919 5 discriminator 1 view .LVU2440
 8643 0058 0E4B     		ldr	r3, .L904+4
 8644 005a 1B78     		ldrb	r3, [r3]	@ zero_extendqisi2
 8645 005c 012B     		cmp	r3, #1
 8646 005e 01D8     		bhi	.L902
 8647              	.LVL1080:
 8648              	.L892:
 919:../switch_sdk/core/yt/yt_l2.c ****     CMM_PARAM_CHK((NULL == pport_mask), CMM_ERR_NULL_POINT);
 8649              		.loc 1 919 5 discriminator 5 view .LVU2441
 919:../switch_sdk/core/yt/yt_l2.c ****     CMM_PARAM_CHK((NULL == pport_mask), CMM_ERR_NULL_POINT);
 8650              		.loc 1 919 5 discriminator 5 view .LVU2442
 919:../switch_sdk/core/yt/yt_l2.c ****     CMM_PARAM_CHK((NULL == pport_mask), CMM_ERR_NULL_POINT);
 8651              		.loc 1 919 5 discriminator 5 view .LVU2443
 8652 0060 0420     		movs	r0, #4
 8653 0062 DCE7     		b	.L885
 8654              	.LVL1081:
 8655              	.L902:
 919:../switch_sdk/core/yt/yt_l2.c ****     CMM_PARAM_CHK((NULL == pport_mask), CMM_ERR_NULL_POINT);
 8656              		.loc 1 919 5 discriminator 3 view .LVU2444
 8657              	.LBB175:
 919:../switch_sdk/core/yt/yt_l2.c ****     CMM_PARAM_CHK((NULL == pport_mask), CMM_ERR_NULL_POINT);
 8658              		.loc 1 919 5 discriminator 3 view .LVU2445
 8659 0064 0C4B     		ldr	r3, .L904+8
 8660 0066 1A69     		ldr	r2, [r3, #16]
 8661 0068 0C4B     		ldr	r3, .L904+12
 8662 006a 9968     		ldr	r1, [r3, #8]
 8663              	.LVL1082:
 919:../switch_sdk/core/yt/yt_l2.c ****     CMM_PARAM_CHK((NULL == pport_mask), CMM_ERR_NULL_POINT);
 8664              		.loc 1 919 5 is_stmt 0 discriminator 3 view .LVU2446
 8665 006c 0C48     		ldr	r0, .L904+16
 8666 006e FFF7FEFF 		bl	osal_printf
 8667              	.LVL1083:
 8668 0072 F5E7     		b	.L892
 8669              	.LVL1084:
 8670              	.L899:
 919:../switch_sdk/core/yt/yt_l2.c ****     CMM_PARAM_CHK((NULL == pport_mask), CMM_ERR_NULL_POINT);
 8671              		.loc 1 919 5 discriminator 3 view .LVU2447
 8672              	.LBE175:
 920:../switch_sdk/core/yt/yt_l2.c **** 
 8673              		.loc 1 920 5 is_stmt 1 discriminator 1 view .LVU2448
 920:../switch_sdk/core/yt/yt_l2.c **** 
 8674              		.loc 1 920 5 discriminator 1 view .LVU2449
 8675 0074 074B     		ldr	r3, .L904+4
 8676 0076 1B78     		ldrb	r3, [r3]	@ zero_extendqisi2
 8677 0078 012B     		cmp	r3, #1
 8678 007a 01D8     		bhi	.L903
 8679              	.LVL1085:
 8680              	.L894:
 920:../switch_sdk/core/yt/yt_l2.c **** 
 8681              		.loc 1 920 5 discriminator 5 view .LVU2450
 920:../switch_sdk/core/yt/yt_l2.c **** 
 8682              		.loc 1 920 5 discriminator 5 view .LVU2451
 920:../switch_sdk/core/yt/yt_l2.c **** 
 8683              		.loc 1 920 5 discriminator 5 view .LVU2452
 8684 007c 0220     		movs	r0, #2
 8685 007e CEE7     		b	.L885
 8686              	.LVL1086:
 8687              	.L903:
 920:../switch_sdk/core/yt/yt_l2.c **** 
 8688              		.loc 1 920 5 discriminator 3 view .LVU2453
 8689              	.LBB176:
 920:../switch_sdk/core/yt/yt_l2.c **** 
 8690              		.loc 1 920 5 discriminator 3 view .LVU2454
 8691 0080 054B     		ldr	r3, .L904+8
 8692 0082 9A68     		ldr	r2, [r3, #8]
 8693 0084 054B     		ldr	r3, .L904+12
 8694 0086 9968     		ldr	r1, [r3, #8]
 8695              	.LVL1087:
 920:../switch_sdk/core/yt/yt_l2.c **** 
 8696              		.loc 1 920 5 is_stmt 0 discriminator 3 view .LVU2455
 8697 0088 0548     		ldr	r0, .L904+16
 8698 008a FFF7FEFF 		bl	osal_printf
 8699              	.LVL1088:
 8700 008e F5E7     		b	.L894
 8701              	.L905:
 8702              		.align	2
 8703              	.L904:
 8704 0090 00000000 		.word	gpfal_dispatch
 8705 0094 00000000 		.word	yt_debug_level
 8706 0098 00000000 		.word	_yt_errmsg
 8707 009c 00000000 		.word	_yt_prompt_msg
 8708 00a0 00000000 		.word	.LC0
 8709              	.LBE176:
 8710              		.cfi_endproc
 8711              	.LFE43:
 8713              		.section	.text.yt_l2_rma_bypass_unknown_mcast_filter_set,"ax",%progbits
 8714              		.align	1
 8715              		.global	yt_l2_rma_bypass_unknown_mcast_filter_set
 8716              		.syntax unified
 8717              		.thumb
 8718              		.thumb_func
 8720              	yt_l2_rma_bypass_unknown_mcast_filter_set:
 8721              	.LVL1089:
 8722              	.LFB44:
 924:../switch_sdk/core/yt/yt_l2.c **** 
 925:../switch_sdk/core/yt/yt_l2.c **** 
 926:../switch_sdk/core/yt/yt_l2.c **** /**
 927:../switch_sdk/core/yt/yt_l2.c ****  * @internal      yt_l2_rma_bypass_unknown_mcast_filter_set
 928:../switch_sdk/core/yt/yt_l2.c ****  * @endinternal
 929:../switch_sdk/core/yt/yt_l2.c ****  *
 930:../switch_sdk/core/yt/yt_l2.c ****  * @brief         Description
 931:../switch_sdk/core/yt/yt_l2.c ****  * @note          APPLICABLE DEVICES  -Tiger
 932:../switch_sdk/core/yt/yt_l2.c ****  * @param[in]     unit                -unit id
 933:../switch_sdk/core/yt/yt_l2.c ****  * @param[in]     enable              -enable or disable
 934:../switch_sdk/core/yt/yt_l2.c ****  * @retval        CMM_ERR_OK          -on success
 935:../switch_sdk/core/yt/yt_l2.c ****  * @retval        CMM_ERR_FAIL        -on fail
 936:../switch_sdk/core/yt/yt_l2.c ****  */
 937:../switch_sdk/core/yt/yt_l2.c **** yt_ret_t  yt_l2_rma_bypass_unknown_mcast_filter_set(yt_unit_t unit, yt_enable_t enable)
 938:../switch_sdk/core/yt/yt_l2.c **** {
 8723              		.loc 1 938 1 is_stmt 1 view -0
 8724              		.cfi_startproc
 8725              		@ args = 0, pretend = 0, frame = 0
 8726              		@ frame_needed = 0, uses_anonymous_args = 0
 8727              		.loc 1 938 1 is_stmt 0 view .LVU2457
 8728 0000 08B5     		push	{r3, lr}
 8729              		.cfi_def_cfa_offset 8
 8730              		.cfi_offset 3, -8
 8731              		.cfi_offset 14, -4
 939:../switch_sdk/core/yt/yt_l2.c ****     CMM_PARAM_CHK((YT_UNIT_NUM <= unit), CMM_ERR_INPUT);
 8732              		.loc 1 939 5 is_stmt 1 view .LVU2458
 8733              		.loc 1 939 5 view .LVU2459
 8734 0002 68B9     		cbnz	r0, .L917
 8735 0004 0246     		mov	r2, r0
 8736              		.loc 1 939 5 discriminator 2 view .LVU2460
 940:../switch_sdk/core/yt/yt_l2.c ****     CMM_PARAM_CHK(NULL == YT_DISPATCH(unit), CMM_ERR_NOT_INIT);
 8737              		.loc 1 940 5 discriminator 2 view .LVU2461
 8738              		.loc 1 940 5 discriminator 2 view .LVU2462
 8739 0006 224B     		ldr	r3, .L925
 8740 0008 53F82030 		ldr	r3, [r3, r0, lsl #2]
 8741 000c B3B1     		cbz	r3, .L918
 8742              		.loc 1 940 5 discriminator 2 view .LVU2463
 941:../switch_sdk/core/yt/yt_l2.c ****     CMM_PARAM_CHK((!(YT_DISPATCH(unit)->is_inited)), CMM_ERR_NOT_INIT);
 8743              		.loc 1 941 5 discriminator 2 view .LVU2464
 8744              		.loc 1 941 5 discriminator 2 view .LVU2465
 8745 000e 1878     		ldrb	r0, [r3]	@ zero_extendqisi2
 8746              	.LVL1090:
 8747              		.loc 1 941 5 is_stmt 0 discriminator 2 view .LVU2466
 8748 0010 10B3     		cbz	r0, .L919
 8749              		.loc 1 941 5 is_stmt 1 discriminator 2 view .LVU2467
 942:../switch_sdk/core/yt/yt_l2.c ****     CMM_PARAM_CHK((YT_ENABLE < enable || YT_DISABLE > enable), CMM_ERR_INPUT);
 8750              		.loc 1 942 5 discriminator 2 view .LVU2468
 8751              		.loc 1 942 5 discriminator 2 view .LVU2469
 8752 0012 0129     		cmp	r1, #1
 8753 0014 2ED8     		bhi	.L920
 8754              		.loc 1 942 5 discriminator 2 view .LVU2470
 943:../switch_sdk/core/yt/yt_l2.c **** 
 944:../switch_sdk/core/yt/yt_l2.c ****     return YT_DISPATCH(unit)->l2_rma_bypass_unknown_mcast_filter_set(unit, enable);
 8755              		.loc 1 944 5 discriminator 2 view .LVU2471
 8756              		.loc 1 944 29 is_stmt 0 discriminator 2 view .LVU2472
 8757 0016 D3F8FC33 		ldr	r3, [r3, #1020]
 8758              		.loc 1 944 12 discriminator 2 view .LVU2473
 8759 001a 1046     		mov	r0, r2
 8760 001c 9847     		blx	r3
 8761              	.LVL1091:
 8762              	.L906:
 945:../switch_sdk/core/yt/yt_l2.c **** }
 8763              		.loc 1 945 1 view .LVU2474
 8764 001e 08BD     		pop	{r3, pc}
 8765              	.LVL1092:
 8766              	.L917:
 939:../switch_sdk/core/yt/yt_l2.c ****     CMM_PARAM_CHK(NULL == YT_DISPATCH(unit), CMM_ERR_NOT_INIT);
 8767              		.loc 1 939 5 is_stmt 1 discriminator 1 view .LVU2475
 939:../switch_sdk/core/yt/yt_l2.c ****     CMM_PARAM_CHK(NULL == YT_DISPATCH(unit), CMM_ERR_NOT_INIT);
 8768              		.loc 1 939 5 discriminator 1 view .LVU2476
 8769 0020 1C4B     		ldr	r3, .L925+4
 8770 0022 1B78     		ldrb	r3, [r3]	@ zero_extendqisi2
 8771 0024 012B     		cmp	r3, #1
 8772 0026 01D8     		bhi	.L921
 8773              	.LVL1093:
 8774              	.L908:
 939:../switch_sdk/core/yt/yt_l2.c ****     CMM_PARAM_CHK(NULL == YT_DISPATCH(unit), CMM_ERR_NOT_INIT);
 8775              		.loc 1 939 5 discriminator 5 view .LVU2477
 939:../switch_sdk/core/yt/yt_l2.c ****     CMM_PARAM_CHK(NULL == YT_DISPATCH(unit), CMM_ERR_NOT_INIT);
 8776              		.loc 1 939 5 discriminator 5 view .LVU2478
 939:../switch_sdk/core/yt/yt_l2.c ****     CMM_PARAM_CHK(NULL == YT_DISPATCH(unit), CMM_ERR_NOT_INIT);
 8777              		.loc 1 939 5 discriminator 5 view .LVU2479
 8778 0028 0520     		movs	r0, #5
 8779 002a F8E7     		b	.L906
 8780              	.LVL1094:
 8781              	.L921:
 939:../switch_sdk/core/yt/yt_l2.c ****     CMM_PARAM_CHK(NULL == YT_DISPATCH(unit), CMM_ERR_NOT_INIT);
 8782              		.loc 1 939 5 discriminator 3 view .LVU2480
 8783              	.LBB177:
 939:../switch_sdk/core/yt/yt_l2.c ****     CMM_PARAM_CHK(NULL == YT_DISPATCH(unit), CMM_ERR_NOT_INIT);
 8784              		.loc 1 939 5 discriminator 3 view .LVU2481
 8785 002c 1A4B     		ldr	r3, .L925+8
 8786 002e 5A69     		ldr	r2, [r3, #20]
 8787 0030 1A4B     		ldr	r3, .L925+12
 8788 0032 9968     		ldr	r1, [r3, #8]
 8789              	.LVL1095:
 939:../switch_sdk/core/yt/yt_l2.c ****     CMM_PARAM_CHK(NULL == YT_DISPATCH(unit), CMM_ERR_NOT_INIT);
 8790              		.loc 1 939 5 is_stmt 0 discriminator 3 view .LVU2482
 8791 0034 1A48     		ldr	r0, .L925+16
 8792              	.LVL1096:
 939:../switch_sdk/core/yt/yt_l2.c ****     CMM_PARAM_CHK(NULL == YT_DISPATCH(unit), CMM_ERR_NOT_INIT);
 8793              		.loc 1 939 5 discriminator 3 view .LVU2483
 8794 0036 FFF7FEFF 		bl	osal_printf
 8795              	.LVL1097:
 8796 003a F5E7     		b	.L908
 8797              	.LVL1098:
 8798              	.L918:
 939:../switch_sdk/core/yt/yt_l2.c ****     CMM_PARAM_CHK(NULL == YT_DISPATCH(unit), CMM_ERR_NOT_INIT);
 8799              		.loc 1 939 5 discriminator 3 view .LVU2484
 8800              	.LBE177:
 940:../switch_sdk/core/yt/yt_l2.c ****     CMM_PARAM_CHK((!(YT_DISPATCH(unit)->is_inited)), CMM_ERR_NOT_INIT);
 8801              		.loc 1 940 5 is_stmt 1 discriminator 1 view .LVU2485
 940:../switch_sdk/core/yt/yt_l2.c ****     CMM_PARAM_CHK((!(YT_DISPATCH(unit)->is_inited)), CMM_ERR_NOT_INIT);
 8802              		.loc 1 940 5 discriminator 1 view .LVU2486
 8803 003c 154B     		ldr	r3, .L925+4
 8804 003e 1B78     		ldrb	r3, [r3]	@ zero_extendqisi2
 8805 0040 012B     		cmp	r3, #1
 8806 0042 01D8     		bhi	.L922
 8807              	.LVL1099:
 8808              	.L911:
 940:../switch_sdk/core/yt/yt_l2.c ****     CMM_PARAM_CHK((!(YT_DISPATCH(unit)->is_inited)), CMM_ERR_NOT_INIT);
 8809              		.loc 1 940 5 discriminator 5 view .LVU2487
 940:../switch_sdk/core/yt/yt_l2.c ****     CMM_PARAM_CHK((!(YT_DISPATCH(unit)->is_inited)), CMM_ERR_NOT_INIT);
 8810              		.loc 1 940 5 discriminator 5 view .LVU2488
 940:../switch_sdk/core/yt/yt_l2.c ****     CMM_PARAM_CHK((!(YT_DISPATCH(unit)->is_inited)), CMM_ERR_NOT_INIT);
 8811              		.loc 1 940 5 discriminator 5 view .LVU2489
 8812 0044 0420     		movs	r0, #4
 8813 0046 EAE7     		b	.L906
 8814              	.LVL1100:
 8815              	.L922:
 940:../switch_sdk/core/yt/yt_l2.c ****     CMM_PARAM_CHK((!(YT_DISPATCH(unit)->is_inited)), CMM_ERR_NOT_INIT);
 8816              		.loc 1 940 5 discriminator 3 view .LVU2490
 8817              	.LBB178:
 940:../switch_sdk/core/yt/yt_l2.c ****     CMM_PARAM_CHK((!(YT_DISPATCH(unit)->is_inited)), CMM_ERR_NOT_INIT);
 8818              		.loc 1 940 5 discriminator 3 view .LVU2491
 8819 0048 134B     		ldr	r3, .L925+8
 8820 004a 1A69     		ldr	r2, [r3, #16]
 8821 004c 134B     		ldr	r3, .L925+12
 8822 004e 9968     		ldr	r1, [r3, #8]
 8823              	.LVL1101:
 940:../switch_sdk/core/yt/yt_l2.c ****     CMM_PARAM_CHK((!(YT_DISPATCH(unit)->is_inited)), CMM_ERR_NOT_INIT);
 8824              		.loc 1 940 5 is_stmt 0 discriminator 3 view .LVU2492
 8825 0050 1348     		ldr	r0, .L925+16
 8826              	.LVL1102:
 940:../switch_sdk/core/yt/yt_l2.c ****     CMM_PARAM_CHK((!(YT_DISPATCH(unit)->is_inited)), CMM_ERR_NOT_INIT);
 8827              		.loc 1 940 5 discriminator 3 view .LVU2493
 8828 0052 FFF7FEFF 		bl	osal_printf
 8829              	.LVL1103:
 8830 0056 F5E7     		b	.L911
 8831              	.LVL1104:
 8832              	.L919:
 940:../switch_sdk/core/yt/yt_l2.c ****     CMM_PARAM_CHK((!(YT_DISPATCH(unit)->is_inited)), CMM_ERR_NOT_INIT);
 8833              		.loc 1 940 5 discriminator 3 view .LVU2494
 8834              	.LBE178:
 941:../switch_sdk/core/yt/yt_l2.c ****     CMM_PARAM_CHK((YT_ENABLE < enable || YT_DISABLE > enable), CMM_ERR_INPUT);
 8835              		.loc 1 941 5 is_stmt 1 discriminator 1 view .LVU2495
 941:../switch_sdk/core/yt/yt_l2.c ****     CMM_PARAM_CHK((YT_ENABLE < enable || YT_DISABLE > enable), CMM_ERR_INPUT);
 8836              		.loc 1 941 5 discriminator 1 view .LVU2496
 8837 0058 0E4B     		ldr	r3, .L925+4
 8838 005a 1B78     		ldrb	r3, [r3]	@ zero_extendqisi2
 8839 005c 012B     		cmp	r3, #1
 8840 005e 01D8     		bhi	.L923
 8841              	.LVL1105:
 8842              	.L913:
 941:../switch_sdk/core/yt/yt_l2.c ****     CMM_PARAM_CHK((YT_ENABLE < enable || YT_DISABLE > enable), CMM_ERR_INPUT);
 8843              		.loc 1 941 5 discriminator 5 view .LVU2497
 941:../switch_sdk/core/yt/yt_l2.c ****     CMM_PARAM_CHK((YT_ENABLE < enable || YT_DISABLE > enable), CMM_ERR_INPUT);
 8844              		.loc 1 941 5 discriminator 5 view .LVU2498
 941:../switch_sdk/core/yt/yt_l2.c ****     CMM_PARAM_CHK((YT_ENABLE < enable || YT_DISABLE > enable), CMM_ERR_INPUT);
 8845              		.loc 1 941 5 discriminator 5 view .LVU2499
 8846 0060 0420     		movs	r0, #4
 8847 0062 DCE7     		b	.L906
 8848              	.LVL1106:
 8849              	.L923:
 941:../switch_sdk/core/yt/yt_l2.c ****     CMM_PARAM_CHK((YT_ENABLE < enable || YT_DISABLE > enable), CMM_ERR_INPUT);
 8850              		.loc 1 941 5 discriminator 3 view .LVU2500
 8851              	.LBB179:
 941:../switch_sdk/core/yt/yt_l2.c ****     CMM_PARAM_CHK((YT_ENABLE < enable || YT_DISABLE > enable), CMM_ERR_INPUT);
 8852              		.loc 1 941 5 discriminator 3 view .LVU2501
 8853 0064 0C4B     		ldr	r3, .L925+8
 8854 0066 1A69     		ldr	r2, [r3, #16]
 8855 0068 0C4B     		ldr	r3, .L925+12
 8856 006a 9968     		ldr	r1, [r3, #8]
 8857              	.LVL1107:
 941:../switch_sdk/core/yt/yt_l2.c ****     CMM_PARAM_CHK((YT_ENABLE < enable || YT_DISABLE > enable), CMM_ERR_INPUT);
 8858              		.loc 1 941 5 is_stmt 0 discriminator 3 view .LVU2502
 8859 006c 0C48     		ldr	r0, .L925+16
 8860 006e FFF7FEFF 		bl	osal_printf
 8861              	.LVL1108:
 8862 0072 F5E7     		b	.L913
 8863              	.LVL1109:
 8864              	.L920:
 941:../switch_sdk/core/yt/yt_l2.c ****     CMM_PARAM_CHK((YT_ENABLE < enable || YT_DISABLE > enable), CMM_ERR_INPUT);
 8865              		.loc 1 941 5 discriminator 3 view .LVU2503
 8866              	.LBE179:
 942:../switch_sdk/core/yt/yt_l2.c **** 
 8867              		.loc 1 942 5 is_stmt 1 discriminator 1 view .LVU2504
 942:../switch_sdk/core/yt/yt_l2.c **** 
 8868              		.loc 1 942 5 discriminator 1 view .LVU2505
 8869 0074 074B     		ldr	r3, .L925+4
 8870 0076 1B78     		ldrb	r3, [r3]	@ zero_extendqisi2
 8871 0078 012B     		cmp	r3, #1
 8872 007a 01D8     		bhi	.L924
 8873              	.LVL1110:
 8874              	.L915:
 942:../switch_sdk/core/yt/yt_l2.c **** 
 8875              		.loc 1 942 5 discriminator 5 view .LVU2506
 942:../switch_sdk/core/yt/yt_l2.c **** 
 8876              		.loc 1 942 5 discriminator 5 view .LVU2507
 942:../switch_sdk/core/yt/yt_l2.c **** 
 8877              		.loc 1 942 5 discriminator 5 view .LVU2508
 8878 007c 0520     		movs	r0, #5
 8879 007e CEE7     		b	.L906
 8880              	.LVL1111:
 8881              	.L924:
 942:../switch_sdk/core/yt/yt_l2.c **** 
 8882              		.loc 1 942 5 discriminator 3 view .LVU2509
 8883              	.LBB180:
 942:../switch_sdk/core/yt/yt_l2.c **** 
 8884              		.loc 1 942 5 discriminator 3 view .LVU2510
 8885 0080 054B     		ldr	r3, .L925+8
 8886 0082 5A69     		ldr	r2, [r3, #20]
 8887 0084 054B     		ldr	r3, .L925+12
 8888 0086 9968     		ldr	r1, [r3, #8]
 8889              	.LVL1112:
 942:../switch_sdk/core/yt/yt_l2.c **** 
 8890              		.loc 1 942 5 is_stmt 0 discriminator 3 view .LVU2511
 8891 0088 0548     		ldr	r0, .L925+16
 8892 008a FFF7FEFF 		bl	osal_printf
 8893              	.LVL1113:
 8894 008e F5E7     		b	.L915
 8895              	.L926:
 8896              		.align	2
 8897              	.L925:
 8898 0090 00000000 		.word	gpfal_dispatch
 8899 0094 00000000 		.word	yt_debug_level
 8900 0098 00000000 		.word	_yt_errmsg
 8901 009c 00000000 		.word	_yt_prompt_msg
 8902 00a0 00000000 		.word	.LC0
 8903              	.LBE180:
 8904              		.cfi_endproc
 8905              	.LFE44:
 8907              		.section	.text.yt_l2_rma_bypass_unknown_mcast_filter_get,"ax",%progbits
 8908              		.align	1
 8909              		.global	yt_l2_rma_bypass_unknown_mcast_filter_get
 8910              		.syntax unified
 8911              		.thumb
 8912              		.thumb_func
 8914              	yt_l2_rma_bypass_unknown_mcast_filter_get:
 8915              	.LVL1114:
 8916              	.LFB45:
 946:../switch_sdk/core/yt/yt_l2.c **** 
 947:../switch_sdk/core/yt/yt_l2.c **** /**
 948:../switch_sdk/core/yt/yt_l2.c ****  * @internal      yt_l2_rma_bypass_unknown_mcast_filter_get
 949:../switch_sdk/core/yt/yt_l2.c ****  * @endinternal
 950:../switch_sdk/core/yt/yt_l2.c ****  *
 951:../switch_sdk/core/yt/yt_l2.c ****  * @brief         Description
 952:../switch_sdk/core/yt/yt_l2.c ****  * @note          APPLICABLE DEVICES  -Tiger
 953:../switch_sdk/core/yt/yt_l2.c ****  * @param[in]     unit                -unit id
 954:../switch_sdk/core/yt/yt_l2.c ****  * @param[out]    pEnable             -enable or disable
 955:../switch_sdk/core/yt/yt_l2.c ****  * @retval        CMM_ERR_OK          -on success
 956:../switch_sdk/core/yt/yt_l2.c ****  * @retval        CMM_ERR_FAIL        -on fail
 957:../switch_sdk/core/yt/yt_l2.c ****  */
 958:../switch_sdk/core/yt/yt_l2.c **** yt_ret_t  yt_l2_rma_bypass_unknown_mcast_filter_get(yt_unit_t unit, yt_enable_t *pEnable)
 959:../switch_sdk/core/yt/yt_l2.c **** {
 8917              		.loc 1 959 1 is_stmt 1 view -0
 8918              		.cfi_startproc
 8919              		@ args = 0, pretend = 0, frame = 0
 8920              		@ frame_needed = 0, uses_anonymous_args = 0
 8921              		.loc 1 959 1 is_stmt 0 view .LVU2513
 8922 0000 08B5     		push	{r3, lr}
 8923              		.cfi_def_cfa_offset 8
 8924              		.cfi_offset 3, -8
 8925              		.cfi_offset 14, -4
 960:../switch_sdk/core/yt/yt_l2.c ****     CMM_PARAM_CHK((YT_UNIT_NUM <= unit), CMM_ERR_INPUT);
 8926              		.loc 1 960 5 is_stmt 1 view .LVU2514
 8927              		.loc 1 960 5 view .LVU2515
 8928 0002 68B9     		cbnz	r0, .L938
 8929 0004 0246     		mov	r2, r0
 8930              		.loc 1 960 5 discriminator 2 view .LVU2516
 961:../switch_sdk/core/yt/yt_l2.c ****     CMM_PARAM_CHK(NULL == YT_DISPATCH(unit), CMM_ERR_NOT_INIT);
 8931              		.loc 1 961 5 discriminator 2 view .LVU2517
 8932              		.loc 1 961 5 discriminator 2 view .LVU2518
 8933 0006 224B     		ldr	r3, .L946
 8934 0008 53F82030 		ldr	r3, [r3, r0, lsl #2]
 8935 000c B3B1     		cbz	r3, .L939
 8936              		.loc 1 961 5 discriminator 2 view .LVU2519
 962:../switch_sdk/core/yt/yt_l2.c ****     CMM_PARAM_CHK((!(YT_DISPATCH(unit)->is_inited)), CMM_ERR_NOT_INIT);
 8937              		.loc 1 962 5 discriminator 2 view .LVU2520
 8938              		.loc 1 962 5 discriminator 2 view .LVU2521
 8939 000e 1878     		ldrb	r0, [r3]	@ zero_extendqisi2
 8940              	.LVL1115:
 8941              		.loc 1 962 5 is_stmt 0 discriminator 2 view .LVU2522
 8942 0010 10B3     		cbz	r0, .L940
 8943              		.loc 1 962 5 is_stmt 1 discriminator 2 view .LVU2523
 963:../switch_sdk/core/yt/yt_l2.c ****     CMM_PARAM_CHK((NULL == pEnable), CMM_ERR_NULL_POINT);
 8944              		.loc 1 963 5 discriminator 2 view .LVU2524
 8945              		.loc 1 963 5 discriminator 2 view .LVU2525
 8946 0012 0029     		cmp	r1, #0
 8947 0014 2ED0     		beq	.L941
 8948              		.loc 1 963 5 discriminator 2 view .LVU2526
 964:../switch_sdk/core/yt/yt_l2.c **** 
 965:../switch_sdk/core/yt/yt_l2.c ****     return YT_DISPATCH(unit)->l2_rma_bypass_unknown_mcast_filter_get(unit, pEnable);
 8949              		.loc 1 965 5 discriminator 2 view .LVU2527
 8950              		.loc 1 965 29 is_stmt 0 discriminator 2 view .LVU2528
 8951 0016 D3F80034 		ldr	r3, [r3, #1024]
 8952              		.loc 1 965 12 discriminator 2 view .LVU2529
 8953 001a 1046     		mov	r0, r2
 8954 001c 9847     		blx	r3
 8955              	.LVL1116:
 8956              	.L927:
 966:../switch_sdk/core/yt/yt_l2.c **** }
 8957              		.loc 1 966 1 view .LVU2530
 8958 001e 08BD     		pop	{r3, pc}
 8959              	.LVL1117:
 8960              	.L938:
 960:../switch_sdk/core/yt/yt_l2.c ****     CMM_PARAM_CHK(NULL == YT_DISPATCH(unit), CMM_ERR_NOT_INIT);
 8961              		.loc 1 960 5 is_stmt 1 discriminator 1 view .LVU2531
 960:../switch_sdk/core/yt/yt_l2.c ****     CMM_PARAM_CHK(NULL == YT_DISPATCH(unit), CMM_ERR_NOT_INIT);
 8962              		.loc 1 960 5 discriminator 1 view .LVU2532
 8963 0020 1C4B     		ldr	r3, .L946+4
 8964 0022 1B78     		ldrb	r3, [r3]	@ zero_extendqisi2
 8965 0024 012B     		cmp	r3, #1
 8966 0026 01D8     		bhi	.L942
 8967              	.LVL1118:
 8968              	.L929:
 960:../switch_sdk/core/yt/yt_l2.c ****     CMM_PARAM_CHK(NULL == YT_DISPATCH(unit), CMM_ERR_NOT_INIT);
 8969              		.loc 1 960 5 discriminator 5 view .LVU2533
 960:../switch_sdk/core/yt/yt_l2.c ****     CMM_PARAM_CHK(NULL == YT_DISPATCH(unit), CMM_ERR_NOT_INIT);
 8970              		.loc 1 960 5 discriminator 5 view .LVU2534
 960:../switch_sdk/core/yt/yt_l2.c ****     CMM_PARAM_CHK(NULL == YT_DISPATCH(unit), CMM_ERR_NOT_INIT);
 8971              		.loc 1 960 5 discriminator 5 view .LVU2535
 8972 0028 0520     		movs	r0, #5
 8973 002a F8E7     		b	.L927
 8974              	.LVL1119:
 8975              	.L942:
 960:../switch_sdk/core/yt/yt_l2.c ****     CMM_PARAM_CHK(NULL == YT_DISPATCH(unit), CMM_ERR_NOT_INIT);
 8976              		.loc 1 960 5 discriminator 3 view .LVU2536
 8977              	.LBB181:
 960:../switch_sdk/core/yt/yt_l2.c ****     CMM_PARAM_CHK(NULL == YT_DISPATCH(unit), CMM_ERR_NOT_INIT);
 8978              		.loc 1 960 5 discriminator 3 view .LVU2537
 8979 002c 1A4B     		ldr	r3, .L946+8
 8980 002e 5A69     		ldr	r2, [r3, #20]
 8981 0030 1A4B     		ldr	r3, .L946+12
 8982 0032 9968     		ldr	r1, [r3, #8]
 8983              	.LVL1120:
 960:../switch_sdk/core/yt/yt_l2.c ****     CMM_PARAM_CHK(NULL == YT_DISPATCH(unit), CMM_ERR_NOT_INIT);
 8984              		.loc 1 960 5 is_stmt 0 discriminator 3 view .LVU2538
 8985 0034 1A48     		ldr	r0, .L946+16
 8986              	.LVL1121:
 960:../switch_sdk/core/yt/yt_l2.c ****     CMM_PARAM_CHK(NULL == YT_DISPATCH(unit), CMM_ERR_NOT_INIT);
 8987              		.loc 1 960 5 discriminator 3 view .LVU2539
 8988 0036 FFF7FEFF 		bl	osal_printf
 8989              	.LVL1122:
 8990 003a F5E7     		b	.L929
 8991              	.LVL1123:
 8992              	.L939:
 960:../switch_sdk/core/yt/yt_l2.c ****     CMM_PARAM_CHK(NULL == YT_DISPATCH(unit), CMM_ERR_NOT_INIT);
 8993              		.loc 1 960 5 discriminator 3 view .LVU2540
 8994              	.LBE181:
 961:../switch_sdk/core/yt/yt_l2.c ****     CMM_PARAM_CHK((!(YT_DISPATCH(unit)->is_inited)), CMM_ERR_NOT_INIT);
 8995              		.loc 1 961 5 is_stmt 1 discriminator 1 view .LVU2541
 961:../switch_sdk/core/yt/yt_l2.c ****     CMM_PARAM_CHK((!(YT_DISPATCH(unit)->is_inited)), CMM_ERR_NOT_INIT);
 8996              		.loc 1 961 5 discriminator 1 view .LVU2542
 8997 003c 154B     		ldr	r3, .L946+4
 8998 003e 1B78     		ldrb	r3, [r3]	@ zero_extendqisi2
 8999 0040 012B     		cmp	r3, #1
 9000 0042 01D8     		bhi	.L943
 9001              	.LVL1124:
 9002              	.L932:
 961:../switch_sdk/core/yt/yt_l2.c ****     CMM_PARAM_CHK((!(YT_DISPATCH(unit)->is_inited)), CMM_ERR_NOT_INIT);
 9003              		.loc 1 961 5 discriminator 5 view .LVU2543
 961:../switch_sdk/core/yt/yt_l2.c ****     CMM_PARAM_CHK((!(YT_DISPATCH(unit)->is_inited)), CMM_ERR_NOT_INIT);
 9004              		.loc 1 961 5 discriminator 5 view .LVU2544
 961:../switch_sdk/core/yt/yt_l2.c ****     CMM_PARAM_CHK((!(YT_DISPATCH(unit)->is_inited)), CMM_ERR_NOT_INIT);
 9005              		.loc 1 961 5 discriminator 5 view .LVU2545
 9006 0044 0420     		movs	r0, #4
 9007 0046 EAE7     		b	.L927
 9008              	.LVL1125:
 9009              	.L943:
 961:../switch_sdk/core/yt/yt_l2.c ****     CMM_PARAM_CHK((!(YT_DISPATCH(unit)->is_inited)), CMM_ERR_NOT_INIT);
 9010              		.loc 1 961 5 discriminator 3 view .LVU2546
 9011              	.LBB182:
 961:../switch_sdk/core/yt/yt_l2.c ****     CMM_PARAM_CHK((!(YT_DISPATCH(unit)->is_inited)), CMM_ERR_NOT_INIT);
 9012              		.loc 1 961 5 discriminator 3 view .LVU2547
 9013 0048 134B     		ldr	r3, .L946+8
 9014 004a 1A69     		ldr	r2, [r3, #16]
 9015 004c 134B     		ldr	r3, .L946+12
 9016 004e 9968     		ldr	r1, [r3, #8]
 9017              	.LVL1126:
 961:../switch_sdk/core/yt/yt_l2.c ****     CMM_PARAM_CHK((!(YT_DISPATCH(unit)->is_inited)), CMM_ERR_NOT_INIT);
 9018              		.loc 1 961 5 is_stmt 0 discriminator 3 view .LVU2548
 9019 0050 1348     		ldr	r0, .L946+16
 9020              	.LVL1127:
 961:../switch_sdk/core/yt/yt_l2.c ****     CMM_PARAM_CHK((!(YT_DISPATCH(unit)->is_inited)), CMM_ERR_NOT_INIT);
 9021              		.loc 1 961 5 discriminator 3 view .LVU2549
 9022 0052 FFF7FEFF 		bl	osal_printf
 9023              	.LVL1128:
 9024 0056 F5E7     		b	.L932
 9025              	.LVL1129:
 9026              	.L940:
 961:../switch_sdk/core/yt/yt_l2.c ****     CMM_PARAM_CHK((!(YT_DISPATCH(unit)->is_inited)), CMM_ERR_NOT_INIT);
 9027              		.loc 1 961 5 discriminator 3 view .LVU2550
 9028              	.LBE182:
 962:../switch_sdk/core/yt/yt_l2.c ****     CMM_PARAM_CHK((NULL == pEnable), CMM_ERR_NULL_POINT);
 9029              		.loc 1 962 5 is_stmt 1 discriminator 1 view .LVU2551
 962:../switch_sdk/core/yt/yt_l2.c ****     CMM_PARAM_CHK((NULL == pEnable), CMM_ERR_NULL_POINT);
 9030              		.loc 1 962 5 discriminator 1 view .LVU2552
 9031 0058 0E4B     		ldr	r3, .L946+4
 9032 005a 1B78     		ldrb	r3, [r3]	@ zero_extendqisi2
 9033 005c 012B     		cmp	r3, #1
 9034 005e 01D8     		bhi	.L944
 9035              	.LVL1130:
 9036              	.L934:
 962:../switch_sdk/core/yt/yt_l2.c ****     CMM_PARAM_CHK((NULL == pEnable), CMM_ERR_NULL_POINT);
 9037              		.loc 1 962 5 discriminator 5 view .LVU2553
 962:../switch_sdk/core/yt/yt_l2.c ****     CMM_PARAM_CHK((NULL == pEnable), CMM_ERR_NULL_POINT);
 9038              		.loc 1 962 5 discriminator 5 view .LVU2554
 962:../switch_sdk/core/yt/yt_l2.c ****     CMM_PARAM_CHK((NULL == pEnable), CMM_ERR_NULL_POINT);
 9039              		.loc 1 962 5 discriminator 5 view .LVU2555
 9040 0060 0420     		movs	r0, #4
 9041 0062 DCE7     		b	.L927
 9042              	.LVL1131:
 9043              	.L944:
 962:../switch_sdk/core/yt/yt_l2.c ****     CMM_PARAM_CHK((NULL == pEnable), CMM_ERR_NULL_POINT);
 9044              		.loc 1 962 5 discriminator 3 view .LVU2556
 9045              	.LBB183:
 962:../switch_sdk/core/yt/yt_l2.c ****     CMM_PARAM_CHK((NULL == pEnable), CMM_ERR_NULL_POINT);
 9046              		.loc 1 962 5 discriminator 3 view .LVU2557
 9047 0064 0C4B     		ldr	r3, .L946+8
 9048 0066 1A69     		ldr	r2, [r3, #16]
 9049 0068 0C4B     		ldr	r3, .L946+12
 9050 006a 9968     		ldr	r1, [r3, #8]
 9051              	.LVL1132:
 962:../switch_sdk/core/yt/yt_l2.c ****     CMM_PARAM_CHK((NULL == pEnable), CMM_ERR_NULL_POINT);
 9052              		.loc 1 962 5 is_stmt 0 discriminator 3 view .LVU2558
 9053 006c 0C48     		ldr	r0, .L946+16
 9054 006e FFF7FEFF 		bl	osal_printf
 9055              	.LVL1133:
 9056 0072 F5E7     		b	.L934
 9057              	.LVL1134:
 9058              	.L941:
 962:../switch_sdk/core/yt/yt_l2.c ****     CMM_PARAM_CHK((NULL == pEnable), CMM_ERR_NULL_POINT);
 9059              		.loc 1 962 5 discriminator 3 view .LVU2559
 9060              	.LBE183:
 963:../switch_sdk/core/yt/yt_l2.c **** 
 9061              		.loc 1 963 5 is_stmt 1 discriminator 1 view .LVU2560
 963:../switch_sdk/core/yt/yt_l2.c **** 
 9062              		.loc 1 963 5 discriminator 1 view .LVU2561
 9063 0074 074B     		ldr	r3, .L946+4
 9064 0076 1B78     		ldrb	r3, [r3]	@ zero_extendqisi2
 9065 0078 012B     		cmp	r3, #1
 9066 007a 01D8     		bhi	.L945
 9067              	.LVL1135:
 9068              	.L936:
 963:../switch_sdk/core/yt/yt_l2.c **** 
 9069              		.loc 1 963 5 discriminator 5 view .LVU2562
 963:../switch_sdk/core/yt/yt_l2.c **** 
 9070              		.loc 1 963 5 discriminator 5 view .LVU2563
 963:../switch_sdk/core/yt/yt_l2.c **** 
 9071              		.loc 1 963 5 discriminator 5 view .LVU2564
 9072 007c 0220     		movs	r0, #2
 9073 007e CEE7     		b	.L927
 9074              	.LVL1136:
 9075              	.L945:
 963:../switch_sdk/core/yt/yt_l2.c **** 
 9076              		.loc 1 963 5 discriminator 3 view .LVU2565
 9077              	.LBB184:
 963:../switch_sdk/core/yt/yt_l2.c **** 
 9078              		.loc 1 963 5 discriminator 3 view .LVU2566
 9079 0080 054B     		ldr	r3, .L946+8
 9080 0082 9A68     		ldr	r2, [r3, #8]
 9081 0084 054B     		ldr	r3, .L946+12
 9082 0086 9968     		ldr	r1, [r3, #8]
 9083              	.LVL1137:
 963:../switch_sdk/core/yt/yt_l2.c **** 
 9084              		.loc 1 963 5 is_stmt 0 discriminator 3 view .LVU2567
 9085 0088 0548     		ldr	r0, .L946+16
 9086 008a FFF7FEFF 		bl	osal_printf
 9087              	.LVL1138:
 9088 008e F5E7     		b	.L936
 9089              	.L947:
 9090              		.align	2
 9091              	.L946:
 9092 0090 00000000 		.word	gpfal_dispatch
 9093 0094 00000000 		.word	yt_debug_level
 9094 0098 00000000 		.word	_yt_errmsg
 9095 009c 00000000 		.word	_yt_prompt_msg
 9096 00a0 00000000 		.word	.LC0
 9097              	.LBE184:
 9098              		.cfi_endproc
 9099              	.LFE45:
 9101              		.section	.text.yt_l2_fdb_port_uc_cnt_get,"ax",%progbits
 9102              		.align	1
 9103              		.global	yt_l2_fdb_port_uc_cnt_get
 9104              		.syntax unified
 9105              		.thumb
 9106              		.thumb_func
 9108              	yt_l2_fdb_port_uc_cnt_get:
 9109              	.LVL1139:
 9110              	.LFB46:
 967:../switch_sdk/core/yt/yt_l2.c **** 
 968:../switch_sdk/core/yt/yt_l2.c **** /**
 969:../switch_sdk/core/yt/yt_l2.c ****  * @internal      yt_l2_fdb_port_uc_cnt_get
 970:../switch_sdk/core/yt/yt_l2.c ****  * @endinternal
 971:../switch_sdk/core/yt/yt_l2.c ****  *
 972:../switch_sdk/core/yt/yt_l2.c ****  * @brief         Description
 973:../switch_sdk/core/yt/yt_l2.c ****  * @note          APPLICABLE DEVICES  -Tiger
 974:../switch_sdk/core/yt/yt_l2.c ****  * @param[in]     unit                -unit id
 975:../switch_sdk/core/yt/yt_l2.c ****  * @param[in]     port                -port num
 976:../switch_sdk/core/yt/yt_l2.c ****  * @param[out]    pcnt                -x
 977:../switch_sdk/core/yt/yt_l2.c ****  * @retval        CMM_ERR_OK          -on success
 978:../switch_sdk/core/yt/yt_l2.c ****  * @retval        CMM_ERR_FAIL        -on fail
 979:../switch_sdk/core/yt/yt_l2.c ****  */
 980:../switch_sdk/core/yt/yt_l2.c **** yt_ret_t  yt_l2_fdb_port_uc_cnt_get(yt_unit_t unit, yt_port_t port, uint32 *pcnt)
 981:../switch_sdk/core/yt/yt_l2.c **** {
 9111              		.loc 1 981 1 is_stmt 1 view -0
 9112              		.cfi_startproc
 9113              		@ args = 0, pretend = 0, frame = 0
 9114              		@ frame_needed = 0, uses_anonymous_args = 0
 9115              		.loc 1 981 1 is_stmt 0 view .LVU2569
 9116 0000 08B5     		push	{r3, lr}
 9117              		.cfi_def_cfa_offset 8
 9118              		.cfi_offset 3, -8
 9119              		.cfi_offset 14, -4
 982:../switch_sdk/core/yt/yt_l2.c ****     CMM_PARAM_CHK((YT_UNIT_NUM <= unit), CMM_ERR_INPUT);
 9120              		.loc 1 982 5 is_stmt 1 view .LVU2570
 9121              		.loc 1 982 5 view .LVU2571
 9122 0002 C0B9     		cbnz	r0, .L962
 9123 0004 8446     		mov	ip, r0
 9124              		.loc 1 982 5 discriminator 2 view .LVU2572
 983:../switch_sdk/core/yt/yt_l2.c ****     CMM_PARAM_CHK(NULL == YT_DISPATCH(unit), CMM_ERR_NOT_INIT);
 9125              		.loc 1 983 5 discriminator 2 view .LVU2573
 9126              		.loc 1 983 5 discriminator 2 view .LVU2574
 9127 0006 2F4B     		ldr	r3, .L971
 9128 0008 53F82030 		ldr	r3, [r3, r0, lsl #2]
 9129 000c 0BB3     		cbz	r3, .L963
 9130              		.loc 1 983 5 discriminator 2 view .LVU2575
 984:../switch_sdk/core/yt/yt_l2.c ****     CMM_PARAM_CHK((!(YT_DISPATCH(unit)->is_inited)), CMM_ERR_NOT_INIT);
 9131              		.loc 1 984 5 discriminator 2 view .LVU2576
 9132              		.loc 1 984 5 discriminator 2 view .LVU2577
 9133 000e 1878     		ldrb	r0, [r3]	@ zero_extendqisi2
 9134              	.LVL1140:
 9135              		.loc 1 984 5 is_stmt 0 discriminator 2 view .LVU2578
 9136 0010 0028     		cmp	r0, #0
 9137 0012 2CD0     		beq	.L964
 9138              		.loc 1 984 5 is_stmt 1 discriminator 2 view .LVU2579
 985:../switch_sdk/core/yt/yt_l2.c ****     CMM_PARAM_CHK((!(CMM_PORT_VALID(unit, port))), CMM_ERR_PORT);
 9139              		.loc 1 985 5 discriminator 2 view .LVU2580
 9140              		.loc 1 985 5 discriminator 2 view .LVU2581
 9141 0014 2C48     		ldr	r0, .L971+4
 9142 0016 0078     		ldrb	r0, [r0]	@ zero_extendqisi2
 9143 0018 0028     		cmp	r0, #0
 9144 001a 36D0     		beq	.L956
 9145 001c 2B48     		ldr	r0, .L971+8
 9146 001e 50F82C00 		ldr	r0, [r0, ip, lsl #2]
 9147 0022 007D     		ldrb	r0, [r0, #20]	@ zero_extendqisi2
 9148 0024 8842     		cmp	r0, r1
 9149 0026 30D9     		bls	.L956
 9150              		.loc 1 985 5 discriminator 4 view .LVU2582
 986:../switch_sdk/core/yt/yt_l2.c ****     CMM_PARAM_CHK((NULL == pcnt), CMM_ERR_NULL_POINT);
 9151              		.loc 1 986 5 discriminator 4 view .LVU2583
 9152              		.loc 1 986 5 discriminator 4 view .LVU2584
 9153 0028 002A     		cmp	r2, #0
 9154 002a 3CD0     		beq	.L965
 9155              		.loc 1 986 5 discriminator 2 view .LVU2585
 987:../switch_sdk/core/yt/yt_l2.c **** 
 988:../switch_sdk/core/yt/yt_l2.c ****     return YT_DISPATCH(unit)->l2_fdb_port_uc_cnt_get(unit, port, pcnt);
 9156              		.loc 1 988 5 discriminator 2 view .LVU2586
 9157              		.loc 1 988 29 is_stmt 0 discriminator 2 view .LVU2587
 9158 002c D3F80434 		ldr	r3, [r3, #1028]
 9159              		.loc 1 988 12 discriminator 2 view .LVU2588
 9160 0030 6046     		mov	r0, ip
 9161 0032 9847     		blx	r3
 9162              	.LVL1141:
 9163              	.L948:
 989:../switch_sdk/core/yt/yt_l2.c **** }
 9164              		.loc 1 989 1 view .LVU2589
 9165 0034 08BD     		pop	{r3, pc}
 9166              	.LVL1142:
 9167              	.L962:
 982:../switch_sdk/core/yt/yt_l2.c ****     CMM_PARAM_CHK(NULL == YT_DISPATCH(unit), CMM_ERR_NOT_INIT);
 9168              		.loc 1 982 5 is_stmt 1 discriminator 1 view .LVU2590
 982:../switch_sdk/core/yt/yt_l2.c ****     CMM_PARAM_CHK(NULL == YT_DISPATCH(unit), CMM_ERR_NOT_INIT);
 9169              		.loc 1 982 5 discriminator 1 view .LVU2591
 9170 0036 264B     		ldr	r3, .L971+12
 9171 0038 1B78     		ldrb	r3, [r3]	@ zero_extendqisi2
 9172 003a 012B     		cmp	r3, #1
 9173 003c 01D8     		bhi	.L966
 9174              	.LVL1143:
 9175              	.L950:
 982:../switch_sdk/core/yt/yt_l2.c ****     CMM_PARAM_CHK(NULL == YT_DISPATCH(unit), CMM_ERR_NOT_INIT);
 9176              		.loc 1 982 5 discriminator 5 view .LVU2592
 982:../switch_sdk/core/yt/yt_l2.c ****     CMM_PARAM_CHK(NULL == YT_DISPATCH(unit), CMM_ERR_NOT_INIT);
 9177              		.loc 1 982 5 discriminator 5 view .LVU2593
 982:../switch_sdk/core/yt/yt_l2.c ****     CMM_PARAM_CHK(NULL == YT_DISPATCH(unit), CMM_ERR_NOT_INIT);
 9178              		.loc 1 982 5 discriminator 5 view .LVU2594
 9179 003e 0520     		movs	r0, #5
 9180 0040 F8E7     		b	.L948
 9181              	.LVL1144:
 9182              	.L966:
 982:../switch_sdk/core/yt/yt_l2.c ****     CMM_PARAM_CHK(NULL == YT_DISPATCH(unit), CMM_ERR_NOT_INIT);
 9183              		.loc 1 982 5 discriminator 3 view .LVU2595
 9184              	.LBB185:
 982:../switch_sdk/core/yt/yt_l2.c ****     CMM_PARAM_CHK(NULL == YT_DISPATCH(unit), CMM_ERR_NOT_INIT);
 9185              		.loc 1 982 5 discriminator 3 view .LVU2596
 9186 0042 244B     		ldr	r3, .L971+16
 9187 0044 5A69     		ldr	r2, [r3, #20]
 9188              	.LVL1145:
 982:../switch_sdk/core/yt/yt_l2.c ****     CMM_PARAM_CHK(NULL == YT_DISPATCH(unit), CMM_ERR_NOT_INIT);
 9189              		.loc 1 982 5 is_stmt 0 discriminator 3 view .LVU2597
 9190 0046 244B     		ldr	r3, .L971+20
 9191 0048 9968     		ldr	r1, [r3, #8]
 9192              	.LVL1146:
 982:../switch_sdk/core/yt/yt_l2.c ****     CMM_PARAM_CHK(NULL == YT_DISPATCH(unit), CMM_ERR_NOT_INIT);
 9193              		.loc 1 982 5 discriminator 3 view .LVU2598
 9194 004a 2448     		ldr	r0, .L971+24
 9195              	.LVL1147:
 982:../switch_sdk/core/yt/yt_l2.c ****     CMM_PARAM_CHK(NULL == YT_DISPATCH(unit), CMM_ERR_NOT_INIT);
 9196              		.loc 1 982 5 discriminator 3 view .LVU2599
 9197 004c FFF7FEFF 		bl	osal_printf
 9198              	.LVL1148:
 9199 0050 F5E7     		b	.L950
 9200              	.LVL1149:
 9201              	.L963:
 982:../switch_sdk/core/yt/yt_l2.c ****     CMM_PARAM_CHK(NULL == YT_DISPATCH(unit), CMM_ERR_NOT_INIT);
 9202              		.loc 1 982 5 discriminator 3 view .LVU2600
 9203              	.LBE185:
 983:../switch_sdk/core/yt/yt_l2.c ****     CMM_PARAM_CHK((!(YT_DISPATCH(unit)->is_inited)), CMM_ERR_NOT_INIT);
 9204              		.loc 1 983 5 is_stmt 1 discriminator 1 view .LVU2601
 983:../switch_sdk/core/yt/yt_l2.c ****     CMM_PARAM_CHK((!(YT_DISPATCH(unit)->is_inited)), CMM_ERR_NOT_INIT);
 9205              		.loc 1 983 5 discriminator 1 view .LVU2602
 9206 0052 1F4B     		ldr	r3, .L971+12
 9207 0054 1B78     		ldrb	r3, [r3]	@ zero_extendqisi2
 9208 0056 012B     		cmp	r3, #1
 9209 0058 01D8     		bhi	.L967
 9210              	.LVL1150:
 9211              	.L953:
 983:../switch_sdk/core/yt/yt_l2.c ****     CMM_PARAM_CHK((!(YT_DISPATCH(unit)->is_inited)), CMM_ERR_NOT_INIT);
 9212              		.loc 1 983 5 discriminator 5 view .LVU2603
 983:../switch_sdk/core/yt/yt_l2.c ****     CMM_PARAM_CHK((!(YT_DISPATCH(unit)->is_inited)), CMM_ERR_NOT_INIT);
 9213              		.loc 1 983 5 discriminator 5 view .LVU2604
 983:../switch_sdk/core/yt/yt_l2.c ****     CMM_PARAM_CHK((!(YT_DISPATCH(unit)->is_inited)), CMM_ERR_NOT_INIT);
 9214              		.loc 1 983 5 discriminator 5 view .LVU2605
 9215 005a 0420     		movs	r0, #4
 9216 005c EAE7     		b	.L948
 9217              	.LVL1151:
 9218              	.L967:
 983:../switch_sdk/core/yt/yt_l2.c ****     CMM_PARAM_CHK((!(YT_DISPATCH(unit)->is_inited)), CMM_ERR_NOT_INIT);
 9219              		.loc 1 983 5 discriminator 3 view .LVU2606
 9220              	.LBB186:
 983:../switch_sdk/core/yt/yt_l2.c ****     CMM_PARAM_CHK((!(YT_DISPATCH(unit)->is_inited)), CMM_ERR_NOT_INIT);
 9221              		.loc 1 983 5 discriminator 3 view .LVU2607
 9222 005e 1D4B     		ldr	r3, .L971+16
 9223 0060 1A69     		ldr	r2, [r3, #16]
 9224              	.LVL1152:
 983:../switch_sdk/core/yt/yt_l2.c ****     CMM_PARAM_CHK((!(YT_DISPATCH(unit)->is_inited)), CMM_ERR_NOT_INIT);
 9225              		.loc 1 983 5 is_stmt 0 discriminator 3 view .LVU2608
 9226 0062 1D4B     		ldr	r3, .L971+20
 9227 0064 9968     		ldr	r1, [r3, #8]
 9228              	.LVL1153:
 983:../switch_sdk/core/yt/yt_l2.c ****     CMM_PARAM_CHK((!(YT_DISPATCH(unit)->is_inited)), CMM_ERR_NOT_INIT);
 9229              		.loc 1 983 5 discriminator 3 view .LVU2609
 9230 0066 1D48     		ldr	r0, .L971+24
 9231              	.LVL1154:
 983:../switch_sdk/core/yt/yt_l2.c ****     CMM_PARAM_CHK((!(YT_DISPATCH(unit)->is_inited)), CMM_ERR_NOT_INIT);
 9232              		.loc 1 983 5 discriminator 3 view .LVU2610
 9233 0068 FFF7FEFF 		bl	osal_printf
 9234              	.LVL1155:
 9235 006c F5E7     		b	.L953
 9236              	.LVL1156:
 9237              	.L964:
 983:../switch_sdk/core/yt/yt_l2.c ****     CMM_PARAM_CHK((!(YT_DISPATCH(unit)->is_inited)), CMM_ERR_NOT_INIT);
 9238              		.loc 1 983 5 discriminator 3 view .LVU2611
 9239              	.LBE186:
 984:../switch_sdk/core/yt/yt_l2.c ****     CMM_PARAM_CHK((!(CMM_PORT_VALID(unit, port))), CMM_ERR_PORT);
 9240              		.loc 1 984 5 is_stmt 1 discriminator 1 view .LVU2612
 984:../switch_sdk/core/yt/yt_l2.c ****     CMM_PARAM_CHK((!(CMM_PORT_VALID(unit, port))), CMM_ERR_PORT);
 9241              		.loc 1 984 5 discriminator 1 view .LVU2613
 9242 006e 184B     		ldr	r3, .L971+12
 9243 0070 1B78     		ldrb	r3, [r3]	@ zero_extendqisi2
 9244 0072 012B     		cmp	r3, #1
 9245 0074 01D8     		bhi	.L968
 9246              	.LVL1157:
 9247              	.L955:
 984:../switch_sdk/core/yt/yt_l2.c ****     CMM_PARAM_CHK((!(CMM_PORT_VALID(unit, port))), CMM_ERR_PORT);
 9248              		.loc 1 984 5 discriminator 5 view .LVU2614
 984:../switch_sdk/core/yt/yt_l2.c ****     CMM_PARAM_CHK((!(CMM_PORT_VALID(unit, port))), CMM_ERR_PORT);
 9249              		.loc 1 984 5 discriminator 5 view .LVU2615
 984:../switch_sdk/core/yt/yt_l2.c ****     CMM_PARAM_CHK((!(CMM_PORT_VALID(unit, port))), CMM_ERR_PORT);
 9250              		.loc 1 984 5 discriminator 5 view .LVU2616
 9251 0076 0420     		movs	r0, #4
 9252 0078 DCE7     		b	.L948
 9253              	.LVL1158:
 9254              	.L968:
 984:../switch_sdk/core/yt/yt_l2.c ****     CMM_PARAM_CHK((!(CMM_PORT_VALID(unit, port))), CMM_ERR_PORT);
 9255              		.loc 1 984 5 discriminator 3 view .LVU2617
 9256              	.LBB187:
 984:../switch_sdk/core/yt/yt_l2.c ****     CMM_PARAM_CHK((!(CMM_PORT_VALID(unit, port))), CMM_ERR_PORT);
 9257              		.loc 1 984 5 discriminator 3 view .LVU2618
 9258 007a 164B     		ldr	r3, .L971+16
 9259 007c 1A69     		ldr	r2, [r3, #16]
 9260              	.LVL1159:
 984:../switch_sdk/core/yt/yt_l2.c ****     CMM_PARAM_CHK((!(CMM_PORT_VALID(unit, port))), CMM_ERR_PORT);
 9261              		.loc 1 984 5 is_stmt 0 discriminator 3 view .LVU2619
 9262 007e 164B     		ldr	r3, .L971+20
 9263 0080 9968     		ldr	r1, [r3, #8]
 9264              	.LVL1160:
 984:../switch_sdk/core/yt/yt_l2.c ****     CMM_PARAM_CHK((!(CMM_PORT_VALID(unit, port))), CMM_ERR_PORT);
 9265              		.loc 1 984 5 discriminator 3 view .LVU2620
 9266 0082 1648     		ldr	r0, .L971+24
 9267 0084 FFF7FEFF 		bl	osal_printf
 9268              	.LVL1161:
 9269 0088 F5E7     		b	.L955
 9270              	.LVL1162:
 9271              	.L956:
 984:../switch_sdk/core/yt/yt_l2.c ****     CMM_PARAM_CHK((!(CMM_PORT_VALID(unit, port))), CMM_ERR_PORT);
 9272              		.loc 1 984 5 discriminator 3 view .LVU2621
 9273              	.LBE187:
 985:../switch_sdk/core/yt/yt_l2.c ****     CMM_PARAM_CHK((NULL == pcnt), CMM_ERR_NULL_POINT);
 9274              		.loc 1 985 5 is_stmt 1 discriminator 3 view .LVU2622
 985:../switch_sdk/core/yt/yt_l2.c ****     CMM_PARAM_CHK((NULL == pcnt), CMM_ERR_NULL_POINT);
 9275              		.loc 1 985 5 discriminator 3 view .LVU2623
 9276 008a 114B     		ldr	r3, .L971+12
 9277 008c 1B78     		ldrb	r3, [r3]	@ zero_extendqisi2
 9278 008e 012B     		cmp	r3, #1
 9279 0090 01D8     		bhi	.L969
 9280              	.LVL1163:
 9281              	.L958:
 985:../switch_sdk/core/yt/yt_l2.c ****     CMM_PARAM_CHK((NULL == pcnt), CMM_ERR_NULL_POINT);
 9282              		.loc 1 985 5 discriminator 7 view .LVU2624
 985:../switch_sdk/core/yt/yt_l2.c ****     CMM_PARAM_CHK((NULL == pcnt), CMM_ERR_NULL_POINT);
 9283              		.loc 1 985 5 discriminator 7 view .LVU2625
 985:../switch_sdk/core/yt/yt_l2.c ****     CMM_PARAM_CHK((NULL == pcnt), CMM_ERR_NULL_POINT);
 9284              		.loc 1 985 5 discriminator 7 view .LVU2626
 9285 0092 0E20     		movs	r0, #14
 9286 0094 CEE7     		b	.L948
 9287              	.LVL1164:
 9288              	.L969:
 985:../switch_sdk/core/yt/yt_l2.c ****     CMM_PARAM_CHK((NULL == pcnt), CMM_ERR_NULL_POINT);
 9289              		.loc 1 985 5 discriminator 5 view .LVU2627
 9290              	.LBB188:
 985:../switch_sdk/core/yt/yt_l2.c ****     CMM_PARAM_CHK((NULL == pcnt), CMM_ERR_NULL_POINT);
 9291              		.loc 1 985 5 discriminator 5 view .LVU2628
 9292 0096 0F4B     		ldr	r3, .L971+16
 9293 0098 9A6B     		ldr	r2, [r3, #56]
 9294              	.LVL1165:
 985:../switch_sdk/core/yt/yt_l2.c ****     CMM_PARAM_CHK((NULL == pcnt), CMM_ERR_NULL_POINT);
 9295              		.loc 1 985 5 is_stmt 0 discriminator 5 view .LVU2629
 9296 009a 0F4B     		ldr	r3, .L971+20
 9297 009c 9968     		ldr	r1, [r3, #8]
 9298              	.LVL1166:
 985:../switch_sdk/core/yt/yt_l2.c ****     CMM_PARAM_CHK((NULL == pcnt), CMM_ERR_NULL_POINT);
 9299              		.loc 1 985 5 discriminator 5 view .LVU2630
 9300 009e 0F48     		ldr	r0, .L971+24
 9301 00a0 FFF7FEFF 		bl	osal_printf
 9302              	.LVL1167:
 9303 00a4 F5E7     		b	.L958
 9304              	.LVL1168:
 9305              	.L965:
 985:../switch_sdk/core/yt/yt_l2.c ****     CMM_PARAM_CHK((NULL == pcnt), CMM_ERR_NULL_POINT);
 9306              		.loc 1 985 5 discriminator 5 view .LVU2631
 9307              	.LBE188:
 986:../switch_sdk/core/yt/yt_l2.c **** 
 9308              		.loc 1 986 5 is_stmt 1 discriminator 1 view .LVU2632
 986:../switch_sdk/core/yt/yt_l2.c **** 
 9309              		.loc 1 986 5 discriminator 1 view .LVU2633
 9310 00a6 0A4B     		ldr	r3, .L971+12
 9311 00a8 1B78     		ldrb	r3, [r3]	@ zero_extendqisi2
 9312 00aa 012B     		cmp	r3, #1
 9313 00ac 01D8     		bhi	.L970
 9314              	.LVL1169:
 9315              	.L960:
 986:../switch_sdk/core/yt/yt_l2.c **** 
 9316              		.loc 1 986 5 discriminator 5 view .LVU2634
 986:../switch_sdk/core/yt/yt_l2.c **** 
 9317              		.loc 1 986 5 discriminator 5 view .LVU2635
 986:../switch_sdk/core/yt/yt_l2.c **** 
 9318              		.loc 1 986 5 discriminator 5 view .LVU2636
 9319 00ae 0220     		movs	r0, #2
 9320 00b0 C0E7     		b	.L948
 9321              	.LVL1170:
 9322              	.L970:
 986:../switch_sdk/core/yt/yt_l2.c **** 
 9323              		.loc 1 986 5 discriminator 3 view .LVU2637
 9324              	.LBB189:
 986:../switch_sdk/core/yt/yt_l2.c **** 
 9325              		.loc 1 986 5 discriminator 3 view .LVU2638
 9326 00b2 084B     		ldr	r3, .L971+16
 9327 00b4 9A68     		ldr	r2, [r3, #8]
 9328              	.LVL1171:
 986:../switch_sdk/core/yt/yt_l2.c **** 
 9329              		.loc 1 986 5 is_stmt 0 discriminator 3 view .LVU2639
 9330 00b6 084B     		ldr	r3, .L971+20
 9331 00b8 9968     		ldr	r1, [r3, #8]
 9332              	.LVL1172:
 986:../switch_sdk/core/yt/yt_l2.c **** 
 9333              		.loc 1 986 5 discriminator 3 view .LVU2640
 9334 00ba 0848     		ldr	r0, .L971+24
 9335 00bc FFF7FEFF 		bl	osal_printf
 9336              	.LVL1173:
 9337 00c0 F5E7     		b	.L960
 9338              	.L972:
 9339 00c2 00BF     		.align	2
 9340              	.L971:
 9341 00c4 00000000 		.word	gpfal_dispatch
 9342 00c8 00000000 		.word	gcal_inited
 9343 00cc 00000000 		.word	gpSwitchUnit
 9344 00d0 00000000 		.word	yt_debug_level
 9345 00d4 00000000 		.word	_yt_errmsg
 9346 00d8 00000000 		.word	_yt_prompt_msg
 9347 00dc 00000000 		.word	.LC0
 9348              	.LBE189:
 9349              		.cfi_endproc
 9350              	.LFE46:
 9352              		.section	.text.yt_l2_fdb_lag_uc_cnt_get,"ax",%progbits
 9353              		.align	1
 9354              		.global	yt_l2_fdb_lag_uc_cnt_get
 9355              		.syntax unified
 9356              		.thumb
 9357              		.thumb_func
 9359              	yt_l2_fdb_lag_uc_cnt_get:
 9360              	.LVL1174:
 9361              	.LFB47:
 990:../switch_sdk/core/yt/yt_l2.c **** 
 991:../switch_sdk/core/yt/yt_l2.c **** /**
 992:../switch_sdk/core/yt/yt_l2.c ****  * @internal      yt_l2_fdb_lag_uc_cnt_get
 993:../switch_sdk/core/yt/yt_l2.c ****  * @endinternal
 994:../switch_sdk/core/yt/yt_l2.c ****  *
 995:../switch_sdk/core/yt/yt_l2.c ****  * @brief         Description
 996:../switch_sdk/core/yt/yt_l2.c ****  * @note          APPLICABLE DEVICES  -Tiger
 997:../switch_sdk/core/yt/yt_l2.c ****  * @param[in]     unit                -unit id
 998:../switch_sdk/core/yt/yt_l2.c ****  * @param[in]     groupid             -x
 999:../switch_sdk/core/yt/yt_l2.c ****  * @param[out]    pcnt                -x
1000:../switch_sdk/core/yt/yt_l2.c ****  * @retval        CMM_ERR_OK          -on success
1001:../switch_sdk/core/yt/yt_l2.c ****  * @retval        CMM_ERR_FAIL        -on fail
1002:../switch_sdk/core/yt/yt_l2.c ****  */
1003:../switch_sdk/core/yt/yt_l2.c **** yt_ret_t  yt_l2_fdb_lag_uc_cnt_get(yt_unit_t unit, uint8_t groupid, uint32_t *pcnt)
1004:../switch_sdk/core/yt/yt_l2.c **** {
 9362              		.loc 1 1004 1 is_stmt 1 view -0
 9363              		.cfi_startproc
 9364              		@ args = 0, pretend = 0, frame = 0
 9365              		@ frame_needed = 0, uses_anonymous_args = 0
 9366              		.loc 1 1004 1 is_stmt 0 view .LVU2642
 9367 0000 08B5     		push	{r3, lr}
 9368              		.cfi_def_cfa_offset 8
 9369              		.cfi_offset 3, -8
 9370              		.cfi_offset 14, -4
1005:../switch_sdk/core/yt/yt_l2.c ****     CMM_PARAM_CHK((YT_UNIT_NUM <= unit), CMM_ERR_INPUT);
 9371              		.loc 1 1005 5 is_stmt 1 view .LVU2643
 9372              		.loc 1 1005 5 view .LVU2644
 9373 0002 68B9     		cbnz	r0, .L984
 9374 0004 8446     		mov	ip, r0
 9375              		.loc 1 1005 5 discriminator 2 view .LVU2645
1006:../switch_sdk/core/yt/yt_l2.c ****     CMM_PARAM_CHK(NULL == YT_DISPATCH(unit), CMM_ERR_NOT_INIT);
 9376              		.loc 1 1006 5 discriminator 2 view .LVU2646
 9377              		.loc 1 1006 5 discriminator 2 view .LVU2647
 9378 0006 224B     		ldr	r3, .L992
 9379 0008 53F82030 		ldr	r3, [r3, r0, lsl #2]
 9380 000c B3B1     		cbz	r3, .L985
 9381              		.loc 1 1006 5 discriminator 2 view .LVU2648
1007:../switch_sdk/core/yt/yt_l2.c ****     CMM_PARAM_CHK((!(YT_DISPATCH(unit)->is_inited)), CMM_ERR_NOT_INIT);
 9382              		.loc 1 1007 5 discriminator 2 view .LVU2649
 9383              		.loc 1 1007 5 discriminator 2 view .LVU2650
 9384 000e 1878     		ldrb	r0, [r3]	@ zero_extendqisi2
 9385              	.LVL1175:
 9386              		.loc 1 1007 5 is_stmt 0 discriminator 2 view .LVU2651
 9387 0010 10B3     		cbz	r0, .L986
 9388              		.loc 1 1007 5 is_stmt 1 discriminator 2 view .LVU2652
1008:../switch_sdk/core/yt/yt_l2.c ****     CMM_PARAM_CHK((NULL == pcnt), CMM_ERR_NULL_POINT);
 9389              		.loc 1 1008 5 discriminator 2 view .LVU2653
 9390              		.loc 1 1008 5 discriminator 2 view .LVU2654
 9391 0012 002A     		cmp	r2, #0
 9392 0014 2ED0     		beq	.L987
 9393              		.loc 1 1008 5 discriminator 2 view .LVU2655
1009:../switch_sdk/core/yt/yt_l2.c **** 
1010:../switch_sdk/core/yt/yt_l2.c ****     return YT_DISPATCH(unit)->l2_fdb_lag_uc_cnt_get(unit, groupid, pcnt);
 9394              		.loc 1 1010 5 discriminator 2 view .LVU2656
 9395              		.loc 1 1010 29 is_stmt 0 discriminator 2 view .LVU2657
 9396 0016 D3F8A833 		ldr	r3, [r3, #936]
 9397              		.loc 1 1010 12 discriminator 2 view .LVU2658
 9398 001a 6046     		mov	r0, ip
 9399 001c 9847     		blx	r3
 9400              	.LVL1176:
 9401              	.L973:
1011:../switch_sdk/core/yt/yt_l2.c **** }
 9402              		.loc 1 1011 1 view .LVU2659
 9403 001e 08BD     		pop	{r3, pc}
 9404              	.LVL1177:
 9405              	.L984:
1005:../switch_sdk/core/yt/yt_l2.c ****     CMM_PARAM_CHK(NULL == YT_DISPATCH(unit), CMM_ERR_NOT_INIT);
 9406              		.loc 1 1005 5 is_stmt 1 discriminator 1 view .LVU2660
1005:../switch_sdk/core/yt/yt_l2.c ****     CMM_PARAM_CHK(NULL == YT_DISPATCH(unit), CMM_ERR_NOT_INIT);
 9407              		.loc 1 1005 5 discriminator 1 view .LVU2661
 9408 0020 1C4B     		ldr	r3, .L992+4
 9409 0022 1B78     		ldrb	r3, [r3]	@ zero_extendqisi2
 9410 0024 012B     		cmp	r3, #1
 9411 0026 01D8     		bhi	.L988
 9412              	.LVL1178:
 9413              	.L975:
1005:../switch_sdk/core/yt/yt_l2.c ****     CMM_PARAM_CHK(NULL == YT_DISPATCH(unit), CMM_ERR_NOT_INIT);
 9414              		.loc 1 1005 5 discriminator 5 view .LVU2662
1005:../switch_sdk/core/yt/yt_l2.c ****     CMM_PARAM_CHK(NULL == YT_DISPATCH(unit), CMM_ERR_NOT_INIT);
 9415              		.loc 1 1005 5 discriminator 5 view .LVU2663
1005:../switch_sdk/core/yt/yt_l2.c ****     CMM_PARAM_CHK(NULL == YT_DISPATCH(unit), CMM_ERR_NOT_INIT);
 9416              		.loc 1 1005 5 discriminator 5 view .LVU2664
 9417 0028 0520     		movs	r0, #5
 9418 002a F8E7     		b	.L973
 9419              	.LVL1179:
 9420              	.L988:
1005:../switch_sdk/core/yt/yt_l2.c ****     CMM_PARAM_CHK(NULL == YT_DISPATCH(unit), CMM_ERR_NOT_INIT);
 9421              		.loc 1 1005 5 discriminator 3 view .LVU2665
 9422              	.LBB190:
1005:../switch_sdk/core/yt/yt_l2.c ****     CMM_PARAM_CHK(NULL == YT_DISPATCH(unit), CMM_ERR_NOT_INIT);
 9423              		.loc 1 1005 5 discriminator 3 view .LVU2666
 9424 002c 1A4B     		ldr	r3, .L992+8
 9425 002e 5A69     		ldr	r2, [r3, #20]
 9426              	.LVL1180:
1005:../switch_sdk/core/yt/yt_l2.c ****     CMM_PARAM_CHK(NULL == YT_DISPATCH(unit), CMM_ERR_NOT_INIT);
 9427              		.loc 1 1005 5 is_stmt 0 discriminator 3 view .LVU2667
 9428 0030 1A4B     		ldr	r3, .L992+12
 9429 0032 9968     		ldr	r1, [r3, #8]
 9430              	.LVL1181:
1005:../switch_sdk/core/yt/yt_l2.c ****     CMM_PARAM_CHK(NULL == YT_DISPATCH(unit), CMM_ERR_NOT_INIT);
 9431              		.loc 1 1005 5 discriminator 3 view .LVU2668
 9432 0034 1A48     		ldr	r0, .L992+16
 9433              	.LVL1182:
1005:../switch_sdk/core/yt/yt_l2.c ****     CMM_PARAM_CHK(NULL == YT_DISPATCH(unit), CMM_ERR_NOT_INIT);
 9434              		.loc 1 1005 5 discriminator 3 view .LVU2669
 9435 0036 FFF7FEFF 		bl	osal_printf
 9436              	.LVL1183:
 9437 003a F5E7     		b	.L975
 9438              	.LVL1184:
 9439              	.L985:
1005:../switch_sdk/core/yt/yt_l2.c ****     CMM_PARAM_CHK(NULL == YT_DISPATCH(unit), CMM_ERR_NOT_INIT);
 9440              		.loc 1 1005 5 discriminator 3 view .LVU2670
 9441              	.LBE190:
1006:../switch_sdk/core/yt/yt_l2.c ****     CMM_PARAM_CHK((!(YT_DISPATCH(unit)->is_inited)), CMM_ERR_NOT_INIT);
 9442              		.loc 1 1006 5 is_stmt 1 discriminator 1 view .LVU2671
1006:../switch_sdk/core/yt/yt_l2.c ****     CMM_PARAM_CHK((!(YT_DISPATCH(unit)->is_inited)), CMM_ERR_NOT_INIT);
 9443              		.loc 1 1006 5 discriminator 1 view .LVU2672
 9444 003c 154B     		ldr	r3, .L992+4
 9445 003e 1B78     		ldrb	r3, [r3]	@ zero_extendqisi2
 9446 0040 012B     		cmp	r3, #1
 9447 0042 01D8     		bhi	.L989
 9448              	.LVL1185:
 9449              	.L978:
1006:../switch_sdk/core/yt/yt_l2.c ****     CMM_PARAM_CHK((!(YT_DISPATCH(unit)->is_inited)), CMM_ERR_NOT_INIT);
 9450              		.loc 1 1006 5 discriminator 5 view .LVU2673
1006:../switch_sdk/core/yt/yt_l2.c ****     CMM_PARAM_CHK((!(YT_DISPATCH(unit)->is_inited)), CMM_ERR_NOT_INIT);
 9451              		.loc 1 1006 5 discriminator 5 view .LVU2674
1006:../switch_sdk/core/yt/yt_l2.c ****     CMM_PARAM_CHK((!(YT_DISPATCH(unit)->is_inited)), CMM_ERR_NOT_INIT);
 9452              		.loc 1 1006 5 discriminator 5 view .LVU2675
 9453 0044 0420     		movs	r0, #4
 9454 0046 EAE7     		b	.L973
 9455              	.LVL1186:
 9456              	.L989:
1006:../switch_sdk/core/yt/yt_l2.c ****     CMM_PARAM_CHK((!(YT_DISPATCH(unit)->is_inited)), CMM_ERR_NOT_INIT);
 9457              		.loc 1 1006 5 discriminator 3 view .LVU2676
 9458              	.LBB191:
1006:../switch_sdk/core/yt/yt_l2.c ****     CMM_PARAM_CHK((!(YT_DISPATCH(unit)->is_inited)), CMM_ERR_NOT_INIT);
 9459              		.loc 1 1006 5 discriminator 3 view .LVU2677
 9460 0048 134B     		ldr	r3, .L992+8
 9461 004a 1A69     		ldr	r2, [r3, #16]
 9462              	.LVL1187:
1006:../switch_sdk/core/yt/yt_l2.c ****     CMM_PARAM_CHK((!(YT_DISPATCH(unit)->is_inited)), CMM_ERR_NOT_INIT);
 9463              		.loc 1 1006 5 is_stmt 0 discriminator 3 view .LVU2678
 9464 004c 134B     		ldr	r3, .L992+12
 9465 004e 9968     		ldr	r1, [r3, #8]
 9466              	.LVL1188:
1006:../switch_sdk/core/yt/yt_l2.c ****     CMM_PARAM_CHK((!(YT_DISPATCH(unit)->is_inited)), CMM_ERR_NOT_INIT);
 9467              		.loc 1 1006 5 discriminator 3 view .LVU2679
 9468 0050 1348     		ldr	r0, .L992+16
 9469              	.LVL1189:
1006:../switch_sdk/core/yt/yt_l2.c ****     CMM_PARAM_CHK((!(YT_DISPATCH(unit)->is_inited)), CMM_ERR_NOT_INIT);
 9470              		.loc 1 1006 5 discriminator 3 view .LVU2680
 9471 0052 FFF7FEFF 		bl	osal_printf
 9472              	.LVL1190:
 9473 0056 F5E7     		b	.L978
 9474              	.LVL1191:
 9475              	.L986:
1006:../switch_sdk/core/yt/yt_l2.c ****     CMM_PARAM_CHK((!(YT_DISPATCH(unit)->is_inited)), CMM_ERR_NOT_INIT);
 9476              		.loc 1 1006 5 discriminator 3 view .LVU2681
 9477              	.LBE191:
1007:../switch_sdk/core/yt/yt_l2.c ****     CMM_PARAM_CHK((NULL == pcnt), CMM_ERR_NULL_POINT);
 9478              		.loc 1 1007 5 is_stmt 1 discriminator 1 view .LVU2682
1007:../switch_sdk/core/yt/yt_l2.c ****     CMM_PARAM_CHK((NULL == pcnt), CMM_ERR_NULL_POINT);
 9479              		.loc 1 1007 5 discriminator 1 view .LVU2683
 9480 0058 0E4B     		ldr	r3, .L992+4
 9481 005a 1B78     		ldrb	r3, [r3]	@ zero_extendqisi2
 9482 005c 012B     		cmp	r3, #1
 9483 005e 01D8     		bhi	.L990
 9484              	.LVL1192:
 9485              	.L980:
1007:../switch_sdk/core/yt/yt_l2.c ****     CMM_PARAM_CHK((NULL == pcnt), CMM_ERR_NULL_POINT);
 9486              		.loc 1 1007 5 discriminator 5 view .LVU2684
1007:../switch_sdk/core/yt/yt_l2.c ****     CMM_PARAM_CHK((NULL == pcnt), CMM_ERR_NULL_POINT);
 9487              		.loc 1 1007 5 discriminator 5 view .LVU2685
1007:../switch_sdk/core/yt/yt_l2.c ****     CMM_PARAM_CHK((NULL == pcnt), CMM_ERR_NULL_POINT);
 9488              		.loc 1 1007 5 discriminator 5 view .LVU2686
 9489 0060 0420     		movs	r0, #4
 9490 0062 DCE7     		b	.L973
 9491              	.LVL1193:
 9492              	.L990:
1007:../switch_sdk/core/yt/yt_l2.c ****     CMM_PARAM_CHK((NULL == pcnt), CMM_ERR_NULL_POINT);
 9493              		.loc 1 1007 5 discriminator 3 view .LVU2687
 9494              	.LBB192:
1007:../switch_sdk/core/yt/yt_l2.c ****     CMM_PARAM_CHK((NULL == pcnt), CMM_ERR_NULL_POINT);
 9495              		.loc 1 1007 5 discriminator 3 view .LVU2688
 9496 0064 0C4B     		ldr	r3, .L992+8
 9497 0066 1A69     		ldr	r2, [r3, #16]
 9498              	.LVL1194:
1007:../switch_sdk/core/yt/yt_l2.c ****     CMM_PARAM_CHK((NULL == pcnt), CMM_ERR_NULL_POINT);
 9499              		.loc 1 1007 5 is_stmt 0 discriminator 3 view .LVU2689
 9500 0068 0C4B     		ldr	r3, .L992+12
 9501 006a 9968     		ldr	r1, [r3, #8]
 9502              	.LVL1195:
1007:../switch_sdk/core/yt/yt_l2.c ****     CMM_PARAM_CHK((NULL == pcnt), CMM_ERR_NULL_POINT);
 9503              		.loc 1 1007 5 discriminator 3 view .LVU2690
 9504 006c 0C48     		ldr	r0, .L992+16
 9505 006e FFF7FEFF 		bl	osal_printf
 9506              	.LVL1196:
 9507 0072 F5E7     		b	.L980
 9508              	.LVL1197:
 9509              	.L987:
1007:../switch_sdk/core/yt/yt_l2.c ****     CMM_PARAM_CHK((NULL == pcnt), CMM_ERR_NULL_POINT);
 9510              		.loc 1 1007 5 discriminator 3 view .LVU2691
 9511              	.LBE192:
1008:../switch_sdk/core/yt/yt_l2.c **** 
 9512              		.loc 1 1008 5 is_stmt 1 discriminator 1 view .LVU2692
1008:../switch_sdk/core/yt/yt_l2.c **** 
 9513              		.loc 1 1008 5 discriminator 1 view .LVU2693
 9514 0074 074B     		ldr	r3, .L992+4
 9515 0076 1B78     		ldrb	r3, [r3]	@ zero_extendqisi2
 9516 0078 012B     		cmp	r3, #1
 9517 007a 01D8     		bhi	.L991
 9518              	.LVL1198:
 9519              	.L982:
1008:../switch_sdk/core/yt/yt_l2.c **** 
 9520              		.loc 1 1008 5 discriminator 5 view .LVU2694
1008:../switch_sdk/core/yt/yt_l2.c **** 
 9521              		.loc 1 1008 5 discriminator 5 view .LVU2695
1008:../switch_sdk/core/yt/yt_l2.c **** 
 9522              		.loc 1 1008 5 discriminator 5 view .LVU2696
 9523 007c 0220     		movs	r0, #2
 9524 007e CEE7     		b	.L973
 9525              	.LVL1199:
 9526              	.L991:
1008:../switch_sdk/core/yt/yt_l2.c **** 
 9527              		.loc 1 1008 5 discriminator 3 view .LVU2697
 9528              	.LBB193:
1008:../switch_sdk/core/yt/yt_l2.c **** 
 9529              		.loc 1 1008 5 discriminator 3 view .LVU2698
 9530 0080 054B     		ldr	r3, .L992+8
 9531 0082 9A68     		ldr	r2, [r3, #8]
 9532              	.LVL1200:
1008:../switch_sdk/core/yt/yt_l2.c **** 
 9533              		.loc 1 1008 5 is_stmt 0 discriminator 3 view .LVU2699
 9534 0084 054B     		ldr	r3, .L992+12
 9535 0086 9968     		ldr	r1, [r3, #8]
 9536              	.LVL1201:
1008:../switch_sdk/core/yt/yt_l2.c **** 
 9537              		.loc 1 1008 5 discriminator 3 view .LVU2700
 9538 0088 0548     		ldr	r0, .L992+16
 9539 008a FFF7FEFF 		bl	osal_printf
 9540              	.LVL1202:
 9541 008e F5E7     		b	.L982
 9542              	.L993:
 9543              		.align	2
 9544              	.L992:
 9545 0090 00000000 		.word	gpfal_dispatch
 9546 0094 00000000 		.word	yt_debug_level
 9547 0098 00000000 		.word	_yt_errmsg
 9548 009c 00000000 		.word	_yt_prompt_msg
 9549 00a0 00000000 		.word	.LC0
 9550              	.LBE193:
 9551              		.cfi_endproc
 9552              	.LFE47:
 9554              		.section	.text.yt_l2_lag_learnlimit_en_set,"ax",%progbits
 9555              		.align	1
 9556              		.global	yt_l2_lag_learnlimit_en_set
 9557              		.syntax unified
 9558              		.thumb
 9559              		.thumb_func
 9561              	yt_l2_lag_learnlimit_en_set:
 9562              	.LVL1203:
 9563              	.LFB48:
1012:../switch_sdk/core/yt/yt_l2.c **** 
1013:../switch_sdk/core/yt/yt_l2.c **** /**
1014:../switch_sdk/core/yt/yt_l2.c ****  * @internal      yt_l2_lag_learnlimit_en_set
1015:../switch_sdk/core/yt/yt_l2.c ****  * @endinternal
1016:../switch_sdk/core/yt/yt_l2.c ****  *
1017:../switch_sdk/core/yt/yt_l2.c ****  * @brief         Description
1018:../switch_sdk/core/yt/yt_l2.c ****  * @note          APPLICABLE DEVICES  -Tiger
1019:../switch_sdk/core/yt/yt_l2.c ****  * @param[in]     unit                -unit id
1020:../switch_sdk/core/yt/yt_l2.c ****  * @param[in]     groupid             -x
1021:../switch_sdk/core/yt/yt_l2.c ****  * @param[in]     enable              -enable or disable
1022:../switch_sdk/core/yt/yt_l2.c ****  * @retval        CMM_ERR_OK          -on success
1023:../switch_sdk/core/yt/yt_l2.c ****  * @retval        CMM_ERR_FAIL        -on fail
1024:../switch_sdk/core/yt/yt_l2.c ****  */
1025:../switch_sdk/core/yt/yt_l2.c **** yt_ret_t  yt_l2_lag_learnlimit_en_set(yt_unit_t unit, uint8_t groupid,  yt_enable_t enable)
1026:../switch_sdk/core/yt/yt_l2.c **** {
 9564              		.loc 1 1026 1 is_stmt 1 view -0
 9565              		.cfi_startproc
 9566              		@ args = 0, pretend = 0, frame = 0
 9567              		@ frame_needed = 0, uses_anonymous_args = 0
 9568              		.loc 1 1026 1 is_stmt 0 view .LVU2702
 9569 0000 08B5     		push	{r3, lr}
 9570              		.cfi_def_cfa_offset 8
 9571              		.cfi_offset 3, -8
 9572              		.cfi_offset 14, -4
1027:../switch_sdk/core/yt/yt_l2.c ****     CMM_PARAM_CHK((YT_UNIT_NUM <= unit), CMM_ERR_INPUT);
 9573              		.loc 1 1027 5 is_stmt 1 view .LVU2703
 9574              		.loc 1 1027 5 view .LVU2704
 9575 0002 68B9     		cbnz	r0, .L1005
 9576 0004 8446     		mov	ip, r0
 9577              		.loc 1 1027 5 discriminator 2 view .LVU2705
1028:../switch_sdk/core/yt/yt_l2.c ****     CMM_PARAM_CHK(NULL == YT_DISPATCH(unit), CMM_ERR_NOT_INIT);
 9578              		.loc 1 1028 5 discriminator 2 view .LVU2706
 9579              		.loc 1 1028 5 discriminator 2 view .LVU2707
 9580 0006 224B     		ldr	r3, .L1013
 9581 0008 53F82030 		ldr	r3, [r3, r0, lsl #2]
 9582 000c B3B1     		cbz	r3, .L1006
 9583              		.loc 1 1028 5 discriminator 2 view .LVU2708
1029:../switch_sdk/core/yt/yt_l2.c ****     CMM_PARAM_CHK((!(YT_DISPATCH(unit)->is_inited)), CMM_ERR_NOT_INIT);
 9584              		.loc 1 1029 5 discriminator 2 view .LVU2709
 9585              		.loc 1 1029 5 discriminator 2 view .LVU2710
 9586 000e 1878     		ldrb	r0, [r3]	@ zero_extendqisi2
 9587              	.LVL1204:
 9588              		.loc 1 1029 5 is_stmt 0 discriminator 2 view .LVU2711
 9589 0010 10B3     		cbz	r0, .L1007
 9590              		.loc 1 1029 5 is_stmt 1 discriminator 2 view .LVU2712
1030:../switch_sdk/core/yt/yt_l2.c ****     CMM_PARAM_CHK((YT_ENABLE < enable || YT_DISABLE > enable), CMM_ERR_INPUT);
 9591              		.loc 1 1030 5 discriminator 2 view .LVU2713
 9592              		.loc 1 1030 5 discriminator 2 view .LVU2714
 9593 0012 012A     		cmp	r2, #1
 9594 0014 2ED8     		bhi	.L1008
 9595              		.loc 1 1030 5 discriminator 2 view .LVU2715
1031:../switch_sdk/core/yt/yt_l2.c **** 
1032:../switch_sdk/core/yt/yt_l2.c ****     return YT_DISPATCH(unit)->l2_lag_learnlimit_en_set(unit, groupid, enable);
 9596              		.loc 1 1032 5 discriminator 2 view .LVU2716
 9597              		.loc 1 1032 29 is_stmt 0 discriminator 2 view .LVU2717
 9598 0016 D3F8AC33 		ldr	r3, [r3, #940]
 9599              		.loc 1 1032 12 discriminator 2 view .LVU2718
 9600 001a 6046     		mov	r0, ip
 9601 001c 9847     		blx	r3
 9602              	.LVL1205:
 9603              	.L994:
1033:../switch_sdk/core/yt/yt_l2.c **** }
 9604              		.loc 1 1033 1 view .LVU2719
 9605 001e 08BD     		pop	{r3, pc}
 9606              	.LVL1206:
 9607              	.L1005:
1027:../switch_sdk/core/yt/yt_l2.c ****     CMM_PARAM_CHK(NULL == YT_DISPATCH(unit), CMM_ERR_NOT_INIT);
 9608              		.loc 1 1027 5 is_stmt 1 discriminator 1 view .LVU2720
1027:../switch_sdk/core/yt/yt_l2.c ****     CMM_PARAM_CHK(NULL == YT_DISPATCH(unit), CMM_ERR_NOT_INIT);
 9609              		.loc 1 1027 5 discriminator 1 view .LVU2721
 9610 0020 1C4B     		ldr	r3, .L1013+4
 9611 0022 1B78     		ldrb	r3, [r3]	@ zero_extendqisi2
 9612 0024 012B     		cmp	r3, #1
 9613 0026 01D8     		bhi	.L1009
 9614              	.LVL1207:
 9615              	.L996:
1027:../switch_sdk/core/yt/yt_l2.c ****     CMM_PARAM_CHK(NULL == YT_DISPATCH(unit), CMM_ERR_NOT_INIT);
 9616              		.loc 1 1027 5 discriminator 5 view .LVU2722
1027:../switch_sdk/core/yt/yt_l2.c ****     CMM_PARAM_CHK(NULL == YT_DISPATCH(unit), CMM_ERR_NOT_INIT);
 9617              		.loc 1 1027 5 discriminator 5 view .LVU2723
1027:../switch_sdk/core/yt/yt_l2.c ****     CMM_PARAM_CHK(NULL == YT_DISPATCH(unit), CMM_ERR_NOT_INIT);
 9618              		.loc 1 1027 5 discriminator 5 view .LVU2724
 9619 0028 0520     		movs	r0, #5
 9620 002a F8E7     		b	.L994
 9621              	.LVL1208:
 9622              	.L1009:
1027:../switch_sdk/core/yt/yt_l2.c ****     CMM_PARAM_CHK(NULL == YT_DISPATCH(unit), CMM_ERR_NOT_INIT);
 9623              		.loc 1 1027 5 discriminator 3 view .LVU2725
 9624              	.LBB194:
1027:../switch_sdk/core/yt/yt_l2.c ****     CMM_PARAM_CHK(NULL == YT_DISPATCH(unit), CMM_ERR_NOT_INIT);
 9625              		.loc 1 1027 5 discriminator 3 view .LVU2726
 9626 002c 1A4B     		ldr	r3, .L1013+8
 9627 002e 5A69     		ldr	r2, [r3, #20]
 9628              	.LVL1209:
1027:../switch_sdk/core/yt/yt_l2.c ****     CMM_PARAM_CHK(NULL == YT_DISPATCH(unit), CMM_ERR_NOT_INIT);
 9629              		.loc 1 1027 5 is_stmt 0 discriminator 3 view .LVU2727
 9630 0030 1A4B     		ldr	r3, .L1013+12
 9631 0032 9968     		ldr	r1, [r3, #8]
 9632              	.LVL1210:
1027:../switch_sdk/core/yt/yt_l2.c ****     CMM_PARAM_CHK(NULL == YT_DISPATCH(unit), CMM_ERR_NOT_INIT);
 9633              		.loc 1 1027 5 discriminator 3 view .LVU2728
 9634 0034 1A48     		ldr	r0, .L1013+16
 9635              	.LVL1211:
1027:../switch_sdk/core/yt/yt_l2.c ****     CMM_PARAM_CHK(NULL == YT_DISPATCH(unit), CMM_ERR_NOT_INIT);
 9636              		.loc 1 1027 5 discriminator 3 view .LVU2729
 9637 0036 FFF7FEFF 		bl	osal_printf
 9638              	.LVL1212:
 9639 003a F5E7     		b	.L996
 9640              	.LVL1213:
 9641              	.L1006:
1027:../switch_sdk/core/yt/yt_l2.c ****     CMM_PARAM_CHK(NULL == YT_DISPATCH(unit), CMM_ERR_NOT_INIT);
 9642              		.loc 1 1027 5 discriminator 3 view .LVU2730
 9643              	.LBE194:
1028:../switch_sdk/core/yt/yt_l2.c ****     CMM_PARAM_CHK((!(YT_DISPATCH(unit)->is_inited)), CMM_ERR_NOT_INIT);
 9644              		.loc 1 1028 5 is_stmt 1 discriminator 1 view .LVU2731
1028:../switch_sdk/core/yt/yt_l2.c ****     CMM_PARAM_CHK((!(YT_DISPATCH(unit)->is_inited)), CMM_ERR_NOT_INIT);
 9645              		.loc 1 1028 5 discriminator 1 view .LVU2732
 9646 003c 154B     		ldr	r3, .L1013+4
 9647 003e 1B78     		ldrb	r3, [r3]	@ zero_extendqisi2
 9648 0040 012B     		cmp	r3, #1
 9649 0042 01D8     		bhi	.L1010
 9650              	.LVL1214:
 9651              	.L999:
1028:../switch_sdk/core/yt/yt_l2.c ****     CMM_PARAM_CHK((!(YT_DISPATCH(unit)->is_inited)), CMM_ERR_NOT_INIT);
 9652              		.loc 1 1028 5 discriminator 5 view .LVU2733
1028:../switch_sdk/core/yt/yt_l2.c ****     CMM_PARAM_CHK((!(YT_DISPATCH(unit)->is_inited)), CMM_ERR_NOT_INIT);
 9653              		.loc 1 1028 5 discriminator 5 view .LVU2734
1028:../switch_sdk/core/yt/yt_l2.c ****     CMM_PARAM_CHK((!(YT_DISPATCH(unit)->is_inited)), CMM_ERR_NOT_INIT);
 9654              		.loc 1 1028 5 discriminator 5 view .LVU2735
 9655 0044 0420     		movs	r0, #4
 9656 0046 EAE7     		b	.L994
 9657              	.LVL1215:
 9658              	.L1010:
1028:../switch_sdk/core/yt/yt_l2.c ****     CMM_PARAM_CHK((!(YT_DISPATCH(unit)->is_inited)), CMM_ERR_NOT_INIT);
 9659              		.loc 1 1028 5 discriminator 3 view .LVU2736
 9660              	.LBB195:
1028:../switch_sdk/core/yt/yt_l2.c ****     CMM_PARAM_CHK((!(YT_DISPATCH(unit)->is_inited)), CMM_ERR_NOT_INIT);
 9661              		.loc 1 1028 5 discriminator 3 view .LVU2737
 9662 0048 134B     		ldr	r3, .L1013+8
 9663 004a 1A69     		ldr	r2, [r3, #16]
 9664              	.LVL1216:
1028:../switch_sdk/core/yt/yt_l2.c ****     CMM_PARAM_CHK((!(YT_DISPATCH(unit)->is_inited)), CMM_ERR_NOT_INIT);
 9665              		.loc 1 1028 5 is_stmt 0 discriminator 3 view .LVU2738
 9666 004c 134B     		ldr	r3, .L1013+12
 9667 004e 9968     		ldr	r1, [r3, #8]
 9668              	.LVL1217:
1028:../switch_sdk/core/yt/yt_l2.c ****     CMM_PARAM_CHK((!(YT_DISPATCH(unit)->is_inited)), CMM_ERR_NOT_INIT);
 9669              		.loc 1 1028 5 discriminator 3 view .LVU2739
 9670 0050 1348     		ldr	r0, .L1013+16
 9671              	.LVL1218:
1028:../switch_sdk/core/yt/yt_l2.c ****     CMM_PARAM_CHK((!(YT_DISPATCH(unit)->is_inited)), CMM_ERR_NOT_INIT);
 9672              		.loc 1 1028 5 discriminator 3 view .LVU2740
 9673 0052 FFF7FEFF 		bl	osal_printf
 9674              	.LVL1219:
 9675 0056 F5E7     		b	.L999
 9676              	.LVL1220:
 9677              	.L1007:
1028:../switch_sdk/core/yt/yt_l2.c ****     CMM_PARAM_CHK((!(YT_DISPATCH(unit)->is_inited)), CMM_ERR_NOT_INIT);
 9678              		.loc 1 1028 5 discriminator 3 view .LVU2741
 9679              	.LBE195:
1029:../switch_sdk/core/yt/yt_l2.c ****     CMM_PARAM_CHK((YT_ENABLE < enable || YT_DISABLE > enable), CMM_ERR_INPUT);
 9680              		.loc 1 1029 5 is_stmt 1 discriminator 1 view .LVU2742
1029:../switch_sdk/core/yt/yt_l2.c ****     CMM_PARAM_CHK((YT_ENABLE < enable || YT_DISABLE > enable), CMM_ERR_INPUT);
 9681              		.loc 1 1029 5 discriminator 1 view .LVU2743
 9682 0058 0E4B     		ldr	r3, .L1013+4
 9683 005a 1B78     		ldrb	r3, [r3]	@ zero_extendqisi2
 9684 005c 012B     		cmp	r3, #1
 9685 005e 01D8     		bhi	.L1011
 9686              	.LVL1221:
 9687              	.L1001:
1029:../switch_sdk/core/yt/yt_l2.c ****     CMM_PARAM_CHK((YT_ENABLE < enable || YT_DISABLE > enable), CMM_ERR_INPUT);
 9688              		.loc 1 1029 5 discriminator 5 view .LVU2744
1029:../switch_sdk/core/yt/yt_l2.c ****     CMM_PARAM_CHK((YT_ENABLE < enable || YT_DISABLE > enable), CMM_ERR_INPUT);
 9689              		.loc 1 1029 5 discriminator 5 view .LVU2745
1029:../switch_sdk/core/yt/yt_l2.c ****     CMM_PARAM_CHK((YT_ENABLE < enable || YT_DISABLE > enable), CMM_ERR_INPUT);
 9690              		.loc 1 1029 5 discriminator 5 view .LVU2746
 9691 0060 0420     		movs	r0, #4
 9692 0062 DCE7     		b	.L994
 9693              	.LVL1222:
 9694              	.L1011:
1029:../switch_sdk/core/yt/yt_l2.c ****     CMM_PARAM_CHK((YT_ENABLE < enable || YT_DISABLE > enable), CMM_ERR_INPUT);
 9695              		.loc 1 1029 5 discriminator 3 view .LVU2747
 9696              	.LBB196:
1029:../switch_sdk/core/yt/yt_l2.c ****     CMM_PARAM_CHK((YT_ENABLE < enable || YT_DISABLE > enable), CMM_ERR_INPUT);
 9697              		.loc 1 1029 5 discriminator 3 view .LVU2748
 9698 0064 0C4B     		ldr	r3, .L1013+8
 9699 0066 1A69     		ldr	r2, [r3, #16]
 9700              	.LVL1223:
1029:../switch_sdk/core/yt/yt_l2.c ****     CMM_PARAM_CHK((YT_ENABLE < enable || YT_DISABLE > enable), CMM_ERR_INPUT);
 9701              		.loc 1 1029 5 is_stmt 0 discriminator 3 view .LVU2749
 9702 0068 0C4B     		ldr	r3, .L1013+12
 9703 006a 9968     		ldr	r1, [r3, #8]
 9704              	.LVL1224:
1029:../switch_sdk/core/yt/yt_l2.c ****     CMM_PARAM_CHK((YT_ENABLE < enable || YT_DISABLE > enable), CMM_ERR_INPUT);
 9705              		.loc 1 1029 5 discriminator 3 view .LVU2750
 9706 006c 0C48     		ldr	r0, .L1013+16
 9707 006e FFF7FEFF 		bl	osal_printf
 9708              	.LVL1225:
 9709 0072 F5E7     		b	.L1001
 9710              	.LVL1226:
 9711              	.L1008:
1029:../switch_sdk/core/yt/yt_l2.c ****     CMM_PARAM_CHK((YT_ENABLE < enable || YT_DISABLE > enable), CMM_ERR_INPUT);
 9712              		.loc 1 1029 5 discriminator 3 view .LVU2751
 9713              	.LBE196:
1030:../switch_sdk/core/yt/yt_l2.c **** 
 9714              		.loc 1 1030 5 is_stmt 1 discriminator 1 view .LVU2752
1030:../switch_sdk/core/yt/yt_l2.c **** 
 9715              		.loc 1 1030 5 discriminator 1 view .LVU2753
 9716 0074 074B     		ldr	r3, .L1013+4
 9717 0076 1B78     		ldrb	r3, [r3]	@ zero_extendqisi2
 9718 0078 012B     		cmp	r3, #1
 9719 007a 01D8     		bhi	.L1012
 9720              	.LVL1227:
 9721              	.L1003:
1030:../switch_sdk/core/yt/yt_l2.c **** 
 9722              		.loc 1 1030 5 discriminator 5 view .LVU2754
1030:../switch_sdk/core/yt/yt_l2.c **** 
 9723              		.loc 1 1030 5 discriminator 5 view .LVU2755
1030:../switch_sdk/core/yt/yt_l2.c **** 
 9724              		.loc 1 1030 5 discriminator 5 view .LVU2756
 9725 007c 0520     		movs	r0, #5
 9726 007e CEE7     		b	.L994
 9727              	.LVL1228:
 9728              	.L1012:
1030:../switch_sdk/core/yt/yt_l2.c **** 
 9729              		.loc 1 1030 5 discriminator 3 view .LVU2757
 9730              	.LBB197:
1030:../switch_sdk/core/yt/yt_l2.c **** 
 9731              		.loc 1 1030 5 discriminator 3 view .LVU2758
 9732 0080 054B     		ldr	r3, .L1013+8
 9733 0082 5A69     		ldr	r2, [r3, #20]
 9734              	.LVL1229:
1030:../switch_sdk/core/yt/yt_l2.c **** 
 9735              		.loc 1 1030 5 is_stmt 0 discriminator 3 view .LVU2759
 9736 0084 054B     		ldr	r3, .L1013+12
 9737 0086 9968     		ldr	r1, [r3, #8]
 9738              	.LVL1230:
1030:../switch_sdk/core/yt/yt_l2.c **** 
 9739              		.loc 1 1030 5 discriminator 3 view .LVU2760
 9740 0088 0548     		ldr	r0, .L1013+16
 9741 008a FFF7FEFF 		bl	osal_printf
 9742              	.LVL1231:
 9743 008e F5E7     		b	.L1003
 9744              	.L1014:
 9745              		.align	2
 9746              	.L1013:
 9747 0090 00000000 		.word	gpfal_dispatch
 9748 0094 00000000 		.word	yt_debug_level
 9749 0098 00000000 		.word	_yt_errmsg
 9750 009c 00000000 		.word	_yt_prompt_msg
 9751 00a0 00000000 		.word	.LC0
 9752              	.LBE197:
 9753              		.cfi_endproc
 9754              	.LFE48:
 9756              		.section	.text.yt_l2_lag_learnlimit_en_get,"ax",%progbits
 9757              		.align	1
 9758              		.global	yt_l2_lag_learnlimit_en_get
 9759              		.syntax unified
 9760              		.thumb
 9761              		.thumb_func
 9763              	yt_l2_lag_learnlimit_en_get:
 9764              	.LVL1232:
 9765              	.LFB49:
1034:../switch_sdk/core/yt/yt_l2.c **** 
1035:../switch_sdk/core/yt/yt_l2.c **** /**
1036:../switch_sdk/core/yt/yt_l2.c ****  * @internal      yt_l2_lag_learnlimit_en_get
1037:../switch_sdk/core/yt/yt_l2.c ****  * @endinternal
1038:../switch_sdk/core/yt/yt_l2.c ****  *
1039:../switch_sdk/core/yt/yt_l2.c ****  * @brief         Description
1040:../switch_sdk/core/yt/yt_l2.c ****  * @note          APPLICABLE DEVICES  -Tiger
1041:../switch_sdk/core/yt/yt_l2.c ****  * @param[in]     unit                -unit id
1042:../switch_sdk/core/yt/yt_l2.c ****  * @param[in]     groupid             -x
1043:../switch_sdk/core/yt/yt_l2.c ****  * @param[out]    pEnable             -enable or disable
1044:../switch_sdk/core/yt/yt_l2.c ****  * @retval        CMM_ERR_OK          -on success
1045:../switch_sdk/core/yt/yt_l2.c ****  * @retval        CMM_ERR_FAIL        -on fail
1046:../switch_sdk/core/yt/yt_l2.c ****  */
1047:../switch_sdk/core/yt/yt_l2.c **** yt_ret_t  yt_l2_lag_learnlimit_en_get(yt_unit_t unit, uint8_t groupid,  yt_enable_t *pEnable)
1048:../switch_sdk/core/yt/yt_l2.c **** {
 9766              		.loc 1 1048 1 is_stmt 1 view -0
 9767              		.cfi_startproc
 9768              		@ args = 0, pretend = 0, frame = 0
 9769              		@ frame_needed = 0, uses_anonymous_args = 0
 9770              		.loc 1 1048 1 is_stmt 0 view .LVU2762
 9771 0000 08B5     		push	{r3, lr}
 9772              		.cfi_def_cfa_offset 8
 9773              		.cfi_offset 3, -8
 9774              		.cfi_offset 14, -4
1049:../switch_sdk/core/yt/yt_l2.c ****     CMM_PARAM_CHK((YT_UNIT_NUM <= unit), CMM_ERR_INPUT);
 9775              		.loc 1 1049 5 is_stmt 1 view .LVU2763
 9776              		.loc 1 1049 5 view .LVU2764
 9777 0002 68B9     		cbnz	r0, .L1026
 9778 0004 8446     		mov	ip, r0
 9779              		.loc 1 1049 5 discriminator 2 view .LVU2765
1050:../switch_sdk/core/yt/yt_l2.c ****     CMM_PARAM_CHK(NULL == YT_DISPATCH(unit), CMM_ERR_NOT_INIT);
 9780              		.loc 1 1050 5 discriminator 2 view .LVU2766
 9781              		.loc 1 1050 5 discriminator 2 view .LVU2767
 9782 0006 224B     		ldr	r3, .L1034
 9783 0008 53F82030 		ldr	r3, [r3, r0, lsl #2]
 9784 000c B3B1     		cbz	r3, .L1027
 9785              		.loc 1 1050 5 discriminator 2 view .LVU2768
1051:../switch_sdk/core/yt/yt_l2.c ****     CMM_PARAM_CHK((!(YT_DISPATCH(unit)->is_inited)), CMM_ERR_NOT_INIT);
 9786              		.loc 1 1051 5 discriminator 2 view .LVU2769
 9787              		.loc 1 1051 5 discriminator 2 view .LVU2770
 9788 000e 1878     		ldrb	r0, [r3]	@ zero_extendqisi2
 9789              	.LVL1233:
 9790              		.loc 1 1051 5 is_stmt 0 discriminator 2 view .LVU2771
 9791 0010 10B3     		cbz	r0, .L1028
 9792              		.loc 1 1051 5 is_stmt 1 discriminator 2 view .LVU2772
1052:../switch_sdk/core/yt/yt_l2.c ****     CMM_PARAM_CHK((NULL == pEnable), CMM_ERR_NULL_POINT);
 9793              		.loc 1 1052 5 discriminator 2 view .LVU2773
 9794              		.loc 1 1052 5 discriminator 2 view .LVU2774
 9795 0012 002A     		cmp	r2, #0
 9796 0014 2ED0     		beq	.L1029
 9797              		.loc 1 1052 5 discriminator 2 view .LVU2775
1053:../switch_sdk/core/yt/yt_l2.c **** 
1054:../switch_sdk/core/yt/yt_l2.c ****     return YT_DISPATCH(unit)->l2_lag_learnlimit_en_get(unit, groupid, pEnable);
 9798              		.loc 1 1054 5 discriminator 2 view .LVU2776
 9799              		.loc 1 1054 29 is_stmt 0 discriminator 2 view .LVU2777
 9800 0016 D3F8B033 		ldr	r3, [r3, #944]
 9801              		.loc 1 1054 12 discriminator 2 view .LVU2778
 9802 001a 6046     		mov	r0, ip
 9803 001c 9847     		blx	r3
 9804              	.LVL1234:
 9805              	.L1015:
1055:../switch_sdk/core/yt/yt_l2.c **** }
 9806              		.loc 1 1055 1 view .LVU2779
 9807 001e 08BD     		pop	{r3, pc}
 9808              	.LVL1235:
 9809              	.L1026:
1049:../switch_sdk/core/yt/yt_l2.c ****     CMM_PARAM_CHK(NULL == YT_DISPATCH(unit), CMM_ERR_NOT_INIT);
 9810              		.loc 1 1049 5 is_stmt 1 discriminator 1 view .LVU2780
1049:../switch_sdk/core/yt/yt_l2.c ****     CMM_PARAM_CHK(NULL == YT_DISPATCH(unit), CMM_ERR_NOT_INIT);
 9811              		.loc 1 1049 5 discriminator 1 view .LVU2781
 9812 0020 1C4B     		ldr	r3, .L1034+4
 9813 0022 1B78     		ldrb	r3, [r3]	@ zero_extendqisi2
 9814 0024 012B     		cmp	r3, #1
 9815 0026 01D8     		bhi	.L1030
 9816              	.LVL1236:
 9817              	.L1017:
1049:../switch_sdk/core/yt/yt_l2.c ****     CMM_PARAM_CHK(NULL == YT_DISPATCH(unit), CMM_ERR_NOT_INIT);
 9818              		.loc 1 1049 5 discriminator 5 view .LVU2782
1049:../switch_sdk/core/yt/yt_l2.c ****     CMM_PARAM_CHK(NULL == YT_DISPATCH(unit), CMM_ERR_NOT_INIT);
 9819              		.loc 1 1049 5 discriminator 5 view .LVU2783
1049:../switch_sdk/core/yt/yt_l2.c ****     CMM_PARAM_CHK(NULL == YT_DISPATCH(unit), CMM_ERR_NOT_INIT);
 9820              		.loc 1 1049 5 discriminator 5 view .LVU2784
 9821 0028 0520     		movs	r0, #5
 9822 002a F8E7     		b	.L1015
 9823              	.LVL1237:
 9824              	.L1030:
1049:../switch_sdk/core/yt/yt_l2.c ****     CMM_PARAM_CHK(NULL == YT_DISPATCH(unit), CMM_ERR_NOT_INIT);
 9825              		.loc 1 1049 5 discriminator 3 view .LVU2785
 9826              	.LBB198:
1049:../switch_sdk/core/yt/yt_l2.c ****     CMM_PARAM_CHK(NULL == YT_DISPATCH(unit), CMM_ERR_NOT_INIT);
 9827              		.loc 1 1049 5 discriminator 3 view .LVU2786
 9828 002c 1A4B     		ldr	r3, .L1034+8
 9829 002e 5A69     		ldr	r2, [r3, #20]
 9830              	.LVL1238:
1049:../switch_sdk/core/yt/yt_l2.c ****     CMM_PARAM_CHK(NULL == YT_DISPATCH(unit), CMM_ERR_NOT_INIT);
 9831              		.loc 1 1049 5 is_stmt 0 discriminator 3 view .LVU2787
 9832 0030 1A4B     		ldr	r3, .L1034+12
 9833 0032 9968     		ldr	r1, [r3, #8]
 9834              	.LVL1239:
1049:../switch_sdk/core/yt/yt_l2.c ****     CMM_PARAM_CHK(NULL == YT_DISPATCH(unit), CMM_ERR_NOT_INIT);
 9835              		.loc 1 1049 5 discriminator 3 view .LVU2788
 9836 0034 1A48     		ldr	r0, .L1034+16
 9837              	.LVL1240:
1049:../switch_sdk/core/yt/yt_l2.c ****     CMM_PARAM_CHK(NULL == YT_DISPATCH(unit), CMM_ERR_NOT_INIT);
 9838              		.loc 1 1049 5 discriminator 3 view .LVU2789
 9839 0036 FFF7FEFF 		bl	osal_printf
 9840              	.LVL1241:
 9841 003a F5E7     		b	.L1017
 9842              	.LVL1242:
 9843              	.L1027:
1049:../switch_sdk/core/yt/yt_l2.c ****     CMM_PARAM_CHK(NULL == YT_DISPATCH(unit), CMM_ERR_NOT_INIT);
 9844              		.loc 1 1049 5 discriminator 3 view .LVU2790
 9845              	.LBE198:
1050:../switch_sdk/core/yt/yt_l2.c ****     CMM_PARAM_CHK((!(YT_DISPATCH(unit)->is_inited)), CMM_ERR_NOT_INIT);
 9846              		.loc 1 1050 5 is_stmt 1 discriminator 1 view .LVU2791
1050:../switch_sdk/core/yt/yt_l2.c ****     CMM_PARAM_CHK((!(YT_DISPATCH(unit)->is_inited)), CMM_ERR_NOT_INIT);
 9847              		.loc 1 1050 5 discriminator 1 view .LVU2792
 9848 003c 154B     		ldr	r3, .L1034+4
 9849 003e 1B78     		ldrb	r3, [r3]	@ zero_extendqisi2
 9850 0040 012B     		cmp	r3, #1
 9851 0042 01D8     		bhi	.L1031
 9852              	.LVL1243:
 9853              	.L1020:
1050:../switch_sdk/core/yt/yt_l2.c ****     CMM_PARAM_CHK((!(YT_DISPATCH(unit)->is_inited)), CMM_ERR_NOT_INIT);
 9854              		.loc 1 1050 5 discriminator 5 view .LVU2793
1050:../switch_sdk/core/yt/yt_l2.c ****     CMM_PARAM_CHK((!(YT_DISPATCH(unit)->is_inited)), CMM_ERR_NOT_INIT);
 9855              		.loc 1 1050 5 discriminator 5 view .LVU2794
1050:../switch_sdk/core/yt/yt_l2.c ****     CMM_PARAM_CHK((!(YT_DISPATCH(unit)->is_inited)), CMM_ERR_NOT_INIT);
 9856              		.loc 1 1050 5 discriminator 5 view .LVU2795
 9857 0044 0420     		movs	r0, #4
 9858 0046 EAE7     		b	.L1015
 9859              	.LVL1244:
 9860              	.L1031:
1050:../switch_sdk/core/yt/yt_l2.c ****     CMM_PARAM_CHK((!(YT_DISPATCH(unit)->is_inited)), CMM_ERR_NOT_INIT);
 9861              		.loc 1 1050 5 discriminator 3 view .LVU2796
 9862              	.LBB199:
1050:../switch_sdk/core/yt/yt_l2.c ****     CMM_PARAM_CHK((!(YT_DISPATCH(unit)->is_inited)), CMM_ERR_NOT_INIT);
 9863              		.loc 1 1050 5 discriminator 3 view .LVU2797
 9864 0048 134B     		ldr	r3, .L1034+8
 9865 004a 1A69     		ldr	r2, [r3, #16]
 9866              	.LVL1245:
1050:../switch_sdk/core/yt/yt_l2.c ****     CMM_PARAM_CHK((!(YT_DISPATCH(unit)->is_inited)), CMM_ERR_NOT_INIT);
 9867              		.loc 1 1050 5 is_stmt 0 discriminator 3 view .LVU2798
 9868 004c 134B     		ldr	r3, .L1034+12
 9869 004e 9968     		ldr	r1, [r3, #8]
 9870              	.LVL1246:
1050:../switch_sdk/core/yt/yt_l2.c ****     CMM_PARAM_CHK((!(YT_DISPATCH(unit)->is_inited)), CMM_ERR_NOT_INIT);
 9871              		.loc 1 1050 5 discriminator 3 view .LVU2799
 9872 0050 1348     		ldr	r0, .L1034+16
 9873              	.LVL1247:
1050:../switch_sdk/core/yt/yt_l2.c ****     CMM_PARAM_CHK((!(YT_DISPATCH(unit)->is_inited)), CMM_ERR_NOT_INIT);
 9874              		.loc 1 1050 5 discriminator 3 view .LVU2800
 9875 0052 FFF7FEFF 		bl	osal_printf
 9876              	.LVL1248:
 9877 0056 F5E7     		b	.L1020
 9878              	.LVL1249:
 9879              	.L1028:
1050:../switch_sdk/core/yt/yt_l2.c ****     CMM_PARAM_CHK((!(YT_DISPATCH(unit)->is_inited)), CMM_ERR_NOT_INIT);
 9880              		.loc 1 1050 5 discriminator 3 view .LVU2801
 9881              	.LBE199:
1051:../switch_sdk/core/yt/yt_l2.c ****     CMM_PARAM_CHK((NULL == pEnable), CMM_ERR_NULL_POINT);
 9882              		.loc 1 1051 5 is_stmt 1 discriminator 1 view .LVU2802
1051:../switch_sdk/core/yt/yt_l2.c ****     CMM_PARAM_CHK((NULL == pEnable), CMM_ERR_NULL_POINT);
 9883              		.loc 1 1051 5 discriminator 1 view .LVU2803
 9884 0058 0E4B     		ldr	r3, .L1034+4
 9885 005a 1B78     		ldrb	r3, [r3]	@ zero_extendqisi2
 9886 005c 012B     		cmp	r3, #1
 9887 005e 01D8     		bhi	.L1032
 9888              	.LVL1250:
 9889              	.L1022:
1051:../switch_sdk/core/yt/yt_l2.c ****     CMM_PARAM_CHK((NULL == pEnable), CMM_ERR_NULL_POINT);
 9890              		.loc 1 1051 5 discriminator 5 view .LVU2804
1051:../switch_sdk/core/yt/yt_l2.c ****     CMM_PARAM_CHK((NULL == pEnable), CMM_ERR_NULL_POINT);
 9891              		.loc 1 1051 5 discriminator 5 view .LVU2805
1051:../switch_sdk/core/yt/yt_l2.c ****     CMM_PARAM_CHK((NULL == pEnable), CMM_ERR_NULL_POINT);
 9892              		.loc 1 1051 5 discriminator 5 view .LVU2806
 9893 0060 0420     		movs	r0, #4
 9894 0062 DCE7     		b	.L1015
 9895              	.LVL1251:
 9896              	.L1032:
1051:../switch_sdk/core/yt/yt_l2.c ****     CMM_PARAM_CHK((NULL == pEnable), CMM_ERR_NULL_POINT);
 9897              		.loc 1 1051 5 discriminator 3 view .LVU2807
 9898              	.LBB200:
1051:../switch_sdk/core/yt/yt_l2.c ****     CMM_PARAM_CHK((NULL == pEnable), CMM_ERR_NULL_POINT);
 9899              		.loc 1 1051 5 discriminator 3 view .LVU2808
 9900 0064 0C4B     		ldr	r3, .L1034+8
 9901 0066 1A69     		ldr	r2, [r3, #16]
 9902              	.LVL1252:
1051:../switch_sdk/core/yt/yt_l2.c ****     CMM_PARAM_CHK((NULL == pEnable), CMM_ERR_NULL_POINT);
 9903              		.loc 1 1051 5 is_stmt 0 discriminator 3 view .LVU2809
 9904 0068 0C4B     		ldr	r3, .L1034+12
 9905 006a 9968     		ldr	r1, [r3, #8]
 9906              	.LVL1253:
1051:../switch_sdk/core/yt/yt_l2.c ****     CMM_PARAM_CHK((NULL == pEnable), CMM_ERR_NULL_POINT);
 9907              		.loc 1 1051 5 discriminator 3 view .LVU2810
 9908 006c 0C48     		ldr	r0, .L1034+16
 9909 006e FFF7FEFF 		bl	osal_printf
 9910              	.LVL1254:
 9911 0072 F5E7     		b	.L1022
 9912              	.LVL1255:
 9913              	.L1029:
1051:../switch_sdk/core/yt/yt_l2.c ****     CMM_PARAM_CHK((NULL == pEnable), CMM_ERR_NULL_POINT);
 9914              		.loc 1 1051 5 discriminator 3 view .LVU2811
 9915              	.LBE200:
1052:../switch_sdk/core/yt/yt_l2.c **** 
 9916              		.loc 1 1052 5 is_stmt 1 discriminator 1 view .LVU2812
1052:../switch_sdk/core/yt/yt_l2.c **** 
 9917              		.loc 1 1052 5 discriminator 1 view .LVU2813
 9918 0074 074B     		ldr	r3, .L1034+4
 9919 0076 1B78     		ldrb	r3, [r3]	@ zero_extendqisi2
 9920 0078 012B     		cmp	r3, #1
 9921 007a 01D8     		bhi	.L1033
 9922              	.LVL1256:
 9923              	.L1024:
1052:../switch_sdk/core/yt/yt_l2.c **** 
 9924              		.loc 1 1052 5 discriminator 5 view .LVU2814
1052:../switch_sdk/core/yt/yt_l2.c **** 
 9925              		.loc 1 1052 5 discriminator 5 view .LVU2815
1052:../switch_sdk/core/yt/yt_l2.c **** 
 9926              		.loc 1 1052 5 discriminator 5 view .LVU2816
 9927 007c 0220     		movs	r0, #2
 9928 007e CEE7     		b	.L1015
 9929              	.LVL1257:
 9930              	.L1033:
1052:../switch_sdk/core/yt/yt_l2.c **** 
 9931              		.loc 1 1052 5 discriminator 3 view .LVU2817
 9932              	.LBB201:
1052:../switch_sdk/core/yt/yt_l2.c **** 
 9933              		.loc 1 1052 5 discriminator 3 view .LVU2818
 9934 0080 054B     		ldr	r3, .L1034+8
 9935 0082 9A68     		ldr	r2, [r3, #8]
 9936              	.LVL1258:
1052:../switch_sdk/core/yt/yt_l2.c **** 
 9937              		.loc 1 1052 5 is_stmt 0 discriminator 3 view .LVU2819
 9938 0084 054B     		ldr	r3, .L1034+12
 9939 0086 9968     		ldr	r1, [r3, #8]
 9940              	.LVL1259:
1052:../switch_sdk/core/yt/yt_l2.c **** 
 9941              		.loc 1 1052 5 discriminator 3 view .LVU2820
 9942 0088 0548     		ldr	r0, .L1034+16
 9943 008a FFF7FEFF 		bl	osal_printf
 9944              	.LVL1260:
 9945 008e F5E7     		b	.L1024
 9946              	.L1035:
 9947              		.align	2
 9948              	.L1034:
 9949 0090 00000000 		.word	gpfal_dispatch
 9950 0094 00000000 		.word	yt_debug_level
 9951 0098 00000000 		.word	_yt_errmsg
 9952 009c 00000000 		.word	_yt_prompt_msg
 9953 00a0 00000000 		.word	.LC0
 9954              	.LBE201:
 9955              		.cfi_endproc
 9956              	.LFE49:
 9958              		.section	.text.yt_l2_lag_learnlimit_cnt_set,"ax",%progbits
 9959              		.align	1
 9960              		.global	yt_l2_lag_learnlimit_cnt_set
 9961              		.syntax unified
 9962              		.thumb
 9963              		.thumb_func
 9965              	yt_l2_lag_learnlimit_cnt_set:
 9966              	.LVL1261:
 9967              	.LFB50:
1056:../switch_sdk/core/yt/yt_l2.c **** 
1057:../switch_sdk/core/yt/yt_l2.c **** /**
1058:../switch_sdk/core/yt/yt_l2.c ****  * @internal      yt_l2_lag_learnlimit_cnt_set
1059:../switch_sdk/core/yt/yt_l2.c ****  * @endinternal
1060:../switch_sdk/core/yt/yt_l2.c ****  *
1061:../switch_sdk/core/yt/yt_l2.c ****  * @brief         Description
1062:../switch_sdk/core/yt/yt_l2.c ****  * @note          APPLICABLE DEVICES  -Tiger
1063:../switch_sdk/core/yt/yt_l2.c ****  * @param[in]     unit                -unit id
1064:../switch_sdk/core/yt/yt_l2.c ****  * @param[in]     groupid             -x
1065:../switch_sdk/core/yt/yt_l2.c ****  * @param[in]     maxcnt              -x
1066:../switch_sdk/core/yt/yt_l2.c ****  * @retval        CMM_ERR_OK          -on success
1067:../switch_sdk/core/yt/yt_l2.c ****  * @retval        CMM_ERR_FAIL        -on fail
1068:../switch_sdk/core/yt/yt_l2.c ****  */
1069:../switch_sdk/core/yt/yt_l2.c **** yt_ret_t  yt_l2_lag_learnlimit_cnt_set(yt_unit_t unit, uint8_t groupid,  uint32_t maxcnt)
1070:../switch_sdk/core/yt/yt_l2.c **** {
 9968              		.loc 1 1070 1 is_stmt 1 view -0
 9969              		.cfi_startproc
 9970              		@ args = 0, pretend = 0, frame = 0
 9971              		@ frame_needed = 0, uses_anonymous_args = 0
 9972              		.loc 1 1070 1 is_stmt 0 view .LVU2822
 9973 0000 08B5     		push	{r3, lr}
 9974              		.cfi_def_cfa_offset 8
 9975              		.cfi_offset 3, -8
 9976              		.cfi_offset 14, -4
1071:../switch_sdk/core/yt/yt_l2.c ****     CMM_PARAM_CHK((YT_UNIT_NUM <= unit), CMM_ERR_INPUT);
 9977              		.loc 1 1071 5 is_stmt 1 view .LVU2823
 9978              		.loc 1 1071 5 view .LVU2824
 9979 0002 58B9     		cbnz	r0, .L1045
 9980 0004 8446     		mov	ip, r0
 9981              		.loc 1 1071 5 discriminator 2 view .LVU2825
1072:../switch_sdk/core/yt/yt_l2.c ****     CMM_PARAM_CHK(NULL == YT_DISPATCH(unit), CMM_ERR_NOT_INIT);
 9982              		.loc 1 1072 5 discriminator 2 view .LVU2826
 9983              		.loc 1 1072 5 discriminator 2 view .LVU2827
 9984 0006 1A4B     		ldr	r3, .L1051
 9985 0008 53F82030 		ldr	r3, [r3, r0, lsl #2]
 9986 000c A3B1     		cbz	r3, .L1046
 9987              		.loc 1 1072 5 discriminator 2 view .LVU2828
1073:../switch_sdk/core/yt/yt_l2.c ****     CMM_PARAM_CHK((!(YT_DISPATCH(unit)->is_inited)), CMM_ERR_NOT_INIT);
 9988              		.loc 1 1073 5 discriminator 2 view .LVU2829
 9989              		.loc 1 1073 5 discriminator 2 view .LVU2830
 9990 000e 1878     		ldrb	r0, [r3]	@ zero_extendqisi2
 9991              	.LVL1262:
 9992              		.loc 1 1073 5 is_stmt 0 discriminator 2 view .LVU2831
 9993 0010 00B3     		cbz	r0, .L1047
 9994              		.loc 1 1073 5 is_stmt 1 discriminator 2 view .LVU2832
1074:../switch_sdk/core/yt/yt_l2.c **** 
1075:../switch_sdk/core/yt/yt_l2.c ****     return YT_DISPATCH(unit)->l2_lag_learnlimit_cnt_set(unit, groupid, maxcnt);
 9995              		.loc 1 1075 5 discriminator 2 view .LVU2833
 9996              		.loc 1 1075 29 is_stmt 0 discriminator 2 view .LVU2834
 9997 0012 D3F8B433 		ldr	r3, [r3, #948]
 9998              		.loc 1 1075 12 discriminator 2 view .LVU2835
 9999 0016 6046     		mov	r0, ip
 10000 0018 9847     		blx	r3
 10001              	.LVL1263:
 10002              	.L1036:
1076:../switch_sdk/core/yt/yt_l2.c **** }
 10003              		.loc 1 1076 1 view .LVU2836
 10004 001a 08BD     		pop	{r3, pc}
 10005              	.LVL1264:
 10006              	.L1045:
1071:../switch_sdk/core/yt/yt_l2.c ****     CMM_PARAM_CHK(NULL == YT_DISPATCH(unit), CMM_ERR_NOT_INIT);
 10007              		.loc 1 1071 5 is_stmt 1 discriminator 1 view .LVU2837
1071:../switch_sdk/core/yt/yt_l2.c ****     CMM_PARAM_CHK(NULL == YT_DISPATCH(unit), CMM_ERR_NOT_INIT);
 10008              		.loc 1 1071 5 discriminator 1 view .LVU2838
 10009 001c 154B     		ldr	r3, .L1051+4
 10010 001e 1B78     		ldrb	r3, [r3]	@ zero_extendqisi2
 10011 0020 012B     		cmp	r3, #1
 10012 0022 01D8     		bhi	.L1048
 10013              	.LVL1265:
 10014              	.L1038:
1071:../switch_sdk/core/yt/yt_l2.c ****     CMM_PARAM_CHK(NULL == YT_DISPATCH(unit), CMM_ERR_NOT_INIT);
 10015              		.loc 1 1071 5 discriminator 5 view .LVU2839
1071:../switch_sdk/core/yt/yt_l2.c ****     CMM_PARAM_CHK(NULL == YT_DISPATCH(unit), CMM_ERR_NOT_INIT);
 10016              		.loc 1 1071 5 discriminator 5 view .LVU2840
1071:../switch_sdk/core/yt/yt_l2.c ****     CMM_PARAM_CHK(NULL == YT_DISPATCH(unit), CMM_ERR_NOT_INIT);
 10017              		.loc 1 1071 5 discriminator 5 view .LVU2841
 10018 0024 0520     		movs	r0, #5
 10019 0026 F8E7     		b	.L1036
 10020              	.LVL1266:
 10021              	.L1048:
1071:../switch_sdk/core/yt/yt_l2.c ****     CMM_PARAM_CHK(NULL == YT_DISPATCH(unit), CMM_ERR_NOT_INIT);
 10022              		.loc 1 1071 5 discriminator 3 view .LVU2842
 10023              	.LBB202:
1071:../switch_sdk/core/yt/yt_l2.c ****     CMM_PARAM_CHK(NULL == YT_DISPATCH(unit), CMM_ERR_NOT_INIT);
 10024              		.loc 1 1071 5 discriminator 3 view .LVU2843
 10025 0028 134B     		ldr	r3, .L1051+8
 10026 002a 5A69     		ldr	r2, [r3, #20]
 10027              	.LVL1267:
1071:../switch_sdk/core/yt/yt_l2.c ****     CMM_PARAM_CHK(NULL == YT_DISPATCH(unit), CMM_ERR_NOT_INIT);
 10028              		.loc 1 1071 5 is_stmt 0 discriminator 3 view .LVU2844
 10029 002c 134B     		ldr	r3, .L1051+12
 10030 002e 9968     		ldr	r1, [r3, #8]
 10031              	.LVL1268:
1071:../switch_sdk/core/yt/yt_l2.c ****     CMM_PARAM_CHK(NULL == YT_DISPATCH(unit), CMM_ERR_NOT_INIT);
 10032              		.loc 1 1071 5 discriminator 3 view .LVU2845
 10033 0030 1348     		ldr	r0, .L1051+16
 10034              	.LVL1269:
1071:../switch_sdk/core/yt/yt_l2.c ****     CMM_PARAM_CHK(NULL == YT_DISPATCH(unit), CMM_ERR_NOT_INIT);
 10035              		.loc 1 1071 5 discriminator 3 view .LVU2846
 10036 0032 FFF7FEFF 		bl	osal_printf
 10037              	.LVL1270:
 10038 0036 F5E7     		b	.L1038
 10039              	.LVL1271:
 10040              	.L1046:
1071:../switch_sdk/core/yt/yt_l2.c ****     CMM_PARAM_CHK(NULL == YT_DISPATCH(unit), CMM_ERR_NOT_INIT);
 10041              		.loc 1 1071 5 discriminator 3 view .LVU2847
 10042              	.LBE202:
1072:../switch_sdk/core/yt/yt_l2.c ****     CMM_PARAM_CHK((!(YT_DISPATCH(unit)->is_inited)), CMM_ERR_NOT_INIT);
 10043              		.loc 1 1072 5 is_stmt 1 discriminator 1 view .LVU2848
1072:../switch_sdk/core/yt/yt_l2.c ****     CMM_PARAM_CHK((!(YT_DISPATCH(unit)->is_inited)), CMM_ERR_NOT_INIT);
 10044              		.loc 1 1072 5 discriminator 1 view .LVU2849
 10045 0038 0E4B     		ldr	r3, .L1051+4
 10046 003a 1B78     		ldrb	r3, [r3]	@ zero_extendqisi2
 10047 003c 012B     		cmp	r3, #1
 10048 003e 01D8     		bhi	.L1049
 10049              	.LVL1272:
 10050              	.L1041:
1072:../switch_sdk/core/yt/yt_l2.c ****     CMM_PARAM_CHK((!(YT_DISPATCH(unit)->is_inited)), CMM_ERR_NOT_INIT);
 10051              		.loc 1 1072 5 discriminator 5 view .LVU2850
1072:../switch_sdk/core/yt/yt_l2.c ****     CMM_PARAM_CHK((!(YT_DISPATCH(unit)->is_inited)), CMM_ERR_NOT_INIT);
 10052              		.loc 1 1072 5 discriminator 5 view .LVU2851
1072:../switch_sdk/core/yt/yt_l2.c ****     CMM_PARAM_CHK((!(YT_DISPATCH(unit)->is_inited)), CMM_ERR_NOT_INIT);
 10053              		.loc 1 1072 5 discriminator 5 view .LVU2852
 10054 0040 0420     		movs	r0, #4
 10055 0042 EAE7     		b	.L1036
 10056              	.LVL1273:
 10057              	.L1049:
1072:../switch_sdk/core/yt/yt_l2.c ****     CMM_PARAM_CHK((!(YT_DISPATCH(unit)->is_inited)), CMM_ERR_NOT_INIT);
 10058              		.loc 1 1072 5 discriminator 3 view .LVU2853
 10059              	.LBB203:
1072:../switch_sdk/core/yt/yt_l2.c ****     CMM_PARAM_CHK((!(YT_DISPATCH(unit)->is_inited)), CMM_ERR_NOT_INIT);
 10060              		.loc 1 1072 5 discriminator 3 view .LVU2854
 10061 0044 0C4B     		ldr	r3, .L1051+8
 10062 0046 1A69     		ldr	r2, [r3, #16]
 10063              	.LVL1274:
1072:../switch_sdk/core/yt/yt_l2.c ****     CMM_PARAM_CHK((!(YT_DISPATCH(unit)->is_inited)), CMM_ERR_NOT_INIT);
 10064              		.loc 1 1072 5 is_stmt 0 discriminator 3 view .LVU2855
 10065 0048 0C4B     		ldr	r3, .L1051+12
 10066 004a 9968     		ldr	r1, [r3, #8]
 10067              	.LVL1275:
1072:../switch_sdk/core/yt/yt_l2.c ****     CMM_PARAM_CHK((!(YT_DISPATCH(unit)->is_inited)), CMM_ERR_NOT_INIT);
 10068              		.loc 1 1072 5 discriminator 3 view .LVU2856
 10069 004c 0C48     		ldr	r0, .L1051+16
 10070              	.LVL1276:
1072:../switch_sdk/core/yt/yt_l2.c ****     CMM_PARAM_CHK((!(YT_DISPATCH(unit)->is_inited)), CMM_ERR_NOT_INIT);
 10071              		.loc 1 1072 5 discriminator 3 view .LVU2857
 10072 004e FFF7FEFF 		bl	osal_printf
 10073              	.LVL1277:
 10074 0052 F5E7     		b	.L1041
 10075              	.LVL1278:
 10076              	.L1047:
1072:../switch_sdk/core/yt/yt_l2.c ****     CMM_PARAM_CHK((!(YT_DISPATCH(unit)->is_inited)), CMM_ERR_NOT_INIT);
 10077              		.loc 1 1072 5 discriminator 3 view .LVU2858
 10078              	.LBE203:
1073:../switch_sdk/core/yt/yt_l2.c **** 
 10079              		.loc 1 1073 5 is_stmt 1 discriminator 1 view .LVU2859
1073:../switch_sdk/core/yt/yt_l2.c **** 
 10080              		.loc 1 1073 5 discriminator 1 view .LVU2860
 10081 0054 074B     		ldr	r3, .L1051+4
 10082 0056 1B78     		ldrb	r3, [r3]	@ zero_extendqisi2
 10083 0058 012B     		cmp	r3, #1
 10084 005a 01D8     		bhi	.L1050
 10085              	.LVL1279:
 10086              	.L1043:
1073:../switch_sdk/core/yt/yt_l2.c **** 
 10087              		.loc 1 1073 5 discriminator 5 view .LVU2861
1073:../switch_sdk/core/yt/yt_l2.c **** 
 10088              		.loc 1 1073 5 discriminator 5 view .LVU2862
1073:../switch_sdk/core/yt/yt_l2.c **** 
 10089              		.loc 1 1073 5 discriminator 5 view .LVU2863
 10090 005c 0420     		movs	r0, #4
 10091 005e DCE7     		b	.L1036
 10092              	.LVL1280:
 10093              	.L1050:
1073:../switch_sdk/core/yt/yt_l2.c **** 
 10094              		.loc 1 1073 5 discriminator 3 view .LVU2864
 10095              	.LBB204:
1073:../switch_sdk/core/yt/yt_l2.c **** 
 10096              		.loc 1 1073 5 discriminator 3 view .LVU2865
 10097 0060 054B     		ldr	r3, .L1051+8
 10098 0062 1A69     		ldr	r2, [r3, #16]
 10099              	.LVL1281:
1073:../switch_sdk/core/yt/yt_l2.c **** 
 10100              		.loc 1 1073 5 is_stmt 0 discriminator 3 view .LVU2866
 10101 0064 054B     		ldr	r3, .L1051+12
 10102 0066 9968     		ldr	r1, [r3, #8]
 10103              	.LVL1282:
1073:../switch_sdk/core/yt/yt_l2.c **** 
 10104              		.loc 1 1073 5 discriminator 3 view .LVU2867
 10105 0068 0548     		ldr	r0, .L1051+16
 10106 006a FFF7FEFF 		bl	osal_printf
 10107              	.LVL1283:
 10108 006e F5E7     		b	.L1043
 10109              	.L1052:
 10110              		.align	2
 10111              	.L1051:
 10112 0070 00000000 		.word	gpfal_dispatch
 10113 0074 00000000 		.word	yt_debug_level
 10114 0078 00000000 		.word	_yt_errmsg
 10115 007c 00000000 		.word	_yt_prompt_msg
 10116 0080 00000000 		.word	.LC0
 10117              	.LBE204:
 10118              		.cfi_endproc
 10119              	.LFE50:
 10121              		.section	.text.yt_l2_lag_learnlimit_cnt_get,"ax",%progbits
 10122              		.align	1
 10123              		.global	yt_l2_lag_learnlimit_cnt_get
 10124              		.syntax unified
 10125              		.thumb
 10126              		.thumb_func
 10128              	yt_l2_lag_learnlimit_cnt_get:
 10129              	.LVL1284:
 10130              	.LFB51:
1077:../switch_sdk/core/yt/yt_l2.c **** 
1078:../switch_sdk/core/yt/yt_l2.c **** /**
1079:../switch_sdk/core/yt/yt_l2.c ****  * @internal      yt_l2_lag_learnlimit_cnt_get
1080:../switch_sdk/core/yt/yt_l2.c ****  * @endinternal
1081:../switch_sdk/core/yt/yt_l2.c ****  *
1082:../switch_sdk/core/yt/yt_l2.c ****  * @brief         Description
1083:../switch_sdk/core/yt/yt_l2.c ****  * @note          APPLICABLE DEVICES  -Tiger
1084:../switch_sdk/core/yt/yt_l2.c ****  * @param[in]     unit                -unit id
1085:../switch_sdk/core/yt/yt_l2.c ****  * @param[in]     groupid             -x
1086:../switch_sdk/core/yt/yt_l2.c ****  * @param[out]    pmaxcnt             -x
1087:../switch_sdk/core/yt/yt_l2.c ****  * @retval        CMM_ERR_OK          -on success
1088:../switch_sdk/core/yt/yt_l2.c ****  * @retval        CMM_ERR_FAIL        -on fail
1089:../switch_sdk/core/yt/yt_l2.c ****  */
1090:../switch_sdk/core/yt/yt_l2.c **** yt_ret_t  yt_l2_lag_learnlimit_cnt_get(yt_unit_t unit, uint8_t groupid,  uint32_t *pmaxcnt)
1091:../switch_sdk/core/yt/yt_l2.c **** {
 10131              		.loc 1 1091 1 is_stmt 1 view -0
 10132              		.cfi_startproc
 10133              		@ args = 0, pretend = 0, frame = 0
 10134              		@ frame_needed = 0, uses_anonymous_args = 0
 10135              		.loc 1 1091 1 is_stmt 0 view .LVU2869
 10136 0000 08B5     		push	{r3, lr}
 10137              		.cfi_def_cfa_offset 8
 10138              		.cfi_offset 3, -8
 10139              		.cfi_offset 14, -4
1092:../switch_sdk/core/yt/yt_l2.c ****     CMM_PARAM_CHK((YT_UNIT_NUM <= unit), CMM_ERR_INPUT);
 10140              		.loc 1 1092 5 is_stmt 1 view .LVU2870
 10141              		.loc 1 1092 5 view .LVU2871
 10142 0002 68B9     		cbnz	r0, .L1064
 10143 0004 8446     		mov	ip, r0
 10144              		.loc 1 1092 5 discriminator 2 view .LVU2872
1093:../switch_sdk/core/yt/yt_l2.c ****     CMM_PARAM_CHK(NULL == YT_DISPATCH(unit), CMM_ERR_NOT_INIT);
 10145              		.loc 1 1093 5 discriminator 2 view .LVU2873
 10146              		.loc 1 1093 5 discriminator 2 view .LVU2874
 10147 0006 224B     		ldr	r3, .L1072
 10148 0008 53F82030 		ldr	r3, [r3, r0, lsl #2]
 10149 000c B3B1     		cbz	r3, .L1065
 10150              		.loc 1 1093 5 discriminator 2 view .LVU2875
1094:../switch_sdk/core/yt/yt_l2.c ****     CMM_PARAM_CHK((!(YT_DISPATCH(unit)->is_inited)), CMM_ERR_NOT_INIT);
 10151              		.loc 1 1094 5 discriminator 2 view .LVU2876
 10152              		.loc 1 1094 5 discriminator 2 view .LVU2877
 10153 000e 1878     		ldrb	r0, [r3]	@ zero_extendqisi2
 10154              	.LVL1285:
 10155              		.loc 1 1094 5 is_stmt 0 discriminator 2 view .LVU2878
 10156 0010 10B3     		cbz	r0, .L1066
 10157              		.loc 1 1094 5 is_stmt 1 discriminator 2 view .LVU2879
1095:../switch_sdk/core/yt/yt_l2.c ****     CMM_PARAM_CHK((NULL == pmaxcnt), CMM_ERR_NULL_POINT);
 10158              		.loc 1 1095 5 discriminator 2 view .LVU2880
 10159              		.loc 1 1095 5 discriminator 2 view .LVU2881
 10160 0012 002A     		cmp	r2, #0
 10161 0014 2ED0     		beq	.L1067
 10162              		.loc 1 1095 5 discriminator 2 view .LVU2882
1096:../switch_sdk/core/yt/yt_l2.c **** 
1097:../switch_sdk/core/yt/yt_l2.c ****     return YT_DISPATCH(unit)->l2_lag_learnlimit_cnt_get(unit, groupid, pmaxcnt);
 10163              		.loc 1 1097 5 discriminator 2 view .LVU2883
 10164              		.loc 1 1097 29 is_stmt 0 discriminator 2 view .LVU2884
 10165 0016 D3F8B833 		ldr	r3, [r3, #952]
 10166              		.loc 1 1097 12 discriminator 2 view .LVU2885
 10167 001a 6046     		mov	r0, ip
 10168 001c 9847     		blx	r3
 10169              	.LVL1286:
 10170              	.L1053:
1098:../switch_sdk/core/yt/yt_l2.c **** }
 10171              		.loc 1 1098 1 view .LVU2886
 10172 001e 08BD     		pop	{r3, pc}
 10173              	.LVL1287:
 10174              	.L1064:
1092:../switch_sdk/core/yt/yt_l2.c ****     CMM_PARAM_CHK(NULL == YT_DISPATCH(unit), CMM_ERR_NOT_INIT);
 10175              		.loc 1 1092 5 is_stmt 1 discriminator 1 view .LVU2887
1092:../switch_sdk/core/yt/yt_l2.c ****     CMM_PARAM_CHK(NULL == YT_DISPATCH(unit), CMM_ERR_NOT_INIT);
 10176              		.loc 1 1092 5 discriminator 1 view .LVU2888
 10177 0020 1C4B     		ldr	r3, .L1072+4
 10178 0022 1B78     		ldrb	r3, [r3]	@ zero_extendqisi2
 10179 0024 012B     		cmp	r3, #1
 10180 0026 01D8     		bhi	.L1068
 10181              	.LVL1288:
 10182              	.L1055:
1092:../switch_sdk/core/yt/yt_l2.c ****     CMM_PARAM_CHK(NULL == YT_DISPATCH(unit), CMM_ERR_NOT_INIT);
 10183              		.loc 1 1092 5 discriminator 5 view .LVU2889
1092:../switch_sdk/core/yt/yt_l2.c ****     CMM_PARAM_CHK(NULL == YT_DISPATCH(unit), CMM_ERR_NOT_INIT);
 10184              		.loc 1 1092 5 discriminator 5 view .LVU2890
1092:../switch_sdk/core/yt/yt_l2.c ****     CMM_PARAM_CHK(NULL == YT_DISPATCH(unit), CMM_ERR_NOT_INIT);
 10185              		.loc 1 1092 5 discriminator 5 view .LVU2891
 10186 0028 0520     		movs	r0, #5
 10187 002a F8E7     		b	.L1053
 10188              	.LVL1289:
 10189              	.L1068:
1092:../switch_sdk/core/yt/yt_l2.c ****     CMM_PARAM_CHK(NULL == YT_DISPATCH(unit), CMM_ERR_NOT_INIT);
 10190              		.loc 1 1092 5 discriminator 3 view .LVU2892
 10191              	.LBB205:
1092:../switch_sdk/core/yt/yt_l2.c ****     CMM_PARAM_CHK(NULL == YT_DISPATCH(unit), CMM_ERR_NOT_INIT);
 10192              		.loc 1 1092 5 discriminator 3 view .LVU2893
 10193 002c 1A4B     		ldr	r3, .L1072+8
 10194 002e 5A69     		ldr	r2, [r3, #20]
 10195              	.LVL1290:
1092:../switch_sdk/core/yt/yt_l2.c ****     CMM_PARAM_CHK(NULL == YT_DISPATCH(unit), CMM_ERR_NOT_INIT);
 10196              		.loc 1 1092 5 is_stmt 0 discriminator 3 view .LVU2894
 10197 0030 1A4B     		ldr	r3, .L1072+12
 10198 0032 9968     		ldr	r1, [r3, #8]
 10199              	.LVL1291:
1092:../switch_sdk/core/yt/yt_l2.c ****     CMM_PARAM_CHK(NULL == YT_DISPATCH(unit), CMM_ERR_NOT_INIT);
 10200              		.loc 1 1092 5 discriminator 3 view .LVU2895
 10201 0034 1A48     		ldr	r0, .L1072+16
 10202              	.LVL1292:
1092:../switch_sdk/core/yt/yt_l2.c ****     CMM_PARAM_CHK(NULL == YT_DISPATCH(unit), CMM_ERR_NOT_INIT);
 10203              		.loc 1 1092 5 discriminator 3 view .LVU2896
 10204 0036 FFF7FEFF 		bl	osal_printf
 10205              	.LVL1293:
 10206 003a F5E7     		b	.L1055
 10207              	.LVL1294:
 10208              	.L1065:
1092:../switch_sdk/core/yt/yt_l2.c ****     CMM_PARAM_CHK(NULL == YT_DISPATCH(unit), CMM_ERR_NOT_INIT);
 10209              		.loc 1 1092 5 discriminator 3 view .LVU2897
 10210              	.LBE205:
1093:../switch_sdk/core/yt/yt_l2.c ****     CMM_PARAM_CHK((!(YT_DISPATCH(unit)->is_inited)), CMM_ERR_NOT_INIT);
 10211              		.loc 1 1093 5 is_stmt 1 discriminator 1 view .LVU2898
1093:../switch_sdk/core/yt/yt_l2.c ****     CMM_PARAM_CHK((!(YT_DISPATCH(unit)->is_inited)), CMM_ERR_NOT_INIT);
 10212              		.loc 1 1093 5 discriminator 1 view .LVU2899
 10213 003c 154B     		ldr	r3, .L1072+4
 10214 003e 1B78     		ldrb	r3, [r3]	@ zero_extendqisi2
 10215 0040 012B     		cmp	r3, #1
 10216 0042 01D8     		bhi	.L1069
 10217              	.LVL1295:
 10218              	.L1058:
1093:../switch_sdk/core/yt/yt_l2.c ****     CMM_PARAM_CHK((!(YT_DISPATCH(unit)->is_inited)), CMM_ERR_NOT_INIT);
 10219              		.loc 1 1093 5 discriminator 5 view .LVU2900
1093:../switch_sdk/core/yt/yt_l2.c ****     CMM_PARAM_CHK((!(YT_DISPATCH(unit)->is_inited)), CMM_ERR_NOT_INIT);
 10220              		.loc 1 1093 5 discriminator 5 view .LVU2901
1093:../switch_sdk/core/yt/yt_l2.c ****     CMM_PARAM_CHK((!(YT_DISPATCH(unit)->is_inited)), CMM_ERR_NOT_INIT);
 10221              		.loc 1 1093 5 discriminator 5 view .LVU2902
 10222 0044 0420     		movs	r0, #4
 10223 0046 EAE7     		b	.L1053
 10224              	.LVL1296:
 10225              	.L1069:
1093:../switch_sdk/core/yt/yt_l2.c ****     CMM_PARAM_CHK((!(YT_DISPATCH(unit)->is_inited)), CMM_ERR_NOT_INIT);
 10226              		.loc 1 1093 5 discriminator 3 view .LVU2903
 10227              	.LBB206:
1093:../switch_sdk/core/yt/yt_l2.c ****     CMM_PARAM_CHK((!(YT_DISPATCH(unit)->is_inited)), CMM_ERR_NOT_INIT);
 10228              		.loc 1 1093 5 discriminator 3 view .LVU2904
 10229 0048 134B     		ldr	r3, .L1072+8
 10230 004a 1A69     		ldr	r2, [r3, #16]
 10231              	.LVL1297:
1093:../switch_sdk/core/yt/yt_l2.c ****     CMM_PARAM_CHK((!(YT_DISPATCH(unit)->is_inited)), CMM_ERR_NOT_INIT);
 10232              		.loc 1 1093 5 is_stmt 0 discriminator 3 view .LVU2905
 10233 004c 134B     		ldr	r3, .L1072+12
 10234 004e 9968     		ldr	r1, [r3, #8]
 10235              	.LVL1298:
1093:../switch_sdk/core/yt/yt_l2.c ****     CMM_PARAM_CHK((!(YT_DISPATCH(unit)->is_inited)), CMM_ERR_NOT_INIT);
 10236              		.loc 1 1093 5 discriminator 3 view .LVU2906
 10237 0050 1348     		ldr	r0, .L1072+16
 10238              	.LVL1299:
1093:../switch_sdk/core/yt/yt_l2.c ****     CMM_PARAM_CHK((!(YT_DISPATCH(unit)->is_inited)), CMM_ERR_NOT_INIT);
 10239              		.loc 1 1093 5 discriminator 3 view .LVU2907
 10240 0052 FFF7FEFF 		bl	osal_printf
 10241              	.LVL1300:
 10242 0056 F5E7     		b	.L1058
 10243              	.LVL1301:
 10244              	.L1066:
1093:../switch_sdk/core/yt/yt_l2.c ****     CMM_PARAM_CHK((!(YT_DISPATCH(unit)->is_inited)), CMM_ERR_NOT_INIT);
 10245              		.loc 1 1093 5 discriminator 3 view .LVU2908
 10246              	.LBE206:
1094:../switch_sdk/core/yt/yt_l2.c ****     CMM_PARAM_CHK((NULL == pmaxcnt), CMM_ERR_NULL_POINT);
 10247              		.loc 1 1094 5 is_stmt 1 discriminator 1 view .LVU2909
1094:../switch_sdk/core/yt/yt_l2.c ****     CMM_PARAM_CHK((NULL == pmaxcnt), CMM_ERR_NULL_POINT);
 10248              		.loc 1 1094 5 discriminator 1 view .LVU2910
 10249 0058 0E4B     		ldr	r3, .L1072+4
 10250 005a 1B78     		ldrb	r3, [r3]	@ zero_extendqisi2
 10251 005c 012B     		cmp	r3, #1
 10252 005e 01D8     		bhi	.L1070
 10253              	.LVL1302:
 10254              	.L1060:
1094:../switch_sdk/core/yt/yt_l2.c ****     CMM_PARAM_CHK((NULL == pmaxcnt), CMM_ERR_NULL_POINT);
 10255              		.loc 1 1094 5 discriminator 5 view .LVU2911
1094:../switch_sdk/core/yt/yt_l2.c ****     CMM_PARAM_CHK((NULL == pmaxcnt), CMM_ERR_NULL_POINT);
 10256              		.loc 1 1094 5 discriminator 5 view .LVU2912
1094:../switch_sdk/core/yt/yt_l2.c ****     CMM_PARAM_CHK((NULL == pmaxcnt), CMM_ERR_NULL_POINT);
 10257              		.loc 1 1094 5 discriminator 5 view .LVU2913
 10258 0060 0420     		movs	r0, #4
 10259 0062 DCE7     		b	.L1053
 10260              	.LVL1303:
 10261              	.L1070:
1094:../switch_sdk/core/yt/yt_l2.c ****     CMM_PARAM_CHK((NULL == pmaxcnt), CMM_ERR_NULL_POINT);
 10262              		.loc 1 1094 5 discriminator 3 view .LVU2914
 10263              	.LBB207:
1094:../switch_sdk/core/yt/yt_l2.c ****     CMM_PARAM_CHK((NULL == pmaxcnt), CMM_ERR_NULL_POINT);
 10264              		.loc 1 1094 5 discriminator 3 view .LVU2915
 10265 0064 0C4B     		ldr	r3, .L1072+8
 10266 0066 1A69     		ldr	r2, [r3, #16]
 10267              	.LVL1304:
1094:../switch_sdk/core/yt/yt_l2.c ****     CMM_PARAM_CHK((NULL == pmaxcnt), CMM_ERR_NULL_POINT);
 10268              		.loc 1 1094 5 is_stmt 0 discriminator 3 view .LVU2916
 10269 0068 0C4B     		ldr	r3, .L1072+12
 10270 006a 9968     		ldr	r1, [r3, #8]
 10271              	.LVL1305:
1094:../switch_sdk/core/yt/yt_l2.c ****     CMM_PARAM_CHK((NULL == pmaxcnt), CMM_ERR_NULL_POINT);
 10272              		.loc 1 1094 5 discriminator 3 view .LVU2917
 10273 006c 0C48     		ldr	r0, .L1072+16
 10274 006e FFF7FEFF 		bl	osal_printf
 10275              	.LVL1306:
 10276 0072 F5E7     		b	.L1060
 10277              	.LVL1307:
 10278              	.L1067:
1094:../switch_sdk/core/yt/yt_l2.c ****     CMM_PARAM_CHK((NULL == pmaxcnt), CMM_ERR_NULL_POINT);
 10279              		.loc 1 1094 5 discriminator 3 view .LVU2918
 10280              	.LBE207:
1095:../switch_sdk/core/yt/yt_l2.c **** 
 10281              		.loc 1 1095 5 is_stmt 1 discriminator 1 view .LVU2919
1095:../switch_sdk/core/yt/yt_l2.c **** 
 10282              		.loc 1 1095 5 discriminator 1 view .LVU2920
 10283 0074 074B     		ldr	r3, .L1072+4
 10284 0076 1B78     		ldrb	r3, [r3]	@ zero_extendqisi2
 10285 0078 012B     		cmp	r3, #1
 10286 007a 01D8     		bhi	.L1071
 10287              	.LVL1308:
 10288              	.L1062:
1095:../switch_sdk/core/yt/yt_l2.c **** 
 10289              		.loc 1 1095 5 discriminator 5 view .LVU2921
1095:../switch_sdk/core/yt/yt_l2.c **** 
 10290              		.loc 1 1095 5 discriminator 5 view .LVU2922
1095:../switch_sdk/core/yt/yt_l2.c **** 
 10291              		.loc 1 1095 5 discriminator 5 view .LVU2923
 10292 007c 0220     		movs	r0, #2
 10293 007e CEE7     		b	.L1053
 10294              	.LVL1309:
 10295              	.L1071:
1095:../switch_sdk/core/yt/yt_l2.c **** 
 10296              		.loc 1 1095 5 discriminator 3 view .LVU2924
 10297              	.LBB208:
1095:../switch_sdk/core/yt/yt_l2.c **** 
 10298              		.loc 1 1095 5 discriminator 3 view .LVU2925
 10299 0080 054B     		ldr	r3, .L1072+8
 10300 0082 9A68     		ldr	r2, [r3, #8]
 10301              	.LVL1310:
1095:../switch_sdk/core/yt/yt_l2.c **** 
 10302              		.loc 1 1095 5 is_stmt 0 discriminator 3 view .LVU2926
 10303 0084 054B     		ldr	r3, .L1072+12
 10304 0086 9968     		ldr	r1, [r3, #8]
 10305              	.LVL1311:
1095:../switch_sdk/core/yt/yt_l2.c **** 
 10306              		.loc 1 1095 5 discriminator 3 view .LVU2927
 10307 0088 0548     		ldr	r0, .L1072+16
 10308 008a FFF7FEFF 		bl	osal_printf
 10309              	.LVL1312:
 10310 008e F5E7     		b	.L1062
 10311              	.L1073:
 10312              		.align	2
 10313              	.L1072:
 10314 0090 00000000 		.word	gpfal_dispatch
 10315 0094 00000000 		.word	yt_debug_level
 10316 0098 00000000 		.word	_yt_errmsg
 10317 009c 00000000 		.word	_yt_prompt_msg
 10318 00a0 00000000 		.word	.LC0
 10319              	.LBE208:
 10320              		.cfi_endproc
 10321              	.LFE51:
 10323              		.section	.text.yt_l2_lag_learnlimit_exceed_drop_set,"ax",%progbits
 10324              		.align	1
 10325              		.global	yt_l2_lag_learnlimit_exceed_drop_set
 10326              		.syntax unified
 10327              		.thumb
 10328              		.thumb_func
 10330              	yt_l2_lag_learnlimit_exceed_drop_set:
 10331              	.LVL1313:
 10332              	.LFB52:
1099:../switch_sdk/core/yt/yt_l2.c **** 
1100:../switch_sdk/core/yt/yt_l2.c **** /**
1101:../switch_sdk/core/yt/yt_l2.c ****  * @internal      yt_l2_lag_learnlimit_exceed_drop_set
1102:../switch_sdk/core/yt/yt_l2.c ****  * @endinternal
1103:../switch_sdk/core/yt/yt_l2.c ****  *
1104:../switch_sdk/core/yt/yt_l2.c ****  * @brief         Description
1105:../switch_sdk/core/yt/yt_l2.c ****  * @note          APPLICABLE DEVICES  -Tiger
1106:../switch_sdk/core/yt/yt_l2.c ****  * @param[in]     unit                -unit id
1107:../switch_sdk/core/yt/yt_l2.c ****  * @param[in]     groupid             -x
1108:../switch_sdk/core/yt/yt_l2.c ****  * @param[in]     enable              -enable or disable
1109:../switch_sdk/core/yt/yt_l2.c ****  * @retval        CMM_ERR_OK          -on success
1110:../switch_sdk/core/yt/yt_l2.c ****  * @retval        CMM_ERR_FAIL        -on fail
1111:../switch_sdk/core/yt/yt_l2.c ****  */
1112:../switch_sdk/core/yt/yt_l2.c **** yt_ret_t  yt_l2_lag_learnlimit_exceed_drop_set(yt_unit_t unit, uint8_t groupid, yt_enable_t enable)
1113:../switch_sdk/core/yt/yt_l2.c **** {
 10333              		.loc 1 1113 1 is_stmt 1 view -0
 10334              		.cfi_startproc
 10335              		@ args = 0, pretend = 0, frame = 0
 10336              		@ frame_needed = 0, uses_anonymous_args = 0
 10337              		.loc 1 1113 1 is_stmt 0 view .LVU2929
 10338 0000 08B5     		push	{r3, lr}
 10339              		.cfi_def_cfa_offset 8
 10340              		.cfi_offset 3, -8
 10341              		.cfi_offset 14, -4
1114:../switch_sdk/core/yt/yt_l2.c ****     CMM_PARAM_CHK((YT_UNIT_NUM <= unit), CMM_ERR_INPUT);
 10342              		.loc 1 1114 5 is_stmt 1 view .LVU2930
 10343              		.loc 1 1114 5 view .LVU2931
 10344 0002 68B9     		cbnz	r0, .L1085
 10345 0004 8446     		mov	ip, r0
 10346              		.loc 1 1114 5 discriminator 2 view .LVU2932
1115:../switch_sdk/core/yt/yt_l2.c ****     CMM_PARAM_CHK(NULL == YT_DISPATCH(unit), CMM_ERR_NOT_INIT);
 10347              		.loc 1 1115 5 discriminator 2 view .LVU2933
 10348              		.loc 1 1115 5 discriminator 2 view .LVU2934
 10349 0006 224B     		ldr	r3, .L1093
 10350 0008 53F82030 		ldr	r3, [r3, r0, lsl #2]
 10351 000c B3B1     		cbz	r3, .L1086
 10352              		.loc 1 1115 5 discriminator 2 view .LVU2935
1116:../switch_sdk/core/yt/yt_l2.c ****     CMM_PARAM_CHK((!(YT_DISPATCH(unit)->is_inited)), CMM_ERR_NOT_INIT);
 10353              		.loc 1 1116 5 discriminator 2 view .LVU2936
 10354              		.loc 1 1116 5 discriminator 2 view .LVU2937
 10355 000e 1878     		ldrb	r0, [r3]	@ zero_extendqisi2
 10356              	.LVL1314:
 10357              		.loc 1 1116 5 is_stmt 0 discriminator 2 view .LVU2938
 10358 0010 10B3     		cbz	r0, .L1087
 10359              		.loc 1 1116 5 is_stmt 1 discriminator 2 view .LVU2939
1117:../switch_sdk/core/yt/yt_l2.c ****     CMM_PARAM_CHK((YT_ENABLE < enable || YT_DISABLE > enable), CMM_ERR_INPUT);
 10360              		.loc 1 1117 5 discriminator 2 view .LVU2940
 10361              		.loc 1 1117 5 discriminator 2 view .LVU2941
 10362 0012 012A     		cmp	r2, #1
 10363 0014 2ED8     		bhi	.L1088
 10364              		.loc 1 1117 5 discriminator 2 view .LVU2942
1118:../switch_sdk/core/yt/yt_l2.c **** 
1119:../switch_sdk/core/yt/yt_l2.c ****     return YT_DISPATCH(unit)->l2_lag_learnlimit_exceed_drop_set(unit, groupid, enable);
 10365              		.loc 1 1119 5 discriminator 2 view .LVU2943
 10366              		.loc 1 1119 29 is_stmt 0 discriminator 2 view .LVU2944
 10367 0016 D3F8BC33 		ldr	r3, [r3, #956]
 10368              		.loc 1 1119 12 discriminator 2 view .LVU2945
 10369 001a 6046     		mov	r0, ip
 10370 001c 9847     		blx	r3
 10371              	.LVL1315:
 10372              	.L1074:
1120:../switch_sdk/core/yt/yt_l2.c **** }
 10373              		.loc 1 1120 1 view .LVU2946
 10374 001e 08BD     		pop	{r3, pc}
 10375              	.LVL1316:
 10376              	.L1085:
1114:../switch_sdk/core/yt/yt_l2.c ****     CMM_PARAM_CHK(NULL == YT_DISPATCH(unit), CMM_ERR_NOT_INIT);
 10377              		.loc 1 1114 5 is_stmt 1 discriminator 1 view .LVU2947
1114:../switch_sdk/core/yt/yt_l2.c ****     CMM_PARAM_CHK(NULL == YT_DISPATCH(unit), CMM_ERR_NOT_INIT);
 10378              		.loc 1 1114 5 discriminator 1 view .LVU2948
 10379 0020 1C4B     		ldr	r3, .L1093+4
 10380 0022 1B78     		ldrb	r3, [r3]	@ zero_extendqisi2
 10381 0024 012B     		cmp	r3, #1
 10382 0026 01D8     		bhi	.L1089
 10383              	.LVL1317:
 10384              	.L1076:
1114:../switch_sdk/core/yt/yt_l2.c ****     CMM_PARAM_CHK(NULL == YT_DISPATCH(unit), CMM_ERR_NOT_INIT);
 10385              		.loc 1 1114 5 discriminator 5 view .LVU2949
1114:../switch_sdk/core/yt/yt_l2.c ****     CMM_PARAM_CHK(NULL == YT_DISPATCH(unit), CMM_ERR_NOT_INIT);
 10386              		.loc 1 1114 5 discriminator 5 view .LVU2950
1114:../switch_sdk/core/yt/yt_l2.c ****     CMM_PARAM_CHK(NULL == YT_DISPATCH(unit), CMM_ERR_NOT_INIT);
 10387              		.loc 1 1114 5 discriminator 5 view .LVU2951
 10388 0028 0520     		movs	r0, #5
 10389 002a F8E7     		b	.L1074
 10390              	.LVL1318:
 10391              	.L1089:
1114:../switch_sdk/core/yt/yt_l2.c ****     CMM_PARAM_CHK(NULL == YT_DISPATCH(unit), CMM_ERR_NOT_INIT);
 10392              		.loc 1 1114 5 discriminator 3 view .LVU2952
 10393              	.LBB209:
1114:../switch_sdk/core/yt/yt_l2.c ****     CMM_PARAM_CHK(NULL == YT_DISPATCH(unit), CMM_ERR_NOT_INIT);
 10394              		.loc 1 1114 5 discriminator 3 view .LVU2953
 10395 002c 1A4B     		ldr	r3, .L1093+8
 10396 002e 5A69     		ldr	r2, [r3, #20]
 10397              	.LVL1319:
1114:../switch_sdk/core/yt/yt_l2.c ****     CMM_PARAM_CHK(NULL == YT_DISPATCH(unit), CMM_ERR_NOT_INIT);
 10398              		.loc 1 1114 5 is_stmt 0 discriminator 3 view .LVU2954
 10399 0030 1A4B     		ldr	r3, .L1093+12
 10400 0032 9968     		ldr	r1, [r3, #8]
 10401              	.LVL1320:
1114:../switch_sdk/core/yt/yt_l2.c ****     CMM_PARAM_CHK(NULL == YT_DISPATCH(unit), CMM_ERR_NOT_INIT);
 10402              		.loc 1 1114 5 discriminator 3 view .LVU2955
 10403 0034 1A48     		ldr	r0, .L1093+16
 10404              	.LVL1321:
1114:../switch_sdk/core/yt/yt_l2.c ****     CMM_PARAM_CHK(NULL == YT_DISPATCH(unit), CMM_ERR_NOT_INIT);
 10405              		.loc 1 1114 5 discriminator 3 view .LVU2956
 10406 0036 FFF7FEFF 		bl	osal_printf
 10407              	.LVL1322:
 10408 003a F5E7     		b	.L1076
 10409              	.LVL1323:
 10410              	.L1086:
1114:../switch_sdk/core/yt/yt_l2.c ****     CMM_PARAM_CHK(NULL == YT_DISPATCH(unit), CMM_ERR_NOT_INIT);
 10411              		.loc 1 1114 5 discriminator 3 view .LVU2957
 10412              	.LBE209:
1115:../switch_sdk/core/yt/yt_l2.c ****     CMM_PARAM_CHK((!(YT_DISPATCH(unit)->is_inited)), CMM_ERR_NOT_INIT);
 10413              		.loc 1 1115 5 is_stmt 1 discriminator 1 view .LVU2958
1115:../switch_sdk/core/yt/yt_l2.c ****     CMM_PARAM_CHK((!(YT_DISPATCH(unit)->is_inited)), CMM_ERR_NOT_INIT);
 10414              		.loc 1 1115 5 discriminator 1 view .LVU2959
 10415 003c 154B     		ldr	r3, .L1093+4
 10416 003e 1B78     		ldrb	r3, [r3]	@ zero_extendqisi2
 10417 0040 012B     		cmp	r3, #1
 10418 0042 01D8     		bhi	.L1090
 10419              	.LVL1324:
 10420              	.L1079:
1115:../switch_sdk/core/yt/yt_l2.c ****     CMM_PARAM_CHK((!(YT_DISPATCH(unit)->is_inited)), CMM_ERR_NOT_INIT);
 10421              		.loc 1 1115 5 discriminator 5 view .LVU2960
1115:../switch_sdk/core/yt/yt_l2.c ****     CMM_PARAM_CHK((!(YT_DISPATCH(unit)->is_inited)), CMM_ERR_NOT_INIT);
 10422              		.loc 1 1115 5 discriminator 5 view .LVU2961
1115:../switch_sdk/core/yt/yt_l2.c ****     CMM_PARAM_CHK((!(YT_DISPATCH(unit)->is_inited)), CMM_ERR_NOT_INIT);
 10423              		.loc 1 1115 5 discriminator 5 view .LVU2962
 10424 0044 0420     		movs	r0, #4
 10425 0046 EAE7     		b	.L1074
 10426              	.LVL1325:
 10427              	.L1090:
1115:../switch_sdk/core/yt/yt_l2.c ****     CMM_PARAM_CHK((!(YT_DISPATCH(unit)->is_inited)), CMM_ERR_NOT_INIT);
 10428              		.loc 1 1115 5 discriminator 3 view .LVU2963
 10429              	.LBB210:
1115:../switch_sdk/core/yt/yt_l2.c ****     CMM_PARAM_CHK((!(YT_DISPATCH(unit)->is_inited)), CMM_ERR_NOT_INIT);
 10430              		.loc 1 1115 5 discriminator 3 view .LVU2964
 10431 0048 134B     		ldr	r3, .L1093+8
 10432 004a 1A69     		ldr	r2, [r3, #16]
 10433              	.LVL1326:
1115:../switch_sdk/core/yt/yt_l2.c ****     CMM_PARAM_CHK((!(YT_DISPATCH(unit)->is_inited)), CMM_ERR_NOT_INIT);
 10434              		.loc 1 1115 5 is_stmt 0 discriminator 3 view .LVU2965
 10435 004c 134B     		ldr	r3, .L1093+12
 10436 004e 9968     		ldr	r1, [r3, #8]
 10437              	.LVL1327:
1115:../switch_sdk/core/yt/yt_l2.c ****     CMM_PARAM_CHK((!(YT_DISPATCH(unit)->is_inited)), CMM_ERR_NOT_INIT);
 10438              		.loc 1 1115 5 discriminator 3 view .LVU2966
 10439 0050 1348     		ldr	r0, .L1093+16
 10440              	.LVL1328:
1115:../switch_sdk/core/yt/yt_l2.c ****     CMM_PARAM_CHK((!(YT_DISPATCH(unit)->is_inited)), CMM_ERR_NOT_INIT);
 10441              		.loc 1 1115 5 discriminator 3 view .LVU2967
 10442 0052 FFF7FEFF 		bl	osal_printf
 10443              	.LVL1329:
 10444 0056 F5E7     		b	.L1079
 10445              	.LVL1330:
 10446              	.L1087:
1115:../switch_sdk/core/yt/yt_l2.c ****     CMM_PARAM_CHK((!(YT_DISPATCH(unit)->is_inited)), CMM_ERR_NOT_INIT);
 10447              		.loc 1 1115 5 discriminator 3 view .LVU2968
 10448              	.LBE210:
1116:../switch_sdk/core/yt/yt_l2.c ****     CMM_PARAM_CHK((YT_ENABLE < enable || YT_DISABLE > enable), CMM_ERR_INPUT);
 10449              		.loc 1 1116 5 is_stmt 1 discriminator 1 view .LVU2969
1116:../switch_sdk/core/yt/yt_l2.c ****     CMM_PARAM_CHK((YT_ENABLE < enable || YT_DISABLE > enable), CMM_ERR_INPUT);
 10450              		.loc 1 1116 5 discriminator 1 view .LVU2970
 10451 0058 0E4B     		ldr	r3, .L1093+4
 10452 005a 1B78     		ldrb	r3, [r3]	@ zero_extendqisi2
 10453 005c 012B     		cmp	r3, #1
 10454 005e 01D8     		bhi	.L1091
 10455              	.LVL1331:
 10456              	.L1081:
1116:../switch_sdk/core/yt/yt_l2.c ****     CMM_PARAM_CHK((YT_ENABLE < enable || YT_DISABLE > enable), CMM_ERR_INPUT);
 10457              		.loc 1 1116 5 discriminator 5 view .LVU2971
1116:../switch_sdk/core/yt/yt_l2.c ****     CMM_PARAM_CHK((YT_ENABLE < enable || YT_DISABLE > enable), CMM_ERR_INPUT);
 10458              		.loc 1 1116 5 discriminator 5 view .LVU2972
1116:../switch_sdk/core/yt/yt_l2.c ****     CMM_PARAM_CHK((YT_ENABLE < enable || YT_DISABLE > enable), CMM_ERR_INPUT);
 10459              		.loc 1 1116 5 discriminator 5 view .LVU2973
 10460 0060 0420     		movs	r0, #4
 10461 0062 DCE7     		b	.L1074
 10462              	.LVL1332:
 10463              	.L1091:
1116:../switch_sdk/core/yt/yt_l2.c ****     CMM_PARAM_CHK((YT_ENABLE < enable || YT_DISABLE > enable), CMM_ERR_INPUT);
 10464              		.loc 1 1116 5 discriminator 3 view .LVU2974
 10465              	.LBB211:
1116:../switch_sdk/core/yt/yt_l2.c ****     CMM_PARAM_CHK((YT_ENABLE < enable || YT_DISABLE > enable), CMM_ERR_INPUT);
 10466              		.loc 1 1116 5 discriminator 3 view .LVU2975
 10467 0064 0C4B     		ldr	r3, .L1093+8
 10468 0066 1A69     		ldr	r2, [r3, #16]
 10469              	.LVL1333:
1116:../switch_sdk/core/yt/yt_l2.c ****     CMM_PARAM_CHK((YT_ENABLE < enable || YT_DISABLE > enable), CMM_ERR_INPUT);
 10470              		.loc 1 1116 5 is_stmt 0 discriminator 3 view .LVU2976
 10471 0068 0C4B     		ldr	r3, .L1093+12
 10472 006a 9968     		ldr	r1, [r3, #8]
 10473              	.LVL1334:
1116:../switch_sdk/core/yt/yt_l2.c ****     CMM_PARAM_CHK((YT_ENABLE < enable || YT_DISABLE > enable), CMM_ERR_INPUT);
 10474              		.loc 1 1116 5 discriminator 3 view .LVU2977
 10475 006c 0C48     		ldr	r0, .L1093+16
 10476 006e FFF7FEFF 		bl	osal_printf
 10477              	.LVL1335:
 10478 0072 F5E7     		b	.L1081
 10479              	.LVL1336:
 10480              	.L1088:
1116:../switch_sdk/core/yt/yt_l2.c ****     CMM_PARAM_CHK((YT_ENABLE < enable || YT_DISABLE > enable), CMM_ERR_INPUT);
 10481              		.loc 1 1116 5 discriminator 3 view .LVU2978
 10482              	.LBE211:
1117:../switch_sdk/core/yt/yt_l2.c **** 
 10483              		.loc 1 1117 5 is_stmt 1 discriminator 1 view .LVU2979
1117:../switch_sdk/core/yt/yt_l2.c **** 
 10484              		.loc 1 1117 5 discriminator 1 view .LVU2980
 10485 0074 074B     		ldr	r3, .L1093+4
 10486 0076 1B78     		ldrb	r3, [r3]	@ zero_extendqisi2
 10487 0078 012B     		cmp	r3, #1
 10488 007a 01D8     		bhi	.L1092
 10489              	.LVL1337:
 10490              	.L1083:
1117:../switch_sdk/core/yt/yt_l2.c **** 
 10491              		.loc 1 1117 5 discriminator 5 view .LVU2981
1117:../switch_sdk/core/yt/yt_l2.c **** 
 10492              		.loc 1 1117 5 discriminator 5 view .LVU2982
1117:../switch_sdk/core/yt/yt_l2.c **** 
 10493              		.loc 1 1117 5 discriminator 5 view .LVU2983
 10494 007c 0520     		movs	r0, #5
 10495 007e CEE7     		b	.L1074
 10496              	.LVL1338:
 10497              	.L1092:
1117:../switch_sdk/core/yt/yt_l2.c **** 
 10498              		.loc 1 1117 5 discriminator 3 view .LVU2984
 10499              	.LBB212:
1117:../switch_sdk/core/yt/yt_l2.c **** 
 10500              		.loc 1 1117 5 discriminator 3 view .LVU2985
 10501 0080 054B     		ldr	r3, .L1093+8
 10502 0082 5A69     		ldr	r2, [r3, #20]
 10503              	.LVL1339:
1117:../switch_sdk/core/yt/yt_l2.c **** 
 10504              		.loc 1 1117 5 is_stmt 0 discriminator 3 view .LVU2986
 10505 0084 054B     		ldr	r3, .L1093+12
 10506 0086 9968     		ldr	r1, [r3, #8]
 10507              	.LVL1340:
1117:../switch_sdk/core/yt/yt_l2.c **** 
 10508              		.loc 1 1117 5 discriminator 3 view .LVU2987
 10509 0088 0548     		ldr	r0, .L1093+16
 10510 008a FFF7FEFF 		bl	osal_printf
 10511              	.LVL1341:
 10512 008e F5E7     		b	.L1083
 10513              	.L1094:
 10514              		.align	2
 10515              	.L1093:
 10516 0090 00000000 		.word	gpfal_dispatch
 10517 0094 00000000 		.word	yt_debug_level
 10518 0098 00000000 		.word	_yt_errmsg
 10519 009c 00000000 		.word	_yt_prompt_msg
 10520 00a0 00000000 		.word	.LC0
 10521              	.LBE212:
 10522              		.cfi_endproc
 10523              	.LFE52:
 10525              		.section	.text.yt_l2_lag_learnlimit_exceed_drop_get,"ax",%progbits
 10526              		.align	1
 10527              		.global	yt_l2_lag_learnlimit_exceed_drop_get
 10528              		.syntax unified
 10529              		.thumb
 10530              		.thumb_func
 10532              	yt_l2_lag_learnlimit_exceed_drop_get:
 10533              	.LVL1342:
 10534              	.LFB53:
1121:../switch_sdk/core/yt/yt_l2.c **** 
1122:../switch_sdk/core/yt/yt_l2.c **** /**
1123:../switch_sdk/core/yt/yt_l2.c ****  * @internal      yt_l2_lag_learnlimit_exceed_drop_get
1124:../switch_sdk/core/yt/yt_l2.c ****  * @endinternal
1125:../switch_sdk/core/yt/yt_l2.c ****  *
1126:../switch_sdk/core/yt/yt_l2.c ****  * @brief         Description
1127:../switch_sdk/core/yt/yt_l2.c ****  * @note          APPLICABLE DEVICES  -Tiger
1128:../switch_sdk/core/yt/yt_l2.c ****  * @param[in]     unit                -unit id
1129:../switch_sdk/core/yt/yt_l2.c ****  * @param[in]     groupid             -x
1130:../switch_sdk/core/yt/yt_l2.c ****  * @param[out]    pEnable             -enable or disable
1131:../switch_sdk/core/yt/yt_l2.c ****  * @retval        CMM_ERR_OK          -on success
1132:../switch_sdk/core/yt/yt_l2.c ****  * @retval        CMM_ERR_FAIL        -on fail
1133:../switch_sdk/core/yt/yt_l2.c ****  */
1134:../switch_sdk/core/yt/yt_l2.c **** yt_ret_t  yt_l2_lag_learnlimit_exceed_drop_get(yt_unit_t unit, uint8_t groupid, yt_enable_t *pEnabl
1135:../switch_sdk/core/yt/yt_l2.c **** {
 10535              		.loc 1 1135 1 is_stmt 1 view -0
 10536              		.cfi_startproc
 10537              		@ args = 0, pretend = 0, frame = 0
 10538              		@ frame_needed = 0, uses_anonymous_args = 0
 10539              		.loc 1 1135 1 is_stmt 0 view .LVU2989
 10540 0000 08B5     		push	{r3, lr}
 10541              		.cfi_def_cfa_offset 8
 10542              		.cfi_offset 3, -8
 10543              		.cfi_offset 14, -4
1136:../switch_sdk/core/yt/yt_l2.c ****     CMM_PARAM_CHK((YT_UNIT_NUM <= unit), CMM_ERR_INPUT);
 10544              		.loc 1 1136 5 is_stmt 1 view .LVU2990
 10545              		.loc 1 1136 5 view .LVU2991
 10546 0002 68B9     		cbnz	r0, .L1106
 10547 0004 8446     		mov	ip, r0
 10548              		.loc 1 1136 5 discriminator 2 view .LVU2992
1137:../switch_sdk/core/yt/yt_l2.c ****     CMM_PARAM_CHK(NULL == YT_DISPATCH(unit), CMM_ERR_NOT_INIT);
 10549              		.loc 1 1137 5 discriminator 2 view .LVU2993
 10550              		.loc 1 1137 5 discriminator 2 view .LVU2994
 10551 0006 224B     		ldr	r3, .L1114
 10552 0008 53F82030 		ldr	r3, [r3, r0, lsl #2]
 10553 000c B3B1     		cbz	r3, .L1107
 10554              		.loc 1 1137 5 discriminator 2 view .LVU2995
1138:../switch_sdk/core/yt/yt_l2.c ****     CMM_PARAM_CHK((!(YT_DISPATCH(unit)->is_inited)), CMM_ERR_NOT_INIT);
 10555              		.loc 1 1138 5 discriminator 2 view .LVU2996
 10556              		.loc 1 1138 5 discriminator 2 view .LVU2997
 10557 000e 1878     		ldrb	r0, [r3]	@ zero_extendqisi2
 10558              	.LVL1343:
 10559              		.loc 1 1138 5 is_stmt 0 discriminator 2 view .LVU2998
 10560 0010 10B3     		cbz	r0, .L1108
 10561              		.loc 1 1138 5 is_stmt 1 discriminator 2 view .LVU2999
1139:../switch_sdk/core/yt/yt_l2.c ****     CMM_PARAM_CHK((NULL == pEnable), CMM_ERR_NULL_POINT);
 10562              		.loc 1 1139 5 discriminator 2 view .LVU3000
 10563              		.loc 1 1139 5 discriminator 2 view .LVU3001
 10564 0012 002A     		cmp	r2, #0
 10565 0014 2ED0     		beq	.L1109
 10566              		.loc 1 1139 5 discriminator 2 view .LVU3002
1140:../switch_sdk/core/yt/yt_l2.c **** 
1141:../switch_sdk/core/yt/yt_l2.c ****     return YT_DISPATCH(unit)->l2_lag_learnlimit_exceed_drop_get(unit, groupid, pEnable);
 10567              		.loc 1 1141 5 discriminator 2 view .LVU3003
 10568              		.loc 1 1141 29 is_stmt 0 discriminator 2 view .LVU3004
 10569 0016 D3F8C033 		ldr	r3, [r3, #960]
 10570              		.loc 1 1141 12 discriminator 2 view .LVU3005
 10571 001a 6046     		mov	r0, ip
 10572 001c 9847     		blx	r3
 10573              	.LVL1344:
 10574              	.L1095:
1142:../switch_sdk/core/yt/yt_l2.c **** }
 10575              		.loc 1 1142 1 view .LVU3006
 10576 001e 08BD     		pop	{r3, pc}
 10577              	.LVL1345:
 10578              	.L1106:
1136:../switch_sdk/core/yt/yt_l2.c ****     CMM_PARAM_CHK(NULL == YT_DISPATCH(unit), CMM_ERR_NOT_INIT);
 10579              		.loc 1 1136 5 is_stmt 1 discriminator 1 view .LVU3007
1136:../switch_sdk/core/yt/yt_l2.c ****     CMM_PARAM_CHK(NULL == YT_DISPATCH(unit), CMM_ERR_NOT_INIT);
 10580              		.loc 1 1136 5 discriminator 1 view .LVU3008
 10581 0020 1C4B     		ldr	r3, .L1114+4
 10582 0022 1B78     		ldrb	r3, [r3]	@ zero_extendqisi2
 10583 0024 012B     		cmp	r3, #1
 10584 0026 01D8     		bhi	.L1110
 10585              	.LVL1346:
 10586              	.L1097:
1136:../switch_sdk/core/yt/yt_l2.c ****     CMM_PARAM_CHK(NULL == YT_DISPATCH(unit), CMM_ERR_NOT_INIT);
 10587              		.loc 1 1136 5 discriminator 5 view .LVU3009
1136:../switch_sdk/core/yt/yt_l2.c ****     CMM_PARAM_CHK(NULL == YT_DISPATCH(unit), CMM_ERR_NOT_INIT);
 10588              		.loc 1 1136 5 discriminator 5 view .LVU3010
1136:../switch_sdk/core/yt/yt_l2.c ****     CMM_PARAM_CHK(NULL == YT_DISPATCH(unit), CMM_ERR_NOT_INIT);
 10589              		.loc 1 1136 5 discriminator 5 view .LVU3011
 10590 0028 0520     		movs	r0, #5
 10591 002a F8E7     		b	.L1095
 10592              	.LVL1347:
 10593              	.L1110:
1136:../switch_sdk/core/yt/yt_l2.c ****     CMM_PARAM_CHK(NULL == YT_DISPATCH(unit), CMM_ERR_NOT_INIT);
 10594              		.loc 1 1136 5 discriminator 3 view .LVU3012
 10595              	.LBB213:
1136:../switch_sdk/core/yt/yt_l2.c ****     CMM_PARAM_CHK(NULL == YT_DISPATCH(unit), CMM_ERR_NOT_INIT);
 10596              		.loc 1 1136 5 discriminator 3 view .LVU3013
 10597 002c 1A4B     		ldr	r3, .L1114+8
 10598 002e 5A69     		ldr	r2, [r3, #20]
 10599              	.LVL1348:
1136:../switch_sdk/core/yt/yt_l2.c ****     CMM_PARAM_CHK(NULL == YT_DISPATCH(unit), CMM_ERR_NOT_INIT);
 10600              		.loc 1 1136 5 is_stmt 0 discriminator 3 view .LVU3014
 10601 0030 1A4B     		ldr	r3, .L1114+12
 10602 0032 9968     		ldr	r1, [r3, #8]
 10603              	.LVL1349:
1136:../switch_sdk/core/yt/yt_l2.c ****     CMM_PARAM_CHK(NULL == YT_DISPATCH(unit), CMM_ERR_NOT_INIT);
 10604              		.loc 1 1136 5 discriminator 3 view .LVU3015
 10605 0034 1A48     		ldr	r0, .L1114+16
 10606              	.LVL1350:
1136:../switch_sdk/core/yt/yt_l2.c ****     CMM_PARAM_CHK(NULL == YT_DISPATCH(unit), CMM_ERR_NOT_INIT);
 10607              		.loc 1 1136 5 discriminator 3 view .LVU3016
 10608 0036 FFF7FEFF 		bl	osal_printf
 10609              	.LVL1351:
 10610 003a F5E7     		b	.L1097
 10611              	.LVL1352:
 10612              	.L1107:
1136:../switch_sdk/core/yt/yt_l2.c ****     CMM_PARAM_CHK(NULL == YT_DISPATCH(unit), CMM_ERR_NOT_INIT);
 10613              		.loc 1 1136 5 discriminator 3 view .LVU3017
 10614              	.LBE213:
1137:../switch_sdk/core/yt/yt_l2.c ****     CMM_PARAM_CHK((!(YT_DISPATCH(unit)->is_inited)), CMM_ERR_NOT_INIT);
 10615              		.loc 1 1137 5 is_stmt 1 discriminator 1 view .LVU3018
1137:../switch_sdk/core/yt/yt_l2.c ****     CMM_PARAM_CHK((!(YT_DISPATCH(unit)->is_inited)), CMM_ERR_NOT_INIT);
 10616              		.loc 1 1137 5 discriminator 1 view .LVU3019
 10617 003c 154B     		ldr	r3, .L1114+4
 10618 003e 1B78     		ldrb	r3, [r3]	@ zero_extendqisi2
 10619 0040 012B     		cmp	r3, #1
 10620 0042 01D8     		bhi	.L1111
 10621              	.LVL1353:
 10622              	.L1100:
1137:../switch_sdk/core/yt/yt_l2.c ****     CMM_PARAM_CHK((!(YT_DISPATCH(unit)->is_inited)), CMM_ERR_NOT_INIT);
 10623              		.loc 1 1137 5 discriminator 5 view .LVU3020
1137:../switch_sdk/core/yt/yt_l2.c ****     CMM_PARAM_CHK((!(YT_DISPATCH(unit)->is_inited)), CMM_ERR_NOT_INIT);
 10624              		.loc 1 1137 5 discriminator 5 view .LVU3021
1137:../switch_sdk/core/yt/yt_l2.c ****     CMM_PARAM_CHK((!(YT_DISPATCH(unit)->is_inited)), CMM_ERR_NOT_INIT);
 10625              		.loc 1 1137 5 discriminator 5 view .LVU3022
 10626 0044 0420     		movs	r0, #4
 10627 0046 EAE7     		b	.L1095
 10628              	.LVL1354:
 10629              	.L1111:
1137:../switch_sdk/core/yt/yt_l2.c ****     CMM_PARAM_CHK((!(YT_DISPATCH(unit)->is_inited)), CMM_ERR_NOT_INIT);
 10630              		.loc 1 1137 5 discriminator 3 view .LVU3023
 10631              	.LBB214:
1137:../switch_sdk/core/yt/yt_l2.c ****     CMM_PARAM_CHK((!(YT_DISPATCH(unit)->is_inited)), CMM_ERR_NOT_INIT);
 10632              		.loc 1 1137 5 discriminator 3 view .LVU3024
 10633 0048 134B     		ldr	r3, .L1114+8
 10634 004a 1A69     		ldr	r2, [r3, #16]
 10635              	.LVL1355:
1137:../switch_sdk/core/yt/yt_l2.c ****     CMM_PARAM_CHK((!(YT_DISPATCH(unit)->is_inited)), CMM_ERR_NOT_INIT);
 10636              		.loc 1 1137 5 is_stmt 0 discriminator 3 view .LVU3025
 10637 004c 134B     		ldr	r3, .L1114+12
 10638 004e 9968     		ldr	r1, [r3, #8]
 10639              	.LVL1356:
1137:../switch_sdk/core/yt/yt_l2.c ****     CMM_PARAM_CHK((!(YT_DISPATCH(unit)->is_inited)), CMM_ERR_NOT_INIT);
 10640              		.loc 1 1137 5 discriminator 3 view .LVU3026
 10641 0050 1348     		ldr	r0, .L1114+16
 10642              	.LVL1357:
1137:../switch_sdk/core/yt/yt_l2.c ****     CMM_PARAM_CHK((!(YT_DISPATCH(unit)->is_inited)), CMM_ERR_NOT_INIT);
 10643              		.loc 1 1137 5 discriminator 3 view .LVU3027
 10644 0052 FFF7FEFF 		bl	osal_printf
 10645              	.LVL1358:
 10646 0056 F5E7     		b	.L1100
 10647              	.LVL1359:
 10648              	.L1108:
1137:../switch_sdk/core/yt/yt_l2.c ****     CMM_PARAM_CHK((!(YT_DISPATCH(unit)->is_inited)), CMM_ERR_NOT_INIT);
 10649              		.loc 1 1137 5 discriminator 3 view .LVU3028
 10650              	.LBE214:
1138:../switch_sdk/core/yt/yt_l2.c ****     CMM_PARAM_CHK((NULL == pEnable), CMM_ERR_NULL_POINT);
 10651              		.loc 1 1138 5 is_stmt 1 discriminator 1 view .LVU3029
1138:../switch_sdk/core/yt/yt_l2.c ****     CMM_PARAM_CHK((NULL == pEnable), CMM_ERR_NULL_POINT);
 10652              		.loc 1 1138 5 discriminator 1 view .LVU3030
 10653 0058 0E4B     		ldr	r3, .L1114+4
 10654 005a 1B78     		ldrb	r3, [r3]	@ zero_extendqisi2
 10655 005c 012B     		cmp	r3, #1
 10656 005e 01D8     		bhi	.L1112
 10657              	.LVL1360:
 10658              	.L1102:
1138:../switch_sdk/core/yt/yt_l2.c ****     CMM_PARAM_CHK((NULL == pEnable), CMM_ERR_NULL_POINT);
 10659              		.loc 1 1138 5 discriminator 5 view .LVU3031
1138:../switch_sdk/core/yt/yt_l2.c ****     CMM_PARAM_CHK((NULL == pEnable), CMM_ERR_NULL_POINT);
 10660              		.loc 1 1138 5 discriminator 5 view .LVU3032
1138:../switch_sdk/core/yt/yt_l2.c ****     CMM_PARAM_CHK((NULL == pEnable), CMM_ERR_NULL_POINT);
 10661              		.loc 1 1138 5 discriminator 5 view .LVU3033
 10662 0060 0420     		movs	r0, #4
 10663 0062 DCE7     		b	.L1095
 10664              	.LVL1361:
 10665              	.L1112:
1138:../switch_sdk/core/yt/yt_l2.c ****     CMM_PARAM_CHK((NULL == pEnable), CMM_ERR_NULL_POINT);
 10666              		.loc 1 1138 5 discriminator 3 view .LVU3034
 10667              	.LBB215:
1138:../switch_sdk/core/yt/yt_l2.c ****     CMM_PARAM_CHK((NULL == pEnable), CMM_ERR_NULL_POINT);
 10668              		.loc 1 1138 5 discriminator 3 view .LVU3035
 10669 0064 0C4B     		ldr	r3, .L1114+8
 10670 0066 1A69     		ldr	r2, [r3, #16]
 10671              	.LVL1362:
1138:../switch_sdk/core/yt/yt_l2.c ****     CMM_PARAM_CHK((NULL == pEnable), CMM_ERR_NULL_POINT);
 10672              		.loc 1 1138 5 is_stmt 0 discriminator 3 view .LVU3036
 10673 0068 0C4B     		ldr	r3, .L1114+12
 10674 006a 9968     		ldr	r1, [r3, #8]
 10675              	.LVL1363:
1138:../switch_sdk/core/yt/yt_l2.c ****     CMM_PARAM_CHK((NULL == pEnable), CMM_ERR_NULL_POINT);
 10676              		.loc 1 1138 5 discriminator 3 view .LVU3037
 10677 006c 0C48     		ldr	r0, .L1114+16
 10678 006e FFF7FEFF 		bl	osal_printf
 10679              	.LVL1364:
 10680 0072 F5E7     		b	.L1102
 10681              	.LVL1365:
 10682              	.L1109:
1138:../switch_sdk/core/yt/yt_l2.c ****     CMM_PARAM_CHK((NULL == pEnable), CMM_ERR_NULL_POINT);
 10683              		.loc 1 1138 5 discriminator 3 view .LVU3038
 10684              	.LBE215:
1139:../switch_sdk/core/yt/yt_l2.c **** 
 10685              		.loc 1 1139 5 is_stmt 1 discriminator 1 view .LVU3039
1139:../switch_sdk/core/yt/yt_l2.c **** 
 10686              		.loc 1 1139 5 discriminator 1 view .LVU3040
 10687 0074 074B     		ldr	r3, .L1114+4
 10688 0076 1B78     		ldrb	r3, [r3]	@ zero_extendqisi2
 10689 0078 012B     		cmp	r3, #1
 10690 007a 01D8     		bhi	.L1113
 10691              	.LVL1366:
 10692              	.L1104:
1139:../switch_sdk/core/yt/yt_l2.c **** 
 10693              		.loc 1 1139 5 discriminator 5 view .LVU3041
1139:../switch_sdk/core/yt/yt_l2.c **** 
 10694              		.loc 1 1139 5 discriminator 5 view .LVU3042
1139:../switch_sdk/core/yt/yt_l2.c **** 
 10695              		.loc 1 1139 5 discriminator 5 view .LVU3043
 10696 007c 0220     		movs	r0, #2
 10697 007e CEE7     		b	.L1095
 10698              	.LVL1367:
 10699              	.L1113:
1139:../switch_sdk/core/yt/yt_l2.c **** 
 10700              		.loc 1 1139 5 discriminator 3 view .LVU3044
 10701              	.LBB216:
1139:../switch_sdk/core/yt/yt_l2.c **** 
 10702              		.loc 1 1139 5 discriminator 3 view .LVU3045
 10703 0080 054B     		ldr	r3, .L1114+8
 10704 0082 9A68     		ldr	r2, [r3, #8]
 10705              	.LVL1368:
1139:../switch_sdk/core/yt/yt_l2.c **** 
 10706              		.loc 1 1139 5 is_stmt 0 discriminator 3 view .LVU3046
 10707 0084 054B     		ldr	r3, .L1114+12
 10708 0086 9968     		ldr	r1, [r3, #8]
 10709              	.LVL1369:
1139:../switch_sdk/core/yt/yt_l2.c **** 
 10710              		.loc 1 1139 5 discriminator 3 view .LVU3047
 10711 0088 0548     		ldr	r0, .L1114+16
 10712 008a FFF7FEFF 		bl	osal_printf
 10713              	.LVL1370:
 10714 008e F5E7     		b	.L1104
 10715              	.L1115:
 10716              		.align	2
 10717              	.L1114:
 10718 0090 00000000 		.word	gpfal_dispatch
 10719 0094 00000000 		.word	yt_debug_level
 10720 0098 00000000 		.word	_yt_errmsg
 10721 009c 00000000 		.word	_yt_prompt_msg
 10722 00a0 00000000 		.word	.LC0
 10723              	.LBE216:
 10724              		.cfi_endproc
 10725              	.LFE53:
 10727              		.section	.text.yt_l2_fdb_uc_cnt_get,"ax",%progbits
 10728              		.align	1
 10729              		.global	yt_l2_fdb_uc_cnt_get
 10730              		.syntax unified
 10731              		.thumb
 10732              		.thumb_func
 10734              	yt_l2_fdb_uc_cnt_get:
 10735              	.LVL1371:
 10736              	.LFB54:
1143:../switch_sdk/core/yt/yt_l2.c **** 
1144:../switch_sdk/core/yt/yt_l2.c **** /**
1145:../switch_sdk/core/yt/yt_l2.c ****  * @internal      yt_l2_fdb_uc_cnt_get
1146:../switch_sdk/core/yt/yt_l2.c ****  * @endinternal
1147:../switch_sdk/core/yt/yt_l2.c ****  *
1148:../switch_sdk/core/yt/yt_l2.c ****  * @brief         Description
1149:../switch_sdk/core/yt/yt_l2.c ****  * @note          APPLICABLE DEVICES  -Tiger
1150:../switch_sdk/core/yt/yt_l2.c ****  * @param[in]     unit                -unit id
1151:../switch_sdk/core/yt/yt_l2.c ****  * @param[out]    pcnt                -x
1152:../switch_sdk/core/yt/yt_l2.c ****  * @retval        CMM_ERR_OK          -on success
1153:../switch_sdk/core/yt/yt_l2.c ****  * @retval        CMM_ERR_FAIL        -on fail
1154:../switch_sdk/core/yt/yt_l2.c ****  */
1155:../switch_sdk/core/yt/yt_l2.c **** yt_ret_t  yt_l2_fdb_uc_cnt_get(yt_unit_t unit,  uint32 *pcnt)
1156:../switch_sdk/core/yt/yt_l2.c **** {
 10737              		.loc 1 1156 1 is_stmt 1 view -0
 10738              		.cfi_startproc
 10739              		@ args = 0, pretend = 0, frame = 0
 10740              		@ frame_needed = 0, uses_anonymous_args = 0
 10741              		.loc 1 1156 1 is_stmt 0 view .LVU3049
 10742 0000 08B5     		push	{r3, lr}
 10743              		.cfi_def_cfa_offset 8
 10744              		.cfi_offset 3, -8
 10745              		.cfi_offset 14, -4
1157:../switch_sdk/core/yt/yt_l2.c ****     CMM_PARAM_CHK((YT_UNIT_NUM <= unit), CMM_ERR_INPUT);
 10746              		.loc 1 1157 5 is_stmt 1 view .LVU3050
 10747              		.loc 1 1157 5 view .LVU3051
 10748 0002 68B9     		cbnz	r0, .L1127
 10749 0004 0246     		mov	r2, r0
 10750              		.loc 1 1157 5 discriminator 2 view .LVU3052
1158:../switch_sdk/core/yt/yt_l2.c ****     CMM_PARAM_CHK(NULL == YT_DISPATCH(unit), CMM_ERR_NOT_INIT);
 10751              		.loc 1 1158 5 discriminator 2 view .LVU3053
 10752              		.loc 1 1158 5 discriminator 2 view .LVU3054
 10753 0006 224B     		ldr	r3, .L1135
 10754 0008 53F82030 		ldr	r3, [r3, r0, lsl #2]
 10755 000c B3B1     		cbz	r3, .L1128
 10756              		.loc 1 1158 5 discriminator 2 view .LVU3055
1159:../switch_sdk/core/yt/yt_l2.c ****     CMM_PARAM_CHK((!(YT_DISPATCH(unit)->is_inited)), CMM_ERR_NOT_INIT);
 10757              		.loc 1 1159 5 discriminator 2 view .LVU3056
 10758              		.loc 1 1159 5 discriminator 2 view .LVU3057
 10759 000e 1878     		ldrb	r0, [r3]	@ zero_extendqisi2
 10760              	.LVL1372:
 10761              		.loc 1 1159 5 is_stmt 0 discriminator 2 view .LVU3058
 10762 0010 10B3     		cbz	r0, .L1129
 10763              		.loc 1 1159 5 is_stmt 1 discriminator 2 view .LVU3059
1160:../switch_sdk/core/yt/yt_l2.c ****     CMM_PARAM_CHK((NULL == pcnt), CMM_ERR_NULL_POINT);
 10764              		.loc 1 1160 5 discriminator 2 view .LVU3060
 10765              		.loc 1 1160 5 discriminator 2 view .LVU3061
 10766 0012 0029     		cmp	r1, #0
 10767 0014 2ED0     		beq	.L1130
 10768              		.loc 1 1160 5 discriminator 2 view .LVU3062
1161:../switch_sdk/core/yt/yt_l2.c **** 
1162:../switch_sdk/core/yt/yt_l2.c ****     return YT_DISPATCH(unit)->l2_fdb_uc_cnt_get(unit, pcnt);
 10769              		.loc 1 1162 5 discriminator 2 view .LVU3063
 10770              		.loc 1 1162 29 is_stmt 0 discriminator 2 view .LVU3064
 10771 0016 D3F80834 		ldr	r3, [r3, #1032]
 10772              		.loc 1 1162 12 discriminator 2 view .LVU3065
 10773 001a 1046     		mov	r0, r2
 10774 001c 9847     		blx	r3
 10775              	.LVL1373:
 10776              	.L1116:
1163:../switch_sdk/core/yt/yt_l2.c **** }
 10777              		.loc 1 1163 1 view .LVU3066
 10778 001e 08BD     		pop	{r3, pc}
 10779              	.LVL1374:
 10780              	.L1127:
1157:../switch_sdk/core/yt/yt_l2.c ****     CMM_PARAM_CHK(NULL == YT_DISPATCH(unit), CMM_ERR_NOT_INIT);
 10781              		.loc 1 1157 5 is_stmt 1 discriminator 1 view .LVU3067
1157:../switch_sdk/core/yt/yt_l2.c ****     CMM_PARAM_CHK(NULL == YT_DISPATCH(unit), CMM_ERR_NOT_INIT);
 10782              		.loc 1 1157 5 discriminator 1 view .LVU3068
 10783 0020 1C4B     		ldr	r3, .L1135+4
 10784 0022 1B78     		ldrb	r3, [r3]	@ zero_extendqisi2
 10785 0024 012B     		cmp	r3, #1
 10786 0026 01D8     		bhi	.L1131
 10787              	.LVL1375:
 10788              	.L1118:
1157:../switch_sdk/core/yt/yt_l2.c ****     CMM_PARAM_CHK(NULL == YT_DISPATCH(unit), CMM_ERR_NOT_INIT);
 10789              		.loc 1 1157 5 discriminator 5 view .LVU3069
1157:../switch_sdk/core/yt/yt_l2.c ****     CMM_PARAM_CHK(NULL == YT_DISPATCH(unit), CMM_ERR_NOT_INIT);
 10790              		.loc 1 1157 5 discriminator 5 view .LVU3070
1157:../switch_sdk/core/yt/yt_l2.c ****     CMM_PARAM_CHK(NULL == YT_DISPATCH(unit), CMM_ERR_NOT_INIT);
 10791              		.loc 1 1157 5 discriminator 5 view .LVU3071
 10792 0028 0520     		movs	r0, #5
 10793 002a F8E7     		b	.L1116
 10794              	.LVL1376:
 10795              	.L1131:
1157:../switch_sdk/core/yt/yt_l2.c ****     CMM_PARAM_CHK(NULL == YT_DISPATCH(unit), CMM_ERR_NOT_INIT);
 10796              		.loc 1 1157 5 discriminator 3 view .LVU3072
 10797              	.LBB217:
1157:../switch_sdk/core/yt/yt_l2.c ****     CMM_PARAM_CHK(NULL == YT_DISPATCH(unit), CMM_ERR_NOT_INIT);
 10798              		.loc 1 1157 5 discriminator 3 view .LVU3073
 10799 002c 1A4B     		ldr	r3, .L1135+8
 10800 002e 5A69     		ldr	r2, [r3, #20]
 10801 0030 1A4B     		ldr	r3, .L1135+12
 10802 0032 9968     		ldr	r1, [r3, #8]
 10803              	.LVL1377:
1157:../switch_sdk/core/yt/yt_l2.c ****     CMM_PARAM_CHK(NULL == YT_DISPATCH(unit), CMM_ERR_NOT_INIT);
 10804              		.loc 1 1157 5 is_stmt 0 discriminator 3 view .LVU3074
 10805 0034 1A48     		ldr	r0, .L1135+16
 10806              	.LVL1378:
1157:../switch_sdk/core/yt/yt_l2.c ****     CMM_PARAM_CHK(NULL == YT_DISPATCH(unit), CMM_ERR_NOT_INIT);
 10807              		.loc 1 1157 5 discriminator 3 view .LVU3075
 10808 0036 FFF7FEFF 		bl	osal_printf
 10809              	.LVL1379:
 10810 003a F5E7     		b	.L1118
 10811              	.LVL1380:
 10812              	.L1128:
1157:../switch_sdk/core/yt/yt_l2.c ****     CMM_PARAM_CHK(NULL == YT_DISPATCH(unit), CMM_ERR_NOT_INIT);
 10813              		.loc 1 1157 5 discriminator 3 view .LVU3076
 10814              	.LBE217:
1158:../switch_sdk/core/yt/yt_l2.c ****     CMM_PARAM_CHK((!(YT_DISPATCH(unit)->is_inited)), CMM_ERR_NOT_INIT);
 10815              		.loc 1 1158 5 is_stmt 1 discriminator 1 view .LVU3077
1158:../switch_sdk/core/yt/yt_l2.c ****     CMM_PARAM_CHK((!(YT_DISPATCH(unit)->is_inited)), CMM_ERR_NOT_INIT);
 10816              		.loc 1 1158 5 discriminator 1 view .LVU3078
 10817 003c 154B     		ldr	r3, .L1135+4
 10818 003e 1B78     		ldrb	r3, [r3]	@ zero_extendqisi2
 10819 0040 012B     		cmp	r3, #1
 10820 0042 01D8     		bhi	.L1132
 10821              	.LVL1381:
 10822              	.L1121:
1158:../switch_sdk/core/yt/yt_l2.c ****     CMM_PARAM_CHK((!(YT_DISPATCH(unit)->is_inited)), CMM_ERR_NOT_INIT);
 10823              		.loc 1 1158 5 discriminator 5 view .LVU3079
1158:../switch_sdk/core/yt/yt_l2.c ****     CMM_PARAM_CHK((!(YT_DISPATCH(unit)->is_inited)), CMM_ERR_NOT_INIT);
 10824              		.loc 1 1158 5 discriminator 5 view .LVU3080
1158:../switch_sdk/core/yt/yt_l2.c ****     CMM_PARAM_CHK((!(YT_DISPATCH(unit)->is_inited)), CMM_ERR_NOT_INIT);
 10825              		.loc 1 1158 5 discriminator 5 view .LVU3081
 10826 0044 0420     		movs	r0, #4
 10827 0046 EAE7     		b	.L1116
 10828              	.LVL1382:
 10829              	.L1132:
1158:../switch_sdk/core/yt/yt_l2.c ****     CMM_PARAM_CHK((!(YT_DISPATCH(unit)->is_inited)), CMM_ERR_NOT_INIT);
 10830              		.loc 1 1158 5 discriminator 3 view .LVU3082
 10831              	.LBB218:
1158:../switch_sdk/core/yt/yt_l2.c ****     CMM_PARAM_CHK((!(YT_DISPATCH(unit)->is_inited)), CMM_ERR_NOT_INIT);
 10832              		.loc 1 1158 5 discriminator 3 view .LVU3083
 10833 0048 134B     		ldr	r3, .L1135+8
 10834 004a 1A69     		ldr	r2, [r3, #16]
 10835 004c 134B     		ldr	r3, .L1135+12
 10836 004e 9968     		ldr	r1, [r3, #8]
 10837              	.LVL1383:
1158:../switch_sdk/core/yt/yt_l2.c ****     CMM_PARAM_CHK((!(YT_DISPATCH(unit)->is_inited)), CMM_ERR_NOT_INIT);
 10838              		.loc 1 1158 5 is_stmt 0 discriminator 3 view .LVU3084
 10839 0050 1348     		ldr	r0, .L1135+16
 10840              	.LVL1384:
1158:../switch_sdk/core/yt/yt_l2.c ****     CMM_PARAM_CHK((!(YT_DISPATCH(unit)->is_inited)), CMM_ERR_NOT_INIT);
 10841              		.loc 1 1158 5 discriminator 3 view .LVU3085
 10842 0052 FFF7FEFF 		bl	osal_printf
 10843              	.LVL1385:
 10844 0056 F5E7     		b	.L1121
 10845              	.LVL1386:
 10846              	.L1129:
1158:../switch_sdk/core/yt/yt_l2.c ****     CMM_PARAM_CHK((!(YT_DISPATCH(unit)->is_inited)), CMM_ERR_NOT_INIT);
 10847              		.loc 1 1158 5 discriminator 3 view .LVU3086
 10848              	.LBE218:
1159:../switch_sdk/core/yt/yt_l2.c ****     CMM_PARAM_CHK((NULL == pcnt), CMM_ERR_NULL_POINT);
 10849              		.loc 1 1159 5 is_stmt 1 discriminator 1 view .LVU3087
1159:../switch_sdk/core/yt/yt_l2.c ****     CMM_PARAM_CHK((NULL == pcnt), CMM_ERR_NULL_POINT);
 10850              		.loc 1 1159 5 discriminator 1 view .LVU3088
 10851 0058 0E4B     		ldr	r3, .L1135+4
 10852 005a 1B78     		ldrb	r3, [r3]	@ zero_extendqisi2
 10853 005c 012B     		cmp	r3, #1
 10854 005e 01D8     		bhi	.L1133
 10855              	.LVL1387:
 10856              	.L1123:
1159:../switch_sdk/core/yt/yt_l2.c ****     CMM_PARAM_CHK((NULL == pcnt), CMM_ERR_NULL_POINT);
 10857              		.loc 1 1159 5 discriminator 5 view .LVU3089
1159:../switch_sdk/core/yt/yt_l2.c ****     CMM_PARAM_CHK((NULL == pcnt), CMM_ERR_NULL_POINT);
 10858              		.loc 1 1159 5 discriminator 5 view .LVU3090
1159:../switch_sdk/core/yt/yt_l2.c ****     CMM_PARAM_CHK((NULL == pcnt), CMM_ERR_NULL_POINT);
 10859              		.loc 1 1159 5 discriminator 5 view .LVU3091
 10860 0060 0420     		movs	r0, #4
 10861 0062 DCE7     		b	.L1116
 10862              	.LVL1388:
 10863              	.L1133:
1159:../switch_sdk/core/yt/yt_l2.c ****     CMM_PARAM_CHK((NULL == pcnt), CMM_ERR_NULL_POINT);
 10864              		.loc 1 1159 5 discriminator 3 view .LVU3092
 10865              	.LBB219:
1159:../switch_sdk/core/yt/yt_l2.c ****     CMM_PARAM_CHK((NULL == pcnt), CMM_ERR_NULL_POINT);
 10866              		.loc 1 1159 5 discriminator 3 view .LVU3093
 10867 0064 0C4B     		ldr	r3, .L1135+8
 10868 0066 1A69     		ldr	r2, [r3, #16]
 10869 0068 0C4B     		ldr	r3, .L1135+12
 10870 006a 9968     		ldr	r1, [r3, #8]
 10871              	.LVL1389:
1159:../switch_sdk/core/yt/yt_l2.c ****     CMM_PARAM_CHK((NULL == pcnt), CMM_ERR_NULL_POINT);
 10872              		.loc 1 1159 5 is_stmt 0 discriminator 3 view .LVU3094
 10873 006c 0C48     		ldr	r0, .L1135+16
 10874 006e FFF7FEFF 		bl	osal_printf
 10875              	.LVL1390:
 10876 0072 F5E7     		b	.L1123
 10877              	.LVL1391:
 10878              	.L1130:
1159:../switch_sdk/core/yt/yt_l2.c ****     CMM_PARAM_CHK((NULL == pcnt), CMM_ERR_NULL_POINT);
 10879              		.loc 1 1159 5 discriminator 3 view .LVU3095
 10880              	.LBE219:
1160:../switch_sdk/core/yt/yt_l2.c **** 
 10881              		.loc 1 1160 5 is_stmt 1 discriminator 1 view .LVU3096
1160:../switch_sdk/core/yt/yt_l2.c **** 
 10882              		.loc 1 1160 5 discriminator 1 view .LVU3097
 10883 0074 074B     		ldr	r3, .L1135+4
 10884 0076 1B78     		ldrb	r3, [r3]	@ zero_extendqisi2
 10885 0078 012B     		cmp	r3, #1
 10886 007a 01D8     		bhi	.L1134
 10887              	.LVL1392:
 10888              	.L1125:
1160:../switch_sdk/core/yt/yt_l2.c **** 
 10889              		.loc 1 1160 5 discriminator 5 view .LVU3098
1160:../switch_sdk/core/yt/yt_l2.c **** 
 10890              		.loc 1 1160 5 discriminator 5 view .LVU3099
1160:../switch_sdk/core/yt/yt_l2.c **** 
 10891              		.loc 1 1160 5 discriminator 5 view .LVU3100
 10892 007c 0220     		movs	r0, #2
 10893 007e CEE7     		b	.L1116
 10894              	.LVL1393:
 10895              	.L1134:
1160:../switch_sdk/core/yt/yt_l2.c **** 
 10896              		.loc 1 1160 5 discriminator 3 view .LVU3101
 10897              	.LBB220:
1160:../switch_sdk/core/yt/yt_l2.c **** 
 10898              		.loc 1 1160 5 discriminator 3 view .LVU3102
 10899 0080 054B     		ldr	r3, .L1135+8
 10900 0082 9A68     		ldr	r2, [r3, #8]
 10901 0084 054B     		ldr	r3, .L1135+12
 10902 0086 9968     		ldr	r1, [r3, #8]
 10903              	.LVL1394:
1160:../switch_sdk/core/yt/yt_l2.c **** 
 10904              		.loc 1 1160 5 is_stmt 0 discriminator 3 view .LVU3103
 10905 0088 0548     		ldr	r0, .L1135+16
 10906 008a FFF7FEFF 		bl	osal_printf
 10907              	.LVL1395:
 10908 008e F5E7     		b	.L1125
 10909              	.L1136:
 10910              		.align	2
 10911              	.L1135:
 10912 0090 00000000 		.word	gpfal_dispatch
 10913 0094 00000000 		.word	yt_debug_level
 10914 0098 00000000 		.word	_yt_errmsg
 10915 009c 00000000 		.word	_yt_prompt_msg
 10916 00a0 00000000 		.word	.LC0
 10917              	.LBE220:
 10918              		.cfi_endproc
 10919              	.LFE54:
 10921              		.section	.text.yt_l2_mc_cnt_get,"ax",%progbits
 10922              		.align	1
 10923              		.global	yt_l2_mc_cnt_get
 10924              		.syntax unified
 10925              		.thumb
 10926              		.thumb_func
 10928              	yt_l2_mc_cnt_get:
 10929              	.LVL1396:
 10930              	.LFB55:
1164:../switch_sdk/core/yt/yt_l2.c **** 
1165:../switch_sdk/core/yt/yt_l2.c **** /**
1166:../switch_sdk/core/yt/yt_l2.c ****  * @internal      yt_l2_mc_cnt_get
1167:../switch_sdk/core/yt/yt_l2.c ****  * @endinternal
1168:../switch_sdk/core/yt/yt_l2.c ****  *
1169:../switch_sdk/core/yt/yt_l2.c ****  * @brief         Description
1170:../switch_sdk/core/yt/yt_l2.c ****  * @note          APPLICABLE DEVICES  -Tiger
1171:../switch_sdk/core/yt/yt_l2.c ****  * @param[in]     unit                -unit id
1172:../switch_sdk/core/yt/yt_l2.c ****  * @param[out]    pcnt                -x
1173:../switch_sdk/core/yt/yt_l2.c ****  * @retval        CMM_ERR_OK          -on success
1174:../switch_sdk/core/yt/yt_l2.c ****  * @retval        CMM_ERR_FAIL        -on fail
1175:../switch_sdk/core/yt/yt_l2.c ****  */
1176:../switch_sdk/core/yt/yt_l2.c **** yt_ret_t  yt_l2_mc_cnt_get(yt_unit_t unit,  uint32 *pcnt)
1177:../switch_sdk/core/yt/yt_l2.c **** {
 10931              		.loc 1 1177 1 is_stmt 1 view -0
 10932              		.cfi_startproc
 10933              		@ args = 0, pretend = 0, frame = 0
 10934              		@ frame_needed = 0, uses_anonymous_args = 0
 10935              		.loc 1 1177 1 is_stmt 0 view .LVU3105
 10936 0000 08B5     		push	{r3, lr}
 10937              		.cfi_def_cfa_offset 8
 10938              		.cfi_offset 3, -8
 10939              		.cfi_offset 14, -4
1178:../switch_sdk/core/yt/yt_l2.c ****     CMM_PARAM_CHK((YT_UNIT_NUM <= unit), CMM_ERR_INPUT);
 10940              		.loc 1 1178 5 is_stmt 1 view .LVU3106
 10941              		.loc 1 1178 5 view .LVU3107
 10942 0002 68B9     		cbnz	r0, .L1148
 10943 0004 0246     		mov	r2, r0
 10944              		.loc 1 1178 5 discriminator 2 view .LVU3108
1179:../switch_sdk/core/yt/yt_l2.c ****     CMM_PARAM_CHK(NULL == YT_DISPATCH(unit), CMM_ERR_NOT_INIT);
 10945              		.loc 1 1179 5 discriminator 2 view .LVU3109
 10946              		.loc 1 1179 5 discriminator 2 view .LVU3110
 10947 0006 224B     		ldr	r3, .L1156
 10948 0008 53F82030 		ldr	r3, [r3, r0, lsl #2]
 10949 000c B3B1     		cbz	r3, .L1149
 10950              		.loc 1 1179 5 discriminator 2 view .LVU3111
1180:../switch_sdk/core/yt/yt_l2.c ****     CMM_PARAM_CHK((!(YT_DISPATCH(unit)->is_inited)), CMM_ERR_NOT_INIT);
 10951              		.loc 1 1180 5 discriminator 2 view .LVU3112
 10952              		.loc 1 1180 5 discriminator 2 view .LVU3113
 10953 000e 1878     		ldrb	r0, [r3]	@ zero_extendqisi2
 10954              	.LVL1397:
 10955              		.loc 1 1180 5 is_stmt 0 discriminator 2 view .LVU3114
 10956 0010 10B3     		cbz	r0, .L1150
 10957              		.loc 1 1180 5 is_stmt 1 discriminator 2 view .LVU3115
1181:../switch_sdk/core/yt/yt_l2.c ****     CMM_PARAM_CHK((NULL == pcnt), CMM_ERR_NULL_POINT);
 10958              		.loc 1 1181 5 discriminator 2 view .LVU3116
 10959              		.loc 1 1181 5 discriminator 2 view .LVU3117
 10960 0012 0029     		cmp	r1, #0
 10961 0014 2ED0     		beq	.L1151
 10962              		.loc 1 1181 5 discriminator 2 view .LVU3118
1182:../switch_sdk/core/yt/yt_l2.c **** 
1183:../switch_sdk/core/yt/yt_l2.c ****     return YT_DISPATCH(unit)->l2_mc_cnt_get(unit, pcnt);
 10963              		.loc 1 1183 5 discriminator 2 view .LVU3119
 10964              		.loc 1 1183 29 is_stmt 0 discriminator 2 view .LVU3120
 10965 0016 D3F80C34 		ldr	r3, [r3, #1036]
 10966              		.loc 1 1183 12 discriminator 2 view .LVU3121
 10967 001a 1046     		mov	r0, r2
 10968 001c 9847     		blx	r3
 10969              	.LVL1398:
 10970              	.L1137:
1184:../switch_sdk/core/yt/yt_l2.c **** }
 10971              		.loc 1 1184 1 view .LVU3122
 10972 001e 08BD     		pop	{r3, pc}
 10973              	.LVL1399:
 10974              	.L1148:
1178:../switch_sdk/core/yt/yt_l2.c ****     CMM_PARAM_CHK(NULL == YT_DISPATCH(unit), CMM_ERR_NOT_INIT);
 10975              		.loc 1 1178 5 is_stmt 1 discriminator 1 view .LVU3123
1178:../switch_sdk/core/yt/yt_l2.c ****     CMM_PARAM_CHK(NULL == YT_DISPATCH(unit), CMM_ERR_NOT_INIT);
 10976              		.loc 1 1178 5 discriminator 1 view .LVU3124
 10977 0020 1C4B     		ldr	r3, .L1156+4
 10978 0022 1B78     		ldrb	r3, [r3]	@ zero_extendqisi2
 10979 0024 012B     		cmp	r3, #1
 10980 0026 01D8     		bhi	.L1152
 10981              	.LVL1400:
 10982              	.L1139:
1178:../switch_sdk/core/yt/yt_l2.c ****     CMM_PARAM_CHK(NULL == YT_DISPATCH(unit), CMM_ERR_NOT_INIT);
 10983              		.loc 1 1178 5 discriminator 5 view .LVU3125
1178:../switch_sdk/core/yt/yt_l2.c ****     CMM_PARAM_CHK(NULL == YT_DISPATCH(unit), CMM_ERR_NOT_INIT);
 10984              		.loc 1 1178 5 discriminator 5 view .LVU3126
1178:../switch_sdk/core/yt/yt_l2.c ****     CMM_PARAM_CHK(NULL == YT_DISPATCH(unit), CMM_ERR_NOT_INIT);
 10985              		.loc 1 1178 5 discriminator 5 view .LVU3127
 10986 0028 0520     		movs	r0, #5
 10987 002a F8E7     		b	.L1137
 10988              	.LVL1401:
 10989              	.L1152:
1178:../switch_sdk/core/yt/yt_l2.c ****     CMM_PARAM_CHK(NULL == YT_DISPATCH(unit), CMM_ERR_NOT_INIT);
 10990              		.loc 1 1178 5 discriminator 3 view .LVU3128
 10991              	.LBB221:
1178:../switch_sdk/core/yt/yt_l2.c ****     CMM_PARAM_CHK(NULL == YT_DISPATCH(unit), CMM_ERR_NOT_INIT);
 10992              		.loc 1 1178 5 discriminator 3 view .LVU3129
 10993 002c 1A4B     		ldr	r3, .L1156+8
 10994 002e 5A69     		ldr	r2, [r3, #20]
 10995 0030 1A4B     		ldr	r3, .L1156+12
 10996 0032 9968     		ldr	r1, [r3, #8]
 10997              	.LVL1402:
1178:../switch_sdk/core/yt/yt_l2.c ****     CMM_PARAM_CHK(NULL == YT_DISPATCH(unit), CMM_ERR_NOT_INIT);
 10998              		.loc 1 1178 5 is_stmt 0 discriminator 3 view .LVU3130
 10999 0034 1A48     		ldr	r0, .L1156+16
 11000              	.LVL1403:
1178:../switch_sdk/core/yt/yt_l2.c ****     CMM_PARAM_CHK(NULL == YT_DISPATCH(unit), CMM_ERR_NOT_INIT);
 11001              		.loc 1 1178 5 discriminator 3 view .LVU3131
 11002 0036 FFF7FEFF 		bl	osal_printf
 11003              	.LVL1404:
 11004 003a F5E7     		b	.L1139
 11005              	.LVL1405:
 11006              	.L1149:
1178:../switch_sdk/core/yt/yt_l2.c ****     CMM_PARAM_CHK(NULL == YT_DISPATCH(unit), CMM_ERR_NOT_INIT);
 11007              		.loc 1 1178 5 discriminator 3 view .LVU3132
 11008              	.LBE221:
1179:../switch_sdk/core/yt/yt_l2.c ****     CMM_PARAM_CHK((!(YT_DISPATCH(unit)->is_inited)), CMM_ERR_NOT_INIT);
 11009              		.loc 1 1179 5 is_stmt 1 discriminator 1 view .LVU3133
1179:../switch_sdk/core/yt/yt_l2.c ****     CMM_PARAM_CHK((!(YT_DISPATCH(unit)->is_inited)), CMM_ERR_NOT_INIT);
 11010              		.loc 1 1179 5 discriminator 1 view .LVU3134
 11011 003c 154B     		ldr	r3, .L1156+4
 11012 003e 1B78     		ldrb	r3, [r3]	@ zero_extendqisi2
 11013 0040 012B     		cmp	r3, #1
 11014 0042 01D8     		bhi	.L1153
 11015              	.LVL1406:
 11016              	.L1142:
1179:../switch_sdk/core/yt/yt_l2.c ****     CMM_PARAM_CHK((!(YT_DISPATCH(unit)->is_inited)), CMM_ERR_NOT_INIT);
 11017              		.loc 1 1179 5 discriminator 5 view .LVU3135
1179:../switch_sdk/core/yt/yt_l2.c ****     CMM_PARAM_CHK((!(YT_DISPATCH(unit)->is_inited)), CMM_ERR_NOT_INIT);
 11018              		.loc 1 1179 5 discriminator 5 view .LVU3136
1179:../switch_sdk/core/yt/yt_l2.c ****     CMM_PARAM_CHK((!(YT_DISPATCH(unit)->is_inited)), CMM_ERR_NOT_INIT);
 11019              		.loc 1 1179 5 discriminator 5 view .LVU3137
 11020 0044 0420     		movs	r0, #4
 11021 0046 EAE7     		b	.L1137
 11022              	.LVL1407:
 11023              	.L1153:
1179:../switch_sdk/core/yt/yt_l2.c ****     CMM_PARAM_CHK((!(YT_DISPATCH(unit)->is_inited)), CMM_ERR_NOT_INIT);
 11024              		.loc 1 1179 5 discriminator 3 view .LVU3138
 11025              	.LBB222:
1179:../switch_sdk/core/yt/yt_l2.c ****     CMM_PARAM_CHK((!(YT_DISPATCH(unit)->is_inited)), CMM_ERR_NOT_INIT);
 11026              		.loc 1 1179 5 discriminator 3 view .LVU3139
 11027 0048 134B     		ldr	r3, .L1156+8
 11028 004a 1A69     		ldr	r2, [r3, #16]
 11029 004c 134B     		ldr	r3, .L1156+12
 11030 004e 9968     		ldr	r1, [r3, #8]
 11031              	.LVL1408:
1179:../switch_sdk/core/yt/yt_l2.c ****     CMM_PARAM_CHK((!(YT_DISPATCH(unit)->is_inited)), CMM_ERR_NOT_INIT);
 11032              		.loc 1 1179 5 is_stmt 0 discriminator 3 view .LVU3140
 11033 0050 1348     		ldr	r0, .L1156+16
 11034              	.LVL1409:
1179:../switch_sdk/core/yt/yt_l2.c ****     CMM_PARAM_CHK((!(YT_DISPATCH(unit)->is_inited)), CMM_ERR_NOT_INIT);
 11035              		.loc 1 1179 5 discriminator 3 view .LVU3141
 11036 0052 FFF7FEFF 		bl	osal_printf
 11037              	.LVL1410:
 11038 0056 F5E7     		b	.L1142
 11039              	.LVL1411:
 11040              	.L1150:
1179:../switch_sdk/core/yt/yt_l2.c ****     CMM_PARAM_CHK((!(YT_DISPATCH(unit)->is_inited)), CMM_ERR_NOT_INIT);
 11041              		.loc 1 1179 5 discriminator 3 view .LVU3142
 11042              	.LBE222:
1180:../switch_sdk/core/yt/yt_l2.c ****     CMM_PARAM_CHK((NULL == pcnt), CMM_ERR_NULL_POINT);
 11043              		.loc 1 1180 5 is_stmt 1 discriminator 1 view .LVU3143
1180:../switch_sdk/core/yt/yt_l2.c ****     CMM_PARAM_CHK((NULL == pcnt), CMM_ERR_NULL_POINT);
 11044              		.loc 1 1180 5 discriminator 1 view .LVU3144
 11045 0058 0E4B     		ldr	r3, .L1156+4
 11046 005a 1B78     		ldrb	r3, [r3]	@ zero_extendqisi2
 11047 005c 012B     		cmp	r3, #1
 11048 005e 01D8     		bhi	.L1154
 11049              	.LVL1412:
 11050              	.L1144:
1180:../switch_sdk/core/yt/yt_l2.c ****     CMM_PARAM_CHK((NULL == pcnt), CMM_ERR_NULL_POINT);
 11051              		.loc 1 1180 5 discriminator 5 view .LVU3145
1180:../switch_sdk/core/yt/yt_l2.c ****     CMM_PARAM_CHK((NULL == pcnt), CMM_ERR_NULL_POINT);
 11052              		.loc 1 1180 5 discriminator 5 view .LVU3146
1180:../switch_sdk/core/yt/yt_l2.c ****     CMM_PARAM_CHK((NULL == pcnt), CMM_ERR_NULL_POINT);
 11053              		.loc 1 1180 5 discriminator 5 view .LVU3147
 11054 0060 0420     		movs	r0, #4
 11055 0062 DCE7     		b	.L1137
 11056              	.LVL1413:
 11057              	.L1154:
1180:../switch_sdk/core/yt/yt_l2.c ****     CMM_PARAM_CHK((NULL == pcnt), CMM_ERR_NULL_POINT);
 11058              		.loc 1 1180 5 discriminator 3 view .LVU3148
 11059              	.LBB223:
1180:../switch_sdk/core/yt/yt_l2.c ****     CMM_PARAM_CHK((NULL == pcnt), CMM_ERR_NULL_POINT);
 11060              		.loc 1 1180 5 discriminator 3 view .LVU3149
 11061 0064 0C4B     		ldr	r3, .L1156+8
 11062 0066 1A69     		ldr	r2, [r3, #16]
 11063 0068 0C4B     		ldr	r3, .L1156+12
 11064 006a 9968     		ldr	r1, [r3, #8]
 11065              	.LVL1414:
1180:../switch_sdk/core/yt/yt_l2.c ****     CMM_PARAM_CHK((NULL == pcnt), CMM_ERR_NULL_POINT);
 11066              		.loc 1 1180 5 is_stmt 0 discriminator 3 view .LVU3150
 11067 006c 0C48     		ldr	r0, .L1156+16
 11068 006e FFF7FEFF 		bl	osal_printf
 11069              	.LVL1415:
 11070 0072 F5E7     		b	.L1144
 11071              	.LVL1416:
 11072              	.L1151:
1180:../switch_sdk/core/yt/yt_l2.c ****     CMM_PARAM_CHK((NULL == pcnt), CMM_ERR_NULL_POINT);
 11073              		.loc 1 1180 5 discriminator 3 view .LVU3151
 11074              	.LBE223:
1181:../switch_sdk/core/yt/yt_l2.c **** 
 11075              		.loc 1 1181 5 is_stmt 1 discriminator 1 view .LVU3152
1181:../switch_sdk/core/yt/yt_l2.c **** 
 11076              		.loc 1 1181 5 discriminator 1 view .LVU3153
 11077 0074 074B     		ldr	r3, .L1156+4
 11078 0076 1B78     		ldrb	r3, [r3]	@ zero_extendqisi2
 11079 0078 012B     		cmp	r3, #1
 11080 007a 01D8     		bhi	.L1155
 11081              	.LVL1417:
 11082              	.L1146:
1181:../switch_sdk/core/yt/yt_l2.c **** 
 11083              		.loc 1 1181 5 discriminator 5 view .LVU3154
1181:../switch_sdk/core/yt/yt_l2.c **** 
 11084              		.loc 1 1181 5 discriminator 5 view .LVU3155
1181:../switch_sdk/core/yt/yt_l2.c **** 
 11085              		.loc 1 1181 5 discriminator 5 view .LVU3156
 11086 007c 0220     		movs	r0, #2
 11087 007e CEE7     		b	.L1137
 11088              	.LVL1418:
 11089              	.L1155:
1181:../switch_sdk/core/yt/yt_l2.c **** 
 11090              		.loc 1 1181 5 discriminator 3 view .LVU3157
 11091              	.LBB224:
1181:../switch_sdk/core/yt/yt_l2.c **** 
 11092              		.loc 1 1181 5 discriminator 3 view .LVU3158
 11093 0080 054B     		ldr	r3, .L1156+8
 11094 0082 9A68     		ldr	r2, [r3, #8]
 11095 0084 054B     		ldr	r3, .L1156+12
 11096 0086 9968     		ldr	r1, [r3, #8]
 11097              	.LVL1419:
1181:../switch_sdk/core/yt/yt_l2.c **** 
 11098              		.loc 1 1181 5 is_stmt 0 discriminator 3 view .LVU3159
 11099 0088 0548     		ldr	r0, .L1156+16
 11100 008a FFF7FEFF 		bl	osal_printf
 11101              	.LVL1420:
 11102 008e F5E7     		b	.L1146
 11103              	.L1157:
 11104              		.align	2
 11105              	.L1156:
 11106 0090 00000000 		.word	gpfal_dispatch
 11107 0094 00000000 		.word	yt_debug_level
 11108 0098 00000000 		.word	_yt_errmsg
 11109 009c 00000000 		.word	_yt_prompt_msg
 11110 00a0 00000000 		.word	.LC0
 11111              	.LBE224:
 11112              		.cfi_endproc
 11113              	.LFE55:
 11115              		.section	.text.yt_l2_fdb_aging_port_en_set,"ax",%progbits
 11116              		.align	1
 11117              		.global	yt_l2_fdb_aging_port_en_set
 11118              		.syntax unified
 11119              		.thumb
 11120              		.thumb_func
 11122              	yt_l2_fdb_aging_port_en_set:
 11123              	.LVL1421:
 11124              	.LFB56:
1185:../switch_sdk/core/yt/yt_l2.c **** 
1186:../switch_sdk/core/yt/yt_l2.c **** /**
1187:../switch_sdk/core/yt/yt_l2.c ****  * @internal      yt_l2_fdb_aging_port_en_set
1188:../switch_sdk/core/yt/yt_l2.c ****  * @endinternal
1189:../switch_sdk/core/yt/yt_l2.c ****  *
1190:../switch_sdk/core/yt/yt_l2.c ****  * @brief         Description
1191:../switch_sdk/core/yt/yt_l2.c ****  * @note          APPLICABLE DEVICES  -Tiger
1192:../switch_sdk/core/yt/yt_l2.c ****  * @param[in]     unit                -unit id
1193:../switch_sdk/core/yt/yt_l2.c ****  * @param[in]     port                -port num
1194:../switch_sdk/core/yt/yt_l2.c ****  * @param[in]     enable              -enable or disable
1195:../switch_sdk/core/yt/yt_l2.c ****  * @retval        CMM_ERR_OK          -on success
1196:../switch_sdk/core/yt/yt_l2.c ****  * @retval        CMM_ERR_FAIL        -on fail
1197:../switch_sdk/core/yt/yt_l2.c ****  */
1198:../switch_sdk/core/yt/yt_l2.c **** yt_ret_t  yt_l2_fdb_aging_port_en_set(yt_unit_t unit, yt_port_t port, yt_enable_t enable)
1199:../switch_sdk/core/yt/yt_l2.c **** {
 11125              		.loc 1 1199 1 is_stmt 1 view -0
 11126              		.cfi_startproc
 11127              		@ args = 0, pretend = 0, frame = 0
 11128              		@ frame_needed = 0, uses_anonymous_args = 0
 11129              		.loc 1 1199 1 is_stmt 0 view .LVU3161
 11130 0000 08B5     		push	{r3, lr}
 11131              		.cfi_def_cfa_offset 8
 11132              		.cfi_offset 3, -8
 11133              		.cfi_offset 14, -4
1200:../switch_sdk/core/yt/yt_l2.c ****     CMM_PARAM_CHK((YT_UNIT_NUM <= unit), CMM_ERR_INPUT);
 11134              		.loc 1 1200 5 is_stmt 1 view .LVU3162
 11135              		.loc 1 1200 5 view .LVU3163
 11136 0002 C0B9     		cbnz	r0, .L1172
 11137 0004 8446     		mov	ip, r0
 11138              		.loc 1 1200 5 discriminator 2 view .LVU3164
1201:../switch_sdk/core/yt/yt_l2.c ****     CMM_PARAM_CHK(NULL == YT_DISPATCH(unit), CMM_ERR_NOT_INIT);
 11139              		.loc 1 1201 5 discriminator 2 view .LVU3165
 11140              		.loc 1 1201 5 discriminator 2 view .LVU3166
 11141 0006 2F4B     		ldr	r3, .L1181
 11142 0008 53F82030 		ldr	r3, [r3, r0, lsl #2]
 11143 000c 0BB3     		cbz	r3, .L1173
 11144              		.loc 1 1201 5 discriminator 2 view .LVU3167
1202:../switch_sdk/core/yt/yt_l2.c ****     CMM_PARAM_CHK((!(YT_DISPATCH(unit)->is_inited)), CMM_ERR_NOT_INIT);
 11145              		.loc 1 1202 5 discriminator 2 view .LVU3168
 11146              		.loc 1 1202 5 discriminator 2 view .LVU3169
 11147 000e 1878     		ldrb	r0, [r3]	@ zero_extendqisi2
 11148              	.LVL1422:
 11149              		.loc 1 1202 5 is_stmt 0 discriminator 2 view .LVU3170
 11150 0010 0028     		cmp	r0, #0
 11151 0012 2CD0     		beq	.L1174
 11152              		.loc 1 1202 5 is_stmt 1 discriminator 2 view .LVU3171
1203:../switch_sdk/core/yt/yt_l2.c ****     CMM_PARAM_CHK((!(CMM_PORT_VALID(unit, port))), CMM_ERR_PORT);
 11153              		.loc 1 1203 5 discriminator 2 view .LVU3172
 11154              		.loc 1 1203 5 discriminator 2 view .LVU3173
 11155 0014 2C48     		ldr	r0, .L1181+4
 11156 0016 0078     		ldrb	r0, [r0]	@ zero_extendqisi2
 11157 0018 0028     		cmp	r0, #0
 11158 001a 36D0     		beq	.L1166
 11159 001c 2B48     		ldr	r0, .L1181+8
 11160 001e 50F82C00 		ldr	r0, [r0, ip, lsl #2]
 11161 0022 007D     		ldrb	r0, [r0, #20]	@ zero_extendqisi2
 11162 0024 8842     		cmp	r0, r1
 11163 0026 30D9     		bls	.L1166
 11164              		.loc 1 1203 5 discriminator 4 view .LVU3174
1204:../switch_sdk/core/yt/yt_l2.c ****     CMM_PARAM_CHK((YT_ENABLE < enable || YT_DISABLE > enable), CMM_ERR_INPUT);
 11165              		.loc 1 1204 5 discriminator 4 view .LVU3175
 11166              		.loc 1 1204 5 discriminator 4 view .LVU3176
 11167 0028 012A     		cmp	r2, #1
 11168 002a 3CD8     		bhi	.L1175
 11169              		.loc 1 1204 5 discriminator 2 view .LVU3177
1205:../switch_sdk/core/yt/yt_l2.c **** 
1206:../switch_sdk/core/yt/yt_l2.c ****     return YT_DISPATCH(unit)->l2_fdb_aging_port_en_set(unit, port, enable);
 11170              		.loc 1 1206 5 discriminator 2 view .LVU3178
 11171              		.loc 1 1206 29 is_stmt 0 discriminator 2 view .LVU3179
 11172 002c D3F81034 		ldr	r3, [r3, #1040]
 11173              		.loc 1 1206 12 discriminator 2 view .LVU3180
 11174 0030 6046     		mov	r0, ip
 11175 0032 9847     		blx	r3
 11176              	.LVL1423:
 11177              	.L1158:
1207:../switch_sdk/core/yt/yt_l2.c **** }
 11178              		.loc 1 1207 1 view .LVU3181
 11179 0034 08BD     		pop	{r3, pc}
 11180              	.LVL1424:
 11181              	.L1172:
1200:../switch_sdk/core/yt/yt_l2.c ****     CMM_PARAM_CHK(NULL == YT_DISPATCH(unit), CMM_ERR_NOT_INIT);
 11182              		.loc 1 1200 5 is_stmt 1 discriminator 1 view .LVU3182
1200:../switch_sdk/core/yt/yt_l2.c ****     CMM_PARAM_CHK(NULL == YT_DISPATCH(unit), CMM_ERR_NOT_INIT);
 11183              		.loc 1 1200 5 discriminator 1 view .LVU3183
 11184 0036 264B     		ldr	r3, .L1181+12
 11185 0038 1B78     		ldrb	r3, [r3]	@ zero_extendqisi2
 11186 003a 012B     		cmp	r3, #1
 11187 003c 01D8     		bhi	.L1176
 11188              	.LVL1425:
 11189              	.L1160:
1200:../switch_sdk/core/yt/yt_l2.c ****     CMM_PARAM_CHK(NULL == YT_DISPATCH(unit), CMM_ERR_NOT_INIT);
 11190              		.loc 1 1200 5 discriminator 5 view .LVU3184
1200:../switch_sdk/core/yt/yt_l2.c ****     CMM_PARAM_CHK(NULL == YT_DISPATCH(unit), CMM_ERR_NOT_INIT);
 11191              		.loc 1 1200 5 discriminator 5 view .LVU3185
1200:../switch_sdk/core/yt/yt_l2.c ****     CMM_PARAM_CHK(NULL == YT_DISPATCH(unit), CMM_ERR_NOT_INIT);
 11192              		.loc 1 1200 5 discriminator 5 view .LVU3186
 11193 003e 0520     		movs	r0, #5
 11194 0040 F8E7     		b	.L1158
 11195              	.LVL1426:
 11196              	.L1176:
1200:../switch_sdk/core/yt/yt_l2.c ****     CMM_PARAM_CHK(NULL == YT_DISPATCH(unit), CMM_ERR_NOT_INIT);
 11197              		.loc 1 1200 5 discriminator 3 view .LVU3187
 11198              	.LBB225:
1200:../switch_sdk/core/yt/yt_l2.c ****     CMM_PARAM_CHK(NULL == YT_DISPATCH(unit), CMM_ERR_NOT_INIT);
 11199              		.loc 1 1200 5 discriminator 3 view .LVU3188
 11200 0042 244B     		ldr	r3, .L1181+16
 11201 0044 5A69     		ldr	r2, [r3, #20]
 11202              	.LVL1427:
1200:../switch_sdk/core/yt/yt_l2.c ****     CMM_PARAM_CHK(NULL == YT_DISPATCH(unit), CMM_ERR_NOT_INIT);
 11203              		.loc 1 1200 5 is_stmt 0 discriminator 3 view .LVU3189
 11204 0046 244B     		ldr	r3, .L1181+20
 11205 0048 9968     		ldr	r1, [r3, #8]
 11206              	.LVL1428:
1200:../switch_sdk/core/yt/yt_l2.c ****     CMM_PARAM_CHK(NULL == YT_DISPATCH(unit), CMM_ERR_NOT_INIT);
 11207              		.loc 1 1200 5 discriminator 3 view .LVU3190
 11208 004a 2448     		ldr	r0, .L1181+24
 11209              	.LVL1429:
1200:../switch_sdk/core/yt/yt_l2.c ****     CMM_PARAM_CHK(NULL == YT_DISPATCH(unit), CMM_ERR_NOT_INIT);
 11210              		.loc 1 1200 5 discriminator 3 view .LVU3191
 11211 004c FFF7FEFF 		bl	osal_printf
 11212              	.LVL1430:
 11213 0050 F5E7     		b	.L1160
 11214              	.LVL1431:
 11215              	.L1173:
1200:../switch_sdk/core/yt/yt_l2.c ****     CMM_PARAM_CHK(NULL == YT_DISPATCH(unit), CMM_ERR_NOT_INIT);
 11216              		.loc 1 1200 5 discriminator 3 view .LVU3192
 11217              	.LBE225:
1201:../switch_sdk/core/yt/yt_l2.c ****     CMM_PARAM_CHK((!(YT_DISPATCH(unit)->is_inited)), CMM_ERR_NOT_INIT);
 11218              		.loc 1 1201 5 is_stmt 1 discriminator 1 view .LVU3193
1201:../switch_sdk/core/yt/yt_l2.c ****     CMM_PARAM_CHK((!(YT_DISPATCH(unit)->is_inited)), CMM_ERR_NOT_INIT);
 11219              		.loc 1 1201 5 discriminator 1 view .LVU3194
 11220 0052 1F4B     		ldr	r3, .L1181+12
 11221 0054 1B78     		ldrb	r3, [r3]	@ zero_extendqisi2
 11222 0056 012B     		cmp	r3, #1
 11223 0058 01D8     		bhi	.L1177
 11224              	.LVL1432:
 11225              	.L1163:
1201:../switch_sdk/core/yt/yt_l2.c ****     CMM_PARAM_CHK((!(YT_DISPATCH(unit)->is_inited)), CMM_ERR_NOT_INIT);
 11226              		.loc 1 1201 5 discriminator 5 view .LVU3195
1201:../switch_sdk/core/yt/yt_l2.c ****     CMM_PARAM_CHK((!(YT_DISPATCH(unit)->is_inited)), CMM_ERR_NOT_INIT);
 11227              		.loc 1 1201 5 discriminator 5 view .LVU3196
1201:../switch_sdk/core/yt/yt_l2.c ****     CMM_PARAM_CHK((!(YT_DISPATCH(unit)->is_inited)), CMM_ERR_NOT_INIT);
 11228              		.loc 1 1201 5 discriminator 5 view .LVU3197
 11229 005a 0420     		movs	r0, #4
 11230 005c EAE7     		b	.L1158
 11231              	.LVL1433:
 11232              	.L1177:
1201:../switch_sdk/core/yt/yt_l2.c ****     CMM_PARAM_CHK((!(YT_DISPATCH(unit)->is_inited)), CMM_ERR_NOT_INIT);
 11233              		.loc 1 1201 5 discriminator 3 view .LVU3198
 11234              	.LBB226:
1201:../switch_sdk/core/yt/yt_l2.c ****     CMM_PARAM_CHK((!(YT_DISPATCH(unit)->is_inited)), CMM_ERR_NOT_INIT);
 11235              		.loc 1 1201 5 discriminator 3 view .LVU3199
 11236 005e 1D4B     		ldr	r3, .L1181+16
 11237 0060 1A69     		ldr	r2, [r3, #16]
 11238              	.LVL1434:
1201:../switch_sdk/core/yt/yt_l2.c ****     CMM_PARAM_CHK((!(YT_DISPATCH(unit)->is_inited)), CMM_ERR_NOT_INIT);
 11239              		.loc 1 1201 5 is_stmt 0 discriminator 3 view .LVU3200
 11240 0062 1D4B     		ldr	r3, .L1181+20
 11241 0064 9968     		ldr	r1, [r3, #8]
 11242              	.LVL1435:
1201:../switch_sdk/core/yt/yt_l2.c ****     CMM_PARAM_CHK((!(YT_DISPATCH(unit)->is_inited)), CMM_ERR_NOT_INIT);
 11243              		.loc 1 1201 5 discriminator 3 view .LVU3201
 11244 0066 1D48     		ldr	r0, .L1181+24
 11245              	.LVL1436:
1201:../switch_sdk/core/yt/yt_l2.c ****     CMM_PARAM_CHK((!(YT_DISPATCH(unit)->is_inited)), CMM_ERR_NOT_INIT);
 11246              		.loc 1 1201 5 discriminator 3 view .LVU3202
 11247 0068 FFF7FEFF 		bl	osal_printf
 11248              	.LVL1437:
 11249 006c F5E7     		b	.L1163
 11250              	.LVL1438:
 11251              	.L1174:
1201:../switch_sdk/core/yt/yt_l2.c ****     CMM_PARAM_CHK((!(YT_DISPATCH(unit)->is_inited)), CMM_ERR_NOT_INIT);
 11252              		.loc 1 1201 5 discriminator 3 view .LVU3203
 11253              	.LBE226:
1202:../switch_sdk/core/yt/yt_l2.c ****     CMM_PARAM_CHK((!(CMM_PORT_VALID(unit, port))), CMM_ERR_PORT);
 11254              		.loc 1 1202 5 is_stmt 1 discriminator 1 view .LVU3204
1202:../switch_sdk/core/yt/yt_l2.c ****     CMM_PARAM_CHK((!(CMM_PORT_VALID(unit, port))), CMM_ERR_PORT);
 11255              		.loc 1 1202 5 discriminator 1 view .LVU3205
 11256 006e 184B     		ldr	r3, .L1181+12
 11257 0070 1B78     		ldrb	r3, [r3]	@ zero_extendqisi2
 11258 0072 012B     		cmp	r3, #1
 11259 0074 01D8     		bhi	.L1178
 11260              	.LVL1439:
 11261              	.L1165:
1202:../switch_sdk/core/yt/yt_l2.c ****     CMM_PARAM_CHK((!(CMM_PORT_VALID(unit, port))), CMM_ERR_PORT);
 11262              		.loc 1 1202 5 discriminator 5 view .LVU3206
1202:../switch_sdk/core/yt/yt_l2.c ****     CMM_PARAM_CHK((!(CMM_PORT_VALID(unit, port))), CMM_ERR_PORT);
 11263              		.loc 1 1202 5 discriminator 5 view .LVU3207
1202:../switch_sdk/core/yt/yt_l2.c ****     CMM_PARAM_CHK((!(CMM_PORT_VALID(unit, port))), CMM_ERR_PORT);
 11264              		.loc 1 1202 5 discriminator 5 view .LVU3208
 11265 0076 0420     		movs	r0, #4
 11266 0078 DCE7     		b	.L1158
 11267              	.LVL1440:
 11268              	.L1178:
1202:../switch_sdk/core/yt/yt_l2.c ****     CMM_PARAM_CHK((!(CMM_PORT_VALID(unit, port))), CMM_ERR_PORT);
 11269              		.loc 1 1202 5 discriminator 3 view .LVU3209
 11270              	.LBB227:
1202:../switch_sdk/core/yt/yt_l2.c ****     CMM_PARAM_CHK((!(CMM_PORT_VALID(unit, port))), CMM_ERR_PORT);
 11271              		.loc 1 1202 5 discriminator 3 view .LVU3210
 11272 007a 164B     		ldr	r3, .L1181+16
 11273 007c 1A69     		ldr	r2, [r3, #16]
 11274              	.LVL1441:
1202:../switch_sdk/core/yt/yt_l2.c ****     CMM_PARAM_CHK((!(CMM_PORT_VALID(unit, port))), CMM_ERR_PORT);
 11275              		.loc 1 1202 5 is_stmt 0 discriminator 3 view .LVU3211
 11276 007e 164B     		ldr	r3, .L1181+20
 11277 0080 9968     		ldr	r1, [r3, #8]
 11278              	.LVL1442:
1202:../switch_sdk/core/yt/yt_l2.c ****     CMM_PARAM_CHK((!(CMM_PORT_VALID(unit, port))), CMM_ERR_PORT);
 11279              		.loc 1 1202 5 discriminator 3 view .LVU3212
 11280 0082 1648     		ldr	r0, .L1181+24
 11281 0084 FFF7FEFF 		bl	osal_printf
 11282              	.LVL1443:
 11283 0088 F5E7     		b	.L1165
 11284              	.LVL1444:
 11285              	.L1166:
1202:../switch_sdk/core/yt/yt_l2.c ****     CMM_PARAM_CHK((!(CMM_PORT_VALID(unit, port))), CMM_ERR_PORT);
 11286              		.loc 1 1202 5 discriminator 3 view .LVU3213
 11287              	.LBE227:
1203:../switch_sdk/core/yt/yt_l2.c ****     CMM_PARAM_CHK((YT_ENABLE < enable || YT_DISABLE > enable), CMM_ERR_INPUT);
 11288              		.loc 1 1203 5 is_stmt 1 discriminator 3 view .LVU3214
1203:../switch_sdk/core/yt/yt_l2.c ****     CMM_PARAM_CHK((YT_ENABLE < enable || YT_DISABLE > enable), CMM_ERR_INPUT);
 11289              		.loc 1 1203 5 discriminator 3 view .LVU3215
 11290 008a 114B     		ldr	r3, .L1181+12
 11291 008c 1B78     		ldrb	r3, [r3]	@ zero_extendqisi2
 11292 008e 012B     		cmp	r3, #1
 11293 0090 01D8     		bhi	.L1179
 11294              	.LVL1445:
 11295              	.L1168:
1203:../switch_sdk/core/yt/yt_l2.c ****     CMM_PARAM_CHK((YT_ENABLE < enable || YT_DISABLE > enable), CMM_ERR_INPUT);
 11296              		.loc 1 1203 5 discriminator 7 view .LVU3216
1203:../switch_sdk/core/yt/yt_l2.c ****     CMM_PARAM_CHK((YT_ENABLE < enable || YT_DISABLE > enable), CMM_ERR_INPUT);
 11297              		.loc 1 1203 5 discriminator 7 view .LVU3217
1203:../switch_sdk/core/yt/yt_l2.c ****     CMM_PARAM_CHK((YT_ENABLE < enable || YT_DISABLE > enable), CMM_ERR_INPUT);
 11298              		.loc 1 1203 5 discriminator 7 view .LVU3218
 11299 0092 0E20     		movs	r0, #14
 11300 0094 CEE7     		b	.L1158
 11301              	.LVL1446:
 11302              	.L1179:
1203:../switch_sdk/core/yt/yt_l2.c ****     CMM_PARAM_CHK((YT_ENABLE < enable || YT_DISABLE > enable), CMM_ERR_INPUT);
 11303              		.loc 1 1203 5 discriminator 5 view .LVU3219
 11304              	.LBB228:
1203:../switch_sdk/core/yt/yt_l2.c ****     CMM_PARAM_CHK((YT_ENABLE < enable || YT_DISABLE > enable), CMM_ERR_INPUT);
 11305              		.loc 1 1203 5 discriminator 5 view .LVU3220
 11306 0096 0F4B     		ldr	r3, .L1181+16
 11307 0098 9A6B     		ldr	r2, [r3, #56]
 11308              	.LVL1447:
1203:../switch_sdk/core/yt/yt_l2.c ****     CMM_PARAM_CHK((YT_ENABLE < enable || YT_DISABLE > enable), CMM_ERR_INPUT);
 11309              		.loc 1 1203 5 is_stmt 0 discriminator 5 view .LVU3221
 11310 009a 0F4B     		ldr	r3, .L1181+20
 11311 009c 9968     		ldr	r1, [r3, #8]
 11312              	.LVL1448:
1203:../switch_sdk/core/yt/yt_l2.c ****     CMM_PARAM_CHK((YT_ENABLE < enable || YT_DISABLE > enable), CMM_ERR_INPUT);
 11313              		.loc 1 1203 5 discriminator 5 view .LVU3222
 11314 009e 0F48     		ldr	r0, .L1181+24
 11315 00a0 FFF7FEFF 		bl	osal_printf
 11316              	.LVL1449:
 11317 00a4 F5E7     		b	.L1168
 11318              	.LVL1450:
 11319              	.L1175:
1203:../switch_sdk/core/yt/yt_l2.c ****     CMM_PARAM_CHK((YT_ENABLE < enable || YT_DISABLE > enable), CMM_ERR_INPUT);
 11320              		.loc 1 1203 5 discriminator 5 view .LVU3223
 11321              	.LBE228:
1204:../switch_sdk/core/yt/yt_l2.c **** 
 11322              		.loc 1 1204 5 is_stmt 1 discriminator 1 view .LVU3224
1204:../switch_sdk/core/yt/yt_l2.c **** 
 11323              		.loc 1 1204 5 discriminator 1 view .LVU3225
 11324 00a6 0A4B     		ldr	r3, .L1181+12
 11325 00a8 1B78     		ldrb	r3, [r3]	@ zero_extendqisi2
 11326 00aa 012B     		cmp	r3, #1
 11327 00ac 01D8     		bhi	.L1180
 11328              	.LVL1451:
 11329              	.L1170:
1204:../switch_sdk/core/yt/yt_l2.c **** 
 11330              		.loc 1 1204 5 discriminator 5 view .LVU3226
1204:../switch_sdk/core/yt/yt_l2.c **** 
 11331              		.loc 1 1204 5 discriminator 5 view .LVU3227
1204:../switch_sdk/core/yt/yt_l2.c **** 
 11332              		.loc 1 1204 5 discriminator 5 view .LVU3228
 11333 00ae 0520     		movs	r0, #5
 11334 00b0 C0E7     		b	.L1158
 11335              	.LVL1452:
 11336              	.L1180:
1204:../switch_sdk/core/yt/yt_l2.c **** 
 11337              		.loc 1 1204 5 discriminator 3 view .LVU3229
 11338              	.LBB229:
1204:../switch_sdk/core/yt/yt_l2.c **** 
 11339              		.loc 1 1204 5 discriminator 3 view .LVU3230
 11340 00b2 084B     		ldr	r3, .L1181+16
 11341 00b4 5A69     		ldr	r2, [r3, #20]
 11342              	.LVL1453:
1204:../switch_sdk/core/yt/yt_l2.c **** 
 11343              		.loc 1 1204 5 is_stmt 0 discriminator 3 view .LVU3231
 11344 00b6 084B     		ldr	r3, .L1181+20
 11345 00b8 9968     		ldr	r1, [r3, #8]
 11346              	.LVL1454:
1204:../switch_sdk/core/yt/yt_l2.c **** 
 11347              		.loc 1 1204 5 discriminator 3 view .LVU3232
 11348 00ba 0848     		ldr	r0, .L1181+24
 11349 00bc FFF7FEFF 		bl	osal_printf
 11350              	.LVL1455:
 11351 00c0 F5E7     		b	.L1170
 11352              	.L1182:
 11353 00c2 00BF     		.align	2
 11354              	.L1181:
 11355 00c4 00000000 		.word	gpfal_dispatch
 11356 00c8 00000000 		.word	gcal_inited
 11357 00cc 00000000 		.word	gpSwitchUnit
 11358 00d0 00000000 		.word	yt_debug_level
 11359 00d4 00000000 		.word	_yt_errmsg
 11360 00d8 00000000 		.word	_yt_prompt_msg
 11361 00dc 00000000 		.word	.LC0
 11362              	.LBE229:
 11363              		.cfi_endproc
 11364              	.LFE56:
 11366              		.section	.text.yt_l2_fdb_aging_port_en_get,"ax",%progbits
 11367              		.align	1
 11368              		.global	yt_l2_fdb_aging_port_en_get
 11369              		.syntax unified
 11370              		.thumb
 11371              		.thumb_func
 11373              	yt_l2_fdb_aging_port_en_get:
 11374              	.LVL1456:
 11375              	.LFB57:
1208:../switch_sdk/core/yt/yt_l2.c **** 
1209:../switch_sdk/core/yt/yt_l2.c **** /**
1210:../switch_sdk/core/yt/yt_l2.c ****  * @internal      yt_l2_fdb_aging_port_en_get
1211:../switch_sdk/core/yt/yt_l2.c ****  * @endinternal
1212:../switch_sdk/core/yt/yt_l2.c ****  *
1213:../switch_sdk/core/yt/yt_l2.c ****  * @brief         Description
1214:../switch_sdk/core/yt/yt_l2.c ****  * @note          APPLICABLE DEVICES  -Tiger
1215:../switch_sdk/core/yt/yt_l2.c ****  * @param[in]     unit                -unit id
1216:../switch_sdk/core/yt/yt_l2.c ****  * @param[in]     port                -port num
1217:../switch_sdk/core/yt/yt_l2.c ****  * @param[out]    pEnable             -enable or disable
1218:../switch_sdk/core/yt/yt_l2.c ****  * @retval        CMM_ERR_OK          -on success
1219:../switch_sdk/core/yt/yt_l2.c ****  * @retval        CMM_ERR_FAIL        -on fail
1220:../switch_sdk/core/yt/yt_l2.c ****  */
1221:../switch_sdk/core/yt/yt_l2.c **** yt_ret_t  yt_l2_fdb_aging_port_en_get(yt_unit_t unit, yt_port_t port, yt_enable_t *pEnable)
1222:../switch_sdk/core/yt/yt_l2.c **** {
 11376              		.loc 1 1222 1 is_stmt 1 view -0
 11377              		.cfi_startproc
 11378              		@ args = 0, pretend = 0, frame = 0
 11379              		@ frame_needed = 0, uses_anonymous_args = 0
 11380              		.loc 1 1222 1 is_stmt 0 view .LVU3234
 11381 0000 08B5     		push	{r3, lr}
 11382              		.cfi_def_cfa_offset 8
 11383              		.cfi_offset 3, -8
 11384              		.cfi_offset 14, -4
1223:../switch_sdk/core/yt/yt_l2.c ****     CMM_PARAM_CHK((YT_UNIT_NUM <= unit), CMM_ERR_INPUT);
 11385              		.loc 1 1223 5 is_stmt 1 view .LVU3235
 11386              		.loc 1 1223 5 view .LVU3236
 11387 0002 C0B9     		cbnz	r0, .L1197
 11388 0004 8446     		mov	ip, r0
 11389              		.loc 1 1223 5 discriminator 2 view .LVU3237
1224:../switch_sdk/core/yt/yt_l2.c ****     CMM_PARAM_CHK(NULL == YT_DISPATCH(unit), CMM_ERR_NOT_INIT);
 11390              		.loc 1 1224 5 discriminator 2 view .LVU3238
 11391              		.loc 1 1224 5 discriminator 2 view .LVU3239
 11392 0006 2F4B     		ldr	r3, .L1206
 11393 0008 53F82030 		ldr	r3, [r3, r0, lsl #2]
 11394 000c 0BB3     		cbz	r3, .L1198
 11395              		.loc 1 1224 5 discriminator 2 view .LVU3240
1225:../switch_sdk/core/yt/yt_l2.c ****     CMM_PARAM_CHK((!(YT_DISPATCH(unit)->is_inited)), CMM_ERR_NOT_INIT);
 11396              		.loc 1 1225 5 discriminator 2 view .LVU3241
 11397              		.loc 1 1225 5 discriminator 2 view .LVU3242
 11398 000e 1878     		ldrb	r0, [r3]	@ zero_extendqisi2
 11399              	.LVL1457:
 11400              		.loc 1 1225 5 is_stmt 0 discriminator 2 view .LVU3243
 11401 0010 0028     		cmp	r0, #0
 11402 0012 2CD0     		beq	.L1199
 11403              		.loc 1 1225 5 is_stmt 1 discriminator 2 view .LVU3244
1226:../switch_sdk/core/yt/yt_l2.c ****     CMM_PARAM_CHK((!(CMM_PORT_VALID(unit, port))), CMM_ERR_PORT);
 11404              		.loc 1 1226 5 discriminator 2 view .LVU3245
 11405              		.loc 1 1226 5 discriminator 2 view .LVU3246
 11406 0014 2C48     		ldr	r0, .L1206+4
 11407 0016 0078     		ldrb	r0, [r0]	@ zero_extendqisi2
 11408 0018 0028     		cmp	r0, #0
 11409 001a 36D0     		beq	.L1191
 11410 001c 2B48     		ldr	r0, .L1206+8
 11411 001e 50F82C00 		ldr	r0, [r0, ip, lsl #2]
 11412 0022 007D     		ldrb	r0, [r0, #20]	@ zero_extendqisi2
 11413 0024 8842     		cmp	r0, r1
 11414 0026 30D9     		bls	.L1191
 11415              		.loc 1 1226 5 discriminator 4 view .LVU3247
1227:../switch_sdk/core/yt/yt_l2.c ****     CMM_PARAM_CHK((NULL == pEnable), CMM_ERR_NULL_POINT);
 11416              		.loc 1 1227 5 discriminator 4 view .LVU3248
 11417              		.loc 1 1227 5 discriminator 4 view .LVU3249
 11418 0028 002A     		cmp	r2, #0
 11419 002a 3CD0     		beq	.L1200
 11420              		.loc 1 1227 5 discriminator 2 view .LVU3250
1228:../switch_sdk/core/yt/yt_l2.c **** 
1229:../switch_sdk/core/yt/yt_l2.c ****     return YT_DISPATCH(unit)->l2_fdb_aging_port_en_get(unit, port, pEnable);
 11421              		.loc 1 1229 5 discriminator 2 view .LVU3251
 11422              		.loc 1 1229 29 is_stmt 0 discriminator 2 view .LVU3252
 11423 002c D3F81434 		ldr	r3, [r3, #1044]
 11424              		.loc 1 1229 12 discriminator 2 view .LVU3253
 11425 0030 6046     		mov	r0, ip
 11426 0032 9847     		blx	r3
 11427              	.LVL1458:
 11428              	.L1183:
1230:../switch_sdk/core/yt/yt_l2.c **** }
 11429              		.loc 1 1230 1 view .LVU3254
 11430 0034 08BD     		pop	{r3, pc}
 11431              	.LVL1459:
 11432              	.L1197:
1223:../switch_sdk/core/yt/yt_l2.c ****     CMM_PARAM_CHK(NULL == YT_DISPATCH(unit), CMM_ERR_NOT_INIT);
 11433              		.loc 1 1223 5 is_stmt 1 discriminator 1 view .LVU3255
1223:../switch_sdk/core/yt/yt_l2.c ****     CMM_PARAM_CHK(NULL == YT_DISPATCH(unit), CMM_ERR_NOT_INIT);
 11434              		.loc 1 1223 5 discriminator 1 view .LVU3256
 11435 0036 264B     		ldr	r3, .L1206+12
 11436 0038 1B78     		ldrb	r3, [r3]	@ zero_extendqisi2
 11437 003a 012B     		cmp	r3, #1
 11438 003c 01D8     		bhi	.L1201
 11439              	.LVL1460:
 11440              	.L1185:
1223:../switch_sdk/core/yt/yt_l2.c ****     CMM_PARAM_CHK(NULL == YT_DISPATCH(unit), CMM_ERR_NOT_INIT);
 11441              		.loc 1 1223 5 discriminator 5 view .LVU3257
1223:../switch_sdk/core/yt/yt_l2.c ****     CMM_PARAM_CHK(NULL == YT_DISPATCH(unit), CMM_ERR_NOT_INIT);
 11442              		.loc 1 1223 5 discriminator 5 view .LVU3258
1223:../switch_sdk/core/yt/yt_l2.c ****     CMM_PARAM_CHK(NULL == YT_DISPATCH(unit), CMM_ERR_NOT_INIT);
 11443              		.loc 1 1223 5 discriminator 5 view .LVU3259
 11444 003e 0520     		movs	r0, #5
 11445 0040 F8E7     		b	.L1183
 11446              	.LVL1461:
 11447              	.L1201:
1223:../switch_sdk/core/yt/yt_l2.c ****     CMM_PARAM_CHK(NULL == YT_DISPATCH(unit), CMM_ERR_NOT_INIT);
 11448              		.loc 1 1223 5 discriminator 3 view .LVU3260
 11449              	.LBB230:
1223:../switch_sdk/core/yt/yt_l2.c ****     CMM_PARAM_CHK(NULL == YT_DISPATCH(unit), CMM_ERR_NOT_INIT);
 11450              		.loc 1 1223 5 discriminator 3 view .LVU3261
 11451 0042 244B     		ldr	r3, .L1206+16
 11452 0044 5A69     		ldr	r2, [r3, #20]
 11453              	.LVL1462:
1223:../switch_sdk/core/yt/yt_l2.c ****     CMM_PARAM_CHK(NULL == YT_DISPATCH(unit), CMM_ERR_NOT_INIT);
 11454              		.loc 1 1223 5 is_stmt 0 discriminator 3 view .LVU3262
 11455 0046 244B     		ldr	r3, .L1206+20
 11456 0048 9968     		ldr	r1, [r3, #8]
 11457              	.LVL1463:
1223:../switch_sdk/core/yt/yt_l2.c ****     CMM_PARAM_CHK(NULL == YT_DISPATCH(unit), CMM_ERR_NOT_INIT);
 11458              		.loc 1 1223 5 discriminator 3 view .LVU3263
 11459 004a 2448     		ldr	r0, .L1206+24
 11460              	.LVL1464:
1223:../switch_sdk/core/yt/yt_l2.c ****     CMM_PARAM_CHK(NULL == YT_DISPATCH(unit), CMM_ERR_NOT_INIT);
 11461              		.loc 1 1223 5 discriminator 3 view .LVU3264
 11462 004c FFF7FEFF 		bl	osal_printf
 11463              	.LVL1465:
 11464 0050 F5E7     		b	.L1185
 11465              	.LVL1466:
 11466              	.L1198:
1223:../switch_sdk/core/yt/yt_l2.c ****     CMM_PARAM_CHK(NULL == YT_DISPATCH(unit), CMM_ERR_NOT_INIT);
 11467              		.loc 1 1223 5 discriminator 3 view .LVU3265
 11468              	.LBE230:
1224:../switch_sdk/core/yt/yt_l2.c ****     CMM_PARAM_CHK((!(YT_DISPATCH(unit)->is_inited)), CMM_ERR_NOT_INIT);
 11469              		.loc 1 1224 5 is_stmt 1 discriminator 1 view .LVU3266
1224:../switch_sdk/core/yt/yt_l2.c ****     CMM_PARAM_CHK((!(YT_DISPATCH(unit)->is_inited)), CMM_ERR_NOT_INIT);
 11470              		.loc 1 1224 5 discriminator 1 view .LVU3267
 11471 0052 1F4B     		ldr	r3, .L1206+12
 11472 0054 1B78     		ldrb	r3, [r3]	@ zero_extendqisi2
 11473 0056 012B     		cmp	r3, #1
 11474 0058 01D8     		bhi	.L1202
 11475              	.LVL1467:
 11476              	.L1188:
1224:../switch_sdk/core/yt/yt_l2.c ****     CMM_PARAM_CHK((!(YT_DISPATCH(unit)->is_inited)), CMM_ERR_NOT_INIT);
 11477              		.loc 1 1224 5 discriminator 5 view .LVU3268
1224:../switch_sdk/core/yt/yt_l2.c ****     CMM_PARAM_CHK((!(YT_DISPATCH(unit)->is_inited)), CMM_ERR_NOT_INIT);
 11478              		.loc 1 1224 5 discriminator 5 view .LVU3269
1224:../switch_sdk/core/yt/yt_l2.c ****     CMM_PARAM_CHK((!(YT_DISPATCH(unit)->is_inited)), CMM_ERR_NOT_INIT);
 11479              		.loc 1 1224 5 discriminator 5 view .LVU3270
 11480 005a 0420     		movs	r0, #4
 11481 005c EAE7     		b	.L1183
 11482              	.LVL1468:
 11483              	.L1202:
1224:../switch_sdk/core/yt/yt_l2.c ****     CMM_PARAM_CHK((!(YT_DISPATCH(unit)->is_inited)), CMM_ERR_NOT_INIT);
 11484              		.loc 1 1224 5 discriminator 3 view .LVU3271
 11485              	.LBB231:
1224:../switch_sdk/core/yt/yt_l2.c ****     CMM_PARAM_CHK((!(YT_DISPATCH(unit)->is_inited)), CMM_ERR_NOT_INIT);
 11486              		.loc 1 1224 5 discriminator 3 view .LVU3272
 11487 005e 1D4B     		ldr	r3, .L1206+16
 11488 0060 1A69     		ldr	r2, [r3, #16]
 11489              	.LVL1469:
1224:../switch_sdk/core/yt/yt_l2.c ****     CMM_PARAM_CHK((!(YT_DISPATCH(unit)->is_inited)), CMM_ERR_NOT_INIT);
 11490              		.loc 1 1224 5 is_stmt 0 discriminator 3 view .LVU3273
 11491 0062 1D4B     		ldr	r3, .L1206+20
 11492 0064 9968     		ldr	r1, [r3, #8]
 11493              	.LVL1470:
1224:../switch_sdk/core/yt/yt_l2.c ****     CMM_PARAM_CHK((!(YT_DISPATCH(unit)->is_inited)), CMM_ERR_NOT_INIT);
 11494              		.loc 1 1224 5 discriminator 3 view .LVU3274
 11495 0066 1D48     		ldr	r0, .L1206+24
 11496              	.LVL1471:
1224:../switch_sdk/core/yt/yt_l2.c ****     CMM_PARAM_CHK((!(YT_DISPATCH(unit)->is_inited)), CMM_ERR_NOT_INIT);
 11497              		.loc 1 1224 5 discriminator 3 view .LVU3275
 11498 0068 FFF7FEFF 		bl	osal_printf
 11499              	.LVL1472:
 11500 006c F5E7     		b	.L1188
 11501              	.LVL1473:
 11502              	.L1199:
1224:../switch_sdk/core/yt/yt_l2.c ****     CMM_PARAM_CHK((!(YT_DISPATCH(unit)->is_inited)), CMM_ERR_NOT_INIT);
 11503              		.loc 1 1224 5 discriminator 3 view .LVU3276
 11504              	.LBE231:
1225:../switch_sdk/core/yt/yt_l2.c ****     CMM_PARAM_CHK((!(CMM_PORT_VALID(unit, port))), CMM_ERR_PORT);
 11505              		.loc 1 1225 5 is_stmt 1 discriminator 1 view .LVU3277
1225:../switch_sdk/core/yt/yt_l2.c ****     CMM_PARAM_CHK((!(CMM_PORT_VALID(unit, port))), CMM_ERR_PORT);
 11506              		.loc 1 1225 5 discriminator 1 view .LVU3278
 11507 006e 184B     		ldr	r3, .L1206+12
 11508 0070 1B78     		ldrb	r3, [r3]	@ zero_extendqisi2
 11509 0072 012B     		cmp	r3, #1
 11510 0074 01D8     		bhi	.L1203
 11511              	.LVL1474:
 11512              	.L1190:
1225:../switch_sdk/core/yt/yt_l2.c ****     CMM_PARAM_CHK((!(CMM_PORT_VALID(unit, port))), CMM_ERR_PORT);
 11513              		.loc 1 1225 5 discriminator 5 view .LVU3279
1225:../switch_sdk/core/yt/yt_l2.c ****     CMM_PARAM_CHK((!(CMM_PORT_VALID(unit, port))), CMM_ERR_PORT);
 11514              		.loc 1 1225 5 discriminator 5 view .LVU3280
1225:../switch_sdk/core/yt/yt_l2.c ****     CMM_PARAM_CHK((!(CMM_PORT_VALID(unit, port))), CMM_ERR_PORT);
 11515              		.loc 1 1225 5 discriminator 5 view .LVU3281
 11516 0076 0420     		movs	r0, #4
 11517 0078 DCE7     		b	.L1183
 11518              	.LVL1475:
 11519              	.L1203:
1225:../switch_sdk/core/yt/yt_l2.c ****     CMM_PARAM_CHK((!(CMM_PORT_VALID(unit, port))), CMM_ERR_PORT);
 11520              		.loc 1 1225 5 discriminator 3 view .LVU3282
 11521              	.LBB232:
1225:../switch_sdk/core/yt/yt_l2.c ****     CMM_PARAM_CHK((!(CMM_PORT_VALID(unit, port))), CMM_ERR_PORT);
 11522              		.loc 1 1225 5 discriminator 3 view .LVU3283
 11523 007a 164B     		ldr	r3, .L1206+16
 11524 007c 1A69     		ldr	r2, [r3, #16]
 11525              	.LVL1476:
1225:../switch_sdk/core/yt/yt_l2.c ****     CMM_PARAM_CHK((!(CMM_PORT_VALID(unit, port))), CMM_ERR_PORT);
 11526              		.loc 1 1225 5 is_stmt 0 discriminator 3 view .LVU3284
 11527 007e 164B     		ldr	r3, .L1206+20
 11528 0080 9968     		ldr	r1, [r3, #8]
 11529              	.LVL1477:
1225:../switch_sdk/core/yt/yt_l2.c ****     CMM_PARAM_CHK((!(CMM_PORT_VALID(unit, port))), CMM_ERR_PORT);
 11530              		.loc 1 1225 5 discriminator 3 view .LVU3285
 11531 0082 1648     		ldr	r0, .L1206+24
 11532 0084 FFF7FEFF 		bl	osal_printf
 11533              	.LVL1478:
 11534 0088 F5E7     		b	.L1190
 11535              	.LVL1479:
 11536              	.L1191:
1225:../switch_sdk/core/yt/yt_l2.c ****     CMM_PARAM_CHK((!(CMM_PORT_VALID(unit, port))), CMM_ERR_PORT);
 11537              		.loc 1 1225 5 discriminator 3 view .LVU3286
 11538              	.LBE232:
1226:../switch_sdk/core/yt/yt_l2.c ****     CMM_PARAM_CHK((NULL == pEnable), CMM_ERR_NULL_POINT);
 11539              		.loc 1 1226 5 is_stmt 1 discriminator 3 view .LVU3287
1226:../switch_sdk/core/yt/yt_l2.c ****     CMM_PARAM_CHK((NULL == pEnable), CMM_ERR_NULL_POINT);
 11540              		.loc 1 1226 5 discriminator 3 view .LVU3288
 11541 008a 114B     		ldr	r3, .L1206+12
 11542 008c 1B78     		ldrb	r3, [r3]	@ zero_extendqisi2
 11543 008e 012B     		cmp	r3, #1
 11544 0090 01D8     		bhi	.L1204
 11545              	.LVL1480:
 11546              	.L1193:
1226:../switch_sdk/core/yt/yt_l2.c ****     CMM_PARAM_CHK((NULL == pEnable), CMM_ERR_NULL_POINT);
 11547              		.loc 1 1226 5 discriminator 7 view .LVU3289
1226:../switch_sdk/core/yt/yt_l2.c ****     CMM_PARAM_CHK((NULL == pEnable), CMM_ERR_NULL_POINT);
 11548              		.loc 1 1226 5 discriminator 7 view .LVU3290
1226:../switch_sdk/core/yt/yt_l2.c ****     CMM_PARAM_CHK((NULL == pEnable), CMM_ERR_NULL_POINT);
 11549              		.loc 1 1226 5 discriminator 7 view .LVU3291
 11550 0092 0E20     		movs	r0, #14
 11551 0094 CEE7     		b	.L1183
 11552              	.LVL1481:
 11553              	.L1204:
1226:../switch_sdk/core/yt/yt_l2.c ****     CMM_PARAM_CHK((NULL == pEnable), CMM_ERR_NULL_POINT);
 11554              		.loc 1 1226 5 discriminator 5 view .LVU3292
 11555              	.LBB233:
1226:../switch_sdk/core/yt/yt_l2.c ****     CMM_PARAM_CHK((NULL == pEnable), CMM_ERR_NULL_POINT);
 11556              		.loc 1 1226 5 discriminator 5 view .LVU3293
 11557 0096 0F4B     		ldr	r3, .L1206+16
 11558 0098 9A6B     		ldr	r2, [r3, #56]
 11559              	.LVL1482:
1226:../switch_sdk/core/yt/yt_l2.c ****     CMM_PARAM_CHK((NULL == pEnable), CMM_ERR_NULL_POINT);
 11560              		.loc 1 1226 5 is_stmt 0 discriminator 5 view .LVU3294
 11561 009a 0F4B     		ldr	r3, .L1206+20
 11562 009c 9968     		ldr	r1, [r3, #8]
 11563              	.LVL1483:
1226:../switch_sdk/core/yt/yt_l2.c ****     CMM_PARAM_CHK((NULL == pEnable), CMM_ERR_NULL_POINT);
 11564              		.loc 1 1226 5 discriminator 5 view .LVU3295
 11565 009e 0F48     		ldr	r0, .L1206+24
 11566 00a0 FFF7FEFF 		bl	osal_printf
 11567              	.LVL1484:
 11568 00a4 F5E7     		b	.L1193
 11569              	.LVL1485:
 11570              	.L1200:
1226:../switch_sdk/core/yt/yt_l2.c ****     CMM_PARAM_CHK((NULL == pEnable), CMM_ERR_NULL_POINT);
 11571              		.loc 1 1226 5 discriminator 5 view .LVU3296
 11572              	.LBE233:
1227:../switch_sdk/core/yt/yt_l2.c **** 
 11573              		.loc 1 1227 5 is_stmt 1 discriminator 1 view .LVU3297
1227:../switch_sdk/core/yt/yt_l2.c **** 
 11574              		.loc 1 1227 5 discriminator 1 view .LVU3298
 11575 00a6 0A4B     		ldr	r3, .L1206+12
 11576 00a8 1B78     		ldrb	r3, [r3]	@ zero_extendqisi2
 11577 00aa 012B     		cmp	r3, #1
 11578 00ac 01D8     		bhi	.L1205
 11579              	.LVL1486:
 11580              	.L1195:
1227:../switch_sdk/core/yt/yt_l2.c **** 
 11581              		.loc 1 1227 5 discriminator 5 view .LVU3299
1227:../switch_sdk/core/yt/yt_l2.c **** 
 11582              		.loc 1 1227 5 discriminator 5 view .LVU3300
1227:../switch_sdk/core/yt/yt_l2.c **** 
 11583              		.loc 1 1227 5 discriminator 5 view .LVU3301
 11584 00ae 0220     		movs	r0, #2
 11585 00b0 C0E7     		b	.L1183
 11586              	.LVL1487:
 11587              	.L1205:
1227:../switch_sdk/core/yt/yt_l2.c **** 
 11588              		.loc 1 1227 5 discriminator 3 view .LVU3302
 11589              	.LBB234:
1227:../switch_sdk/core/yt/yt_l2.c **** 
 11590              		.loc 1 1227 5 discriminator 3 view .LVU3303
 11591 00b2 084B     		ldr	r3, .L1206+16
 11592 00b4 9A68     		ldr	r2, [r3, #8]
 11593              	.LVL1488:
1227:../switch_sdk/core/yt/yt_l2.c **** 
 11594              		.loc 1 1227 5 is_stmt 0 discriminator 3 view .LVU3304
 11595 00b6 084B     		ldr	r3, .L1206+20
 11596 00b8 9968     		ldr	r1, [r3, #8]
 11597              	.LVL1489:
1227:../switch_sdk/core/yt/yt_l2.c **** 
 11598              		.loc 1 1227 5 discriminator 3 view .LVU3305
 11599 00ba 0848     		ldr	r0, .L1206+24
 11600 00bc FFF7FEFF 		bl	osal_printf
 11601              	.LVL1490:
 11602 00c0 F5E7     		b	.L1195
 11603              	.L1207:
 11604 00c2 00BF     		.align	2
 11605              	.L1206:
 11606 00c4 00000000 		.word	gpfal_dispatch
 11607 00c8 00000000 		.word	gcal_inited
 11608 00cc 00000000 		.word	gpSwitchUnit
 11609 00d0 00000000 		.word	yt_debug_level
 11610 00d4 00000000 		.word	_yt_errmsg
 11611 00d8 00000000 		.word	_yt_prompt_msg
 11612 00dc 00000000 		.word	.LC0
 11613              	.LBE234:
 11614              		.cfi_endproc
 11615              	.LFE57:
 11617              		.section	.text.yt_l2_fdb_aging_time_set,"ax",%progbits
 11618              		.align	1
 11619              		.global	yt_l2_fdb_aging_time_set
 11620              		.syntax unified
 11621              		.thumb
 11622              		.thumb_func
 11624              	yt_l2_fdb_aging_time_set:
 11625              	.LVL1491:
 11626              	.LFB58:
1231:../switch_sdk/core/yt/yt_l2.c **** 
1232:../switch_sdk/core/yt/yt_l2.c **** /**
1233:../switch_sdk/core/yt/yt_l2.c ****  * @internal      yt_l2_fdb_aging_time_set
1234:../switch_sdk/core/yt/yt_l2.c ****  * @endinternal
1235:../switch_sdk/core/yt/yt_l2.c ****  *
1236:../switch_sdk/core/yt/yt_l2.c ****  * @brief         Description
1237:../switch_sdk/core/yt/yt_l2.c ****  * @note          APPLICABLE DEVICES  -Tiger
1238:../switch_sdk/core/yt/yt_l2.c ****  * @param[in]     unit                -unit id
1239:../switch_sdk/core/yt/yt_l2.c ****  * @param[in]     sec                 -x
1240:../switch_sdk/core/yt/yt_l2.c ****  * @retval        CMM_ERR_OK          -on success
1241:../switch_sdk/core/yt/yt_l2.c ****  * @retval        CMM_ERR_FAIL        -on fail
1242:../switch_sdk/core/yt/yt_l2.c ****  */
1243:../switch_sdk/core/yt/yt_l2.c **** yt_ret_t  yt_l2_fdb_aging_time_set(yt_unit_t unit,  uint32_t sec)
1244:../switch_sdk/core/yt/yt_l2.c **** {
 11627              		.loc 1 1244 1 is_stmt 1 view -0
 11628              		.cfi_startproc
 11629              		@ args = 0, pretend = 0, frame = 0
 11630              		@ frame_needed = 0, uses_anonymous_args = 0
 11631              		.loc 1 1244 1 is_stmt 0 view .LVU3307
 11632 0000 08B5     		push	{r3, lr}
 11633              		.cfi_def_cfa_offset 8
 11634              		.cfi_offset 3, -8
 11635              		.cfi_offset 14, -4
1245:../switch_sdk/core/yt/yt_l2.c ****     CMM_PARAM_CHK((YT_UNIT_NUM <= unit), CMM_ERR_INPUT);
 11636              		.loc 1 1245 5 is_stmt 1 view .LVU3308
 11637              		.loc 1 1245 5 view .LVU3309
 11638 0002 68B9     		cbnz	r0, .L1219
 11639 0004 0246     		mov	r2, r0
 11640              		.loc 1 1245 5 discriminator 2 view .LVU3310
1246:../switch_sdk/core/yt/yt_l2.c ****     CMM_PARAM_CHK(NULL == YT_DISPATCH(unit), CMM_ERR_NOT_INIT);
 11641              		.loc 1 1246 5 discriminator 2 view .LVU3311
 11642              		.loc 1 1246 5 discriminator 2 view .LVU3312
 11643 0006 224B     		ldr	r3, .L1227
 11644 0008 53F82030 		ldr	r3, [r3, r0, lsl #2]
 11645 000c B3B1     		cbz	r3, .L1220
 11646              		.loc 1 1246 5 discriminator 2 view .LVU3313
1247:../switch_sdk/core/yt/yt_l2.c ****     CMM_PARAM_CHK((!(YT_DISPATCH(unit)->is_inited)), CMM_ERR_NOT_INIT);
 11647              		.loc 1 1247 5 discriminator 2 view .LVU3314
 11648              		.loc 1 1247 5 discriminator 2 view .LVU3315
 11649 000e 1878     		ldrb	r0, [r3]	@ zero_extendqisi2
 11650              	.LVL1492:
 11651              		.loc 1 1247 5 is_stmt 0 discriminator 2 view .LVU3316
 11652 0010 10B3     		cbz	r0, .L1221
 11653              		.loc 1 1247 5 is_stmt 1 discriminator 2 view .LVU3317
1248:../switch_sdk/core/yt/yt_l2.c ****     CMM_PARAM_CHK((0 == sec), CMM_ERR_INPUT);
 11654              		.loc 1 1248 5 discriminator 2 view .LVU3318
 11655              		.loc 1 1248 5 discriminator 2 view .LVU3319
 11656 0012 0029     		cmp	r1, #0
 11657 0014 2ED0     		beq	.L1222
 11658              		.loc 1 1248 5 discriminator 2 view .LVU3320
1249:../switch_sdk/core/yt/yt_l2.c **** 
1250:../switch_sdk/core/yt/yt_l2.c ****     return YT_DISPATCH(unit)->l2_fdb_aging_time_set(unit, sec);
 11659              		.loc 1 1250 5 discriminator 2 view .LVU3321
 11660              		.loc 1 1250 29 is_stmt 0 discriminator 2 view .LVU3322
 11661 0016 D3F81834 		ldr	r3, [r3, #1048]
 11662              		.loc 1 1250 12 discriminator 2 view .LVU3323
 11663 001a 1046     		mov	r0, r2
 11664 001c 9847     		blx	r3
 11665              	.LVL1493:
 11666              	.L1208:
1251:../switch_sdk/core/yt/yt_l2.c **** }
 11667              		.loc 1 1251 1 view .LVU3324
 11668 001e 08BD     		pop	{r3, pc}
 11669              	.LVL1494:
 11670              	.L1219:
1245:../switch_sdk/core/yt/yt_l2.c ****     CMM_PARAM_CHK(NULL == YT_DISPATCH(unit), CMM_ERR_NOT_INIT);
 11671              		.loc 1 1245 5 is_stmt 1 discriminator 1 view .LVU3325
1245:../switch_sdk/core/yt/yt_l2.c ****     CMM_PARAM_CHK(NULL == YT_DISPATCH(unit), CMM_ERR_NOT_INIT);
 11672              		.loc 1 1245 5 discriminator 1 view .LVU3326
 11673 0020 1C4B     		ldr	r3, .L1227+4
 11674 0022 1B78     		ldrb	r3, [r3]	@ zero_extendqisi2
 11675 0024 012B     		cmp	r3, #1
 11676 0026 01D8     		bhi	.L1223
 11677              	.LVL1495:
 11678              	.L1210:
1245:../switch_sdk/core/yt/yt_l2.c ****     CMM_PARAM_CHK(NULL == YT_DISPATCH(unit), CMM_ERR_NOT_INIT);
 11679              		.loc 1 1245 5 discriminator 5 view .LVU3327
1245:../switch_sdk/core/yt/yt_l2.c ****     CMM_PARAM_CHK(NULL == YT_DISPATCH(unit), CMM_ERR_NOT_INIT);
 11680              		.loc 1 1245 5 discriminator 5 view .LVU3328
1245:../switch_sdk/core/yt/yt_l2.c ****     CMM_PARAM_CHK(NULL == YT_DISPATCH(unit), CMM_ERR_NOT_INIT);
 11681              		.loc 1 1245 5 discriminator 5 view .LVU3329
 11682 0028 0520     		movs	r0, #5
 11683 002a F8E7     		b	.L1208
 11684              	.LVL1496:
 11685              	.L1223:
1245:../switch_sdk/core/yt/yt_l2.c ****     CMM_PARAM_CHK(NULL == YT_DISPATCH(unit), CMM_ERR_NOT_INIT);
 11686              		.loc 1 1245 5 discriminator 3 view .LVU3330
 11687              	.LBB235:
1245:../switch_sdk/core/yt/yt_l2.c ****     CMM_PARAM_CHK(NULL == YT_DISPATCH(unit), CMM_ERR_NOT_INIT);
 11688              		.loc 1 1245 5 discriminator 3 view .LVU3331
 11689 002c 1A4B     		ldr	r3, .L1227+8
 11690 002e 5A69     		ldr	r2, [r3, #20]
 11691 0030 1A4B     		ldr	r3, .L1227+12
 11692 0032 9968     		ldr	r1, [r3, #8]
 11693              	.LVL1497:
1245:../switch_sdk/core/yt/yt_l2.c ****     CMM_PARAM_CHK(NULL == YT_DISPATCH(unit), CMM_ERR_NOT_INIT);
 11694              		.loc 1 1245 5 is_stmt 0 discriminator 3 view .LVU3332
 11695 0034 1A48     		ldr	r0, .L1227+16
 11696              	.LVL1498:
1245:../switch_sdk/core/yt/yt_l2.c ****     CMM_PARAM_CHK(NULL == YT_DISPATCH(unit), CMM_ERR_NOT_INIT);
 11697              		.loc 1 1245 5 discriminator 3 view .LVU3333
 11698 0036 FFF7FEFF 		bl	osal_printf
 11699              	.LVL1499:
 11700 003a F5E7     		b	.L1210
 11701              	.LVL1500:
 11702              	.L1220:
1245:../switch_sdk/core/yt/yt_l2.c ****     CMM_PARAM_CHK(NULL == YT_DISPATCH(unit), CMM_ERR_NOT_INIT);
 11703              		.loc 1 1245 5 discriminator 3 view .LVU3334
 11704              	.LBE235:
1246:../switch_sdk/core/yt/yt_l2.c ****     CMM_PARAM_CHK((!(YT_DISPATCH(unit)->is_inited)), CMM_ERR_NOT_INIT);
 11705              		.loc 1 1246 5 is_stmt 1 discriminator 1 view .LVU3335
1246:../switch_sdk/core/yt/yt_l2.c ****     CMM_PARAM_CHK((!(YT_DISPATCH(unit)->is_inited)), CMM_ERR_NOT_INIT);
 11706              		.loc 1 1246 5 discriminator 1 view .LVU3336
 11707 003c 154B     		ldr	r3, .L1227+4
 11708 003e 1B78     		ldrb	r3, [r3]	@ zero_extendqisi2
 11709 0040 012B     		cmp	r3, #1
 11710 0042 01D8     		bhi	.L1224
 11711              	.LVL1501:
 11712              	.L1213:
1246:../switch_sdk/core/yt/yt_l2.c ****     CMM_PARAM_CHK((!(YT_DISPATCH(unit)->is_inited)), CMM_ERR_NOT_INIT);
 11713              		.loc 1 1246 5 discriminator 5 view .LVU3337
1246:../switch_sdk/core/yt/yt_l2.c ****     CMM_PARAM_CHK((!(YT_DISPATCH(unit)->is_inited)), CMM_ERR_NOT_INIT);
 11714              		.loc 1 1246 5 discriminator 5 view .LVU3338
1246:../switch_sdk/core/yt/yt_l2.c ****     CMM_PARAM_CHK((!(YT_DISPATCH(unit)->is_inited)), CMM_ERR_NOT_INIT);
 11715              		.loc 1 1246 5 discriminator 5 view .LVU3339
 11716 0044 0420     		movs	r0, #4
 11717 0046 EAE7     		b	.L1208
 11718              	.LVL1502:
 11719              	.L1224:
1246:../switch_sdk/core/yt/yt_l2.c ****     CMM_PARAM_CHK((!(YT_DISPATCH(unit)->is_inited)), CMM_ERR_NOT_INIT);
 11720              		.loc 1 1246 5 discriminator 3 view .LVU3340
 11721              	.LBB236:
1246:../switch_sdk/core/yt/yt_l2.c ****     CMM_PARAM_CHK((!(YT_DISPATCH(unit)->is_inited)), CMM_ERR_NOT_INIT);
 11722              		.loc 1 1246 5 discriminator 3 view .LVU3341
 11723 0048 134B     		ldr	r3, .L1227+8
 11724 004a 1A69     		ldr	r2, [r3, #16]
 11725 004c 134B     		ldr	r3, .L1227+12
 11726 004e 9968     		ldr	r1, [r3, #8]
 11727              	.LVL1503:
1246:../switch_sdk/core/yt/yt_l2.c ****     CMM_PARAM_CHK((!(YT_DISPATCH(unit)->is_inited)), CMM_ERR_NOT_INIT);
 11728              		.loc 1 1246 5 is_stmt 0 discriminator 3 view .LVU3342
 11729 0050 1348     		ldr	r0, .L1227+16
 11730              	.LVL1504:
1246:../switch_sdk/core/yt/yt_l2.c ****     CMM_PARAM_CHK((!(YT_DISPATCH(unit)->is_inited)), CMM_ERR_NOT_INIT);
 11731              		.loc 1 1246 5 discriminator 3 view .LVU3343
 11732 0052 FFF7FEFF 		bl	osal_printf
 11733              	.LVL1505:
 11734 0056 F5E7     		b	.L1213
 11735              	.LVL1506:
 11736              	.L1221:
1246:../switch_sdk/core/yt/yt_l2.c ****     CMM_PARAM_CHK((!(YT_DISPATCH(unit)->is_inited)), CMM_ERR_NOT_INIT);
 11737              		.loc 1 1246 5 discriminator 3 view .LVU3344
 11738              	.LBE236:
1247:../switch_sdk/core/yt/yt_l2.c ****     CMM_PARAM_CHK((0 == sec), CMM_ERR_INPUT);
 11739              		.loc 1 1247 5 is_stmt 1 discriminator 1 view .LVU3345
1247:../switch_sdk/core/yt/yt_l2.c ****     CMM_PARAM_CHK((0 == sec), CMM_ERR_INPUT);
 11740              		.loc 1 1247 5 discriminator 1 view .LVU3346
 11741 0058 0E4B     		ldr	r3, .L1227+4
 11742 005a 1B78     		ldrb	r3, [r3]	@ zero_extendqisi2
 11743 005c 012B     		cmp	r3, #1
 11744 005e 01D8     		bhi	.L1225
 11745              	.LVL1507:
 11746              	.L1215:
1247:../switch_sdk/core/yt/yt_l2.c ****     CMM_PARAM_CHK((0 == sec), CMM_ERR_INPUT);
 11747              		.loc 1 1247 5 discriminator 5 view .LVU3347
1247:../switch_sdk/core/yt/yt_l2.c ****     CMM_PARAM_CHK((0 == sec), CMM_ERR_INPUT);
 11748              		.loc 1 1247 5 discriminator 5 view .LVU3348
1247:../switch_sdk/core/yt/yt_l2.c ****     CMM_PARAM_CHK((0 == sec), CMM_ERR_INPUT);
 11749              		.loc 1 1247 5 discriminator 5 view .LVU3349
 11750 0060 0420     		movs	r0, #4
 11751 0062 DCE7     		b	.L1208
 11752              	.LVL1508:
 11753              	.L1225:
1247:../switch_sdk/core/yt/yt_l2.c ****     CMM_PARAM_CHK((0 == sec), CMM_ERR_INPUT);
 11754              		.loc 1 1247 5 discriminator 3 view .LVU3350
 11755              	.LBB237:
1247:../switch_sdk/core/yt/yt_l2.c ****     CMM_PARAM_CHK((0 == sec), CMM_ERR_INPUT);
 11756              		.loc 1 1247 5 discriminator 3 view .LVU3351
 11757 0064 0C4B     		ldr	r3, .L1227+8
 11758 0066 1A69     		ldr	r2, [r3, #16]
 11759 0068 0C4B     		ldr	r3, .L1227+12
 11760 006a 9968     		ldr	r1, [r3, #8]
 11761              	.LVL1509:
1247:../switch_sdk/core/yt/yt_l2.c ****     CMM_PARAM_CHK((0 == sec), CMM_ERR_INPUT);
 11762              		.loc 1 1247 5 is_stmt 0 discriminator 3 view .LVU3352
 11763 006c 0C48     		ldr	r0, .L1227+16
 11764 006e FFF7FEFF 		bl	osal_printf
 11765              	.LVL1510:
 11766 0072 F5E7     		b	.L1215
 11767              	.LVL1511:
 11768              	.L1222:
1247:../switch_sdk/core/yt/yt_l2.c ****     CMM_PARAM_CHK((0 == sec), CMM_ERR_INPUT);
 11769              		.loc 1 1247 5 discriminator 3 view .LVU3353
 11770              	.LBE237:
1248:../switch_sdk/core/yt/yt_l2.c **** 
 11771              		.loc 1 1248 5 is_stmt 1 discriminator 1 view .LVU3354
1248:../switch_sdk/core/yt/yt_l2.c **** 
 11772              		.loc 1 1248 5 discriminator 1 view .LVU3355
 11773 0074 074B     		ldr	r3, .L1227+4
 11774 0076 1B78     		ldrb	r3, [r3]	@ zero_extendqisi2
 11775 0078 012B     		cmp	r3, #1
 11776 007a 01D8     		bhi	.L1226
 11777              	.LVL1512:
 11778              	.L1217:
1248:../switch_sdk/core/yt/yt_l2.c **** 
 11779              		.loc 1 1248 5 discriminator 5 view .LVU3356
1248:../switch_sdk/core/yt/yt_l2.c **** 
 11780              		.loc 1 1248 5 discriminator 5 view .LVU3357
1248:../switch_sdk/core/yt/yt_l2.c **** 
 11781              		.loc 1 1248 5 discriminator 5 view .LVU3358
 11782 007c 0520     		movs	r0, #5
 11783 007e CEE7     		b	.L1208
 11784              	.LVL1513:
 11785              	.L1226:
1248:../switch_sdk/core/yt/yt_l2.c **** 
 11786              		.loc 1 1248 5 discriminator 3 view .LVU3359
 11787              	.LBB238:
1248:../switch_sdk/core/yt/yt_l2.c **** 
 11788              		.loc 1 1248 5 discriminator 3 view .LVU3360
 11789 0080 054B     		ldr	r3, .L1227+8
 11790 0082 5A69     		ldr	r2, [r3, #20]
 11791 0084 054B     		ldr	r3, .L1227+12
 11792 0086 9968     		ldr	r1, [r3, #8]
 11793              	.LVL1514:
1248:../switch_sdk/core/yt/yt_l2.c **** 
 11794              		.loc 1 1248 5 is_stmt 0 discriminator 3 view .LVU3361
 11795 0088 0548     		ldr	r0, .L1227+16
 11796 008a FFF7FEFF 		bl	osal_printf
 11797              	.LVL1515:
 11798 008e F5E7     		b	.L1217
 11799              	.L1228:
 11800              		.align	2
 11801              	.L1227:
 11802 0090 00000000 		.word	gpfal_dispatch
 11803 0094 00000000 		.word	yt_debug_level
 11804 0098 00000000 		.word	_yt_errmsg
 11805 009c 00000000 		.word	_yt_prompt_msg
 11806 00a0 00000000 		.word	.LC0
 11807              	.LBE238:
 11808              		.cfi_endproc
 11809              	.LFE58:
 11811              		.section	.text.yt_l2_fdb_aging_time_get,"ax",%progbits
 11812              		.align	1
 11813              		.global	yt_l2_fdb_aging_time_get
 11814              		.syntax unified
 11815              		.thumb
 11816              		.thumb_func
 11818              	yt_l2_fdb_aging_time_get:
 11819              	.LVL1516:
 11820              	.LFB59:
1252:../switch_sdk/core/yt/yt_l2.c **** 
1253:../switch_sdk/core/yt/yt_l2.c **** /**
1254:../switch_sdk/core/yt/yt_l2.c ****  * @internal      yt_l2_fdb_aging_time_get
1255:../switch_sdk/core/yt/yt_l2.c ****  * @endinternal
1256:../switch_sdk/core/yt/yt_l2.c ****  *
1257:../switch_sdk/core/yt/yt_l2.c ****  * @brief         Description
1258:../switch_sdk/core/yt/yt_l2.c ****  * @note          APPLICABLE DEVICES  -Tiger
1259:../switch_sdk/core/yt/yt_l2.c ****  * @param[in]     unit                -unit id
1260:../switch_sdk/core/yt/yt_l2.c ****  * @param[out]    psec                -x
1261:../switch_sdk/core/yt/yt_l2.c ****  * @retval        CMM_ERR_OK          -on success
1262:../switch_sdk/core/yt/yt_l2.c ****  * @retval        CMM_ERR_FAIL        -on fail
1263:../switch_sdk/core/yt/yt_l2.c ****  */
1264:../switch_sdk/core/yt/yt_l2.c **** yt_ret_t  yt_l2_fdb_aging_time_get(yt_unit_t unit,  uint32_t *psec)
1265:../switch_sdk/core/yt/yt_l2.c **** {
 11821              		.loc 1 1265 1 is_stmt 1 view -0
 11822              		.cfi_startproc
 11823              		@ args = 0, pretend = 0, frame = 0
 11824              		@ frame_needed = 0, uses_anonymous_args = 0
 11825              		.loc 1 1265 1 is_stmt 0 view .LVU3363
 11826 0000 08B5     		push	{r3, lr}
 11827              		.cfi_def_cfa_offset 8
 11828              		.cfi_offset 3, -8
 11829              		.cfi_offset 14, -4
1266:../switch_sdk/core/yt/yt_l2.c ****     CMM_PARAM_CHK((YT_UNIT_NUM <= unit), CMM_ERR_INPUT);
 11830              		.loc 1 1266 5 is_stmt 1 view .LVU3364
 11831              		.loc 1 1266 5 view .LVU3365
 11832 0002 68B9     		cbnz	r0, .L1240
 11833 0004 0246     		mov	r2, r0
 11834              		.loc 1 1266 5 discriminator 2 view .LVU3366
1267:../switch_sdk/core/yt/yt_l2.c ****     CMM_PARAM_CHK(NULL == YT_DISPATCH(unit), CMM_ERR_NOT_INIT);
 11835              		.loc 1 1267 5 discriminator 2 view .LVU3367
 11836              		.loc 1 1267 5 discriminator 2 view .LVU3368
 11837 0006 224B     		ldr	r3, .L1248
 11838 0008 53F82030 		ldr	r3, [r3, r0, lsl #2]
 11839 000c B3B1     		cbz	r3, .L1241
 11840              		.loc 1 1267 5 discriminator 2 view .LVU3369
1268:../switch_sdk/core/yt/yt_l2.c ****     CMM_PARAM_CHK((!(YT_DISPATCH(unit)->is_inited)), CMM_ERR_NOT_INIT);
 11841              		.loc 1 1268 5 discriminator 2 view .LVU3370
 11842              		.loc 1 1268 5 discriminator 2 view .LVU3371
 11843 000e 1878     		ldrb	r0, [r3]	@ zero_extendqisi2
 11844              	.LVL1517:
 11845              		.loc 1 1268 5 is_stmt 0 discriminator 2 view .LVU3372
 11846 0010 10B3     		cbz	r0, .L1242
 11847              		.loc 1 1268 5 is_stmt 1 discriminator 2 view .LVU3373
1269:../switch_sdk/core/yt/yt_l2.c ****     CMM_PARAM_CHK((NULL == psec), CMM_ERR_NULL_POINT);
 11848              		.loc 1 1269 5 discriminator 2 view .LVU3374
 11849              		.loc 1 1269 5 discriminator 2 view .LVU3375
 11850 0012 0029     		cmp	r1, #0
 11851 0014 2ED0     		beq	.L1243
 11852              		.loc 1 1269 5 discriminator 2 view .LVU3376
1270:../switch_sdk/core/yt/yt_l2.c **** 
1271:../switch_sdk/core/yt/yt_l2.c ****     return YT_DISPATCH(unit)->l2_fdb_aging_time_get(unit, psec);
 11853              		.loc 1 1271 5 discriminator 2 view .LVU3377
 11854              		.loc 1 1271 29 is_stmt 0 discriminator 2 view .LVU3378
 11855 0016 D3F81C34 		ldr	r3, [r3, #1052]
 11856              		.loc 1 1271 12 discriminator 2 view .LVU3379
 11857 001a 1046     		mov	r0, r2
 11858 001c 9847     		blx	r3
 11859              	.LVL1518:
 11860              	.L1229:
1272:../switch_sdk/core/yt/yt_l2.c **** }
 11861              		.loc 1 1272 1 view .LVU3380
 11862 001e 08BD     		pop	{r3, pc}
 11863              	.LVL1519:
 11864              	.L1240:
1266:../switch_sdk/core/yt/yt_l2.c ****     CMM_PARAM_CHK(NULL == YT_DISPATCH(unit), CMM_ERR_NOT_INIT);
 11865              		.loc 1 1266 5 is_stmt 1 discriminator 1 view .LVU3381
1266:../switch_sdk/core/yt/yt_l2.c ****     CMM_PARAM_CHK(NULL == YT_DISPATCH(unit), CMM_ERR_NOT_INIT);
 11866              		.loc 1 1266 5 discriminator 1 view .LVU3382
 11867 0020 1C4B     		ldr	r3, .L1248+4
 11868 0022 1B78     		ldrb	r3, [r3]	@ zero_extendqisi2
 11869 0024 012B     		cmp	r3, #1
 11870 0026 01D8     		bhi	.L1244
 11871              	.LVL1520:
 11872              	.L1231:
1266:../switch_sdk/core/yt/yt_l2.c ****     CMM_PARAM_CHK(NULL == YT_DISPATCH(unit), CMM_ERR_NOT_INIT);
 11873              		.loc 1 1266 5 discriminator 5 view .LVU3383
1266:../switch_sdk/core/yt/yt_l2.c ****     CMM_PARAM_CHK(NULL == YT_DISPATCH(unit), CMM_ERR_NOT_INIT);
 11874              		.loc 1 1266 5 discriminator 5 view .LVU3384
1266:../switch_sdk/core/yt/yt_l2.c ****     CMM_PARAM_CHK(NULL == YT_DISPATCH(unit), CMM_ERR_NOT_INIT);
 11875              		.loc 1 1266 5 discriminator 5 view .LVU3385
 11876 0028 0520     		movs	r0, #5
 11877 002a F8E7     		b	.L1229
 11878              	.LVL1521:
 11879              	.L1244:
1266:../switch_sdk/core/yt/yt_l2.c ****     CMM_PARAM_CHK(NULL == YT_DISPATCH(unit), CMM_ERR_NOT_INIT);
 11880              		.loc 1 1266 5 discriminator 3 view .LVU3386
 11881              	.LBB239:
1266:../switch_sdk/core/yt/yt_l2.c ****     CMM_PARAM_CHK(NULL == YT_DISPATCH(unit), CMM_ERR_NOT_INIT);
 11882              		.loc 1 1266 5 discriminator 3 view .LVU3387
 11883 002c 1A4B     		ldr	r3, .L1248+8
 11884 002e 5A69     		ldr	r2, [r3, #20]
 11885 0030 1A4B     		ldr	r3, .L1248+12
 11886 0032 9968     		ldr	r1, [r3, #8]
 11887              	.LVL1522:
1266:../switch_sdk/core/yt/yt_l2.c ****     CMM_PARAM_CHK(NULL == YT_DISPATCH(unit), CMM_ERR_NOT_INIT);
 11888              		.loc 1 1266 5 is_stmt 0 discriminator 3 view .LVU3388
 11889 0034 1A48     		ldr	r0, .L1248+16
 11890              	.LVL1523:
1266:../switch_sdk/core/yt/yt_l2.c ****     CMM_PARAM_CHK(NULL == YT_DISPATCH(unit), CMM_ERR_NOT_INIT);
 11891              		.loc 1 1266 5 discriminator 3 view .LVU3389
 11892 0036 FFF7FEFF 		bl	osal_printf
 11893              	.LVL1524:
 11894 003a F5E7     		b	.L1231
 11895              	.LVL1525:
 11896              	.L1241:
1266:../switch_sdk/core/yt/yt_l2.c ****     CMM_PARAM_CHK(NULL == YT_DISPATCH(unit), CMM_ERR_NOT_INIT);
 11897              		.loc 1 1266 5 discriminator 3 view .LVU3390
 11898              	.LBE239:
1267:../switch_sdk/core/yt/yt_l2.c ****     CMM_PARAM_CHK((!(YT_DISPATCH(unit)->is_inited)), CMM_ERR_NOT_INIT);
 11899              		.loc 1 1267 5 is_stmt 1 discriminator 1 view .LVU3391
1267:../switch_sdk/core/yt/yt_l2.c ****     CMM_PARAM_CHK((!(YT_DISPATCH(unit)->is_inited)), CMM_ERR_NOT_INIT);
 11900              		.loc 1 1267 5 discriminator 1 view .LVU3392
 11901 003c 154B     		ldr	r3, .L1248+4
 11902 003e 1B78     		ldrb	r3, [r3]	@ zero_extendqisi2
 11903 0040 012B     		cmp	r3, #1
 11904 0042 01D8     		bhi	.L1245
 11905              	.LVL1526:
 11906              	.L1234:
1267:../switch_sdk/core/yt/yt_l2.c ****     CMM_PARAM_CHK((!(YT_DISPATCH(unit)->is_inited)), CMM_ERR_NOT_INIT);
 11907              		.loc 1 1267 5 discriminator 5 view .LVU3393
1267:../switch_sdk/core/yt/yt_l2.c ****     CMM_PARAM_CHK((!(YT_DISPATCH(unit)->is_inited)), CMM_ERR_NOT_INIT);
 11908              		.loc 1 1267 5 discriminator 5 view .LVU3394
1267:../switch_sdk/core/yt/yt_l2.c ****     CMM_PARAM_CHK((!(YT_DISPATCH(unit)->is_inited)), CMM_ERR_NOT_INIT);
 11909              		.loc 1 1267 5 discriminator 5 view .LVU3395
 11910 0044 0420     		movs	r0, #4
 11911 0046 EAE7     		b	.L1229
 11912              	.LVL1527:
 11913              	.L1245:
1267:../switch_sdk/core/yt/yt_l2.c ****     CMM_PARAM_CHK((!(YT_DISPATCH(unit)->is_inited)), CMM_ERR_NOT_INIT);
 11914              		.loc 1 1267 5 discriminator 3 view .LVU3396
 11915              	.LBB240:
1267:../switch_sdk/core/yt/yt_l2.c ****     CMM_PARAM_CHK((!(YT_DISPATCH(unit)->is_inited)), CMM_ERR_NOT_INIT);
 11916              		.loc 1 1267 5 discriminator 3 view .LVU3397
 11917 0048 134B     		ldr	r3, .L1248+8
 11918 004a 1A69     		ldr	r2, [r3, #16]
 11919 004c 134B     		ldr	r3, .L1248+12
 11920 004e 9968     		ldr	r1, [r3, #8]
 11921              	.LVL1528:
1267:../switch_sdk/core/yt/yt_l2.c ****     CMM_PARAM_CHK((!(YT_DISPATCH(unit)->is_inited)), CMM_ERR_NOT_INIT);
 11922              		.loc 1 1267 5 is_stmt 0 discriminator 3 view .LVU3398
 11923 0050 1348     		ldr	r0, .L1248+16
 11924              	.LVL1529:
1267:../switch_sdk/core/yt/yt_l2.c ****     CMM_PARAM_CHK((!(YT_DISPATCH(unit)->is_inited)), CMM_ERR_NOT_INIT);
 11925              		.loc 1 1267 5 discriminator 3 view .LVU3399
 11926 0052 FFF7FEFF 		bl	osal_printf
 11927              	.LVL1530:
 11928 0056 F5E7     		b	.L1234
 11929              	.LVL1531:
 11930              	.L1242:
1267:../switch_sdk/core/yt/yt_l2.c ****     CMM_PARAM_CHK((!(YT_DISPATCH(unit)->is_inited)), CMM_ERR_NOT_INIT);
 11931              		.loc 1 1267 5 discriminator 3 view .LVU3400
 11932              	.LBE240:
1268:../switch_sdk/core/yt/yt_l2.c ****     CMM_PARAM_CHK((NULL == psec), CMM_ERR_NULL_POINT);
 11933              		.loc 1 1268 5 is_stmt 1 discriminator 1 view .LVU3401
1268:../switch_sdk/core/yt/yt_l2.c ****     CMM_PARAM_CHK((NULL == psec), CMM_ERR_NULL_POINT);
 11934              		.loc 1 1268 5 discriminator 1 view .LVU3402
 11935 0058 0E4B     		ldr	r3, .L1248+4
 11936 005a 1B78     		ldrb	r3, [r3]	@ zero_extendqisi2
 11937 005c 012B     		cmp	r3, #1
 11938 005e 01D8     		bhi	.L1246
 11939              	.LVL1532:
 11940              	.L1236:
1268:../switch_sdk/core/yt/yt_l2.c ****     CMM_PARAM_CHK((NULL == psec), CMM_ERR_NULL_POINT);
 11941              		.loc 1 1268 5 discriminator 5 view .LVU3403
1268:../switch_sdk/core/yt/yt_l2.c ****     CMM_PARAM_CHK((NULL == psec), CMM_ERR_NULL_POINT);
 11942              		.loc 1 1268 5 discriminator 5 view .LVU3404
1268:../switch_sdk/core/yt/yt_l2.c ****     CMM_PARAM_CHK((NULL == psec), CMM_ERR_NULL_POINT);
 11943              		.loc 1 1268 5 discriminator 5 view .LVU3405
 11944 0060 0420     		movs	r0, #4
 11945 0062 DCE7     		b	.L1229
 11946              	.LVL1533:
 11947              	.L1246:
1268:../switch_sdk/core/yt/yt_l2.c ****     CMM_PARAM_CHK((NULL == psec), CMM_ERR_NULL_POINT);
 11948              		.loc 1 1268 5 discriminator 3 view .LVU3406
 11949              	.LBB241:
1268:../switch_sdk/core/yt/yt_l2.c ****     CMM_PARAM_CHK((NULL == psec), CMM_ERR_NULL_POINT);
 11950              		.loc 1 1268 5 discriminator 3 view .LVU3407
 11951 0064 0C4B     		ldr	r3, .L1248+8
 11952 0066 1A69     		ldr	r2, [r3, #16]
 11953 0068 0C4B     		ldr	r3, .L1248+12
 11954 006a 9968     		ldr	r1, [r3, #8]
 11955              	.LVL1534:
1268:../switch_sdk/core/yt/yt_l2.c ****     CMM_PARAM_CHK((NULL == psec), CMM_ERR_NULL_POINT);
 11956              		.loc 1 1268 5 is_stmt 0 discriminator 3 view .LVU3408
 11957 006c 0C48     		ldr	r0, .L1248+16
 11958 006e FFF7FEFF 		bl	osal_printf
 11959              	.LVL1535:
 11960 0072 F5E7     		b	.L1236
 11961              	.LVL1536:
 11962              	.L1243:
1268:../switch_sdk/core/yt/yt_l2.c ****     CMM_PARAM_CHK((NULL == psec), CMM_ERR_NULL_POINT);
 11963              		.loc 1 1268 5 discriminator 3 view .LVU3409
 11964              	.LBE241:
1269:../switch_sdk/core/yt/yt_l2.c **** 
 11965              		.loc 1 1269 5 is_stmt 1 discriminator 1 view .LVU3410
1269:../switch_sdk/core/yt/yt_l2.c **** 
 11966              		.loc 1 1269 5 discriminator 1 view .LVU3411
 11967 0074 074B     		ldr	r3, .L1248+4
 11968 0076 1B78     		ldrb	r3, [r3]	@ zero_extendqisi2
 11969 0078 012B     		cmp	r3, #1
 11970 007a 01D8     		bhi	.L1247
 11971              	.LVL1537:
 11972              	.L1238:
1269:../switch_sdk/core/yt/yt_l2.c **** 
 11973              		.loc 1 1269 5 discriminator 5 view .LVU3412
1269:../switch_sdk/core/yt/yt_l2.c **** 
 11974              		.loc 1 1269 5 discriminator 5 view .LVU3413
1269:../switch_sdk/core/yt/yt_l2.c **** 
 11975              		.loc 1 1269 5 discriminator 5 view .LVU3414
 11976 007c 0220     		movs	r0, #2
 11977 007e CEE7     		b	.L1229
 11978              	.LVL1538:
 11979              	.L1247:
1269:../switch_sdk/core/yt/yt_l2.c **** 
 11980              		.loc 1 1269 5 discriminator 3 view .LVU3415
 11981              	.LBB242:
1269:../switch_sdk/core/yt/yt_l2.c **** 
 11982              		.loc 1 1269 5 discriminator 3 view .LVU3416
 11983 0080 054B     		ldr	r3, .L1248+8
 11984 0082 9A68     		ldr	r2, [r3, #8]
 11985 0084 054B     		ldr	r3, .L1248+12
 11986 0086 9968     		ldr	r1, [r3, #8]
 11987              	.LVL1539:
1269:../switch_sdk/core/yt/yt_l2.c **** 
 11988              		.loc 1 1269 5 is_stmt 0 discriminator 3 view .LVU3417
 11989 0088 0548     		ldr	r0, .L1248+16
 11990 008a FFF7FEFF 		bl	osal_printf
 11991              	.LVL1540:
 11992 008e F5E7     		b	.L1238
 11993              	.L1249:
 11994              		.align	2
 11995              	.L1248:
 11996 0090 00000000 		.word	gpfal_dispatch
 11997 0094 00000000 		.word	yt_debug_level
 11998 0098 00000000 		.word	_yt_errmsg
 11999 009c 00000000 		.word	_yt_prompt_msg
 12000 00a0 00000000 		.word	.LC0
 12001              	.LBE242:
 12002              		.cfi_endproc
 12003              	.LFE59:
 12005              		.section	.text.yt_l2_fdb_uc_withindex_get,"ax",%progbits
 12006              		.align	1
 12007              		.global	yt_l2_fdb_uc_withindex_get
 12008              		.syntax unified
 12009              		.thumb
 12010              		.thumb_func
 12012              	yt_l2_fdb_uc_withindex_get:
 12013              	.LVL1541:
 12014              	.LFB60:
1273:../switch_sdk/core/yt/yt_l2.c **** 
1274:../switch_sdk/core/yt/yt_l2.c **** /**
1275:../switch_sdk/core/yt/yt_l2.c ****  * @internal      yt_l2_fdb_uc_withindex_get
1276:../switch_sdk/core/yt/yt_l2.c ****  * @endinternal
1277:../switch_sdk/core/yt/yt_l2.c ****  *
1278:../switch_sdk/core/yt/yt_l2.c ****  * @brief         Description
1279:../switch_sdk/core/yt/yt_l2.c ****  * @note          APPLICABLE DEVICES  -Tiger
1280:../switch_sdk/core/yt/yt_l2.c ****  * @param[in]     unit                -unit id
1281:../switch_sdk/core/yt/yt_l2.c ****  * @param[in]     index               -x
1282:../switch_sdk/core/yt/yt_l2.c ****  * @param[out]    pUcastMac           -x
1283:../switch_sdk/core/yt/yt_l2.c ****  * @retval        CMM_ERR_OK          -on success
1284:../switch_sdk/core/yt/yt_l2.c ****  * @retval        CMM_ERR_FAIL        -on fail
1285:../switch_sdk/core/yt/yt_l2.c ****  */
1286:../switch_sdk/core/yt/yt_l2.c **** yt_ret_t yt_l2_fdb_uc_withindex_get(yt_unit_t unit, uint16_t index, l2_ucastMacAddr_info_t *pUcastM
1287:../switch_sdk/core/yt/yt_l2.c **** {
 12015              		.loc 1 1287 1 is_stmt 1 view -0
 12016              		.cfi_startproc
 12017              		@ args = 0, pretend = 0, frame = 0
 12018              		@ frame_needed = 0, uses_anonymous_args = 0
 12019              		.loc 1 1287 1 is_stmt 0 view .LVU3419
 12020 0000 08B5     		push	{r3, lr}
 12021              		.cfi_def_cfa_offset 8
 12022              		.cfi_offset 3, -8
 12023              		.cfi_offset 14, -4
1288:../switch_sdk/core/yt/yt_l2.c ****     CMM_PARAM_CHK((YT_UNIT_NUM <= unit), CMM_ERR_INPUT);
 12024              		.loc 1 1288 5 is_stmt 1 view .LVU3420
 12025              		.loc 1 1288 5 view .LVU3421
 12026 0002 68B9     		cbnz	r0, .L1261
 12027 0004 8446     		mov	ip, r0
 12028              		.loc 1 1288 5 discriminator 2 view .LVU3422
1289:../switch_sdk/core/yt/yt_l2.c ****     CMM_PARAM_CHK(NULL == YT_DISPATCH(unit), CMM_ERR_NOT_INIT);
 12029              		.loc 1 1289 5 discriminator 2 view .LVU3423
 12030              		.loc 1 1289 5 discriminator 2 view .LVU3424
 12031 0006 224B     		ldr	r3, .L1269
 12032 0008 53F82030 		ldr	r3, [r3, r0, lsl #2]
 12033 000c B3B1     		cbz	r3, .L1262
 12034              		.loc 1 1289 5 discriminator 2 view .LVU3425
1290:../switch_sdk/core/yt/yt_l2.c ****     CMM_PARAM_CHK((!(YT_DISPATCH(unit)->is_inited)), CMM_ERR_NOT_INIT);
 12035              		.loc 1 1290 5 discriminator 2 view .LVU3426
 12036              		.loc 1 1290 5 discriminator 2 view .LVU3427
 12037 000e 1878     		ldrb	r0, [r3]	@ zero_extendqisi2
 12038              	.LVL1542:
 12039              		.loc 1 1290 5 is_stmt 0 discriminator 2 view .LVU3428
 12040 0010 10B3     		cbz	r0, .L1263
 12041              		.loc 1 1290 5 is_stmt 1 discriminator 2 view .LVU3429
1291:../switch_sdk/core/yt/yt_l2.c ****     CMM_PARAM_CHK((NULL == pUcastMac), CMM_ERR_NULL_POINT);
 12042              		.loc 1 1291 5 discriminator 2 view .LVU3430
 12043              		.loc 1 1291 5 discriminator 2 view .LVU3431
 12044 0012 002A     		cmp	r2, #0
 12045 0014 2ED0     		beq	.L1264
 12046              		.loc 1 1291 5 discriminator 2 view .LVU3432
1292:../switch_sdk/core/yt/yt_l2.c **** 
1293:../switch_sdk/core/yt/yt_l2.c ****     return YT_DISPATCH(unit)->l2_fdb_uc_withindex_get(unit, index, pUcastMac);
 12047              		.loc 1 1293 5 discriminator 2 view .LVU3433
 12048              		.loc 1 1293 29 is_stmt 0 discriminator 2 view .LVU3434
 12049 0016 D3F82034 		ldr	r3, [r3, #1056]
 12050              		.loc 1 1293 12 discriminator 2 view .LVU3435
 12051 001a 6046     		mov	r0, ip
 12052 001c 9847     		blx	r3
 12053              	.LVL1543:
 12054              	.L1250:
1294:../switch_sdk/core/yt/yt_l2.c **** }
 12055              		.loc 1 1294 1 view .LVU3436
 12056 001e 08BD     		pop	{r3, pc}
 12057              	.LVL1544:
 12058              	.L1261:
1288:../switch_sdk/core/yt/yt_l2.c ****     CMM_PARAM_CHK(NULL == YT_DISPATCH(unit), CMM_ERR_NOT_INIT);
 12059              		.loc 1 1288 5 is_stmt 1 discriminator 1 view .LVU3437
1288:../switch_sdk/core/yt/yt_l2.c ****     CMM_PARAM_CHK(NULL == YT_DISPATCH(unit), CMM_ERR_NOT_INIT);
 12060              		.loc 1 1288 5 discriminator 1 view .LVU3438
 12061 0020 1C4B     		ldr	r3, .L1269+4
 12062 0022 1B78     		ldrb	r3, [r3]	@ zero_extendqisi2
 12063 0024 012B     		cmp	r3, #1
 12064 0026 01D8     		bhi	.L1265
 12065              	.LVL1545:
 12066              	.L1252:
1288:../switch_sdk/core/yt/yt_l2.c ****     CMM_PARAM_CHK(NULL == YT_DISPATCH(unit), CMM_ERR_NOT_INIT);
 12067              		.loc 1 1288 5 discriminator 5 view .LVU3439
1288:../switch_sdk/core/yt/yt_l2.c ****     CMM_PARAM_CHK(NULL == YT_DISPATCH(unit), CMM_ERR_NOT_INIT);
 12068              		.loc 1 1288 5 discriminator 5 view .LVU3440
1288:../switch_sdk/core/yt/yt_l2.c ****     CMM_PARAM_CHK(NULL == YT_DISPATCH(unit), CMM_ERR_NOT_INIT);
 12069              		.loc 1 1288 5 discriminator 5 view .LVU3441
 12070 0028 0520     		movs	r0, #5
 12071 002a F8E7     		b	.L1250
 12072              	.LVL1546:
 12073              	.L1265:
1288:../switch_sdk/core/yt/yt_l2.c ****     CMM_PARAM_CHK(NULL == YT_DISPATCH(unit), CMM_ERR_NOT_INIT);
 12074              		.loc 1 1288 5 discriminator 3 view .LVU3442
 12075              	.LBB243:
1288:../switch_sdk/core/yt/yt_l2.c ****     CMM_PARAM_CHK(NULL == YT_DISPATCH(unit), CMM_ERR_NOT_INIT);
 12076              		.loc 1 1288 5 discriminator 3 view .LVU3443
 12077 002c 1A4B     		ldr	r3, .L1269+8
 12078 002e 5A69     		ldr	r2, [r3, #20]
 12079              	.LVL1547:
1288:../switch_sdk/core/yt/yt_l2.c ****     CMM_PARAM_CHK(NULL == YT_DISPATCH(unit), CMM_ERR_NOT_INIT);
 12080              		.loc 1 1288 5 is_stmt 0 discriminator 3 view .LVU3444
 12081 0030 1A4B     		ldr	r3, .L1269+12
 12082 0032 9968     		ldr	r1, [r3, #8]
 12083              	.LVL1548:
1288:../switch_sdk/core/yt/yt_l2.c ****     CMM_PARAM_CHK(NULL == YT_DISPATCH(unit), CMM_ERR_NOT_INIT);
 12084              		.loc 1 1288 5 discriminator 3 view .LVU3445
 12085 0034 1A48     		ldr	r0, .L1269+16
 12086              	.LVL1549:
1288:../switch_sdk/core/yt/yt_l2.c ****     CMM_PARAM_CHK(NULL == YT_DISPATCH(unit), CMM_ERR_NOT_INIT);
 12087              		.loc 1 1288 5 discriminator 3 view .LVU3446
 12088 0036 FFF7FEFF 		bl	osal_printf
 12089              	.LVL1550:
 12090 003a F5E7     		b	.L1252
 12091              	.LVL1551:
 12092              	.L1262:
1288:../switch_sdk/core/yt/yt_l2.c ****     CMM_PARAM_CHK(NULL == YT_DISPATCH(unit), CMM_ERR_NOT_INIT);
 12093              		.loc 1 1288 5 discriminator 3 view .LVU3447
 12094              	.LBE243:
1289:../switch_sdk/core/yt/yt_l2.c ****     CMM_PARAM_CHK((!(YT_DISPATCH(unit)->is_inited)), CMM_ERR_NOT_INIT);
 12095              		.loc 1 1289 5 is_stmt 1 discriminator 1 view .LVU3448
1289:../switch_sdk/core/yt/yt_l2.c ****     CMM_PARAM_CHK((!(YT_DISPATCH(unit)->is_inited)), CMM_ERR_NOT_INIT);
 12096              		.loc 1 1289 5 discriminator 1 view .LVU3449
 12097 003c 154B     		ldr	r3, .L1269+4
 12098 003e 1B78     		ldrb	r3, [r3]	@ zero_extendqisi2
 12099 0040 012B     		cmp	r3, #1
 12100 0042 01D8     		bhi	.L1266
 12101              	.LVL1552:
 12102              	.L1255:
1289:../switch_sdk/core/yt/yt_l2.c ****     CMM_PARAM_CHK((!(YT_DISPATCH(unit)->is_inited)), CMM_ERR_NOT_INIT);
 12103              		.loc 1 1289 5 discriminator 5 view .LVU3450
1289:../switch_sdk/core/yt/yt_l2.c ****     CMM_PARAM_CHK((!(YT_DISPATCH(unit)->is_inited)), CMM_ERR_NOT_INIT);
 12104              		.loc 1 1289 5 discriminator 5 view .LVU3451
1289:../switch_sdk/core/yt/yt_l2.c ****     CMM_PARAM_CHK((!(YT_DISPATCH(unit)->is_inited)), CMM_ERR_NOT_INIT);
 12105              		.loc 1 1289 5 discriminator 5 view .LVU3452
 12106 0044 0420     		movs	r0, #4
 12107 0046 EAE7     		b	.L1250
 12108              	.LVL1553:
 12109              	.L1266:
1289:../switch_sdk/core/yt/yt_l2.c ****     CMM_PARAM_CHK((!(YT_DISPATCH(unit)->is_inited)), CMM_ERR_NOT_INIT);
 12110              		.loc 1 1289 5 discriminator 3 view .LVU3453
 12111              	.LBB244:
1289:../switch_sdk/core/yt/yt_l2.c ****     CMM_PARAM_CHK((!(YT_DISPATCH(unit)->is_inited)), CMM_ERR_NOT_INIT);
 12112              		.loc 1 1289 5 discriminator 3 view .LVU3454
 12113 0048 134B     		ldr	r3, .L1269+8
 12114 004a 1A69     		ldr	r2, [r3, #16]
 12115              	.LVL1554:
1289:../switch_sdk/core/yt/yt_l2.c ****     CMM_PARAM_CHK((!(YT_DISPATCH(unit)->is_inited)), CMM_ERR_NOT_INIT);
 12116              		.loc 1 1289 5 is_stmt 0 discriminator 3 view .LVU3455
 12117 004c 134B     		ldr	r3, .L1269+12
 12118 004e 9968     		ldr	r1, [r3, #8]
 12119              	.LVL1555:
1289:../switch_sdk/core/yt/yt_l2.c ****     CMM_PARAM_CHK((!(YT_DISPATCH(unit)->is_inited)), CMM_ERR_NOT_INIT);
 12120              		.loc 1 1289 5 discriminator 3 view .LVU3456
 12121 0050 1348     		ldr	r0, .L1269+16
 12122              	.LVL1556:
1289:../switch_sdk/core/yt/yt_l2.c ****     CMM_PARAM_CHK((!(YT_DISPATCH(unit)->is_inited)), CMM_ERR_NOT_INIT);
 12123              		.loc 1 1289 5 discriminator 3 view .LVU3457
 12124 0052 FFF7FEFF 		bl	osal_printf
 12125              	.LVL1557:
 12126 0056 F5E7     		b	.L1255
 12127              	.LVL1558:
 12128              	.L1263:
1289:../switch_sdk/core/yt/yt_l2.c ****     CMM_PARAM_CHK((!(YT_DISPATCH(unit)->is_inited)), CMM_ERR_NOT_INIT);
 12129              		.loc 1 1289 5 discriminator 3 view .LVU3458
 12130              	.LBE244:
1290:../switch_sdk/core/yt/yt_l2.c ****     CMM_PARAM_CHK((NULL == pUcastMac), CMM_ERR_NULL_POINT);
 12131              		.loc 1 1290 5 is_stmt 1 discriminator 1 view .LVU3459
1290:../switch_sdk/core/yt/yt_l2.c ****     CMM_PARAM_CHK((NULL == pUcastMac), CMM_ERR_NULL_POINT);
 12132              		.loc 1 1290 5 discriminator 1 view .LVU3460
 12133 0058 0E4B     		ldr	r3, .L1269+4
 12134 005a 1B78     		ldrb	r3, [r3]	@ zero_extendqisi2
 12135 005c 012B     		cmp	r3, #1
 12136 005e 01D8     		bhi	.L1267
 12137              	.LVL1559:
 12138              	.L1257:
1290:../switch_sdk/core/yt/yt_l2.c ****     CMM_PARAM_CHK((NULL == pUcastMac), CMM_ERR_NULL_POINT);
 12139              		.loc 1 1290 5 discriminator 5 view .LVU3461
1290:../switch_sdk/core/yt/yt_l2.c ****     CMM_PARAM_CHK((NULL == pUcastMac), CMM_ERR_NULL_POINT);
 12140              		.loc 1 1290 5 discriminator 5 view .LVU3462
1290:../switch_sdk/core/yt/yt_l2.c ****     CMM_PARAM_CHK((NULL == pUcastMac), CMM_ERR_NULL_POINT);
 12141              		.loc 1 1290 5 discriminator 5 view .LVU3463
 12142 0060 0420     		movs	r0, #4
 12143 0062 DCE7     		b	.L1250
 12144              	.LVL1560:
 12145              	.L1267:
1290:../switch_sdk/core/yt/yt_l2.c ****     CMM_PARAM_CHK((NULL == pUcastMac), CMM_ERR_NULL_POINT);
 12146              		.loc 1 1290 5 discriminator 3 view .LVU3464
 12147              	.LBB245:
1290:../switch_sdk/core/yt/yt_l2.c ****     CMM_PARAM_CHK((NULL == pUcastMac), CMM_ERR_NULL_POINT);
 12148              		.loc 1 1290 5 discriminator 3 view .LVU3465
 12149 0064 0C4B     		ldr	r3, .L1269+8
 12150 0066 1A69     		ldr	r2, [r3, #16]
 12151              	.LVL1561:
1290:../switch_sdk/core/yt/yt_l2.c ****     CMM_PARAM_CHK((NULL == pUcastMac), CMM_ERR_NULL_POINT);
 12152              		.loc 1 1290 5 is_stmt 0 discriminator 3 view .LVU3466
 12153 0068 0C4B     		ldr	r3, .L1269+12
 12154 006a 9968     		ldr	r1, [r3, #8]
 12155              	.LVL1562:
1290:../switch_sdk/core/yt/yt_l2.c ****     CMM_PARAM_CHK((NULL == pUcastMac), CMM_ERR_NULL_POINT);
 12156              		.loc 1 1290 5 discriminator 3 view .LVU3467
 12157 006c 0C48     		ldr	r0, .L1269+16
 12158 006e FFF7FEFF 		bl	osal_printf
 12159              	.LVL1563:
 12160 0072 F5E7     		b	.L1257
 12161              	.LVL1564:
 12162              	.L1264:
1290:../switch_sdk/core/yt/yt_l2.c ****     CMM_PARAM_CHK((NULL == pUcastMac), CMM_ERR_NULL_POINT);
 12163              		.loc 1 1290 5 discriminator 3 view .LVU3468
 12164              	.LBE245:
1291:../switch_sdk/core/yt/yt_l2.c **** 
 12165              		.loc 1 1291 5 is_stmt 1 discriminator 1 view .LVU3469
1291:../switch_sdk/core/yt/yt_l2.c **** 
 12166              		.loc 1 1291 5 discriminator 1 view .LVU3470
 12167 0074 074B     		ldr	r3, .L1269+4
 12168 0076 1B78     		ldrb	r3, [r3]	@ zero_extendqisi2
 12169 0078 012B     		cmp	r3, #1
 12170 007a 01D8     		bhi	.L1268
 12171              	.LVL1565:
 12172              	.L1259:
1291:../switch_sdk/core/yt/yt_l2.c **** 
 12173              		.loc 1 1291 5 discriminator 5 view .LVU3471
1291:../switch_sdk/core/yt/yt_l2.c **** 
 12174              		.loc 1 1291 5 discriminator 5 view .LVU3472
1291:../switch_sdk/core/yt/yt_l2.c **** 
 12175              		.loc 1 1291 5 discriminator 5 view .LVU3473
 12176 007c 0220     		movs	r0, #2
 12177 007e CEE7     		b	.L1250
 12178              	.LVL1566:
 12179              	.L1268:
1291:../switch_sdk/core/yt/yt_l2.c **** 
 12180              		.loc 1 1291 5 discriminator 3 view .LVU3474
 12181              	.LBB246:
1291:../switch_sdk/core/yt/yt_l2.c **** 
 12182              		.loc 1 1291 5 discriminator 3 view .LVU3475
 12183 0080 054B     		ldr	r3, .L1269+8
 12184 0082 9A68     		ldr	r2, [r3, #8]
 12185              	.LVL1567:
1291:../switch_sdk/core/yt/yt_l2.c **** 
 12186              		.loc 1 1291 5 is_stmt 0 discriminator 3 view .LVU3476
 12187 0084 054B     		ldr	r3, .L1269+12
 12188 0086 9968     		ldr	r1, [r3, #8]
 12189              	.LVL1568:
1291:../switch_sdk/core/yt/yt_l2.c **** 
 12190              		.loc 1 1291 5 discriminator 3 view .LVU3477
 12191 0088 0548     		ldr	r0, .L1269+16
 12192 008a FFF7FEFF 		bl	osal_printf
 12193              	.LVL1569:
 12194 008e F5E7     		b	.L1259
 12195              	.L1270:
 12196              		.align	2
 12197              	.L1269:
 12198 0090 00000000 		.word	gpfal_dispatch
 12199 0094 00000000 		.word	yt_debug_level
 12200 0098 00000000 		.word	_yt_errmsg
 12201 009c 00000000 		.word	_yt_prompt_msg
 12202 00a0 00000000 		.word	.LC0
 12203              	.LBE246:
 12204              		.cfi_endproc
 12205              	.LFE60:
 12207              		.section	.text.yt_l2_fdb_uc_withMacAndVid_get,"ax",%progbits
 12208              		.align	1
 12209              		.global	yt_l2_fdb_uc_withMacAndVid_get
 12210              		.syntax unified
 12211              		.thumb
 12212              		.thumb_func
 12214              	yt_l2_fdb_uc_withMacAndVid_get:
 12215              	.LVL1570:
 12216              	.LFB61:
1295:../switch_sdk/core/yt/yt_l2.c **** 
1296:../switch_sdk/core/yt/yt_l2.c **** /**
1297:../switch_sdk/core/yt/yt_l2.c ****  * @internal      yt_l2_fdb_uc_withMacAndVid_get
1298:../switch_sdk/core/yt/yt_l2.c ****  * @endinternal
1299:../switch_sdk/core/yt/yt_l2.c ****  *
1300:../switch_sdk/core/yt/yt_l2.c ****  * @brief         get ucast info by addr and vlan
1301:../switch_sdk/core/yt/yt_l2.c ****  * @note          APPLICABLE DEVICES  -Tiger
1302:../switch_sdk/core/yt/yt_l2.c ****  * @param[in]     unit                -unit id
1303:../switch_sdk/core/yt/yt_l2.c ****  * @param[in]     vid                 -vlan id
1304:../switch_sdk/core/yt/yt_l2.c ****  * @param[in]     mac_addr            -mac address
1305:../switch_sdk/core/yt/yt_l2.c ****  * @param[out]    pUcastMac           -ucast mac info,refer to l2_ucastMacAddr_info_t
1306:../switch_sdk/core/yt/yt_l2.c ****  * @retval        CMM_ERR_OK          -on success
1307:../switch_sdk/core/yt/yt_l2.c ****  * @retval        CMM_ERR_FAIL        -on fail
1308:../switch_sdk/core/yt/yt_l2.c ****  * @retval        CMM_ERR_ENTRY_NOT_FOUND -no valid mac entry on this index next
1309:../switch_sdk/core/yt/yt_l2.c ****  */
1310:../switch_sdk/core/yt/yt_l2.c **** yt_ret_t yt_l2_fdb_uc_withMacAndVid_get(yt_unit_t unit, yt_vlan_t vid, yt_mac_addr_t mac_addr, l2_u
1311:../switch_sdk/core/yt/yt_l2.c **** {
 12217              		.loc 1 1311 1 is_stmt 1 view -0
 12218              		.cfi_startproc
 12219              		@ args = 4, pretend = 0, frame = 8
 12220              		@ frame_needed = 0, uses_anonymous_args = 0
 12221              		.loc 1 1311 1 is_stmt 0 view .LVU3479
 12222 0000 10B5     		push	{r4, lr}
 12223              		.cfi_def_cfa_offset 8
 12224              		.cfi_offset 4, -8
 12225              		.cfi_offset 14, -4
 12226 0002 84B0     		sub	sp, sp, #16
 12227              		.cfi_def_cfa_offset 24
 12228 0004 04AC     		add	r4, sp, #16
 12229 0006 04E90C00 		stmdb	r4, {r2, r3}
 12230 000a 069A     		ldr	r2, [sp, #24]
1312:../switch_sdk/core/yt/yt_l2.c ****     CMM_PARAM_CHK((YT_UNIT_NUM <= unit), CMM_ERR_INPUT);
 12231              		.loc 1 1312 5 is_stmt 1 view .LVU3480
 12232              		.loc 1 1312 5 view .LVU3481
 12233 000c 90B9     		cbnz	r0, .L1282
 12234 000e 8446     		mov	ip, r0
 12235              		.loc 1 1312 5 discriminator 2 view .LVU3482
1313:../switch_sdk/core/yt/yt_l2.c ****     CMM_PARAM_CHK(NULL == YT_DISPATCH(unit), CMM_ERR_NOT_INIT);
 12236              		.loc 1 1313 5 discriminator 2 view .LVU3483
 12237              		.loc 1 1313 5 discriminator 2 view .LVU3484
 12238 0010 244B     		ldr	r3, .L1290
 12239 0012 53F82030 		ldr	r3, [r3, r0, lsl #2]
 12240 0016 DBB1     		cbz	r3, .L1283
 12241              		.loc 1 1313 5 discriminator 2 view .LVU3485
1314:../switch_sdk/core/yt/yt_l2.c ****     CMM_PARAM_CHK((!(YT_DISPATCH(unit)->is_inited)), CMM_ERR_NOT_INIT);
 12242              		.loc 1 1314 5 discriminator 2 view .LVU3486
 12243              		.loc 1 1314 5 discriminator 2 view .LVU3487
 12244 0018 1878     		ldrb	r0, [r3]	@ zero_extendqisi2
 12245              	.LVL1571:
 12246              		.loc 1 1314 5 is_stmt 0 discriminator 2 view .LVU3488
 12247 001a 38B3     		cbz	r0, .L1284
 12248              		.loc 1 1314 5 is_stmt 1 discriminator 2 view .LVU3489
1315:../switch_sdk/core/yt/yt_l2.c ****     CMM_PARAM_CHK((NULL == pUcastMac), CMM_ERR_NULL_POINT);
 12249              		.loc 1 1315 5 discriminator 2 view .LVU3490
 12250              		.loc 1 1315 5 discriminator 2 view .LVU3491
 12251 001c 002A     		cmp	r2, #0
 12252 001e 33D0     		beq	.L1285
 12253              		.loc 1 1315 5 discriminator 2 view .LVU3492
1316:../switch_sdk/core/yt/yt_l2.c **** 
1317:../switch_sdk/core/yt/yt_l2.c ****     return YT_DISPATCH(unit)->l2_fdb_uc_withMacAndVid_get(unit, vid, mac_addr, pUcastMac);
 12254              		.loc 1 1317 5 discriminator 2 view .LVU3493
 12255              		.loc 1 1317 29 is_stmt 0 discriminator 2 view .LVU3494
 12256 0020 D3F82444 		ldr	r4, [r3, #1060]
 12257              		.loc 1 1317 12 discriminator 2 view .LVU3495
 12258 0024 0092     		str	r2, [sp]
 12259 0026 04AB     		add	r3, sp, #16
 12260 0028 13E90C00 		ldmdb	r3, {r2, r3}
 12261 002c 6046     		mov	r0, ip
 12262 002e A047     		blx	r4
 12263              	.LVL1572:
 12264              	.L1271:
1318:../switch_sdk/core/yt/yt_l2.c **** }
 12265              		.loc 1 1318 1 view .LVU3496
 12266 0030 04B0     		add	sp, sp, #16
 12267              		.cfi_remember_state
 12268              		.cfi_def_cfa_offset 8
 12269              		@ sp needed
 12270 0032 10BD     		pop	{r4, pc}
 12271              	.LVL1573:
 12272              	.L1282:
 12273              		.cfi_restore_state
1312:../switch_sdk/core/yt/yt_l2.c ****     CMM_PARAM_CHK(NULL == YT_DISPATCH(unit), CMM_ERR_NOT_INIT);
 12274              		.loc 1 1312 5 is_stmt 1 discriminator 1 view .LVU3497
1312:../switch_sdk/core/yt/yt_l2.c ****     CMM_PARAM_CHK(NULL == YT_DISPATCH(unit), CMM_ERR_NOT_INIT);
 12275              		.loc 1 1312 5 discriminator 1 view .LVU3498
 12276 0034 1C4B     		ldr	r3, .L1290+4
 12277 0036 1B78     		ldrb	r3, [r3]	@ zero_extendqisi2
 12278 0038 012B     		cmp	r3, #1
 12279 003a 01D8     		bhi	.L1286
 12280              	.LVL1574:
 12281              	.L1273:
1312:../switch_sdk/core/yt/yt_l2.c ****     CMM_PARAM_CHK(NULL == YT_DISPATCH(unit), CMM_ERR_NOT_INIT);
 12282              		.loc 1 1312 5 discriminator 5 view .LVU3499
1312:../switch_sdk/core/yt/yt_l2.c ****     CMM_PARAM_CHK(NULL == YT_DISPATCH(unit), CMM_ERR_NOT_INIT);
 12283              		.loc 1 1312 5 discriminator 5 view .LVU3500
1312:../switch_sdk/core/yt/yt_l2.c ****     CMM_PARAM_CHK(NULL == YT_DISPATCH(unit), CMM_ERR_NOT_INIT);
 12284              		.loc 1 1312 5 discriminator 5 view .LVU3501
 12285 003c 0520     		movs	r0, #5
 12286 003e F7E7     		b	.L1271
 12287              	.LVL1575:
 12288              	.L1286:
1312:../switch_sdk/core/yt/yt_l2.c ****     CMM_PARAM_CHK(NULL == YT_DISPATCH(unit), CMM_ERR_NOT_INIT);
 12289              		.loc 1 1312 5 discriminator 3 view .LVU3502
 12290              	.LBB247:
1312:../switch_sdk/core/yt/yt_l2.c ****     CMM_PARAM_CHK(NULL == YT_DISPATCH(unit), CMM_ERR_NOT_INIT);
 12291              		.loc 1 1312 5 discriminator 3 view .LVU3503
 12292 0040 1A4B     		ldr	r3, .L1290+8
 12293 0042 5A69     		ldr	r2, [r3, #20]
 12294 0044 1A4B     		ldr	r3, .L1290+12
 12295 0046 9968     		ldr	r1, [r3, #8]
 12296              	.LVL1576:
1312:../switch_sdk/core/yt/yt_l2.c ****     CMM_PARAM_CHK(NULL == YT_DISPATCH(unit), CMM_ERR_NOT_INIT);
 12297              		.loc 1 1312 5 is_stmt 0 discriminator 3 view .LVU3504
 12298 0048 1A48     		ldr	r0, .L1290+16
 12299              	.LVL1577:
1312:../switch_sdk/core/yt/yt_l2.c ****     CMM_PARAM_CHK(NULL == YT_DISPATCH(unit), CMM_ERR_NOT_INIT);
 12300              		.loc 1 1312 5 discriminator 3 view .LVU3505
 12301 004a FFF7FEFF 		bl	osal_printf
 12302              	.LVL1578:
 12303 004e F5E7     		b	.L1273
 12304              	.LVL1579:
 12305              	.L1283:
1312:../switch_sdk/core/yt/yt_l2.c ****     CMM_PARAM_CHK(NULL == YT_DISPATCH(unit), CMM_ERR_NOT_INIT);
 12306              		.loc 1 1312 5 discriminator 3 view .LVU3506
 12307              	.LBE247:
1313:../switch_sdk/core/yt/yt_l2.c ****     CMM_PARAM_CHK((!(YT_DISPATCH(unit)->is_inited)), CMM_ERR_NOT_INIT);
 12308              		.loc 1 1313 5 is_stmt 1 discriminator 1 view .LVU3507
1313:../switch_sdk/core/yt/yt_l2.c ****     CMM_PARAM_CHK((!(YT_DISPATCH(unit)->is_inited)), CMM_ERR_NOT_INIT);
 12309              		.loc 1 1313 5 discriminator 1 view .LVU3508
 12310 0050 154B     		ldr	r3, .L1290+4
 12311 0052 1B78     		ldrb	r3, [r3]	@ zero_extendqisi2
 12312 0054 012B     		cmp	r3, #1
 12313 0056 01D8     		bhi	.L1287
 12314              	.LVL1580:
 12315              	.L1276:
1313:../switch_sdk/core/yt/yt_l2.c ****     CMM_PARAM_CHK((!(YT_DISPATCH(unit)->is_inited)), CMM_ERR_NOT_INIT);
 12316              		.loc 1 1313 5 discriminator 5 view .LVU3509
1313:../switch_sdk/core/yt/yt_l2.c ****     CMM_PARAM_CHK((!(YT_DISPATCH(unit)->is_inited)), CMM_ERR_NOT_INIT);
 12317              		.loc 1 1313 5 discriminator 5 view .LVU3510
1313:../switch_sdk/core/yt/yt_l2.c ****     CMM_PARAM_CHK((!(YT_DISPATCH(unit)->is_inited)), CMM_ERR_NOT_INIT);
 12318              		.loc 1 1313 5 discriminator 5 view .LVU3511
 12319 0058 0420     		movs	r0, #4
 12320 005a E9E7     		b	.L1271
 12321              	.LVL1581:
 12322              	.L1287:
1313:../switch_sdk/core/yt/yt_l2.c ****     CMM_PARAM_CHK((!(YT_DISPATCH(unit)->is_inited)), CMM_ERR_NOT_INIT);
 12323              		.loc 1 1313 5 discriminator 3 view .LVU3512
 12324              	.LBB248:
1313:../switch_sdk/core/yt/yt_l2.c ****     CMM_PARAM_CHK((!(YT_DISPATCH(unit)->is_inited)), CMM_ERR_NOT_INIT);
 12325              		.loc 1 1313 5 discriminator 3 view .LVU3513
 12326 005c 134B     		ldr	r3, .L1290+8
 12327 005e 1A69     		ldr	r2, [r3, #16]
 12328 0060 134B     		ldr	r3, .L1290+12
 12329 0062 9968     		ldr	r1, [r3, #8]
 12330              	.LVL1582:
1313:../switch_sdk/core/yt/yt_l2.c ****     CMM_PARAM_CHK((!(YT_DISPATCH(unit)->is_inited)), CMM_ERR_NOT_INIT);
 12331              		.loc 1 1313 5 is_stmt 0 discriminator 3 view .LVU3514
 12332 0064 1348     		ldr	r0, .L1290+16
 12333              	.LVL1583:
1313:../switch_sdk/core/yt/yt_l2.c ****     CMM_PARAM_CHK((!(YT_DISPATCH(unit)->is_inited)), CMM_ERR_NOT_INIT);
 12334              		.loc 1 1313 5 discriminator 3 view .LVU3515
 12335 0066 FFF7FEFF 		bl	osal_printf
 12336              	.LVL1584:
 12337 006a F5E7     		b	.L1276
 12338              	.LVL1585:
 12339              	.L1284:
1313:../switch_sdk/core/yt/yt_l2.c ****     CMM_PARAM_CHK((!(YT_DISPATCH(unit)->is_inited)), CMM_ERR_NOT_INIT);
 12340              		.loc 1 1313 5 discriminator 3 view .LVU3516
 12341              	.LBE248:
1314:../switch_sdk/core/yt/yt_l2.c ****     CMM_PARAM_CHK((NULL == pUcastMac), CMM_ERR_NULL_POINT);
 12342              		.loc 1 1314 5 is_stmt 1 discriminator 1 view .LVU3517
1314:../switch_sdk/core/yt/yt_l2.c ****     CMM_PARAM_CHK((NULL == pUcastMac), CMM_ERR_NULL_POINT);
 12343              		.loc 1 1314 5 discriminator 1 view .LVU3518
 12344 006c 0E4B     		ldr	r3, .L1290+4
 12345 006e 1B78     		ldrb	r3, [r3]	@ zero_extendqisi2
 12346 0070 012B     		cmp	r3, #1
 12347 0072 01D8     		bhi	.L1288
 12348              	.LVL1586:
 12349              	.L1278:
1314:../switch_sdk/core/yt/yt_l2.c ****     CMM_PARAM_CHK((NULL == pUcastMac), CMM_ERR_NULL_POINT);
 12350              		.loc 1 1314 5 discriminator 5 view .LVU3519
1314:../switch_sdk/core/yt/yt_l2.c ****     CMM_PARAM_CHK((NULL == pUcastMac), CMM_ERR_NULL_POINT);
 12351              		.loc 1 1314 5 discriminator 5 view .LVU3520
1314:../switch_sdk/core/yt/yt_l2.c ****     CMM_PARAM_CHK((NULL == pUcastMac), CMM_ERR_NULL_POINT);
 12352              		.loc 1 1314 5 discriminator 5 view .LVU3521
 12353 0074 0420     		movs	r0, #4
 12354 0076 DBE7     		b	.L1271
 12355              	.LVL1587:
 12356              	.L1288:
1314:../switch_sdk/core/yt/yt_l2.c ****     CMM_PARAM_CHK((NULL == pUcastMac), CMM_ERR_NULL_POINT);
 12357              		.loc 1 1314 5 discriminator 3 view .LVU3522
 12358              	.LBB249:
1314:../switch_sdk/core/yt/yt_l2.c ****     CMM_PARAM_CHK((NULL == pUcastMac), CMM_ERR_NULL_POINT);
 12359              		.loc 1 1314 5 discriminator 3 view .LVU3523
 12360 0078 0C4B     		ldr	r3, .L1290+8
 12361 007a 1A69     		ldr	r2, [r3, #16]
 12362 007c 0C4B     		ldr	r3, .L1290+12
 12363 007e 9968     		ldr	r1, [r3, #8]
 12364              	.LVL1588:
1314:../switch_sdk/core/yt/yt_l2.c ****     CMM_PARAM_CHK((NULL == pUcastMac), CMM_ERR_NULL_POINT);
 12365              		.loc 1 1314 5 is_stmt 0 discriminator 3 view .LVU3524
 12366 0080 0C48     		ldr	r0, .L1290+16
 12367 0082 FFF7FEFF 		bl	osal_printf
 12368              	.LVL1589:
 12369 0086 F5E7     		b	.L1278
 12370              	.LVL1590:
 12371              	.L1285:
1314:../switch_sdk/core/yt/yt_l2.c ****     CMM_PARAM_CHK((NULL == pUcastMac), CMM_ERR_NULL_POINT);
 12372              		.loc 1 1314 5 discriminator 3 view .LVU3525
 12373              	.LBE249:
1315:../switch_sdk/core/yt/yt_l2.c **** 
 12374              		.loc 1 1315 5 is_stmt 1 discriminator 1 view .LVU3526
1315:../switch_sdk/core/yt/yt_l2.c **** 
 12375              		.loc 1 1315 5 discriminator 1 view .LVU3527
 12376 0088 074B     		ldr	r3, .L1290+4
 12377 008a 1B78     		ldrb	r3, [r3]	@ zero_extendqisi2
 12378 008c 012B     		cmp	r3, #1
 12379 008e 01D8     		bhi	.L1289
 12380              	.LVL1591:
 12381              	.L1280:
1315:../switch_sdk/core/yt/yt_l2.c **** 
 12382              		.loc 1 1315 5 discriminator 5 view .LVU3528
1315:../switch_sdk/core/yt/yt_l2.c **** 
 12383              		.loc 1 1315 5 discriminator 5 view .LVU3529
1315:../switch_sdk/core/yt/yt_l2.c **** 
 12384              		.loc 1 1315 5 discriminator 5 view .LVU3530
 12385 0090 0220     		movs	r0, #2
 12386 0092 CDE7     		b	.L1271
 12387              	.LVL1592:
 12388              	.L1289:
1315:../switch_sdk/core/yt/yt_l2.c **** 
 12389              		.loc 1 1315 5 discriminator 3 view .LVU3531
 12390              	.LBB250:
1315:../switch_sdk/core/yt/yt_l2.c **** 
 12391              		.loc 1 1315 5 discriminator 3 view .LVU3532
 12392 0094 054B     		ldr	r3, .L1290+8
 12393 0096 9A68     		ldr	r2, [r3, #8]
 12394 0098 054B     		ldr	r3, .L1290+12
 12395 009a 9968     		ldr	r1, [r3, #8]
 12396              	.LVL1593:
1315:../switch_sdk/core/yt/yt_l2.c **** 
 12397              		.loc 1 1315 5 is_stmt 0 discriminator 3 view .LVU3533
 12398 009c 0548     		ldr	r0, .L1290+16
 12399 009e FFF7FEFF 		bl	osal_printf
 12400              	.LVL1594:
 12401 00a2 F5E7     		b	.L1280
 12402              	.L1291:
 12403              		.align	2
 12404              	.L1290:
 12405 00a4 00000000 		.word	gpfal_dispatch
 12406 00a8 00000000 		.word	yt_debug_level
 12407 00ac 00000000 		.word	_yt_errmsg
 12408 00b0 00000000 		.word	_yt_prompt_msg
 12409 00b4 00000000 		.word	.LC0
 12410              	.LBE250:
 12411              		.cfi_endproc
 12412              	.LFE61:
 12414              		.section	.text.yt_l2_fdb_uc_withindex_getnext,"ax",%progbits
 12415              		.align	1
 12416              		.global	yt_l2_fdb_uc_withindex_getnext
 12417              		.syntax unified
 12418              		.thumb
 12419              		.thumb_func
 12421              	yt_l2_fdb_uc_withindex_getnext:
 12422              	.LVL1595:
 12423              	.LFB62:
1319:../switch_sdk/core/yt/yt_l2.c **** 
1320:../switch_sdk/core/yt/yt_l2.c **** /**
1321:../switch_sdk/core/yt/yt_l2.c ****  * @internal      yt_l2_fdb_uc_withindex_getnext
1322:../switch_sdk/core/yt/yt_l2.c ****  * @endinternal
1323:../switch_sdk/core/yt/yt_l2.c ****  *
1324:../switch_sdk/core/yt/yt_l2.c ****  * @brief         get next vaild ucast info by current index
1325:../switch_sdk/core/yt/yt_l2.c ****  * @note          APPLICABLE DEVICES  -Tiger
1326:../switch_sdk/core/yt/yt_l2.c ****  * @param[in]     unit                -unit id
1327:../switch_sdk/core/yt/yt_l2.c ****  * @param[in]     index                 -current index
1328:../switch_sdk/core/yt/yt_l2.c ****  * @param[out]    pNext_index            -the index of next vaild entry
1329:../switch_sdk/core/yt/yt_l2.c ****  * @param[out]    pUcastMac           -ucast mac info,refer to l2_ucastMacAddr_info_t
1330:../switch_sdk/core/yt/yt_l2.c ****  * @retval        CMM_ERR_OK          -on success
1331:../switch_sdk/core/yt/yt_l2.c ****  * @retval        CMM_ERR_FAIL        -on fail
1332:../switch_sdk/core/yt/yt_l2.c ****  * @retval        CMM_ERR_ENTRY_NOT_FOUND -no valid mac on this index
1333:../switch_sdk/core/yt/yt_l2.c ****  */
1334:../switch_sdk/core/yt/yt_l2.c **** yt_ret_t  yt_l2_fdb_uc_withindex_getnext(yt_unit_t unit, uint16_t index, uint16_t *pNext_index, l2_
1335:../switch_sdk/core/yt/yt_l2.c **** {
 12424              		.loc 1 1335 1 is_stmt 1 view -0
 12425              		.cfi_startproc
 12426              		@ args = 0, pretend = 0, frame = 0
 12427              		@ frame_needed = 0, uses_anonymous_args = 0
 12428              		.loc 1 1335 1 is_stmt 0 view .LVU3535
 12429 0000 10B5     		push	{r4, lr}
 12430              		.cfi_def_cfa_offset 8
 12431              		.cfi_offset 4, -8
 12432              		.cfi_offset 14, -4
1336:../switch_sdk/core/yt/yt_l2.c ****     CMM_PARAM_CHK((YT_UNIT_NUM <= unit), CMM_ERR_INPUT);
 12433              		.loc 1 1336 5 is_stmt 1 view .LVU3536
 12434              		.loc 1 1336 5 view .LVU3537
 12435 0002 68B9     		cbnz	r0, .L1303
 12436 0004 8446     		mov	ip, r0
 12437              		.loc 1 1336 5 discriminator 2 view .LVU3538
1337:../switch_sdk/core/yt/yt_l2.c ****     CMM_PARAM_CHK(NULL == YT_DISPATCH(unit), CMM_ERR_NOT_INIT);
 12438              		.loc 1 1337 5 discriminator 2 view .LVU3539
 12439              		.loc 1 1337 5 discriminator 2 view .LVU3540
 12440 0006 2248     		ldr	r0, .L1311
 12441              	.LVL1596:
 12442              		.loc 1 1337 5 is_stmt 0 discriminator 2 view .LVU3541
 12443 0008 50F82C40 		ldr	r4, [r0, ip, lsl #2]
 12444 000c B4B1     		cbz	r4, .L1304
 12445              		.loc 1 1337 5 is_stmt 1 discriminator 2 view .LVU3542
1338:../switch_sdk/core/yt/yt_l2.c ****     CMM_PARAM_CHK((!(YT_DISPATCH(unit)->is_inited)), CMM_ERR_NOT_INIT);
 12446              		.loc 1 1338 5 discriminator 2 view .LVU3543
 12447              		.loc 1 1338 5 discriminator 2 view .LVU3544
 12448 000e 2078     		ldrb	r0, [r4]	@ zero_extendqisi2
 12449 0010 10B3     		cbz	r0, .L1305
 12450              		.loc 1 1338 5 discriminator 2 view .LVU3545
1339:../switch_sdk/core/yt/yt_l2.c ****     CMM_PARAM_CHK((NULL == pUcastMac), CMM_ERR_NULL_POINT);
 12451              		.loc 1 1339 5 discriminator 2 view .LVU3546
 12452              		.loc 1 1339 5 discriminator 2 view .LVU3547
 12453 0012 002B     		cmp	r3, #0
 12454 0014 2ED0     		beq	.L1306
 12455              		.loc 1 1339 5 discriminator 2 view .LVU3548
1340:../switch_sdk/core/yt/yt_l2.c **** 
1341:../switch_sdk/core/yt/yt_l2.c ****     return YT_DISPATCH(unit)->l2_fdb_uc_withindex_getnext(unit, index, pNext_index, pUcastMac);
 12456              		.loc 1 1341 5 discriminator 2 view .LVU3549
 12457              		.loc 1 1341 29 is_stmt 0 discriminator 2 view .LVU3550
 12458 0016 D4F82844 		ldr	r4, [r4, #1064]
 12459              		.loc 1 1341 12 discriminator 2 view .LVU3551
 12460 001a 6046     		mov	r0, ip
 12461 001c A047     		blx	r4
 12462              	.LVL1597:
 12463              	.L1292:
1342:../switch_sdk/core/yt/yt_l2.c **** }
 12464              		.loc 1 1342 1 view .LVU3552
 12465 001e 10BD     		pop	{r4, pc}
 12466              	.LVL1598:
 12467              	.L1303:
1336:../switch_sdk/core/yt/yt_l2.c ****     CMM_PARAM_CHK(NULL == YT_DISPATCH(unit), CMM_ERR_NOT_INIT);
 12468              		.loc 1 1336 5 is_stmt 1 discriminator 1 view .LVU3553
1336:../switch_sdk/core/yt/yt_l2.c ****     CMM_PARAM_CHK(NULL == YT_DISPATCH(unit), CMM_ERR_NOT_INIT);
 12469              		.loc 1 1336 5 discriminator 1 view .LVU3554
 12470 0020 1C4B     		ldr	r3, .L1311+4
 12471              	.LVL1599:
1336:../switch_sdk/core/yt/yt_l2.c ****     CMM_PARAM_CHK(NULL == YT_DISPATCH(unit), CMM_ERR_NOT_INIT);
 12472              		.loc 1 1336 5 is_stmt 0 discriminator 1 view .LVU3555
 12473 0022 1B78     		ldrb	r3, [r3]	@ zero_extendqisi2
 12474 0024 012B     		cmp	r3, #1
 12475 0026 01D8     		bhi	.L1307
 12476              	.LVL1600:
 12477              	.L1294:
1336:../switch_sdk/core/yt/yt_l2.c ****     CMM_PARAM_CHK(NULL == YT_DISPATCH(unit), CMM_ERR_NOT_INIT);
 12478              		.loc 1 1336 5 is_stmt 1 discriminator 5 view .LVU3556
1336:../switch_sdk/core/yt/yt_l2.c ****     CMM_PARAM_CHK(NULL == YT_DISPATCH(unit), CMM_ERR_NOT_INIT);
 12479              		.loc 1 1336 5 discriminator 5 view .LVU3557
1336:../switch_sdk/core/yt/yt_l2.c ****     CMM_PARAM_CHK(NULL == YT_DISPATCH(unit), CMM_ERR_NOT_INIT);
 12480              		.loc 1 1336 5 discriminator 5 view .LVU3558
 12481 0028 0520     		movs	r0, #5
 12482 002a F8E7     		b	.L1292
 12483              	.LVL1601:
 12484              	.L1307:
1336:../switch_sdk/core/yt/yt_l2.c ****     CMM_PARAM_CHK(NULL == YT_DISPATCH(unit), CMM_ERR_NOT_INIT);
 12485              		.loc 1 1336 5 discriminator 3 view .LVU3559
 12486              	.LBB251:
1336:../switch_sdk/core/yt/yt_l2.c ****     CMM_PARAM_CHK(NULL == YT_DISPATCH(unit), CMM_ERR_NOT_INIT);
 12487              		.loc 1 1336 5 discriminator 3 view .LVU3560
 12488 002c 1A4B     		ldr	r3, .L1311+8
 12489 002e 5A69     		ldr	r2, [r3, #20]
 12490              	.LVL1602:
1336:../switch_sdk/core/yt/yt_l2.c ****     CMM_PARAM_CHK(NULL == YT_DISPATCH(unit), CMM_ERR_NOT_INIT);
 12491              		.loc 1 1336 5 is_stmt 0 discriminator 3 view .LVU3561
 12492 0030 1A4B     		ldr	r3, .L1311+12
 12493 0032 9968     		ldr	r1, [r3, #8]
 12494              	.LVL1603:
1336:../switch_sdk/core/yt/yt_l2.c ****     CMM_PARAM_CHK(NULL == YT_DISPATCH(unit), CMM_ERR_NOT_INIT);
 12495              		.loc 1 1336 5 discriminator 3 view .LVU3562
 12496 0034 1A48     		ldr	r0, .L1311+16
 12497              	.LVL1604:
1336:../switch_sdk/core/yt/yt_l2.c ****     CMM_PARAM_CHK(NULL == YT_DISPATCH(unit), CMM_ERR_NOT_INIT);
 12498              		.loc 1 1336 5 discriminator 3 view .LVU3563
 12499 0036 FFF7FEFF 		bl	osal_printf
 12500              	.LVL1605:
 12501 003a F5E7     		b	.L1294
 12502              	.LVL1606:
 12503              	.L1304:
1336:../switch_sdk/core/yt/yt_l2.c ****     CMM_PARAM_CHK(NULL == YT_DISPATCH(unit), CMM_ERR_NOT_INIT);
 12504              		.loc 1 1336 5 discriminator 3 view .LVU3564
 12505              	.LBE251:
1337:../switch_sdk/core/yt/yt_l2.c ****     CMM_PARAM_CHK((!(YT_DISPATCH(unit)->is_inited)), CMM_ERR_NOT_INIT);
 12506              		.loc 1 1337 5 is_stmt 1 discriminator 1 view .LVU3565
1337:../switch_sdk/core/yt/yt_l2.c ****     CMM_PARAM_CHK((!(YT_DISPATCH(unit)->is_inited)), CMM_ERR_NOT_INIT);
 12507              		.loc 1 1337 5 discriminator 1 view .LVU3566
 12508 003c 154B     		ldr	r3, .L1311+4
 12509              	.LVL1607:
1337:../switch_sdk/core/yt/yt_l2.c ****     CMM_PARAM_CHK((!(YT_DISPATCH(unit)->is_inited)), CMM_ERR_NOT_INIT);
 12510              		.loc 1 1337 5 is_stmt 0 discriminator 1 view .LVU3567
 12511 003e 1B78     		ldrb	r3, [r3]	@ zero_extendqisi2
 12512 0040 012B     		cmp	r3, #1
 12513 0042 01D8     		bhi	.L1308
 12514              	.LVL1608:
 12515              	.L1297:
1337:../switch_sdk/core/yt/yt_l2.c ****     CMM_PARAM_CHK((!(YT_DISPATCH(unit)->is_inited)), CMM_ERR_NOT_INIT);
 12516              		.loc 1 1337 5 is_stmt 1 discriminator 5 view .LVU3568
1337:../switch_sdk/core/yt/yt_l2.c ****     CMM_PARAM_CHK((!(YT_DISPATCH(unit)->is_inited)), CMM_ERR_NOT_INIT);
 12517              		.loc 1 1337 5 discriminator 5 view .LVU3569
1337:../switch_sdk/core/yt/yt_l2.c ****     CMM_PARAM_CHK((!(YT_DISPATCH(unit)->is_inited)), CMM_ERR_NOT_INIT);
 12518              		.loc 1 1337 5 discriminator 5 view .LVU3570
 12519 0044 0420     		movs	r0, #4
 12520 0046 EAE7     		b	.L1292
 12521              	.LVL1609:
 12522              	.L1308:
1337:../switch_sdk/core/yt/yt_l2.c ****     CMM_PARAM_CHK((!(YT_DISPATCH(unit)->is_inited)), CMM_ERR_NOT_INIT);
 12523              		.loc 1 1337 5 discriminator 3 view .LVU3571
 12524              	.LBB252:
1337:../switch_sdk/core/yt/yt_l2.c ****     CMM_PARAM_CHK((!(YT_DISPATCH(unit)->is_inited)), CMM_ERR_NOT_INIT);
 12525              		.loc 1 1337 5 discriminator 3 view .LVU3572
 12526 0048 134B     		ldr	r3, .L1311+8
 12527 004a 1A69     		ldr	r2, [r3, #16]
 12528              	.LVL1610:
1337:../switch_sdk/core/yt/yt_l2.c ****     CMM_PARAM_CHK((!(YT_DISPATCH(unit)->is_inited)), CMM_ERR_NOT_INIT);
 12529              		.loc 1 1337 5 is_stmt 0 discriminator 3 view .LVU3573
 12530 004c 134B     		ldr	r3, .L1311+12
 12531 004e 9968     		ldr	r1, [r3, #8]
 12532              	.LVL1611:
1337:../switch_sdk/core/yt/yt_l2.c ****     CMM_PARAM_CHK((!(YT_DISPATCH(unit)->is_inited)), CMM_ERR_NOT_INIT);
 12533              		.loc 1 1337 5 discriminator 3 view .LVU3574
 12534 0050 1348     		ldr	r0, .L1311+16
 12535 0052 FFF7FEFF 		bl	osal_printf
 12536              	.LVL1612:
 12537 0056 F5E7     		b	.L1297
 12538              	.LVL1613:
 12539              	.L1305:
1337:../switch_sdk/core/yt/yt_l2.c ****     CMM_PARAM_CHK((!(YT_DISPATCH(unit)->is_inited)), CMM_ERR_NOT_INIT);
 12540              		.loc 1 1337 5 discriminator 3 view .LVU3575
 12541              	.LBE252:
1338:../switch_sdk/core/yt/yt_l2.c ****     CMM_PARAM_CHK((NULL == pUcastMac), CMM_ERR_NULL_POINT);
 12542              		.loc 1 1338 5 is_stmt 1 discriminator 1 view .LVU3576
1338:../switch_sdk/core/yt/yt_l2.c ****     CMM_PARAM_CHK((NULL == pUcastMac), CMM_ERR_NULL_POINT);
 12543              		.loc 1 1338 5 discriminator 1 view .LVU3577
 12544 0058 0E4B     		ldr	r3, .L1311+4
 12545              	.LVL1614:
1338:../switch_sdk/core/yt/yt_l2.c ****     CMM_PARAM_CHK((NULL == pUcastMac), CMM_ERR_NULL_POINT);
 12546              		.loc 1 1338 5 is_stmt 0 discriminator 1 view .LVU3578
 12547 005a 1B78     		ldrb	r3, [r3]	@ zero_extendqisi2
 12548 005c 012B     		cmp	r3, #1
 12549 005e 01D8     		bhi	.L1309
 12550              	.LVL1615:
 12551              	.L1299:
1338:../switch_sdk/core/yt/yt_l2.c ****     CMM_PARAM_CHK((NULL == pUcastMac), CMM_ERR_NULL_POINT);
 12552              		.loc 1 1338 5 is_stmt 1 discriminator 5 view .LVU3579
1338:../switch_sdk/core/yt/yt_l2.c ****     CMM_PARAM_CHK((NULL == pUcastMac), CMM_ERR_NULL_POINT);
 12553              		.loc 1 1338 5 discriminator 5 view .LVU3580
1338:../switch_sdk/core/yt/yt_l2.c ****     CMM_PARAM_CHK((NULL == pUcastMac), CMM_ERR_NULL_POINT);
 12554              		.loc 1 1338 5 discriminator 5 view .LVU3581
 12555 0060 0420     		movs	r0, #4
 12556 0062 DCE7     		b	.L1292
 12557              	.LVL1616:
 12558              	.L1309:
1338:../switch_sdk/core/yt/yt_l2.c ****     CMM_PARAM_CHK((NULL == pUcastMac), CMM_ERR_NULL_POINT);
 12559              		.loc 1 1338 5 discriminator 3 view .LVU3582
 12560              	.LBB253:
1338:../switch_sdk/core/yt/yt_l2.c ****     CMM_PARAM_CHK((NULL == pUcastMac), CMM_ERR_NULL_POINT);
 12561              		.loc 1 1338 5 discriminator 3 view .LVU3583
 12562 0064 0C4B     		ldr	r3, .L1311+8
 12563 0066 1A69     		ldr	r2, [r3, #16]
 12564              	.LVL1617:
1338:../switch_sdk/core/yt/yt_l2.c ****     CMM_PARAM_CHK((NULL == pUcastMac), CMM_ERR_NULL_POINT);
 12565              		.loc 1 1338 5 is_stmt 0 discriminator 3 view .LVU3584
 12566 0068 0C4B     		ldr	r3, .L1311+12
 12567 006a 9968     		ldr	r1, [r3, #8]
 12568              	.LVL1618:
1338:../switch_sdk/core/yt/yt_l2.c ****     CMM_PARAM_CHK((NULL == pUcastMac), CMM_ERR_NULL_POINT);
 12569              		.loc 1 1338 5 discriminator 3 view .LVU3585
 12570 006c 0C48     		ldr	r0, .L1311+16
 12571 006e FFF7FEFF 		bl	osal_printf
 12572              	.LVL1619:
 12573 0072 F5E7     		b	.L1299
 12574              	.LVL1620:
 12575              	.L1306:
1338:../switch_sdk/core/yt/yt_l2.c ****     CMM_PARAM_CHK((NULL == pUcastMac), CMM_ERR_NULL_POINT);
 12576              		.loc 1 1338 5 discriminator 3 view .LVU3586
 12577              	.LBE253:
1339:../switch_sdk/core/yt/yt_l2.c **** 
 12578              		.loc 1 1339 5 is_stmt 1 discriminator 1 view .LVU3587
1339:../switch_sdk/core/yt/yt_l2.c **** 
 12579              		.loc 1 1339 5 discriminator 1 view .LVU3588
 12580 0074 074B     		ldr	r3, .L1311+4
 12581              	.LVL1621:
1339:../switch_sdk/core/yt/yt_l2.c **** 
 12582              		.loc 1 1339 5 is_stmt 0 discriminator 1 view .LVU3589
 12583 0076 1B78     		ldrb	r3, [r3]	@ zero_extendqisi2
 12584 0078 012B     		cmp	r3, #1
 12585 007a 01D8     		bhi	.L1310
 12586              	.LVL1622:
 12587              	.L1301:
1339:../switch_sdk/core/yt/yt_l2.c **** 
 12588              		.loc 1 1339 5 is_stmt 1 discriminator 5 view .LVU3590
1339:../switch_sdk/core/yt/yt_l2.c **** 
 12589              		.loc 1 1339 5 discriminator 5 view .LVU3591
1339:../switch_sdk/core/yt/yt_l2.c **** 
 12590              		.loc 1 1339 5 discriminator 5 view .LVU3592
 12591 007c 0220     		movs	r0, #2
 12592 007e CEE7     		b	.L1292
 12593              	.LVL1623:
 12594              	.L1310:
1339:../switch_sdk/core/yt/yt_l2.c **** 
 12595              		.loc 1 1339 5 discriminator 3 view .LVU3593
 12596              	.LBB254:
1339:../switch_sdk/core/yt/yt_l2.c **** 
 12597              		.loc 1 1339 5 discriminator 3 view .LVU3594
 12598 0080 054B     		ldr	r3, .L1311+8
 12599 0082 9A68     		ldr	r2, [r3, #8]
 12600              	.LVL1624:
1339:../switch_sdk/core/yt/yt_l2.c **** 
 12601              		.loc 1 1339 5 is_stmt 0 discriminator 3 view .LVU3595
 12602 0084 054B     		ldr	r3, .L1311+12
 12603 0086 9968     		ldr	r1, [r3, #8]
 12604              	.LVL1625:
1339:../switch_sdk/core/yt/yt_l2.c **** 
 12605              		.loc 1 1339 5 discriminator 3 view .LVU3596
 12606 0088 0548     		ldr	r0, .L1311+16
 12607 008a FFF7FEFF 		bl	osal_printf
 12608              	.LVL1626:
 12609 008e F5E7     		b	.L1301
 12610              	.L1312:
 12611              		.align	2
 12612              	.L1311:
 12613 0090 00000000 		.word	gpfal_dispatch
 12614 0094 00000000 		.word	yt_debug_level
 12615 0098 00000000 		.word	_yt_errmsg
 12616 009c 00000000 		.word	_yt_prompt_msg
 12617 00a0 00000000 		.word	.LC0
 12618              	.LBE254:
 12619              		.cfi_endproc
 12620              	.LFE62:
 12622              		.section	.text.yt_l2_port_learn_en_set,"ax",%progbits
 12623              		.align	1
 12624              		.global	yt_l2_port_learn_en_set
 12625              		.syntax unified
 12626              		.thumb
 12627              		.thumb_func
 12629              	yt_l2_port_learn_en_set:
 12630              	.LVL1627:
 12631              	.LFB63:
1343:../switch_sdk/core/yt/yt_l2.c **** 
1344:../switch_sdk/core/yt/yt_l2.c **** /**
1345:../switch_sdk/core/yt/yt_l2.c ****  * @internal      yt_l2_port_learn_en_set
1346:../switch_sdk/core/yt/yt_l2.c ****  * @endinternal
1347:../switch_sdk/core/yt/yt_l2.c ****  *
1348:../switch_sdk/core/yt/yt_l2.c ****  * @brief         Description
1349:../switch_sdk/core/yt/yt_l2.c ****  * @note          APPLICABLE DEVICES  -Tiger
1350:../switch_sdk/core/yt/yt_l2.c ****  * @param[in]     unit                -unit id
1351:../switch_sdk/core/yt/yt_l2.c ****  * @param[in]     port                -port num
1352:../switch_sdk/core/yt/yt_l2.c ****  * @param[in]     enable              -enable or disable
1353:../switch_sdk/core/yt/yt_l2.c ****  * @retval        CMM_ERR_OK          -on success
1354:../switch_sdk/core/yt/yt_l2.c ****  * @retval        CMM_ERR_FAIL        -on fail
1355:../switch_sdk/core/yt/yt_l2.c ****  */
1356:../switch_sdk/core/yt/yt_l2.c **** yt_ret_t  yt_l2_port_learn_en_set(yt_unit_t unit, yt_port_t port, yt_enable_t enable)
1357:../switch_sdk/core/yt/yt_l2.c **** {
 12632              		.loc 1 1357 1 is_stmt 1 view -0
 12633              		.cfi_startproc
 12634              		@ args = 0, pretend = 0, frame = 0
 12635              		@ frame_needed = 0, uses_anonymous_args = 0
 12636              		.loc 1 1357 1 is_stmt 0 view .LVU3598
 12637 0000 08B5     		push	{r3, lr}
 12638              		.cfi_def_cfa_offset 8
 12639              		.cfi_offset 3, -8
 12640              		.cfi_offset 14, -4
1358:../switch_sdk/core/yt/yt_l2.c ****     CMM_PARAM_CHK((YT_UNIT_NUM <= unit), CMM_ERR_INPUT);
 12641              		.loc 1 1358 5 is_stmt 1 view .LVU3599
 12642              		.loc 1 1358 5 view .LVU3600
 12643 0002 C0B9     		cbnz	r0, .L1327
 12644 0004 8446     		mov	ip, r0
 12645              		.loc 1 1358 5 discriminator 2 view .LVU3601
1359:../switch_sdk/core/yt/yt_l2.c ****     CMM_PARAM_CHK(NULL == YT_DISPATCH(unit), CMM_ERR_NOT_INIT);
 12646              		.loc 1 1359 5 discriminator 2 view .LVU3602
 12647              		.loc 1 1359 5 discriminator 2 view .LVU3603
 12648 0006 2F4B     		ldr	r3, .L1336
 12649 0008 53F82030 		ldr	r3, [r3, r0, lsl #2]
 12650 000c 0BB3     		cbz	r3, .L1328
 12651              		.loc 1 1359 5 discriminator 2 view .LVU3604
1360:../switch_sdk/core/yt/yt_l2.c ****     CMM_PARAM_CHK((!(YT_DISPATCH(unit)->is_inited)), CMM_ERR_NOT_INIT);
 12652              		.loc 1 1360 5 discriminator 2 view .LVU3605
 12653              		.loc 1 1360 5 discriminator 2 view .LVU3606
 12654 000e 1878     		ldrb	r0, [r3]	@ zero_extendqisi2
 12655              	.LVL1628:
 12656              		.loc 1 1360 5 is_stmt 0 discriminator 2 view .LVU3607
 12657 0010 0028     		cmp	r0, #0
 12658 0012 2CD0     		beq	.L1329
 12659              		.loc 1 1360 5 is_stmt 1 discriminator 2 view .LVU3608
1361:../switch_sdk/core/yt/yt_l2.c ****     CMM_PARAM_CHK((!(CMM_PORT_VALID(unit, port))), CMM_ERR_PORT);
 12660              		.loc 1 1361 5 discriminator 2 view .LVU3609
 12661              		.loc 1 1361 5 discriminator 2 view .LVU3610
 12662 0014 2C48     		ldr	r0, .L1336+4
 12663 0016 0078     		ldrb	r0, [r0]	@ zero_extendqisi2
 12664 0018 0028     		cmp	r0, #0
 12665 001a 36D0     		beq	.L1321
 12666 001c 2B48     		ldr	r0, .L1336+8
 12667 001e 50F82C00 		ldr	r0, [r0, ip, lsl #2]
 12668 0022 007D     		ldrb	r0, [r0, #20]	@ zero_extendqisi2
 12669 0024 8842     		cmp	r0, r1
 12670 0026 30D9     		bls	.L1321
 12671              		.loc 1 1361 5 discriminator 4 view .LVU3611
1362:../switch_sdk/core/yt/yt_l2.c ****     CMM_PARAM_CHK((YT_ENABLE < enable || YT_DISABLE > enable), CMM_ERR_INPUT);
 12672              		.loc 1 1362 5 discriminator 4 view .LVU3612
 12673              		.loc 1 1362 5 discriminator 4 view .LVU3613
 12674 0028 012A     		cmp	r2, #1
 12675 002a 3CD8     		bhi	.L1330
 12676              		.loc 1 1362 5 discriminator 2 view .LVU3614
1363:../switch_sdk/core/yt/yt_l2.c **** 
1364:../switch_sdk/core/yt/yt_l2.c ****     return YT_DISPATCH(unit)->l2_port_learn_en_set(unit, port, enable);
 12677              		.loc 1 1364 5 discriminator 2 view .LVU3615
 12678              		.loc 1 1364 29 is_stmt 0 discriminator 2 view .LVU3616
 12679 002c D3F82C34 		ldr	r3, [r3, #1068]
 12680              		.loc 1 1364 12 discriminator 2 view .LVU3617
 12681 0030 6046     		mov	r0, ip
 12682 0032 9847     		blx	r3
 12683              	.LVL1629:
 12684              	.L1313:
1365:../switch_sdk/core/yt/yt_l2.c **** }
 12685              		.loc 1 1365 1 view .LVU3618
 12686 0034 08BD     		pop	{r3, pc}
 12687              	.LVL1630:
 12688              	.L1327:
1358:../switch_sdk/core/yt/yt_l2.c ****     CMM_PARAM_CHK(NULL == YT_DISPATCH(unit), CMM_ERR_NOT_INIT);
 12689              		.loc 1 1358 5 is_stmt 1 discriminator 1 view .LVU3619
1358:../switch_sdk/core/yt/yt_l2.c ****     CMM_PARAM_CHK(NULL == YT_DISPATCH(unit), CMM_ERR_NOT_INIT);
 12690              		.loc 1 1358 5 discriminator 1 view .LVU3620
 12691 0036 264B     		ldr	r3, .L1336+12
 12692 0038 1B78     		ldrb	r3, [r3]	@ zero_extendqisi2
 12693 003a 012B     		cmp	r3, #1
 12694 003c 01D8     		bhi	.L1331
 12695              	.LVL1631:
 12696              	.L1315:
1358:../switch_sdk/core/yt/yt_l2.c ****     CMM_PARAM_CHK(NULL == YT_DISPATCH(unit), CMM_ERR_NOT_INIT);
 12697              		.loc 1 1358 5 discriminator 5 view .LVU3621
1358:../switch_sdk/core/yt/yt_l2.c ****     CMM_PARAM_CHK(NULL == YT_DISPATCH(unit), CMM_ERR_NOT_INIT);
 12698              		.loc 1 1358 5 discriminator 5 view .LVU3622
1358:../switch_sdk/core/yt/yt_l2.c ****     CMM_PARAM_CHK(NULL == YT_DISPATCH(unit), CMM_ERR_NOT_INIT);
 12699              		.loc 1 1358 5 discriminator 5 view .LVU3623
 12700 003e 0520     		movs	r0, #5
 12701 0040 F8E7     		b	.L1313
 12702              	.LVL1632:
 12703              	.L1331:
1358:../switch_sdk/core/yt/yt_l2.c ****     CMM_PARAM_CHK(NULL == YT_DISPATCH(unit), CMM_ERR_NOT_INIT);
 12704              		.loc 1 1358 5 discriminator 3 view .LVU3624
 12705              	.LBB255:
1358:../switch_sdk/core/yt/yt_l2.c ****     CMM_PARAM_CHK(NULL == YT_DISPATCH(unit), CMM_ERR_NOT_INIT);
 12706              		.loc 1 1358 5 discriminator 3 view .LVU3625
 12707 0042 244B     		ldr	r3, .L1336+16
 12708 0044 5A69     		ldr	r2, [r3, #20]
 12709              	.LVL1633:
1358:../switch_sdk/core/yt/yt_l2.c ****     CMM_PARAM_CHK(NULL == YT_DISPATCH(unit), CMM_ERR_NOT_INIT);
 12710              		.loc 1 1358 5 is_stmt 0 discriminator 3 view .LVU3626
 12711 0046 244B     		ldr	r3, .L1336+20
 12712 0048 9968     		ldr	r1, [r3, #8]
 12713              	.LVL1634:
1358:../switch_sdk/core/yt/yt_l2.c ****     CMM_PARAM_CHK(NULL == YT_DISPATCH(unit), CMM_ERR_NOT_INIT);
 12714              		.loc 1 1358 5 discriminator 3 view .LVU3627
 12715 004a 2448     		ldr	r0, .L1336+24
 12716              	.LVL1635:
1358:../switch_sdk/core/yt/yt_l2.c ****     CMM_PARAM_CHK(NULL == YT_DISPATCH(unit), CMM_ERR_NOT_INIT);
 12717              		.loc 1 1358 5 discriminator 3 view .LVU3628
 12718 004c FFF7FEFF 		bl	osal_printf
 12719              	.LVL1636:
 12720 0050 F5E7     		b	.L1315
 12721              	.LVL1637:
 12722              	.L1328:
1358:../switch_sdk/core/yt/yt_l2.c ****     CMM_PARAM_CHK(NULL == YT_DISPATCH(unit), CMM_ERR_NOT_INIT);
 12723              		.loc 1 1358 5 discriminator 3 view .LVU3629
 12724              	.LBE255:
1359:../switch_sdk/core/yt/yt_l2.c ****     CMM_PARAM_CHK((!(YT_DISPATCH(unit)->is_inited)), CMM_ERR_NOT_INIT);
 12725              		.loc 1 1359 5 is_stmt 1 discriminator 1 view .LVU3630
1359:../switch_sdk/core/yt/yt_l2.c ****     CMM_PARAM_CHK((!(YT_DISPATCH(unit)->is_inited)), CMM_ERR_NOT_INIT);
 12726              		.loc 1 1359 5 discriminator 1 view .LVU3631
 12727 0052 1F4B     		ldr	r3, .L1336+12
 12728 0054 1B78     		ldrb	r3, [r3]	@ zero_extendqisi2
 12729 0056 012B     		cmp	r3, #1
 12730 0058 01D8     		bhi	.L1332
 12731              	.LVL1638:
 12732              	.L1318:
1359:../switch_sdk/core/yt/yt_l2.c ****     CMM_PARAM_CHK((!(YT_DISPATCH(unit)->is_inited)), CMM_ERR_NOT_INIT);
 12733              		.loc 1 1359 5 discriminator 5 view .LVU3632
1359:../switch_sdk/core/yt/yt_l2.c ****     CMM_PARAM_CHK((!(YT_DISPATCH(unit)->is_inited)), CMM_ERR_NOT_INIT);
 12734              		.loc 1 1359 5 discriminator 5 view .LVU3633
1359:../switch_sdk/core/yt/yt_l2.c ****     CMM_PARAM_CHK((!(YT_DISPATCH(unit)->is_inited)), CMM_ERR_NOT_INIT);
 12735              		.loc 1 1359 5 discriminator 5 view .LVU3634
 12736 005a 0420     		movs	r0, #4
 12737 005c EAE7     		b	.L1313
 12738              	.LVL1639:
 12739              	.L1332:
1359:../switch_sdk/core/yt/yt_l2.c ****     CMM_PARAM_CHK((!(YT_DISPATCH(unit)->is_inited)), CMM_ERR_NOT_INIT);
 12740              		.loc 1 1359 5 discriminator 3 view .LVU3635
 12741              	.LBB256:
1359:../switch_sdk/core/yt/yt_l2.c ****     CMM_PARAM_CHK((!(YT_DISPATCH(unit)->is_inited)), CMM_ERR_NOT_INIT);
 12742              		.loc 1 1359 5 discriminator 3 view .LVU3636
 12743 005e 1D4B     		ldr	r3, .L1336+16
 12744 0060 1A69     		ldr	r2, [r3, #16]
 12745              	.LVL1640:
1359:../switch_sdk/core/yt/yt_l2.c ****     CMM_PARAM_CHK((!(YT_DISPATCH(unit)->is_inited)), CMM_ERR_NOT_INIT);
 12746              		.loc 1 1359 5 is_stmt 0 discriminator 3 view .LVU3637
 12747 0062 1D4B     		ldr	r3, .L1336+20
 12748 0064 9968     		ldr	r1, [r3, #8]
 12749              	.LVL1641:
1359:../switch_sdk/core/yt/yt_l2.c ****     CMM_PARAM_CHK((!(YT_DISPATCH(unit)->is_inited)), CMM_ERR_NOT_INIT);
 12750              		.loc 1 1359 5 discriminator 3 view .LVU3638
 12751 0066 1D48     		ldr	r0, .L1336+24
 12752              	.LVL1642:
1359:../switch_sdk/core/yt/yt_l2.c ****     CMM_PARAM_CHK((!(YT_DISPATCH(unit)->is_inited)), CMM_ERR_NOT_INIT);
 12753              		.loc 1 1359 5 discriminator 3 view .LVU3639
 12754 0068 FFF7FEFF 		bl	osal_printf
 12755              	.LVL1643:
 12756 006c F5E7     		b	.L1318
 12757              	.LVL1644:
 12758              	.L1329:
1359:../switch_sdk/core/yt/yt_l2.c ****     CMM_PARAM_CHK((!(YT_DISPATCH(unit)->is_inited)), CMM_ERR_NOT_INIT);
 12759              		.loc 1 1359 5 discriminator 3 view .LVU3640
 12760              	.LBE256:
1360:../switch_sdk/core/yt/yt_l2.c ****     CMM_PARAM_CHK((!(CMM_PORT_VALID(unit, port))), CMM_ERR_PORT);
 12761              		.loc 1 1360 5 is_stmt 1 discriminator 1 view .LVU3641
1360:../switch_sdk/core/yt/yt_l2.c ****     CMM_PARAM_CHK((!(CMM_PORT_VALID(unit, port))), CMM_ERR_PORT);
 12762              		.loc 1 1360 5 discriminator 1 view .LVU3642
 12763 006e 184B     		ldr	r3, .L1336+12
 12764 0070 1B78     		ldrb	r3, [r3]	@ zero_extendqisi2
 12765 0072 012B     		cmp	r3, #1
 12766 0074 01D8     		bhi	.L1333
 12767              	.LVL1645:
 12768              	.L1320:
1360:../switch_sdk/core/yt/yt_l2.c ****     CMM_PARAM_CHK((!(CMM_PORT_VALID(unit, port))), CMM_ERR_PORT);
 12769              		.loc 1 1360 5 discriminator 5 view .LVU3643
1360:../switch_sdk/core/yt/yt_l2.c ****     CMM_PARAM_CHK((!(CMM_PORT_VALID(unit, port))), CMM_ERR_PORT);
 12770              		.loc 1 1360 5 discriminator 5 view .LVU3644
1360:../switch_sdk/core/yt/yt_l2.c ****     CMM_PARAM_CHK((!(CMM_PORT_VALID(unit, port))), CMM_ERR_PORT);
 12771              		.loc 1 1360 5 discriminator 5 view .LVU3645
 12772 0076 0420     		movs	r0, #4
 12773 0078 DCE7     		b	.L1313
 12774              	.LVL1646:
 12775              	.L1333:
1360:../switch_sdk/core/yt/yt_l2.c ****     CMM_PARAM_CHK((!(CMM_PORT_VALID(unit, port))), CMM_ERR_PORT);
 12776              		.loc 1 1360 5 discriminator 3 view .LVU3646
 12777              	.LBB257:
1360:../switch_sdk/core/yt/yt_l2.c ****     CMM_PARAM_CHK((!(CMM_PORT_VALID(unit, port))), CMM_ERR_PORT);
 12778              		.loc 1 1360 5 discriminator 3 view .LVU3647
 12779 007a 164B     		ldr	r3, .L1336+16
 12780 007c 1A69     		ldr	r2, [r3, #16]
 12781              	.LVL1647:
1360:../switch_sdk/core/yt/yt_l2.c ****     CMM_PARAM_CHK((!(CMM_PORT_VALID(unit, port))), CMM_ERR_PORT);
 12782              		.loc 1 1360 5 is_stmt 0 discriminator 3 view .LVU3648
 12783 007e 164B     		ldr	r3, .L1336+20
 12784 0080 9968     		ldr	r1, [r3, #8]
 12785              	.LVL1648:
1360:../switch_sdk/core/yt/yt_l2.c ****     CMM_PARAM_CHK((!(CMM_PORT_VALID(unit, port))), CMM_ERR_PORT);
 12786              		.loc 1 1360 5 discriminator 3 view .LVU3649
 12787 0082 1648     		ldr	r0, .L1336+24
 12788 0084 FFF7FEFF 		bl	osal_printf
 12789              	.LVL1649:
 12790 0088 F5E7     		b	.L1320
 12791              	.LVL1650:
 12792              	.L1321:
1360:../switch_sdk/core/yt/yt_l2.c ****     CMM_PARAM_CHK((!(CMM_PORT_VALID(unit, port))), CMM_ERR_PORT);
 12793              		.loc 1 1360 5 discriminator 3 view .LVU3650
 12794              	.LBE257:
1361:../switch_sdk/core/yt/yt_l2.c ****     CMM_PARAM_CHK((YT_ENABLE < enable || YT_DISABLE > enable), CMM_ERR_INPUT);
 12795              		.loc 1 1361 5 is_stmt 1 discriminator 3 view .LVU3651
1361:../switch_sdk/core/yt/yt_l2.c ****     CMM_PARAM_CHK((YT_ENABLE < enable || YT_DISABLE > enable), CMM_ERR_INPUT);
 12796              		.loc 1 1361 5 discriminator 3 view .LVU3652
 12797 008a 114B     		ldr	r3, .L1336+12
 12798 008c 1B78     		ldrb	r3, [r3]	@ zero_extendqisi2
 12799 008e 012B     		cmp	r3, #1
 12800 0090 01D8     		bhi	.L1334
 12801              	.LVL1651:
 12802              	.L1323:
1361:../switch_sdk/core/yt/yt_l2.c ****     CMM_PARAM_CHK((YT_ENABLE < enable || YT_DISABLE > enable), CMM_ERR_INPUT);
 12803              		.loc 1 1361 5 discriminator 7 view .LVU3653
1361:../switch_sdk/core/yt/yt_l2.c ****     CMM_PARAM_CHK((YT_ENABLE < enable || YT_DISABLE > enable), CMM_ERR_INPUT);
 12804              		.loc 1 1361 5 discriminator 7 view .LVU3654
1361:../switch_sdk/core/yt/yt_l2.c ****     CMM_PARAM_CHK((YT_ENABLE < enable || YT_DISABLE > enable), CMM_ERR_INPUT);
 12805              		.loc 1 1361 5 discriminator 7 view .LVU3655
 12806 0092 0E20     		movs	r0, #14
 12807 0094 CEE7     		b	.L1313
 12808              	.LVL1652:
 12809              	.L1334:
1361:../switch_sdk/core/yt/yt_l2.c ****     CMM_PARAM_CHK((YT_ENABLE < enable || YT_DISABLE > enable), CMM_ERR_INPUT);
 12810              		.loc 1 1361 5 discriminator 5 view .LVU3656
 12811              	.LBB258:
1361:../switch_sdk/core/yt/yt_l2.c ****     CMM_PARAM_CHK((YT_ENABLE < enable || YT_DISABLE > enable), CMM_ERR_INPUT);
 12812              		.loc 1 1361 5 discriminator 5 view .LVU3657
 12813 0096 0F4B     		ldr	r3, .L1336+16
 12814 0098 9A6B     		ldr	r2, [r3, #56]
 12815              	.LVL1653:
1361:../switch_sdk/core/yt/yt_l2.c ****     CMM_PARAM_CHK((YT_ENABLE < enable || YT_DISABLE > enable), CMM_ERR_INPUT);
 12816              		.loc 1 1361 5 is_stmt 0 discriminator 5 view .LVU3658
 12817 009a 0F4B     		ldr	r3, .L1336+20
 12818 009c 9968     		ldr	r1, [r3, #8]
 12819              	.LVL1654:
1361:../switch_sdk/core/yt/yt_l2.c ****     CMM_PARAM_CHK((YT_ENABLE < enable || YT_DISABLE > enable), CMM_ERR_INPUT);
 12820              		.loc 1 1361 5 discriminator 5 view .LVU3659
 12821 009e 0F48     		ldr	r0, .L1336+24
 12822 00a0 FFF7FEFF 		bl	osal_printf
 12823              	.LVL1655:
 12824 00a4 F5E7     		b	.L1323
 12825              	.LVL1656:
 12826              	.L1330:
1361:../switch_sdk/core/yt/yt_l2.c ****     CMM_PARAM_CHK((YT_ENABLE < enable || YT_DISABLE > enable), CMM_ERR_INPUT);
 12827              		.loc 1 1361 5 discriminator 5 view .LVU3660
 12828              	.LBE258:
1362:../switch_sdk/core/yt/yt_l2.c **** 
 12829              		.loc 1 1362 5 is_stmt 1 discriminator 1 view .LVU3661
1362:../switch_sdk/core/yt/yt_l2.c **** 
 12830              		.loc 1 1362 5 discriminator 1 view .LVU3662
 12831 00a6 0A4B     		ldr	r3, .L1336+12
 12832 00a8 1B78     		ldrb	r3, [r3]	@ zero_extendqisi2
 12833 00aa 012B     		cmp	r3, #1
 12834 00ac 01D8     		bhi	.L1335
 12835              	.LVL1657:
 12836              	.L1325:
1362:../switch_sdk/core/yt/yt_l2.c **** 
 12837              		.loc 1 1362 5 discriminator 5 view .LVU3663
1362:../switch_sdk/core/yt/yt_l2.c **** 
 12838              		.loc 1 1362 5 discriminator 5 view .LVU3664
1362:../switch_sdk/core/yt/yt_l2.c **** 
 12839              		.loc 1 1362 5 discriminator 5 view .LVU3665
 12840 00ae 0520     		movs	r0, #5
 12841 00b0 C0E7     		b	.L1313
 12842              	.LVL1658:
 12843              	.L1335:
1362:../switch_sdk/core/yt/yt_l2.c **** 
 12844              		.loc 1 1362 5 discriminator 3 view .LVU3666
 12845              	.LBB259:
1362:../switch_sdk/core/yt/yt_l2.c **** 
 12846              		.loc 1 1362 5 discriminator 3 view .LVU3667
 12847 00b2 084B     		ldr	r3, .L1336+16
 12848 00b4 5A69     		ldr	r2, [r3, #20]
 12849              	.LVL1659:
1362:../switch_sdk/core/yt/yt_l2.c **** 
 12850              		.loc 1 1362 5 is_stmt 0 discriminator 3 view .LVU3668
 12851 00b6 084B     		ldr	r3, .L1336+20
 12852 00b8 9968     		ldr	r1, [r3, #8]
 12853              	.LVL1660:
1362:../switch_sdk/core/yt/yt_l2.c **** 
 12854              		.loc 1 1362 5 discriminator 3 view .LVU3669
 12855 00ba 0848     		ldr	r0, .L1336+24
 12856 00bc FFF7FEFF 		bl	osal_printf
 12857              	.LVL1661:
 12858 00c0 F5E7     		b	.L1325
 12859              	.L1337:
 12860 00c2 00BF     		.align	2
 12861              	.L1336:
 12862 00c4 00000000 		.word	gpfal_dispatch
 12863 00c8 00000000 		.word	gcal_inited
 12864 00cc 00000000 		.word	gpSwitchUnit
 12865 00d0 00000000 		.word	yt_debug_level
 12866 00d4 00000000 		.word	_yt_errmsg
 12867 00d8 00000000 		.word	_yt_prompt_msg
 12868 00dc 00000000 		.word	.LC0
 12869              	.LBE259:
 12870              		.cfi_endproc
 12871              	.LFE63:
 12873              		.section	.text.yt_l2_port_learn_en_get,"ax",%progbits
 12874              		.align	1
 12875              		.global	yt_l2_port_learn_en_get
 12876              		.syntax unified
 12877              		.thumb
 12878              		.thumb_func
 12880              	yt_l2_port_learn_en_get:
 12881              	.LVL1662:
 12882              	.LFB64:
1366:../switch_sdk/core/yt/yt_l2.c **** 
1367:../switch_sdk/core/yt/yt_l2.c **** /**
1368:../switch_sdk/core/yt/yt_l2.c ****  * @internal      yt_l2_port_learn_en_get
1369:../switch_sdk/core/yt/yt_l2.c ****  * @endinternal
1370:../switch_sdk/core/yt/yt_l2.c ****  *
1371:../switch_sdk/core/yt/yt_l2.c ****  * @brief         Description
1372:../switch_sdk/core/yt/yt_l2.c ****  * @note          APPLICABLE DEVICES  -Tiger
1373:../switch_sdk/core/yt/yt_l2.c ****  * @param[in]     unit                -unit id
1374:../switch_sdk/core/yt/yt_l2.c ****  * @param[in]     port                -port num
1375:../switch_sdk/core/yt/yt_l2.c ****  * @param[out]    pEnable             -enable or disable
1376:../switch_sdk/core/yt/yt_l2.c ****  * @retval        CMM_ERR_OK          -on success
1377:../switch_sdk/core/yt/yt_l2.c ****  * @retval        CMM_ERR_FAIL        -on fail
1378:../switch_sdk/core/yt/yt_l2.c ****  */
1379:../switch_sdk/core/yt/yt_l2.c **** yt_ret_t  yt_l2_port_learn_en_get(yt_unit_t unit, yt_port_t port, yt_enable_t *pEnable)
1380:../switch_sdk/core/yt/yt_l2.c **** {
 12883              		.loc 1 1380 1 is_stmt 1 view -0
 12884              		.cfi_startproc
 12885              		@ args = 0, pretend = 0, frame = 0
 12886              		@ frame_needed = 0, uses_anonymous_args = 0
 12887              		.loc 1 1380 1 is_stmt 0 view .LVU3671
 12888 0000 08B5     		push	{r3, lr}
 12889              		.cfi_def_cfa_offset 8
 12890              		.cfi_offset 3, -8
 12891              		.cfi_offset 14, -4
1381:../switch_sdk/core/yt/yt_l2.c ****     CMM_PARAM_CHK((YT_UNIT_NUM <= unit), CMM_ERR_INPUT);
 12892              		.loc 1 1381 5 is_stmt 1 view .LVU3672
 12893              		.loc 1 1381 5 view .LVU3673
 12894 0002 C0B9     		cbnz	r0, .L1352
 12895 0004 8446     		mov	ip, r0
 12896              		.loc 1 1381 5 discriminator 2 view .LVU3674
1382:../switch_sdk/core/yt/yt_l2.c ****     CMM_PARAM_CHK(NULL == YT_DISPATCH(unit), CMM_ERR_NOT_INIT);
 12897              		.loc 1 1382 5 discriminator 2 view .LVU3675
 12898              		.loc 1 1382 5 discriminator 2 view .LVU3676
 12899 0006 2F4B     		ldr	r3, .L1361
 12900 0008 53F82030 		ldr	r3, [r3, r0, lsl #2]
 12901 000c 0BB3     		cbz	r3, .L1353
 12902              		.loc 1 1382 5 discriminator 2 view .LVU3677
1383:../switch_sdk/core/yt/yt_l2.c ****     CMM_PARAM_CHK((!(YT_DISPATCH(unit)->is_inited)), CMM_ERR_NOT_INIT);
 12903              		.loc 1 1383 5 discriminator 2 view .LVU3678
 12904              		.loc 1 1383 5 discriminator 2 view .LVU3679
 12905 000e 1878     		ldrb	r0, [r3]	@ zero_extendqisi2
 12906              	.LVL1663:
 12907              		.loc 1 1383 5 is_stmt 0 discriminator 2 view .LVU3680
 12908 0010 0028     		cmp	r0, #0
 12909 0012 2CD0     		beq	.L1354
 12910              		.loc 1 1383 5 is_stmt 1 discriminator 2 view .LVU3681
1384:../switch_sdk/core/yt/yt_l2.c ****     CMM_PARAM_CHK((!(CMM_PORT_VALID(unit, port))), CMM_ERR_PORT);
 12911              		.loc 1 1384 5 discriminator 2 view .LVU3682
 12912              		.loc 1 1384 5 discriminator 2 view .LVU3683
 12913 0014 2C48     		ldr	r0, .L1361+4
 12914 0016 0078     		ldrb	r0, [r0]	@ zero_extendqisi2
 12915 0018 0028     		cmp	r0, #0
 12916 001a 36D0     		beq	.L1346
 12917 001c 2B48     		ldr	r0, .L1361+8
 12918 001e 50F82C00 		ldr	r0, [r0, ip, lsl #2]
 12919 0022 007D     		ldrb	r0, [r0, #20]	@ zero_extendqisi2
 12920 0024 8842     		cmp	r0, r1
 12921 0026 30D9     		bls	.L1346
 12922              		.loc 1 1384 5 discriminator 4 view .LVU3684
1385:../switch_sdk/core/yt/yt_l2.c ****     CMM_PARAM_CHK((NULL == pEnable), CMM_ERR_NULL_POINT);
 12923              		.loc 1 1385 5 discriminator 4 view .LVU3685
 12924              		.loc 1 1385 5 discriminator 4 view .LVU3686
 12925 0028 002A     		cmp	r2, #0
 12926 002a 3CD0     		beq	.L1355
 12927              		.loc 1 1385 5 discriminator 2 view .LVU3687
1386:../switch_sdk/core/yt/yt_l2.c **** 
1387:../switch_sdk/core/yt/yt_l2.c ****     return YT_DISPATCH(unit)->l2_port_learn_en_get(unit, port, pEnable);
 12928              		.loc 1 1387 5 discriminator 2 view .LVU3688
 12929              		.loc 1 1387 29 is_stmt 0 discriminator 2 view .LVU3689
 12930 002c D3F83034 		ldr	r3, [r3, #1072]
 12931              		.loc 1 1387 12 discriminator 2 view .LVU3690
 12932 0030 6046     		mov	r0, ip
 12933 0032 9847     		blx	r3
 12934              	.LVL1664:
 12935              	.L1338:
1388:../switch_sdk/core/yt/yt_l2.c **** }
 12936              		.loc 1 1388 1 view .LVU3691
 12937 0034 08BD     		pop	{r3, pc}
 12938              	.LVL1665:
 12939              	.L1352:
1381:../switch_sdk/core/yt/yt_l2.c ****     CMM_PARAM_CHK(NULL == YT_DISPATCH(unit), CMM_ERR_NOT_INIT);
 12940              		.loc 1 1381 5 is_stmt 1 discriminator 1 view .LVU3692
1381:../switch_sdk/core/yt/yt_l2.c ****     CMM_PARAM_CHK(NULL == YT_DISPATCH(unit), CMM_ERR_NOT_INIT);
 12941              		.loc 1 1381 5 discriminator 1 view .LVU3693
 12942 0036 264B     		ldr	r3, .L1361+12
 12943 0038 1B78     		ldrb	r3, [r3]	@ zero_extendqisi2
 12944 003a 012B     		cmp	r3, #1
 12945 003c 01D8     		bhi	.L1356
 12946              	.LVL1666:
 12947              	.L1340:
1381:../switch_sdk/core/yt/yt_l2.c ****     CMM_PARAM_CHK(NULL == YT_DISPATCH(unit), CMM_ERR_NOT_INIT);
 12948              		.loc 1 1381 5 discriminator 5 view .LVU3694
1381:../switch_sdk/core/yt/yt_l2.c ****     CMM_PARAM_CHK(NULL == YT_DISPATCH(unit), CMM_ERR_NOT_INIT);
 12949              		.loc 1 1381 5 discriminator 5 view .LVU3695
1381:../switch_sdk/core/yt/yt_l2.c ****     CMM_PARAM_CHK(NULL == YT_DISPATCH(unit), CMM_ERR_NOT_INIT);
 12950              		.loc 1 1381 5 discriminator 5 view .LVU3696
 12951 003e 0520     		movs	r0, #5
 12952 0040 F8E7     		b	.L1338
 12953              	.LVL1667:
 12954              	.L1356:
1381:../switch_sdk/core/yt/yt_l2.c ****     CMM_PARAM_CHK(NULL == YT_DISPATCH(unit), CMM_ERR_NOT_INIT);
 12955              		.loc 1 1381 5 discriminator 3 view .LVU3697
 12956              	.LBB260:
1381:../switch_sdk/core/yt/yt_l2.c ****     CMM_PARAM_CHK(NULL == YT_DISPATCH(unit), CMM_ERR_NOT_INIT);
 12957              		.loc 1 1381 5 discriminator 3 view .LVU3698
 12958 0042 244B     		ldr	r3, .L1361+16
 12959 0044 5A69     		ldr	r2, [r3, #20]
 12960              	.LVL1668:
1381:../switch_sdk/core/yt/yt_l2.c ****     CMM_PARAM_CHK(NULL == YT_DISPATCH(unit), CMM_ERR_NOT_INIT);
 12961              		.loc 1 1381 5 is_stmt 0 discriminator 3 view .LVU3699
 12962 0046 244B     		ldr	r3, .L1361+20
 12963 0048 9968     		ldr	r1, [r3, #8]
 12964              	.LVL1669:
1381:../switch_sdk/core/yt/yt_l2.c ****     CMM_PARAM_CHK(NULL == YT_DISPATCH(unit), CMM_ERR_NOT_INIT);
 12965              		.loc 1 1381 5 discriminator 3 view .LVU3700
 12966 004a 2448     		ldr	r0, .L1361+24
 12967              	.LVL1670:
1381:../switch_sdk/core/yt/yt_l2.c ****     CMM_PARAM_CHK(NULL == YT_DISPATCH(unit), CMM_ERR_NOT_INIT);
 12968              		.loc 1 1381 5 discriminator 3 view .LVU3701
 12969 004c FFF7FEFF 		bl	osal_printf
 12970              	.LVL1671:
 12971 0050 F5E7     		b	.L1340
 12972              	.LVL1672:
 12973              	.L1353:
1381:../switch_sdk/core/yt/yt_l2.c ****     CMM_PARAM_CHK(NULL == YT_DISPATCH(unit), CMM_ERR_NOT_INIT);
 12974              		.loc 1 1381 5 discriminator 3 view .LVU3702
 12975              	.LBE260:
1382:../switch_sdk/core/yt/yt_l2.c ****     CMM_PARAM_CHK((!(YT_DISPATCH(unit)->is_inited)), CMM_ERR_NOT_INIT);
 12976              		.loc 1 1382 5 is_stmt 1 discriminator 1 view .LVU3703
1382:../switch_sdk/core/yt/yt_l2.c ****     CMM_PARAM_CHK((!(YT_DISPATCH(unit)->is_inited)), CMM_ERR_NOT_INIT);
 12977              		.loc 1 1382 5 discriminator 1 view .LVU3704
 12978 0052 1F4B     		ldr	r3, .L1361+12
 12979 0054 1B78     		ldrb	r3, [r3]	@ zero_extendqisi2
 12980 0056 012B     		cmp	r3, #1
 12981 0058 01D8     		bhi	.L1357
 12982              	.LVL1673:
 12983              	.L1343:
1382:../switch_sdk/core/yt/yt_l2.c ****     CMM_PARAM_CHK((!(YT_DISPATCH(unit)->is_inited)), CMM_ERR_NOT_INIT);
 12984              		.loc 1 1382 5 discriminator 5 view .LVU3705
1382:../switch_sdk/core/yt/yt_l2.c ****     CMM_PARAM_CHK((!(YT_DISPATCH(unit)->is_inited)), CMM_ERR_NOT_INIT);
 12985              		.loc 1 1382 5 discriminator 5 view .LVU3706
1382:../switch_sdk/core/yt/yt_l2.c ****     CMM_PARAM_CHK((!(YT_DISPATCH(unit)->is_inited)), CMM_ERR_NOT_INIT);
 12986              		.loc 1 1382 5 discriminator 5 view .LVU3707
 12987 005a 0420     		movs	r0, #4
 12988 005c EAE7     		b	.L1338
 12989              	.LVL1674:
 12990              	.L1357:
1382:../switch_sdk/core/yt/yt_l2.c ****     CMM_PARAM_CHK((!(YT_DISPATCH(unit)->is_inited)), CMM_ERR_NOT_INIT);
 12991              		.loc 1 1382 5 discriminator 3 view .LVU3708
 12992              	.LBB261:
1382:../switch_sdk/core/yt/yt_l2.c ****     CMM_PARAM_CHK((!(YT_DISPATCH(unit)->is_inited)), CMM_ERR_NOT_INIT);
 12993              		.loc 1 1382 5 discriminator 3 view .LVU3709
 12994 005e 1D4B     		ldr	r3, .L1361+16
 12995 0060 1A69     		ldr	r2, [r3, #16]
 12996              	.LVL1675:
1382:../switch_sdk/core/yt/yt_l2.c ****     CMM_PARAM_CHK((!(YT_DISPATCH(unit)->is_inited)), CMM_ERR_NOT_INIT);
 12997              		.loc 1 1382 5 is_stmt 0 discriminator 3 view .LVU3710
 12998 0062 1D4B     		ldr	r3, .L1361+20
 12999 0064 9968     		ldr	r1, [r3, #8]
 13000              	.LVL1676:
1382:../switch_sdk/core/yt/yt_l2.c ****     CMM_PARAM_CHK((!(YT_DISPATCH(unit)->is_inited)), CMM_ERR_NOT_INIT);
 13001              		.loc 1 1382 5 discriminator 3 view .LVU3711
 13002 0066 1D48     		ldr	r0, .L1361+24
 13003              	.LVL1677:
1382:../switch_sdk/core/yt/yt_l2.c ****     CMM_PARAM_CHK((!(YT_DISPATCH(unit)->is_inited)), CMM_ERR_NOT_INIT);
 13004              		.loc 1 1382 5 discriminator 3 view .LVU3712
 13005 0068 FFF7FEFF 		bl	osal_printf
 13006              	.LVL1678:
 13007 006c F5E7     		b	.L1343
 13008              	.LVL1679:
 13009              	.L1354:
1382:../switch_sdk/core/yt/yt_l2.c ****     CMM_PARAM_CHK((!(YT_DISPATCH(unit)->is_inited)), CMM_ERR_NOT_INIT);
 13010              		.loc 1 1382 5 discriminator 3 view .LVU3713
 13011              	.LBE261:
1383:../switch_sdk/core/yt/yt_l2.c ****     CMM_PARAM_CHK((!(CMM_PORT_VALID(unit, port))), CMM_ERR_PORT);
 13012              		.loc 1 1383 5 is_stmt 1 discriminator 1 view .LVU3714
1383:../switch_sdk/core/yt/yt_l2.c ****     CMM_PARAM_CHK((!(CMM_PORT_VALID(unit, port))), CMM_ERR_PORT);
 13013              		.loc 1 1383 5 discriminator 1 view .LVU3715
 13014 006e 184B     		ldr	r3, .L1361+12
 13015 0070 1B78     		ldrb	r3, [r3]	@ zero_extendqisi2
 13016 0072 012B     		cmp	r3, #1
 13017 0074 01D8     		bhi	.L1358
 13018              	.LVL1680:
 13019              	.L1345:
1383:../switch_sdk/core/yt/yt_l2.c ****     CMM_PARAM_CHK((!(CMM_PORT_VALID(unit, port))), CMM_ERR_PORT);
 13020              		.loc 1 1383 5 discriminator 5 view .LVU3716
1383:../switch_sdk/core/yt/yt_l2.c ****     CMM_PARAM_CHK((!(CMM_PORT_VALID(unit, port))), CMM_ERR_PORT);
 13021              		.loc 1 1383 5 discriminator 5 view .LVU3717
1383:../switch_sdk/core/yt/yt_l2.c ****     CMM_PARAM_CHK((!(CMM_PORT_VALID(unit, port))), CMM_ERR_PORT);
 13022              		.loc 1 1383 5 discriminator 5 view .LVU3718
 13023 0076 0420     		movs	r0, #4
 13024 0078 DCE7     		b	.L1338
 13025              	.LVL1681:
 13026              	.L1358:
1383:../switch_sdk/core/yt/yt_l2.c ****     CMM_PARAM_CHK((!(CMM_PORT_VALID(unit, port))), CMM_ERR_PORT);
 13027              		.loc 1 1383 5 discriminator 3 view .LVU3719
 13028              	.LBB262:
1383:../switch_sdk/core/yt/yt_l2.c ****     CMM_PARAM_CHK((!(CMM_PORT_VALID(unit, port))), CMM_ERR_PORT);
 13029              		.loc 1 1383 5 discriminator 3 view .LVU3720
 13030 007a 164B     		ldr	r3, .L1361+16
 13031 007c 1A69     		ldr	r2, [r3, #16]
 13032              	.LVL1682:
1383:../switch_sdk/core/yt/yt_l2.c ****     CMM_PARAM_CHK((!(CMM_PORT_VALID(unit, port))), CMM_ERR_PORT);
 13033              		.loc 1 1383 5 is_stmt 0 discriminator 3 view .LVU3721
 13034 007e 164B     		ldr	r3, .L1361+20
 13035 0080 9968     		ldr	r1, [r3, #8]
 13036              	.LVL1683:
1383:../switch_sdk/core/yt/yt_l2.c ****     CMM_PARAM_CHK((!(CMM_PORT_VALID(unit, port))), CMM_ERR_PORT);
 13037              		.loc 1 1383 5 discriminator 3 view .LVU3722
 13038 0082 1648     		ldr	r0, .L1361+24
 13039 0084 FFF7FEFF 		bl	osal_printf
 13040              	.LVL1684:
 13041 0088 F5E7     		b	.L1345
 13042              	.LVL1685:
 13043              	.L1346:
1383:../switch_sdk/core/yt/yt_l2.c ****     CMM_PARAM_CHK((!(CMM_PORT_VALID(unit, port))), CMM_ERR_PORT);
 13044              		.loc 1 1383 5 discriminator 3 view .LVU3723
 13045              	.LBE262:
1384:../switch_sdk/core/yt/yt_l2.c ****     CMM_PARAM_CHK((NULL == pEnable), CMM_ERR_NULL_POINT);
 13046              		.loc 1 1384 5 is_stmt 1 discriminator 3 view .LVU3724
1384:../switch_sdk/core/yt/yt_l2.c ****     CMM_PARAM_CHK((NULL == pEnable), CMM_ERR_NULL_POINT);
 13047              		.loc 1 1384 5 discriminator 3 view .LVU3725
 13048 008a 114B     		ldr	r3, .L1361+12
 13049 008c 1B78     		ldrb	r3, [r3]	@ zero_extendqisi2
 13050 008e 012B     		cmp	r3, #1
 13051 0090 01D8     		bhi	.L1359
 13052              	.LVL1686:
 13053              	.L1348:
1384:../switch_sdk/core/yt/yt_l2.c ****     CMM_PARAM_CHK((NULL == pEnable), CMM_ERR_NULL_POINT);
 13054              		.loc 1 1384 5 discriminator 7 view .LVU3726
1384:../switch_sdk/core/yt/yt_l2.c ****     CMM_PARAM_CHK((NULL == pEnable), CMM_ERR_NULL_POINT);
 13055              		.loc 1 1384 5 discriminator 7 view .LVU3727
1384:../switch_sdk/core/yt/yt_l2.c ****     CMM_PARAM_CHK((NULL == pEnable), CMM_ERR_NULL_POINT);
 13056              		.loc 1 1384 5 discriminator 7 view .LVU3728
 13057 0092 0E20     		movs	r0, #14
 13058 0094 CEE7     		b	.L1338
 13059              	.LVL1687:
 13060              	.L1359:
1384:../switch_sdk/core/yt/yt_l2.c ****     CMM_PARAM_CHK((NULL == pEnable), CMM_ERR_NULL_POINT);
 13061              		.loc 1 1384 5 discriminator 5 view .LVU3729
 13062              	.LBB263:
1384:../switch_sdk/core/yt/yt_l2.c ****     CMM_PARAM_CHK((NULL == pEnable), CMM_ERR_NULL_POINT);
 13063              		.loc 1 1384 5 discriminator 5 view .LVU3730
 13064 0096 0F4B     		ldr	r3, .L1361+16
 13065 0098 9A6B     		ldr	r2, [r3, #56]
 13066              	.LVL1688:
1384:../switch_sdk/core/yt/yt_l2.c ****     CMM_PARAM_CHK((NULL == pEnable), CMM_ERR_NULL_POINT);
 13067              		.loc 1 1384 5 is_stmt 0 discriminator 5 view .LVU3731
 13068 009a 0F4B     		ldr	r3, .L1361+20
 13069 009c 9968     		ldr	r1, [r3, #8]
 13070              	.LVL1689:
1384:../switch_sdk/core/yt/yt_l2.c ****     CMM_PARAM_CHK((NULL == pEnable), CMM_ERR_NULL_POINT);
 13071              		.loc 1 1384 5 discriminator 5 view .LVU3732
 13072 009e 0F48     		ldr	r0, .L1361+24
 13073 00a0 FFF7FEFF 		bl	osal_printf
 13074              	.LVL1690:
 13075 00a4 F5E7     		b	.L1348
 13076              	.LVL1691:
 13077              	.L1355:
1384:../switch_sdk/core/yt/yt_l2.c ****     CMM_PARAM_CHK((NULL == pEnable), CMM_ERR_NULL_POINT);
 13078              		.loc 1 1384 5 discriminator 5 view .LVU3733
 13079              	.LBE263:
1385:../switch_sdk/core/yt/yt_l2.c **** 
 13080              		.loc 1 1385 5 is_stmt 1 discriminator 1 view .LVU3734
1385:../switch_sdk/core/yt/yt_l2.c **** 
 13081              		.loc 1 1385 5 discriminator 1 view .LVU3735
 13082 00a6 0A4B     		ldr	r3, .L1361+12
 13083 00a8 1B78     		ldrb	r3, [r3]	@ zero_extendqisi2
 13084 00aa 012B     		cmp	r3, #1
 13085 00ac 01D8     		bhi	.L1360
 13086              	.LVL1692:
 13087              	.L1350:
1385:../switch_sdk/core/yt/yt_l2.c **** 
 13088              		.loc 1 1385 5 discriminator 5 view .LVU3736
1385:../switch_sdk/core/yt/yt_l2.c **** 
 13089              		.loc 1 1385 5 discriminator 5 view .LVU3737
1385:../switch_sdk/core/yt/yt_l2.c **** 
 13090              		.loc 1 1385 5 discriminator 5 view .LVU3738
 13091 00ae 0220     		movs	r0, #2
 13092 00b0 C0E7     		b	.L1338
 13093              	.LVL1693:
 13094              	.L1360:
1385:../switch_sdk/core/yt/yt_l2.c **** 
 13095              		.loc 1 1385 5 discriminator 3 view .LVU3739
 13096              	.LBB264:
1385:../switch_sdk/core/yt/yt_l2.c **** 
 13097              		.loc 1 1385 5 discriminator 3 view .LVU3740
 13098 00b2 084B     		ldr	r3, .L1361+16
 13099 00b4 9A68     		ldr	r2, [r3, #8]
 13100              	.LVL1694:
1385:../switch_sdk/core/yt/yt_l2.c **** 
 13101              		.loc 1 1385 5 is_stmt 0 discriminator 3 view .LVU3741
 13102 00b6 084B     		ldr	r3, .L1361+20
 13103 00b8 9968     		ldr	r1, [r3, #8]
 13104              	.LVL1695:
1385:../switch_sdk/core/yt/yt_l2.c **** 
 13105              		.loc 1 1385 5 discriminator 3 view .LVU3742
 13106 00ba 0848     		ldr	r0, .L1361+24
 13107 00bc FFF7FEFF 		bl	osal_printf
 13108              	.LVL1696:
 13109 00c0 F5E7     		b	.L1350
 13110              	.L1362:
 13111 00c2 00BF     		.align	2
 13112              	.L1361:
 13113 00c4 00000000 		.word	gpfal_dispatch
 13114 00c8 00000000 		.word	gcal_inited
 13115 00cc 00000000 		.word	gpSwitchUnit
 13116 00d0 00000000 		.word	yt_debug_level
 13117 00d4 00000000 		.word	_yt_errmsg
 13118 00d8 00000000 		.word	_yt_prompt_msg
 13119 00dc 00000000 		.word	.LC0
 13120              	.LBE264:
 13121              		.cfi_endproc
 13122              	.LFE64:
 13124              		.text
 13125              	.Letext0:
 13126              		.file 2 "C:\\Users\\Dmitriy\\Desktop\\GD32F10x\\switch_sdk\\common\\include/yt_types.h"
 13127              		.file 3 "C:\\Users\\Dmitriy\\Desktop\\GD32F10x\\switch_sdk\\common\\include/yt_error.h"
 13128              		.file 4 "C:\\Users\\Dmitriy\\Desktop\\GD32F10x\\switch_sdk\\core\\fal\\chipdef/chipdef.h"
 13129              		.file 5 "C:\\Users\\Dmitriy\\Desktop\\GD32F10x\\switch_sdk\\core\\cal/cal_bprofile.h"
 13130              		.file 6 "C:\\Users\\Dmitriy\\Desktop\\GD32F10x\\switch_sdk\\core\\cal/cal_mgm.h"
 13131              		.file 7 "C:\\Users\\Dmitriy\\Desktop\\GD32F10x\\switch_sdk\\include/yt_cmm.h"
 13132              		.file 8 "C:\\Users\\Dmitriy\\Desktop\\GD32F10x\\switch_sdk\\include/yt_l2.h"
 13133              		.file 9 "C:\\Users\\Dmitriy\\Desktop\\GD32F10x\\switch_sdk\\include/yt_vlan.h"
 13134              		.file 10 "C:\\Users\\Dmitriy\\Desktop\\GD32F10x\\switch_sdk\\include/yt_vlan_translate.h"
 13135              		.file 11 "C:\\Users\\Dmitriy\\Desktop\\GD32F10x\\switch_sdk\\include/yt_acl.h"
 13136              		.file 12 "C:\\Users\\Dmitriy\\Desktop\\GD32F10x\\switch_sdk\\include/yt_qos.h"
 13137              		.file 13 "C:\\Users\\Dmitriy\\Desktop\\GD32F10x\\switch_sdk\\include/yt_rate.h"
 13138              		.file 14 "C:\\Users\\Dmitriy\\Desktop\\GD32F10x\\switch_sdk\\include/yt_dos.h"
 13139              		.file 15 "C:\\Users\\Dmitriy\\Desktop\\GD32F10x\\switch_sdk\\include/yt_nic.h"
 13140              		.file 16 "C:\\Users\\Dmitriy\\Desktop\\GD32F10x\\switch_sdk\\include/yt_stp.h"
 13141              		.file 17 "C:\\Users\\Dmitriy\\Desktop\\GD32F10x\\switch_sdk\\include/yt_loopdetect.h"
 13142              		.file 18 "C:\\Users\\Dmitriy\\Desktop\\GD32F10x\\switch_sdk\\include/yt_multicast.h"
 13143              		.file 19 "C:\\Users\\Dmitriy\\Desktop\\GD32F10x\\switch_sdk\\include/yt_rma.h"
 13144              		.file 20 "C:\\Users\\Dmitriy\\Desktop\\GD32F10x\\switch_sdk\\include/yt_oam.h"
 13145              		.file 21 "C:\\Users\\Dmitriy\\Desktop\\GD32F10x\\switch_sdk\\include/yt_storm_ctrl.h"
 13146              		.file 22 "C:\\Users\\Dmitriy\\Desktop\\GD32F10x\\switch_sdk\\include/yt_port.h"
 13147              		.file 23 "C:\\Users\\Dmitriy\\Desktop\\GD32F10x\\switch_sdk\\include/yt_dot1x.h"
 13148              		.file 24 "C:\\Users\\Dmitriy\\Desktop\\GD32F10x\\switch_sdk\\include/yt_ctrlpkt.h"
 13149              		.file 25 "C:\\Users\\Dmitriy\\Desktop\\GD32F10x\\switch_sdk\\include/yt_stat.h"
 13150              		.file 26 "C:\\Users\\Dmitriy\\Desktop\\GD32F10x\\switch_sdk\\include/yt_interrupt.h"
 13151              		.file 27 "C:\\Users\\Dmitriy\\Desktop\\GD32F10x\\switch_sdk\\include/yt_led.h"
 13152              		.file 28 "C:\\Users\\Dmitriy\\Desktop\\GD32F10x\\switch_sdk\\include/yt_sys.h"
 13153              		.file 29 "C:\\Users\\Dmitriy\\Desktop\\GD32F10x\\switch_sdk\\include/yt_debug.h"
 13154              		.file 30 "C:\\Users\\Dmitriy\\Desktop\\GD32F10x\\switch_sdk\\core\\fal/fal_dispatch.h"
 13155              		.file 31 "C:\\Users\\Dmitriy\\Desktop\\GD32F10x\\switch_sdk\\core\\cal/cal_cmm.h"
DEFINED SYMBOLS
                            *ABS*:00000000 yt_l2.c
C:\Users\Dmitriy\AppData\Local\Temp\ccXv4DU5.s:19     .rodata.yt_l2_init.str1.4:00000000 $d
C:\Users\Dmitriy\AppData\Local\Temp\ccXv4DU5.s:23     .text.yt_l2_init:00000000 $t
C:\Users\Dmitriy\AppData\Local\Temp\ccXv4DU5.s:29     .text.yt_l2_init:00000000 yt_l2_init
C:\Users\Dmitriy\AppData\Local\Temp\ccXv4DU5.s:162    .text.yt_l2_init:0000006c $d
C:\Users\Dmitriy\AppData\Local\Temp\ccXv4DU5.s:172    .text.yt_l2_mcast_addr_add:00000000 $t
C:\Users\Dmitriy\AppData\Local\Temp\ccXv4DU5.s:178    .text.yt_l2_mcast_addr_add:00000000 yt_l2_mcast_addr_add
C:\Users\Dmitriy\AppData\Local\Temp\ccXv4DU5.s:403    .text.yt_l2_mcast_addr_add:000000dc $d
C:\Users\Dmitriy\AppData\Local\Temp\ccXv4DU5.s:413    .text.yt_l2_fdb_ucast_addr_add:00000000 $t
C:\Users\Dmitriy\AppData\Local\Temp\ccXv4DU5.s:419    .text.yt_l2_fdb_ucast_addr_add:00000000 yt_l2_fdb_ucast_addr_add
C:\Users\Dmitriy\AppData\Local\Temp\ccXv4DU5.s:664    .text.yt_l2_fdb_ucast_addr_add:000000e4 $d
C:\Users\Dmitriy\AppData\Local\Temp\ccXv4DU5.s:676    .text.yt_l2_fdb_ucast_addr_add_dynamic:00000000 $t
C:\Users\Dmitriy\AppData\Local\Temp\ccXv4DU5.s:682    .text.yt_l2_fdb_ucast_addr_add_dynamic:00000000 yt_l2_fdb_ucast_addr_add_dynamic
C:\Users\Dmitriy\AppData\Local\Temp\ccXv4DU5.s:927    .text.yt_l2_fdb_ucast_addr_add_dynamic:000000e4 $d
C:\Users\Dmitriy\AppData\Local\Temp\ccXv4DU5.s:939    .text.yt_l2_fdb_ucast_addr_del:00000000 $t
C:\Users\Dmitriy\AppData\Local\Temp\ccXv4DU5.s:945    .text.yt_l2_fdb_ucast_addr_del:00000000 yt_l2_fdb_ucast_addr_del
C:\Users\Dmitriy\AppData\Local\Temp\ccXv4DU5.s:1134   .text.yt_l2_fdb_ucast_addr_del:000000a0 $d
C:\Users\Dmitriy\AppData\Local\Temp\ccXv4DU5.s:1144   .text.yt_l2_mcast_addr_del:00000000 $t
C:\Users\Dmitriy\AppData\Local\Temp\ccXv4DU5.s:1150   .text.yt_l2_mcast_addr_del:00000000 yt_l2_mcast_addr_del
C:\Users\Dmitriy\AppData\Local\Temp\ccXv4DU5.s:1339   .text.yt_l2_mcast_addr_del:000000a0 $d
C:\Users\Dmitriy\AppData\Local\Temp\ccXv4DU5.s:1349   .text.yt_l2_fdb_linkdownFlush_en_set:00000000 $t
C:\Users\Dmitriy\AppData\Local\Temp\ccXv4DU5.s:1355   .text.yt_l2_fdb_linkdownFlush_en_set:00000000 yt_l2_fdb_linkdownFlush_en_set
C:\Users\Dmitriy\AppData\Local\Temp\ccXv4DU5.s:1533   .text.yt_l2_fdb_linkdownFlush_en_set:00000090 $d
C:\Users\Dmitriy\AppData\Local\Temp\ccXv4DU5.s:1543   .text.yt_l2_fdb_linkdownFlush_en_get:00000000 $t
C:\Users\Dmitriy\AppData\Local\Temp\ccXv4DU5.s:1549   .text.yt_l2_fdb_linkdownFlush_en_get:00000000 yt_l2_fdb_linkdownFlush_en_get
C:\Users\Dmitriy\AppData\Local\Temp\ccXv4DU5.s:1727   .text.yt_l2_fdb_linkdownFlush_en_get:00000090 $d
C:\Users\Dmitriy\AppData\Local\Temp\ccXv4DU5.s:1737   .text.yt_l2_fdb_all_ucast_flush:00000000 $t
C:\Users\Dmitriy\AppData\Local\Temp\ccXv4DU5.s:1743   .text.yt_l2_fdb_all_ucast_flush:00000000 yt_l2_fdb_all_ucast_flush
C:\Users\Dmitriy\AppData\Local\Temp\ccXv4DU5.s:1876   .text.yt_l2_fdb_all_ucast_flush:0000006c $d
C:\Users\Dmitriy\AppData\Local\Temp\ccXv4DU5.s:1886   .text.yt_l2_fdb_port_ucast_flush:00000000 $t
C:\Users\Dmitriy\AppData\Local\Temp\ccXv4DU5.s:1892   .text.yt_l2_fdb_port_ucast_flush:00000000 yt_l2_fdb_port_ucast_flush
C:\Users\Dmitriy\AppData\Local\Temp\ccXv4DU5.s:2077   .text.yt_l2_fdb_port_ucast_flush:000000a0 $d
C:\Users\Dmitriy\AppData\Local\Temp\ccXv4DU5.s:2089   .text.yt_l2_fdb_vlan_ucast_flush:00000000 $t
C:\Users\Dmitriy\AppData\Local\Temp\ccXv4DU5.s:2095   .text.yt_l2_fdb_vlan_ucast_flush:00000000 yt_l2_fdb_vlan_ucast_flush
C:\Users\Dmitriy\AppData\Local\Temp\ccXv4DU5.s:2273   .text.yt_l2_fdb_vlan_ucast_flush:00000094 $d
C:\Users\Dmitriy\AppData\Local\Temp\ccXv4DU5.s:2283   .text.yt_l2_all_mcast_flush:00000000 $t
C:\Users\Dmitriy\AppData\Local\Temp\ccXv4DU5.s:2289   .text.yt_l2_all_mcast_flush:00000000 yt_l2_all_mcast_flush
C:\Users\Dmitriy\AppData\Local\Temp\ccXv4DU5.s:2422   .text.yt_l2_all_mcast_flush:0000006c $d
C:\Users\Dmitriy\AppData\Local\Temp\ccXv4DU5.s:2432   .text.yt_l2_port_mcast_flush:00000000 $t
C:\Users\Dmitriy\AppData\Local\Temp\ccXv4DU5.s:2438   .text.yt_l2_port_mcast_flush:00000000 yt_l2_port_mcast_flush
C:\Users\Dmitriy\AppData\Local\Temp\ccXv4DU5.s:2623   .text.yt_l2_port_mcast_flush:000000a0 $d
C:\Users\Dmitriy\AppData\Local\Temp\ccXv4DU5.s:2635   .text.yt_l2_vlan_mcast_flush:00000000 $t
C:\Users\Dmitriy\AppData\Local\Temp\ccXv4DU5.s:2641   .text.yt_l2_vlan_mcast_flush:00000000 yt_l2_vlan_mcast_flush
C:\Users\Dmitriy\AppData\Local\Temp\ccXv4DU5.s:2819   .text.yt_l2_vlan_mcast_flush:00000094 $d
C:\Users\Dmitriy\AppData\Local\Temp\ccXv4DU5.s:2829   .text.yt_l2_fdb_type_get:00000000 $t
C:\Users\Dmitriy\AppData\Local\Temp\ccXv4DU5.s:2835   .text.yt_l2_fdb_type_get:00000000 yt_l2_fdb_type_get
C:\Users\Dmitriy\AppData\Local\Temp\ccXv4DU5.s:3067   .text.yt_l2_fdb_type_get:000000c8 $d
C:\Users\Dmitriy\AppData\Local\Temp\ccXv4DU5.s:3077   .text.yt_l2_port_learnlimit_en_set:00000000 $t
C:\Users\Dmitriy\AppData\Local\Temp\ccXv4DU5.s:3083   .text.yt_l2_port_learnlimit_en_set:00000000 yt_l2_port_learnlimit_en_set
C:\Users\Dmitriy\AppData\Local\Temp\ccXv4DU5.s:3316   .text.yt_l2_port_learnlimit_en_set:000000c4 $d
C:\Users\Dmitriy\AppData\Local\Temp\ccXv4DU5.s:3328   .text.yt_l2_port_learnlimit_en_get:00000000 $t
C:\Users\Dmitriy\AppData\Local\Temp\ccXv4DU5.s:3334   .text.yt_l2_port_learnlimit_en_get:00000000 yt_l2_port_learnlimit_en_get
C:\Users\Dmitriy\AppData\Local\Temp\ccXv4DU5.s:3567   .text.yt_l2_port_learnlimit_en_get:000000c4 $d
C:\Users\Dmitriy\AppData\Local\Temp\ccXv4DU5.s:3579   .text.yt_l2_port_learnlimit_cnt_set:00000000 $t
C:\Users\Dmitriy\AppData\Local\Temp\ccXv4DU5.s:3585   .text.yt_l2_port_learnlimit_cnt_set:00000000 yt_l2_port_learnlimit_cnt_set
C:\Users\Dmitriy\AppData\Local\Temp\ccXv4DU5.s:3778   .text.yt_l2_port_learnlimit_cnt_set:000000a0 $d
C:\Users\Dmitriy\AppData\Local\Temp\ccXv4DU5.s:3790   .text.yt_l2_port_learnlimit_cnt_get:00000000 $t
C:\Users\Dmitriy\AppData\Local\Temp\ccXv4DU5.s:3796   .text.yt_l2_port_learnlimit_cnt_get:00000000 yt_l2_port_learnlimit_cnt_get
C:\Users\Dmitriy\AppData\Local\Temp\ccXv4DU5.s:4029   .text.yt_l2_port_learnlimit_cnt_get:000000c4 $d
C:\Users\Dmitriy\AppData\Local\Temp\ccXv4DU5.s:4041   .text.yt_l2_port_learnlimit_exceed_drop_set:00000000 $t
C:\Users\Dmitriy\AppData\Local\Temp\ccXv4DU5.s:4047   .text.yt_l2_port_learnlimit_exceed_drop_set:00000000 yt_l2_port_learnlimit_exceed_drop_set
C:\Users\Dmitriy\AppData\Local\Temp\ccXv4DU5.s:4280   .text.yt_l2_port_learnlimit_exceed_drop_set:000000c4 $d
C:\Users\Dmitriy\AppData\Local\Temp\ccXv4DU5.s:4292   .text.yt_l2_port_learnlimit_exceed_drop_get:00000000 $t
C:\Users\Dmitriy\AppData\Local\Temp\ccXv4DU5.s:4298   .text.yt_l2_port_learnlimit_exceed_drop_get:00000000 yt_l2_port_learnlimit_exceed_drop_get
C:\Users\Dmitriy\AppData\Local\Temp\ccXv4DU5.s:4531   .text.yt_l2_port_learnlimit_exceed_drop_get:000000c4 $d
C:\Users\Dmitriy\AppData\Local\Temp\ccXv4DU5.s:4543   .text.yt_l2_system_learnlimit_en_set:00000000 $t
C:\Users\Dmitriy\AppData\Local\Temp\ccXv4DU5.s:4549   .text.yt_l2_system_learnlimit_en_set:00000000 yt_l2_system_learnlimit_en_set
C:\Users\Dmitriy\AppData\Local\Temp\ccXv4DU5.s:4727   .text.yt_l2_system_learnlimit_en_set:00000090 $d
C:\Users\Dmitriy\AppData\Local\Temp\ccXv4DU5.s:4737   .text.yt_l2_system_learnlimit_en_get:00000000 $t
C:\Users\Dmitriy\AppData\Local\Temp\ccXv4DU5.s:4743   .text.yt_l2_system_learnlimit_en_get:00000000 yt_l2_system_learnlimit_en_get
C:\Users\Dmitriy\AppData\Local\Temp\ccXv4DU5.s:4921   .text.yt_l2_system_learnlimit_en_get:00000090 $d
C:\Users\Dmitriy\AppData\Local\Temp\ccXv4DU5.s:4931   .text.yt_l2_system_learnlimit_cnt_set:00000000 $t
C:\Users\Dmitriy\AppData\Local\Temp\ccXv4DU5.s:4937   .text.yt_l2_system_learnlimit_cnt_set:00000000 yt_l2_system_learnlimit_cnt_set
C:\Users\Dmitriy\AppData\Local\Temp\ccXv4DU5.s:5078   .text.yt_l2_system_learnlimit_cnt_set:00000070 $d
C:\Users\Dmitriy\AppData\Local\Temp\ccXv4DU5.s:5088   .text.yt_l2_system_learnlimit_cnt_get:00000000 $t
C:\Users\Dmitriy\AppData\Local\Temp\ccXv4DU5.s:5094   .text.yt_l2_system_learnlimit_cnt_get:00000000 yt_l2_system_learnlimit_cnt_get
C:\Users\Dmitriy\AppData\Local\Temp\ccXv4DU5.s:5272   .text.yt_l2_system_learnlimit_cnt_get:00000090 $d
C:\Users\Dmitriy\AppData\Local\Temp\ccXv4DU5.s:5282   .text.yt_l2_system_learnlimit_exceed_drop_set:00000000 $t
C:\Users\Dmitriy\AppData\Local\Temp\ccXv4DU5.s:5288   .text.yt_l2_system_learnlimit_exceed_drop_set:00000000 yt_l2_system_learnlimit_exceed_drop_set
C:\Users\Dmitriy\AppData\Local\Temp\ccXv4DU5.s:5466   .text.yt_l2_system_learnlimit_exceed_drop_set:00000090 $d
C:\Users\Dmitriy\AppData\Local\Temp\ccXv4DU5.s:5476   .text.yt_l2_system_learnlimit_exceed_drop_get:00000000 $t
C:\Users\Dmitriy\AppData\Local\Temp\ccXv4DU5.s:5482   .text.yt_l2_system_learnlimit_exceed_drop_get:00000000 yt_l2_system_learnlimit_exceed_drop_get
C:\Users\Dmitriy\AppData\Local\Temp\ccXv4DU5.s:5660   .text.yt_l2_system_learnlimit_exceed_drop_get:00000090 $d
C:\Users\Dmitriy\AppData\Local\Temp\ccXv4DU5.s:5670   .text.yt_l2_fdb_drop_sa_set:00000000 $t
C:\Users\Dmitriy\AppData\Local\Temp\ccXv4DU5.s:5676   .text.yt_l2_fdb_drop_sa_set:00000000 yt_l2_fdb_drop_sa_set
C:\Users\Dmitriy\AppData\Local\Temp\ccXv4DU5.s:5904   .text.yt_l2_fdb_drop_sa_set:000000c8 $d
C:\Users\Dmitriy\AppData\Local\Temp\ccXv4DU5.s:5914   .text.yt_l2_fdb_drop_sa_get:00000000 $t
C:\Users\Dmitriy\AppData\Local\Temp\ccXv4DU5.s:5920   .text.yt_l2_fdb_drop_sa_get:00000000 yt_l2_fdb_drop_sa_get
C:\Users\Dmitriy\AppData\Local\Temp\ccXv4DU5.s:6152   .text.yt_l2_fdb_drop_sa_get:000000c8 $d
C:\Users\Dmitriy\AppData\Local\Temp\ccXv4DU5.s:6162   .text.yt_l2_fdb_drop_da_set:00000000 $t
C:\Users\Dmitriy\AppData\Local\Temp\ccXv4DU5.s:6168   .text.yt_l2_fdb_drop_da_set:00000000 yt_l2_fdb_drop_da_set
C:\Users\Dmitriy\AppData\Local\Temp\ccXv4DU5.s:6396   .text.yt_l2_fdb_drop_da_set:000000c8 $d
C:\Users\Dmitriy\AppData\Local\Temp\ccXv4DU5.s:6406   .text.yt_l2_fdb_drop_da_get:00000000 $t
C:\Users\Dmitriy\AppData\Local\Temp\ccXv4DU5.s:6412   .text.yt_l2_fdb_drop_da_get:00000000 yt_l2_fdb_drop_da_get
C:\Users\Dmitriy\AppData\Local\Temp\ccXv4DU5.s:6644   .text.yt_l2_fdb_drop_da_get:000000c8 $d
C:\Users\Dmitriy\AppData\Local\Temp\ccXv4DU5.s:6654   .text.yt_l2_fdb_copy2cpu_set:00000000 $t
C:\Users\Dmitriy\AppData\Local\Temp\ccXv4DU5.s:6660   .text.yt_l2_fdb_copy2cpu_set:00000000 yt_l2_fdb_copy2cpu_set
C:\Users\Dmitriy\AppData\Local\Temp\ccXv4DU5.s:6888   .text.yt_l2_fdb_copy2cpu_set:000000c8 $d
C:\Users\Dmitriy\AppData\Local\Temp\ccXv4DU5.s:6898   .text.yt_l2_fdb_copy2cpu_get:00000000 $t
C:\Users\Dmitriy\AppData\Local\Temp\ccXv4DU5.s:6904   .text.yt_l2_fdb_copy2cpu_get:00000000 yt_l2_fdb_copy2cpu_get
C:\Users\Dmitriy\AppData\Local\Temp\ccXv4DU5.s:7136   .text.yt_l2_fdb_copy2cpu_get:000000c8 $d
C:\Users\Dmitriy\AppData\Local\Temp\ccXv4DU5.s:7146   .text.yt_l2_filter_mcast_set:00000000 $t
C:\Users\Dmitriy\AppData\Local\Temp\ccXv4DU5.s:7152   .text.yt_l2_filter_mcast_set:00000000 yt_l2_filter_mcast_set
C:\Users\Dmitriy\AppData\Local\Temp\ccXv4DU5.s:7334   .text.yt_l2_filter_mcast_set:000000a0 $d
C:\Users\Dmitriy\AppData\Local\Temp\ccXv4DU5.s:7344   .text.yt_l2_filter_mcast_get:00000000 $t
C:\Users\Dmitriy\AppData\Local\Temp\ccXv4DU5.s:7350   .text.yt_l2_filter_mcast_get:00000000 yt_l2_filter_mcast_get
C:\Users\Dmitriy\AppData\Local\Temp\ccXv4DU5.s:7528   .text.yt_l2_filter_mcast_get:00000090 $d
C:\Users\Dmitriy\AppData\Local\Temp\ccXv4DU5.s:7538   .text.yt_l2_filter_bcast_set:00000000 $t
C:\Users\Dmitriy\AppData\Local\Temp\ccXv4DU5.s:7544   .text.yt_l2_filter_bcast_set:00000000 yt_l2_filter_bcast_set
C:\Users\Dmitriy\AppData\Local\Temp\ccXv4DU5.s:7726   .text.yt_l2_filter_bcast_set:000000a0 $d
C:\Users\Dmitriy\AppData\Local\Temp\ccXv4DU5.s:7736   .text.yt_l2_filter_bcast_get:00000000 $t
C:\Users\Dmitriy\AppData\Local\Temp\ccXv4DU5.s:7742   .text.yt_l2_filter_bcast_get:00000000 yt_l2_filter_bcast_get
C:\Users\Dmitriy\AppData\Local\Temp\ccXv4DU5.s:7920   .text.yt_l2_filter_bcast_get:00000090 $d
C:\Users\Dmitriy\AppData\Local\Temp\ccXv4DU5.s:7930   .text.yt_l2_filter_unknown_ucast_set:00000000 $t
C:\Users\Dmitriy\AppData\Local\Temp\ccXv4DU5.s:7936   .text.yt_l2_filter_unknown_ucast_set:00000000 yt_l2_filter_unknown_ucast_set
C:\Users\Dmitriy\AppData\Local\Temp\ccXv4DU5.s:8118   .text.yt_l2_filter_unknown_ucast_set:000000a0 $d
C:\Users\Dmitriy\AppData\Local\Temp\ccXv4DU5.s:8128   .text.yt_l2_filter_unknown_ucast_get:00000000 $t
C:\Users\Dmitriy\AppData\Local\Temp\ccXv4DU5.s:8134   .text.yt_l2_filter_unknown_ucast_get:00000000 yt_l2_filter_unknown_ucast_get
C:\Users\Dmitriy\AppData\Local\Temp\ccXv4DU5.s:8312   .text.yt_l2_filter_unknown_ucast_get:00000090 $d
C:\Users\Dmitriy\AppData\Local\Temp\ccXv4DU5.s:8322   .text.yt_l2_filter_unknown_mcast_set:00000000 $t
C:\Users\Dmitriy\AppData\Local\Temp\ccXv4DU5.s:8328   .text.yt_l2_filter_unknown_mcast_set:00000000 yt_l2_filter_unknown_mcast_set
C:\Users\Dmitriy\AppData\Local\Temp\ccXv4DU5.s:8510   .text.yt_l2_filter_unknown_mcast_set:000000a0 $d
C:\Users\Dmitriy\AppData\Local\Temp\ccXv4DU5.s:8520   .text.yt_l2_filter_unknown_mcast_get:00000000 $t
C:\Users\Dmitriy\AppData\Local\Temp\ccXv4DU5.s:8526   .text.yt_l2_filter_unknown_mcast_get:00000000 yt_l2_filter_unknown_mcast_get
C:\Users\Dmitriy\AppData\Local\Temp\ccXv4DU5.s:8704   .text.yt_l2_filter_unknown_mcast_get:00000090 $d
C:\Users\Dmitriy\AppData\Local\Temp\ccXv4DU5.s:8714   .text.yt_l2_rma_bypass_unknown_mcast_filter_set:00000000 $t
C:\Users\Dmitriy\AppData\Local\Temp\ccXv4DU5.s:8720   .text.yt_l2_rma_bypass_unknown_mcast_filter_set:00000000 yt_l2_rma_bypass_unknown_mcast_filter_set
C:\Users\Dmitriy\AppData\Local\Temp\ccXv4DU5.s:8898   .text.yt_l2_rma_bypass_unknown_mcast_filter_set:00000090 $d
C:\Users\Dmitriy\AppData\Local\Temp\ccXv4DU5.s:8908   .text.yt_l2_rma_bypass_unknown_mcast_filter_get:00000000 $t
C:\Users\Dmitriy\AppData\Local\Temp\ccXv4DU5.s:8914   .text.yt_l2_rma_bypass_unknown_mcast_filter_get:00000000 yt_l2_rma_bypass_unknown_mcast_filter_get
C:\Users\Dmitriy\AppData\Local\Temp\ccXv4DU5.s:9092   .text.yt_l2_rma_bypass_unknown_mcast_filter_get:00000090 $d
C:\Users\Dmitriy\AppData\Local\Temp\ccXv4DU5.s:9102   .text.yt_l2_fdb_port_uc_cnt_get:00000000 $t
C:\Users\Dmitriy\AppData\Local\Temp\ccXv4DU5.s:9108   .text.yt_l2_fdb_port_uc_cnt_get:00000000 yt_l2_fdb_port_uc_cnt_get
C:\Users\Dmitriy\AppData\Local\Temp\ccXv4DU5.s:9341   .text.yt_l2_fdb_port_uc_cnt_get:000000c4 $d
C:\Users\Dmitriy\AppData\Local\Temp\ccXv4DU5.s:9353   .text.yt_l2_fdb_lag_uc_cnt_get:00000000 $t
C:\Users\Dmitriy\AppData\Local\Temp\ccXv4DU5.s:9359   .text.yt_l2_fdb_lag_uc_cnt_get:00000000 yt_l2_fdb_lag_uc_cnt_get
C:\Users\Dmitriy\AppData\Local\Temp\ccXv4DU5.s:9545   .text.yt_l2_fdb_lag_uc_cnt_get:00000090 $d
C:\Users\Dmitriy\AppData\Local\Temp\ccXv4DU5.s:9555   .text.yt_l2_lag_learnlimit_en_set:00000000 $t
C:\Users\Dmitriy\AppData\Local\Temp\ccXv4DU5.s:9561   .text.yt_l2_lag_learnlimit_en_set:00000000 yt_l2_lag_learnlimit_en_set
C:\Users\Dmitriy\AppData\Local\Temp\ccXv4DU5.s:9747   .text.yt_l2_lag_learnlimit_en_set:00000090 $d
C:\Users\Dmitriy\AppData\Local\Temp\ccXv4DU5.s:9757   .text.yt_l2_lag_learnlimit_en_get:00000000 $t
C:\Users\Dmitriy\AppData\Local\Temp\ccXv4DU5.s:9763   .text.yt_l2_lag_learnlimit_en_get:00000000 yt_l2_lag_learnlimit_en_get
C:\Users\Dmitriy\AppData\Local\Temp\ccXv4DU5.s:9949   .text.yt_l2_lag_learnlimit_en_get:00000090 $d
C:\Users\Dmitriy\AppData\Local\Temp\ccXv4DU5.s:9959   .text.yt_l2_lag_learnlimit_cnt_set:00000000 $t
C:\Users\Dmitriy\AppData\Local\Temp\ccXv4DU5.s:9965   .text.yt_l2_lag_learnlimit_cnt_set:00000000 yt_l2_lag_learnlimit_cnt_set
C:\Users\Dmitriy\AppData\Local\Temp\ccXv4DU5.s:10112  .text.yt_l2_lag_learnlimit_cnt_set:00000070 $d
C:\Users\Dmitriy\AppData\Local\Temp\ccXv4DU5.s:10122  .text.yt_l2_lag_learnlimit_cnt_get:00000000 $t
C:\Users\Dmitriy\AppData\Local\Temp\ccXv4DU5.s:10128  .text.yt_l2_lag_learnlimit_cnt_get:00000000 yt_l2_lag_learnlimit_cnt_get
C:\Users\Dmitriy\AppData\Local\Temp\ccXv4DU5.s:10314  .text.yt_l2_lag_learnlimit_cnt_get:00000090 $d
C:\Users\Dmitriy\AppData\Local\Temp\ccXv4DU5.s:10324  .text.yt_l2_lag_learnlimit_exceed_drop_set:00000000 $t
C:\Users\Dmitriy\AppData\Local\Temp\ccXv4DU5.s:10330  .text.yt_l2_lag_learnlimit_exceed_drop_set:00000000 yt_l2_lag_learnlimit_exceed_drop_set
C:\Users\Dmitriy\AppData\Local\Temp\ccXv4DU5.s:10516  .text.yt_l2_lag_learnlimit_exceed_drop_set:00000090 $d
C:\Users\Dmitriy\AppData\Local\Temp\ccXv4DU5.s:10526  .text.yt_l2_lag_learnlimit_exceed_drop_get:00000000 $t
C:\Users\Dmitriy\AppData\Local\Temp\ccXv4DU5.s:10532  .text.yt_l2_lag_learnlimit_exceed_drop_get:00000000 yt_l2_lag_learnlimit_exceed_drop_get
C:\Users\Dmitriy\AppData\Local\Temp\ccXv4DU5.s:10718  .text.yt_l2_lag_learnlimit_exceed_drop_get:00000090 $d
C:\Users\Dmitriy\AppData\Local\Temp\ccXv4DU5.s:10728  .text.yt_l2_fdb_uc_cnt_get:00000000 $t
C:\Users\Dmitriy\AppData\Local\Temp\ccXv4DU5.s:10734  .text.yt_l2_fdb_uc_cnt_get:00000000 yt_l2_fdb_uc_cnt_get
C:\Users\Dmitriy\AppData\Local\Temp\ccXv4DU5.s:10912  .text.yt_l2_fdb_uc_cnt_get:00000090 $d
C:\Users\Dmitriy\AppData\Local\Temp\ccXv4DU5.s:10922  .text.yt_l2_mc_cnt_get:00000000 $t
C:\Users\Dmitriy\AppData\Local\Temp\ccXv4DU5.s:10928  .text.yt_l2_mc_cnt_get:00000000 yt_l2_mc_cnt_get
C:\Users\Dmitriy\AppData\Local\Temp\ccXv4DU5.s:11106  .text.yt_l2_mc_cnt_get:00000090 $d
C:\Users\Dmitriy\AppData\Local\Temp\ccXv4DU5.s:11116  .text.yt_l2_fdb_aging_port_en_set:00000000 $t
C:\Users\Dmitriy\AppData\Local\Temp\ccXv4DU5.s:11122  .text.yt_l2_fdb_aging_port_en_set:00000000 yt_l2_fdb_aging_port_en_set
C:\Users\Dmitriy\AppData\Local\Temp\ccXv4DU5.s:11355  .text.yt_l2_fdb_aging_port_en_set:000000c4 $d
C:\Users\Dmitriy\AppData\Local\Temp\ccXv4DU5.s:11367  .text.yt_l2_fdb_aging_port_en_get:00000000 $t
C:\Users\Dmitriy\AppData\Local\Temp\ccXv4DU5.s:11373  .text.yt_l2_fdb_aging_port_en_get:00000000 yt_l2_fdb_aging_port_en_get
C:\Users\Dmitriy\AppData\Local\Temp\ccXv4DU5.s:11606  .text.yt_l2_fdb_aging_port_en_get:000000c4 $d
C:\Users\Dmitriy\AppData\Local\Temp\ccXv4DU5.s:11618  .text.yt_l2_fdb_aging_time_set:00000000 $t
C:\Users\Dmitriy\AppData\Local\Temp\ccXv4DU5.s:11624  .text.yt_l2_fdb_aging_time_set:00000000 yt_l2_fdb_aging_time_set
C:\Users\Dmitriy\AppData\Local\Temp\ccXv4DU5.s:11802  .text.yt_l2_fdb_aging_time_set:00000090 $d
C:\Users\Dmitriy\AppData\Local\Temp\ccXv4DU5.s:11812  .text.yt_l2_fdb_aging_time_get:00000000 $t
C:\Users\Dmitriy\AppData\Local\Temp\ccXv4DU5.s:11818  .text.yt_l2_fdb_aging_time_get:00000000 yt_l2_fdb_aging_time_get
C:\Users\Dmitriy\AppData\Local\Temp\ccXv4DU5.s:11996  .text.yt_l2_fdb_aging_time_get:00000090 $d
C:\Users\Dmitriy\AppData\Local\Temp\ccXv4DU5.s:12006  .text.yt_l2_fdb_uc_withindex_get:00000000 $t
C:\Users\Dmitriy\AppData\Local\Temp\ccXv4DU5.s:12012  .text.yt_l2_fdb_uc_withindex_get:00000000 yt_l2_fdb_uc_withindex_get
C:\Users\Dmitriy\AppData\Local\Temp\ccXv4DU5.s:12198  .text.yt_l2_fdb_uc_withindex_get:00000090 $d
C:\Users\Dmitriy\AppData\Local\Temp\ccXv4DU5.s:12208  .text.yt_l2_fdb_uc_withMacAndVid_get:00000000 $t
C:\Users\Dmitriy\AppData\Local\Temp\ccXv4DU5.s:12214  .text.yt_l2_fdb_uc_withMacAndVid_get:00000000 yt_l2_fdb_uc_withMacAndVid_get
C:\Users\Dmitriy\AppData\Local\Temp\ccXv4DU5.s:12405  .text.yt_l2_fdb_uc_withMacAndVid_get:000000a4 $d
C:\Users\Dmitriy\AppData\Local\Temp\ccXv4DU5.s:12415  .text.yt_l2_fdb_uc_withindex_getnext:00000000 $t
C:\Users\Dmitriy\AppData\Local\Temp\ccXv4DU5.s:12421  .text.yt_l2_fdb_uc_withindex_getnext:00000000 yt_l2_fdb_uc_withindex_getnext
C:\Users\Dmitriy\AppData\Local\Temp\ccXv4DU5.s:12613  .text.yt_l2_fdb_uc_withindex_getnext:00000090 $d
C:\Users\Dmitriy\AppData\Local\Temp\ccXv4DU5.s:12623  .text.yt_l2_port_learn_en_set:00000000 $t
C:\Users\Dmitriy\AppData\Local\Temp\ccXv4DU5.s:12629  .text.yt_l2_port_learn_en_set:00000000 yt_l2_port_learn_en_set
C:\Users\Dmitriy\AppData\Local\Temp\ccXv4DU5.s:12862  .text.yt_l2_port_learn_en_set:000000c4 $d
C:\Users\Dmitriy\AppData\Local\Temp\ccXv4DU5.s:12874  .text.yt_l2_port_learn_en_get:00000000 $t
C:\Users\Dmitriy\AppData\Local\Temp\ccXv4DU5.s:12880  .text.yt_l2_port_learn_en_get:00000000 yt_l2_port_learn_en_get
C:\Users\Dmitriy\AppData\Local\Temp\ccXv4DU5.s:13113  .text.yt_l2_port_learn_en_get:000000c4 $d
                           .group:00000000 wm4.0.3ac34e011645c1b8d95761511e5c0518
                           .group:00000000 wm4._newlib_version.h.4.6d111ab2e95434b664b53815e5c8ccba
                           .group:00000000 wm4.newlib.h.27.d4bf77c18f14f545101dac22f0b54118
                           .group:00000000 wm4.ieeefp.h.77.0ee3146e9d892bb10bc0066c30189af1
                           .group:00000000 wm4.features.h.22.7877b139107948f7dadcf3660cc79cfd
                           .group:00000000 wm4.config.h.224.10ee1ad185d877c6e334e6581faab44d
                           .group:00000000 wm4._ansi.h.31.de524f58584151836e90d8620a16f8e8
                           .group:00000000 wm4.stdio.h.31.7c0e28c411445f3f9c5b11accf882760
                           .group:00000000 wm4._default_types.h.6.959254cf5f09734ea7516c89e8bb21bd
                           .group:00000000 wm4.stddef.h.185.cbb642e1ccd385e8aa504b15cb7fb086
                           .group:00000000 wm4.cdefs.h.49.f93868eb904b9ca05b5c0257d31128ca
                           .group:00000000 wm4.stddef.h.39.0e5f0dabba1c666ccadf0408e0d47322
                           .group:00000000 wm4.stdarg.h.34.3a23a216c0c293b3d2ea2e89281481e6
                           .group:00000000 wm4._types.h.20.dd0d04dca3800a0d2a6129b87f3adbb2
                           .group:00000000 wm4.stddef.h.158.5f30652bb2ea05b142c1bbee9108c999
                           .group:00000000 wm4._types.h.127.3bdfe3ff8ea2d0985b03d9cbe93480e3
                           .group:00000000 wm4.reent.h.17.e292bf8b0bec6c96e131a54347145a30
                           .group:00000000 wm4.lock.h.2.1461d1fff82dffe8bfddc23307f6484f
                           .group:00000000 wm4.reent.h.77.89f7dde66c62b1f1dee32bdb6ab2d544
                           .group:00000000 wm4.stdio.h.67.0cf8a9c281ab0b348aef5c02e7e48825
                           .group:00000000 wm4.stdio.h.2.4aa87247282eca6c8f36f9de33d8df1a
                           .group:00000000 wm4.stdio.h.87.a1e20d2651f9bfb66e51bfbe849db00a
                           .group:00000000 wm4.string.h.8.c4b8571ce60dff2817f43fec8b86aecd
                           .group:00000000 wm4.stddef.h.158.bfed30416c9480cd13bc4a25427d538f
                           .group:00000000 wm4.stdbool.h.29.4a1c88fe569adb8d03217dd16982ca34
                           .group:00000000 wm4.malloc.h.4.62bd13b8107d5245f60bd92bb5994838
                           .group:00000000 wm4.malloc.h.152.f5d1d9a9aabeac59da0ef41ede16d2b0
                           .group:00000000 wm4.yt_types.h.31.64aa050cf4c68d28514ce99f5dc2ddb9
                           .group:00000000 wm4.yt_util.h.17.08ae57e3898b218a2bbe57b2147a81bd
                           .group:00000000 wm4.yt_lock.h.9.ec67e8f6d308980d310512269a06d32b
                           .group:00000000 wm4.yt_error.h.38.7d21fcd141776eb0b18825b154fad62e
                           .group:00000000 wm4.chipdef_tiger.h.10.ae557adb3508daebcdc97f8fb0dc9e1a
                           .group:00000000 wm4.phy_chipdef.h.9.9a1a2dbb46f5503e32a84083ab1dbc9f
                           .group:00000000 wm4.cal_bprofile.h.23.d6ecfc2230abc149b4da600a40b20e5b
                           .group:00000000 wm4.bprofile_YT9215_default_demo.h.15.13aa65ba4a73c41dc1ffa3c5f8dcfda3
                           .group:00000000 wm4.cal_cmm.h.46.d022146a9e55e93d62d578a666b2c2f5
                           .group:00000000 wm4.yt_cmm.h.12.5273de39c1b049d4c73c2c31caf670b1
                           .group:00000000 wm4.yt_vlan.h.17.4dbe63e648ff65010c51c5f8a737ac2d
                           .group:00000000 wm4.yt_acl.h.25.ad9531373d966dccc96222e31e0234b5
                           .group:00000000 wm4.yt_nic.h.17.4e5ceed38d9cfbd9b5db2d4b069b6961
                           .group:00000000 wm4.yt_loopdetect.h.17.4739c2e436a8e779d4d8c89037b81aea
                           .group:00000000 wm4.yt_multicast.h.17.9c1d51b153e5e1785468d9c0ad6414a4
                           .group:00000000 wm4.yt_port.h.17.f9740394ebf086646c9c567db1605abb
                           .group:00000000 wm4.yt_stat.h.17.f87caec2ee71e59f920ea3778bda3fad

UNDEFINED SYMBOLS
osal_printf
gpfal_dispatch
yt_debug_level
_yt_errmsg
_yt_prompt_msg
cal_ytportmask_isvalid
gcal_inited
gpSwitchUnit
