   1              		.cpu cortex-m3
   2              		.arch armv7-m
   3              		.fpu softvfp
   4              		.eabi_attribute 20, 1
   5              		.eabi_attribute 21, 1
   6              		.eabi_attribute 23, 3
   7              		.eabi_attribute 24, 1
   8              		.eabi_attribute 25, 1
   9              		.eabi_attribute 26, 1
  10              		.eabi_attribute 30, 1
  11              		.eabi_attribute 34, 1
  12              		.eabi_attribute 18, 4
  13              		.file	"yt_nic.c"
  14              		.text
  15              	.Ltext0:
  16              		.cfi_sections	.debug_frame
  17              		.file 1 "../switch_sdk/core/yt/yt_nic.c"
  18              		.section	.rodata.yt_nic_init.str1.4,"aMS",%progbits,1
  19              		.align	2
  20              	.LC0:
  21 0000 25732573 		.ascii	"%s%s\015\012\000"
  21      0D0A00
  22              		.section	.text.yt_nic_init,"ax",%progbits
  23              		.align	1
  24              		.global	yt_nic_init
  25              		.syntax unified
  26              		.thumb
  27              		.thumb_func
  29              	yt_nic_init:
  30              	.LVL0:
  31              	.LFB3:
   1:../switch_sdk/core/yt/yt_nic.c **** /*******************************************************************************
   2:../switch_sdk/core/yt/yt_nic.c **** *                                                                              *
   3:../switch_sdk/core/yt/yt_nic.c **** *  Copyright (c), 2022, Motorcomm Electronic Technology Co.,Ltd.               *
   4:../switch_sdk/core/yt/yt_nic.c **** *  Motorcomm Confidential and Proprietary.                                     *
   5:../switch_sdk/core/yt/yt_nic.c **** *                                                                              *
   6:../switch_sdk/core/yt/yt_nic.c **** ********************************************************************************
   7:../switch_sdk/core/yt/yt_nic.c **** */
   8:../switch_sdk/core/yt/yt_nic.c **** /**
   9:../switch_sdk/core/yt/yt_nic.c **** ********************************************************************************
  10:../switch_sdk/core/yt/yt_nic.c **** * @file yt_nic.c
  11:../switch_sdk/core/yt/yt_nic.c **** *
  12:../switch_sdk/core/yt/yt_nic.c **** * @brief x
  13:../switch_sdk/core/yt/yt_nic.c **** *
  14:../switch_sdk/core/yt/yt_nic.c **** ********************************************************************************
  15:../switch_sdk/core/yt/yt_nic.c **** */
  16:../switch_sdk/core/yt/yt_nic.c **** #include "yt_nic.h"
  17:../switch_sdk/core/yt/yt_nic.c **** #include "fal_dispatch.h"
  18:../switch_sdk/core/yt/yt_nic.c **** 
  19:../switch_sdk/core/yt/yt_nic.c **** 
  20:../switch_sdk/core/yt/yt_nic.c **** /**
  21:../switch_sdk/core/yt/yt_nic.c ****  * @internal      yt_nic_init
  22:../switch_sdk/core/yt/yt_nic.c ****  * @endinternal
  23:../switch_sdk/core/yt/yt_nic.c ****  *
  24:../switch_sdk/core/yt/yt_nic.c ****  * @brief         Description
  25:../switch_sdk/core/yt/yt_nic.c ****  * @note          APPLICABLE DEVICES  -Tiger
  26:../switch_sdk/core/yt/yt_nic.c ****  * @param[in]     unit                -unit id
  27:../switch_sdk/core/yt/yt_nic.c ****  * @retval        CMM_ERR_OK          -on success
  28:../switch_sdk/core/yt/yt_nic.c ****  * @retval        CMM_ERR_FAIL        -on fail
  29:../switch_sdk/core/yt/yt_nic.c ****  */
  30:../switch_sdk/core/yt/yt_nic.c **** yt_ret_t  yt_nic_init(yt_unit_t unit)
  31:../switch_sdk/core/yt/yt_nic.c **** {
  32              		.loc 1 31 1 view -0
  33              		.cfi_startproc
  34              		@ args = 0, pretend = 0, frame = 0
  35              		@ frame_needed = 0, uses_anonymous_args = 0
  36              		.loc 1 31 1 is_stmt 0 view .LVU1
  37 0000 08B5     		push	{r3, lr}
  38              		.cfi_def_cfa_offset 8
  39              		.cfi_offset 3, -8
  40              		.cfi_offset 14, -4
  32:../switch_sdk/core/yt/yt_nic.c ****     CMM_PARAM_CHK((YT_UNIT_NUM <= unit), CMM_ERR_INPUT);
  41              		.loc 1 32 5 is_stmt 1 view .LVU2
  42              		.loc 1 32 5 view .LVU3
  43 0002 48B9     		cbnz	r0, .L10
  44              		.loc 1 32 5 discriminator 2 view .LVU4
  33:../switch_sdk/core/yt/yt_nic.c ****     CMM_PARAM_CHK(NULL == YT_DISPATCH(unit), CMM_ERR_NOT_INIT);
  45              		.loc 1 33 5 discriminator 2 view .LVU5
  46              		.loc 1 33 5 discriminator 2 view .LVU6
  47 0004 194B     		ldr	r3, .L16
  48 0006 53F82030 		ldr	r3, [r3, r0, lsl #2]
  49 000a 9BB1     		cbz	r3, .L11
  50              		.loc 1 33 5 discriminator 2 view .LVU7
  34:../switch_sdk/core/yt/yt_nic.c ****     CMM_PARAM_CHK((!(YT_DISPATCH(unit)->is_inited)), CMM_ERR_NOT_INIT);
  51              		.loc 1 34 5 discriminator 2 view .LVU8
  52              		.loc 1 34 5 discriminator 2 view .LVU9
  53 000c 1978     		ldrb	r1, [r3]	@ zero_extendqisi2
  54 000e F9B1     		cbz	r1, .L12
  55              		.loc 1 34 5 discriminator 2 view .LVU10
  35:../switch_sdk/core/yt/yt_nic.c **** 
  36:../switch_sdk/core/yt/yt_nic.c ****     return YT_DISPATCH(unit)->nic_init(unit);
  56              		.loc 1 36 5 discriminator 2 view .LVU11
  57              		.loc 1 36 29 is_stmt 0 discriminator 2 view .LVU12
  58 0010 D3F8CC34 		ldr	r3, [r3, #1228]
  59              		.loc 1 36 12 discriminator 2 view .LVU13
  60 0014 9847     		blx	r3
  61              	.LVL1:
  62              	.L1:
  37:../switch_sdk/core/yt/yt_nic.c **** }
  63              		.loc 1 37 1 view .LVU14
  64 0016 08BD     		pop	{r3, pc}
  65              	.LVL2:
  66              	.L10:
  32:../switch_sdk/core/yt/yt_nic.c ****     CMM_PARAM_CHK(NULL == YT_DISPATCH(unit), CMM_ERR_NOT_INIT);
  67              		.loc 1 32 5 is_stmt 1 discriminator 1 view .LVU15
  32:../switch_sdk/core/yt/yt_nic.c ****     CMM_PARAM_CHK(NULL == YT_DISPATCH(unit), CMM_ERR_NOT_INIT);
  68              		.loc 1 32 5 discriminator 1 view .LVU16
  69 0018 154B     		ldr	r3, .L16+4
  70 001a 1B78     		ldrb	r3, [r3]	@ zero_extendqisi2
  71 001c 012B     		cmp	r3, #1
  72 001e 01D8     		bhi	.L13
  73              	.LVL3:
  74              	.L3:
  32:../switch_sdk/core/yt/yt_nic.c ****     CMM_PARAM_CHK(NULL == YT_DISPATCH(unit), CMM_ERR_NOT_INIT);
  75              		.loc 1 32 5 discriminator 5 view .LVU17
  32:../switch_sdk/core/yt/yt_nic.c ****     CMM_PARAM_CHK(NULL == YT_DISPATCH(unit), CMM_ERR_NOT_INIT);
  76              		.loc 1 32 5 discriminator 5 view .LVU18
  32:../switch_sdk/core/yt/yt_nic.c ****     CMM_PARAM_CHK(NULL == YT_DISPATCH(unit), CMM_ERR_NOT_INIT);
  77              		.loc 1 32 5 discriminator 5 view .LVU19
  78 0020 0520     		movs	r0, #5
  79 0022 F8E7     		b	.L1
  80              	.LVL4:
  81              	.L13:
  32:../switch_sdk/core/yt/yt_nic.c ****     CMM_PARAM_CHK(NULL == YT_DISPATCH(unit), CMM_ERR_NOT_INIT);
  82              		.loc 1 32 5 discriminator 3 view .LVU20
  83              	.LBB2:
  32:../switch_sdk/core/yt/yt_nic.c ****     CMM_PARAM_CHK(NULL == YT_DISPATCH(unit), CMM_ERR_NOT_INIT);
  84              		.loc 1 32 5 discriminator 3 view .LVU21
  85 0024 134B     		ldr	r3, .L16+8
  86 0026 5A69     		ldr	r2, [r3, #20]
  87 0028 134B     		ldr	r3, .L16+12
  88 002a 9968     		ldr	r1, [r3, #8]
  89 002c 1348     		ldr	r0, .L16+16
  90              	.LVL5:
  32:../switch_sdk/core/yt/yt_nic.c ****     CMM_PARAM_CHK(NULL == YT_DISPATCH(unit), CMM_ERR_NOT_INIT);
  91              		.loc 1 32 5 is_stmt 0 discriminator 3 view .LVU22
  92 002e FFF7FEFF 		bl	osal_printf
  93              	.LVL6:
  94 0032 F5E7     		b	.L3
  95              	.LVL7:
  96              	.L11:
  32:../switch_sdk/core/yt/yt_nic.c ****     CMM_PARAM_CHK(NULL == YT_DISPATCH(unit), CMM_ERR_NOT_INIT);
  97              		.loc 1 32 5 discriminator 3 view .LVU23
  98              	.LBE2:
  33:../switch_sdk/core/yt/yt_nic.c ****     CMM_PARAM_CHK((!(YT_DISPATCH(unit)->is_inited)), CMM_ERR_NOT_INIT);
  99              		.loc 1 33 5 is_stmt 1 discriminator 1 view .LVU24
  33:../switch_sdk/core/yt/yt_nic.c ****     CMM_PARAM_CHK((!(YT_DISPATCH(unit)->is_inited)), CMM_ERR_NOT_INIT);
 100              		.loc 1 33 5 discriminator 1 view .LVU25
 101 0034 0E4B     		ldr	r3, .L16+4
 102 0036 1B78     		ldrb	r3, [r3]	@ zero_extendqisi2
 103 0038 012B     		cmp	r3, #1
 104 003a 01D8     		bhi	.L14
 105              	.LVL8:
 106              	.L6:
  33:../switch_sdk/core/yt/yt_nic.c ****     CMM_PARAM_CHK((!(YT_DISPATCH(unit)->is_inited)), CMM_ERR_NOT_INIT);
 107              		.loc 1 33 5 discriminator 5 view .LVU26
  33:../switch_sdk/core/yt/yt_nic.c ****     CMM_PARAM_CHK((!(YT_DISPATCH(unit)->is_inited)), CMM_ERR_NOT_INIT);
 108              		.loc 1 33 5 discriminator 5 view .LVU27
  33:../switch_sdk/core/yt/yt_nic.c ****     CMM_PARAM_CHK((!(YT_DISPATCH(unit)->is_inited)), CMM_ERR_NOT_INIT);
 109              		.loc 1 33 5 discriminator 5 view .LVU28
 110 003c 0420     		movs	r0, #4
 111 003e EAE7     		b	.L1
 112              	.LVL9:
 113              	.L14:
  33:../switch_sdk/core/yt/yt_nic.c ****     CMM_PARAM_CHK((!(YT_DISPATCH(unit)->is_inited)), CMM_ERR_NOT_INIT);
 114              		.loc 1 33 5 discriminator 3 view .LVU29
 115              	.LBB3:
  33:../switch_sdk/core/yt/yt_nic.c ****     CMM_PARAM_CHK((!(YT_DISPATCH(unit)->is_inited)), CMM_ERR_NOT_INIT);
 116              		.loc 1 33 5 discriminator 3 view .LVU30
 117 0040 0C4B     		ldr	r3, .L16+8
 118 0042 1A69     		ldr	r2, [r3, #16]
 119 0044 0C4B     		ldr	r3, .L16+12
 120 0046 9968     		ldr	r1, [r3, #8]
 121 0048 0C48     		ldr	r0, .L16+16
 122              	.LVL10:
  33:../switch_sdk/core/yt/yt_nic.c ****     CMM_PARAM_CHK((!(YT_DISPATCH(unit)->is_inited)), CMM_ERR_NOT_INIT);
 123              		.loc 1 33 5 is_stmt 0 discriminator 3 view .LVU31
 124 004a FFF7FEFF 		bl	osal_printf
 125              	.LVL11:
 126 004e F5E7     		b	.L6
 127              	.LVL12:
 128              	.L12:
  33:../switch_sdk/core/yt/yt_nic.c ****     CMM_PARAM_CHK((!(YT_DISPATCH(unit)->is_inited)), CMM_ERR_NOT_INIT);
 129              		.loc 1 33 5 discriminator 3 view .LVU32
 130              	.LBE3:
  34:../switch_sdk/core/yt/yt_nic.c **** 
 131              		.loc 1 34 5 is_stmt 1 discriminator 1 view .LVU33
  34:../switch_sdk/core/yt/yt_nic.c **** 
 132              		.loc 1 34 5 discriminator 1 view .LVU34
 133 0050 074B     		ldr	r3, .L16+4
 134 0052 1B78     		ldrb	r3, [r3]	@ zero_extendqisi2
 135 0054 012B     		cmp	r3, #1
 136 0056 01D8     		bhi	.L15
 137              	.LVL13:
 138              	.L8:
  34:../switch_sdk/core/yt/yt_nic.c **** 
 139              		.loc 1 34 5 discriminator 5 view .LVU35
  34:../switch_sdk/core/yt/yt_nic.c **** 
 140              		.loc 1 34 5 discriminator 5 view .LVU36
  34:../switch_sdk/core/yt/yt_nic.c **** 
 141              		.loc 1 34 5 discriminator 5 view .LVU37
 142 0058 0420     		movs	r0, #4
 143 005a DCE7     		b	.L1
 144              	.LVL14:
 145              	.L15:
  34:../switch_sdk/core/yt/yt_nic.c **** 
 146              		.loc 1 34 5 discriminator 3 view .LVU38
 147              	.LBB4:
  34:../switch_sdk/core/yt/yt_nic.c **** 
 148              		.loc 1 34 5 discriminator 3 view .LVU39
 149 005c 054B     		ldr	r3, .L16+8
 150 005e 1A69     		ldr	r2, [r3, #16]
 151 0060 054B     		ldr	r3, .L16+12
 152 0062 9968     		ldr	r1, [r3, #8]
 153 0064 0548     		ldr	r0, .L16+16
 154              	.LVL15:
  34:../switch_sdk/core/yt/yt_nic.c **** 
 155              		.loc 1 34 5 is_stmt 0 discriminator 3 view .LVU40
 156 0066 FFF7FEFF 		bl	osal_printf
 157              	.LVL16:
 158 006a F5E7     		b	.L8
 159              	.L17:
 160              		.align	2
 161              	.L16:
 162 006c 00000000 		.word	gpfal_dispatch
 163 0070 00000000 		.word	yt_debug_level
 164 0074 00000000 		.word	_yt_errmsg
 165 0078 00000000 		.word	_yt_prompt_msg
 166 007c 00000000 		.word	.LC0
 167              	.LBE4:
 168              		.cfi_endproc
 169              	.LFE3:
 171              		.section	.text.yt_nic_cpuport_mode_set,"ax",%progbits
 172              		.align	1
 173              		.global	yt_nic_cpuport_mode_set
 174              		.syntax unified
 175              		.thumb
 176              		.thumb_func
 178              	yt_nic_cpuport_mode_set:
 179              	.LVL17:
 180              	.LFB4:
  38:../switch_sdk/core/yt/yt_nic.c **** 
  39:../switch_sdk/core/yt/yt_nic.c **** /**
  40:../switch_sdk/core/yt/yt_nic.c ****  * @internal      yt_nic_cpuport_mode_set
  41:../switch_sdk/core/yt/yt_nic.c ****  * @endinternal
  42:../switch_sdk/core/yt/yt_nic.c ****  *
  43:../switch_sdk/core/yt/yt_nic.c ****  * @brief         Select internal or external cpu port
  44:../switch_sdk/core/yt/yt_nic.c ****  * @param[in]     unit                -unit id
  45:../switch_sdk/core/yt/yt_nic.c ****  * @param[in]     mode                -internal or external cpu port
  46:../switch_sdk/core/yt/yt_nic.c ****  * @retval        CMM_ERR_OK          -on success
  47:../switch_sdk/core/yt/yt_nic.c ****  * @retval        CMM_ERR_FAIL        -on fail
  48:../switch_sdk/core/yt/yt_nic.c ****  */
  49:../switch_sdk/core/yt/yt_nic.c **** yt_ret_t  yt_nic_cpuport_mode_set(yt_unit_t unit, yt_cpuport_mode_t mode)
  50:../switch_sdk/core/yt/yt_nic.c **** {
 181              		.loc 1 50 1 is_stmt 1 view -0
 182              		.cfi_startproc
 183              		@ args = 0, pretend = 0, frame = 0
 184              		@ frame_needed = 0, uses_anonymous_args = 0
 185              		.loc 1 50 1 is_stmt 0 view .LVU42
 186 0000 08B5     		push	{r3, lr}
 187              		.cfi_def_cfa_offset 8
 188              		.cfi_offset 3, -8
 189              		.cfi_offset 14, -4
  51:../switch_sdk/core/yt/yt_nic.c ****     CMM_PARAM_CHK((YT_UNIT_NUM <= unit), CMM_ERR_INPUT);
 190              		.loc 1 51 5 is_stmt 1 view .LVU43
 191              		.loc 1 51 5 view .LVU44
 192 0002 58B9     		cbnz	r0, .L27
 193 0004 0246     		mov	r2, r0
 194              		.loc 1 51 5 discriminator 2 view .LVU45
  52:../switch_sdk/core/yt/yt_nic.c ****     CMM_PARAM_CHK(NULL == YT_DISPATCH(unit), CMM_ERR_NOT_INIT);
 195              		.loc 1 52 5 discriminator 2 view .LVU46
 196              		.loc 1 52 5 discriminator 2 view .LVU47
 197 0006 1A4B     		ldr	r3, .L33
 198 0008 53F82030 		ldr	r3, [r3, r0, lsl #2]
 199 000c A3B1     		cbz	r3, .L28
 200              		.loc 1 52 5 discriminator 2 view .LVU48
  53:../switch_sdk/core/yt/yt_nic.c ****     CMM_PARAM_CHK((!(YT_DISPATCH(unit)->is_inited)), CMM_ERR_NOT_INIT);
 201              		.loc 1 53 5 discriminator 2 view .LVU49
 202              		.loc 1 53 5 discriminator 2 view .LVU50
 203 000e 1878     		ldrb	r0, [r3]	@ zero_extendqisi2
 204              	.LVL18:
 205              		.loc 1 53 5 is_stmt 0 discriminator 2 view .LVU51
 206 0010 00B3     		cbz	r0, .L29
 207              		.loc 1 53 5 is_stmt 1 discriminator 2 view .LVU52
  54:../switch_sdk/core/yt/yt_nic.c **** 
  55:../switch_sdk/core/yt/yt_nic.c ****     return YT_DISPATCH(unit)->nic_cpuport_mode_set(unit, mode);
 208              		.loc 1 55 5 discriminator 2 view .LVU53
 209              		.loc 1 55 29 is_stmt 0 discriminator 2 view .LVU54
 210 0012 D3F8D034 		ldr	r3, [r3, #1232]
 211              		.loc 1 55 12 discriminator 2 view .LVU55
 212 0016 1046     		mov	r0, r2
 213 0018 9847     		blx	r3
 214              	.LVL19:
 215              	.L18:
  56:../switch_sdk/core/yt/yt_nic.c **** }
 216              		.loc 1 56 1 view .LVU56
 217 001a 08BD     		pop	{r3, pc}
 218              	.LVL20:
 219              	.L27:
  51:../switch_sdk/core/yt/yt_nic.c ****     CMM_PARAM_CHK(NULL == YT_DISPATCH(unit), CMM_ERR_NOT_INIT);
 220              		.loc 1 51 5 is_stmt 1 discriminator 1 view .LVU57
  51:../switch_sdk/core/yt/yt_nic.c ****     CMM_PARAM_CHK(NULL == YT_DISPATCH(unit), CMM_ERR_NOT_INIT);
 221              		.loc 1 51 5 discriminator 1 view .LVU58
 222 001c 154B     		ldr	r3, .L33+4
 223 001e 1B78     		ldrb	r3, [r3]	@ zero_extendqisi2
 224 0020 012B     		cmp	r3, #1
 225 0022 01D8     		bhi	.L30
 226              	.LVL21:
 227              	.L20:
  51:../switch_sdk/core/yt/yt_nic.c ****     CMM_PARAM_CHK(NULL == YT_DISPATCH(unit), CMM_ERR_NOT_INIT);
 228              		.loc 1 51 5 discriminator 5 view .LVU59
  51:../switch_sdk/core/yt/yt_nic.c ****     CMM_PARAM_CHK(NULL == YT_DISPATCH(unit), CMM_ERR_NOT_INIT);
 229              		.loc 1 51 5 discriminator 5 view .LVU60
  51:../switch_sdk/core/yt/yt_nic.c ****     CMM_PARAM_CHK(NULL == YT_DISPATCH(unit), CMM_ERR_NOT_INIT);
 230              		.loc 1 51 5 discriminator 5 view .LVU61
 231 0024 0520     		movs	r0, #5
 232 0026 F8E7     		b	.L18
 233              	.LVL22:
 234              	.L30:
  51:../switch_sdk/core/yt/yt_nic.c ****     CMM_PARAM_CHK(NULL == YT_DISPATCH(unit), CMM_ERR_NOT_INIT);
 235              		.loc 1 51 5 discriminator 3 view .LVU62
 236              	.LBB5:
  51:../switch_sdk/core/yt/yt_nic.c ****     CMM_PARAM_CHK(NULL == YT_DISPATCH(unit), CMM_ERR_NOT_INIT);
 237              		.loc 1 51 5 discriminator 3 view .LVU63
 238 0028 134B     		ldr	r3, .L33+8
 239 002a 5A69     		ldr	r2, [r3, #20]
 240 002c 134B     		ldr	r3, .L33+12
 241 002e 9968     		ldr	r1, [r3, #8]
 242              	.LVL23:
  51:../switch_sdk/core/yt/yt_nic.c ****     CMM_PARAM_CHK(NULL == YT_DISPATCH(unit), CMM_ERR_NOT_INIT);
 243              		.loc 1 51 5 is_stmt 0 discriminator 3 view .LVU64
 244 0030 1348     		ldr	r0, .L33+16
 245              	.LVL24:
  51:../switch_sdk/core/yt/yt_nic.c ****     CMM_PARAM_CHK(NULL == YT_DISPATCH(unit), CMM_ERR_NOT_INIT);
 246              		.loc 1 51 5 discriminator 3 view .LVU65
 247 0032 FFF7FEFF 		bl	osal_printf
 248              	.LVL25:
 249 0036 F5E7     		b	.L20
 250              	.LVL26:
 251              	.L28:
  51:../switch_sdk/core/yt/yt_nic.c ****     CMM_PARAM_CHK(NULL == YT_DISPATCH(unit), CMM_ERR_NOT_INIT);
 252              		.loc 1 51 5 discriminator 3 view .LVU66
 253              	.LBE5:
  52:../switch_sdk/core/yt/yt_nic.c ****     CMM_PARAM_CHK((!(YT_DISPATCH(unit)->is_inited)), CMM_ERR_NOT_INIT);
 254              		.loc 1 52 5 is_stmt 1 discriminator 1 view .LVU67
  52:../switch_sdk/core/yt/yt_nic.c ****     CMM_PARAM_CHK((!(YT_DISPATCH(unit)->is_inited)), CMM_ERR_NOT_INIT);
 255              		.loc 1 52 5 discriminator 1 view .LVU68
 256 0038 0E4B     		ldr	r3, .L33+4
 257 003a 1B78     		ldrb	r3, [r3]	@ zero_extendqisi2
 258 003c 012B     		cmp	r3, #1
 259 003e 01D8     		bhi	.L31
 260              	.LVL27:
 261              	.L23:
  52:../switch_sdk/core/yt/yt_nic.c ****     CMM_PARAM_CHK((!(YT_DISPATCH(unit)->is_inited)), CMM_ERR_NOT_INIT);
 262              		.loc 1 52 5 discriminator 5 view .LVU69
  52:../switch_sdk/core/yt/yt_nic.c ****     CMM_PARAM_CHK((!(YT_DISPATCH(unit)->is_inited)), CMM_ERR_NOT_INIT);
 263              		.loc 1 52 5 discriminator 5 view .LVU70
  52:../switch_sdk/core/yt/yt_nic.c ****     CMM_PARAM_CHK((!(YT_DISPATCH(unit)->is_inited)), CMM_ERR_NOT_INIT);
 264              		.loc 1 52 5 discriminator 5 view .LVU71
 265 0040 0420     		movs	r0, #4
 266 0042 EAE7     		b	.L18
 267              	.LVL28:
 268              	.L31:
  52:../switch_sdk/core/yt/yt_nic.c ****     CMM_PARAM_CHK((!(YT_DISPATCH(unit)->is_inited)), CMM_ERR_NOT_INIT);
 269              		.loc 1 52 5 discriminator 3 view .LVU72
 270              	.LBB6:
  52:../switch_sdk/core/yt/yt_nic.c ****     CMM_PARAM_CHK((!(YT_DISPATCH(unit)->is_inited)), CMM_ERR_NOT_INIT);
 271              		.loc 1 52 5 discriminator 3 view .LVU73
 272 0044 0C4B     		ldr	r3, .L33+8
 273 0046 1A69     		ldr	r2, [r3, #16]
 274 0048 0C4B     		ldr	r3, .L33+12
 275 004a 9968     		ldr	r1, [r3, #8]
 276              	.LVL29:
  52:../switch_sdk/core/yt/yt_nic.c ****     CMM_PARAM_CHK((!(YT_DISPATCH(unit)->is_inited)), CMM_ERR_NOT_INIT);
 277              		.loc 1 52 5 is_stmt 0 discriminator 3 view .LVU74
 278 004c 0C48     		ldr	r0, .L33+16
 279              	.LVL30:
  52:../switch_sdk/core/yt/yt_nic.c ****     CMM_PARAM_CHK((!(YT_DISPATCH(unit)->is_inited)), CMM_ERR_NOT_INIT);
 280              		.loc 1 52 5 discriminator 3 view .LVU75
 281 004e FFF7FEFF 		bl	osal_printf
 282              	.LVL31:
 283 0052 F5E7     		b	.L23
 284              	.LVL32:
 285              	.L29:
  52:../switch_sdk/core/yt/yt_nic.c ****     CMM_PARAM_CHK((!(YT_DISPATCH(unit)->is_inited)), CMM_ERR_NOT_INIT);
 286              		.loc 1 52 5 discriminator 3 view .LVU76
 287              	.LBE6:
  53:../switch_sdk/core/yt/yt_nic.c **** 
 288              		.loc 1 53 5 is_stmt 1 discriminator 1 view .LVU77
  53:../switch_sdk/core/yt/yt_nic.c **** 
 289              		.loc 1 53 5 discriminator 1 view .LVU78
 290 0054 074B     		ldr	r3, .L33+4
 291 0056 1B78     		ldrb	r3, [r3]	@ zero_extendqisi2
 292 0058 012B     		cmp	r3, #1
 293 005a 01D8     		bhi	.L32
 294              	.LVL33:
 295              	.L25:
  53:../switch_sdk/core/yt/yt_nic.c **** 
 296              		.loc 1 53 5 discriminator 5 view .LVU79
  53:../switch_sdk/core/yt/yt_nic.c **** 
 297              		.loc 1 53 5 discriminator 5 view .LVU80
  53:../switch_sdk/core/yt/yt_nic.c **** 
 298              		.loc 1 53 5 discriminator 5 view .LVU81
 299 005c 0420     		movs	r0, #4
 300 005e DCE7     		b	.L18
 301              	.LVL34:
 302              	.L32:
  53:../switch_sdk/core/yt/yt_nic.c **** 
 303              		.loc 1 53 5 discriminator 3 view .LVU82
 304              	.LBB7:
  53:../switch_sdk/core/yt/yt_nic.c **** 
 305              		.loc 1 53 5 discriminator 3 view .LVU83
 306 0060 054B     		ldr	r3, .L33+8
 307 0062 1A69     		ldr	r2, [r3, #16]
 308 0064 054B     		ldr	r3, .L33+12
 309 0066 9968     		ldr	r1, [r3, #8]
 310              	.LVL35:
  53:../switch_sdk/core/yt/yt_nic.c **** 
 311              		.loc 1 53 5 is_stmt 0 discriminator 3 view .LVU84
 312 0068 0548     		ldr	r0, .L33+16
 313 006a FFF7FEFF 		bl	osal_printf
 314              	.LVL36:
 315 006e F5E7     		b	.L25
 316              	.L34:
 317              		.align	2
 318              	.L33:
 319 0070 00000000 		.word	gpfal_dispatch
 320 0074 00000000 		.word	yt_debug_level
 321 0078 00000000 		.word	_yt_errmsg
 322 007c 00000000 		.word	_yt_prompt_msg
 323 0080 00000000 		.word	.LC0
 324              	.LBE7:
 325              		.cfi_endproc
 326              	.LFE4:
 328              		.section	.text.yt_nic_cpuport_mode_get,"ax",%progbits
 329              		.align	1
 330              		.global	yt_nic_cpuport_mode_get
 331              		.syntax unified
 332              		.thumb
 333              		.thumb_func
 335              	yt_nic_cpuport_mode_get:
 336              	.LVL37:
 337              	.LFB5:
  57:../switch_sdk/core/yt/yt_nic.c **** 
  58:../switch_sdk/core/yt/yt_nic.c **** /**
  59:../switch_sdk/core/yt/yt_nic.c ****  * @internal      yt_nic_cpuport_mode_get
  60:../switch_sdk/core/yt/yt_nic.c ****  * @endinternal
  61:../switch_sdk/core/yt/yt_nic.c ****  *
  62:../switch_sdk/core/yt/yt_nic.c ****  * @brief         get cpu port mode setting
  63:../switch_sdk/core/yt/yt_nic.c ****  * @param[in]     unit                -unit id
  64:../switch_sdk/core/yt/yt_nic.c ****  * @param[out]    pmode               -internal or external cpu port
  65:../switch_sdk/core/yt/yt_nic.c ****  * @retval        CMM_ERR_OK          -on success
  66:../switch_sdk/core/yt/yt_nic.c ****  * @retval        CMM_ERR_FAIL        -on fail
  67:../switch_sdk/core/yt/yt_nic.c ****  */
  68:../switch_sdk/core/yt/yt_nic.c **** yt_ret_t  yt_nic_cpuport_mode_get(yt_unit_t unit, yt_cpuport_mode_t *pMode)
  69:../switch_sdk/core/yt/yt_nic.c **** {
 338              		.loc 1 69 1 is_stmt 1 view -0
 339              		.cfi_startproc
 340              		@ args = 0, pretend = 0, frame = 0
 341              		@ frame_needed = 0, uses_anonymous_args = 0
 342              		.loc 1 69 1 is_stmt 0 view .LVU86
 343 0000 08B5     		push	{r3, lr}
 344              		.cfi_def_cfa_offset 8
 345              		.cfi_offset 3, -8
 346              		.cfi_offset 14, -4
  70:../switch_sdk/core/yt/yt_nic.c ****     CMM_PARAM_CHK((YT_UNIT_NUM <= unit), CMM_ERR_INPUT);
 347              		.loc 1 70 5 is_stmt 1 view .LVU87
 348              		.loc 1 70 5 view .LVU88
 349 0002 68B9     		cbnz	r0, .L46
 350 0004 0246     		mov	r2, r0
 351              		.loc 1 70 5 discriminator 2 view .LVU89
  71:../switch_sdk/core/yt/yt_nic.c ****     CMM_PARAM_CHK(NULL == YT_DISPATCH(unit), CMM_ERR_NOT_INIT);
 352              		.loc 1 71 5 discriminator 2 view .LVU90
 353              		.loc 1 71 5 discriminator 2 view .LVU91
 354 0006 224B     		ldr	r3, .L54
 355 0008 53F82030 		ldr	r3, [r3, r0, lsl #2]
 356 000c B3B1     		cbz	r3, .L47
 357              		.loc 1 71 5 discriminator 2 view .LVU92
  72:../switch_sdk/core/yt/yt_nic.c ****     CMM_PARAM_CHK((!(YT_DISPATCH(unit)->is_inited)), CMM_ERR_NOT_INIT);
 358              		.loc 1 72 5 discriminator 2 view .LVU93
 359              		.loc 1 72 5 discriminator 2 view .LVU94
 360 000e 1878     		ldrb	r0, [r3]	@ zero_extendqisi2
 361              	.LVL38:
 362              		.loc 1 72 5 is_stmt 0 discriminator 2 view .LVU95
 363 0010 10B3     		cbz	r0, .L48
 364              		.loc 1 72 5 is_stmt 1 discriminator 2 view .LVU96
  73:../switch_sdk/core/yt/yt_nic.c ****     CMM_PARAM_CHK((NULL == pMode), CMM_ERR_NULL_POINT);
 365              		.loc 1 73 5 discriminator 2 view .LVU97
 366              		.loc 1 73 5 discriminator 2 view .LVU98
 367 0012 0029     		cmp	r1, #0
 368 0014 2ED0     		beq	.L49
 369              		.loc 1 73 5 discriminator 2 view .LVU99
  74:../switch_sdk/core/yt/yt_nic.c **** 
  75:../switch_sdk/core/yt/yt_nic.c ****     return YT_DISPATCH(unit)->nic_cpuport_mode_get(unit, pMode);
 370              		.loc 1 75 5 discriminator 2 view .LVU100
 371              		.loc 1 75 29 is_stmt 0 discriminator 2 view .LVU101
 372 0016 D3F8D434 		ldr	r3, [r3, #1236]
 373              		.loc 1 75 12 discriminator 2 view .LVU102
 374 001a 1046     		mov	r0, r2
 375 001c 9847     		blx	r3
 376              	.LVL39:
 377              	.L35:
  76:../switch_sdk/core/yt/yt_nic.c **** }
 378              		.loc 1 76 1 view .LVU103
 379 001e 08BD     		pop	{r3, pc}
 380              	.LVL40:
 381              	.L46:
  70:../switch_sdk/core/yt/yt_nic.c ****     CMM_PARAM_CHK(NULL == YT_DISPATCH(unit), CMM_ERR_NOT_INIT);
 382              		.loc 1 70 5 is_stmt 1 discriminator 1 view .LVU104
  70:../switch_sdk/core/yt/yt_nic.c ****     CMM_PARAM_CHK(NULL == YT_DISPATCH(unit), CMM_ERR_NOT_INIT);
 383              		.loc 1 70 5 discriminator 1 view .LVU105
 384 0020 1C4B     		ldr	r3, .L54+4
 385 0022 1B78     		ldrb	r3, [r3]	@ zero_extendqisi2
 386 0024 012B     		cmp	r3, #1
 387 0026 01D8     		bhi	.L50
 388              	.LVL41:
 389              	.L37:
  70:../switch_sdk/core/yt/yt_nic.c ****     CMM_PARAM_CHK(NULL == YT_DISPATCH(unit), CMM_ERR_NOT_INIT);
 390              		.loc 1 70 5 discriminator 5 view .LVU106
  70:../switch_sdk/core/yt/yt_nic.c ****     CMM_PARAM_CHK(NULL == YT_DISPATCH(unit), CMM_ERR_NOT_INIT);
 391              		.loc 1 70 5 discriminator 5 view .LVU107
  70:../switch_sdk/core/yt/yt_nic.c ****     CMM_PARAM_CHK(NULL == YT_DISPATCH(unit), CMM_ERR_NOT_INIT);
 392              		.loc 1 70 5 discriminator 5 view .LVU108
 393 0028 0520     		movs	r0, #5
 394 002a F8E7     		b	.L35
 395              	.LVL42:
 396              	.L50:
  70:../switch_sdk/core/yt/yt_nic.c ****     CMM_PARAM_CHK(NULL == YT_DISPATCH(unit), CMM_ERR_NOT_INIT);
 397              		.loc 1 70 5 discriminator 3 view .LVU109
 398              	.LBB8:
  70:../switch_sdk/core/yt/yt_nic.c ****     CMM_PARAM_CHK(NULL == YT_DISPATCH(unit), CMM_ERR_NOT_INIT);
 399              		.loc 1 70 5 discriminator 3 view .LVU110
 400 002c 1A4B     		ldr	r3, .L54+8
 401 002e 5A69     		ldr	r2, [r3, #20]
 402 0030 1A4B     		ldr	r3, .L54+12
 403 0032 9968     		ldr	r1, [r3, #8]
 404              	.LVL43:
  70:../switch_sdk/core/yt/yt_nic.c ****     CMM_PARAM_CHK(NULL == YT_DISPATCH(unit), CMM_ERR_NOT_INIT);
 405              		.loc 1 70 5 is_stmt 0 discriminator 3 view .LVU111
 406 0034 1A48     		ldr	r0, .L54+16
 407              	.LVL44:
  70:../switch_sdk/core/yt/yt_nic.c ****     CMM_PARAM_CHK(NULL == YT_DISPATCH(unit), CMM_ERR_NOT_INIT);
 408              		.loc 1 70 5 discriminator 3 view .LVU112
 409 0036 FFF7FEFF 		bl	osal_printf
 410              	.LVL45:
 411 003a F5E7     		b	.L37
 412              	.LVL46:
 413              	.L47:
  70:../switch_sdk/core/yt/yt_nic.c ****     CMM_PARAM_CHK(NULL == YT_DISPATCH(unit), CMM_ERR_NOT_INIT);
 414              		.loc 1 70 5 discriminator 3 view .LVU113
 415              	.LBE8:
  71:../switch_sdk/core/yt/yt_nic.c ****     CMM_PARAM_CHK((!(YT_DISPATCH(unit)->is_inited)), CMM_ERR_NOT_INIT);
 416              		.loc 1 71 5 is_stmt 1 discriminator 1 view .LVU114
  71:../switch_sdk/core/yt/yt_nic.c ****     CMM_PARAM_CHK((!(YT_DISPATCH(unit)->is_inited)), CMM_ERR_NOT_INIT);
 417              		.loc 1 71 5 discriminator 1 view .LVU115
 418 003c 154B     		ldr	r3, .L54+4
 419 003e 1B78     		ldrb	r3, [r3]	@ zero_extendqisi2
 420 0040 012B     		cmp	r3, #1
 421 0042 01D8     		bhi	.L51
 422              	.LVL47:
 423              	.L40:
  71:../switch_sdk/core/yt/yt_nic.c ****     CMM_PARAM_CHK((!(YT_DISPATCH(unit)->is_inited)), CMM_ERR_NOT_INIT);
 424              		.loc 1 71 5 discriminator 5 view .LVU116
  71:../switch_sdk/core/yt/yt_nic.c ****     CMM_PARAM_CHK((!(YT_DISPATCH(unit)->is_inited)), CMM_ERR_NOT_INIT);
 425              		.loc 1 71 5 discriminator 5 view .LVU117
  71:../switch_sdk/core/yt/yt_nic.c ****     CMM_PARAM_CHK((!(YT_DISPATCH(unit)->is_inited)), CMM_ERR_NOT_INIT);
 426              		.loc 1 71 5 discriminator 5 view .LVU118
 427 0044 0420     		movs	r0, #4
 428 0046 EAE7     		b	.L35
 429              	.LVL48:
 430              	.L51:
  71:../switch_sdk/core/yt/yt_nic.c ****     CMM_PARAM_CHK((!(YT_DISPATCH(unit)->is_inited)), CMM_ERR_NOT_INIT);
 431              		.loc 1 71 5 discriminator 3 view .LVU119
 432              	.LBB9:
  71:../switch_sdk/core/yt/yt_nic.c ****     CMM_PARAM_CHK((!(YT_DISPATCH(unit)->is_inited)), CMM_ERR_NOT_INIT);
 433              		.loc 1 71 5 discriminator 3 view .LVU120
 434 0048 134B     		ldr	r3, .L54+8
 435 004a 1A69     		ldr	r2, [r3, #16]
 436 004c 134B     		ldr	r3, .L54+12
 437 004e 9968     		ldr	r1, [r3, #8]
 438              	.LVL49:
  71:../switch_sdk/core/yt/yt_nic.c ****     CMM_PARAM_CHK((!(YT_DISPATCH(unit)->is_inited)), CMM_ERR_NOT_INIT);
 439              		.loc 1 71 5 is_stmt 0 discriminator 3 view .LVU121
 440 0050 1348     		ldr	r0, .L54+16
 441              	.LVL50:
  71:../switch_sdk/core/yt/yt_nic.c ****     CMM_PARAM_CHK((!(YT_DISPATCH(unit)->is_inited)), CMM_ERR_NOT_INIT);
 442              		.loc 1 71 5 discriminator 3 view .LVU122
 443 0052 FFF7FEFF 		bl	osal_printf
 444              	.LVL51:
 445 0056 F5E7     		b	.L40
 446              	.LVL52:
 447              	.L48:
  71:../switch_sdk/core/yt/yt_nic.c ****     CMM_PARAM_CHK((!(YT_DISPATCH(unit)->is_inited)), CMM_ERR_NOT_INIT);
 448              		.loc 1 71 5 discriminator 3 view .LVU123
 449              	.LBE9:
  72:../switch_sdk/core/yt/yt_nic.c ****     CMM_PARAM_CHK((NULL == pMode), CMM_ERR_NULL_POINT);
 450              		.loc 1 72 5 is_stmt 1 discriminator 1 view .LVU124
  72:../switch_sdk/core/yt/yt_nic.c ****     CMM_PARAM_CHK((NULL == pMode), CMM_ERR_NULL_POINT);
 451              		.loc 1 72 5 discriminator 1 view .LVU125
 452 0058 0E4B     		ldr	r3, .L54+4
 453 005a 1B78     		ldrb	r3, [r3]	@ zero_extendqisi2
 454 005c 012B     		cmp	r3, #1
 455 005e 01D8     		bhi	.L52
 456              	.LVL53:
 457              	.L42:
  72:../switch_sdk/core/yt/yt_nic.c ****     CMM_PARAM_CHK((NULL == pMode), CMM_ERR_NULL_POINT);
 458              		.loc 1 72 5 discriminator 5 view .LVU126
  72:../switch_sdk/core/yt/yt_nic.c ****     CMM_PARAM_CHK((NULL == pMode), CMM_ERR_NULL_POINT);
 459              		.loc 1 72 5 discriminator 5 view .LVU127
  72:../switch_sdk/core/yt/yt_nic.c ****     CMM_PARAM_CHK((NULL == pMode), CMM_ERR_NULL_POINT);
 460              		.loc 1 72 5 discriminator 5 view .LVU128
 461 0060 0420     		movs	r0, #4
 462 0062 DCE7     		b	.L35
 463              	.LVL54:
 464              	.L52:
  72:../switch_sdk/core/yt/yt_nic.c ****     CMM_PARAM_CHK((NULL == pMode), CMM_ERR_NULL_POINT);
 465              		.loc 1 72 5 discriminator 3 view .LVU129
 466              	.LBB10:
  72:../switch_sdk/core/yt/yt_nic.c ****     CMM_PARAM_CHK((NULL == pMode), CMM_ERR_NULL_POINT);
 467              		.loc 1 72 5 discriminator 3 view .LVU130
 468 0064 0C4B     		ldr	r3, .L54+8
 469 0066 1A69     		ldr	r2, [r3, #16]
 470 0068 0C4B     		ldr	r3, .L54+12
 471 006a 9968     		ldr	r1, [r3, #8]
 472              	.LVL55:
  72:../switch_sdk/core/yt/yt_nic.c ****     CMM_PARAM_CHK((NULL == pMode), CMM_ERR_NULL_POINT);
 473              		.loc 1 72 5 is_stmt 0 discriminator 3 view .LVU131
 474 006c 0C48     		ldr	r0, .L54+16
 475 006e FFF7FEFF 		bl	osal_printf
 476              	.LVL56:
 477 0072 F5E7     		b	.L42
 478              	.LVL57:
 479              	.L49:
  72:../switch_sdk/core/yt/yt_nic.c ****     CMM_PARAM_CHK((NULL == pMode), CMM_ERR_NULL_POINT);
 480              		.loc 1 72 5 discriminator 3 view .LVU132
 481              	.LBE10:
  73:../switch_sdk/core/yt/yt_nic.c **** 
 482              		.loc 1 73 5 is_stmt 1 discriminator 1 view .LVU133
  73:../switch_sdk/core/yt/yt_nic.c **** 
 483              		.loc 1 73 5 discriminator 1 view .LVU134
 484 0074 074B     		ldr	r3, .L54+4
 485 0076 1B78     		ldrb	r3, [r3]	@ zero_extendqisi2
 486 0078 012B     		cmp	r3, #1
 487 007a 01D8     		bhi	.L53
 488              	.LVL58:
 489              	.L44:
  73:../switch_sdk/core/yt/yt_nic.c **** 
 490              		.loc 1 73 5 discriminator 5 view .LVU135
  73:../switch_sdk/core/yt/yt_nic.c **** 
 491              		.loc 1 73 5 discriminator 5 view .LVU136
  73:../switch_sdk/core/yt/yt_nic.c **** 
 492              		.loc 1 73 5 discriminator 5 view .LVU137
 493 007c 0220     		movs	r0, #2
 494 007e CEE7     		b	.L35
 495              	.LVL59:
 496              	.L53:
  73:../switch_sdk/core/yt/yt_nic.c **** 
 497              		.loc 1 73 5 discriminator 3 view .LVU138
 498              	.LBB11:
  73:../switch_sdk/core/yt/yt_nic.c **** 
 499              		.loc 1 73 5 discriminator 3 view .LVU139
 500 0080 054B     		ldr	r3, .L54+8
 501 0082 9A68     		ldr	r2, [r3, #8]
 502 0084 054B     		ldr	r3, .L54+12
 503 0086 9968     		ldr	r1, [r3, #8]
 504              	.LVL60:
  73:../switch_sdk/core/yt/yt_nic.c **** 
 505              		.loc 1 73 5 is_stmt 0 discriminator 3 view .LVU140
 506 0088 0548     		ldr	r0, .L54+16
 507 008a FFF7FEFF 		bl	osal_printf
 508              	.LVL61:
 509 008e F5E7     		b	.L44
 510              	.L55:
 511              		.align	2
 512              	.L54:
 513 0090 00000000 		.word	gpfal_dispatch
 514 0094 00000000 		.word	yt_debug_level
 515 0098 00000000 		.word	_yt_errmsg
 516 009c 00000000 		.word	_yt_prompt_msg
 517 00a0 00000000 		.word	.LC0
 518              	.LBE11:
 519              		.cfi_endproc
 520              	.LFE5:
 522              		.section	.text.yt_nic_ext_cpuport_en_set,"ax",%progbits
 523              		.align	1
 524              		.global	yt_nic_ext_cpuport_en_set
 525              		.syntax unified
 526              		.thumb
 527              		.thumb_func
 529              	yt_nic_ext_cpuport_en_set:
 530              	.LVL62:
 531              	.LFB6:
  77:../switch_sdk/core/yt/yt_nic.c **** 
  78:../switch_sdk/core/yt/yt_nic.c **** /**
  79:../switch_sdk/core/yt/yt_nic.c ****  * @internal      yt_nic_ext_cpuport_en_set
  80:../switch_sdk/core/yt/yt_nic.c ****  * @endinternal
  81:../switch_sdk/core/yt/yt_nic.c ****  *
  82:../switch_sdk/core/yt/yt_nic.c ****  * @brief         Description
  83:../switch_sdk/core/yt/yt_nic.c ****  * @param[in]     unit                -unit id
  84:../switch_sdk/core/yt/yt_nic.c ****  * @param[in]     enable              -enable or disable
  85:../switch_sdk/core/yt/yt_nic.c ****  * @retval        CMM_ERR_OK          -on success
  86:../switch_sdk/core/yt/yt_nic.c ****  * @retval        CMM_ERR_FAIL        -on fail
  87:../switch_sdk/core/yt/yt_nic.c ****  */
  88:../switch_sdk/core/yt/yt_nic.c **** yt_ret_t  yt_nic_ext_cpuport_en_set(yt_unit_t unit,  yt_enable_t enable)
  89:../switch_sdk/core/yt/yt_nic.c **** {
 532              		.loc 1 89 1 is_stmt 1 view -0
 533              		.cfi_startproc
 534              		@ args = 0, pretend = 0, frame = 0
 535              		@ frame_needed = 0, uses_anonymous_args = 0
 536              		.loc 1 89 1 is_stmt 0 view .LVU142
 537 0000 08B5     		push	{r3, lr}
 538              		.cfi_def_cfa_offset 8
 539              		.cfi_offset 3, -8
 540              		.cfi_offset 14, -4
  90:../switch_sdk/core/yt/yt_nic.c ****     CMM_PARAM_CHK((YT_UNIT_NUM <= unit), CMM_ERR_INPUT);
 541              		.loc 1 90 5 is_stmt 1 view .LVU143
 542              		.loc 1 90 5 view .LVU144
 543 0002 68B9     		cbnz	r0, .L67
 544 0004 0246     		mov	r2, r0
 545              		.loc 1 90 5 discriminator 2 view .LVU145
  91:../switch_sdk/core/yt/yt_nic.c ****     CMM_PARAM_CHK(NULL == YT_DISPATCH(unit), CMM_ERR_NOT_INIT);
 546              		.loc 1 91 5 discriminator 2 view .LVU146
 547              		.loc 1 91 5 discriminator 2 view .LVU147
 548 0006 224B     		ldr	r3, .L75
 549 0008 53F82030 		ldr	r3, [r3, r0, lsl #2]
 550 000c B3B1     		cbz	r3, .L68
 551              		.loc 1 91 5 discriminator 2 view .LVU148
  92:../switch_sdk/core/yt/yt_nic.c ****     CMM_PARAM_CHK((!(YT_DISPATCH(unit)->is_inited)), CMM_ERR_NOT_INIT);
 552              		.loc 1 92 5 discriminator 2 view .LVU149
 553              		.loc 1 92 5 discriminator 2 view .LVU150
 554 000e 1878     		ldrb	r0, [r3]	@ zero_extendqisi2
 555              	.LVL63:
 556              		.loc 1 92 5 is_stmt 0 discriminator 2 view .LVU151
 557 0010 10B3     		cbz	r0, .L69
 558              		.loc 1 92 5 is_stmt 1 discriminator 2 view .LVU152
  93:../switch_sdk/core/yt/yt_nic.c ****     CMM_PARAM_CHK((YT_ENABLE < enable || YT_DISABLE > enable), CMM_ERR_INPUT);
 559              		.loc 1 93 5 discriminator 2 view .LVU153
 560              		.loc 1 93 5 discriminator 2 view .LVU154
 561 0012 0129     		cmp	r1, #1
 562 0014 2ED8     		bhi	.L70
 563              		.loc 1 93 5 discriminator 2 view .LVU155
  94:../switch_sdk/core/yt/yt_nic.c **** 
  95:../switch_sdk/core/yt/yt_nic.c ****     return YT_DISPATCH(unit)->nic_ext_cpuport_en_set(unit, enable);
 564              		.loc 1 95 5 discriminator 2 view .LVU156
 565              		.loc 1 95 29 is_stmt 0 discriminator 2 view .LVU157
 566 0016 D3F8D834 		ldr	r3, [r3, #1240]
 567              		.loc 1 95 12 discriminator 2 view .LVU158
 568 001a 1046     		mov	r0, r2
 569 001c 9847     		blx	r3
 570              	.LVL64:
 571              	.L56:
  96:../switch_sdk/core/yt/yt_nic.c **** }
 572              		.loc 1 96 1 view .LVU159
 573 001e 08BD     		pop	{r3, pc}
 574              	.LVL65:
 575              	.L67:
  90:../switch_sdk/core/yt/yt_nic.c ****     CMM_PARAM_CHK(NULL == YT_DISPATCH(unit), CMM_ERR_NOT_INIT);
 576              		.loc 1 90 5 is_stmt 1 discriminator 1 view .LVU160
  90:../switch_sdk/core/yt/yt_nic.c ****     CMM_PARAM_CHK(NULL == YT_DISPATCH(unit), CMM_ERR_NOT_INIT);
 577              		.loc 1 90 5 discriminator 1 view .LVU161
 578 0020 1C4B     		ldr	r3, .L75+4
 579 0022 1B78     		ldrb	r3, [r3]	@ zero_extendqisi2
 580 0024 012B     		cmp	r3, #1
 581 0026 01D8     		bhi	.L71
 582              	.LVL66:
 583              	.L58:
  90:../switch_sdk/core/yt/yt_nic.c ****     CMM_PARAM_CHK(NULL == YT_DISPATCH(unit), CMM_ERR_NOT_INIT);
 584              		.loc 1 90 5 discriminator 5 view .LVU162
  90:../switch_sdk/core/yt/yt_nic.c ****     CMM_PARAM_CHK(NULL == YT_DISPATCH(unit), CMM_ERR_NOT_INIT);
 585              		.loc 1 90 5 discriminator 5 view .LVU163
  90:../switch_sdk/core/yt/yt_nic.c ****     CMM_PARAM_CHK(NULL == YT_DISPATCH(unit), CMM_ERR_NOT_INIT);
 586              		.loc 1 90 5 discriminator 5 view .LVU164
 587 0028 0520     		movs	r0, #5
 588 002a F8E7     		b	.L56
 589              	.LVL67:
 590              	.L71:
  90:../switch_sdk/core/yt/yt_nic.c ****     CMM_PARAM_CHK(NULL == YT_DISPATCH(unit), CMM_ERR_NOT_INIT);
 591              		.loc 1 90 5 discriminator 3 view .LVU165
 592              	.LBB12:
  90:../switch_sdk/core/yt/yt_nic.c ****     CMM_PARAM_CHK(NULL == YT_DISPATCH(unit), CMM_ERR_NOT_INIT);
 593              		.loc 1 90 5 discriminator 3 view .LVU166
 594 002c 1A4B     		ldr	r3, .L75+8
 595 002e 5A69     		ldr	r2, [r3, #20]
 596 0030 1A4B     		ldr	r3, .L75+12
 597 0032 9968     		ldr	r1, [r3, #8]
 598              	.LVL68:
  90:../switch_sdk/core/yt/yt_nic.c ****     CMM_PARAM_CHK(NULL == YT_DISPATCH(unit), CMM_ERR_NOT_INIT);
 599              		.loc 1 90 5 is_stmt 0 discriminator 3 view .LVU167
 600 0034 1A48     		ldr	r0, .L75+16
 601              	.LVL69:
  90:../switch_sdk/core/yt/yt_nic.c ****     CMM_PARAM_CHK(NULL == YT_DISPATCH(unit), CMM_ERR_NOT_INIT);
 602              		.loc 1 90 5 discriminator 3 view .LVU168
 603 0036 FFF7FEFF 		bl	osal_printf
 604              	.LVL70:
 605 003a F5E7     		b	.L58
 606              	.LVL71:
 607              	.L68:
  90:../switch_sdk/core/yt/yt_nic.c ****     CMM_PARAM_CHK(NULL == YT_DISPATCH(unit), CMM_ERR_NOT_INIT);
 608              		.loc 1 90 5 discriminator 3 view .LVU169
 609              	.LBE12:
  91:../switch_sdk/core/yt/yt_nic.c ****     CMM_PARAM_CHK((!(YT_DISPATCH(unit)->is_inited)), CMM_ERR_NOT_INIT);
 610              		.loc 1 91 5 is_stmt 1 discriminator 1 view .LVU170
  91:../switch_sdk/core/yt/yt_nic.c ****     CMM_PARAM_CHK((!(YT_DISPATCH(unit)->is_inited)), CMM_ERR_NOT_INIT);
 611              		.loc 1 91 5 discriminator 1 view .LVU171
 612 003c 154B     		ldr	r3, .L75+4
 613 003e 1B78     		ldrb	r3, [r3]	@ zero_extendqisi2
 614 0040 012B     		cmp	r3, #1
 615 0042 01D8     		bhi	.L72
 616              	.LVL72:
 617              	.L61:
  91:../switch_sdk/core/yt/yt_nic.c ****     CMM_PARAM_CHK((!(YT_DISPATCH(unit)->is_inited)), CMM_ERR_NOT_INIT);
 618              		.loc 1 91 5 discriminator 5 view .LVU172
  91:../switch_sdk/core/yt/yt_nic.c ****     CMM_PARAM_CHK((!(YT_DISPATCH(unit)->is_inited)), CMM_ERR_NOT_INIT);
 619              		.loc 1 91 5 discriminator 5 view .LVU173
  91:../switch_sdk/core/yt/yt_nic.c ****     CMM_PARAM_CHK((!(YT_DISPATCH(unit)->is_inited)), CMM_ERR_NOT_INIT);
 620              		.loc 1 91 5 discriminator 5 view .LVU174
 621 0044 0420     		movs	r0, #4
 622 0046 EAE7     		b	.L56
 623              	.LVL73:
 624              	.L72:
  91:../switch_sdk/core/yt/yt_nic.c ****     CMM_PARAM_CHK((!(YT_DISPATCH(unit)->is_inited)), CMM_ERR_NOT_INIT);
 625              		.loc 1 91 5 discriminator 3 view .LVU175
 626              	.LBB13:
  91:../switch_sdk/core/yt/yt_nic.c ****     CMM_PARAM_CHK((!(YT_DISPATCH(unit)->is_inited)), CMM_ERR_NOT_INIT);
 627              		.loc 1 91 5 discriminator 3 view .LVU176
 628 0048 134B     		ldr	r3, .L75+8
 629 004a 1A69     		ldr	r2, [r3, #16]
 630 004c 134B     		ldr	r3, .L75+12
 631 004e 9968     		ldr	r1, [r3, #8]
 632              	.LVL74:
  91:../switch_sdk/core/yt/yt_nic.c ****     CMM_PARAM_CHK((!(YT_DISPATCH(unit)->is_inited)), CMM_ERR_NOT_INIT);
 633              		.loc 1 91 5 is_stmt 0 discriminator 3 view .LVU177
 634 0050 1348     		ldr	r0, .L75+16
 635              	.LVL75:
  91:../switch_sdk/core/yt/yt_nic.c ****     CMM_PARAM_CHK((!(YT_DISPATCH(unit)->is_inited)), CMM_ERR_NOT_INIT);
 636              		.loc 1 91 5 discriminator 3 view .LVU178
 637 0052 FFF7FEFF 		bl	osal_printf
 638              	.LVL76:
 639 0056 F5E7     		b	.L61
 640              	.LVL77:
 641              	.L69:
  91:../switch_sdk/core/yt/yt_nic.c ****     CMM_PARAM_CHK((!(YT_DISPATCH(unit)->is_inited)), CMM_ERR_NOT_INIT);
 642              		.loc 1 91 5 discriminator 3 view .LVU179
 643              	.LBE13:
  92:../switch_sdk/core/yt/yt_nic.c ****     CMM_PARAM_CHK((YT_ENABLE < enable || YT_DISABLE > enable), CMM_ERR_INPUT);
 644              		.loc 1 92 5 is_stmt 1 discriminator 1 view .LVU180
  92:../switch_sdk/core/yt/yt_nic.c ****     CMM_PARAM_CHK((YT_ENABLE < enable || YT_DISABLE > enable), CMM_ERR_INPUT);
 645              		.loc 1 92 5 discriminator 1 view .LVU181
 646 0058 0E4B     		ldr	r3, .L75+4
 647 005a 1B78     		ldrb	r3, [r3]	@ zero_extendqisi2
 648 005c 012B     		cmp	r3, #1
 649 005e 01D8     		bhi	.L73
 650              	.LVL78:
 651              	.L63:
  92:../switch_sdk/core/yt/yt_nic.c ****     CMM_PARAM_CHK((YT_ENABLE < enable || YT_DISABLE > enable), CMM_ERR_INPUT);
 652              		.loc 1 92 5 discriminator 5 view .LVU182
  92:../switch_sdk/core/yt/yt_nic.c ****     CMM_PARAM_CHK((YT_ENABLE < enable || YT_DISABLE > enable), CMM_ERR_INPUT);
 653              		.loc 1 92 5 discriminator 5 view .LVU183
  92:../switch_sdk/core/yt/yt_nic.c ****     CMM_PARAM_CHK((YT_ENABLE < enable || YT_DISABLE > enable), CMM_ERR_INPUT);
 654              		.loc 1 92 5 discriminator 5 view .LVU184
 655 0060 0420     		movs	r0, #4
 656 0062 DCE7     		b	.L56
 657              	.LVL79:
 658              	.L73:
  92:../switch_sdk/core/yt/yt_nic.c ****     CMM_PARAM_CHK((YT_ENABLE < enable || YT_DISABLE > enable), CMM_ERR_INPUT);
 659              		.loc 1 92 5 discriminator 3 view .LVU185
 660              	.LBB14:
  92:../switch_sdk/core/yt/yt_nic.c ****     CMM_PARAM_CHK((YT_ENABLE < enable || YT_DISABLE > enable), CMM_ERR_INPUT);
 661              		.loc 1 92 5 discriminator 3 view .LVU186
 662 0064 0C4B     		ldr	r3, .L75+8
 663 0066 1A69     		ldr	r2, [r3, #16]
 664 0068 0C4B     		ldr	r3, .L75+12
 665 006a 9968     		ldr	r1, [r3, #8]
 666              	.LVL80:
  92:../switch_sdk/core/yt/yt_nic.c ****     CMM_PARAM_CHK((YT_ENABLE < enable || YT_DISABLE > enable), CMM_ERR_INPUT);
 667              		.loc 1 92 5 is_stmt 0 discriminator 3 view .LVU187
 668 006c 0C48     		ldr	r0, .L75+16
 669 006e FFF7FEFF 		bl	osal_printf
 670              	.LVL81:
 671 0072 F5E7     		b	.L63
 672              	.LVL82:
 673              	.L70:
  92:../switch_sdk/core/yt/yt_nic.c ****     CMM_PARAM_CHK((YT_ENABLE < enable || YT_DISABLE > enable), CMM_ERR_INPUT);
 674              		.loc 1 92 5 discriminator 3 view .LVU188
 675              	.LBE14:
  93:../switch_sdk/core/yt/yt_nic.c **** 
 676              		.loc 1 93 5 is_stmt 1 discriminator 1 view .LVU189
  93:../switch_sdk/core/yt/yt_nic.c **** 
 677              		.loc 1 93 5 discriminator 1 view .LVU190
 678 0074 074B     		ldr	r3, .L75+4
 679 0076 1B78     		ldrb	r3, [r3]	@ zero_extendqisi2
 680 0078 012B     		cmp	r3, #1
 681 007a 01D8     		bhi	.L74
 682              	.LVL83:
 683              	.L65:
  93:../switch_sdk/core/yt/yt_nic.c **** 
 684              		.loc 1 93 5 discriminator 5 view .LVU191
  93:../switch_sdk/core/yt/yt_nic.c **** 
 685              		.loc 1 93 5 discriminator 5 view .LVU192
  93:../switch_sdk/core/yt/yt_nic.c **** 
 686              		.loc 1 93 5 discriminator 5 view .LVU193
 687 007c 0520     		movs	r0, #5
 688 007e CEE7     		b	.L56
 689              	.LVL84:
 690              	.L74:
  93:../switch_sdk/core/yt/yt_nic.c **** 
 691              		.loc 1 93 5 discriminator 3 view .LVU194
 692              	.LBB15:
  93:../switch_sdk/core/yt/yt_nic.c **** 
 693              		.loc 1 93 5 discriminator 3 view .LVU195
 694 0080 054B     		ldr	r3, .L75+8
 695 0082 5A69     		ldr	r2, [r3, #20]
 696 0084 054B     		ldr	r3, .L75+12
 697 0086 9968     		ldr	r1, [r3, #8]
 698              	.LVL85:
  93:../switch_sdk/core/yt/yt_nic.c **** 
 699              		.loc 1 93 5 is_stmt 0 discriminator 3 view .LVU196
 700 0088 0548     		ldr	r0, .L75+16
 701 008a FFF7FEFF 		bl	osal_printf
 702              	.LVL86:
 703 008e F5E7     		b	.L65
 704              	.L76:
 705              		.align	2
 706              	.L75:
 707 0090 00000000 		.word	gpfal_dispatch
 708 0094 00000000 		.word	yt_debug_level
 709 0098 00000000 		.word	_yt_errmsg
 710 009c 00000000 		.word	_yt_prompt_msg
 711 00a0 00000000 		.word	.LC0
 712              	.LBE15:
 713              		.cfi_endproc
 714              	.LFE6:
 716              		.section	.text.yt_nic_ext_cpuport_en_get,"ax",%progbits
 717              		.align	1
 718              		.global	yt_nic_ext_cpuport_en_get
 719              		.syntax unified
 720              		.thumb
 721              		.thumb_func
 723              	yt_nic_ext_cpuport_en_get:
 724              	.LVL87:
 725              	.LFB7:
  97:../switch_sdk/core/yt/yt_nic.c **** 
  98:../switch_sdk/core/yt/yt_nic.c **** /**
  99:../switch_sdk/core/yt/yt_nic.c ****  * @internal      yt_nic_ext_cpuport_en_get
 100:../switch_sdk/core/yt/yt_nic.c ****  * @endinternal
 101:../switch_sdk/core/yt/yt_nic.c ****  *
 102:../switch_sdk/core/yt/yt_nic.c ****  * @brief         Description
 103:../switch_sdk/core/yt/yt_nic.c ****  * @param[in]     unit                -unit id
 104:../switch_sdk/core/yt/yt_nic.c ****  * @param[out]    pEnable             -enable or disable
 105:../switch_sdk/core/yt/yt_nic.c ****  * @retval        CMM_ERR_OK          -on success
 106:../switch_sdk/core/yt/yt_nic.c ****  * @retval        CMM_ERR_FAIL        -on fail
 107:../switch_sdk/core/yt/yt_nic.c ****  */
 108:../switch_sdk/core/yt/yt_nic.c **** yt_ret_t  yt_nic_ext_cpuport_en_get(yt_unit_t unit,  yt_enable_t *pEnable)
 109:../switch_sdk/core/yt/yt_nic.c **** {
 726              		.loc 1 109 1 is_stmt 1 view -0
 727              		.cfi_startproc
 728              		@ args = 0, pretend = 0, frame = 0
 729              		@ frame_needed = 0, uses_anonymous_args = 0
 730              		.loc 1 109 1 is_stmt 0 view .LVU198
 731 0000 08B5     		push	{r3, lr}
 732              		.cfi_def_cfa_offset 8
 733              		.cfi_offset 3, -8
 734              		.cfi_offset 14, -4
 110:../switch_sdk/core/yt/yt_nic.c ****     CMM_PARAM_CHK((YT_UNIT_NUM <= unit), CMM_ERR_INPUT);
 735              		.loc 1 110 5 is_stmt 1 view .LVU199
 736              		.loc 1 110 5 view .LVU200
 737 0002 68B9     		cbnz	r0, .L88
 738 0004 0246     		mov	r2, r0
 739              		.loc 1 110 5 discriminator 2 view .LVU201
 111:../switch_sdk/core/yt/yt_nic.c ****     CMM_PARAM_CHK(NULL == YT_DISPATCH(unit), CMM_ERR_NOT_INIT);
 740              		.loc 1 111 5 discriminator 2 view .LVU202
 741              		.loc 1 111 5 discriminator 2 view .LVU203
 742 0006 224B     		ldr	r3, .L96
 743 0008 53F82030 		ldr	r3, [r3, r0, lsl #2]
 744 000c B3B1     		cbz	r3, .L89
 745              		.loc 1 111 5 discriminator 2 view .LVU204
 112:../switch_sdk/core/yt/yt_nic.c ****     CMM_PARAM_CHK((!(YT_DISPATCH(unit)->is_inited)), CMM_ERR_NOT_INIT);
 746              		.loc 1 112 5 discriminator 2 view .LVU205
 747              		.loc 1 112 5 discriminator 2 view .LVU206
 748 000e 1878     		ldrb	r0, [r3]	@ zero_extendqisi2
 749              	.LVL88:
 750              		.loc 1 112 5 is_stmt 0 discriminator 2 view .LVU207
 751 0010 10B3     		cbz	r0, .L90
 752              		.loc 1 112 5 is_stmt 1 discriminator 2 view .LVU208
 113:../switch_sdk/core/yt/yt_nic.c ****     CMM_PARAM_CHK((NULL == pEnable), CMM_ERR_NULL_POINT);
 753              		.loc 1 113 5 discriminator 2 view .LVU209
 754              		.loc 1 113 5 discriminator 2 view .LVU210
 755 0012 0029     		cmp	r1, #0
 756 0014 2ED0     		beq	.L91
 757              		.loc 1 113 5 discriminator 2 view .LVU211
 114:../switch_sdk/core/yt/yt_nic.c **** 
 115:../switch_sdk/core/yt/yt_nic.c ****     return YT_DISPATCH(unit)->nic_ext_cpuport_en_get(unit, pEnable);
 758              		.loc 1 115 5 discriminator 2 view .LVU212
 759              		.loc 1 115 29 is_stmt 0 discriminator 2 view .LVU213
 760 0016 D3F8DC34 		ldr	r3, [r3, #1244]
 761              		.loc 1 115 12 discriminator 2 view .LVU214
 762 001a 1046     		mov	r0, r2
 763 001c 9847     		blx	r3
 764              	.LVL89:
 765              	.L77:
 116:../switch_sdk/core/yt/yt_nic.c **** }
 766              		.loc 1 116 1 view .LVU215
 767 001e 08BD     		pop	{r3, pc}
 768              	.LVL90:
 769              	.L88:
 110:../switch_sdk/core/yt/yt_nic.c ****     CMM_PARAM_CHK(NULL == YT_DISPATCH(unit), CMM_ERR_NOT_INIT);
 770              		.loc 1 110 5 is_stmt 1 discriminator 1 view .LVU216
 110:../switch_sdk/core/yt/yt_nic.c ****     CMM_PARAM_CHK(NULL == YT_DISPATCH(unit), CMM_ERR_NOT_INIT);
 771              		.loc 1 110 5 discriminator 1 view .LVU217
 772 0020 1C4B     		ldr	r3, .L96+4
 773 0022 1B78     		ldrb	r3, [r3]	@ zero_extendqisi2
 774 0024 012B     		cmp	r3, #1
 775 0026 01D8     		bhi	.L92
 776              	.LVL91:
 777              	.L79:
 110:../switch_sdk/core/yt/yt_nic.c ****     CMM_PARAM_CHK(NULL == YT_DISPATCH(unit), CMM_ERR_NOT_INIT);
 778              		.loc 1 110 5 discriminator 5 view .LVU218
 110:../switch_sdk/core/yt/yt_nic.c ****     CMM_PARAM_CHK(NULL == YT_DISPATCH(unit), CMM_ERR_NOT_INIT);
 779              		.loc 1 110 5 discriminator 5 view .LVU219
 110:../switch_sdk/core/yt/yt_nic.c ****     CMM_PARAM_CHK(NULL == YT_DISPATCH(unit), CMM_ERR_NOT_INIT);
 780              		.loc 1 110 5 discriminator 5 view .LVU220
 781 0028 0520     		movs	r0, #5
 782 002a F8E7     		b	.L77
 783              	.LVL92:
 784              	.L92:
 110:../switch_sdk/core/yt/yt_nic.c ****     CMM_PARAM_CHK(NULL == YT_DISPATCH(unit), CMM_ERR_NOT_INIT);
 785              		.loc 1 110 5 discriminator 3 view .LVU221
 786              	.LBB16:
 110:../switch_sdk/core/yt/yt_nic.c ****     CMM_PARAM_CHK(NULL == YT_DISPATCH(unit), CMM_ERR_NOT_INIT);
 787              		.loc 1 110 5 discriminator 3 view .LVU222
 788 002c 1A4B     		ldr	r3, .L96+8
 789 002e 5A69     		ldr	r2, [r3, #20]
 790 0030 1A4B     		ldr	r3, .L96+12
 791 0032 9968     		ldr	r1, [r3, #8]
 792              	.LVL93:
 110:../switch_sdk/core/yt/yt_nic.c ****     CMM_PARAM_CHK(NULL == YT_DISPATCH(unit), CMM_ERR_NOT_INIT);
 793              		.loc 1 110 5 is_stmt 0 discriminator 3 view .LVU223
 794 0034 1A48     		ldr	r0, .L96+16
 795              	.LVL94:
 110:../switch_sdk/core/yt/yt_nic.c ****     CMM_PARAM_CHK(NULL == YT_DISPATCH(unit), CMM_ERR_NOT_INIT);
 796              		.loc 1 110 5 discriminator 3 view .LVU224
 797 0036 FFF7FEFF 		bl	osal_printf
 798              	.LVL95:
 799 003a F5E7     		b	.L79
 800              	.LVL96:
 801              	.L89:
 110:../switch_sdk/core/yt/yt_nic.c ****     CMM_PARAM_CHK(NULL == YT_DISPATCH(unit), CMM_ERR_NOT_INIT);
 802              		.loc 1 110 5 discriminator 3 view .LVU225
 803              	.LBE16:
 111:../switch_sdk/core/yt/yt_nic.c ****     CMM_PARAM_CHK((!(YT_DISPATCH(unit)->is_inited)), CMM_ERR_NOT_INIT);
 804              		.loc 1 111 5 is_stmt 1 discriminator 1 view .LVU226
 111:../switch_sdk/core/yt/yt_nic.c ****     CMM_PARAM_CHK((!(YT_DISPATCH(unit)->is_inited)), CMM_ERR_NOT_INIT);
 805              		.loc 1 111 5 discriminator 1 view .LVU227
 806 003c 154B     		ldr	r3, .L96+4
 807 003e 1B78     		ldrb	r3, [r3]	@ zero_extendqisi2
 808 0040 012B     		cmp	r3, #1
 809 0042 01D8     		bhi	.L93
 810              	.LVL97:
 811              	.L82:
 111:../switch_sdk/core/yt/yt_nic.c ****     CMM_PARAM_CHK((!(YT_DISPATCH(unit)->is_inited)), CMM_ERR_NOT_INIT);
 812              		.loc 1 111 5 discriminator 5 view .LVU228
 111:../switch_sdk/core/yt/yt_nic.c ****     CMM_PARAM_CHK((!(YT_DISPATCH(unit)->is_inited)), CMM_ERR_NOT_INIT);
 813              		.loc 1 111 5 discriminator 5 view .LVU229
 111:../switch_sdk/core/yt/yt_nic.c ****     CMM_PARAM_CHK((!(YT_DISPATCH(unit)->is_inited)), CMM_ERR_NOT_INIT);
 814              		.loc 1 111 5 discriminator 5 view .LVU230
 815 0044 0420     		movs	r0, #4
 816 0046 EAE7     		b	.L77
 817              	.LVL98:
 818              	.L93:
 111:../switch_sdk/core/yt/yt_nic.c ****     CMM_PARAM_CHK((!(YT_DISPATCH(unit)->is_inited)), CMM_ERR_NOT_INIT);
 819              		.loc 1 111 5 discriminator 3 view .LVU231
 820              	.LBB17:
 111:../switch_sdk/core/yt/yt_nic.c ****     CMM_PARAM_CHK((!(YT_DISPATCH(unit)->is_inited)), CMM_ERR_NOT_INIT);
 821              		.loc 1 111 5 discriminator 3 view .LVU232
 822 0048 134B     		ldr	r3, .L96+8
 823 004a 1A69     		ldr	r2, [r3, #16]
 824 004c 134B     		ldr	r3, .L96+12
 825 004e 9968     		ldr	r1, [r3, #8]
 826              	.LVL99:
 111:../switch_sdk/core/yt/yt_nic.c ****     CMM_PARAM_CHK((!(YT_DISPATCH(unit)->is_inited)), CMM_ERR_NOT_INIT);
 827              		.loc 1 111 5 is_stmt 0 discriminator 3 view .LVU233
 828 0050 1348     		ldr	r0, .L96+16
 829              	.LVL100:
 111:../switch_sdk/core/yt/yt_nic.c ****     CMM_PARAM_CHK((!(YT_DISPATCH(unit)->is_inited)), CMM_ERR_NOT_INIT);
 830              		.loc 1 111 5 discriminator 3 view .LVU234
 831 0052 FFF7FEFF 		bl	osal_printf
 832              	.LVL101:
 833 0056 F5E7     		b	.L82
 834              	.LVL102:
 835              	.L90:
 111:../switch_sdk/core/yt/yt_nic.c ****     CMM_PARAM_CHK((!(YT_DISPATCH(unit)->is_inited)), CMM_ERR_NOT_INIT);
 836              		.loc 1 111 5 discriminator 3 view .LVU235
 837              	.LBE17:
 112:../switch_sdk/core/yt/yt_nic.c ****     CMM_PARAM_CHK((NULL == pEnable), CMM_ERR_NULL_POINT);
 838              		.loc 1 112 5 is_stmt 1 discriminator 1 view .LVU236
 112:../switch_sdk/core/yt/yt_nic.c ****     CMM_PARAM_CHK((NULL == pEnable), CMM_ERR_NULL_POINT);
 839              		.loc 1 112 5 discriminator 1 view .LVU237
 840 0058 0E4B     		ldr	r3, .L96+4
 841 005a 1B78     		ldrb	r3, [r3]	@ zero_extendqisi2
 842 005c 012B     		cmp	r3, #1
 843 005e 01D8     		bhi	.L94
 844              	.LVL103:
 845              	.L84:
 112:../switch_sdk/core/yt/yt_nic.c ****     CMM_PARAM_CHK((NULL == pEnable), CMM_ERR_NULL_POINT);
 846              		.loc 1 112 5 discriminator 5 view .LVU238
 112:../switch_sdk/core/yt/yt_nic.c ****     CMM_PARAM_CHK((NULL == pEnable), CMM_ERR_NULL_POINT);
 847              		.loc 1 112 5 discriminator 5 view .LVU239
 112:../switch_sdk/core/yt/yt_nic.c ****     CMM_PARAM_CHK((NULL == pEnable), CMM_ERR_NULL_POINT);
 848              		.loc 1 112 5 discriminator 5 view .LVU240
 849 0060 0420     		movs	r0, #4
 850 0062 DCE7     		b	.L77
 851              	.LVL104:
 852              	.L94:
 112:../switch_sdk/core/yt/yt_nic.c ****     CMM_PARAM_CHK((NULL == pEnable), CMM_ERR_NULL_POINT);
 853              		.loc 1 112 5 discriminator 3 view .LVU241
 854              	.LBB18:
 112:../switch_sdk/core/yt/yt_nic.c ****     CMM_PARAM_CHK((NULL == pEnable), CMM_ERR_NULL_POINT);
 855              		.loc 1 112 5 discriminator 3 view .LVU242
 856 0064 0C4B     		ldr	r3, .L96+8
 857 0066 1A69     		ldr	r2, [r3, #16]
 858 0068 0C4B     		ldr	r3, .L96+12
 859 006a 9968     		ldr	r1, [r3, #8]
 860              	.LVL105:
 112:../switch_sdk/core/yt/yt_nic.c ****     CMM_PARAM_CHK((NULL == pEnable), CMM_ERR_NULL_POINT);
 861              		.loc 1 112 5 is_stmt 0 discriminator 3 view .LVU243
 862 006c 0C48     		ldr	r0, .L96+16
 863 006e FFF7FEFF 		bl	osal_printf
 864              	.LVL106:
 865 0072 F5E7     		b	.L84
 866              	.LVL107:
 867              	.L91:
 112:../switch_sdk/core/yt/yt_nic.c ****     CMM_PARAM_CHK((NULL == pEnable), CMM_ERR_NULL_POINT);
 868              		.loc 1 112 5 discriminator 3 view .LVU244
 869              	.LBE18:
 113:../switch_sdk/core/yt/yt_nic.c **** 
 870              		.loc 1 113 5 is_stmt 1 discriminator 1 view .LVU245
 113:../switch_sdk/core/yt/yt_nic.c **** 
 871              		.loc 1 113 5 discriminator 1 view .LVU246
 872 0074 074B     		ldr	r3, .L96+4
 873 0076 1B78     		ldrb	r3, [r3]	@ zero_extendqisi2
 874 0078 012B     		cmp	r3, #1
 875 007a 01D8     		bhi	.L95
 876              	.LVL108:
 877              	.L86:
 113:../switch_sdk/core/yt/yt_nic.c **** 
 878              		.loc 1 113 5 discriminator 5 view .LVU247
 113:../switch_sdk/core/yt/yt_nic.c **** 
 879              		.loc 1 113 5 discriminator 5 view .LVU248
 113:../switch_sdk/core/yt/yt_nic.c **** 
 880              		.loc 1 113 5 discriminator 5 view .LVU249
 881 007c 0220     		movs	r0, #2
 882 007e CEE7     		b	.L77
 883              	.LVL109:
 884              	.L95:
 113:../switch_sdk/core/yt/yt_nic.c **** 
 885              		.loc 1 113 5 discriminator 3 view .LVU250
 886              	.LBB19:
 113:../switch_sdk/core/yt/yt_nic.c **** 
 887              		.loc 1 113 5 discriminator 3 view .LVU251
 888 0080 054B     		ldr	r3, .L96+8
 889 0082 9A68     		ldr	r2, [r3, #8]
 890 0084 054B     		ldr	r3, .L96+12
 891 0086 9968     		ldr	r1, [r3, #8]
 892              	.LVL110:
 113:../switch_sdk/core/yt/yt_nic.c **** 
 893              		.loc 1 113 5 is_stmt 0 discriminator 3 view .LVU252
 894 0088 0548     		ldr	r0, .L96+16
 895 008a FFF7FEFF 		bl	osal_printf
 896              	.LVL111:
 897 008e F5E7     		b	.L86
 898              	.L97:
 899              		.align	2
 900              	.L96:
 901 0090 00000000 		.word	gpfal_dispatch
 902 0094 00000000 		.word	yt_debug_level
 903 0098 00000000 		.word	_yt_errmsg
 904 009c 00000000 		.word	_yt_prompt_msg
 905 00a0 00000000 		.word	.LC0
 906              	.LBE19:
 907              		.cfi_endproc
 908              	.LFE7:
 910              		.section	.text.yt_nic_ext_cpuport_port_set,"ax",%progbits
 911              		.align	1
 912              		.global	yt_nic_ext_cpuport_port_set
 913              		.syntax unified
 914              		.thumb
 915              		.thumb_func
 917              	yt_nic_ext_cpuport_port_set:
 918              	.LVL112:
 919              	.LFB8:
 117:../switch_sdk/core/yt/yt_nic.c **** 
 118:../switch_sdk/core/yt/yt_nic.c **** /**
 119:../switch_sdk/core/yt/yt_nic.c ****  * @internal      yt_nic_ext_cpuport_port_set
 120:../switch_sdk/core/yt/yt_nic.c ****  * @endinternal
 121:../switch_sdk/core/yt/yt_nic.c ****  *
 122:../switch_sdk/core/yt/yt_nic.c ****  * @brief         Description
 123:../switch_sdk/core/yt/yt_nic.c ****  * @param[in]     unit                -unit id
 124:../switch_sdk/core/yt/yt_nic.c ****  * @param[in]     port                -port num
 125:../switch_sdk/core/yt/yt_nic.c ****  * @retval        CMM_ERR_OK          -on success
 126:../switch_sdk/core/yt/yt_nic.c ****  * @retval        CMM_ERR_FAIL        -on fail
 127:../switch_sdk/core/yt/yt_nic.c ****  */
 128:../switch_sdk/core/yt/yt_nic.c **** yt_ret_t  yt_nic_ext_cpuport_port_set(yt_unit_t unit,  yt_port_t port)
 129:../switch_sdk/core/yt/yt_nic.c **** {
 920              		.loc 1 129 1 is_stmt 1 view -0
 921              		.cfi_startproc
 922              		@ args = 0, pretend = 0, frame = 0
 923              		@ frame_needed = 0, uses_anonymous_args = 0
 924              		.loc 1 129 1 is_stmt 0 view .LVU254
 925 0000 08B5     		push	{r3, lr}
 926              		.cfi_def_cfa_offset 8
 927              		.cfi_offset 3, -8
 928              		.cfi_offset 14, -4
 130:../switch_sdk/core/yt/yt_nic.c ****     CMM_PARAM_CHK((YT_UNIT_NUM <= unit), CMM_ERR_INPUT);
 929              		.loc 1 130 5 is_stmt 1 view .LVU255
 930              		.loc 1 130 5 view .LVU256
 931 0002 A8B9     		cbnz	r0, .L110
 932 0004 0246     		mov	r2, r0
 933              		.loc 1 130 5 discriminator 2 view .LVU257
 131:../switch_sdk/core/yt/yt_nic.c ****     CMM_PARAM_CHK(NULL == YT_DISPATCH(unit), CMM_ERR_NOT_INIT);
 934              		.loc 1 131 5 discriminator 2 view .LVU258
 935              		.loc 1 131 5 discriminator 2 view .LVU259
 936 0006 264B     		ldr	r3, .L117
 937 0008 53F82030 		ldr	r3, [r3, r0, lsl #2]
 938 000c F3B1     		cbz	r3, .L111
 939              		.loc 1 131 5 discriminator 2 view .LVU260
 132:../switch_sdk/core/yt/yt_nic.c ****     CMM_PARAM_CHK((!(YT_DISPATCH(unit)->is_inited)), CMM_ERR_NOT_INIT);
 940              		.loc 1 132 5 discriminator 2 view .LVU261
 941              		.loc 1 132 5 discriminator 2 view .LVU262
 942 000e 1878     		ldrb	r0, [r3]	@ zero_extendqisi2
 943              	.LVL113:
 944              		.loc 1 132 5 is_stmt 0 discriminator 2 view .LVU263
 945 0010 50B3     		cbz	r0, .L112
 946              		.loc 1 132 5 is_stmt 1 discriminator 2 view .LVU264
 133:../switch_sdk/core/yt/yt_nic.c ****     CMM_PARAM_CHK((!(CMM_PORT_VALID(unit,port))), CMM_ERR_PORT);
 947              		.loc 1 133 5 discriminator 2 view .LVU265
 948              		.loc 1 133 5 discriminator 2 view .LVU266
 949 0012 2448     		ldr	r0, .L117+4
 950 0014 0078     		ldrb	r0, [r0]	@ zero_extendqisi2
 951 0016 0028     		cmp	r0, #0
 952 0018 34D0     		beq	.L106
 953 001a 2348     		ldr	r0, .L117+8
 954 001c 50F82200 		ldr	r0, [r0, r2, lsl #2]
 955 0020 007D     		ldrb	r0, [r0, #20]	@ zero_extendqisi2
 956 0022 8842     		cmp	r0, r1
 957 0024 2ED9     		bls	.L106
 958              		.loc 1 133 5 discriminator 4 view .LVU267
 134:../switch_sdk/core/yt/yt_nic.c **** 
 135:../switch_sdk/core/yt/yt_nic.c ****     return YT_DISPATCH(unit)->nic_ext_cpuport_port_set(unit, port);
 959              		.loc 1 135 5 discriminator 4 view .LVU268
 960              		.loc 1 135 29 is_stmt 0 discriminator 4 view .LVU269
 961 0026 D3F8E034 		ldr	r3, [r3, #1248]
 962              		.loc 1 135 12 discriminator 4 view .LVU270
 963 002a 1046     		mov	r0, r2
 964 002c 9847     		blx	r3
 965              	.LVL114:
 966              	.L98:
 136:../switch_sdk/core/yt/yt_nic.c **** }
 967              		.loc 1 136 1 view .LVU271
 968 002e 08BD     		pop	{r3, pc}
 969              	.LVL115:
 970              	.L110:
 130:../switch_sdk/core/yt/yt_nic.c ****     CMM_PARAM_CHK(NULL == YT_DISPATCH(unit), CMM_ERR_NOT_INIT);
 971              		.loc 1 130 5 is_stmt 1 discriminator 1 view .LVU272
 130:../switch_sdk/core/yt/yt_nic.c ****     CMM_PARAM_CHK(NULL == YT_DISPATCH(unit), CMM_ERR_NOT_INIT);
 972              		.loc 1 130 5 discriminator 1 view .LVU273
 973 0030 1E4B     		ldr	r3, .L117+12
 974 0032 1B78     		ldrb	r3, [r3]	@ zero_extendqisi2
 975 0034 012B     		cmp	r3, #1
 976 0036 01D8     		bhi	.L113
 977              	.LVL116:
 978              	.L100:
 130:../switch_sdk/core/yt/yt_nic.c ****     CMM_PARAM_CHK(NULL == YT_DISPATCH(unit), CMM_ERR_NOT_INIT);
 979              		.loc 1 130 5 discriminator 5 view .LVU274
 130:../switch_sdk/core/yt/yt_nic.c ****     CMM_PARAM_CHK(NULL == YT_DISPATCH(unit), CMM_ERR_NOT_INIT);
 980              		.loc 1 130 5 discriminator 5 view .LVU275
 130:../switch_sdk/core/yt/yt_nic.c ****     CMM_PARAM_CHK(NULL == YT_DISPATCH(unit), CMM_ERR_NOT_INIT);
 981              		.loc 1 130 5 discriminator 5 view .LVU276
 982 0038 0520     		movs	r0, #5
 983 003a F8E7     		b	.L98
 984              	.LVL117:
 985              	.L113:
 130:../switch_sdk/core/yt/yt_nic.c ****     CMM_PARAM_CHK(NULL == YT_DISPATCH(unit), CMM_ERR_NOT_INIT);
 986              		.loc 1 130 5 discriminator 3 view .LVU277
 987              	.LBB20:
 130:../switch_sdk/core/yt/yt_nic.c ****     CMM_PARAM_CHK(NULL == YT_DISPATCH(unit), CMM_ERR_NOT_INIT);
 988              		.loc 1 130 5 discriminator 3 view .LVU278
 989 003c 1C4B     		ldr	r3, .L117+16
 990 003e 5A69     		ldr	r2, [r3, #20]
 991 0040 1C4B     		ldr	r3, .L117+20
 992 0042 9968     		ldr	r1, [r3, #8]
 993              	.LVL118:
 130:../switch_sdk/core/yt/yt_nic.c ****     CMM_PARAM_CHK(NULL == YT_DISPATCH(unit), CMM_ERR_NOT_INIT);
 994              		.loc 1 130 5 is_stmt 0 discriminator 3 view .LVU279
 995 0044 1C48     		ldr	r0, .L117+24
 996              	.LVL119:
 130:../switch_sdk/core/yt/yt_nic.c ****     CMM_PARAM_CHK(NULL == YT_DISPATCH(unit), CMM_ERR_NOT_INIT);
 997              		.loc 1 130 5 discriminator 3 view .LVU280
 998 0046 FFF7FEFF 		bl	osal_printf
 999              	.LVL120:
 1000 004a F5E7     		b	.L100
 1001              	.LVL121:
 1002              	.L111:
 130:../switch_sdk/core/yt/yt_nic.c ****     CMM_PARAM_CHK(NULL == YT_DISPATCH(unit), CMM_ERR_NOT_INIT);
 1003              		.loc 1 130 5 discriminator 3 view .LVU281
 1004              	.LBE20:
 131:../switch_sdk/core/yt/yt_nic.c ****     CMM_PARAM_CHK((!(YT_DISPATCH(unit)->is_inited)), CMM_ERR_NOT_INIT);
 1005              		.loc 1 131 5 is_stmt 1 discriminator 1 view .LVU282
 131:../switch_sdk/core/yt/yt_nic.c ****     CMM_PARAM_CHK((!(YT_DISPATCH(unit)->is_inited)), CMM_ERR_NOT_INIT);
 1006              		.loc 1 131 5 discriminator 1 view .LVU283
 1007 004c 174B     		ldr	r3, .L117+12
 1008 004e 1B78     		ldrb	r3, [r3]	@ zero_extendqisi2
 1009 0050 012B     		cmp	r3, #1
 1010 0052 01D8     		bhi	.L114
 1011              	.LVL122:
 1012              	.L103:
 131:../switch_sdk/core/yt/yt_nic.c ****     CMM_PARAM_CHK((!(YT_DISPATCH(unit)->is_inited)), CMM_ERR_NOT_INIT);
 1013              		.loc 1 131 5 discriminator 5 view .LVU284
 131:../switch_sdk/core/yt/yt_nic.c ****     CMM_PARAM_CHK((!(YT_DISPATCH(unit)->is_inited)), CMM_ERR_NOT_INIT);
 1014              		.loc 1 131 5 discriminator 5 view .LVU285
 131:../switch_sdk/core/yt/yt_nic.c ****     CMM_PARAM_CHK((!(YT_DISPATCH(unit)->is_inited)), CMM_ERR_NOT_INIT);
 1015              		.loc 1 131 5 discriminator 5 view .LVU286
 1016 0054 0420     		movs	r0, #4
 1017 0056 EAE7     		b	.L98
 1018              	.LVL123:
 1019              	.L114:
 131:../switch_sdk/core/yt/yt_nic.c ****     CMM_PARAM_CHK((!(YT_DISPATCH(unit)->is_inited)), CMM_ERR_NOT_INIT);
 1020              		.loc 1 131 5 discriminator 3 view .LVU287
 1021              	.LBB21:
 131:../switch_sdk/core/yt/yt_nic.c ****     CMM_PARAM_CHK((!(YT_DISPATCH(unit)->is_inited)), CMM_ERR_NOT_INIT);
 1022              		.loc 1 131 5 discriminator 3 view .LVU288
 1023 0058 154B     		ldr	r3, .L117+16
 1024 005a 1A69     		ldr	r2, [r3, #16]
 1025 005c 154B     		ldr	r3, .L117+20
 1026 005e 9968     		ldr	r1, [r3, #8]
 1027              	.LVL124:
 131:../switch_sdk/core/yt/yt_nic.c ****     CMM_PARAM_CHK((!(YT_DISPATCH(unit)->is_inited)), CMM_ERR_NOT_INIT);
 1028              		.loc 1 131 5 is_stmt 0 discriminator 3 view .LVU289
 1029 0060 1548     		ldr	r0, .L117+24
 1030              	.LVL125:
 131:../switch_sdk/core/yt/yt_nic.c ****     CMM_PARAM_CHK((!(YT_DISPATCH(unit)->is_inited)), CMM_ERR_NOT_INIT);
 1031              		.loc 1 131 5 discriminator 3 view .LVU290
 1032 0062 FFF7FEFF 		bl	osal_printf
 1033              	.LVL126:
 1034 0066 F5E7     		b	.L103
 1035              	.LVL127:
 1036              	.L112:
 131:../switch_sdk/core/yt/yt_nic.c ****     CMM_PARAM_CHK((!(YT_DISPATCH(unit)->is_inited)), CMM_ERR_NOT_INIT);
 1037              		.loc 1 131 5 discriminator 3 view .LVU291
 1038              	.LBE21:
 132:../switch_sdk/core/yt/yt_nic.c ****     CMM_PARAM_CHK((!(CMM_PORT_VALID(unit,port))), CMM_ERR_PORT);
 1039              		.loc 1 132 5 is_stmt 1 discriminator 1 view .LVU292
 132:../switch_sdk/core/yt/yt_nic.c ****     CMM_PARAM_CHK((!(CMM_PORT_VALID(unit,port))), CMM_ERR_PORT);
 1040              		.loc 1 132 5 discriminator 1 view .LVU293
 1041 0068 104B     		ldr	r3, .L117+12
 1042 006a 1B78     		ldrb	r3, [r3]	@ zero_extendqisi2
 1043 006c 012B     		cmp	r3, #1
 1044 006e 01D8     		bhi	.L115
 1045              	.LVL128:
 1046              	.L105:
 132:../switch_sdk/core/yt/yt_nic.c ****     CMM_PARAM_CHK((!(CMM_PORT_VALID(unit,port))), CMM_ERR_PORT);
 1047              		.loc 1 132 5 discriminator 5 view .LVU294
 132:../switch_sdk/core/yt/yt_nic.c ****     CMM_PARAM_CHK((!(CMM_PORT_VALID(unit,port))), CMM_ERR_PORT);
 1048              		.loc 1 132 5 discriminator 5 view .LVU295
 132:../switch_sdk/core/yt/yt_nic.c ****     CMM_PARAM_CHK((!(CMM_PORT_VALID(unit,port))), CMM_ERR_PORT);
 1049              		.loc 1 132 5 discriminator 5 view .LVU296
 1050 0070 0420     		movs	r0, #4
 1051 0072 DCE7     		b	.L98
 1052              	.LVL129:
 1053              	.L115:
 132:../switch_sdk/core/yt/yt_nic.c ****     CMM_PARAM_CHK((!(CMM_PORT_VALID(unit,port))), CMM_ERR_PORT);
 1054              		.loc 1 132 5 discriminator 3 view .LVU297
 1055              	.LBB22:
 132:../switch_sdk/core/yt/yt_nic.c ****     CMM_PARAM_CHK((!(CMM_PORT_VALID(unit,port))), CMM_ERR_PORT);
 1056              		.loc 1 132 5 discriminator 3 view .LVU298
 1057 0074 0E4B     		ldr	r3, .L117+16
 1058 0076 1A69     		ldr	r2, [r3, #16]
 1059 0078 0E4B     		ldr	r3, .L117+20
 1060 007a 9968     		ldr	r1, [r3, #8]
 1061              	.LVL130:
 132:../switch_sdk/core/yt/yt_nic.c ****     CMM_PARAM_CHK((!(CMM_PORT_VALID(unit,port))), CMM_ERR_PORT);
 1062              		.loc 1 132 5 is_stmt 0 discriminator 3 view .LVU299
 1063 007c 0E48     		ldr	r0, .L117+24
 1064 007e FFF7FEFF 		bl	osal_printf
 1065              	.LVL131:
 1066 0082 F5E7     		b	.L105
 1067              	.LVL132:
 1068              	.L106:
 132:../switch_sdk/core/yt/yt_nic.c ****     CMM_PARAM_CHK((!(CMM_PORT_VALID(unit,port))), CMM_ERR_PORT);
 1069              		.loc 1 132 5 discriminator 3 view .LVU300
 1070              	.LBE22:
 133:../switch_sdk/core/yt/yt_nic.c **** 
 1071              		.loc 1 133 5 is_stmt 1 discriminator 3 view .LVU301
 133:../switch_sdk/core/yt/yt_nic.c **** 
 1072              		.loc 1 133 5 discriminator 3 view .LVU302
 1073 0084 094B     		ldr	r3, .L117+12
 1074 0086 1B78     		ldrb	r3, [r3]	@ zero_extendqisi2
 1075 0088 012B     		cmp	r3, #1
 1076 008a 01D8     		bhi	.L116
 1077              	.LVL133:
 1078              	.L108:
 133:../switch_sdk/core/yt/yt_nic.c **** 
 1079              		.loc 1 133 5 discriminator 7 view .LVU303
 133:../switch_sdk/core/yt/yt_nic.c **** 
 1080              		.loc 1 133 5 discriminator 7 view .LVU304
 133:../switch_sdk/core/yt/yt_nic.c **** 
 1081              		.loc 1 133 5 discriminator 7 view .LVU305
 1082 008c 0E20     		movs	r0, #14
 1083 008e CEE7     		b	.L98
 1084              	.LVL134:
 1085              	.L116:
 133:../switch_sdk/core/yt/yt_nic.c **** 
 1086              		.loc 1 133 5 discriminator 5 view .LVU306
 1087              	.LBB23:
 133:../switch_sdk/core/yt/yt_nic.c **** 
 1088              		.loc 1 133 5 discriminator 5 view .LVU307
 1089 0090 074B     		ldr	r3, .L117+16
 1090 0092 9A6B     		ldr	r2, [r3, #56]
 1091 0094 074B     		ldr	r3, .L117+20
 1092 0096 9968     		ldr	r1, [r3, #8]
 1093              	.LVL135:
 133:../switch_sdk/core/yt/yt_nic.c **** 
 1094              		.loc 1 133 5 is_stmt 0 discriminator 5 view .LVU308
 1095 0098 0748     		ldr	r0, .L117+24
 1096 009a FFF7FEFF 		bl	osal_printf
 1097              	.LVL136:
 1098 009e F5E7     		b	.L108
 1099              	.L118:
 1100              		.align	2
 1101              	.L117:
 1102 00a0 00000000 		.word	gpfal_dispatch
 1103 00a4 00000000 		.word	gcal_inited
 1104 00a8 00000000 		.word	gpSwitchUnit
 1105 00ac 00000000 		.word	yt_debug_level
 1106 00b0 00000000 		.word	_yt_errmsg
 1107 00b4 00000000 		.word	_yt_prompt_msg
 1108 00b8 00000000 		.word	.LC0
 1109              	.LBE23:
 1110              		.cfi_endproc
 1111              	.LFE8:
 1113              		.section	.text.yt_nic_ext_cpuport_port_get,"ax",%progbits
 1114              		.align	1
 1115              		.global	yt_nic_ext_cpuport_port_get
 1116              		.syntax unified
 1117              		.thumb
 1118              		.thumb_func
 1120              	yt_nic_ext_cpuport_port_get:
 1121              	.LVL137:
 1122              	.LFB9:
 137:../switch_sdk/core/yt/yt_nic.c **** 
 138:../switch_sdk/core/yt/yt_nic.c **** /**
 139:../switch_sdk/core/yt/yt_nic.c ****  * @internal      yt_nic_ext_cpuport_port_get
 140:../switch_sdk/core/yt/yt_nic.c ****  * @endinternal
 141:../switch_sdk/core/yt/yt_nic.c ****  *
 142:../switch_sdk/core/yt/yt_nic.c ****  * @brief         Description
 143:../switch_sdk/core/yt/yt_nic.c ****  * @param[in]     unit                -unit id
 144:../switch_sdk/core/yt/yt_nic.c ****  * @param[out]    pPort               -port num
 145:../switch_sdk/core/yt/yt_nic.c ****  * @retval        CMM_ERR_OK          -on success
 146:../switch_sdk/core/yt/yt_nic.c ****  * @retval        CMM_ERR_FAIL        -on fail
 147:../switch_sdk/core/yt/yt_nic.c ****  */
 148:../switch_sdk/core/yt/yt_nic.c **** yt_ret_t  yt_nic_ext_cpuport_port_get(yt_unit_t unit,  yt_port_t *pPort)
 149:../switch_sdk/core/yt/yt_nic.c **** {
 1123              		.loc 1 149 1 is_stmt 1 view -0
 1124              		.cfi_startproc
 1125              		@ args = 0, pretend = 0, frame = 0
 1126              		@ frame_needed = 0, uses_anonymous_args = 0
 1127              		.loc 1 149 1 is_stmt 0 view .LVU310
 1128 0000 08B5     		push	{r3, lr}
 1129              		.cfi_def_cfa_offset 8
 1130              		.cfi_offset 3, -8
 1131              		.cfi_offset 14, -4
 150:../switch_sdk/core/yt/yt_nic.c ****     CMM_PARAM_CHK((YT_UNIT_NUM <= unit), CMM_ERR_INPUT);
 1132              		.loc 1 150 5 is_stmt 1 view .LVU311
 1133              		.loc 1 150 5 view .LVU312
 1134 0002 68B9     		cbnz	r0, .L130
 1135 0004 0246     		mov	r2, r0
 1136              		.loc 1 150 5 discriminator 2 view .LVU313
 151:../switch_sdk/core/yt/yt_nic.c ****     CMM_PARAM_CHK(NULL == YT_DISPATCH(unit), CMM_ERR_NOT_INIT);
 1137              		.loc 1 151 5 discriminator 2 view .LVU314
 1138              		.loc 1 151 5 discriminator 2 view .LVU315
 1139 0006 224B     		ldr	r3, .L138
 1140 0008 53F82030 		ldr	r3, [r3, r0, lsl #2]
 1141 000c B3B1     		cbz	r3, .L131
 1142              		.loc 1 151 5 discriminator 2 view .LVU316
 152:../switch_sdk/core/yt/yt_nic.c ****     CMM_PARAM_CHK((!(YT_DISPATCH(unit)->is_inited)), CMM_ERR_NOT_INIT);
 1143              		.loc 1 152 5 discriminator 2 view .LVU317
 1144              		.loc 1 152 5 discriminator 2 view .LVU318
 1145 000e 1878     		ldrb	r0, [r3]	@ zero_extendqisi2
 1146              	.LVL138:
 1147              		.loc 1 152 5 is_stmt 0 discriminator 2 view .LVU319
 1148 0010 10B3     		cbz	r0, .L132
 1149              		.loc 1 152 5 is_stmt 1 discriminator 2 view .LVU320
 153:../switch_sdk/core/yt/yt_nic.c ****     CMM_PARAM_CHK((NULL == pPort), CMM_ERR_NULL_POINT);
 1150              		.loc 1 153 5 discriminator 2 view .LVU321
 1151              		.loc 1 153 5 discriminator 2 view .LVU322
 1152 0012 0029     		cmp	r1, #0
 1153 0014 2ED0     		beq	.L133
 1154              		.loc 1 153 5 discriminator 2 view .LVU323
 154:../switch_sdk/core/yt/yt_nic.c **** 
 155:../switch_sdk/core/yt/yt_nic.c ****     return YT_DISPATCH(unit)->nic_ext_cpuport_port_get(unit, pPort);
 1155              		.loc 1 155 5 discriminator 2 view .LVU324
 1156              		.loc 1 155 29 is_stmt 0 discriminator 2 view .LVU325
 1157 0016 D3F8E434 		ldr	r3, [r3, #1252]
 1158              		.loc 1 155 12 discriminator 2 view .LVU326
 1159 001a 1046     		mov	r0, r2
 1160 001c 9847     		blx	r3
 1161              	.LVL139:
 1162              	.L119:
 156:../switch_sdk/core/yt/yt_nic.c **** }
 1163              		.loc 1 156 1 view .LVU327
 1164 001e 08BD     		pop	{r3, pc}
 1165              	.LVL140:
 1166              	.L130:
 150:../switch_sdk/core/yt/yt_nic.c ****     CMM_PARAM_CHK(NULL == YT_DISPATCH(unit), CMM_ERR_NOT_INIT);
 1167              		.loc 1 150 5 is_stmt 1 discriminator 1 view .LVU328
 150:../switch_sdk/core/yt/yt_nic.c ****     CMM_PARAM_CHK(NULL == YT_DISPATCH(unit), CMM_ERR_NOT_INIT);
 1168              		.loc 1 150 5 discriminator 1 view .LVU329
 1169 0020 1C4B     		ldr	r3, .L138+4
 1170 0022 1B78     		ldrb	r3, [r3]	@ zero_extendqisi2
 1171 0024 012B     		cmp	r3, #1
 1172 0026 01D8     		bhi	.L134
 1173              	.LVL141:
 1174              	.L121:
 150:../switch_sdk/core/yt/yt_nic.c ****     CMM_PARAM_CHK(NULL == YT_DISPATCH(unit), CMM_ERR_NOT_INIT);
 1175              		.loc 1 150 5 discriminator 5 view .LVU330
 150:../switch_sdk/core/yt/yt_nic.c ****     CMM_PARAM_CHK(NULL == YT_DISPATCH(unit), CMM_ERR_NOT_INIT);
 1176              		.loc 1 150 5 discriminator 5 view .LVU331
 150:../switch_sdk/core/yt/yt_nic.c ****     CMM_PARAM_CHK(NULL == YT_DISPATCH(unit), CMM_ERR_NOT_INIT);
 1177              		.loc 1 150 5 discriminator 5 view .LVU332
 1178 0028 0520     		movs	r0, #5
 1179 002a F8E7     		b	.L119
 1180              	.LVL142:
 1181              	.L134:
 150:../switch_sdk/core/yt/yt_nic.c ****     CMM_PARAM_CHK(NULL == YT_DISPATCH(unit), CMM_ERR_NOT_INIT);
 1182              		.loc 1 150 5 discriminator 3 view .LVU333
 1183              	.LBB24:
 150:../switch_sdk/core/yt/yt_nic.c ****     CMM_PARAM_CHK(NULL == YT_DISPATCH(unit), CMM_ERR_NOT_INIT);
 1184              		.loc 1 150 5 discriminator 3 view .LVU334
 1185 002c 1A4B     		ldr	r3, .L138+8
 1186 002e 5A69     		ldr	r2, [r3, #20]
 1187 0030 1A4B     		ldr	r3, .L138+12
 1188 0032 9968     		ldr	r1, [r3, #8]
 1189              	.LVL143:
 150:../switch_sdk/core/yt/yt_nic.c ****     CMM_PARAM_CHK(NULL == YT_DISPATCH(unit), CMM_ERR_NOT_INIT);
 1190              		.loc 1 150 5 is_stmt 0 discriminator 3 view .LVU335
 1191 0034 1A48     		ldr	r0, .L138+16
 1192              	.LVL144:
 150:../switch_sdk/core/yt/yt_nic.c ****     CMM_PARAM_CHK(NULL == YT_DISPATCH(unit), CMM_ERR_NOT_INIT);
 1193              		.loc 1 150 5 discriminator 3 view .LVU336
 1194 0036 FFF7FEFF 		bl	osal_printf
 1195              	.LVL145:
 1196 003a F5E7     		b	.L121
 1197              	.LVL146:
 1198              	.L131:
 150:../switch_sdk/core/yt/yt_nic.c ****     CMM_PARAM_CHK(NULL == YT_DISPATCH(unit), CMM_ERR_NOT_INIT);
 1199              		.loc 1 150 5 discriminator 3 view .LVU337
 1200              	.LBE24:
 151:../switch_sdk/core/yt/yt_nic.c ****     CMM_PARAM_CHK((!(YT_DISPATCH(unit)->is_inited)), CMM_ERR_NOT_INIT);
 1201              		.loc 1 151 5 is_stmt 1 discriminator 1 view .LVU338
 151:../switch_sdk/core/yt/yt_nic.c ****     CMM_PARAM_CHK((!(YT_DISPATCH(unit)->is_inited)), CMM_ERR_NOT_INIT);
 1202              		.loc 1 151 5 discriminator 1 view .LVU339
 1203 003c 154B     		ldr	r3, .L138+4
 1204 003e 1B78     		ldrb	r3, [r3]	@ zero_extendqisi2
 1205 0040 012B     		cmp	r3, #1
 1206 0042 01D8     		bhi	.L135
 1207              	.LVL147:
 1208              	.L124:
 151:../switch_sdk/core/yt/yt_nic.c ****     CMM_PARAM_CHK((!(YT_DISPATCH(unit)->is_inited)), CMM_ERR_NOT_INIT);
 1209              		.loc 1 151 5 discriminator 5 view .LVU340
 151:../switch_sdk/core/yt/yt_nic.c ****     CMM_PARAM_CHK((!(YT_DISPATCH(unit)->is_inited)), CMM_ERR_NOT_INIT);
 1210              		.loc 1 151 5 discriminator 5 view .LVU341
 151:../switch_sdk/core/yt/yt_nic.c ****     CMM_PARAM_CHK((!(YT_DISPATCH(unit)->is_inited)), CMM_ERR_NOT_INIT);
 1211              		.loc 1 151 5 discriminator 5 view .LVU342
 1212 0044 0420     		movs	r0, #4
 1213 0046 EAE7     		b	.L119
 1214              	.LVL148:
 1215              	.L135:
 151:../switch_sdk/core/yt/yt_nic.c ****     CMM_PARAM_CHK((!(YT_DISPATCH(unit)->is_inited)), CMM_ERR_NOT_INIT);
 1216              		.loc 1 151 5 discriminator 3 view .LVU343
 1217              	.LBB25:
 151:../switch_sdk/core/yt/yt_nic.c ****     CMM_PARAM_CHK((!(YT_DISPATCH(unit)->is_inited)), CMM_ERR_NOT_INIT);
 1218              		.loc 1 151 5 discriminator 3 view .LVU344
 1219 0048 134B     		ldr	r3, .L138+8
 1220 004a 1A69     		ldr	r2, [r3, #16]
 1221 004c 134B     		ldr	r3, .L138+12
 1222 004e 9968     		ldr	r1, [r3, #8]
 1223              	.LVL149:
 151:../switch_sdk/core/yt/yt_nic.c ****     CMM_PARAM_CHK((!(YT_DISPATCH(unit)->is_inited)), CMM_ERR_NOT_INIT);
 1224              		.loc 1 151 5 is_stmt 0 discriminator 3 view .LVU345
 1225 0050 1348     		ldr	r0, .L138+16
 1226              	.LVL150:
 151:../switch_sdk/core/yt/yt_nic.c ****     CMM_PARAM_CHK((!(YT_DISPATCH(unit)->is_inited)), CMM_ERR_NOT_INIT);
 1227              		.loc 1 151 5 discriminator 3 view .LVU346
 1228 0052 FFF7FEFF 		bl	osal_printf
 1229              	.LVL151:
 1230 0056 F5E7     		b	.L124
 1231              	.LVL152:
 1232              	.L132:
 151:../switch_sdk/core/yt/yt_nic.c ****     CMM_PARAM_CHK((!(YT_DISPATCH(unit)->is_inited)), CMM_ERR_NOT_INIT);
 1233              		.loc 1 151 5 discriminator 3 view .LVU347
 1234              	.LBE25:
 152:../switch_sdk/core/yt/yt_nic.c ****     CMM_PARAM_CHK((NULL == pPort), CMM_ERR_NULL_POINT);
 1235              		.loc 1 152 5 is_stmt 1 discriminator 1 view .LVU348
 152:../switch_sdk/core/yt/yt_nic.c ****     CMM_PARAM_CHK((NULL == pPort), CMM_ERR_NULL_POINT);
 1236              		.loc 1 152 5 discriminator 1 view .LVU349
 1237 0058 0E4B     		ldr	r3, .L138+4
 1238 005a 1B78     		ldrb	r3, [r3]	@ zero_extendqisi2
 1239 005c 012B     		cmp	r3, #1
 1240 005e 01D8     		bhi	.L136
 1241              	.LVL153:
 1242              	.L126:
 152:../switch_sdk/core/yt/yt_nic.c ****     CMM_PARAM_CHK((NULL == pPort), CMM_ERR_NULL_POINT);
 1243              		.loc 1 152 5 discriminator 5 view .LVU350
 152:../switch_sdk/core/yt/yt_nic.c ****     CMM_PARAM_CHK((NULL == pPort), CMM_ERR_NULL_POINT);
 1244              		.loc 1 152 5 discriminator 5 view .LVU351
 152:../switch_sdk/core/yt/yt_nic.c ****     CMM_PARAM_CHK((NULL == pPort), CMM_ERR_NULL_POINT);
 1245              		.loc 1 152 5 discriminator 5 view .LVU352
 1246 0060 0420     		movs	r0, #4
 1247 0062 DCE7     		b	.L119
 1248              	.LVL154:
 1249              	.L136:
 152:../switch_sdk/core/yt/yt_nic.c ****     CMM_PARAM_CHK((NULL == pPort), CMM_ERR_NULL_POINT);
 1250              		.loc 1 152 5 discriminator 3 view .LVU353
 1251              	.LBB26:
 152:../switch_sdk/core/yt/yt_nic.c ****     CMM_PARAM_CHK((NULL == pPort), CMM_ERR_NULL_POINT);
 1252              		.loc 1 152 5 discriminator 3 view .LVU354
 1253 0064 0C4B     		ldr	r3, .L138+8
 1254 0066 1A69     		ldr	r2, [r3, #16]
 1255 0068 0C4B     		ldr	r3, .L138+12
 1256 006a 9968     		ldr	r1, [r3, #8]
 1257              	.LVL155:
 152:../switch_sdk/core/yt/yt_nic.c ****     CMM_PARAM_CHK((NULL == pPort), CMM_ERR_NULL_POINT);
 1258              		.loc 1 152 5 is_stmt 0 discriminator 3 view .LVU355
 1259 006c 0C48     		ldr	r0, .L138+16
 1260 006e FFF7FEFF 		bl	osal_printf
 1261              	.LVL156:
 1262 0072 F5E7     		b	.L126
 1263              	.LVL157:
 1264              	.L133:
 152:../switch_sdk/core/yt/yt_nic.c ****     CMM_PARAM_CHK((NULL == pPort), CMM_ERR_NULL_POINT);
 1265              		.loc 1 152 5 discriminator 3 view .LVU356
 1266              	.LBE26:
 153:../switch_sdk/core/yt/yt_nic.c **** 
 1267              		.loc 1 153 5 is_stmt 1 discriminator 1 view .LVU357
 153:../switch_sdk/core/yt/yt_nic.c **** 
 1268              		.loc 1 153 5 discriminator 1 view .LVU358
 1269 0074 074B     		ldr	r3, .L138+4
 1270 0076 1B78     		ldrb	r3, [r3]	@ zero_extendqisi2
 1271 0078 012B     		cmp	r3, #1
 1272 007a 01D8     		bhi	.L137
 1273              	.LVL158:
 1274              	.L128:
 153:../switch_sdk/core/yt/yt_nic.c **** 
 1275              		.loc 1 153 5 discriminator 5 view .LVU359
 153:../switch_sdk/core/yt/yt_nic.c **** 
 1276              		.loc 1 153 5 discriminator 5 view .LVU360
 153:../switch_sdk/core/yt/yt_nic.c **** 
 1277              		.loc 1 153 5 discriminator 5 view .LVU361
 1278 007c 0220     		movs	r0, #2
 1279 007e CEE7     		b	.L119
 1280              	.LVL159:
 1281              	.L137:
 153:../switch_sdk/core/yt/yt_nic.c **** 
 1282              		.loc 1 153 5 discriminator 3 view .LVU362
 1283              	.LBB27:
 153:../switch_sdk/core/yt/yt_nic.c **** 
 1284              		.loc 1 153 5 discriminator 3 view .LVU363
 1285 0080 054B     		ldr	r3, .L138+8
 1286 0082 9A68     		ldr	r2, [r3, #8]
 1287 0084 054B     		ldr	r3, .L138+12
 1288 0086 9968     		ldr	r1, [r3, #8]
 1289              	.LVL160:
 153:../switch_sdk/core/yt/yt_nic.c **** 
 1290              		.loc 1 153 5 is_stmt 0 discriminator 3 view .LVU364
 1291 0088 0548     		ldr	r0, .L138+16
 1292 008a FFF7FEFF 		bl	osal_printf
 1293              	.LVL161:
 1294 008e F5E7     		b	.L128
 1295              	.L139:
 1296              		.align	2
 1297              	.L138:
 1298 0090 00000000 		.word	gpfal_dispatch
 1299 0094 00000000 		.word	yt_debug_level
 1300 0098 00000000 		.word	_yt_errmsg
 1301 009c 00000000 		.word	_yt_prompt_msg
 1302 00a0 00000000 		.word	.LC0
 1303              	.LBE27:
 1304              		.cfi_endproc
 1305              	.LFE9:
 1307              		.section	.text.yt_nic_cpuport_tagtpid_set,"ax",%progbits
 1308              		.align	1
 1309              		.global	yt_nic_cpuport_tagtpid_set
 1310              		.syntax unified
 1311              		.thumb
 1312              		.thumb_func
 1314              	yt_nic_cpuport_tagtpid_set:
 1315              	.LVL162:
 1316              	.LFB10:
 157:../switch_sdk/core/yt/yt_nic.c **** 
 158:../switch_sdk/core/yt/yt_nic.c **** /**
 159:../switch_sdk/core/yt/yt_nic.c ****  * @internal      yt_nic_cpuport_tagtpid_set
 160:../switch_sdk/core/yt/yt_nic.c ****  * @endinternal
 161:../switch_sdk/core/yt/yt_nic.c ****  *
 162:../switch_sdk/core/yt/yt_nic.c ****  * @brief         Description
 163:../switch_sdk/core/yt/yt_nic.c ****  * @param[in]     unit                -unit id
 164:../switch_sdk/core/yt/yt_nic.c ****  * @param[in]     tpid                -TPID
 165:../switch_sdk/core/yt/yt_nic.c ****  * @retval        CMM_ERR_OK          -on success
 166:../switch_sdk/core/yt/yt_nic.c ****  * @retval        CMM_ERR_FAIL        -on fail
 167:../switch_sdk/core/yt/yt_nic.c ****  */
 168:../switch_sdk/core/yt/yt_nic.c **** yt_ret_t  yt_nic_cpuport_tagtpid_set(yt_unit_t unit, uint16_t tpid)
 169:../switch_sdk/core/yt/yt_nic.c **** {
 1317              		.loc 1 169 1 is_stmt 1 view -0
 1318              		.cfi_startproc
 1319              		@ args = 0, pretend = 0, frame = 0
 1320              		@ frame_needed = 0, uses_anonymous_args = 0
 1321              		.loc 1 169 1 is_stmt 0 view .LVU366
 1322 0000 08B5     		push	{r3, lr}
 1323              		.cfi_def_cfa_offset 8
 1324              		.cfi_offset 3, -8
 1325              		.cfi_offset 14, -4
 170:../switch_sdk/core/yt/yt_nic.c ****     CMM_PARAM_CHK((YT_UNIT_NUM <= unit), CMM_ERR_INPUT);
 1326              		.loc 1 170 5 is_stmt 1 view .LVU367
 1327              		.loc 1 170 5 view .LVU368
 1328 0002 58B9     		cbnz	r0, .L149
 1329 0004 0246     		mov	r2, r0
 1330              		.loc 1 170 5 discriminator 2 view .LVU369
 171:../switch_sdk/core/yt/yt_nic.c ****     CMM_PARAM_CHK(NULL == YT_DISPATCH(unit), CMM_ERR_NOT_INIT);
 1331              		.loc 1 171 5 discriminator 2 view .LVU370
 1332              		.loc 1 171 5 discriminator 2 view .LVU371
 1333 0006 1A4B     		ldr	r3, .L155
 1334 0008 53F82030 		ldr	r3, [r3, r0, lsl #2]
 1335 000c A3B1     		cbz	r3, .L150
 1336              		.loc 1 171 5 discriminator 2 view .LVU372
 172:../switch_sdk/core/yt/yt_nic.c ****     CMM_PARAM_CHK((!(YT_DISPATCH(unit)->is_inited)), CMM_ERR_NOT_INIT);
 1337              		.loc 1 172 5 discriminator 2 view .LVU373
 1338              		.loc 1 172 5 discriminator 2 view .LVU374
 1339 000e 1878     		ldrb	r0, [r3]	@ zero_extendqisi2
 1340              	.LVL163:
 1341              		.loc 1 172 5 is_stmt 0 discriminator 2 view .LVU375
 1342 0010 00B3     		cbz	r0, .L151
 1343              		.loc 1 172 5 is_stmt 1 discriminator 2 view .LVU376
 173:../switch_sdk/core/yt/yt_nic.c **** 
 174:../switch_sdk/core/yt/yt_nic.c ****     return YT_DISPATCH(unit)->nic_cpuport_tagtpid_set(unit, tpid);
 1344              		.loc 1 174 5 discriminator 2 view .LVU377
 1345              		.loc 1 174 29 is_stmt 0 discriminator 2 view .LVU378
 1346 0012 D3F8E834 		ldr	r3, [r3, #1256]
 1347              		.loc 1 174 12 discriminator 2 view .LVU379
 1348 0016 1046     		mov	r0, r2
 1349 0018 9847     		blx	r3
 1350              	.LVL164:
 1351              	.L140:
 175:../switch_sdk/core/yt/yt_nic.c **** }
 1352              		.loc 1 175 1 view .LVU380
 1353 001a 08BD     		pop	{r3, pc}
 1354              	.LVL165:
 1355              	.L149:
 170:../switch_sdk/core/yt/yt_nic.c ****     CMM_PARAM_CHK(NULL == YT_DISPATCH(unit), CMM_ERR_NOT_INIT);
 1356              		.loc 1 170 5 is_stmt 1 discriminator 1 view .LVU381
 170:../switch_sdk/core/yt/yt_nic.c ****     CMM_PARAM_CHK(NULL == YT_DISPATCH(unit), CMM_ERR_NOT_INIT);
 1357              		.loc 1 170 5 discriminator 1 view .LVU382
 1358 001c 154B     		ldr	r3, .L155+4
 1359 001e 1B78     		ldrb	r3, [r3]	@ zero_extendqisi2
 1360 0020 012B     		cmp	r3, #1
 1361 0022 01D8     		bhi	.L152
 1362              	.LVL166:
 1363              	.L142:
 170:../switch_sdk/core/yt/yt_nic.c ****     CMM_PARAM_CHK(NULL == YT_DISPATCH(unit), CMM_ERR_NOT_INIT);
 1364              		.loc 1 170 5 discriminator 5 view .LVU383
 170:../switch_sdk/core/yt/yt_nic.c ****     CMM_PARAM_CHK(NULL == YT_DISPATCH(unit), CMM_ERR_NOT_INIT);
 1365              		.loc 1 170 5 discriminator 5 view .LVU384
 170:../switch_sdk/core/yt/yt_nic.c ****     CMM_PARAM_CHK(NULL == YT_DISPATCH(unit), CMM_ERR_NOT_INIT);
 1366              		.loc 1 170 5 discriminator 5 view .LVU385
 1367 0024 0520     		movs	r0, #5
 1368 0026 F8E7     		b	.L140
 1369              	.LVL167:
 1370              	.L152:
 170:../switch_sdk/core/yt/yt_nic.c ****     CMM_PARAM_CHK(NULL == YT_DISPATCH(unit), CMM_ERR_NOT_INIT);
 1371              		.loc 1 170 5 discriminator 3 view .LVU386
 1372              	.LBB28:
 170:../switch_sdk/core/yt/yt_nic.c ****     CMM_PARAM_CHK(NULL == YT_DISPATCH(unit), CMM_ERR_NOT_INIT);
 1373              		.loc 1 170 5 discriminator 3 view .LVU387
 1374 0028 134B     		ldr	r3, .L155+8
 1375 002a 5A69     		ldr	r2, [r3, #20]
 1376 002c 134B     		ldr	r3, .L155+12
 1377 002e 9968     		ldr	r1, [r3, #8]
 1378              	.LVL168:
 170:../switch_sdk/core/yt/yt_nic.c ****     CMM_PARAM_CHK(NULL == YT_DISPATCH(unit), CMM_ERR_NOT_INIT);
 1379              		.loc 1 170 5 is_stmt 0 discriminator 3 view .LVU388
 1380 0030 1348     		ldr	r0, .L155+16
 1381              	.LVL169:
 170:../switch_sdk/core/yt/yt_nic.c ****     CMM_PARAM_CHK(NULL == YT_DISPATCH(unit), CMM_ERR_NOT_INIT);
 1382              		.loc 1 170 5 discriminator 3 view .LVU389
 1383 0032 FFF7FEFF 		bl	osal_printf
 1384              	.LVL170:
 1385 0036 F5E7     		b	.L142
 1386              	.LVL171:
 1387              	.L150:
 170:../switch_sdk/core/yt/yt_nic.c ****     CMM_PARAM_CHK(NULL == YT_DISPATCH(unit), CMM_ERR_NOT_INIT);
 1388              		.loc 1 170 5 discriminator 3 view .LVU390
 1389              	.LBE28:
 171:../switch_sdk/core/yt/yt_nic.c ****     CMM_PARAM_CHK((!(YT_DISPATCH(unit)->is_inited)), CMM_ERR_NOT_INIT);
 1390              		.loc 1 171 5 is_stmt 1 discriminator 1 view .LVU391
 171:../switch_sdk/core/yt/yt_nic.c ****     CMM_PARAM_CHK((!(YT_DISPATCH(unit)->is_inited)), CMM_ERR_NOT_INIT);
 1391              		.loc 1 171 5 discriminator 1 view .LVU392
 1392 0038 0E4B     		ldr	r3, .L155+4
 1393 003a 1B78     		ldrb	r3, [r3]	@ zero_extendqisi2
 1394 003c 012B     		cmp	r3, #1
 1395 003e 01D8     		bhi	.L153
 1396              	.LVL172:
 1397              	.L145:
 171:../switch_sdk/core/yt/yt_nic.c ****     CMM_PARAM_CHK((!(YT_DISPATCH(unit)->is_inited)), CMM_ERR_NOT_INIT);
 1398              		.loc 1 171 5 discriminator 5 view .LVU393
 171:../switch_sdk/core/yt/yt_nic.c ****     CMM_PARAM_CHK((!(YT_DISPATCH(unit)->is_inited)), CMM_ERR_NOT_INIT);
 1399              		.loc 1 171 5 discriminator 5 view .LVU394
 171:../switch_sdk/core/yt/yt_nic.c ****     CMM_PARAM_CHK((!(YT_DISPATCH(unit)->is_inited)), CMM_ERR_NOT_INIT);
 1400              		.loc 1 171 5 discriminator 5 view .LVU395
 1401 0040 0420     		movs	r0, #4
 1402 0042 EAE7     		b	.L140
 1403              	.LVL173:
 1404              	.L153:
 171:../switch_sdk/core/yt/yt_nic.c ****     CMM_PARAM_CHK((!(YT_DISPATCH(unit)->is_inited)), CMM_ERR_NOT_INIT);
 1405              		.loc 1 171 5 discriminator 3 view .LVU396
 1406              	.LBB29:
 171:../switch_sdk/core/yt/yt_nic.c ****     CMM_PARAM_CHK((!(YT_DISPATCH(unit)->is_inited)), CMM_ERR_NOT_INIT);
 1407              		.loc 1 171 5 discriminator 3 view .LVU397
 1408 0044 0C4B     		ldr	r3, .L155+8
 1409 0046 1A69     		ldr	r2, [r3, #16]
 1410 0048 0C4B     		ldr	r3, .L155+12
 1411 004a 9968     		ldr	r1, [r3, #8]
 1412              	.LVL174:
 171:../switch_sdk/core/yt/yt_nic.c ****     CMM_PARAM_CHK((!(YT_DISPATCH(unit)->is_inited)), CMM_ERR_NOT_INIT);
 1413              		.loc 1 171 5 is_stmt 0 discriminator 3 view .LVU398
 1414 004c 0C48     		ldr	r0, .L155+16
 1415              	.LVL175:
 171:../switch_sdk/core/yt/yt_nic.c ****     CMM_PARAM_CHK((!(YT_DISPATCH(unit)->is_inited)), CMM_ERR_NOT_INIT);
 1416              		.loc 1 171 5 discriminator 3 view .LVU399
 1417 004e FFF7FEFF 		bl	osal_printf
 1418              	.LVL176:
 1419 0052 F5E7     		b	.L145
 1420              	.LVL177:
 1421              	.L151:
 171:../switch_sdk/core/yt/yt_nic.c ****     CMM_PARAM_CHK((!(YT_DISPATCH(unit)->is_inited)), CMM_ERR_NOT_INIT);
 1422              		.loc 1 171 5 discriminator 3 view .LVU400
 1423              	.LBE29:
 172:../switch_sdk/core/yt/yt_nic.c **** 
 1424              		.loc 1 172 5 is_stmt 1 discriminator 1 view .LVU401
 172:../switch_sdk/core/yt/yt_nic.c **** 
 1425              		.loc 1 172 5 discriminator 1 view .LVU402
 1426 0054 074B     		ldr	r3, .L155+4
 1427 0056 1B78     		ldrb	r3, [r3]	@ zero_extendqisi2
 1428 0058 012B     		cmp	r3, #1
 1429 005a 01D8     		bhi	.L154
 1430              	.LVL178:
 1431              	.L147:
 172:../switch_sdk/core/yt/yt_nic.c **** 
 1432              		.loc 1 172 5 discriminator 5 view .LVU403
 172:../switch_sdk/core/yt/yt_nic.c **** 
 1433              		.loc 1 172 5 discriminator 5 view .LVU404
 172:../switch_sdk/core/yt/yt_nic.c **** 
 1434              		.loc 1 172 5 discriminator 5 view .LVU405
 1435 005c 0420     		movs	r0, #4
 1436 005e DCE7     		b	.L140
 1437              	.LVL179:
 1438              	.L154:
 172:../switch_sdk/core/yt/yt_nic.c **** 
 1439              		.loc 1 172 5 discriminator 3 view .LVU406
 1440              	.LBB30:
 172:../switch_sdk/core/yt/yt_nic.c **** 
 1441              		.loc 1 172 5 discriminator 3 view .LVU407
 1442 0060 054B     		ldr	r3, .L155+8
 1443 0062 1A69     		ldr	r2, [r3, #16]
 1444 0064 054B     		ldr	r3, .L155+12
 1445 0066 9968     		ldr	r1, [r3, #8]
 1446              	.LVL180:
 172:../switch_sdk/core/yt/yt_nic.c **** 
 1447              		.loc 1 172 5 is_stmt 0 discriminator 3 view .LVU408
 1448 0068 0548     		ldr	r0, .L155+16
 1449 006a FFF7FEFF 		bl	osal_printf
 1450              	.LVL181:
 1451 006e F5E7     		b	.L147
 1452              	.L156:
 1453              		.align	2
 1454              	.L155:
 1455 0070 00000000 		.word	gpfal_dispatch
 1456 0074 00000000 		.word	yt_debug_level
 1457 0078 00000000 		.word	_yt_errmsg
 1458 007c 00000000 		.word	_yt_prompt_msg
 1459 0080 00000000 		.word	.LC0
 1460              	.LBE30:
 1461              		.cfi_endproc
 1462              	.LFE10:
 1464              		.section	.text.yt_nic_cpuport_tagtpid_get,"ax",%progbits
 1465              		.align	1
 1466              		.global	yt_nic_cpuport_tagtpid_get
 1467              		.syntax unified
 1468              		.thumb
 1469              		.thumb_func
 1471              	yt_nic_cpuport_tagtpid_get:
 1472              	.LVL182:
 1473              	.LFB11:
 176:../switch_sdk/core/yt/yt_nic.c **** 
 177:../switch_sdk/core/yt/yt_nic.c **** /**
 178:../switch_sdk/core/yt/yt_nic.c ****  * @internal      yt_nic_cpuport_tagtpid_get
 179:../switch_sdk/core/yt/yt_nic.c ****  * @endinternal
 180:../switch_sdk/core/yt/yt_nic.c ****  *
 181:../switch_sdk/core/yt/yt_nic.c ****  * @brief         Description
 182:../switch_sdk/core/yt/yt_nic.c ****  * @param[in]     unit                -unit
 183:../switch_sdk/core/yt/yt_nic.c ****  * @param[out]    ptpid               -TPID
 184:../switch_sdk/core/yt/yt_nic.c ****  * @retval        CMM_ERR_OK          -on success
 185:../switch_sdk/core/yt/yt_nic.c ****  * @retval        CMM_ERR_FAIL        -on fail
 186:../switch_sdk/core/yt/yt_nic.c ****  */
 187:../switch_sdk/core/yt/yt_nic.c **** yt_ret_t  yt_nic_cpuport_tagtpid_get(yt_unit_t unit, uint16_t *pTpid)
 188:../switch_sdk/core/yt/yt_nic.c **** {
 1474              		.loc 1 188 1 is_stmt 1 view -0
 1475              		.cfi_startproc
 1476              		@ args = 0, pretend = 0, frame = 0
 1477              		@ frame_needed = 0, uses_anonymous_args = 0
 1478              		.loc 1 188 1 is_stmt 0 view .LVU410
 1479 0000 08B5     		push	{r3, lr}
 1480              		.cfi_def_cfa_offset 8
 1481              		.cfi_offset 3, -8
 1482              		.cfi_offset 14, -4
 189:../switch_sdk/core/yt/yt_nic.c ****     CMM_PARAM_CHK((YT_UNIT_NUM <= unit), CMM_ERR_INPUT);
 1483              		.loc 1 189 5 is_stmt 1 view .LVU411
 1484              		.loc 1 189 5 view .LVU412
 1485 0002 68B9     		cbnz	r0, .L168
 1486 0004 0246     		mov	r2, r0
 1487              		.loc 1 189 5 discriminator 2 view .LVU413
 190:../switch_sdk/core/yt/yt_nic.c ****     CMM_PARAM_CHK(NULL == YT_DISPATCH(unit), CMM_ERR_NOT_INIT);
 1488              		.loc 1 190 5 discriminator 2 view .LVU414
 1489              		.loc 1 190 5 discriminator 2 view .LVU415
 1490 0006 224B     		ldr	r3, .L176
 1491 0008 53F82030 		ldr	r3, [r3, r0, lsl #2]
 1492 000c B3B1     		cbz	r3, .L169
 1493              		.loc 1 190 5 discriminator 2 view .LVU416
 191:../switch_sdk/core/yt/yt_nic.c ****     CMM_PARAM_CHK((!(YT_DISPATCH(unit)->is_inited)), CMM_ERR_NOT_INIT);
 1494              		.loc 1 191 5 discriminator 2 view .LVU417
 1495              		.loc 1 191 5 discriminator 2 view .LVU418
 1496 000e 1878     		ldrb	r0, [r3]	@ zero_extendqisi2
 1497              	.LVL183:
 1498              		.loc 1 191 5 is_stmt 0 discriminator 2 view .LVU419
 1499 0010 10B3     		cbz	r0, .L170
 1500              		.loc 1 191 5 is_stmt 1 discriminator 2 view .LVU420
 192:../switch_sdk/core/yt/yt_nic.c ****     CMM_PARAM_CHK((NULL == pTpid), CMM_ERR_NULL_POINT);
 1501              		.loc 1 192 5 discriminator 2 view .LVU421
 1502              		.loc 1 192 5 discriminator 2 view .LVU422
 1503 0012 0029     		cmp	r1, #0
 1504 0014 2ED0     		beq	.L171
 1505              		.loc 1 192 5 discriminator 2 view .LVU423
 193:../switch_sdk/core/yt/yt_nic.c **** 
 194:../switch_sdk/core/yt/yt_nic.c ****     return YT_DISPATCH(unit)->nic_cpuport_tagtpid_get(unit, pTpid);
 1506              		.loc 1 194 5 discriminator 2 view .LVU424
 1507              		.loc 1 194 29 is_stmt 0 discriminator 2 view .LVU425
 1508 0016 D3F8EC34 		ldr	r3, [r3, #1260]
 1509              		.loc 1 194 12 discriminator 2 view .LVU426
 1510 001a 1046     		mov	r0, r2
 1511 001c 9847     		blx	r3
 1512              	.LVL184:
 1513              	.L157:
 195:../switch_sdk/core/yt/yt_nic.c **** }
 1514              		.loc 1 195 1 view .LVU427
 1515 001e 08BD     		pop	{r3, pc}
 1516              	.LVL185:
 1517              	.L168:
 189:../switch_sdk/core/yt/yt_nic.c ****     CMM_PARAM_CHK(NULL == YT_DISPATCH(unit), CMM_ERR_NOT_INIT);
 1518              		.loc 1 189 5 is_stmt 1 discriminator 1 view .LVU428
 189:../switch_sdk/core/yt/yt_nic.c ****     CMM_PARAM_CHK(NULL == YT_DISPATCH(unit), CMM_ERR_NOT_INIT);
 1519              		.loc 1 189 5 discriminator 1 view .LVU429
 1520 0020 1C4B     		ldr	r3, .L176+4
 1521 0022 1B78     		ldrb	r3, [r3]	@ zero_extendqisi2
 1522 0024 012B     		cmp	r3, #1
 1523 0026 01D8     		bhi	.L172
 1524              	.LVL186:
 1525              	.L159:
 189:../switch_sdk/core/yt/yt_nic.c ****     CMM_PARAM_CHK(NULL == YT_DISPATCH(unit), CMM_ERR_NOT_INIT);
 1526              		.loc 1 189 5 discriminator 5 view .LVU430
 189:../switch_sdk/core/yt/yt_nic.c ****     CMM_PARAM_CHK(NULL == YT_DISPATCH(unit), CMM_ERR_NOT_INIT);
 1527              		.loc 1 189 5 discriminator 5 view .LVU431
 189:../switch_sdk/core/yt/yt_nic.c ****     CMM_PARAM_CHK(NULL == YT_DISPATCH(unit), CMM_ERR_NOT_INIT);
 1528              		.loc 1 189 5 discriminator 5 view .LVU432
 1529 0028 0520     		movs	r0, #5
 1530 002a F8E7     		b	.L157
 1531              	.LVL187:
 1532              	.L172:
 189:../switch_sdk/core/yt/yt_nic.c ****     CMM_PARAM_CHK(NULL == YT_DISPATCH(unit), CMM_ERR_NOT_INIT);
 1533              		.loc 1 189 5 discriminator 3 view .LVU433
 1534              	.LBB31:
 189:../switch_sdk/core/yt/yt_nic.c ****     CMM_PARAM_CHK(NULL == YT_DISPATCH(unit), CMM_ERR_NOT_INIT);
 1535              		.loc 1 189 5 discriminator 3 view .LVU434
 1536 002c 1A4B     		ldr	r3, .L176+8
 1537 002e 5A69     		ldr	r2, [r3, #20]
 1538 0030 1A4B     		ldr	r3, .L176+12
 1539 0032 9968     		ldr	r1, [r3, #8]
 1540              	.LVL188:
 189:../switch_sdk/core/yt/yt_nic.c ****     CMM_PARAM_CHK(NULL == YT_DISPATCH(unit), CMM_ERR_NOT_INIT);
 1541              		.loc 1 189 5 is_stmt 0 discriminator 3 view .LVU435
 1542 0034 1A48     		ldr	r0, .L176+16
 1543              	.LVL189:
 189:../switch_sdk/core/yt/yt_nic.c ****     CMM_PARAM_CHK(NULL == YT_DISPATCH(unit), CMM_ERR_NOT_INIT);
 1544              		.loc 1 189 5 discriminator 3 view .LVU436
 1545 0036 FFF7FEFF 		bl	osal_printf
 1546              	.LVL190:
 1547 003a F5E7     		b	.L159
 1548              	.LVL191:
 1549              	.L169:
 189:../switch_sdk/core/yt/yt_nic.c ****     CMM_PARAM_CHK(NULL == YT_DISPATCH(unit), CMM_ERR_NOT_INIT);
 1550              		.loc 1 189 5 discriminator 3 view .LVU437
 1551              	.LBE31:
 190:../switch_sdk/core/yt/yt_nic.c ****     CMM_PARAM_CHK((!(YT_DISPATCH(unit)->is_inited)), CMM_ERR_NOT_INIT);
 1552              		.loc 1 190 5 is_stmt 1 discriminator 1 view .LVU438
 190:../switch_sdk/core/yt/yt_nic.c ****     CMM_PARAM_CHK((!(YT_DISPATCH(unit)->is_inited)), CMM_ERR_NOT_INIT);
 1553              		.loc 1 190 5 discriminator 1 view .LVU439
 1554 003c 154B     		ldr	r3, .L176+4
 1555 003e 1B78     		ldrb	r3, [r3]	@ zero_extendqisi2
 1556 0040 012B     		cmp	r3, #1
 1557 0042 01D8     		bhi	.L173
 1558              	.LVL192:
 1559              	.L162:
 190:../switch_sdk/core/yt/yt_nic.c ****     CMM_PARAM_CHK((!(YT_DISPATCH(unit)->is_inited)), CMM_ERR_NOT_INIT);
 1560              		.loc 1 190 5 discriminator 5 view .LVU440
 190:../switch_sdk/core/yt/yt_nic.c ****     CMM_PARAM_CHK((!(YT_DISPATCH(unit)->is_inited)), CMM_ERR_NOT_INIT);
 1561              		.loc 1 190 5 discriminator 5 view .LVU441
 190:../switch_sdk/core/yt/yt_nic.c ****     CMM_PARAM_CHK((!(YT_DISPATCH(unit)->is_inited)), CMM_ERR_NOT_INIT);
 1562              		.loc 1 190 5 discriminator 5 view .LVU442
 1563 0044 0420     		movs	r0, #4
 1564 0046 EAE7     		b	.L157
 1565              	.LVL193:
 1566              	.L173:
 190:../switch_sdk/core/yt/yt_nic.c ****     CMM_PARAM_CHK((!(YT_DISPATCH(unit)->is_inited)), CMM_ERR_NOT_INIT);
 1567              		.loc 1 190 5 discriminator 3 view .LVU443
 1568              	.LBB32:
 190:../switch_sdk/core/yt/yt_nic.c ****     CMM_PARAM_CHK((!(YT_DISPATCH(unit)->is_inited)), CMM_ERR_NOT_INIT);
 1569              		.loc 1 190 5 discriminator 3 view .LVU444
 1570 0048 134B     		ldr	r3, .L176+8
 1571 004a 1A69     		ldr	r2, [r3, #16]
 1572 004c 134B     		ldr	r3, .L176+12
 1573 004e 9968     		ldr	r1, [r3, #8]
 1574              	.LVL194:
 190:../switch_sdk/core/yt/yt_nic.c ****     CMM_PARAM_CHK((!(YT_DISPATCH(unit)->is_inited)), CMM_ERR_NOT_INIT);
 1575              		.loc 1 190 5 is_stmt 0 discriminator 3 view .LVU445
 1576 0050 1348     		ldr	r0, .L176+16
 1577              	.LVL195:
 190:../switch_sdk/core/yt/yt_nic.c ****     CMM_PARAM_CHK((!(YT_DISPATCH(unit)->is_inited)), CMM_ERR_NOT_INIT);
 1578              		.loc 1 190 5 discriminator 3 view .LVU446
 1579 0052 FFF7FEFF 		bl	osal_printf
 1580              	.LVL196:
 1581 0056 F5E7     		b	.L162
 1582              	.LVL197:
 1583              	.L170:
 190:../switch_sdk/core/yt/yt_nic.c ****     CMM_PARAM_CHK((!(YT_DISPATCH(unit)->is_inited)), CMM_ERR_NOT_INIT);
 1584              		.loc 1 190 5 discriminator 3 view .LVU447
 1585              	.LBE32:
 191:../switch_sdk/core/yt/yt_nic.c ****     CMM_PARAM_CHK((NULL == pTpid), CMM_ERR_NULL_POINT);
 1586              		.loc 1 191 5 is_stmt 1 discriminator 1 view .LVU448
 191:../switch_sdk/core/yt/yt_nic.c ****     CMM_PARAM_CHK((NULL == pTpid), CMM_ERR_NULL_POINT);
 1587              		.loc 1 191 5 discriminator 1 view .LVU449
 1588 0058 0E4B     		ldr	r3, .L176+4
 1589 005a 1B78     		ldrb	r3, [r3]	@ zero_extendqisi2
 1590 005c 012B     		cmp	r3, #1
 1591 005e 01D8     		bhi	.L174
 1592              	.LVL198:
 1593              	.L164:
 191:../switch_sdk/core/yt/yt_nic.c ****     CMM_PARAM_CHK((NULL == pTpid), CMM_ERR_NULL_POINT);
 1594              		.loc 1 191 5 discriminator 5 view .LVU450
 191:../switch_sdk/core/yt/yt_nic.c ****     CMM_PARAM_CHK((NULL == pTpid), CMM_ERR_NULL_POINT);
 1595              		.loc 1 191 5 discriminator 5 view .LVU451
 191:../switch_sdk/core/yt/yt_nic.c ****     CMM_PARAM_CHK((NULL == pTpid), CMM_ERR_NULL_POINT);
 1596              		.loc 1 191 5 discriminator 5 view .LVU452
 1597 0060 0420     		movs	r0, #4
 1598 0062 DCE7     		b	.L157
 1599              	.LVL199:
 1600              	.L174:
 191:../switch_sdk/core/yt/yt_nic.c ****     CMM_PARAM_CHK((NULL == pTpid), CMM_ERR_NULL_POINT);
 1601              		.loc 1 191 5 discriminator 3 view .LVU453
 1602              	.LBB33:
 191:../switch_sdk/core/yt/yt_nic.c ****     CMM_PARAM_CHK((NULL == pTpid), CMM_ERR_NULL_POINT);
 1603              		.loc 1 191 5 discriminator 3 view .LVU454
 1604 0064 0C4B     		ldr	r3, .L176+8
 1605 0066 1A69     		ldr	r2, [r3, #16]
 1606 0068 0C4B     		ldr	r3, .L176+12
 1607 006a 9968     		ldr	r1, [r3, #8]
 1608              	.LVL200:
 191:../switch_sdk/core/yt/yt_nic.c ****     CMM_PARAM_CHK((NULL == pTpid), CMM_ERR_NULL_POINT);
 1609              		.loc 1 191 5 is_stmt 0 discriminator 3 view .LVU455
 1610 006c 0C48     		ldr	r0, .L176+16
 1611 006e FFF7FEFF 		bl	osal_printf
 1612              	.LVL201:
 1613 0072 F5E7     		b	.L164
 1614              	.LVL202:
 1615              	.L171:
 191:../switch_sdk/core/yt/yt_nic.c ****     CMM_PARAM_CHK((NULL == pTpid), CMM_ERR_NULL_POINT);
 1616              		.loc 1 191 5 discriminator 3 view .LVU456
 1617              	.LBE33:
 192:../switch_sdk/core/yt/yt_nic.c **** 
 1618              		.loc 1 192 5 is_stmt 1 discriminator 1 view .LVU457
 192:../switch_sdk/core/yt/yt_nic.c **** 
 1619              		.loc 1 192 5 discriminator 1 view .LVU458
 1620 0074 074B     		ldr	r3, .L176+4
 1621 0076 1B78     		ldrb	r3, [r3]	@ zero_extendqisi2
 1622 0078 012B     		cmp	r3, #1
 1623 007a 01D8     		bhi	.L175
 1624              	.LVL203:
 1625              	.L166:
 192:../switch_sdk/core/yt/yt_nic.c **** 
 1626              		.loc 1 192 5 discriminator 5 view .LVU459
 192:../switch_sdk/core/yt/yt_nic.c **** 
 1627              		.loc 1 192 5 discriminator 5 view .LVU460
 192:../switch_sdk/core/yt/yt_nic.c **** 
 1628              		.loc 1 192 5 discriminator 5 view .LVU461
 1629 007c 0220     		movs	r0, #2
 1630 007e CEE7     		b	.L157
 1631              	.LVL204:
 1632              	.L175:
 192:../switch_sdk/core/yt/yt_nic.c **** 
 1633              		.loc 1 192 5 discriminator 3 view .LVU462
 1634              	.LBB34:
 192:../switch_sdk/core/yt/yt_nic.c **** 
 1635              		.loc 1 192 5 discriminator 3 view .LVU463
 1636 0080 054B     		ldr	r3, .L176+8
 1637 0082 9A68     		ldr	r2, [r3, #8]
 1638 0084 054B     		ldr	r3, .L176+12
 1639 0086 9968     		ldr	r1, [r3, #8]
 1640              	.LVL205:
 192:../switch_sdk/core/yt/yt_nic.c **** 
 1641              		.loc 1 192 5 is_stmt 0 discriminator 3 view .LVU464
 1642 0088 0548     		ldr	r0, .L176+16
 1643 008a FFF7FEFF 		bl	osal_printf
 1644              	.LVL206:
 1645 008e F5E7     		b	.L166
 1646              	.L177:
 1647              		.align	2
 1648              	.L176:
 1649 0090 00000000 		.word	gpfal_dispatch
 1650 0094 00000000 		.word	yt_debug_level
 1651 0098 00000000 		.word	_yt_errmsg
 1652 009c 00000000 		.word	_yt_prompt_msg
 1653 00a0 00000000 		.word	.LC0
 1654              	.LBE34:
 1655              		.cfi_endproc
 1656              	.LFE11:
 1658              		.section	.text.yt_nic_ext_cputag_en_set,"ax",%progbits
 1659              		.align	1
 1660              		.global	yt_nic_ext_cputag_en_set
 1661              		.syntax unified
 1662              		.thumb
 1663              		.thumb_func
 1665              	yt_nic_ext_cputag_en_set:
 1666              	.LVL207:
 1667              	.LFB12:
 196:../switch_sdk/core/yt/yt_nic.c **** 
 197:../switch_sdk/core/yt/yt_nic.c **** /**
 198:../switch_sdk/core/yt/yt_nic.c ****  * @internal      yt_nic_ext_cputag_en_set
 199:../switch_sdk/core/yt/yt_nic.c ****  * @endinternal
 200:../switch_sdk/core/yt/yt_nic.c ****  *
 201:../switch_sdk/core/yt/yt_nic.c ****  * @brief         Description
 202:../switch_sdk/core/yt/yt_nic.c ****  * @param[in]     unit                -unit id
 203:../switch_sdk/core/yt/yt_nic.c ****  * @param[in]     enable              -enable or disable
 204:../switch_sdk/core/yt/yt_nic.c ****  * @retval        CMM_ERR_OK          -on success
 205:../switch_sdk/core/yt/yt_nic.c ****  * @retval        CMM_ERR_FAIL        -on fail
 206:../switch_sdk/core/yt/yt_nic.c ****  */
 207:../switch_sdk/core/yt/yt_nic.c **** yt_ret_t  yt_nic_ext_cputag_en_set(yt_unit_t unit,  yt_enable_t enable)
 208:../switch_sdk/core/yt/yt_nic.c **** {
 1668              		.loc 1 208 1 is_stmt 1 view -0
 1669              		.cfi_startproc
 1670              		@ args = 0, pretend = 0, frame = 0
 1671              		@ frame_needed = 0, uses_anonymous_args = 0
 1672              		.loc 1 208 1 is_stmt 0 view .LVU466
 1673 0000 08B5     		push	{r3, lr}
 1674              		.cfi_def_cfa_offset 8
 1675              		.cfi_offset 3, -8
 1676              		.cfi_offset 14, -4
 209:../switch_sdk/core/yt/yt_nic.c ****     CMM_PARAM_CHK((YT_UNIT_NUM <= unit), CMM_ERR_INPUT);
 1677              		.loc 1 209 5 is_stmt 1 view .LVU467
 1678              		.loc 1 209 5 view .LVU468
 1679 0002 68B9     		cbnz	r0, .L189
 1680 0004 0246     		mov	r2, r0
 1681              		.loc 1 209 5 discriminator 2 view .LVU469
 210:../switch_sdk/core/yt/yt_nic.c ****     CMM_PARAM_CHK(NULL == YT_DISPATCH(unit), CMM_ERR_NOT_INIT);
 1682              		.loc 1 210 5 discriminator 2 view .LVU470
 1683              		.loc 1 210 5 discriminator 2 view .LVU471
 1684 0006 224B     		ldr	r3, .L197
 1685 0008 53F82030 		ldr	r3, [r3, r0, lsl #2]
 1686 000c B3B1     		cbz	r3, .L190
 1687              		.loc 1 210 5 discriminator 2 view .LVU472
 211:../switch_sdk/core/yt/yt_nic.c ****     CMM_PARAM_CHK((!(YT_DISPATCH(unit)->is_inited)), CMM_ERR_NOT_INIT);
 1688              		.loc 1 211 5 discriminator 2 view .LVU473
 1689              		.loc 1 211 5 discriminator 2 view .LVU474
 1690 000e 1878     		ldrb	r0, [r3]	@ zero_extendqisi2
 1691              	.LVL208:
 1692              		.loc 1 211 5 is_stmt 0 discriminator 2 view .LVU475
 1693 0010 10B3     		cbz	r0, .L191
 1694              		.loc 1 211 5 is_stmt 1 discriminator 2 view .LVU476
 212:../switch_sdk/core/yt/yt_nic.c ****     CMM_PARAM_CHK((YT_ENABLE < enable || YT_DISABLE > enable), CMM_ERR_INPUT);
 1695              		.loc 1 212 5 discriminator 2 view .LVU477
 1696              		.loc 1 212 5 discriminator 2 view .LVU478
 1697 0012 0129     		cmp	r1, #1
 1698 0014 2ED8     		bhi	.L192
 1699              		.loc 1 212 5 discriminator 2 view .LVU479
 213:../switch_sdk/core/yt/yt_nic.c **** 
 214:../switch_sdk/core/yt/yt_nic.c ****     return YT_DISPATCH(unit)->nic_ext_cputag_en_set(unit, enable);
 1700              		.loc 1 214 5 discriminator 2 view .LVU480
 1701              		.loc 1 214 29 is_stmt 0 discriminator 2 view .LVU481
 1702 0016 D3F8F034 		ldr	r3, [r3, #1264]
 1703              		.loc 1 214 12 discriminator 2 view .LVU482
 1704 001a 1046     		mov	r0, r2
 1705 001c 9847     		blx	r3
 1706              	.LVL209:
 1707              	.L178:
 215:../switch_sdk/core/yt/yt_nic.c **** }
 1708              		.loc 1 215 1 view .LVU483
 1709 001e 08BD     		pop	{r3, pc}
 1710              	.LVL210:
 1711              	.L189:
 209:../switch_sdk/core/yt/yt_nic.c ****     CMM_PARAM_CHK(NULL == YT_DISPATCH(unit), CMM_ERR_NOT_INIT);
 1712              		.loc 1 209 5 is_stmt 1 discriminator 1 view .LVU484
 209:../switch_sdk/core/yt/yt_nic.c ****     CMM_PARAM_CHK(NULL == YT_DISPATCH(unit), CMM_ERR_NOT_INIT);
 1713              		.loc 1 209 5 discriminator 1 view .LVU485
 1714 0020 1C4B     		ldr	r3, .L197+4
 1715 0022 1B78     		ldrb	r3, [r3]	@ zero_extendqisi2
 1716 0024 012B     		cmp	r3, #1
 1717 0026 01D8     		bhi	.L193
 1718              	.LVL211:
 1719              	.L180:
 209:../switch_sdk/core/yt/yt_nic.c ****     CMM_PARAM_CHK(NULL == YT_DISPATCH(unit), CMM_ERR_NOT_INIT);
 1720              		.loc 1 209 5 discriminator 5 view .LVU486
 209:../switch_sdk/core/yt/yt_nic.c ****     CMM_PARAM_CHK(NULL == YT_DISPATCH(unit), CMM_ERR_NOT_INIT);
 1721              		.loc 1 209 5 discriminator 5 view .LVU487
 209:../switch_sdk/core/yt/yt_nic.c ****     CMM_PARAM_CHK(NULL == YT_DISPATCH(unit), CMM_ERR_NOT_INIT);
 1722              		.loc 1 209 5 discriminator 5 view .LVU488
 1723 0028 0520     		movs	r0, #5
 1724 002a F8E7     		b	.L178
 1725              	.LVL212:
 1726              	.L193:
 209:../switch_sdk/core/yt/yt_nic.c ****     CMM_PARAM_CHK(NULL == YT_DISPATCH(unit), CMM_ERR_NOT_INIT);
 1727              		.loc 1 209 5 discriminator 3 view .LVU489
 1728              	.LBB35:
 209:../switch_sdk/core/yt/yt_nic.c ****     CMM_PARAM_CHK(NULL == YT_DISPATCH(unit), CMM_ERR_NOT_INIT);
 1729              		.loc 1 209 5 discriminator 3 view .LVU490
 1730 002c 1A4B     		ldr	r3, .L197+8
 1731 002e 5A69     		ldr	r2, [r3, #20]
 1732 0030 1A4B     		ldr	r3, .L197+12
 1733 0032 9968     		ldr	r1, [r3, #8]
 1734              	.LVL213:
 209:../switch_sdk/core/yt/yt_nic.c ****     CMM_PARAM_CHK(NULL == YT_DISPATCH(unit), CMM_ERR_NOT_INIT);
 1735              		.loc 1 209 5 is_stmt 0 discriminator 3 view .LVU491
 1736 0034 1A48     		ldr	r0, .L197+16
 1737              	.LVL214:
 209:../switch_sdk/core/yt/yt_nic.c ****     CMM_PARAM_CHK(NULL == YT_DISPATCH(unit), CMM_ERR_NOT_INIT);
 1738              		.loc 1 209 5 discriminator 3 view .LVU492
 1739 0036 FFF7FEFF 		bl	osal_printf
 1740              	.LVL215:
 1741 003a F5E7     		b	.L180
 1742              	.LVL216:
 1743              	.L190:
 209:../switch_sdk/core/yt/yt_nic.c ****     CMM_PARAM_CHK(NULL == YT_DISPATCH(unit), CMM_ERR_NOT_INIT);
 1744              		.loc 1 209 5 discriminator 3 view .LVU493
 1745              	.LBE35:
 210:../switch_sdk/core/yt/yt_nic.c ****     CMM_PARAM_CHK((!(YT_DISPATCH(unit)->is_inited)), CMM_ERR_NOT_INIT);
 1746              		.loc 1 210 5 is_stmt 1 discriminator 1 view .LVU494
 210:../switch_sdk/core/yt/yt_nic.c ****     CMM_PARAM_CHK((!(YT_DISPATCH(unit)->is_inited)), CMM_ERR_NOT_INIT);
 1747              		.loc 1 210 5 discriminator 1 view .LVU495
 1748 003c 154B     		ldr	r3, .L197+4
 1749 003e 1B78     		ldrb	r3, [r3]	@ zero_extendqisi2
 1750 0040 012B     		cmp	r3, #1
 1751 0042 01D8     		bhi	.L194
 1752              	.LVL217:
 1753              	.L183:
 210:../switch_sdk/core/yt/yt_nic.c ****     CMM_PARAM_CHK((!(YT_DISPATCH(unit)->is_inited)), CMM_ERR_NOT_INIT);
 1754              		.loc 1 210 5 discriminator 5 view .LVU496
 210:../switch_sdk/core/yt/yt_nic.c ****     CMM_PARAM_CHK((!(YT_DISPATCH(unit)->is_inited)), CMM_ERR_NOT_INIT);
 1755              		.loc 1 210 5 discriminator 5 view .LVU497
 210:../switch_sdk/core/yt/yt_nic.c ****     CMM_PARAM_CHK((!(YT_DISPATCH(unit)->is_inited)), CMM_ERR_NOT_INIT);
 1756              		.loc 1 210 5 discriminator 5 view .LVU498
 1757 0044 0420     		movs	r0, #4
 1758 0046 EAE7     		b	.L178
 1759              	.LVL218:
 1760              	.L194:
 210:../switch_sdk/core/yt/yt_nic.c ****     CMM_PARAM_CHK((!(YT_DISPATCH(unit)->is_inited)), CMM_ERR_NOT_INIT);
 1761              		.loc 1 210 5 discriminator 3 view .LVU499
 1762              	.LBB36:
 210:../switch_sdk/core/yt/yt_nic.c ****     CMM_PARAM_CHK((!(YT_DISPATCH(unit)->is_inited)), CMM_ERR_NOT_INIT);
 1763              		.loc 1 210 5 discriminator 3 view .LVU500
 1764 0048 134B     		ldr	r3, .L197+8
 1765 004a 1A69     		ldr	r2, [r3, #16]
 1766 004c 134B     		ldr	r3, .L197+12
 1767 004e 9968     		ldr	r1, [r3, #8]
 1768              	.LVL219:
 210:../switch_sdk/core/yt/yt_nic.c ****     CMM_PARAM_CHK((!(YT_DISPATCH(unit)->is_inited)), CMM_ERR_NOT_INIT);
 1769              		.loc 1 210 5 is_stmt 0 discriminator 3 view .LVU501
 1770 0050 1348     		ldr	r0, .L197+16
 1771              	.LVL220:
 210:../switch_sdk/core/yt/yt_nic.c ****     CMM_PARAM_CHK((!(YT_DISPATCH(unit)->is_inited)), CMM_ERR_NOT_INIT);
 1772              		.loc 1 210 5 discriminator 3 view .LVU502
 1773 0052 FFF7FEFF 		bl	osal_printf
 1774              	.LVL221:
 1775 0056 F5E7     		b	.L183
 1776              	.LVL222:
 1777              	.L191:
 210:../switch_sdk/core/yt/yt_nic.c ****     CMM_PARAM_CHK((!(YT_DISPATCH(unit)->is_inited)), CMM_ERR_NOT_INIT);
 1778              		.loc 1 210 5 discriminator 3 view .LVU503
 1779              	.LBE36:
 211:../switch_sdk/core/yt/yt_nic.c ****     CMM_PARAM_CHK((YT_ENABLE < enable || YT_DISABLE > enable), CMM_ERR_INPUT);
 1780              		.loc 1 211 5 is_stmt 1 discriminator 1 view .LVU504
 211:../switch_sdk/core/yt/yt_nic.c ****     CMM_PARAM_CHK((YT_ENABLE < enable || YT_DISABLE > enable), CMM_ERR_INPUT);
 1781              		.loc 1 211 5 discriminator 1 view .LVU505
 1782 0058 0E4B     		ldr	r3, .L197+4
 1783 005a 1B78     		ldrb	r3, [r3]	@ zero_extendqisi2
 1784 005c 012B     		cmp	r3, #1
 1785 005e 01D8     		bhi	.L195
 1786              	.LVL223:
 1787              	.L185:
 211:../switch_sdk/core/yt/yt_nic.c ****     CMM_PARAM_CHK((YT_ENABLE < enable || YT_DISABLE > enable), CMM_ERR_INPUT);
 1788              		.loc 1 211 5 discriminator 5 view .LVU506
 211:../switch_sdk/core/yt/yt_nic.c ****     CMM_PARAM_CHK((YT_ENABLE < enable || YT_DISABLE > enable), CMM_ERR_INPUT);
 1789              		.loc 1 211 5 discriminator 5 view .LVU507
 211:../switch_sdk/core/yt/yt_nic.c ****     CMM_PARAM_CHK((YT_ENABLE < enable || YT_DISABLE > enable), CMM_ERR_INPUT);
 1790              		.loc 1 211 5 discriminator 5 view .LVU508
 1791 0060 0420     		movs	r0, #4
 1792 0062 DCE7     		b	.L178
 1793              	.LVL224:
 1794              	.L195:
 211:../switch_sdk/core/yt/yt_nic.c ****     CMM_PARAM_CHK((YT_ENABLE < enable || YT_DISABLE > enable), CMM_ERR_INPUT);
 1795              		.loc 1 211 5 discriminator 3 view .LVU509
 1796              	.LBB37:
 211:../switch_sdk/core/yt/yt_nic.c ****     CMM_PARAM_CHK((YT_ENABLE < enable || YT_DISABLE > enable), CMM_ERR_INPUT);
 1797              		.loc 1 211 5 discriminator 3 view .LVU510
 1798 0064 0C4B     		ldr	r3, .L197+8
 1799 0066 1A69     		ldr	r2, [r3, #16]
 1800 0068 0C4B     		ldr	r3, .L197+12
 1801 006a 9968     		ldr	r1, [r3, #8]
 1802              	.LVL225:
 211:../switch_sdk/core/yt/yt_nic.c ****     CMM_PARAM_CHK((YT_ENABLE < enable || YT_DISABLE > enable), CMM_ERR_INPUT);
 1803              		.loc 1 211 5 is_stmt 0 discriminator 3 view .LVU511
 1804 006c 0C48     		ldr	r0, .L197+16
 1805 006e FFF7FEFF 		bl	osal_printf
 1806              	.LVL226:
 1807 0072 F5E7     		b	.L185
 1808              	.LVL227:
 1809              	.L192:
 211:../switch_sdk/core/yt/yt_nic.c ****     CMM_PARAM_CHK((YT_ENABLE < enable || YT_DISABLE > enable), CMM_ERR_INPUT);
 1810              		.loc 1 211 5 discriminator 3 view .LVU512
 1811              	.LBE37:
 212:../switch_sdk/core/yt/yt_nic.c **** 
 1812              		.loc 1 212 5 is_stmt 1 discriminator 1 view .LVU513
 212:../switch_sdk/core/yt/yt_nic.c **** 
 1813              		.loc 1 212 5 discriminator 1 view .LVU514
 1814 0074 074B     		ldr	r3, .L197+4
 1815 0076 1B78     		ldrb	r3, [r3]	@ zero_extendqisi2
 1816 0078 012B     		cmp	r3, #1
 1817 007a 01D8     		bhi	.L196
 1818              	.LVL228:
 1819              	.L187:
 212:../switch_sdk/core/yt/yt_nic.c **** 
 1820              		.loc 1 212 5 discriminator 5 view .LVU515
 212:../switch_sdk/core/yt/yt_nic.c **** 
 1821              		.loc 1 212 5 discriminator 5 view .LVU516
 212:../switch_sdk/core/yt/yt_nic.c **** 
 1822              		.loc 1 212 5 discriminator 5 view .LVU517
 1823 007c 0520     		movs	r0, #5
 1824 007e CEE7     		b	.L178
 1825              	.LVL229:
 1826              	.L196:
 212:../switch_sdk/core/yt/yt_nic.c **** 
 1827              		.loc 1 212 5 discriminator 3 view .LVU518
 1828              	.LBB38:
 212:../switch_sdk/core/yt/yt_nic.c **** 
 1829              		.loc 1 212 5 discriminator 3 view .LVU519
 1830 0080 054B     		ldr	r3, .L197+8
 1831 0082 5A69     		ldr	r2, [r3, #20]
 1832 0084 054B     		ldr	r3, .L197+12
 1833 0086 9968     		ldr	r1, [r3, #8]
 1834              	.LVL230:
 212:../switch_sdk/core/yt/yt_nic.c **** 
 1835              		.loc 1 212 5 is_stmt 0 discriminator 3 view .LVU520
 1836 0088 0548     		ldr	r0, .L197+16
 1837 008a FFF7FEFF 		bl	osal_printf
 1838              	.LVL231:
 1839 008e F5E7     		b	.L187
 1840              	.L198:
 1841              		.align	2
 1842              	.L197:
 1843 0090 00000000 		.word	gpfal_dispatch
 1844 0094 00000000 		.word	yt_debug_level
 1845 0098 00000000 		.word	_yt_errmsg
 1846 009c 00000000 		.word	_yt_prompt_msg
 1847 00a0 00000000 		.word	.LC0
 1848              	.LBE38:
 1849              		.cfi_endproc
 1850              	.LFE12:
 1852              		.section	.text.yt_nic_ext_cputag_en_get,"ax",%progbits
 1853              		.align	1
 1854              		.global	yt_nic_ext_cputag_en_get
 1855              		.syntax unified
 1856              		.thumb
 1857              		.thumb_func
 1859              	yt_nic_ext_cputag_en_get:
 1860              	.LVL232:
 1861              	.LFB13:
 216:../switch_sdk/core/yt/yt_nic.c **** 
 217:../switch_sdk/core/yt/yt_nic.c **** /**
 218:../switch_sdk/core/yt/yt_nic.c ****  * @internal      yt_nic_ext_cputag_en_get
 219:../switch_sdk/core/yt/yt_nic.c ****  * @endinternal
 220:../switch_sdk/core/yt/yt_nic.c ****  *
 221:../switch_sdk/core/yt/yt_nic.c ****  * @brief         Description
 222:../switch_sdk/core/yt/yt_nic.c ****  * @param[in]     unit                -unit id
 223:../switch_sdk/core/yt/yt_nic.c ****  * @param[out]    pEnable             -enable or disable
 224:../switch_sdk/core/yt/yt_nic.c ****  * @retval        CMM_ERR_OK          -on success
 225:../switch_sdk/core/yt/yt_nic.c ****  * @retval        CMM_ERR_FAIL        -on fail
 226:../switch_sdk/core/yt/yt_nic.c ****  */
 227:../switch_sdk/core/yt/yt_nic.c **** yt_ret_t  yt_nic_ext_cputag_en_get(yt_unit_t unit,  yt_enable_t *pEnable)
 228:../switch_sdk/core/yt/yt_nic.c **** {
 1862              		.loc 1 228 1 is_stmt 1 view -0
 1863              		.cfi_startproc
 1864              		@ args = 0, pretend = 0, frame = 0
 1865              		@ frame_needed = 0, uses_anonymous_args = 0
 1866              		.loc 1 228 1 is_stmt 0 view .LVU522
 1867 0000 08B5     		push	{r3, lr}
 1868              		.cfi_def_cfa_offset 8
 1869              		.cfi_offset 3, -8
 1870              		.cfi_offset 14, -4
 229:../switch_sdk/core/yt/yt_nic.c ****     CMM_PARAM_CHK((YT_UNIT_NUM <= unit), CMM_ERR_INPUT);
 1871              		.loc 1 229 5 is_stmt 1 view .LVU523
 1872              		.loc 1 229 5 view .LVU524
 1873 0002 68B9     		cbnz	r0, .L210
 1874 0004 0246     		mov	r2, r0
 1875              		.loc 1 229 5 discriminator 2 view .LVU525
 230:../switch_sdk/core/yt/yt_nic.c ****     CMM_PARAM_CHK(NULL == YT_DISPATCH(unit), CMM_ERR_NOT_INIT);
 1876              		.loc 1 230 5 discriminator 2 view .LVU526
 1877              		.loc 1 230 5 discriminator 2 view .LVU527
 1878 0006 224B     		ldr	r3, .L218
 1879 0008 53F82030 		ldr	r3, [r3, r0, lsl #2]
 1880 000c B3B1     		cbz	r3, .L211
 1881              		.loc 1 230 5 discriminator 2 view .LVU528
 231:../switch_sdk/core/yt/yt_nic.c ****     CMM_PARAM_CHK((!(YT_DISPATCH(unit)->is_inited)), CMM_ERR_NOT_INIT);
 1882              		.loc 1 231 5 discriminator 2 view .LVU529
 1883              		.loc 1 231 5 discriminator 2 view .LVU530
 1884 000e 1878     		ldrb	r0, [r3]	@ zero_extendqisi2
 1885              	.LVL233:
 1886              		.loc 1 231 5 is_stmt 0 discriminator 2 view .LVU531
 1887 0010 10B3     		cbz	r0, .L212
 1888              		.loc 1 231 5 is_stmt 1 discriminator 2 view .LVU532
 232:../switch_sdk/core/yt/yt_nic.c ****     CMM_PARAM_CHK((NULL == pEnable), CMM_ERR_NULL_POINT);
 1889              		.loc 1 232 5 discriminator 2 view .LVU533
 1890              		.loc 1 232 5 discriminator 2 view .LVU534
 1891 0012 0029     		cmp	r1, #0
 1892 0014 2ED0     		beq	.L213
 1893              		.loc 1 232 5 discriminator 2 view .LVU535
 233:../switch_sdk/core/yt/yt_nic.c **** 
 234:../switch_sdk/core/yt/yt_nic.c ****     return YT_DISPATCH(unit)->nic_ext_cputag_en_get(unit, pEnable);
 1894              		.loc 1 234 5 discriminator 2 view .LVU536
 1895              		.loc 1 234 29 is_stmt 0 discriminator 2 view .LVU537
 1896 0016 D3F8F434 		ldr	r3, [r3, #1268]
 1897              		.loc 1 234 12 discriminator 2 view .LVU538
 1898 001a 1046     		mov	r0, r2
 1899 001c 9847     		blx	r3
 1900              	.LVL234:
 1901              	.L199:
 235:../switch_sdk/core/yt/yt_nic.c **** }
 1902              		.loc 1 235 1 view .LVU539
 1903 001e 08BD     		pop	{r3, pc}
 1904              	.LVL235:
 1905              	.L210:
 229:../switch_sdk/core/yt/yt_nic.c ****     CMM_PARAM_CHK(NULL == YT_DISPATCH(unit), CMM_ERR_NOT_INIT);
 1906              		.loc 1 229 5 is_stmt 1 discriminator 1 view .LVU540
 229:../switch_sdk/core/yt/yt_nic.c ****     CMM_PARAM_CHK(NULL == YT_DISPATCH(unit), CMM_ERR_NOT_INIT);
 1907              		.loc 1 229 5 discriminator 1 view .LVU541
 1908 0020 1C4B     		ldr	r3, .L218+4
 1909 0022 1B78     		ldrb	r3, [r3]	@ zero_extendqisi2
 1910 0024 012B     		cmp	r3, #1
 1911 0026 01D8     		bhi	.L214
 1912              	.LVL236:
 1913              	.L201:
 229:../switch_sdk/core/yt/yt_nic.c ****     CMM_PARAM_CHK(NULL == YT_DISPATCH(unit), CMM_ERR_NOT_INIT);
 1914              		.loc 1 229 5 discriminator 5 view .LVU542
 229:../switch_sdk/core/yt/yt_nic.c ****     CMM_PARAM_CHK(NULL == YT_DISPATCH(unit), CMM_ERR_NOT_INIT);
 1915              		.loc 1 229 5 discriminator 5 view .LVU543
 229:../switch_sdk/core/yt/yt_nic.c ****     CMM_PARAM_CHK(NULL == YT_DISPATCH(unit), CMM_ERR_NOT_INIT);
 1916              		.loc 1 229 5 discriminator 5 view .LVU544
 1917 0028 0520     		movs	r0, #5
 1918 002a F8E7     		b	.L199
 1919              	.LVL237:
 1920              	.L214:
 229:../switch_sdk/core/yt/yt_nic.c ****     CMM_PARAM_CHK(NULL == YT_DISPATCH(unit), CMM_ERR_NOT_INIT);
 1921              		.loc 1 229 5 discriminator 3 view .LVU545
 1922              	.LBB39:
 229:../switch_sdk/core/yt/yt_nic.c ****     CMM_PARAM_CHK(NULL == YT_DISPATCH(unit), CMM_ERR_NOT_INIT);
 1923              		.loc 1 229 5 discriminator 3 view .LVU546
 1924 002c 1A4B     		ldr	r3, .L218+8
 1925 002e 5A69     		ldr	r2, [r3, #20]
 1926 0030 1A4B     		ldr	r3, .L218+12
 1927 0032 9968     		ldr	r1, [r3, #8]
 1928              	.LVL238:
 229:../switch_sdk/core/yt/yt_nic.c ****     CMM_PARAM_CHK(NULL == YT_DISPATCH(unit), CMM_ERR_NOT_INIT);
 1929              		.loc 1 229 5 is_stmt 0 discriminator 3 view .LVU547
 1930 0034 1A48     		ldr	r0, .L218+16
 1931              	.LVL239:
 229:../switch_sdk/core/yt/yt_nic.c ****     CMM_PARAM_CHK(NULL == YT_DISPATCH(unit), CMM_ERR_NOT_INIT);
 1932              		.loc 1 229 5 discriminator 3 view .LVU548
 1933 0036 FFF7FEFF 		bl	osal_printf
 1934              	.LVL240:
 1935 003a F5E7     		b	.L201
 1936              	.LVL241:
 1937              	.L211:
 229:../switch_sdk/core/yt/yt_nic.c ****     CMM_PARAM_CHK(NULL == YT_DISPATCH(unit), CMM_ERR_NOT_INIT);
 1938              		.loc 1 229 5 discriminator 3 view .LVU549
 1939              	.LBE39:
 230:../switch_sdk/core/yt/yt_nic.c ****     CMM_PARAM_CHK((!(YT_DISPATCH(unit)->is_inited)), CMM_ERR_NOT_INIT);
 1940              		.loc 1 230 5 is_stmt 1 discriminator 1 view .LVU550
 230:../switch_sdk/core/yt/yt_nic.c ****     CMM_PARAM_CHK((!(YT_DISPATCH(unit)->is_inited)), CMM_ERR_NOT_INIT);
 1941              		.loc 1 230 5 discriminator 1 view .LVU551
 1942 003c 154B     		ldr	r3, .L218+4
 1943 003e 1B78     		ldrb	r3, [r3]	@ zero_extendqisi2
 1944 0040 012B     		cmp	r3, #1
 1945 0042 01D8     		bhi	.L215
 1946              	.LVL242:
 1947              	.L204:
 230:../switch_sdk/core/yt/yt_nic.c ****     CMM_PARAM_CHK((!(YT_DISPATCH(unit)->is_inited)), CMM_ERR_NOT_INIT);
 1948              		.loc 1 230 5 discriminator 5 view .LVU552
 230:../switch_sdk/core/yt/yt_nic.c ****     CMM_PARAM_CHK((!(YT_DISPATCH(unit)->is_inited)), CMM_ERR_NOT_INIT);
 1949              		.loc 1 230 5 discriminator 5 view .LVU553
 230:../switch_sdk/core/yt/yt_nic.c ****     CMM_PARAM_CHK((!(YT_DISPATCH(unit)->is_inited)), CMM_ERR_NOT_INIT);
 1950              		.loc 1 230 5 discriminator 5 view .LVU554
 1951 0044 0420     		movs	r0, #4
 1952 0046 EAE7     		b	.L199
 1953              	.LVL243:
 1954              	.L215:
 230:../switch_sdk/core/yt/yt_nic.c ****     CMM_PARAM_CHK((!(YT_DISPATCH(unit)->is_inited)), CMM_ERR_NOT_INIT);
 1955              		.loc 1 230 5 discriminator 3 view .LVU555
 1956              	.LBB40:
 230:../switch_sdk/core/yt/yt_nic.c ****     CMM_PARAM_CHK((!(YT_DISPATCH(unit)->is_inited)), CMM_ERR_NOT_INIT);
 1957              		.loc 1 230 5 discriminator 3 view .LVU556
 1958 0048 134B     		ldr	r3, .L218+8
 1959 004a 1A69     		ldr	r2, [r3, #16]
 1960 004c 134B     		ldr	r3, .L218+12
 1961 004e 9968     		ldr	r1, [r3, #8]
 1962              	.LVL244:
 230:../switch_sdk/core/yt/yt_nic.c ****     CMM_PARAM_CHK((!(YT_DISPATCH(unit)->is_inited)), CMM_ERR_NOT_INIT);
 1963              		.loc 1 230 5 is_stmt 0 discriminator 3 view .LVU557
 1964 0050 1348     		ldr	r0, .L218+16
 1965              	.LVL245:
 230:../switch_sdk/core/yt/yt_nic.c ****     CMM_PARAM_CHK((!(YT_DISPATCH(unit)->is_inited)), CMM_ERR_NOT_INIT);
 1966              		.loc 1 230 5 discriminator 3 view .LVU558
 1967 0052 FFF7FEFF 		bl	osal_printf
 1968              	.LVL246:
 1969 0056 F5E7     		b	.L204
 1970              	.LVL247:
 1971              	.L212:
 230:../switch_sdk/core/yt/yt_nic.c ****     CMM_PARAM_CHK((!(YT_DISPATCH(unit)->is_inited)), CMM_ERR_NOT_INIT);
 1972              		.loc 1 230 5 discriminator 3 view .LVU559
 1973              	.LBE40:
 231:../switch_sdk/core/yt/yt_nic.c ****     CMM_PARAM_CHK((NULL == pEnable), CMM_ERR_NULL_POINT);
 1974              		.loc 1 231 5 is_stmt 1 discriminator 1 view .LVU560
 231:../switch_sdk/core/yt/yt_nic.c ****     CMM_PARAM_CHK((NULL == pEnable), CMM_ERR_NULL_POINT);
 1975              		.loc 1 231 5 discriminator 1 view .LVU561
 1976 0058 0E4B     		ldr	r3, .L218+4
 1977 005a 1B78     		ldrb	r3, [r3]	@ zero_extendqisi2
 1978 005c 012B     		cmp	r3, #1
 1979 005e 01D8     		bhi	.L216
 1980              	.LVL248:
 1981              	.L206:
 231:../switch_sdk/core/yt/yt_nic.c ****     CMM_PARAM_CHK((NULL == pEnable), CMM_ERR_NULL_POINT);
 1982              		.loc 1 231 5 discriminator 5 view .LVU562
 231:../switch_sdk/core/yt/yt_nic.c ****     CMM_PARAM_CHK((NULL == pEnable), CMM_ERR_NULL_POINT);
 1983              		.loc 1 231 5 discriminator 5 view .LVU563
 231:../switch_sdk/core/yt/yt_nic.c ****     CMM_PARAM_CHK((NULL == pEnable), CMM_ERR_NULL_POINT);
 1984              		.loc 1 231 5 discriminator 5 view .LVU564
 1985 0060 0420     		movs	r0, #4
 1986 0062 DCE7     		b	.L199
 1987              	.LVL249:
 1988              	.L216:
 231:../switch_sdk/core/yt/yt_nic.c ****     CMM_PARAM_CHK((NULL == pEnable), CMM_ERR_NULL_POINT);
 1989              		.loc 1 231 5 discriminator 3 view .LVU565
 1990              	.LBB41:
 231:../switch_sdk/core/yt/yt_nic.c ****     CMM_PARAM_CHK((NULL == pEnable), CMM_ERR_NULL_POINT);
 1991              		.loc 1 231 5 discriminator 3 view .LVU566
 1992 0064 0C4B     		ldr	r3, .L218+8
 1993 0066 1A69     		ldr	r2, [r3, #16]
 1994 0068 0C4B     		ldr	r3, .L218+12
 1995 006a 9968     		ldr	r1, [r3, #8]
 1996              	.LVL250:
 231:../switch_sdk/core/yt/yt_nic.c ****     CMM_PARAM_CHK((NULL == pEnable), CMM_ERR_NULL_POINT);
 1997              		.loc 1 231 5 is_stmt 0 discriminator 3 view .LVU567
 1998 006c 0C48     		ldr	r0, .L218+16
 1999 006e FFF7FEFF 		bl	osal_printf
 2000              	.LVL251:
 2001 0072 F5E7     		b	.L206
 2002              	.LVL252:
 2003              	.L213:
 231:../switch_sdk/core/yt/yt_nic.c ****     CMM_PARAM_CHK((NULL == pEnable), CMM_ERR_NULL_POINT);
 2004              		.loc 1 231 5 discriminator 3 view .LVU568
 2005              	.LBE41:
 232:../switch_sdk/core/yt/yt_nic.c **** 
 2006              		.loc 1 232 5 is_stmt 1 discriminator 1 view .LVU569
 232:../switch_sdk/core/yt/yt_nic.c **** 
 2007              		.loc 1 232 5 discriminator 1 view .LVU570
 2008 0074 074B     		ldr	r3, .L218+4
 2009 0076 1B78     		ldrb	r3, [r3]	@ zero_extendqisi2
 2010 0078 012B     		cmp	r3, #1
 2011 007a 01D8     		bhi	.L217
 2012              	.LVL253:
 2013              	.L208:
 232:../switch_sdk/core/yt/yt_nic.c **** 
 2014              		.loc 1 232 5 discriminator 5 view .LVU571
 232:../switch_sdk/core/yt/yt_nic.c **** 
 2015              		.loc 1 232 5 discriminator 5 view .LVU572
 232:../switch_sdk/core/yt/yt_nic.c **** 
 2016              		.loc 1 232 5 discriminator 5 view .LVU573
 2017 007c 0220     		movs	r0, #2
 2018 007e CEE7     		b	.L199
 2019              	.LVL254:
 2020              	.L217:
 232:../switch_sdk/core/yt/yt_nic.c **** 
 2021              		.loc 1 232 5 discriminator 3 view .LVU574
 2022              	.LBB42:
 232:../switch_sdk/core/yt/yt_nic.c **** 
 2023              		.loc 1 232 5 discriminator 3 view .LVU575
 2024 0080 054B     		ldr	r3, .L218+8
 2025 0082 9A68     		ldr	r2, [r3, #8]
 2026 0084 054B     		ldr	r3, .L218+12
 2027 0086 9968     		ldr	r1, [r3, #8]
 2028              	.LVL255:
 232:../switch_sdk/core/yt/yt_nic.c **** 
 2029              		.loc 1 232 5 is_stmt 0 discriminator 3 view .LVU576
 2030 0088 0548     		ldr	r0, .L218+16
 2031 008a FFF7FEFF 		bl	osal_printf
 2032              	.LVL256:
 2033 008e F5E7     		b	.L208
 2034              	.L219:
 2035              		.align	2
 2036              	.L218:
 2037 0090 00000000 		.word	gpfal_dispatch
 2038 0094 00000000 		.word	yt_debug_level
 2039 0098 00000000 		.word	_yt_errmsg
 2040 009c 00000000 		.word	_yt_prompt_msg
 2041 00a0 00000000 		.word	.LC0
 2042              	.LBE42:
 2043              		.cfi_endproc
 2044              	.LFE13:
 2046              		.section	.text.yt_nic_rx_register,"ax",%progbits
 2047              		.align	1
 2048              		.global	yt_nic_rx_register
 2049              		.syntax unified
 2050              		.thumb
 2051              		.thumb_func
 2053              	yt_nic_rx_register:
 2054              	.LVL257:
 2055              	.LFB14:
 236:../switch_sdk/core/yt/yt_nic.c **** 
 237:../switch_sdk/core/yt/yt_nic.c **** yt_ret_t yt_nic_rx_register(yt_unit_t unit, yt_nic_rx_cb_f rx_cb)
 238:../switch_sdk/core/yt/yt_nic.c **** {
 2056              		.loc 1 238 1 is_stmt 1 view -0
 2057              		.cfi_startproc
 2058              		@ args = 0, pretend = 0, frame = 0
 2059              		@ frame_needed = 0, uses_anonymous_args = 0
 2060              		.loc 1 238 1 is_stmt 0 view .LVU578
 2061 0000 08B5     		push	{r3, lr}
 2062              		.cfi_def_cfa_offset 8
 2063              		.cfi_offset 3, -8
 2064              		.cfi_offset 14, -4
 239:../switch_sdk/core/yt/yt_nic.c ****     CMM_PARAM_CHK((YT_UNIT_NUM <= unit), CMM_ERR_INPUT);
 2065              		.loc 1 239 5 is_stmt 1 view .LVU579
 2066              		.loc 1 239 5 view .LVU580
 2067 0002 40B9     		cbnz	r0, .L229
 2068              		.loc 1 239 5 discriminator 2 view .LVU581
 240:../switch_sdk/core/yt/yt_nic.c ****     CMM_PARAM_CHK(NULL == YT_DISPATCH(unit), CMM_ERR_NOT_INIT);
 2069              		.loc 1 240 5 discriminator 2 view .LVU582
 2070              		.loc 1 240 5 discriminator 2 view .LVU583
 2071 0004 194A     		ldr	r2, .L235
 2072 0006 52F82020 		ldr	r2, [r2, r0, lsl #2]
 2073 000a 92B1     		cbz	r2, .L230
 2074              		.loc 1 240 5 discriminator 2 view .LVU584
 241:../switch_sdk/core/yt/yt_nic.c ****     CMM_PARAM_CHK((NULL == rx_cb), CMM_ERR_NULL_POINT);
 2075              		.loc 1 241 5 discriminator 2 view .LVU585
 2076              		.loc 1 241 5 discriminator 2 view .LVU586
 2077 000c F9B1     		cbz	r1, .L231
 2078              		.loc 1 241 5 discriminator 2 view .LVU587
 242:../switch_sdk/core/yt/yt_nic.c **** 
 243:../switch_sdk/core/yt/yt_nic.c ****     return YT_DISPATCH(unit)->nic_rx_register(unit, rx_cb);
 2079              		.loc 1 243 5 discriminator 2 view .LVU588
 2080              		.loc 1 243 29 is_stmt 0 discriminator 2 view .LVU589
 2081 000e D2F8F824 		ldr	r2, [r2, #1272]
 2082              		.loc 1 243 12 discriminator 2 view .LVU590
 2083 0012 9047     		blx	r2
 2084              	.LVL258:
 2085              	.L220:
 244:../switch_sdk/core/yt/yt_nic.c **** }
 2086              		.loc 1 244 1 view .LVU591
 2087 0014 08BD     		pop	{r3, pc}
 2088              	.LVL259:
 2089              	.L229:
 239:../switch_sdk/core/yt/yt_nic.c ****     CMM_PARAM_CHK(NULL == YT_DISPATCH(unit), CMM_ERR_NOT_INIT);
 2090              		.loc 1 239 5 is_stmt 1 discriminator 1 view .LVU592
 239:../switch_sdk/core/yt/yt_nic.c ****     CMM_PARAM_CHK(NULL == YT_DISPATCH(unit), CMM_ERR_NOT_INIT);
 2091              		.loc 1 239 5 discriminator 1 view .LVU593
 2092 0016 164B     		ldr	r3, .L235+4
 2093 0018 1B78     		ldrb	r3, [r3]	@ zero_extendqisi2
 2094 001a 012B     		cmp	r3, #1
 2095 001c 01D8     		bhi	.L232
 2096              	.LVL260:
 2097              	.L222:
 239:../switch_sdk/core/yt/yt_nic.c ****     CMM_PARAM_CHK(NULL == YT_DISPATCH(unit), CMM_ERR_NOT_INIT);
 2098              		.loc 1 239 5 discriminator 5 view .LVU594
 239:../switch_sdk/core/yt/yt_nic.c ****     CMM_PARAM_CHK(NULL == YT_DISPATCH(unit), CMM_ERR_NOT_INIT);
 2099              		.loc 1 239 5 discriminator 5 view .LVU595
 239:../switch_sdk/core/yt/yt_nic.c ****     CMM_PARAM_CHK(NULL == YT_DISPATCH(unit), CMM_ERR_NOT_INIT);
 2100              		.loc 1 239 5 discriminator 5 view .LVU596
 2101 001e 0520     		movs	r0, #5
 2102 0020 F8E7     		b	.L220
 2103              	.LVL261:
 2104              	.L232:
 239:../switch_sdk/core/yt/yt_nic.c ****     CMM_PARAM_CHK(NULL == YT_DISPATCH(unit), CMM_ERR_NOT_INIT);
 2105              		.loc 1 239 5 discriminator 3 view .LVU597
 2106              	.LBB43:
 239:../switch_sdk/core/yt/yt_nic.c ****     CMM_PARAM_CHK(NULL == YT_DISPATCH(unit), CMM_ERR_NOT_INIT);
 2107              		.loc 1 239 5 discriminator 3 view .LVU598
 2108 0022 144B     		ldr	r3, .L235+8
 2109 0024 5A69     		ldr	r2, [r3, #20]
 2110 0026 144B     		ldr	r3, .L235+12
 2111 0028 9968     		ldr	r1, [r3, #8]
 2112              	.LVL262:
 239:../switch_sdk/core/yt/yt_nic.c ****     CMM_PARAM_CHK(NULL == YT_DISPATCH(unit), CMM_ERR_NOT_INIT);
 2113              		.loc 1 239 5 is_stmt 0 discriminator 3 view .LVU599
 2114 002a 1448     		ldr	r0, .L235+16
 2115              	.LVL263:
 239:../switch_sdk/core/yt/yt_nic.c ****     CMM_PARAM_CHK(NULL == YT_DISPATCH(unit), CMM_ERR_NOT_INIT);
 2116              		.loc 1 239 5 discriminator 3 view .LVU600
 2117 002c FFF7FEFF 		bl	osal_printf
 2118              	.LVL264:
 2119 0030 F5E7     		b	.L222
 2120              	.LVL265:
 2121              	.L230:
 239:../switch_sdk/core/yt/yt_nic.c ****     CMM_PARAM_CHK(NULL == YT_DISPATCH(unit), CMM_ERR_NOT_INIT);
 2122              		.loc 1 239 5 discriminator 3 view .LVU601
 2123              	.LBE43:
 240:../switch_sdk/core/yt/yt_nic.c ****     CMM_PARAM_CHK((NULL == rx_cb), CMM_ERR_NULL_POINT);
 2124              		.loc 1 240 5 is_stmt 1 discriminator 1 view .LVU602
 240:../switch_sdk/core/yt/yt_nic.c ****     CMM_PARAM_CHK((NULL == rx_cb), CMM_ERR_NULL_POINT);
 2125              		.loc 1 240 5 discriminator 1 view .LVU603
 2126 0032 0F4B     		ldr	r3, .L235+4
 2127 0034 1B78     		ldrb	r3, [r3]	@ zero_extendqisi2
 2128 0036 012B     		cmp	r3, #1
 2129 0038 01D8     		bhi	.L233
 2130              	.LVL266:
 2131              	.L225:
 240:../switch_sdk/core/yt/yt_nic.c ****     CMM_PARAM_CHK((NULL == rx_cb), CMM_ERR_NULL_POINT);
 2132              		.loc 1 240 5 discriminator 5 view .LVU604
 240:../switch_sdk/core/yt/yt_nic.c ****     CMM_PARAM_CHK((NULL == rx_cb), CMM_ERR_NULL_POINT);
 2133              		.loc 1 240 5 discriminator 5 view .LVU605
 240:../switch_sdk/core/yt/yt_nic.c ****     CMM_PARAM_CHK((NULL == rx_cb), CMM_ERR_NULL_POINT);
 2134              		.loc 1 240 5 discriminator 5 view .LVU606
 2135 003a 0420     		movs	r0, #4
 2136 003c EAE7     		b	.L220
 2137              	.LVL267:
 2138              	.L233:
 240:../switch_sdk/core/yt/yt_nic.c ****     CMM_PARAM_CHK((NULL == rx_cb), CMM_ERR_NULL_POINT);
 2139              		.loc 1 240 5 discriminator 3 view .LVU607
 2140              	.LBB44:
 240:../switch_sdk/core/yt/yt_nic.c ****     CMM_PARAM_CHK((NULL == rx_cb), CMM_ERR_NULL_POINT);
 2141              		.loc 1 240 5 discriminator 3 view .LVU608
 2142 003e 0D4B     		ldr	r3, .L235+8
 2143 0040 1A69     		ldr	r2, [r3, #16]
 2144 0042 0D4B     		ldr	r3, .L235+12
 2145 0044 9968     		ldr	r1, [r3, #8]
 2146              	.LVL268:
 240:../switch_sdk/core/yt/yt_nic.c ****     CMM_PARAM_CHK((NULL == rx_cb), CMM_ERR_NULL_POINT);
 2147              		.loc 1 240 5 is_stmt 0 discriminator 3 view .LVU609
 2148 0046 0D48     		ldr	r0, .L235+16
 2149              	.LVL269:
 240:../switch_sdk/core/yt/yt_nic.c ****     CMM_PARAM_CHK((NULL == rx_cb), CMM_ERR_NULL_POINT);
 2150              		.loc 1 240 5 discriminator 3 view .LVU610
 2151 0048 FFF7FEFF 		bl	osal_printf
 2152              	.LVL270:
 2153 004c F5E7     		b	.L225
 2154              	.LVL271:
 2155              	.L231:
 240:../switch_sdk/core/yt/yt_nic.c ****     CMM_PARAM_CHK((NULL == rx_cb), CMM_ERR_NULL_POINT);
 2156              		.loc 1 240 5 discriminator 3 view .LVU611
 2157              	.LBE44:
 241:../switch_sdk/core/yt/yt_nic.c **** 
 2158              		.loc 1 241 5 is_stmt 1 discriminator 1 view .LVU612
 241:../switch_sdk/core/yt/yt_nic.c **** 
 2159              		.loc 1 241 5 discriminator 1 view .LVU613
 2160 004e 084B     		ldr	r3, .L235+4
 2161 0050 1B78     		ldrb	r3, [r3]	@ zero_extendqisi2
 2162 0052 012B     		cmp	r3, #1
 2163 0054 01D8     		bhi	.L234
 2164              	.LVL272:
 2165              	.L227:
 241:../switch_sdk/core/yt/yt_nic.c **** 
 2166              		.loc 1 241 5 discriminator 5 view .LVU614
 241:../switch_sdk/core/yt/yt_nic.c **** 
 2167              		.loc 1 241 5 discriminator 5 view .LVU615
 241:../switch_sdk/core/yt/yt_nic.c **** 
 2168              		.loc 1 241 5 discriminator 5 view .LVU616
 2169 0056 0220     		movs	r0, #2
 2170 0058 DCE7     		b	.L220
 2171              	.LVL273:
 2172              	.L234:
 241:../switch_sdk/core/yt/yt_nic.c **** 
 2173              		.loc 1 241 5 discriminator 3 view .LVU617
 2174              	.LBB45:
 241:../switch_sdk/core/yt/yt_nic.c **** 
 2175              		.loc 1 241 5 discriminator 3 view .LVU618
 2176 005a 064B     		ldr	r3, .L235+8
 2177 005c 9A68     		ldr	r2, [r3, #8]
 2178 005e 064B     		ldr	r3, .L235+12
 2179 0060 9968     		ldr	r1, [r3, #8]
 2180              	.LVL274:
 241:../switch_sdk/core/yt/yt_nic.c **** 
 2181              		.loc 1 241 5 is_stmt 0 discriminator 3 view .LVU619
 2182 0062 0648     		ldr	r0, .L235+16
 2183              	.LVL275:
 241:../switch_sdk/core/yt/yt_nic.c **** 
 2184              		.loc 1 241 5 discriminator 3 view .LVU620
 2185 0064 FFF7FEFF 		bl	osal_printf
 2186              	.LVL276:
 2187 0068 F5E7     		b	.L227
 2188              	.L236:
 2189 006a 00BF     		.align	2
 2190              	.L235:
 2191 006c 00000000 		.word	gpfal_dispatch
 2192 0070 00000000 		.word	yt_debug_level
 2193 0074 00000000 		.word	_yt_errmsg
 2194 0078 00000000 		.word	_yt_prompt_msg
 2195 007c 00000000 		.word	.LC0
 2196              	.LBE45:
 2197              		.cfi_endproc
 2198              	.LFE14:
 2200              		.section	.text.yt_nic_rx_handler,"ax",%progbits
 2201              		.align	1
 2202              		.global	yt_nic_rx_handler
 2203              		.syntax unified
 2204              		.thumb
 2205              		.thumb_func
 2207              	yt_nic_rx_handler:
 2208              	.LVL277:
 2209              	.LFB15:
 245:../switch_sdk/core/yt/yt_nic.c **** 
 246:../switch_sdk/core/yt/yt_nic.c **** yt_ret_t yt_nic_rx_handler(yt_unit_t unit)
 247:../switch_sdk/core/yt/yt_nic.c **** {
 2210              		.loc 1 247 1 is_stmt 1 view -0
 2211              		.cfi_startproc
 2212              		@ args = 0, pretend = 0, frame = 0
 2213              		@ frame_needed = 0, uses_anonymous_args = 0
 2214              		.loc 1 247 1 is_stmt 0 view .LVU622
 2215 0000 08B5     		push	{r3, lr}
 2216              		.cfi_def_cfa_offset 8
 2217              		.cfi_offset 3, -8
 2218              		.cfi_offset 14, -4
 248:../switch_sdk/core/yt/yt_nic.c ****     CMM_PARAM_CHK((YT_UNIT_NUM <= unit), CMM_ERR_INPUT);
 2219              		.loc 1 248 5 is_stmt 1 view .LVU623
 2220              		.loc 1 248 5 view .LVU624
 2221 0002 38B9     		cbnz	r0, .L244
 2222              		.loc 1 248 5 discriminator 2 view .LVU625
 249:../switch_sdk/core/yt/yt_nic.c ****     CMM_PARAM_CHK(NULL == YT_DISPATCH(unit), CMM_ERR_NOT_INIT);
 2223              		.loc 1 249 5 discriminator 2 view .LVU626
 2224              		.loc 1 249 5 discriminator 2 view .LVU627
 2225 0004 114A     		ldr	r2, .L248
 2226 0006 52F82020 		ldr	r2, [r2, r0, lsl #2]
 2227 000a 8AB1     		cbz	r2, .L245
 2228              		.loc 1 249 5 discriminator 2 view .LVU628
 250:../switch_sdk/core/yt/yt_nic.c **** 
 251:../switch_sdk/core/yt/yt_nic.c ****     return YT_DISPATCH(unit)->nic_rx_handler(unit);
 2229              		.loc 1 251 5 discriminator 2 view .LVU629
 2230              		.loc 1 251 29 is_stmt 0 discriminator 2 view .LVU630
 2231 000c D2F8FC24 		ldr	r2, [r2, #1276]
 2232              		.loc 1 251 12 discriminator 2 view .LVU631
 2233 0010 9047     		blx	r2
 2234              	.LVL278:
 2235              	.L237:
 252:../switch_sdk/core/yt/yt_nic.c **** }
 2236              		.loc 1 252 1 view .LVU632
 2237 0012 08BD     		pop	{r3, pc}
 2238              	.LVL279:
 2239              	.L244:
 248:../switch_sdk/core/yt/yt_nic.c ****     CMM_PARAM_CHK(NULL == YT_DISPATCH(unit), CMM_ERR_NOT_INIT);
 2240              		.loc 1 248 5 is_stmt 1 discriminator 1 view .LVU633
 248:../switch_sdk/core/yt/yt_nic.c ****     CMM_PARAM_CHK(NULL == YT_DISPATCH(unit), CMM_ERR_NOT_INIT);
 2241              		.loc 1 248 5 discriminator 1 view .LVU634
 2242 0014 0E4B     		ldr	r3, .L248+4
 2243 0016 1B78     		ldrb	r3, [r3]	@ zero_extendqisi2
 2244 0018 012B     		cmp	r3, #1
 2245 001a 01D8     		bhi	.L246
 2246              	.LVL280:
 2247              	.L239:
 248:../switch_sdk/core/yt/yt_nic.c ****     CMM_PARAM_CHK(NULL == YT_DISPATCH(unit), CMM_ERR_NOT_INIT);
 2248              		.loc 1 248 5 discriminator 5 view .LVU635
 248:../switch_sdk/core/yt/yt_nic.c ****     CMM_PARAM_CHK(NULL == YT_DISPATCH(unit), CMM_ERR_NOT_INIT);
 2249              		.loc 1 248 5 discriminator 5 view .LVU636
 248:../switch_sdk/core/yt/yt_nic.c ****     CMM_PARAM_CHK(NULL == YT_DISPATCH(unit), CMM_ERR_NOT_INIT);
 2250              		.loc 1 248 5 discriminator 5 view .LVU637
 2251 001c 0520     		movs	r0, #5
 2252 001e F8E7     		b	.L237
 2253              	.LVL281:
 2254              	.L246:
 248:../switch_sdk/core/yt/yt_nic.c ****     CMM_PARAM_CHK(NULL == YT_DISPATCH(unit), CMM_ERR_NOT_INIT);
 2255              		.loc 1 248 5 discriminator 3 view .LVU638
 2256              	.LBB46:
 248:../switch_sdk/core/yt/yt_nic.c ****     CMM_PARAM_CHK(NULL == YT_DISPATCH(unit), CMM_ERR_NOT_INIT);
 2257              		.loc 1 248 5 discriminator 3 view .LVU639
 2258 0020 0C4B     		ldr	r3, .L248+8
 2259 0022 5A69     		ldr	r2, [r3, #20]
 2260 0024 0C4B     		ldr	r3, .L248+12
 2261 0026 9968     		ldr	r1, [r3, #8]
 2262 0028 0C48     		ldr	r0, .L248+16
 2263              	.LVL282:
 248:../switch_sdk/core/yt/yt_nic.c ****     CMM_PARAM_CHK(NULL == YT_DISPATCH(unit), CMM_ERR_NOT_INIT);
 2264              		.loc 1 248 5 is_stmt 0 discriminator 3 view .LVU640
 2265 002a FFF7FEFF 		bl	osal_printf
 2266              	.LVL283:
 2267 002e F5E7     		b	.L239
 2268              	.LVL284:
 2269              	.L245:
 248:../switch_sdk/core/yt/yt_nic.c ****     CMM_PARAM_CHK(NULL == YT_DISPATCH(unit), CMM_ERR_NOT_INIT);
 2270              		.loc 1 248 5 discriminator 3 view .LVU641
 2271              	.LBE46:
 249:../switch_sdk/core/yt/yt_nic.c **** 
 2272              		.loc 1 249 5 is_stmt 1 discriminator 1 view .LVU642
 249:../switch_sdk/core/yt/yt_nic.c **** 
 2273              		.loc 1 249 5 discriminator 1 view .LVU643
 2274 0030 074B     		ldr	r3, .L248+4
 2275 0032 1B78     		ldrb	r3, [r3]	@ zero_extendqisi2
 2276 0034 012B     		cmp	r3, #1
 2277 0036 01D8     		bhi	.L247
 2278              	.LVL285:
 2279              	.L242:
 249:../switch_sdk/core/yt/yt_nic.c **** 
 2280              		.loc 1 249 5 discriminator 5 view .LVU644
 249:../switch_sdk/core/yt/yt_nic.c **** 
 2281              		.loc 1 249 5 discriminator 5 view .LVU645
 249:../switch_sdk/core/yt/yt_nic.c **** 
 2282              		.loc 1 249 5 discriminator 5 view .LVU646
 2283 0038 0420     		movs	r0, #4
 2284 003a EAE7     		b	.L237
 2285              	.LVL286:
 2286              	.L247:
 249:../switch_sdk/core/yt/yt_nic.c **** 
 2287              		.loc 1 249 5 discriminator 3 view .LVU647
 2288              	.LBB47:
 249:../switch_sdk/core/yt/yt_nic.c **** 
 2289              		.loc 1 249 5 discriminator 3 view .LVU648
 2290 003c 054B     		ldr	r3, .L248+8
 2291 003e 1A69     		ldr	r2, [r3, #16]
 2292 0040 054B     		ldr	r3, .L248+12
 2293 0042 9968     		ldr	r1, [r3, #8]
 2294 0044 0548     		ldr	r0, .L248+16
 2295              	.LVL287:
 249:../switch_sdk/core/yt/yt_nic.c **** 
 2296              		.loc 1 249 5 is_stmt 0 discriminator 3 view .LVU649
 2297 0046 FFF7FEFF 		bl	osal_printf
 2298              	.LVL288:
 2299 004a F5E7     		b	.L242
 2300              	.L249:
 2301              		.align	2
 2302              	.L248:
 2303 004c 00000000 		.word	gpfal_dispatch
 2304 0050 00000000 		.word	yt_debug_level
 2305 0054 00000000 		.word	_yt_errmsg
 2306 0058 00000000 		.word	_yt_prompt_msg
 2307 005c 00000000 		.word	.LC0
 2308              	.LBE47:
 2309              		.cfi_endproc
 2310              	.LFE15:
 2312              		.section	.text.yt_nic_tx,"ax",%progbits
 2313              		.align	1
 2314              		.global	yt_nic_tx
 2315              		.syntax unified
 2316              		.thumb
 2317              		.thumb_func
 2319              	yt_nic_tx:
 2320              	.LVL289:
 2321              	.LFB16:
 253:../switch_sdk/core/yt/yt_nic.c **** 
 254:../switch_sdk/core/yt/yt_nic.c **** yt_ret_t yt_nic_tx(yt_unit_t unit, yt_tx_pkt_t *p_tx_pkt, uint8_t mem_free_flag)
 255:../switch_sdk/core/yt/yt_nic.c **** {
 2322              		.loc 1 255 1 is_stmt 1 view -0
 2323              		.cfi_startproc
 2324              		@ args = 0, pretend = 0, frame = 0
 2325              		@ frame_needed = 0, uses_anonymous_args = 0
 2326              		.loc 1 255 1 is_stmt 0 view .LVU651
 2327 0000 10B5     		push	{r4, lr}
 2328              		.cfi_def_cfa_offset 8
 2329              		.cfi_offset 4, -8
 2330              		.cfi_offset 14, -4
 256:../switch_sdk/core/yt/yt_nic.c ****     CMM_PARAM_CHK((YT_UNIT_NUM <= unit), CMM_ERR_INPUT);
 2331              		.loc 1 256 5 is_stmt 1 view .LVU652
 2332              		.loc 1 256 5 view .LVU653
 2333 0002 60B9     		cbnz	r0, .L261
 2334 0004 0346     		mov	r3, r0
 2335              		.loc 1 256 5 discriminator 2 view .LVU654
 257:../switch_sdk/core/yt/yt_nic.c ****     CMM_PARAM_CHK(NULL == YT_DISPATCH(unit), CMM_ERR_NOT_INIT);
 2336              		.loc 1 257 5 discriminator 2 view .LVU655
 2337              		.loc 1 257 5 discriminator 2 view .LVU656
 2338 0006 2248     		ldr	r0, .L269
 2339              	.LVL290:
 2340              		.loc 1 257 5 is_stmt 0 discriminator 2 view .LVU657
 2341 0008 50F82300 		ldr	r0, [r0, r3, lsl #2]
 2342 000c A8B1     		cbz	r0, .L262
 2343              		.loc 1 257 5 is_stmt 1 discriminator 2 view .LVU658
 258:../switch_sdk/core/yt/yt_nic.c ****     CMM_PARAM_CHK((NULL == p_tx_pkt), CMM_ERR_NULL_POINT);
 2344              		.loc 1 258 5 discriminator 2 view .LVU659
 2345              		.loc 1 258 5 discriminator 2 view .LVU660
 2346 000e 11B3     		cbz	r1, .L263
 2347              		.loc 1 258 5 discriminator 2 view .LVU661
 259:../switch_sdk/core/yt/yt_nic.c ****     CMM_PARAM_CHK((TRUE != mem_free_flag) && (FALSE != mem_free_flag), CMM_ERR_INPUT);
 2348              		.loc 1 259 5 discriminator 2 view .LVU662
 2349              		.loc 1 259 5 discriminator 2 view .LVU663
 2350 0010 012A     		cmp	r2, #1
 2351 0012 2ED8     		bhi	.L264
 2352              		.loc 1 259 5 discriminator 2 view .LVU664
 260:../switch_sdk/core/yt/yt_nic.c **** 
 261:../switch_sdk/core/yt/yt_nic.c ****     return YT_DISPATCH(unit)->nic_tx(unit, p_tx_pkt, mem_free_flag);
 2353              		.loc 1 261 5 discriminator 2 view .LVU665
 2354              		.loc 1 261 29 is_stmt 0 discriminator 2 view .LVU666
 2355 0014 D0F80045 		ldr	r4, [r0, #1280]
 2356              		.loc 1 261 12 discriminator 2 view .LVU667
 2357 0018 1846     		mov	r0, r3
 2358 001a A047     		blx	r4
 2359              	.LVL291:
 2360              	.L250:
 262:../switch_sdk/core/yt/yt_nic.c **** }
 2361              		.loc 1 262 1 view .LVU668
 2362 001c 10BD     		pop	{r4, pc}
 2363              	.LVL292:
 2364              	.L261:
 256:../switch_sdk/core/yt/yt_nic.c ****     CMM_PARAM_CHK(NULL == YT_DISPATCH(unit), CMM_ERR_NOT_INIT);
 2365              		.loc 1 256 5 is_stmt 1 discriminator 1 view .LVU669
 256:../switch_sdk/core/yt/yt_nic.c ****     CMM_PARAM_CHK(NULL == YT_DISPATCH(unit), CMM_ERR_NOT_INIT);
 2366              		.loc 1 256 5 discriminator 1 view .LVU670
 2367 001e 1D4B     		ldr	r3, .L269+4
 2368 0020 1B78     		ldrb	r3, [r3]	@ zero_extendqisi2
 2369 0022 012B     		cmp	r3, #1
 2370 0024 01D8     		bhi	.L265
 2371              	.LVL293:
 2372              	.L252:
 256:../switch_sdk/core/yt/yt_nic.c ****     CMM_PARAM_CHK(NULL == YT_DISPATCH(unit), CMM_ERR_NOT_INIT);
 2373              		.loc 1 256 5 discriminator 5 view .LVU671
 256:../switch_sdk/core/yt/yt_nic.c ****     CMM_PARAM_CHK(NULL == YT_DISPATCH(unit), CMM_ERR_NOT_INIT);
 2374              		.loc 1 256 5 discriminator 5 view .LVU672
 256:../switch_sdk/core/yt/yt_nic.c ****     CMM_PARAM_CHK(NULL == YT_DISPATCH(unit), CMM_ERR_NOT_INIT);
 2375              		.loc 1 256 5 discriminator 5 view .LVU673
 2376 0026 0520     		movs	r0, #5
 2377 0028 F8E7     		b	.L250
 2378              	.LVL294:
 2379              	.L265:
 256:../switch_sdk/core/yt/yt_nic.c ****     CMM_PARAM_CHK(NULL == YT_DISPATCH(unit), CMM_ERR_NOT_INIT);
 2380              		.loc 1 256 5 discriminator 3 view .LVU674
 2381              	.LBB48:
 256:../switch_sdk/core/yt/yt_nic.c ****     CMM_PARAM_CHK(NULL == YT_DISPATCH(unit), CMM_ERR_NOT_INIT);
 2382              		.loc 1 256 5 discriminator 3 view .LVU675
 2383 002a 1B4B     		ldr	r3, .L269+8
 2384 002c 5A69     		ldr	r2, [r3, #20]
 2385              	.LVL295:
 256:../switch_sdk/core/yt/yt_nic.c ****     CMM_PARAM_CHK(NULL == YT_DISPATCH(unit), CMM_ERR_NOT_INIT);
 2386              		.loc 1 256 5 is_stmt 0 discriminator 3 view .LVU676
 2387 002e 1B4B     		ldr	r3, .L269+12
 2388 0030 9968     		ldr	r1, [r3, #8]
 2389              	.LVL296:
 256:../switch_sdk/core/yt/yt_nic.c ****     CMM_PARAM_CHK(NULL == YT_DISPATCH(unit), CMM_ERR_NOT_INIT);
 2390              		.loc 1 256 5 discriminator 3 view .LVU677
 2391 0032 1B48     		ldr	r0, .L269+16
 2392              	.LVL297:
 256:../switch_sdk/core/yt/yt_nic.c ****     CMM_PARAM_CHK(NULL == YT_DISPATCH(unit), CMM_ERR_NOT_INIT);
 2393              		.loc 1 256 5 discriminator 3 view .LVU678
 2394 0034 FFF7FEFF 		bl	osal_printf
 2395              	.LVL298:
 2396 0038 F5E7     		b	.L252
 2397              	.LVL299:
 2398              	.L262:
 256:../switch_sdk/core/yt/yt_nic.c ****     CMM_PARAM_CHK(NULL == YT_DISPATCH(unit), CMM_ERR_NOT_INIT);
 2399              		.loc 1 256 5 discriminator 3 view .LVU679
 2400              	.LBE48:
 257:../switch_sdk/core/yt/yt_nic.c ****     CMM_PARAM_CHK((NULL == p_tx_pkt), CMM_ERR_NULL_POINT);
 2401              		.loc 1 257 5 is_stmt 1 discriminator 1 view .LVU680
 257:../switch_sdk/core/yt/yt_nic.c ****     CMM_PARAM_CHK((NULL == p_tx_pkt), CMM_ERR_NULL_POINT);
 2402              		.loc 1 257 5 discriminator 1 view .LVU681
 2403 003a 164B     		ldr	r3, .L269+4
 2404 003c 1B78     		ldrb	r3, [r3]	@ zero_extendqisi2
 2405 003e 012B     		cmp	r3, #1
 2406 0040 01D8     		bhi	.L266
 2407              	.LVL300:
 2408              	.L255:
 257:../switch_sdk/core/yt/yt_nic.c ****     CMM_PARAM_CHK((NULL == p_tx_pkt), CMM_ERR_NULL_POINT);
 2409              		.loc 1 257 5 discriminator 5 view .LVU682
 257:../switch_sdk/core/yt/yt_nic.c ****     CMM_PARAM_CHK((NULL == p_tx_pkt), CMM_ERR_NULL_POINT);
 2410              		.loc 1 257 5 discriminator 5 view .LVU683
 257:../switch_sdk/core/yt/yt_nic.c ****     CMM_PARAM_CHK((NULL == p_tx_pkt), CMM_ERR_NULL_POINT);
 2411              		.loc 1 257 5 discriminator 5 view .LVU684
 2412 0042 0420     		movs	r0, #4
 2413 0044 EAE7     		b	.L250
 2414              	.LVL301:
 2415              	.L266:
 257:../switch_sdk/core/yt/yt_nic.c ****     CMM_PARAM_CHK((NULL == p_tx_pkt), CMM_ERR_NULL_POINT);
 2416              		.loc 1 257 5 discriminator 3 view .LVU685
 2417              	.LBB49:
 257:../switch_sdk/core/yt/yt_nic.c ****     CMM_PARAM_CHK((NULL == p_tx_pkt), CMM_ERR_NULL_POINT);
 2418              		.loc 1 257 5 discriminator 3 view .LVU686
 2419 0046 144B     		ldr	r3, .L269+8
 2420 0048 1A69     		ldr	r2, [r3, #16]
 2421              	.LVL302:
 257:../switch_sdk/core/yt/yt_nic.c ****     CMM_PARAM_CHK((NULL == p_tx_pkt), CMM_ERR_NULL_POINT);
 2422              		.loc 1 257 5 is_stmt 0 discriminator 3 view .LVU687
 2423 004a 144B     		ldr	r3, .L269+12
 2424 004c 9968     		ldr	r1, [r3, #8]
 2425              	.LVL303:
 257:../switch_sdk/core/yt/yt_nic.c ****     CMM_PARAM_CHK((NULL == p_tx_pkt), CMM_ERR_NULL_POINT);
 2426              		.loc 1 257 5 discriminator 3 view .LVU688
 2427 004e 1448     		ldr	r0, .L269+16
 2428 0050 FFF7FEFF 		bl	osal_printf
 2429              	.LVL304:
 2430 0054 F5E7     		b	.L255
 2431              	.LVL305:
 2432              	.L263:
 257:../switch_sdk/core/yt/yt_nic.c ****     CMM_PARAM_CHK((NULL == p_tx_pkt), CMM_ERR_NULL_POINT);
 2433              		.loc 1 257 5 discriminator 3 view .LVU689
 2434              	.LBE49:
 258:../switch_sdk/core/yt/yt_nic.c ****     CMM_PARAM_CHK((TRUE != mem_free_flag) && (FALSE != mem_free_flag), CMM_ERR_INPUT);
 2435              		.loc 1 258 5 is_stmt 1 discriminator 1 view .LVU690
 258:../switch_sdk/core/yt/yt_nic.c ****     CMM_PARAM_CHK((TRUE != mem_free_flag) && (FALSE != mem_free_flag), CMM_ERR_INPUT);
 2436              		.loc 1 258 5 discriminator 1 view .LVU691
 2437 0056 0F4B     		ldr	r3, .L269+4
 2438 0058 1B78     		ldrb	r3, [r3]	@ zero_extendqisi2
 2439 005a 012B     		cmp	r3, #1
 2440 005c 01D8     		bhi	.L267
 2441              	.LVL306:
 2442              	.L257:
 258:../switch_sdk/core/yt/yt_nic.c ****     CMM_PARAM_CHK((TRUE != mem_free_flag) && (FALSE != mem_free_flag), CMM_ERR_INPUT);
 2443              		.loc 1 258 5 discriminator 5 view .LVU692
 258:../switch_sdk/core/yt/yt_nic.c ****     CMM_PARAM_CHK((TRUE != mem_free_flag) && (FALSE != mem_free_flag), CMM_ERR_INPUT);
 2444              		.loc 1 258 5 discriminator 5 view .LVU693
 258:../switch_sdk/core/yt/yt_nic.c ****     CMM_PARAM_CHK((TRUE != mem_free_flag) && (FALSE != mem_free_flag), CMM_ERR_INPUT);
 2445              		.loc 1 258 5 discriminator 5 view .LVU694
 2446 005e 0220     		movs	r0, #2
 2447 0060 DCE7     		b	.L250
 2448              	.LVL307:
 2449              	.L267:
 258:../switch_sdk/core/yt/yt_nic.c ****     CMM_PARAM_CHK((TRUE != mem_free_flag) && (FALSE != mem_free_flag), CMM_ERR_INPUT);
 2450              		.loc 1 258 5 discriminator 3 view .LVU695
 2451              	.LBB50:
 258:../switch_sdk/core/yt/yt_nic.c ****     CMM_PARAM_CHK((TRUE != mem_free_flag) && (FALSE != mem_free_flag), CMM_ERR_INPUT);
 2452              		.loc 1 258 5 discriminator 3 view .LVU696
 2453 0062 0D4B     		ldr	r3, .L269+8
 2454 0064 9A68     		ldr	r2, [r3, #8]
 2455              	.LVL308:
 258:../switch_sdk/core/yt/yt_nic.c ****     CMM_PARAM_CHK((TRUE != mem_free_flag) && (FALSE != mem_free_flag), CMM_ERR_INPUT);
 2456              		.loc 1 258 5 is_stmt 0 discriminator 3 view .LVU697
 2457 0066 0D4B     		ldr	r3, .L269+12
 2458 0068 9968     		ldr	r1, [r3, #8]
 2459              	.LVL309:
 258:../switch_sdk/core/yt/yt_nic.c ****     CMM_PARAM_CHK((TRUE != mem_free_flag) && (FALSE != mem_free_flag), CMM_ERR_INPUT);
 2460              		.loc 1 258 5 discriminator 3 view .LVU698
 2461 006a 0D48     		ldr	r0, .L269+16
 2462 006c FFF7FEFF 		bl	osal_printf
 2463              	.LVL310:
 2464 0070 F5E7     		b	.L257
 2465              	.LVL311:
 2466              	.L264:
 258:../switch_sdk/core/yt/yt_nic.c ****     CMM_PARAM_CHK((TRUE != mem_free_flag) && (FALSE != mem_free_flag), CMM_ERR_INPUT);
 2467              		.loc 1 258 5 discriminator 3 view .LVU699
 2468              	.LBE50:
 259:../switch_sdk/core/yt/yt_nic.c **** 
 2469              		.loc 1 259 5 is_stmt 1 discriminator 1 view .LVU700
 259:../switch_sdk/core/yt/yt_nic.c **** 
 2470              		.loc 1 259 5 discriminator 1 view .LVU701
 2471 0072 084B     		ldr	r3, .L269+4
 2472 0074 1B78     		ldrb	r3, [r3]	@ zero_extendqisi2
 2473 0076 012B     		cmp	r3, #1
 2474 0078 01D8     		bhi	.L268
 2475              	.LVL312:
 2476              	.L259:
 259:../switch_sdk/core/yt/yt_nic.c **** 
 2477              		.loc 1 259 5 discriminator 5 view .LVU702
 259:../switch_sdk/core/yt/yt_nic.c **** 
 2478              		.loc 1 259 5 discriminator 5 view .LVU703
 259:../switch_sdk/core/yt/yt_nic.c **** 
 2479              		.loc 1 259 5 discriminator 5 view .LVU704
 2480 007a 0520     		movs	r0, #5
 2481 007c CEE7     		b	.L250
 2482              	.LVL313:
 2483              	.L268:
 259:../switch_sdk/core/yt/yt_nic.c **** 
 2484              		.loc 1 259 5 discriminator 3 view .LVU705
 2485              	.LBB51:
 259:../switch_sdk/core/yt/yt_nic.c **** 
 2486              		.loc 1 259 5 discriminator 3 view .LVU706
 2487 007e 064B     		ldr	r3, .L269+8
 2488 0080 5A69     		ldr	r2, [r3, #20]
 2489              	.LVL314:
 259:../switch_sdk/core/yt/yt_nic.c **** 
 2490              		.loc 1 259 5 is_stmt 0 discriminator 3 view .LVU707
 2491 0082 064B     		ldr	r3, .L269+12
 2492 0084 9968     		ldr	r1, [r3, #8]
 2493              	.LVL315:
 259:../switch_sdk/core/yt/yt_nic.c **** 
 2494              		.loc 1 259 5 discriminator 3 view .LVU708
 2495 0086 0648     		ldr	r0, .L269+16
 2496 0088 FFF7FEFF 		bl	osal_printf
 2497              	.LVL316:
 2498 008c F5E7     		b	.L259
 2499              	.L270:
 2500 008e 00BF     		.align	2
 2501              	.L269:
 2502 0090 00000000 		.word	gpfal_dispatch
 2503 0094 00000000 		.word	yt_debug_level
 2504 0098 00000000 		.word	_yt_errmsg
 2505 009c 00000000 		.word	_yt_prompt_msg
 2506 00a0 00000000 		.word	.LC0
 2507              	.LBE51:
 2508              		.cfi_endproc
 2509              	.LFE16:
 2511              		.section	.text.yt_nic_eth_drv_init,"ax",%progbits
 2512              		.align	1
 2513              		.global	yt_nic_eth_drv_init
 2514              		.syntax unified
 2515              		.thumb
 2516              		.thumb_func
 2518              	yt_nic_eth_drv_init:
 2519              	.LVL317:
 2520              	.LFB17:
 263:../switch_sdk/core/yt/yt_nic.c **** 
 264:../switch_sdk/core/yt/yt_nic.c **** yt_ret_t  yt_nic_eth_drv_init(yt_unit_t unit)
 265:../switch_sdk/core/yt/yt_nic.c **** {
 2521              		.loc 1 265 1 is_stmt 1 view -0
 2522              		.cfi_startproc
 2523              		@ args = 0, pretend = 0, frame = 0
 2524              		@ frame_needed = 0, uses_anonymous_args = 0
 2525              		.loc 1 265 1 is_stmt 0 view .LVU710
 2526 0000 08B5     		push	{r3, lr}
 2527              		.cfi_def_cfa_offset 8
 2528              		.cfi_offset 3, -8
 2529              		.cfi_offset 14, -4
 266:../switch_sdk/core/yt/yt_nic.c ****     CMM_PARAM_CHK((YT_UNIT_NUM <= unit), CMM_ERR_INPUT);
 2530              		.loc 1 266 5 is_stmt 1 view .LVU711
 2531              		.loc 1 266 5 view .LVU712
 2532 0002 38B9     		cbnz	r0, .L278
 2533              		.loc 1 266 5 discriminator 2 view .LVU713
 267:../switch_sdk/core/yt/yt_nic.c ****     CMM_PARAM_CHK(NULL == YT_DISPATCH(unit), CMM_ERR_NOT_INIT);
 2534              		.loc 1 267 5 discriminator 2 view .LVU714
 2535              		.loc 1 267 5 discriminator 2 view .LVU715
 2536 0004 114A     		ldr	r2, .L282
 2537 0006 52F82020 		ldr	r2, [r2, r0, lsl #2]
 2538 000a 8AB1     		cbz	r2, .L279
 2539              		.loc 1 267 5 discriminator 2 view .LVU716
 268:../switch_sdk/core/yt/yt_nic.c **** 
 269:../switch_sdk/core/yt/yt_nic.c ****     return YT_DISPATCH(unit)->nic_eth_drv_init(unit);
 2540              		.loc 1 269 5 discriminator 2 view .LVU717
 2541              		.loc 1 269 29 is_stmt 0 discriminator 2 view .LVU718
 2542 000c D2F80C25 		ldr	r2, [r2, #1292]
 2543              		.loc 1 269 12 discriminator 2 view .LVU719
 2544 0010 9047     		blx	r2
 2545              	.LVL318:
 2546              	.L271:
 270:../switch_sdk/core/yt/yt_nic.c **** }
 2547              		.loc 1 270 1 view .LVU720
 2548 0012 08BD     		pop	{r3, pc}
 2549              	.LVL319:
 2550              	.L278:
 266:../switch_sdk/core/yt/yt_nic.c ****     CMM_PARAM_CHK(NULL == YT_DISPATCH(unit), CMM_ERR_NOT_INIT);
 2551              		.loc 1 266 5 is_stmt 1 discriminator 1 view .LVU721
 266:../switch_sdk/core/yt/yt_nic.c ****     CMM_PARAM_CHK(NULL == YT_DISPATCH(unit), CMM_ERR_NOT_INIT);
 2552              		.loc 1 266 5 discriminator 1 view .LVU722
 2553 0014 0E4B     		ldr	r3, .L282+4
 2554 0016 1B78     		ldrb	r3, [r3]	@ zero_extendqisi2
 2555 0018 012B     		cmp	r3, #1
 2556 001a 01D8     		bhi	.L280
 2557              	.LVL320:
 2558              	.L273:
 266:../switch_sdk/core/yt/yt_nic.c ****     CMM_PARAM_CHK(NULL == YT_DISPATCH(unit), CMM_ERR_NOT_INIT);
 2559              		.loc 1 266 5 discriminator 5 view .LVU723
 266:../switch_sdk/core/yt/yt_nic.c ****     CMM_PARAM_CHK(NULL == YT_DISPATCH(unit), CMM_ERR_NOT_INIT);
 2560              		.loc 1 266 5 discriminator 5 view .LVU724
 266:../switch_sdk/core/yt/yt_nic.c ****     CMM_PARAM_CHK(NULL == YT_DISPATCH(unit), CMM_ERR_NOT_INIT);
 2561              		.loc 1 266 5 discriminator 5 view .LVU725
 2562 001c 0520     		movs	r0, #5
 2563 001e F8E7     		b	.L271
 2564              	.LVL321:
 2565              	.L280:
 266:../switch_sdk/core/yt/yt_nic.c ****     CMM_PARAM_CHK(NULL == YT_DISPATCH(unit), CMM_ERR_NOT_INIT);
 2566              		.loc 1 266 5 discriminator 3 view .LVU726
 2567              	.LBB52:
 266:../switch_sdk/core/yt/yt_nic.c ****     CMM_PARAM_CHK(NULL == YT_DISPATCH(unit), CMM_ERR_NOT_INIT);
 2568              		.loc 1 266 5 discriminator 3 view .LVU727
 2569 0020 0C4B     		ldr	r3, .L282+8
 2570 0022 5A69     		ldr	r2, [r3, #20]
 2571 0024 0C4B     		ldr	r3, .L282+12
 2572 0026 9968     		ldr	r1, [r3, #8]
 2573 0028 0C48     		ldr	r0, .L282+16
 2574              	.LVL322:
 266:../switch_sdk/core/yt/yt_nic.c ****     CMM_PARAM_CHK(NULL == YT_DISPATCH(unit), CMM_ERR_NOT_INIT);
 2575              		.loc 1 266 5 is_stmt 0 discriminator 3 view .LVU728
 2576 002a FFF7FEFF 		bl	osal_printf
 2577              	.LVL323:
 2578 002e F5E7     		b	.L273
 2579              	.LVL324:
 2580              	.L279:
 266:../switch_sdk/core/yt/yt_nic.c ****     CMM_PARAM_CHK(NULL == YT_DISPATCH(unit), CMM_ERR_NOT_INIT);
 2581              		.loc 1 266 5 discriminator 3 view .LVU729
 2582              	.LBE52:
 267:../switch_sdk/core/yt/yt_nic.c **** 
 2583              		.loc 1 267 5 is_stmt 1 discriminator 1 view .LVU730
 267:../switch_sdk/core/yt/yt_nic.c **** 
 2584              		.loc 1 267 5 discriminator 1 view .LVU731
 2585 0030 074B     		ldr	r3, .L282+4
 2586 0032 1B78     		ldrb	r3, [r3]	@ zero_extendqisi2
 2587 0034 012B     		cmp	r3, #1
 2588 0036 01D8     		bhi	.L281
 2589              	.LVL325:
 2590              	.L276:
 267:../switch_sdk/core/yt/yt_nic.c **** 
 2591              		.loc 1 267 5 discriminator 5 view .LVU732
 267:../switch_sdk/core/yt/yt_nic.c **** 
 2592              		.loc 1 267 5 discriminator 5 view .LVU733
 267:../switch_sdk/core/yt/yt_nic.c **** 
 2593              		.loc 1 267 5 discriminator 5 view .LVU734
 2594 0038 0420     		movs	r0, #4
 2595 003a EAE7     		b	.L271
 2596              	.LVL326:
 2597              	.L281:
 267:../switch_sdk/core/yt/yt_nic.c **** 
 2598              		.loc 1 267 5 discriminator 3 view .LVU735
 2599              	.LBB53:
 267:../switch_sdk/core/yt/yt_nic.c **** 
 2600              		.loc 1 267 5 discriminator 3 view .LVU736
 2601 003c 054B     		ldr	r3, .L282+8
 2602 003e 1A69     		ldr	r2, [r3, #16]
 2603 0040 054B     		ldr	r3, .L282+12
 2604 0042 9968     		ldr	r1, [r3, #8]
 2605 0044 0548     		ldr	r0, .L282+16
 2606              	.LVL327:
 267:../switch_sdk/core/yt/yt_nic.c **** 
 2607              		.loc 1 267 5 is_stmt 0 discriminator 3 view .LVU737
 2608 0046 FFF7FEFF 		bl	osal_printf
 2609              	.LVL328:
 2610 004a F5E7     		b	.L276
 2611              	.L283:
 2612              		.align	2
 2613              	.L282:
 2614 004c 00000000 		.word	gpfal_dispatch
 2615 0050 00000000 		.word	yt_debug_level
 2616 0054 00000000 		.word	_yt_errmsg
 2617 0058 00000000 		.word	_yt_prompt_msg
 2618 005c 00000000 		.word	.LC0
 2619              	.LBE53:
 2620              		.cfi_endproc
 2621              	.LFE17:
 2623              		.section	.text.yt_nic_eth_buf_cnt_len_set,"ax",%progbits
 2624              		.align	1
 2625              		.global	yt_nic_eth_buf_cnt_len_set
 2626              		.syntax unified
 2627              		.thumb
 2628              		.thumb_func
 2630              	yt_nic_eth_buf_cnt_len_set:
 2631              	.LVL329:
 2632              	.LFB18:
 271:../switch_sdk/core/yt/yt_nic.c **** 
 272:../switch_sdk/core/yt/yt_nic.c **** yt_ret_t yt_nic_eth_buf_cnt_len_set(yt_unit_t unit, uint16_t buf_cnt, uint16_t tx_buf_cnt, uint16_t
 273:../switch_sdk/core/yt/yt_nic.c **** {
 2633              		.loc 1 273 1 is_stmt 1 view -0
 2634              		.cfi_startproc
 2635              		@ args = 0, pretend = 0, frame = 0
 2636              		@ frame_needed = 0, uses_anonymous_args = 0
 2637              		.loc 1 273 1 is_stmt 0 view .LVU739
 2638 0000 10B5     		push	{r4, lr}
 2639              		.cfi_def_cfa_offset 8
 2640              		.cfi_offset 4, -8
 2641              		.cfi_offset 14, -4
 274:../switch_sdk/core/yt/yt_nic.c ****     CMM_PARAM_CHK((YT_UNIT_NUM <= unit), CMM_ERR_INPUT);
 2642              		.loc 1 274 5 is_stmt 1 view .LVU740
 2643              		.loc 1 274 5 view .LVU741
 2644 0002 88B9     		cbnz	r0, .L299
 2645 0004 8446     		mov	ip, r0
 2646              		.loc 1 274 5 discriminator 2 view .LVU742
 275:../switch_sdk/core/yt/yt_nic.c ****     CMM_PARAM_CHK(NULL == YT_DISPATCH(unit), CMM_ERR_NOT_INIT);
 2647              		.loc 1 275 5 discriminator 2 view .LVU743
 2648              		.loc 1 275 5 discriminator 2 view .LVU744
 2649 0006 3248     		ldr	r0, .L311
 2650              	.LVL330:
 2651              		.loc 1 275 5 is_stmt 0 discriminator 2 view .LVU745
 2652 0008 50F82C00 		ldr	r0, [r0, ip, lsl #2]
 2653 000c D0B1     		cbz	r0, .L300
 2654              		.loc 1 275 5 is_stmt 1 discriminator 2 view .LVU746
 276:../switch_sdk/core/yt/yt_nic.c ****     CMM_PARAM_CHK((buf_cnt < NIC_ETH_BUF_CNT_MIN), CMM_ERR_EXCEED_RANGE);
 2655              		.loc 1 276 5 discriminator 2 view .LVU747
 2656              		.loc 1 276 5 discriminator 2 view .LVU748
 2657 000e 3729     		cmp	r1, #55
 2658 0010 26D9     		bls	.L301
 2659              		.loc 1 276 5 discriminator 2 view .LVU749
 277:../switch_sdk/core/yt/yt_nic.c ****     CMM_PARAM_CHK((tx_buf_cnt < NIC_ETH_TXBUF_CNT_MIN), CMM_ERR_EXCEED_RANGE);
 2660              		.loc 1 277 5 discriminator 2 view .LVU750
 2661              		.loc 1 277 5 discriminator 2 view .LVU751
 2662 0012 052A     		cmp	r2, #5
 2663 0014 32D9     		bls	.L302
 2664              		.loc 1 277 5 discriminator 2 view .LVU752
 278:../switch_sdk/core/yt/yt_nic.c ****     CMM_PARAM_CHK((buf_cnt <= tx_buf_cnt), CMM_ERR_INPUT);
 2665              		.loc 1 278 5 discriminator 2 view .LVU753
 2666              		.loc 1 278 5 discriminator 2 view .LVU754
 2667 0016 9142     		cmp	r1, r2
 2668 0018 3ED9     		bls	.L303
 2669              		.loc 1 278 5 discriminator 2 view .LVU755
 279:../switch_sdk/core/yt/yt_nic.c ****     CMM_PARAM_CHK((buf_len < NIC_ETH_BUF_LEN_MIN), CMM_ERR_EXCEED_RANGE);
 2670              		.loc 1 279 5 discriminator 2 view .LVU756
 2671              		.loc 1 279 5 discriminator 2 view .LVU757
 2672 001a FF2B     		cmp	r3, #255
 2673 001c 4AD9     		bls	.L304
 2674              		.loc 1 279 5 discriminator 2 view .LVU758
 280:../switch_sdk/core/yt/yt_nic.c **** 
 281:../switch_sdk/core/yt/yt_nic.c ****     return YT_DISPATCH(unit)->nic_eth_buf_cnt_len_set(unit, buf_cnt, tx_buf_cnt, buf_len);
 2675              		.loc 1 281 5 discriminator 2 view .LVU759
 2676              		.loc 1 281 29 is_stmt 0 discriminator 2 view .LVU760
 2677 001e D0F80445 		ldr	r4, [r0, #1284]
 2678              		.loc 1 281 12 discriminator 2 view .LVU761
 2679 0022 6046     		mov	r0, ip
 2680 0024 A047     		blx	r4
 2681              	.LVL331:
 2682              	.L284:
 282:../switch_sdk/core/yt/yt_nic.c **** }
 2683              		.loc 1 282 1 view .LVU762
 2684 0026 10BD     		pop	{r4, pc}
 2685              	.LVL332:
 2686              	.L299:
 274:../switch_sdk/core/yt/yt_nic.c ****     CMM_PARAM_CHK(NULL == YT_DISPATCH(unit), CMM_ERR_NOT_INIT);
 2687              		.loc 1 274 5 is_stmt 1 discriminator 1 view .LVU763
 274:../switch_sdk/core/yt/yt_nic.c ****     CMM_PARAM_CHK(NULL == YT_DISPATCH(unit), CMM_ERR_NOT_INIT);
 2688              		.loc 1 274 5 discriminator 1 view .LVU764
 2689 0028 2A4B     		ldr	r3, .L311+4
 2690              	.LVL333:
 274:../switch_sdk/core/yt/yt_nic.c ****     CMM_PARAM_CHK(NULL == YT_DISPATCH(unit), CMM_ERR_NOT_INIT);
 2691              		.loc 1 274 5 is_stmt 0 discriminator 1 view .LVU765
 2692 002a 1B78     		ldrb	r3, [r3]	@ zero_extendqisi2
 2693 002c 012B     		cmp	r3, #1
 2694 002e 01D8     		bhi	.L305
 2695              	.LVL334:
 2696              	.L286:
 274:../switch_sdk/core/yt/yt_nic.c ****     CMM_PARAM_CHK(NULL == YT_DISPATCH(unit), CMM_ERR_NOT_INIT);
 2697              		.loc 1 274 5 is_stmt 1 discriminator 5 view .LVU766
 274:../switch_sdk/core/yt/yt_nic.c ****     CMM_PARAM_CHK(NULL == YT_DISPATCH(unit), CMM_ERR_NOT_INIT);
 2698              		.loc 1 274 5 discriminator 5 view .LVU767
 274:../switch_sdk/core/yt/yt_nic.c ****     CMM_PARAM_CHK(NULL == YT_DISPATCH(unit), CMM_ERR_NOT_INIT);
 2699              		.loc 1 274 5 discriminator 5 view .LVU768
 2700 0030 0520     		movs	r0, #5
 2701 0032 F8E7     		b	.L284
 2702              	.LVL335:
 2703              	.L305:
 274:../switch_sdk/core/yt/yt_nic.c ****     CMM_PARAM_CHK(NULL == YT_DISPATCH(unit), CMM_ERR_NOT_INIT);
 2704              		.loc 1 274 5 discriminator 3 view .LVU769
 2705              	.LBB54:
 274:../switch_sdk/core/yt/yt_nic.c ****     CMM_PARAM_CHK(NULL == YT_DISPATCH(unit), CMM_ERR_NOT_INIT);
 2706              		.loc 1 274 5 discriminator 3 view .LVU770
 2707 0034 284B     		ldr	r3, .L311+8
 2708 0036 5A69     		ldr	r2, [r3, #20]
 2709              	.LVL336:
 274:../switch_sdk/core/yt/yt_nic.c ****     CMM_PARAM_CHK(NULL == YT_DISPATCH(unit), CMM_ERR_NOT_INIT);
 2710              		.loc 1 274 5 is_stmt 0 discriminator 3 view .LVU771
 2711 0038 284B     		ldr	r3, .L311+12
 2712 003a 9968     		ldr	r1, [r3, #8]
 2713              	.LVL337:
 274:../switch_sdk/core/yt/yt_nic.c ****     CMM_PARAM_CHK(NULL == YT_DISPATCH(unit), CMM_ERR_NOT_INIT);
 2714              		.loc 1 274 5 discriminator 3 view .LVU772
 2715 003c 2848     		ldr	r0, .L311+16
 2716              	.LVL338:
 274:../switch_sdk/core/yt/yt_nic.c ****     CMM_PARAM_CHK(NULL == YT_DISPATCH(unit), CMM_ERR_NOT_INIT);
 2717              		.loc 1 274 5 discriminator 3 view .LVU773
 2718 003e FFF7FEFF 		bl	osal_printf
 2719              	.LVL339:
 2720 0042 F5E7     		b	.L286
 2721              	.LVL340:
 2722              	.L300:
 274:../switch_sdk/core/yt/yt_nic.c ****     CMM_PARAM_CHK(NULL == YT_DISPATCH(unit), CMM_ERR_NOT_INIT);
 2723              		.loc 1 274 5 discriminator 3 view .LVU774
 2724              	.LBE54:
 275:../switch_sdk/core/yt/yt_nic.c ****     CMM_PARAM_CHK((buf_cnt < NIC_ETH_BUF_CNT_MIN), CMM_ERR_EXCEED_RANGE);
 2725              		.loc 1 275 5 is_stmt 1 discriminator 1 view .LVU775
 275:../switch_sdk/core/yt/yt_nic.c ****     CMM_PARAM_CHK((buf_cnt < NIC_ETH_BUF_CNT_MIN), CMM_ERR_EXCEED_RANGE);
 2726              		.loc 1 275 5 discriminator 1 view .LVU776
 2727 0044 234B     		ldr	r3, .L311+4
 2728              	.LVL341:
 275:../switch_sdk/core/yt/yt_nic.c ****     CMM_PARAM_CHK((buf_cnt < NIC_ETH_BUF_CNT_MIN), CMM_ERR_EXCEED_RANGE);
 2729              		.loc 1 275 5 is_stmt 0 discriminator 1 view .LVU777
 2730 0046 1B78     		ldrb	r3, [r3]	@ zero_extendqisi2
 2731 0048 012B     		cmp	r3, #1
 2732 004a 01D8     		bhi	.L306
 2733              	.LVL342:
 2734              	.L289:
 275:../switch_sdk/core/yt/yt_nic.c ****     CMM_PARAM_CHK((buf_cnt < NIC_ETH_BUF_CNT_MIN), CMM_ERR_EXCEED_RANGE);
 2735              		.loc 1 275 5 is_stmt 1 discriminator 5 view .LVU778
 275:../switch_sdk/core/yt/yt_nic.c ****     CMM_PARAM_CHK((buf_cnt < NIC_ETH_BUF_CNT_MIN), CMM_ERR_EXCEED_RANGE);
 2736              		.loc 1 275 5 discriminator 5 view .LVU779
 275:../switch_sdk/core/yt/yt_nic.c ****     CMM_PARAM_CHK((buf_cnt < NIC_ETH_BUF_CNT_MIN), CMM_ERR_EXCEED_RANGE);
 2737              		.loc 1 275 5 discriminator 5 view .LVU780
 2738 004c 0420     		movs	r0, #4
 2739 004e EAE7     		b	.L284
 2740              	.LVL343:
 2741              	.L306:
 275:../switch_sdk/core/yt/yt_nic.c ****     CMM_PARAM_CHK((buf_cnt < NIC_ETH_BUF_CNT_MIN), CMM_ERR_EXCEED_RANGE);
 2742              		.loc 1 275 5 discriminator 3 view .LVU781
 2743              	.LBB55:
 275:../switch_sdk/core/yt/yt_nic.c ****     CMM_PARAM_CHK((buf_cnt < NIC_ETH_BUF_CNT_MIN), CMM_ERR_EXCEED_RANGE);
 2744              		.loc 1 275 5 discriminator 3 view .LVU782
 2745 0050 214B     		ldr	r3, .L311+8
 2746 0052 1A69     		ldr	r2, [r3, #16]
 2747              	.LVL344:
 275:../switch_sdk/core/yt/yt_nic.c ****     CMM_PARAM_CHK((buf_cnt < NIC_ETH_BUF_CNT_MIN), CMM_ERR_EXCEED_RANGE);
 2748              		.loc 1 275 5 is_stmt 0 discriminator 3 view .LVU783
 2749 0054 214B     		ldr	r3, .L311+12
 2750 0056 9968     		ldr	r1, [r3, #8]
 2751              	.LVL345:
 275:../switch_sdk/core/yt/yt_nic.c ****     CMM_PARAM_CHK((buf_cnt < NIC_ETH_BUF_CNT_MIN), CMM_ERR_EXCEED_RANGE);
 2752              		.loc 1 275 5 discriminator 3 view .LVU784
 2753 0058 2148     		ldr	r0, .L311+16
 2754 005a FFF7FEFF 		bl	osal_printf
 2755              	.LVL346:
 2756 005e F5E7     		b	.L289
 2757              	.LVL347:
 2758              	.L301:
 275:../switch_sdk/core/yt/yt_nic.c ****     CMM_PARAM_CHK((buf_cnt < NIC_ETH_BUF_CNT_MIN), CMM_ERR_EXCEED_RANGE);
 2759              		.loc 1 275 5 discriminator 3 view .LVU785
 2760              	.LBE55:
 276:../switch_sdk/core/yt/yt_nic.c ****     CMM_PARAM_CHK((tx_buf_cnt < NIC_ETH_TXBUF_CNT_MIN), CMM_ERR_EXCEED_RANGE);
 2761              		.loc 1 276 5 is_stmt 1 discriminator 1 view .LVU786
 276:../switch_sdk/core/yt/yt_nic.c ****     CMM_PARAM_CHK((tx_buf_cnt < NIC_ETH_TXBUF_CNT_MIN), CMM_ERR_EXCEED_RANGE);
 2762              		.loc 1 276 5 discriminator 1 view .LVU787
 2763 0060 1C4B     		ldr	r3, .L311+4
 2764              	.LVL348:
 276:../switch_sdk/core/yt/yt_nic.c ****     CMM_PARAM_CHK((tx_buf_cnt < NIC_ETH_TXBUF_CNT_MIN), CMM_ERR_EXCEED_RANGE);
 2765              		.loc 1 276 5 is_stmt 0 discriminator 1 view .LVU788
 2766 0062 1B78     		ldrb	r3, [r3]	@ zero_extendqisi2
 2767 0064 012B     		cmp	r3, #1
 2768 0066 01D8     		bhi	.L307
 2769              	.LVL349:
 2770              	.L291:
 276:../switch_sdk/core/yt/yt_nic.c ****     CMM_PARAM_CHK((tx_buf_cnt < NIC_ETH_TXBUF_CNT_MIN), CMM_ERR_EXCEED_RANGE);
 2771              		.loc 1 276 5 is_stmt 1 discriminator 5 view .LVU789
 276:../switch_sdk/core/yt/yt_nic.c ****     CMM_PARAM_CHK((tx_buf_cnt < NIC_ETH_TXBUF_CNT_MIN), CMM_ERR_EXCEED_RANGE);
 2772              		.loc 1 276 5 discriminator 5 view .LVU790
 276:../switch_sdk/core/yt/yt_nic.c ****     CMM_PARAM_CHK((tx_buf_cnt < NIC_ETH_TXBUF_CNT_MIN), CMM_ERR_EXCEED_RANGE);
 2773              		.loc 1 276 5 discriminator 5 view .LVU791
 2774 0068 1120     		movs	r0, #17
 2775 006a DCE7     		b	.L284
 2776              	.LVL350:
 2777              	.L307:
 276:../switch_sdk/core/yt/yt_nic.c ****     CMM_PARAM_CHK((tx_buf_cnt < NIC_ETH_TXBUF_CNT_MIN), CMM_ERR_EXCEED_RANGE);
 2778              		.loc 1 276 5 discriminator 3 view .LVU792
 2779              	.LBB56:
 276:../switch_sdk/core/yt/yt_nic.c ****     CMM_PARAM_CHK((tx_buf_cnt < NIC_ETH_TXBUF_CNT_MIN), CMM_ERR_EXCEED_RANGE);
 2780              		.loc 1 276 5 discriminator 3 view .LVU793
 2781 006c 1A4B     		ldr	r3, .L311+8
 2782 006e 5A6C     		ldr	r2, [r3, #68]
 2783              	.LVL351:
 276:../switch_sdk/core/yt/yt_nic.c ****     CMM_PARAM_CHK((tx_buf_cnt < NIC_ETH_TXBUF_CNT_MIN), CMM_ERR_EXCEED_RANGE);
 2784              		.loc 1 276 5 is_stmt 0 discriminator 3 view .LVU794
 2785 0070 1A4B     		ldr	r3, .L311+12
 2786 0072 9968     		ldr	r1, [r3, #8]
 2787              	.LVL352:
 276:../switch_sdk/core/yt/yt_nic.c ****     CMM_PARAM_CHK((tx_buf_cnt < NIC_ETH_TXBUF_CNT_MIN), CMM_ERR_EXCEED_RANGE);
 2788              		.loc 1 276 5 discriminator 3 view .LVU795
 2789 0074 1A48     		ldr	r0, .L311+16
 2790 0076 FFF7FEFF 		bl	osal_printf
 2791              	.LVL353:
 2792 007a F5E7     		b	.L291
 2793              	.LVL354:
 2794              	.L302:
 276:../switch_sdk/core/yt/yt_nic.c ****     CMM_PARAM_CHK((tx_buf_cnt < NIC_ETH_TXBUF_CNT_MIN), CMM_ERR_EXCEED_RANGE);
 2795              		.loc 1 276 5 discriminator 3 view .LVU796
 2796              	.LBE56:
 277:../switch_sdk/core/yt/yt_nic.c ****     CMM_PARAM_CHK((buf_cnt <= tx_buf_cnt), CMM_ERR_INPUT);
 2797              		.loc 1 277 5 is_stmt 1 discriminator 1 view .LVU797
 277:../switch_sdk/core/yt/yt_nic.c ****     CMM_PARAM_CHK((buf_cnt <= tx_buf_cnt), CMM_ERR_INPUT);
 2798              		.loc 1 277 5 discriminator 1 view .LVU798
 2799 007c 154B     		ldr	r3, .L311+4
 2800              	.LVL355:
 277:../switch_sdk/core/yt/yt_nic.c ****     CMM_PARAM_CHK((buf_cnt <= tx_buf_cnt), CMM_ERR_INPUT);
 2801              		.loc 1 277 5 is_stmt 0 discriminator 1 view .LVU799
 2802 007e 1B78     		ldrb	r3, [r3]	@ zero_extendqisi2
 2803 0080 012B     		cmp	r3, #1
 2804 0082 01D8     		bhi	.L308
 2805              	.LVL356:
 2806              	.L293:
 277:../switch_sdk/core/yt/yt_nic.c ****     CMM_PARAM_CHK((buf_cnt <= tx_buf_cnt), CMM_ERR_INPUT);
 2807              		.loc 1 277 5 is_stmt 1 discriminator 5 view .LVU800
 277:../switch_sdk/core/yt/yt_nic.c ****     CMM_PARAM_CHK((buf_cnt <= tx_buf_cnt), CMM_ERR_INPUT);
 2808              		.loc 1 277 5 discriminator 5 view .LVU801
 277:../switch_sdk/core/yt/yt_nic.c ****     CMM_PARAM_CHK((buf_cnt <= tx_buf_cnt), CMM_ERR_INPUT);
 2809              		.loc 1 277 5 discriminator 5 view .LVU802
 2810 0084 1120     		movs	r0, #17
 2811 0086 CEE7     		b	.L284
 2812              	.LVL357:
 2813              	.L308:
 277:../switch_sdk/core/yt/yt_nic.c ****     CMM_PARAM_CHK((buf_cnt <= tx_buf_cnt), CMM_ERR_INPUT);
 2814              		.loc 1 277 5 discriminator 3 view .LVU803
 2815              	.LBB57:
 277:../switch_sdk/core/yt/yt_nic.c ****     CMM_PARAM_CHK((buf_cnt <= tx_buf_cnt), CMM_ERR_INPUT);
 2816              		.loc 1 277 5 discriminator 3 view .LVU804
 2817 0088 134B     		ldr	r3, .L311+8
 2818 008a 5A6C     		ldr	r2, [r3, #68]
 2819              	.LVL358:
 277:../switch_sdk/core/yt/yt_nic.c ****     CMM_PARAM_CHK((buf_cnt <= tx_buf_cnt), CMM_ERR_INPUT);
 2820              		.loc 1 277 5 is_stmt 0 discriminator 3 view .LVU805
 2821 008c 134B     		ldr	r3, .L311+12
 2822 008e 9968     		ldr	r1, [r3, #8]
 2823              	.LVL359:
 277:../switch_sdk/core/yt/yt_nic.c ****     CMM_PARAM_CHK((buf_cnt <= tx_buf_cnt), CMM_ERR_INPUT);
 2824              		.loc 1 277 5 discriminator 3 view .LVU806
 2825 0090 1348     		ldr	r0, .L311+16
 2826 0092 FFF7FEFF 		bl	osal_printf
 2827              	.LVL360:
 2828 0096 F5E7     		b	.L293
 2829              	.LVL361:
 2830              	.L303:
 277:../switch_sdk/core/yt/yt_nic.c ****     CMM_PARAM_CHK((buf_cnt <= tx_buf_cnt), CMM_ERR_INPUT);
 2831              		.loc 1 277 5 discriminator 3 view .LVU807
 2832              	.LBE57:
 278:../switch_sdk/core/yt/yt_nic.c ****     CMM_PARAM_CHK((buf_len < NIC_ETH_BUF_LEN_MIN), CMM_ERR_EXCEED_RANGE);
 2833              		.loc 1 278 5 is_stmt 1 discriminator 1 view .LVU808
 278:../switch_sdk/core/yt/yt_nic.c ****     CMM_PARAM_CHK((buf_len < NIC_ETH_BUF_LEN_MIN), CMM_ERR_EXCEED_RANGE);
 2834              		.loc 1 278 5 discriminator 1 view .LVU809
 2835 0098 0E4B     		ldr	r3, .L311+4
 2836              	.LVL362:
 278:../switch_sdk/core/yt/yt_nic.c ****     CMM_PARAM_CHK((buf_len < NIC_ETH_BUF_LEN_MIN), CMM_ERR_EXCEED_RANGE);
 2837              		.loc 1 278 5 is_stmt 0 discriminator 1 view .LVU810
 2838 009a 1B78     		ldrb	r3, [r3]	@ zero_extendqisi2
 2839 009c 012B     		cmp	r3, #1
 2840 009e 01D8     		bhi	.L309
 2841              	.LVL363:
 2842              	.L295:
 278:../switch_sdk/core/yt/yt_nic.c ****     CMM_PARAM_CHK((buf_len < NIC_ETH_BUF_LEN_MIN), CMM_ERR_EXCEED_RANGE);
 2843              		.loc 1 278 5 is_stmt 1 discriminator 5 view .LVU811
 278:../switch_sdk/core/yt/yt_nic.c ****     CMM_PARAM_CHK((buf_len < NIC_ETH_BUF_LEN_MIN), CMM_ERR_EXCEED_RANGE);
 2844              		.loc 1 278 5 discriminator 5 view .LVU812
 278:../switch_sdk/core/yt/yt_nic.c ****     CMM_PARAM_CHK((buf_len < NIC_ETH_BUF_LEN_MIN), CMM_ERR_EXCEED_RANGE);
 2845              		.loc 1 278 5 discriminator 5 view .LVU813
 2846 00a0 0520     		movs	r0, #5
 2847 00a2 C0E7     		b	.L284
 2848              	.LVL364:
 2849              	.L309:
 278:../switch_sdk/core/yt/yt_nic.c ****     CMM_PARAM_CHK((buf_len < NIC_ETH_BUF_LEN_MIN), CMM_ERR_EXCEED_RANGE);
 2850              		.loc 1 278 5 discriminator 3 view .LVU814
 2851              	.LBB58:
 278:../switch_sdk/core/yt/yt_nic.c ****     CMM_PARAM_CHK((buf_len < NIC_ETH_BUF_LEN_MIN), CMM_ERR_EXCEED_RANGE);
 2852              		.loc 1 278 5 discriminator 3 view .LVU815
 2853 00a4 0C4B     		ldr	r3, .L311+8
 2854 00a6 5A69     		ldr	r2, [r3, #20]
 2855              	.LVL365:
 278:../switch_sdk/core/yt/yt_nic.c ****     CMM_PARAM_CHK((buf_len < NIC_ETH_BUF_LEN_MIN), CMM_ERR_EXCEED_RANGE);
 2856              		.loc 1 278 5 is_stmt 0 discriminator 3 view .LVU816
 2857 00a8 0C4B     		ldr	r3, .L311+12
 2858 00aa 9968     		ldr	r1, [r3, #8]
 2859              	.LVL366:
 278:../switch_sdk/core/yt/yt_nic.c ****     CMM_PARAM_CHK((buf_len < NIC_ETH_BUF_LEN_MIN), CMM_ERR_EXCEED_RANGE);
 2860              		.loc 1 278 5 discriminator 3 view .LVU817
 2861 00ac 0C48     		ldr	r0, .L311+16
 2862 00ae FFF7FEFF 		bl	osal_printf
 2863              	.LVL367:
 2864 00b2 F5E7     		b	.L295
 2865              	.LVL368:
 2866              	.L304:
 278:../switch_sdk/core/yt/yt_nic.c ****     CMM_PARAM_CHK((buf_len < NIC_ETH_BUF_LEN_MIN), CMM_ERR_EXCEED_RANGE);
 2867              		.loc 1 278 5 discriminator 3 view .LVU818
 2868              	.LBE58:
 279:../switch_sdk/core/yt/yt_nic.c **** 
 2869              		.loc 1 279 5 is_stmt 1 discriminator 1 view .LVU819
 279:../switch_sdk/core/yt/yt_nic.c **** 
 2870              		.loc 1 279 5 discriminator 1 view .LVU820
 2871 00b4 074B     		ldr	r3, .L311+4
 2872              	.LVL369:
 279:../switch_sdk/core/yt/yt_nic.c **** 
 2873              		.loc 1 279 5 is_stmt 0 discriminator 1 view .LVU821
 2874 00b6 1B78     		ldrb	r3, [r3]	@ zero_extendqisi2
 2875 00b8 012B     		cmp	r3, #1
 2876 00ba 01D8     		bhi	.L310
 2877              	.LVL370:
 2878              	.L297:
 279:../switch_sdk/core/yt/yt_nic.c **** 
 2879              		.loc 1 279 5 is_stmt 1 discriminator 5 view .LVU822
 279:../switch_sdk/core/yt/yt_nic.c **** 
 2880              		.loc 1 279 5 discriminator 5 view .LVU823
 279:../switch_sdk/core/yt/yt_nic.c **** 
 2881              		.loc 1 279 5 discriminator 5 view .LVU824
 2882 00bc 1120     		movs	r0, #17
 2883 00be B2E7     		b	.L284
 2884              	.LVL371:
 2885              	.L310:
 279:../switch_sdk/core/yt/yt_nic.c **** 
 2886              		.loc 1 279 5 discriminator 3 view .LVU825
 2887              	.LBB59:
 279:../switch_sdk/core/yt/yt_nic.c **** 
 2888              		.loc 1 279 5 discriminator 3 view .LVU826
 2889 00c0 054B     		ldr	r3, .L311+8
 2890 00c2 5A6C     		ldr	r2, [r3, #68]
 2891              	.LVL372:
 279:../switch_sdk/core/yt/yt_nic.c **** 
 2892              		.loc 1 279 5 is_stmt 0 discriminator 3 view .LVU827
 2893 00c4 054B     		ldr	r3, .L311+12
 2894 00c6 9968     		ldr	r1, [r3, #8]
 2895              	.LVL373:
 279:../switch_sdk/core/yt/yt_nic.c **** 
 2896              		.loc 1 279 5 discriminator 3 view .LVU828
 2897 00c8 0548     		ldr	r0, .L311+16
 2898 00ca FFF7FEFF 		bl	osal_printf
 2899              	.LVL374:
 2900 00ce F5E7     		b	.L297
 2901              	.L312:
 2902              		.align	2
 2903              	.L311:
 2904 00d0 00000000 		.word	gpfal_dispatch
 2905 00d4 00000000 		.word	yt_debug_level
 2906 00d8 00000000 		.word	_yt_errmsg
 2907 00dc 00000000 		.word	_yt_prompt_msg
 2908 00e0 00000000 		.word	.LC0
 2909              	.LBE59:
 2910              		.cfi_endproc
 2911              	.LFE18:
 2913              		.section	.text.yt_nic_eth_debug_flag_set,"ax",%progbits
 2914              		.align	1
 2915              		.global	yt_nic_eth_debug_flag_set
 2916              		.syntax unified
 2917              		.thumb
 2918              		.thumb_func
 2920              	yt_nic_eth_debug_flag_set:
 2921              	.LVL375:
 2922              	.LFB19:
 283:../switch_sdk/core/yt/yt_nic.c **** 
 284:../switch_sdk/core/yt/yt_nic.c **** yt_ret_t yt_nic_eth_debug_flag_set(yt_unit_t unit, uint8_t debug_flag)
 285:../switch_sdk/core/yt/yt_nic.c **** {
 2923              		.loc 1 285 1 is_stmt 1 view -0
 2924              		.cfi_startproc
 2925              		@ args = 0, pretend = 0, frame = 0
 2926              		@ frame_needed = 0, uses_anonymous_args = 0
 2927              		.loc 1 285 1 is_stmt 0 view .LVU830
 2928 0000 08B5     		push	{r3, lr}
 2929              		.cfi_def_cfa_offset 8
 2930              		.cfi_offset 3, -8
 2931              		.cfi_offset 14, -4
 286:../switch_sdk/core/yt/yt_nic.c ****     CMM_PARAM_CHK((YT_UNIT_NUM <= unit), CMM_ERR_INPUT);
 2932              		.loc 1 286 5 is_stmt 1 view .LVU831
 2933              		.loc 1 286 5 view .LVU832
 2934 0002 48B9     		cbnz	r0, .L322
 2935              		.loc 1 286 5 discriminator 2 view .LVU833
 287:../switch_sdk/core/yt/yt_nic.c ****     CMM_PARAM_CHK(NULL == YT_DISPATCH(unit), CMM_ERR_NOT_INIT);
 2936              		.loc 1 287 5 discriminator 2 view .LVU834
 2937              		.loc 1 287 5 discriminator 2 view .LVU835
 2938 0004 194A     		ldr	r2, .L328
 2939 0006 52F82020 		ldr	r2, [r2, r0, lsl #2]
 2940 000a 9AB1     		cbz	r2, .L323
 2941              		.loc 1 287 5 discriminator 2 view .LVU836
 288:../switch_sdk/core/yt/yt_nic.c ****     CMM_PARAM_CHK((TRUE != debug_flag) && (FALSE != debug_flag), CMM_ERR_INPUT);
 2942              		.loc 1 288 5 discriminator 2 view .LVU837
 2943              		.loc 1 288 5 discriminator 2 view .LVU838
 2944 000c 0129     		cmp	r1, #1
 2945 000e 1FD8     		bhi	.L324
 2946              		.loc 1 288 5 discriminator 2 view .LVU839
 289:../switch_sdk/core/yt/yt_nic.c ****     
 290:../switch_sdk/core/yt/yt_nic.c ****     return YT_DISPATCH(unit)->nic_eth_debug_flag_set(unit, debug_flag);
 2947              		.loc 1 290 5 discriminator 2 view .LVU840
 2948              		.loc 1 290 29 is_stmt 0 discriminator 2 view .LVU841
 2949 0010 D2F80825 		ldr	r2, [r2, #1288]
 2950              		.loc 1 290 12 discriminator 2 view .LVU842
 2951 0014 9047     		blx	r2
 2952              	.LVL376:
 2953              	.L313:
 291:../switch_sdk/core/yt/yt_nic.c **** }
 2954              		.loc 1 291 1 view .LVU843
 2955 0016 08BD     		pop	{r3, pc}
 2956              	.LVL377:
 2957              	.L322:
 286:../switch_sdk/core/yt/yt_nic.c ****     CMM_PARAM_CHK(NULL == YT_DISPATCH(unit), CMM_ERR_NOT_INIT);
 2958              		.loc 1 286 5 is_stmt 1 discriminator 1 view .LVU844
 286:../switch_sdk/core/yt/yt_nic.c ****     CMM_PARAM_CHK(NULL == YT_DISPATCH(unit), CMM_ERR_NOT_INIT);
 2959              		.loc 1 286 5 discriminator 1 view .LVU845
 2960 0018 154B     		ldr	r3, .L328+4
 2961 001a 1B78     		ldrb	r3, [r3]	@ zero_extendqisi2
 2962 001c 012B     		cmp	r3, #1
 2963 001e 01D8     		bhi	.L325
 2964              	.LVL378:
 2965              	.L315:
 286:../switch_sdk/core/yt/yt_nic.c ****     CMM_PARAM_CHK(NULL == YT_DISPATCH(unit), CMM_ERR_NOT_INIT);
 2966              		.loc 1 286 5 discriminator 5 view .LVU846
 286:../switch_sdk/core/yt/yt_nic.c ****     CMM_PARAM_CHK(NULL == YT_DISPATCH(unit), CMM_ERR_NOT_INIT);
 2967              		.loc 1 286 5 discriminator 5 view .LVU847
 286:../switch_sdk/core/yt/yt_nic.c ****     CMM_PARAM_CHK(NULL == YT_DISPATCH(unit), CMM_ERR_NOT_INIT);
 2968              		.loc 1 286 5 discriminator 5 view .LVU848
 2969 0020 0520     		movs	r0, #5
 2970 0022 F8E7     		b	.L313
 2971              	.LVL379:
 2972              	.L325:
 286:../switch_sdk/core/yt/yt_nic.c ****     CMM_PARAM_CHK(NULL == YT_DISPATCH(unit), CMM_ERR_NOT_INIT);
 2973              		.loc 1 286 5 discriminator 3 view .LVU849
 2974              	.LBB60:
 286:../switch_sdk/core/yt/yt_nic.c ****     CMM_PARAM_CHK(NULL == YT_DISPATCH(unit), CMM_ERR_NOT_INIT);
 2975              		.loc 1 286 5 discriminator 3 view .LVU850
 2976 0024 134B     		ldr	r3, .L328+8
 2977 0026 5A69     		ldr	r2, [r3, #20]
 2978 0028 134B     		ldr	r3, .L328+12
 2979 002a 9968     		ldr	r1, [r3, #8]
 2980              	.LVL380:
 286:../switch_sdk/core/yt/yt_nic.c ****     CMM_PARAM_CHK(NULL == YT_DISPATCH(unit), CMM_ERR_NOT_INIT);
 2981              		.loc 1 286 5 is_stmt 0 discriminator 3 view .LVU851
 2982 002c 1348     		ldr	r0, .L328+16
 2983              	.LVL381:
 286:../switch_sdk/core/yt/yt_nic.c ****     CMM_PARAM_CHK(NULL == YT_DISPATCH(unit), CMM_ERR_NOT_INIT);
 2984              		.loc 1 286 5 discriminator 3 view .LVU852
 2985 002e FFF7FEFF 		bl	osal_printf
 2986              	.LVL382:
 2987 0032 F5E7     		b	.L315
 2988              	.LVL383:
 2989              	.L323:
 286:../switch_sdk/core/yt/yt_nic.c ****     CMM_PARAM_CHK(NULL == YT_DISPATCH(unit), CMM_ERR_NOT_INIT);
 2990              		.loc 1 286 5 discriminator 3 view .LVU853
 2991              	.LBE60:
 287:../switch_sdk/core/yt/yt_nic.c ****     CMM_PARAM_CHK((TRUE != debug_flag) && (FALSE != debug_flag), CMM_ERR_INPUT);
 2992              		.loc 1 287 5 is_stmt 1 discriminator 1 view .LVU854
 287:../switch_sdk/core/yt/yt_nic.c ****     CMM_PARAM_CHK((TRUE != debug_flag) && (FALSE != debug_flag), CMM_ERR_INPUT);
 2993              		.loc 1 287 5 discriminator 1 view .LVU855
 2994 0034 0E4B     		ldr	r3, .L328+4
 2995 0036 1B78     		ldrb	r3, [r3]	@ zero_extendqisi2
 2996 0038 012B     		cmp	r3, #1
 2997 003a 01D8     		bhi	.L326
 2998              	.LVL384:
 2999              	.L318:
 287:../switch_sdk/core/yt/yt_nic.c ****     CMM_PARAM_CHK((TRUE != debug_flag) && (FALSE != debug_flag), CMM_ERR_INPUT);
 3000              		.loc 1 287 5 discriminator 5 view .LVU856
 287:../switch_sdk/core/yt/yt_nic.c ****     CMM_PARAM_CHK((TRUE != debug_flag) && (FALSE != debug_flag), CMM_ERR_INPUT);
 3001              		.loc 1 287 5 discriminator 5 view .LVU857
 287:../switch_sdk/core/yt/yt_nic.c ****     CMM_PARAM_CHK((TRUE != debug_flag) && (FALSE != debug_flag), CMM_ERR_INPUT);
 3002              		.loc 1 287 5 discriminator 5 view .LVU858
 3003 003c 0420     		movs	r0, #4
 3004 003e EAE7     		b	.L313
 3005              	.LVL385:
 3006              	.L326:
 287:../switch_sdk/core/yt/yt_nic.c ****     CMM_PARAM_CHK((TRUE != debug_flag) && (FALSE != debug_flag), CMM_ERR_INPUT);
 3007              		.loc 1 287 5 discriminator 3 view .LVU859
 3008              	.LBB61:
 287:../switch_sdk/core/yt/yt_nic.c ****     CMM_PARAM_CHK((TRUE != debug_flag) && (FALSE != debug_flag), CMM_ERR_INPUT);
 3009              		.loc 1 287 5 discriminator 3 view .LVU860
 3010 0040 0C4B     		ldr	r3, .L328+8
 3011 0042 1A69     		ldr	r2, [r3, #16]
 3012 0044 0C4B     		ldr	r3, .L328+12
 3013 0046 9968     		ldr	r1, [r3, #8]
 3014              	.LVL386:
 287:../switch_sdk/core/yt/yt_nic.c ****     CMM_PARAM_CHK((TRUE != debug_flag) && (FALSE != debug_flag), CMM_ERR_INPUT);
 3015              		.loc 1 287 5 is_stmt 0 discriminator 3 view .LVU861
 3016 0048 0C48     		ldr	r0, .L328+16
 3017              	.LVL387:
 287:../switch_sdk/core/yt/yt_nic.c ****     CMM_PARAM_CHK((TRUE != debug_flag) && (FALSE != debug_flag), CMM_ERR_INPUT);
 3018              		.loc 1 287 5 discriminator 3 view .LVU862
 3019 004a FFF7FEFF 		bl	osal_printf
 3020              	.LVL388:
 3021 004e F5E7     		b	.L318
 3022              	.LVL389:
 3023              	.L324:
 287:../switch_sdk/core/yt/yt_nic.c ****     CMM_PARAM_CHK((TRUE != debug_flag) && (FALSE != debug_flag), CMM_ERR_INPUT);
 3024              		.loc 1 287 5 discriminator 3 view .LVU863
 3025              	.LBE61:
 288:../switch_sdk/core/yt/yt_nic.c ****     
 3026              		.loc 1 288 5 is_stmt 1 discriminator 1 view .LVU864
 288:../switch_sdk/core/yt/yt_nic.c ****     
 3027              		.loc 1 288 5 discriminator 1 view .LVU865
 3028 0050 074B     		ldr	r3, .L328+4
 3029 0052 1B78     		ldrb	r3, [r3]	@ zero_extendqisi2
 3030 0054 012B     		cmp	r3, #1
 3031 0056 01D8     		bhi	.L327
 3032              	.LVL390:
 3033              	.L320:
 288:../switch_sdk/core/yt/yt_nic.c ****     
 3034              		.loc 1 288 5 discriminator 5 view .LVU866
 288:../switch_sdk/core/yt/yt_nic.c ****     
 3035              		.loc 1 288 5 discriminator 5 view .LVU867
 288:../switch_sdk/core/yt/yt_nic.c ****     
 3036              		.loc 1 288 5 discriminator 5 view .LVU868
 3037 0058 0520     		movs	r0, #5
 3038 005a DCE7     		b	.L313
 3039              	.LVL391:
 3040              	.L327:
 288:../switch_sdk/core/yt/yt_nic.c ****     
 3041              		.loc 1 288 5 discriminator 3 view .LVU869
 3042              	.LBB62:
 288:../switch_sdk/core/yt/yt_nic.c ****     
 3043              		.loc 1 288 5 discriminator 3 view .LVU870
 3044 005c 054B     		ldr	r3, .L328+8
 3045 005e 5A69     		ldr	r2, [r3, #20]
 3046 0060 054B     		ldr	r3, .L328+12
 3047 0062 9968     		ldr	r1, [r3, #8]
 3048              	.LVL392:
 288:../switch_sdk/core/yt/yt_nic.c ****     
 3049              		.loc 1 288 5 is_stmt 0 discriminator 3 view .LVU871
 3050 0064 0548     		ldr	r0, .L328+16
 3051              	.LVL393:
 288:../switch_sdk/core/yt/yt_nic.c ****     
 3052              		.loc 1 288 5 discriminator 3 view .LVU872
 3053 0066 FFF7FEFF 		bl	osal_printf
 3054              	.LVL394:
 3055 006a F5E7     		b	.L320
 3056              	.L329:
 3057              		.align	2
 3058              	.L328:
 3059 006c 00000000 		.word	gpfal_dispatch
 3060 0070 00000000 		.word	yt_debug_level
 3061 0074 00000000 		.word	_yt_errmsg
 3062 0078 00000000 		.word	_yt_prompt_msg
 3063 007c 00000000 		.word	.LC0
 3064              	.LBE62:
 3065              		.cfi_endproc
 3066              	.LFE19:
 3068              		.text
 3069              	.Letext0:
 3070              		.file 2 "C:\\Users\\Dmitriy\\Desktop\\GD32F10x\\switch_sdk\\common\\include/yt_types.h"
 3071              		.file 3 "C:\\Users\\Dmitriy\\Desktop\\GD32F10x\\switch_sdk\\common\\include/yt_error.h"
 3072              		.file 4 "C:\\Users\\Dmitriy\\Desktop\\GD32F10x\\switch_sdk\\core\\fal\\chipdef/chipdef.h"
 3073              		.file 5 "C:\\Users\\Dmitriy\\Desktop\\GD32F10x\\switch_sdk\\core\\cal/cal_bprofile.h"
 3074              		.file 6 "C:\\Users\\Dmitriy\\Desktop\\GD32F10x\\switch_sdk\\core\\cal/cal_mgm.h"
 3075              		.file 7 "C:\\Users\\Dmitriy\\Desktop\\GD32F10x\\switch_sdk\\include/yt_cmm.h"
 3076              		.file 8 "C:\\Users\\Dmitriy\\Desktop\\GD32F10x\\switch_sdk\\include/yt_nic.h"
 3077              		.file 9 "C:\\Users\\Dmitriy\\Desktop\\GD32F10x\\switch_sdk\\include/yt_vlan.h"
 3078              		.file 10 "C:\\Users\\Dmitriy\\Desktop\\GD32F10x\\switch_sdk\\include/yt_vlan_translate.h"
 3079              		.file 11 "C:\\Users\\Dmitriy\\Desktop\\GD32F10x\\switch_sdk\\include/yt_acl.h"
 3080              		.file 12 "C:\\Users\\Dmitriy\\Desktop\\GD32F10x\\switch_sdk\\include/yt_qos.h"
 3081              		.file 13 "C:\\Users\\Dmitriy\\Desktop\\GD32F10x\\switch_sdk\\include/yt_rate.h"
 3082              		.file 14 "C:\\Users\\Dmitriy\\Desktop\\GD32F10x\\switch_sdk\\include/yt_dos.h"
 3083              		.file 15 "C:\\Users\\Dmitriy\\Desktop\\GD32F10x\\switch_sdk\\include/yt_stp.h"
 3084              		.file 16 "C:\\Users\\Dmitriy\\Desktop\\GD32F10x\\switch_sdk\\include/yt_l2.h"
 3085              		.file 17 "C:\\Users\\Dmitriy\\Desktop\\GD32F10x\\switch_sdk\\include/yt_loopdetect.h"
 3086              		.file 18 "C:\\Users\\Dmitriy\\Desktop\\GD32F10x\\switch_sdk\\include/yt_multicast.h"
 3087              		.file 19 "C:\\Users\\Dmitriy\\Desktop\\GD32F10x\\switch_sdk\\include/yt_rma.h"
 3088              		.file 20 "C:\\Users\\Dmitriy\\Desktop\\GD32F10x\\switch_sdk\\include/yt_oam.h"
 3089              		.file 21 "C:\\Users\\Dmitriy\\Desktop\\GD32F10x\\switch_sdk\\include/yt_storm_ctrl.h"
 3090              		.file 22 "C:\\Users\\Dmitriy\\Desktop\\GD32F10x\\switch_sdk\\include/yt_port.h"
 3091              		.file 23 "C:\\Users\\Dmitriy\\Desktop\\GD32F10x\\switch_sdk\\include/yt_dot1x.h"
 3092              		.file 24 "C:\\Users\\Dmitriy\\Desktop\\GD32F10x\\switch_sdk\\include/yt_ctrlpkt.h"
 3093              		.file 25 "C:\\Users\\Dmitriy\\Desktop\\GD32F10x\\switch_sdk\\include/yt_stat.h"
 3094              		.file 26 "C:\\Users\\Dmitriy\\Desktop\\GD32F10x\\switch_sdk\\include/yt_interrupt.h"
 3095              		.file 27 "C:\\Users\\Dmitriy\\Desktop\\GD32F10x\\switch_sdk\\include/yt_led.h"
 3096              		.file 28 "C:\\Users\\Dmitriy\\Desktop\\GD32F10x\\switch_sdk\\include/yt_sys.h"
 3097              		.file 29 "C:\\Users\\Dmitriy\\Desktop\\GD32F10x\\switch_sdk\\include/yt_debug.h"
 3098              		.file 30 "C:\\Users\\Dmitriy\\Desktop\\GD32F10x\\switch_sdk\\core\\fal/fal_dispatch.h"