   1              		.cpu cortex-m3
   2              		.arch armv7-m
   3              		.fpu softvfp
   4              		.eabi_attribute 20, 1
   5              		.eabi_attribute 21, 1
   6              		.eabi_attribute 23, 3
   7              		.eabi_attribute 24, 1
   8              		.eabi_attribute 25, 1
   9              		.eabi_attribute 26, 1
  10              		.eabi_attribute 30, 1
  11              		.eabi_attribute 34, 1
  12              		.eabi_attribute 18, 4
  13              		.file	"yt_port.c"
  14              		.text
  15              	.Ltext0:
  16              		.cfi_sections	.debug_frame
  17              		.file 1 "../switch_sdk/core/yt/yt_port.c"
  18              		.section	.rodata.yt_port_init.str1.4,"aMS",%progbits,1
  19              		.align	2
  20              	.LC0:
  21 0000 25732573 		.ascii	"%s%s\015\012\000"
  21      0D0A00
  22              		.section	.text.yt_port_init,"ax",%progbits
  23              		.align	1
  24              		.global	yt_port_init
  25              		.syntax unified
  26              		.thumb
  27              		.thumb_func
  29              	yt_port_init:
  30              	.LVL0:
  31              	.LFB3:
   1:../switch_sdk/core/yt/yt_port.c **** /*******************************************************************************
   2:../switch_sdk/core/yt/yt_port.c **** *                                                                              *
   3:../switch_sdk/core/yt/yt_port.c **** *  Copyright (c), 2022, Motorcomm Electronic Technology Co.,Ltd.               *
   4:../switch_sdk/core/yt/yt_port.c **** *  Motorcomm Confidential and Proprietary.                                     *
   5:../switch_sdk/core/yt/yt_port.c **** *                                                                              *
   6:../switch_sdk/core/yt/yt_port.c **** ********************************************************************************
   7:../switch_sdk/core/yt/yt_port.c **** */
   8:../switch_sdk/core/yt/yt_port.c **** /**
   9:../switch_sdk/core/yt/yt_port.c **** ********************************************************************************
  10:../switch_sdk/core/yt/yt_port.c **** * @file yt_port.c
  11:../switch_sdk/core/yt/yt_port.c **** *
  12:../switch_sdk/core/yt/yt_port.c **** * @brief x
  13:../switch_sdk/core/yt/yt_port.c **** *
  14:../switch_sdk/core/yt/yt_port.c **** ********************************************************************************
  15:../switch_sdk/core/yt/yt_port.c **** */
  16:../switch_sdk/core/yt/yt_port.c **** #include "yt_port.h"
  17:../switch_sdk/core/yt/yt_port.c **** #include "fal_dispatch.h"
  18:../switch_sdk/core/yt/yt_port.c **** 
  19:../switch_sdk/core/yt/yt_port.c **** 
  20:../switch_sdk/core/yt/yt_port.c **** /**
  21:../switch_sdk/core/yt/yt_port.c ****  * @internal      yt_port_init
  22:../switch_sdk/core/yt/yt_port.c ****  * @endinternal
  23:../switch_sdk/core/yt/yt_port.c ****  *
  24:../switch_sdk/core/yt/yt_port.c ****  * @brief         Description
  25:../switch_sdk/core/yt/yt_port.c ****  * @note          APPLICABLE DEVICES  -Tiger
  26:../switch_sdk/core/yt/yt_port.c ****  * @param[in]     unit                -unit id
  27:../switch_sdk/core/yt/yt_port.c ****  * @retval        CMM_ERR_OK          -on success
  28:../switch_sdk/core/yt/yt_port.c ****  * @retval        CMM_ERR_FAIL        -on fail
  29:../switch_sdk/core/yt/yt_port.c ****  */
  30:../switch_sdk/core/yt/yt_port.c **** yt_ret_t yt_port_init(yt_unit_t unit)
  31:../switch_sdk/core/yt/yt_port.c **** {
  32              		.loc 1 31 1 view -0
  33              		.cfi_startproc
  34              		@ args = 0, pretend = 0, frame = 0
  35              		@ frame_needed = 0, uses_anonymous_args = 0
  36              		.loc 1 31 1 is_stmt 0 view .LVU1
  37 0000 08B5     		push	{r3, lr}
  38              		.cfi_def_cfa_offset 8
  39              		.cfi_offset 3, -8
  40              		.cfi_offset 14, -4
  32:../switch_sdk/core/yt/yt_port.c ****     CMM_PARAM_CHK((YT_UNIT_NUM <= unit), CMM_ERR_INPUT);
  41              		.loc 1 32 5 is_stmt 1 view .LVU2
  42              		.loc 1 32 5 view .LVU3
  43 0002 48B9     		cbnz	r0, .L10
  44              		.loc 1 32 5 discriminator 2 view .LVU4
  33:../switch_sdk/core/yt/yt_port.c ****     CMM_PARAM_CHK(NULL == YT_DISPATCH(unit), CMM_ERR_NOT_INIT);
  45              		.loc 1 33 5 discriminator 2 view .LVU5
  46              		.loc 1 33 5 discriminator 2 view .LVU6
  47 0004 194B     		ldr	r3, .L16
  48 0006 53F82030 		ldr	r3, [r3, r0, lsl #2]
  49 000a 9BB1     		cbz	r3, .L11
  50              		.loc 1 33 5 discriminator 2 view .LVU7
  34:../switch_sdk/core/yt/yt_port.c ****     CMM_PARAM_CHK((!(YT_DISPATCH(unit)->is_inited)), CMM_ERR_NOT_INIT);
  51              		.loc 1 34 5 discriminator 2 view .LVU8
  52              		.loc 1 34 5 discriminator 2 view .LVU9
  53 000c 1978     		ldrb	r1, [r3]	@ zero_extendqisi2
  54 000e F9B1     		cbz	r1, .L12
  55              		.loc 1 34 5 discriminator 2 view .LVU10
  35:../switch_sdk/core/yt/yt_port.c **** 
  36:../switch_sdk/core/yt/yt_port.c ****     return YT_DISPATCH(unit)->port_init(unit);
  56              		.loc 1 36 5 discriminator 2 view .LVU11
  57              		.loc 1 36 29 is_stmt 0 discriminator 2 view .LVU12
  58 0010 D3F85035 		ldr	r3, [r3, #1360]
  59              		.loc 1 36 12 discriminator 2 view .LVU13
  60 0014 9847     		blx	r3
  61              	.LVL1:
  62              	.L1:
  37:../switch_sdk/core/yt/yt_port.c **** }
  63              		.loc 1 37 1 view .LVU14
  64 0016 08BD     		pop	{r3, pc}
  65              	.LVL2:
  66              	.L10:
  32:../switch_sdk/core/yt/yt_port.c ****     CMM_PARAM_CHK(NULL == YT_DISPATCH(unit), CMM_ERR_NOT_INIT);
  67              		.loc 1 32 5 is_stmt 1 discriminator 1 view .LVU15
  32:../switch_sdk/core/yt/yt_port.c ****     CMM_PARAM_CHK(NULL == YT_DISPATCH(unit), CMM_ERR_NOT_INIT);
  68              		.loc 1 32 5 discriminator 1 view .LVU16
  69 0018 154B     		ldr	r3, .L16+4
  70 001a 1B78     		ldrb	r3, [r3]	@ zero_extendqisi2
  71 001c 012B     		cmp	r3, #1
  72 001e 01D8     		bhi	.L13
  73              	.LVL3:
  74              	.L3:
  32:../switch_sdk/core/yt/yt_port.c ****     CMM_PARAM_CHK(NULL == YT_DISPATCH(unit), CMM_ERR_NOT_INIT);
  75              		.loc 1 32 5 discriminator 5 view .LVU17
  32:../switch_sdk/core/yt/yt_port.c ****     CMM_PARAM_CHK(NULL == YT_DISPATCH(unit), CMM_ERR_NOT_INIT);
  76              		.loc 1 32 5 discriminator 5 view .LVU18
  32:../switch_sdk/core/yt/yt_port.c ****     CMM_PARAM_CHK(NULL == YT_DISPATCH(unit), CMM_ERR_NOT_INIT);
  77              		.loc 1 32 5 discriminator 5 view .LVU19
  78 0020 0520     		movs	r0, #5
  79 0022 F8E7     		b	.L1
  80              	.LVL4:
  81              	.L13:
  32:../switch_sdk/core/yt/yt_port.c ****     CMM_PARAM_CHK(NULL == YT_DISPATCH(unit), CMM_ERR_NOT_INIT);
  82              		.loc 1 32 5 discriminator 3 view .LVU20
  83              	.LBB2:
  32:../switch_sdk/core/yt/yt_port.c ****     CMM_PARAM_CHK(NULL == YT_DISPATCH(unit), CMM_ERR_NOT_INIT);
  84              		.loc 1 32 5 discriminator 3 view .LVU21
  85 0024 134B     		ldr	r3, .L16+8
  86 0026 5A69     		ldr	r2, [r3, #20]
  87 0028 134B     		ldr	r3, .L16+12
  88 002a 9968     		ldr	r1, [r3, #8]
  89 002c 1348     		ldr	r0, .L16+16
  90              	.LVL5:
  32:../switch_sdk/core/yt/yt_port.c ****     CMM_PARAM_CHK(NULL == YT_DISPATCH(unit), CMM_ERR_NOT_INIT);
  91              		.loc 1 32 5 is_stmt 0 discriminator 3 view .LVU22
  92 002e FFF7FEFF 		bl	osal_printf
  93              	.LVL6:
  94 0032 F5E7     		b	.L3
  95              	.LVL7:
  96              	.L11:
  32:../switch_sdk/core/yt/yt_port.c ****     CMM_PARAM_CHK(NULL == YT_DISPATCH(unit), CMM_ERR_NOT_INIT);
  97              		.loc 1 32 5 discriminator 3 view .LVU23
  98              	.LBE2:
  33:../switch_sdk/core/yt/yt_port.c ****     CMM_PARAM_CHK((!(YT_DISPATCH(unit)->is_inited)), CMM_ERR_NOT_INIT);
  99              		.loc 1 33 5 is_stmt 1 discriminator 1 view .LVU24
  33:../switch_sdk/core/yt/yt_port.c ****     CMM_PARAM_CHK((!(YT_DISPATCH(unit)->is_inited)), CMM_ERR_NOT_INIT);
 100              		.loc 1 33 5 discriminator 1 view .LVU25
 101 0034 0E4B     		ldr	r3, .L16+4
 102 0036 1B78     		ldrb	r3, [r3]	@ zero_extendqisi2
 103 0038 012B     		cmp	r3, #1
 104 003a 01D8     		bhi	.L14
 105              	.LVL8:
 106              	.L6:
  33:../switch_sdk/core/yt/yt_port.c ****     CMM_PARAM_CHK((!(YT_DISPATCH(unit)->is_inited)), CMM_ERR_NOT_INIT);
 107              		.loc 1 33 5 discriminator 5 view .LVU26
  33:../switch_sdk/core/yt/yt_port.c ****     CMM_PARAM_CHK((!(YT_DISPATCH(unit)->is_inited)), CMM_ERR_NOT_INIT);
 108              		.loc 1 33 5 discriminator 5 view .LVU27
  33:../switch_sdk/core/yt/yt_port.c ****     CMM_PARAM_CHK((!(YT_DISPATCH(unit)->is_inited)), CMM_ERR_NOT_INIT);
 109              		.loc 1 33 5 discriminator 5 view .LVU28
 110 003c 0420     		movs	r0, #4
 111 003e EAE7     		b	.L1
 112              	.LVL9:
 113              	.L14:
  33:../switch_sdk/core/yt/yt_port.c ****     CMM_PARAM_CHK((!(YT_DISPATCH(unit)->is_inited)), CMM_ERR_NOT_INIT);
 114              		.loc 1 33 5 discriminator 3 view .LVU29
 115              	.LBB3:
  33:../switch_sdk/core/yt/yt_port.c ****     CMM_PARAM_CHK((!(YT_DISPATCH(unit)->is_inited)), CMM_ERR_NOT_INIT);
 116              		.loc 1 33 5 discriminator 3 view .LVU30
 117 0040 0C4B     		ldr	r3, .L16+8
 118 0042 1A69     		ldr	r2, [r3, #16]
 119 0044 0C4B     		ldr	r3, .L16+12
 120 0046 9968     		ldr	r1, [r3, #8]
 121 0048 0C48     		ldr	r0, .L16+16
 122              	.LVL10:
  33:../switch_sdk/core/yt/yt_port.c ****     CMM_PARAM_CHK((!(YT_DISPATCH(unit)->is_inited)), CMM_ERR_NOT_INIT);
 123              		.loc 1 33 5 is_stmt 0 discriminator 3 view .LVU31
 124 004a FFF7FEFF 		bl	osal_printf
 125              	.LVL11:
 126 004e F5E7     		b	.L6
 127              	.LVL12:
 128              	.L12:
  33:../switch_sdk/core/yt/yt_port.c ****     CMM_PARAM_CHK((!(YT_DISPATCH(unit)->is_inited)), CMM_ERR_NOT_INIT);
 129              		.loc 1 33 5 discriminator 3 view .LVU32
 130              	.LBE3:
  34:../switch_sdk/core/yt/yt_port.c **** 
 131              		.loc 1 34 5 is_stmt 1 discriminator 1 view .LVU33
  34:../switch_sdk/core/yt/yt_port.c **** 
 132              		.loc 1 34 5 discriminator 1 view .LVU34
 133 0050 074B     		ldr	r3, .L16+4
 134 0052 1B78     		ldrb	r3, [r3]	@ zero_extendqisi2
 135 0054 012B     		cmp	r3, #1
 136 0056 01D8     		bhi	.L15
 137              	.LVL13:
 138              	.L8:
  34:../switch_sdk/core/yt/yt_port.c **** 
 139              		.loc 1 34 5 discriminator 5 view .LVU35
  34:../switch_sdk/core/yt/yt_port.c **** 
 140              		.loc 1 34 5 discriminator 5 view .LVU36
  34:../switch_sdk/core/yt/yt_port.c **** 
 141              		.loc 1 34 5 discriminator 5 view .LVU37
 142 0058 0420     		movs	r0, #4
 143 005a DCE7     		b	.L1
 144              	.LVL14:
 145              	.L15:
  34:../switch_sdk/core/yt/yt_port.c **** 
 146              		.loc 1 34 5 discriminator 3 view .LVU38
 147              	.LBB4:
  34:../switch_sdk/core/yt/yt_port.c **** 
 148              		.loc 1 34 5 discriminator 3 view .LVU39
 149 005c 054B     		ldr	r3, .L16+8
 150 005e 1A69     		ldr	r2, [r3, #16]
 151 0060 054B     		ldr	r3, .L16+12
 152 0062 9968     		ldr	r1, [r3, #8]
 153 0064 0548     		ldr	r0, .L16+16
 154              	.LVL15:
  34:../switch_sdk/core/yt/yt_port.c **** 
 155              		.loc 1 34 5 is_stmt 0 discriminator 3 view .LVU40
 156 0066 FFF7FEFF 		bl	osal_printf
 157              	.LVL16:
 158 006a F5E7     		b	.L8
 159              	.L17:
 160              		.align	2
 161              	.L16:
 162 006c 00000000 		.word	gpfal_dispatch
 163 0070 00000000 		.word	yt_debug_level
 164 0074 00000000 		.word	_yt_errmsg
 165 0078 00000000 		.word	_yt_prompt_msg
 166 007c 00000000 		.word	.LC0
 167              	.LBE4:
 168              		.cfi_endproc
 169              	.LFE3:
 171              		.section	.text.yt_port_enable_set,"ax",%progbits
 172              		.align	1
 173              		.global	yt_port_enable_set
 174              		.syntax unified
 175              		.thumb
 176              		.thumb_func
 178              	yt_port_enable_set:
 179              	.LVL17:
 180              	.LFB4:
  38:../switch_sdk/core/yt/yt_port.c **** 
  39:../switch_sdk/core/yt/yt_port.c **** /**
  40:../switch_sdk/core/yt/yt_port.c ****  * @internal      yt_port_enable_set
  41:../switch_sdk/core/yt/yt_port.c ****  * @endinternal
  42:../switch_sdk/core/yt/yt_port.c ****  *
  43:../switch_sdk/core/yt/yt_port.c ****  * @brief         Description
  44:../switch_sdk/core/yt/yt_port.c ****  * @note          APPLICABLE DEVICES  -Tiger
  45:../switch_sdk/core/yt/yt_port.c ****  * @param[in]     unit                -unit id
  46:../switch_sdk/core/yt/yt_port.c ****  * @param[in]     port                -port num
  47:../switch_sdk/core/yt/yt_port.c ****  * @param[in]     enable              -enable or disable
  48:../switch_sdk/core/yt/yt_port.c ****  * @retval        CMM_ERR_OK          -on success
  49:../switch_sdk/core/yt/yt_port.c ****  * @retval        CMM_ERR_FAIL        -on fail
  50:../switch_sdk/core/yt/yt_port.c ****  */
  51:../switch_sdk/core/yt/yt_port.c **** yt_ret_t yt_port_enable_set(yt_unit_t unit, yt_port_t port, yt_enable_t enable)
  52:../switch_sdk/core/yt/yt_port.c **** {
 181              		.loc 1 52 1 is_stmt 1 view -0
 182              		.cfi_startproc
 183              		@ args = 0, pretend = 0, frame = 0
 184              		@ frame_needed = 0, uses_anonymous_args = 0
 185              		.loc 1 52 1 is_stmt 0 view .LVU42
 186 0000 08B5     		push	{r3, lr}
 187              		.cfi_def_cfa_offset 8
 188              		.cfi_offset 3, -8
 189              		.cfi_offset 14, -4
  53:../switch_sdk/core/yt/yt_port.c **** //    CMM_PARAM_CHK((YT_UNIT_NUM <= unit), CMM_ERR_INPUT);
  54:../switch_sdk/core/yt/yt_port.c **** //    CMM_PARAM_CHK(NULL == YT_DISPATCH(unit), CMM_ERR_NOT_INIT);
  55:../switch_sdk/core/yt/yt_port.c **** //    CMM_PARAM_CHK((!(YT_DISPATCH(unit)->is_inited)), CMM_ERR_NOT_INIT);
  56:../switch_sdk/core/yt/yt_port.c **** //    CMM_PARAM_CHK((!(CMM_PORT_VALID(unit, port))), CMM_ERR_PORT);
  57:../switch_sdk/core/yt/yt_port.c **** //    CMM_PARAM_CHK((YT_ENABLE < enable || YT_DISABLE > enable), CMM_ERR_INPUT);
  58:../switch_sdk/core/yt/yt_port.c **** 
  59:../switch_sdk/core/yt/yt_port.c ****     return YT_DISPATCH(unit)->port_enable_set(unit, port, enable);
 190              		.loc 1 59 5 is_stmt 1 view .LVU43
 191              		.loc 1 59 12 is_stmt 0 view .LVU44
 192 0002 034B     		ldr	r3, .L20
 193 0004 53F82030 		ldr	r3, [r3, r0, lsl #2]
 194              		.loc 1 59 29 view .LVU45
 195 0008 D3F85435 		ldr	r3, [r3, #1364]
 196              		.loc 1 59 12 view .LVU46
 197 000c 9847     		blx	r3
 198              	.LVL18:
  60:../switch_sdk/core/yt/yt_port.c **** }
 199              		.loc 1 60 1 view .LVU47
 200 000e 08BD     		pop	{r3, pc}
 201              	.L21:
 202              		.align	2
 203              	.L20:
 204 0010 00000000 		.word	gpfal_dispatch
 205              		.cfi_endproc
 206              	.LFE4:
 208              		.section	.text.yt_port_enable_get,"ax",%progbits
 209              		.align	1
 210              		.global	yt_port_enable_get
 211              		.syntax unified
 212              		.thumb
 213              		.thumb_func
 215              	yt_port_enable_get:
 216              	.LVL19:
 217              	.LFB5:
  61:../switch_sdk/core/yt/yt_port.c **** 
  62:../switch_sdk/core/yt/yt_port.c **** /**
  63:../switch_sdk/core/yt/yt_port.c ****  * @internal      yt_port_enable_get
  64:../switch_sdk/core/yt/yt_port.c ****  * @endinternal
  65:../switch_sdk/core/yt/yt_port.c ****  *
  66:../switch_sdk/core/yt/yt_port.c ****  * @brief         Description
  67:../switch_sdk/core/yt/yt_port.c ****  * @note          APPLICABLE DEVICES  -Tiger
  68:../switch_sdk/core/yt/yt_port.c ****  * @param[in]     unit                -unit id
  69:../switch_sdk/core/yt/yt_port.c ****  * @param[in]     port                -port num
  70:../switch_sdk/core/yt/yt_port.c ****  * @param[out]    pEnable             -enable or disable
  71:../switch_sdk/core/yt/yt_port.c ****  * @retval        CMM_ERR_OK          -on success
  72:../switch_sdk/core/yt/yt_port.c ****  * @retval        CMM_ERR_FAIL        -on fail
  73:../switch_sdk/core/yt/yt_port.c ****  */
  74:../switch_sdk/core/yt/yt_port.c **** yt_ret_t yt_port_enable_get(yt_unit_t unit, yt_port_t port, yt_enable_t *pEnable)
  75:../switch_sdk/core/yt/yt_port.c **** {
 218              		.loc 1 75 1 is_stmt 1 view -0
 219              		.cfi_startproc
 220              		@ args = 0, pretend = 0, frame = 0
 221              		@ frame_needed = 0, uses_anonymous_args = 0
 222              		.loc 1 75 1 is_stmt 0 view .LVU49
 223 0000 08B5     		push	{r3, lr}
 224              		.cfi_def_cfa_offset 8
 225              		.cfi_offset 3, -8
 226              		.cfi_offset 14, -4
  76:../switch_sdk/core/yt/yt_port.c ****     CMM_PARAM_CHK((YT_UNIT_NUM <= unit), CMM_ERR_INPUT);
 227              		.loc 1 76 5 is_stmt 1 view .LVU50
 228              		.loc 1 76 5 view .LVU51
 229 0002 C0B9     		cbnz	r0, .L36
 230 0004 8446     		mov	ip, r0
 231              		.loc 1 76 5 discriminator 2 view .LVU52
  77:../switch_sdk/core/yt/yt_port.c ****     CMM_PARAM_CHK(NULL == YT_DISPATCH(unit), CMM_ERR_NOT_INIT);
 232              		.loc 1 77 5 discriminator 2 view .LVU53
 233              		.loc 1 77 5 discriminator 2 view .LVU54
 234 0006 2F4B     		ldr	r3, .L45
 235 0008 53F82030 		ldr	r3, [r3, r0, lsl #2]
 236 000c 0BB3     		cbz	r3, .L37
 237              		.loc 1 77 5 discriminator 2 view .LVU55
  78:../switch_sdk/core/yt/yt_port.c ****     CMM_PARAM_CHK((!(YT_DISPATCH(unit)->is_inited)), CMM_ERR_NOT_INIT);
 238              		.loc 1 78 5 discriminator 2 view .LVU56
 239              		.loc 1 78 5 discriminator 2 view .LVU57
 240 000e 1878     		ldrb	r0, [r3]	@ zero_extendqisi2
 241              	.LVL20:
 242              		.loc 1 78 5 is_stmt 0 discriminator 2 view .LVU58
 243 0010 0028     		cmp	r0, #0
 244 0012 2CD0     		beq	.L38
 245              		.loc 1 78 5 is_stmt 1 discriminator 2 view .LVU59
  79:../switch_sdk/core/yt/yt_port.c ****     CMM_PARAM_CHK((!(CMM_PORT_VALID(unit, port))), CMM_ERR_PORT);
 246              		.loc 1 79 5 discriminator 2 view .LVU60
 247              		.loc 1 79 5 discriminator 2 view .LVU61
 248 0014 2C48     		ldr	r0, .L45+4
 249 0016 0078     		ldrb	r0, [r0]	@ zero_extendqisi2
 250 0018 0028     		cmp	r0, #0
 251 001a 36D0     		beq	.L30
 252 001c 2B48     		ldr	r0, .L45+8
 253 001e 50F82C00 		ldr	r0, [r0, ip, lsl #2]
 254 0022 007D     		ldrb	r0, [r0, #20]	@ zero_extendqisi2
 255 0024 8842     		cmp	r0, r1
 256 0026 30D9     		bls	.L30
 257              		.loc 1 79 5 discriminator 4 view .LVU62
  80:../switch_sdk/core/yt/yt_port.c ****     CMM_PARAM_CHK((NULL == pEnable), CMM_ERR_NULL_POINT);
 258              		.loc 1 80 5 discriminator 4 view .LVU63
 259              		.loc 1 80 5 discriminator 4 view .LVU64
 260 0028 002A     		cmp	r2, #0
 261 002a 3CD0     		beq	.L39
 262              		.loc 1 80 5 discriminator 2 view .LVU65
  81:../switch_sdk/core/yt/yt_port.c **** 
  82:../switch_sdk/core/yt/yt_port.c ****     return YT_DISPATCH(unit)->port_enable_get(unit, port, pEnable);
 263              		.loc 1 82 5 discriminator 2 view .LVU66
 264              		.loc 1 82 29 is_stmt 0 discriminator 2 view .LVU67
 265 002c D3F85835 		ldr	r3, [r3, #1368]
 266              		.loc 1 82 12 discriminator 2 view .LVU68
 267 0030 6046     		mov	r0, ip
 268 0032 9847     		blx	r3
 269              	.LVL21:
 270              	.L22:
  83:../switch_sdk/core/yt/yt_port.c **** }
 271              		.loc 1 83 1 view .LVU69
 272 0034 08BD     		pop	{r3, pc}
 273              	.LVL22:
 274              	.L36:
  76:../switch_sdk/core/yt/yt_port.c ****     CMM_PARAM_CHK(NULL == YT_DISPATCH(unit), CMM_ERR_NOT_INIT);
 275              		.loc 1 76 5 is_stmt 1 discriminator 1 view .LVU70
  76:../switch_sdk/core/yt/yt_port.c ****     CMM_PARAM_CHK(NULL == YT_DISPATCH(unit), CMM_ERR_NOT_INIT);
 276              		.loc 1 76 5 discriminator 1 view .LVU71
 277 0036 264B     		ldr	r3, .L45+12
 278 0038 1B78     		ldrb	r3, [r3]	@ zero_extendqisi2
 279 003a 012B     		cmp	r3, #1
 280 003c 01D8     		bhi	.L40
 281              	.LVL23:
 282              	.L24:
  76:../switch_sdk/core/yt/yt_port.c ****     CMM_PARAM_CHK(NULL == YT_DISPATCH(unit), CMM_ERR_NOT_INIT);
 283              		.loc 1 76 5 discriminator 5 view .LVU72
  76:../switch_sdk/core/yt/yt_port.c ****     CMM_PARAM_CHK(NULL == YT_DISPATCH(unit), CMM_ERR_NOT_INIT);
 284              		.loc 1 76 5 discriminator 5 view .LVU73
  76:../switch_sdk/core/yt/yt_port.c ****     CMM_PARAM_CHK(NULL == YT_DISPATCH(unit), CMM_ERR_NOT_INIT);
 285              		.loc 1 76 5 discriminator 5 view .LVU74
 286 003e 0520     		movs	r0, #5
 287 0040 F8E7     		b	.L22
 288              	.LVL24:
 289              	.L40:
  76:../switch_sdk/core/yt/yt_port.c ****     CMM_PARAM_CHK(NULL == YT_DISPATCH(unit), CMM_ERR_NOT_INIT);
 290              		.loc 1 76 5 discriminator 3 view .LVU75
 291              	.LBB5:
  76:../switch_sdk/core/yt/yt_port.c ****     CMM_PARAM_CHK(NULL == YT_DISPATCH(unit), CMM_ERR_NOT_INIT);
 292              		.loc 1 76 5 discriminator 3 view .LVU76
 293 0042 244B     		ldr	r3, .L45+16
 294 0044 5A69     		ldr	r2, [r3, #20]
 295              	.LVL25:
  76:../switch_sdk/core/yt/yt_port.c ****     CMM_PARAM_CHK(NULL == YT_DISPATCH(unit), CMM_ERR_NOT_INIT);
 296              		.loc 1 76 5 is_stmt 0 discriminator 3 view .LVU77
 297 0046 244B     		ldr	r3, .L45+20
 298 0048 9968     		ldr	r1, [r3, #8]
 299              	.LVL26:
  76:../switch_sdk/core/yt/yt_port.c ****     CMM_PARAM_CHK(NULL == YT_DISPATCH(unit), CMM_ERR_NOT_INIT);
 300              		.loc 1 76 5 discriminator 3 view .LVU78
 301 004a 2448     		ldr	r0, .L45+24
 302              	.LVL27:
  76:../switch_sdk/core/yt/yt_port.c ****     CMM_PARAM_CHK(NULL == YT_DISPATCH(unit), CMM_ERR_NOT_INIT);
 303              		.loc 1 76 5 discriminator 3 view .LVU79
 304 004c FFF7FEFF 		bl	osal_printf
 305              	.LVL28:
 306 0050 F5E7     		b	.L24
 307              	.LVL29:
 308              	.L37:
  76:../switch_sdk/core/yt/yt_port.c ****     CMM_PARAM_CHK(NULL == YT_DISPATCH(unit), CMM_ERR_NOT_INIT);
 309              		.loc 1 76 5 discriminator 3 view .LVU80
 310              	.LBE5:
  77:../switch_sdk/core/yt/yt_port.c ****     CMM_PARAM_CHK((!(YT_DISPATCH(unit)->is_inited)), CMM_ERR_NOT_INIT);
 311              		.loc 1 77 5 is_stmt 1 discriminator 1 view .LVU81
  77:../switch_sdk/core/yt/yt_port.c ****     CMM_PARAM_CHK((!(YT_DISPATCH(unit)->is_inited)), CMM_ERR_NOT_INIT);
 312              		.loc 1 77 5 discriminator 1 view .LVU82
 313 0052 1F4B     		ldr	r3, .L45+12
 314 0054 1B78     		ldrb	r3, [r3]	@ zero_extendqisi2
 315 0056 012B     		cmp	r3, #1
 316 0058 01D8     		bhi	.L41
 317              	.LVL30:
 318              	.L27:
  77:../switch_sdk/core/yt/yt_port.c ****     CMM_PARAM_CHK((!(YT_DISPATCH(unit)->is_inited)), CMM_ERR_NOT_INIT);
 319              		.loc 1 77 5 discriminator 5 view .LVU83
  77:../switch_sdk/core/yt/yt_port.c ****     CMM_PARAM_CHK((!(YT_DISPATCH(unit)->is_inited)), CMM_ERR_NOT_INIT);
 320              		.loc 1 77 5 discriminator 5 view .LVU84
  77:../switch_sdk/core/yt/yt_port.c ****     CMM_PARAM_CHK((!(YT_DISPATCH(unit)->is_inited)), CMM_ERR_NOT_INIT);
 321              		.loc 1 77 5 discriminator 5 view .LVU85
 322 005a 0420     		movs	r0, #4
 323 005c EAE7     		b	.L22
 324              	.LVL31:
 325              	.L41:
  77:../switch_sdk/core/yt/yt_port.c ****     CMM_PARAM_CHK((!(YT_DISPATCH(unit)->is_inited)), CMM_ERR_NOT_INIT);
 326              		.loc 1 77 5 discriminator 3 view .LVU86
 327              	.LBB6:
  77:../switch_sdk/core/yt/yt_port.c ****     CMM_PARAM_CHK((!(YT_DISPATCH(unit)->is_inited)), CMM_ERR_NOT_INIT);
 328              		.loc 1 77 5 discriminator 3 view .LVU87
 329 005e 1D4B     		ldr	r3, .L45+16
 330 0060 1A69     		ldr	r2, [r3, #16]
 331              	.LVL32:
  77:../switch_sdk/core/yt/yt_port.c ****     CMM_PARAM_CHK((!(YT_DISPATCH(unit)->is_inited)), CMM_ERR_NOT_INIT);
 332              		.loc 1 77 5 is_stmt 0 discriminator 3 view .LVU88
 333 0062 1D4B     		ldr	r3, .L45+20
 334 0064 9968     		ldr	r1, [r3, #8]
 335              	.LVL33:
  77:../switch_sdk/core/yt/yt_port.c ****     CMM_PARAM_CHK((!(YT_DISPATCH(unit)->is_inited)), CMM_ERR_NOT_INIT);
 336              		.loc 1 77 5 discriminator 3 view .LVU89
 337 0066 1D48     		ldr	r0, .L45+24
 338              	.LVL34:
  77:../switch_sdk/core/yt/yt_port.c ****     CMM_PARAM_CHK((!(YT_DISPATCH(unit)->is_inited)), CMM_ERR_NOT_INIT);
 339              		.loc 1 77 5 discriminator 3 view .LVU90
 340 0068 FFF7FEFF 		bl	osal_printf
 341              	.LVL35:
 342 006c F5E7     		b	.L27
 343              	.LVL36:
 344              	.L38:
  77:../switch_sdk/core/yt/yt_port.c ****     CMM_PARAM_CHK((!(YT_DISPATCH(unit)->is_inited)), CMM_ERR_NOT_INIT);
 345              		.loc 1 77 5 discriminator 3 view .LVU91
 346              	.LBE6:
  78:../switch_sdk/core/yt/yt_port.c ****     CMM_PARAM_CHK((!(CMM_PORT_VALID(unit, port))), CMM_ERR_PORT);
 347              		.loc 1 78 5 is_stmt 1 discriminator 1 view .LVU92
  78:../switch_sdk/core/yt/yt_port.c ****     CMM_PARAM_CHK((!(CMM_PORT_VALID(unit, port))), CMM_ERR_PORT);
 348              		.loc 1 78 5 discriminator 1 view .LVU93
 349 006e 184B     		ldr	r3, .L45+12
 350 0070 1B78     		ldrb	r3, [r3]	@ zero_extendqisi2
 351 0072 012B     		cmp	r3, #1
 352 0074 01D8     		bhi	.L42
 353              	.LVL37:
 354              	.L29:
  78:../switch_sdk/core/yt/yt_port.c ****     CMM_PARAM_CHK((!(CMM_PORT_VALID(unit, port))), CMM_ERR_PORT);
 355              		.loc 1 78 5 discriminator 5 view .LVU94
  78:../switch_sdk/core/yt/yt_port.c ****     CMM_PARAM_CHK((!(CMM_PORT_VALID(unit, port))), CMM_ERR_PORT);
 356              		.loc 1 78 5 discriminator 5 view .LVU95
  78:../switch_sdk/core/yt/yt_port.c ****     CMM_PARAM_CHK((!(CMM_PORT_VALID(unit, port))), CMM_ERR_PORT);
 357              		.loc 1 78 5 discriminator 5 view .LVU96
 358 0076 0420     		movs	r0, #4
 359 0078 DCE7     		b	.L22
 360              	.LVL38:
 361              	.L42:
  78:../switch_sdk/core/yt/yt_port.c ****     CMM_PARAM_CHK((!(CMM_PORT_VALID(unit, port))), CMM_ERR_PORT);
 362              		.loc 1 78 5 discriminator 3 view .LVU97
 363              	.LBB7:
  78:../switch_sdk/core/yt/yt_port.c ****     CMM_PARAM_CHK((!(CMM_PORT_VALID(unit, port))), CMM_ERR_PORT);
 364              		.loc 1 78 5 discriminator 3 view .LVU98
 365 007a 164B     		ldr	r3, .L45+16
 366 007c 1A69     		ldr	r2, [r3, #16]
 367              	.LVL39:
  78:../switch_sdk/core/yt/yt_port.c ****     CMM_PARAM_CHK((!(CMM_PORT_VALID(unit, port))), CMM_ERR_PORT);
 368              		.loc 1 78 5 is_stmt 0 discriminator 3 view .LVU99
 369 007e 164B     		ldr	r3, .L45+20
 370 0080 9968     		ldr	r1, [r3, #8]
 371              	.LVL40:
  78:../switch_sdk/core/yt/yt_port.c ****     CMM_PARAM_CHK((!(CMM_PORT_VALID(unit, port))), CMM_ERR_PORT);
 372              		.loc 1 78 5 discriminator 3 view .LVU100
 373 0082 1648     		ldr	r0, .L45+24
 374 0084 FFF7FEFF 		bl	osal_printf
 375              	.LVL41:
 376 0088 F5E7     		b	.L29
 377              	.LVL42:
 378              	.L30:
  78:../switch_sdk/core/yt/yt_port.c ****     CMM_PARAM_CHK((!(CMM_PORT_VALID(unit, port))), CMM_ERR_PORT);
 379              		.loc 1 78 5 discriminator 3 view .LVU101
 380              	.LBE7:
  79:../switch_sdk/core/yt/yt_port.c ****     CMM_PARAM_CHK((NULL == pEnable), CMM_ERR_NULL_POINT);
 381              		.loc 1 79 5 is_stmt 1 discriminator 3 view .LVU102
  79:../switch_sdk/core/yt/yt_port.c ****     CMM_PARAM_CHK((NULL == pEnable), CMM_ERR_NULL_POINT);
 382              		.loc 1 79 5 discriminator 3 view .LVU103
 383 008a 114B     		ldr	r3, .L45+12
 384 008c 1B78     		ldrb	r3, [r3]	@ zero_extendqisi2
 385 008e 012B     		cmp	r3, #1
 386 0090 01D8     		bhi	.L43
 387              	.LVL43:
 388              	.L32:
  79:../switch_sdk/core/yt/yt_port.c ****     CMM_PARAM_CHK((NULL == pEnable), CMM_ERR_NULL_POINT);
 389              		.loc 1 79 5 discriminator 7 view .LVU104
  79:../switch_sdk/core/yt/yt_port.c ****     CMM_PARAM_CHK((NULL == pEnable), CMM_ERR_NULL_POINT);
 390              		.loc 1 79 5 discriminator 7 view .LVU105
  79:../switch_sdk/core/yt/yt_port.c ****     CMM_PARAM_CHK((NULL == pEnable), CMM_ERR_NULL_POINT);
 391              		.loc 1 79 5 discriminator 7 view .LVU106
 392 0092 0E20     		movs	r0, #14
 393 0094 CEE7     		b	.L22
 394              	.LVL44:
 395              	.L43:
  79:../switch_sdk/core/yt/yt_port.c ****     CMM_PARAM_CHK((NULL == pEnable), CMM_ERR_NULL_POINT);
 396              		.loc 1 79 5 discriminator 5 view .LVU107
 397              	.LBB8:
  79:../switch_sdk/core/yt/yt_port.c ****     CMM_PARAM_CHK((NULL == pEnable), CMM_ERR_NULL_POINT);
 398              		.loc 1 79 5 discriminator 5 view .LVU108
 399 0096 0F4B     		ldr	r3, .L45+16
 400 0098 9A6B     		ldr	r2, [r3, #56]
 401              	.LVL45:
  79:../switch_sdk/core/yt/yt_port.c ****     CMM_PARAM_CHK((NULL == pEnable), CMM_ERR_NULL_POINT);
 402              		.loc 1 79 5 is_stmt 0 discriminator 5 view .LVU109
 403 009a 0F4B     		ldr	r3, .L45+20
 404 009c 9968     		ldr	r1, [r3, #8]
 405              	.LVL46:
  79:../switch_sdk/core/yt/yt_port.c ****     CMM_PARAM_CHK((NULL == pEnable), CMM_ERR_NULL_POINT);
 406              		.loc 1 79 5 discriminator 5 view .LVU110
 407 009e 0F48     		ldr	r0, .L45+24
 408 00a0 FFF7FEFF 		bl	osal_printf
 409              	.LVL47:
 410 00a4 F5E7     		b	.L32
 411              	.LVL48:
 412              	.L39:
  79:../switch_sdk/core/yt/yt_port.c ****     CMM_PARAM_CHK((NULL == pEnable), CMM_ERR_NULL_POINT);
 413              		.loc 1 79 5 discriminator 5 view .LVU111
 414              	.LBE8:
  80:../switch_sdk/core/yt/yt_port.c **** 
 415              		.loc 1 80 5 is_stmt 1 discriminator 1 view .LVU112
  80:../switch_sdk/core/yt/yt_port.c **** 
 416              		.loc 1 80 5 discriminator 1 view .LVU113
 417 00a6 0A4B     		ldr	r3, .L45+12
 418 00a8 1B78     		ldrb	r3, [r3]	@ zero_extendqisi2
 419 00aa 012B     		cmp	r3, #1
 420 00ac 01D8     		bhi	.L44
 421              	.LVL49:
 422              	.L34:
  80:../switch_sdk/core/yt/yt_port.c **** 
 423              		.loc 1 80 5 discriminator 5 view .LVU114
  80:../switch_sdk/core/yt/yt_port.c **** 
 424              		.loc 1 80 5 discriminator 5 view .LVU115
  80:../switch_sdk/core/yt/yt_port.c **** 
 425              		.loc 1 80 5 discriminator 5 view .LVU116
 426 00ae 0220     		movs	r0, #2
 427 00b0 C0E7     		b	.L22
 428              	.LVL50:
 429              	.L44:
  80:../switch_sdk/core/yt/yt_port.c **** 
 430              		.loc 1 80 5 discriminator 3 view .LVU117
 431              	.LBB9:
  80:../switch_sdk/core/yt/yt_port.c **** 
 432              		.loc 1 80 5 discriminator 3 view .LVU118
 433 00b2 084B     		ldr	r3, .L45+16
 434 00b4 9A68     		ldr	r2, [r3, #8]
 435              	.LVL51:
  80:../switch_sdk/core/yt/yt_port.c **** 
 436              		.loc 1 80 5 is_stmt 0 discriminator 3 view .LVU119
 437 00b6 084B     		ldr	r3, .L45+20
 438 00b8 9968     		ldr	r1, [r3, #8]
 439              	.LVL52:
  80:../switch_sdk/core/yt/yt_port.c **** 
 440              		.loc 1 80 5 discriminator 3 view .LVU120
 441 00ba 0848     		ldr	r0, .L45+24
 442 00bc FFF7FEFF 		bl	osal_printf
 443              	.LVL53:
 444 00c0 F5E7     		b	.L34
 445              	.L46:
 446 00c2 00BF     		.align	2
 447              	.L45:
 448 00c4 00000000 		.word	gpfal_dispatch
 449 00c8 00000000 		.word	gcal_inited
 450 00cc 00000000 		.word	gpSwitchUnit
 451 00d0 00000000 		.word	yt_debug_level
 452 00d4 00000000 		.word	_yt_errmsg
 453 00d8 00000000 		.word	_yt_prompt_msg
 454 00dc 00000000 		.word	.LC0
 455              	.LBE9:
 456              		.cfi_endproc
 457              	.LFE5:
 459              		.section	.text.yt_port_link_status_get,"ax",%progbits
 460              		.align	1
 461              		.global	yt_port_link_status_get
 462              		.syntax unified
 463              		.thumb
 464              		.thumb_func
 466              	yt_port_link_status_get:
 467              	.LVL54:
 468              	.LFB6:
  84:../switch_sdk/core/yt/yt_port.c **** 
  85:../switch_sdk/core/yt/yt_port.c **** /**
  86:../switch_sdk/core/yt/yt_port.c ****  * @internal      yt_port_link_status_get
  87:../switch_sdk/core/yt/yt_port.c ****  * @endinternal
  88:../switch_sdk/core/yt/yt_port.c ****  *
  89:../switch_sdk/core/yt/yt_port.c ****  * @brief         Description
  90:../switch_sdk/core/yt/yt_port.c ****  * @note          APPLICABLE DEVICES  -Tiger
  91:../switch_sdk/core/yt/yt_port.c ****  * @param[in]     unit                -unit id
  92:../switch_sdk/core/yt/yt_port.c ****  * @param[in]     port                -port num
  93:../switch_sdk/core/yt/yt_port.c ****  * @param[out]    pLinkStatus         -x
  94:../switch_sdk/core/yt/yt_port.c ****  * @retval        CMM_ERR_OK          -on success
  95:../switch_sdk/core/yt/yt_port.c ****  * @retval        CMM_ERR_FAIL        -on fail
  96:../switch_sdk/core/yt/yt_port.c ****  */
  97:../switch_sdk/core/yt/yt_port.c **** yt_ret_t yt_port_link_status_get(yt_unit_t unit, yt_port_t port, yt_port_link_status_t *pLinkStatus
  98:../switch_sdk/core/yt/yt_port.c **** {
 469              		.loc 1 98 1 is_stmt 1 view -0
 470              		.cfi_startproc
 471              		@ args = 0, pretend = 0, frame = 0
 472              		@ frame_needed = 0, uses_anonymous_args = 0
 473              		.loc 1 98 1 is_stmt 0 view .LVU122
 474 0000 08B5     		push	{r3, lr}
 475              		.cfi_def_cfa_offset 8
 476              		.cfi_offset 3, -8
 477              		.cfi_offset 14, -4
  99:../switch_sdk/core/yt/yt_port.c ****     CMM_PARAM_CHK((YT_UNIT_NUM <= unit), CMM_ERR_INPUT);
 478              		.loc 1 99 5 is_stmt 1 view .LVU123
 479              		.loc 1 99 5 view .LVU124
 480 0002 C0B9     		cbnz	r0, .L61
 481 0004 8446     		mov	ip, r0
 482              		.loc 1 99 5 discriminator 2 view .LVU125
 100:../switch_sdk/core/yt/yt_port.c ****     CMM_PARAM_CHK(NULL == YT_DISPATCH(unit), CMM_ERR_NOT_INIT);
 483              		.loc 1 100 5 discriminator 2 view .LVU126
 484              		.loc 1 100 5 discriminator 2 view .LVU127
 485 0006 2F4B     		ldr	r3, .L70
 486 0008 53F82030 		ldr	r3, [r3, r0, lsl #2]
 487 000c 0BB3     		cbz	r3, .L62
 488              		.loc 1 100 5 discriminator 2 view .LVU128
 101:../switch_sdk/core/yt/yt_port.c ****     CMM_PARAM_CHK((!(YT_DISPATCH(unit)->is_inited)), CMM_ERR_NOT_INIT);
 489              		.loc 1 101 5 discriminator 2 view .LVU129
 490              		.loc 1 101 5 discriminator 2 view .LVU130
 491 000e 1878     		ldrb	r0, [r3]	@ zero_extendqisi2
 492              	.LVL55:
 493              		.loc 1 101 5 is_stmt 0 discriminator 2 view .LVU131
 494 0010 0028     		cmp	r0, #0
 495 0012 2CD0     		beq	.L63
 496              		.loc 1 101 5 is_stmt 1 discriminator 2 view .LVU132
 102:../switch_sdk/core/yt/yt_port.c ****     CMM_PARAM_CHK((!(CMM_PORT_VALID(unit, port))), CMM_ERR_PORT);
 497              		.loc 1 102 5 discriminator 2 view .LVU133
 498              		.loc 1 102 5 discriminator 2 view .LVU134
 499 0014 2C48     		ldr	r0, .L70+4
 500 0016 0078     		ldrb	r0, [r0]	@ zero_extendqisi2
 501 0018 0028     		cmp	r0, #0
 502 001a 36D0     		beq	.L55
 503 001c 2B48     		ldr	r0, .L70+8
 504 001e 50F82C00 		ldr	r0, [r0, ip, lsl #2]
 505 0022 007D     		ldrb	r0, [r0, #20]	@ zero_extendqisi2
 506 0024 8842     		cmp	r0, r1
 507 0026 30D9     		bls	.L55
 508              		.loc 1 102 5 discriminator 4 view .LVU135
 103:../switch_sdk/core/yt/yt_port.c ****     CMM_PARAM_CHK((NULL == pLinkStatus), CMM_ERR_NULL_POINT);
 509              		.loc 1 103 5 discriminator 4 view .LVU136
 510              		.loc 1 103 5 discriminator 4 view .LVU137
 511 0028 002A     		cmp	r2, #0
 512 002a 3CD0     		beq	.L64
 513              		.loc 1 103 5 discriminator 2 view .LVU138
 104:../switch_sdk/core/yt/yt_port.c **** 
 105:../switch_sdk/core/yt/yt_port.c ****     return YT_DISPATCH(unit)->port_link_status_get(unit, port, pLinkStatus);
 514              		.loc 1 105 5 discriminator 2 view .LVU139
 515              		.loc 1 105 29 is_stmt 0 discriminator 2 view .LVU140
 516 002c D3F85C35 		ldr	r3, [r3, #1372]
 517              		.loc 1 105 12 discriminator 2 view .LVU141
 518 0030 6046     		mov	r0, ip
 519 0032 9847     		blx	r3
 520              	.LVL56:
 521              	.L47:
 106:../switch_sdk/core/yt/yt_port.c **** }
 522              		.loc 1 106 1 view .LVU142
 523 0034 08BD     		pop	{r3, pc}
 524              	.LVL57:
 525              	.L61:
  99:../switch_sdk/core/yt/yt_port.c ****     CMM_PARAM_CHK(NULL == YT_DISPATCH(unit), CMM_ERR_NOT_INIT);
 526              		.loc 1 99 5 is_stmt 1 discriminator 1 view .LVU143
  99:../switch_sdk/core/yt/yt_port.c ****     CMM_PARAM_CHK(NULL == YT_DISPATCH(unit), CMM_ERR_NOT_INIT);
 527              		.loc 1 99 5 discriminator 1 view .LVU144
 528 0036 264B     		ldr	r3, .L70+12
 529 0038 1B78     		ldrb	r3, [r3]	@ zero_extendqisi2
 530 003a 012B     		cmp	r3, #1
 531 003c 01D8     		bhi	.L65
 532              	.LVL58:
 533              	.L49:
  99:../switch_sdk/core/yt/yt_port.c ****     CMM_PARAM_CHK(NULL == YT_DISPATCH(unit), CMM_ERR_NOT_INIT);
 534              		.loc 1 99 5 discriminator 5 view .LVU145
  99:../switch_sdk/core/yt/yt_port.c ****     CMM_PARAM_CHK(NULL == YT_DISPATCH(unit), CMM_ERR_NOT_INIT);
 535              		.loc 1 99 5 discriminator 5 view .LVU146
  99:../switch_sdk/core/yt/yt_port.c ****     CMM_PARAM_CHK(NULL == YT_DISPATCH(unit), CMM_ERR_NOT_INIT);
 536              		.loc 1 99 5 discriminator 5 view .LVU147
 537 003e 0520     		movs	r0, #5
 538 0040 F8E7     		b	.L47
 539              	.LVL59:
 540              	.L65:
  99:../switch_sdk/core/yt/yt_port.c ****     CMM_PARAM_CHK(NULL == YT_DISPATCH(unit), CMM_ERR_NOT_INIT);
 541              		.loc 1 99 5 discriminator 3 view .LVU148
 542              	.LBB10:
  99:../switch_sdk/core/yt/yt_port.c ****     CMM_PARAM_CHK(NULL == YT_DISPATCH(unit), CMM_ERR_NOT_INIT);
 543              		.loc 1 99 5 discriminator 3 view .LVU149
 544 0042 244B     		ldr	r3, .L70+16
 545 0044 5A69     		ldr	r2, [r3, #20]
 546              	.LVL60:
  99:../switch_sdk/core/yt/yt_port.c ****     CMM_PARAM_CHK(NULL == YT_DISPATCH(unit), CMM_ERR_NOT_INIT);
 547              		.loc 1 99 5 is_stmt 0 discriminator 3 view .LVU150
 548 0046 244B     		ldr	r3, .L70+20
 549 0048 9968     		ldr	r1, [r3, #8]
 550              	.LVL61:
  99:../switch_sdk/core/yt/yt_port.c ****     CMM_PARAM_CHK(NULL == YT_DISPATCH(unit), CMM_ERR_NOT_INIT);
 551              		.loc 1 99 5 discriminator 3 view .LVU151
 552 004a 2448     		ldr	r0, .L70+24
 553              	.LVL62:
  99:../switch_sdk/core/yt/yt_port.c ****     CMM_PARAM_CHK(NULL == YT_DISPATCH(unit), CMM_ERR_NOT_INIT);
 554              		.loc 1 99 5 discriminator 3 view .LVU152
 555 004c FFF7FEFF 		bl	osal_printf
 556              	.LVL63:
 557 0050 F5E7     		b	.L49
 558              	.LVL64:
 559              	.L62:
  99:../switch_sdk/core/yt/yt_port.c ****     CMM_PARAM_CHK(NULL == YT_DISPATCH(unit), CMM_ERR_NOT_INIT);
 560              		.loc 1 99 5 discriminator 3 view .LVU153
 561              	.LBE10:
 100:../switch_sdk/core/yt/yt_port.c ****     CMM_PARAM_CHK((!(YT_DISPATCH(unit)->is_inited)), CMM_ERR_NOT_INIT);
 562              		.loc 1 100 5 is_stmt 1 discriminator 1 view .LVU154
 100:../switch_sdk/core/yt/yt_port.c ****     CMM_PARAM_CHK((!(YT_DISPATCH(unit)->is_inited)), CMM_ERR_NOT_INIT);
 563              		.loc 1 100 5 discriminator 1 view .LVU155
 564 0052 1F4B     		ldr	r3, .L70+12
 565 0054 1B78     		ldrb	r3, [r3]	@ zero_extendqisi2
 566 0056 012B     		cmp	r3, #1
 567 0058 01D8     		bhi	.L66
 568              	.LVL65:
 569              	.L52:
 100:../switch_sdk/core/yt/yt_port.c ****     CMM_PARAM_CHK((!(YT_DISPATCH(unit)->is_inited)), CMM_ERR_NOT_INIT);
 570              		.loc 1 100 5 discriminator 5 view .LVU156
 100:../switch_sdk/core/yt/yt_port.c ****     CMM_PARAM_CHK((!(YT_DISPATCH(unit)->is_inited)), CMM_ERR_NOT_INIT);
 571              		.loc 1 100 5 discriminator 5 view .LVU157
 100:../switch_sdk/core/yt/yt_port.c ****     CMM_PARAM_CHK((!(YT_DISPATCH(unit)->is_inited)), CMM_ERR_NOT_INIT);
 572              		.loc 1 100 5 discriminator 5 view .LVU158
 573 005a 0420     		movs	r0, #4
 574 005c EAE7     		b	.L47
 575              	.LVL66:
 576              	.L66:
 100:../switch_sdk/core/yt/yt_port.c ****     CMM_PARAM_CHK((!(YT_DISPATCH(unit)->is_inited)), CMM_ERR_NOT_INIT);
 577              		.loc 1 100 5 discriminator 3 view .LVU159
 578              	.LBB11:
 100:../switch_sdk/core/yt/yt_port.c ****     CMM_PARAM_CHK((!(YT_DISPATCH(unit)->is_inited)), CMM_ERR_NOT_INIT);
 579              		.loc 1 100 5 discriminator 3 view .LVU160
 580 005e 1D4B     		ldr	r3, .L70+16
 581 0060 1A69     		ldr	r2, [r3, #16]
 582              	.LVL67:
 100:../switch_sdk/core/yt/yt_port.c ****     CMM_PARAM_CHK((!(YT_DISPATCH(unit)->is_inited)), CMM_ERR_NOT_INIT);
 583              		.loc 1 100 5 is_stmt 0 discriminator 3 view .LVU161
 584 0062 1D4B     		ldr	r3, .L70+20
 585 0064 9968     		ldr	r1, [r3, #8]
 586              	.LVL68:
 100:../switch_sdk/core/yt/yt_port.c ****     CMM_PARAM_CHK((!(YT_DISPATCH(unit)->is_inited)), CMM_ERR_NOT_INIT);
 587              		.loc 1 100 5 discriminator 3 view .LVU162
 588 0066 1D48     		ldr	r0, .L70+24
 589              	.LVL69:
 100:../switch_sdk/core/yt/yt_port.c ****     CMM_PARAM_CHK((!(YT_DISPATCH(unit)->is_inited)), CMM_ERR_NOT_INIT);
 590              		.loc 1 100 5 discriminator 3 view .LVU163
 591 0068 FFF7FEFF 		bl	osal_printf
 592              	.LVL70:
 593 006c F5E7     		b	.L52
 594              	.LVL71:
 595              	.L63:
 100:../switch_sdk/core/yt/yt_port.c ****     CMM_PARAM_CHK((!(YT_DISPATCH(unit)->is_inited)), CMM_ERR_NOT_INIT);
 596              		.loc 1 100 5 discriminator 3 view .LVU164
 597              	.LBE11:
 101:../switch_sdk/core/yt/yt_port.c ****     CMM_PARAM_CHK((!(CMM_PORT_VALID(unit, port))), CMM_ERR_PORT);
 598              		.loc 1 101 5 is_stmt 1 discriminator 1 view .LVU165
 101:../switch_sdk/core/yt/yt_port.c ****     CMM_PARAM_CHK((!(CMM_PORT_VALID(unit, port))), CMM_ERR_PORT);
 599              		.loc 1 101 5 discriminator 1 view .LVU166
 600 006e 184B     		ldr	r3, .L70+12
 601 0070 1B78     		ldrb	r3, [r3]	@ zero_extendqisi2
 602 0072 012B     		cmp	r3, #1
 603 0074 01D8     		bhi	.L67
 604              	.LVL72:
 605              	.L54:
 101:../switch_sdk/core/yt/yt_port.c ****     CMM_PARAM_CHK((!(CMM_PORT_VALID(unit, port))), CMM_ERR_PORT);
 606              		.loc 1 101 5 discriminator 5 view .LVU167
 101:../switch_sdk/core/yt/yt_port.c ****     CMM_PARAM_CHK((!(CMM_PORT_VALID(unit, port))), CMM_ERR_PORT);
 607              		.loc 1 101 5 discriminator 5 view .LVU168
 101:../switch_sdk/core/yt/yt_port.c ****     CMM_PARAM_CHK((!(CMM_PORT_VALID(unit, port))), CMM_ERR_PORT);
 608              		.loc 1 101 5 discriminator 5 view .LVU169
 609 0076 0420     		movs	r0, #4
 610 0078 DCE7     		b	.L47
 611              	.LVL73:
 612              	.L67:
 101:../switch_sdk/core/yt/yt_port.c ****     CMM_PARAM_CHK((!(CMM_PORT_VALID(unit, port))), CMM_ERR_PORT);
 613              		.loc 1 101 5 discriminator 3 view .LVU170
 614              	.LBB12:
 101:../switch_sdk/core/yt/yt_port.c ****     CMM_PARAM_CHK((!(CMM_PORT_VALID(unit, port))), CMM_ERR_PORT);
 615              		.loc 1 101 5 discriminator 3 view .LVU171
 616 007a 164B     		ldr	r3, .L70+16
 617 007c 1A69     		ldr	r2, [r3, #16]
 618              	.LVL74:
 101:../switch_sdk/core/yt/yt_port.c ****     CMM_PARAM_CHK((!(CMM_PORT_VALID(unit, port))), CMM_ERR_PORT);
 619              		.loc 1 101 5 is_stmt 0 discriminator 3 view .LVU172
 620 007e 164B     		ldr	r3, .L70+20
 621 0080 9968     		ldr	r1, [r3, #8]
 622              	.LVL75:
 101:../switch_sdk/core/yt/yt_port.c ****     CMM_PARAM_CHK((!(CMM_PORT_VALID(unit, port))), CMM_ERR_PORT);
 623              		.loc 1 101 5 discriminator 3 view .LVU173
 624 0082 1648     		ldr	r0, .L70+24
 625 0084 FFF7FEFF 		bl	osal_printf
 626              	.LVL76:
 627 0088 F5E7     		b	.L54
 628              	.LVL77:
 629              	.L55:
 101:../switch_sdk/core/yt/yt_port.c ****     CMM_PARAM_CHK((!(CMM_PORT_VALID(unit, port))), CMM_ERR_PORT);
 630              		.loc 1 101 5 discriminator 3 view .LVU174
 631              	.LBE12:
 102:../switch_sdk/core/yt/yt_port.c ****     CMM_PARAM_CHK((NULL == pLinkStatus), CMM_ERR_NULL_POINT);
 632              		.loc 1 102 5 is_stmt 1 discriminator 3 view .LVU175
 102:../switch_sdk/core/yt/yt_port.c ****     CMM_PARAM_CHK((NULL == pLinkStatus), CMM_ERR_NULL_POINT);
 633              		.loc 1 102 5 discriminator 3 view .LVU176
 634 008a 114B     		ldr	r3, .L70+12
 635 008c 1B78     		ldrb	r3, [r3]	@ zero_extendqisi2
 636 008e 012B     		cmp	r3, #1
 637 0090 01D8     		bhi	.L68
 638              	.LVL78:
 639              	.L57:
 102:../switch_sdk/core/yt/yt_port.c ****     CMM_PARAM_CHK((NULL == pLinkStatus), CMM_ERR_NULL_POINT);
 640              		.loc 1 102 5 discriminator 7 view .LVU177
 102:../switch_sdk/core/yt/yt_port.c ****     CMM_PARAM_CHK((NULL == pLinkStatus), CMM_ERR_NULL_POINT);
 641              		.loc 1 102 5 discriminator 7 view .LVU178
 102:../switch_sdk/core/yt/yt_port.c ****     CMM_PARAM_CHK((NULL == pLinkStatus), CMM_ERR_NULL_POINT);
 642              		.loc 1 102 5 discriminator 7 view .LVU179
 643 0092 0E20     		movs	r0, #14
 644 0094 CEE7     		b	.L47
 645              	.LVL79:
 646              	.L68:
 102:../switch_sdk/core/yt/yt_port.c ****     CMM_PARAM_CHK((NULL == pLinkStatus), CMM_ERR_NULL_POINT);
 647              		.loc 1 102 5 discriminator 5 view .LVU180
 648              	.LBB13:
 102:../switch_sdk/core/yt/yt_port.c ****     CMM_PARAM_CHK((NULL == pLinkStatus), CMM_ERR_NULL_POINT);
 649              		.loc 1 102 5 discriminator 5 view .LVU181
 650 0096 0F4B     		ldr	r3, .L70+16
 651 0098 9A6B     		ldr	r2, [r3, #56]
 652              	.LVL80:
 102:../switch_sdk/core/yt/yt_port.c ****     CMM_PARAM_CHK((NULL == pLinkStatus), CMM_ERR_NULL_POINT);
 653              		.loc 1 102 5 is_stmt 0 discriminator 5 view .LVU182
 654 009a 0F4B     		ldr	r3, .L70+20
 655 009c 9968     		ldr	r1, [r3, #8]
 656              	.LVL81:
 102:../switch_sdk/core/yt/yt_port.c ****     CMM_PARAM_CHK((NULL == pLinkStatus), CMM_ERR_NULL_POINT);
 657              		.loc 1 102 5 discriminator 5 view .LVU183
 658 009e 0F48     		ldr	r0, .L70+24
 659 00a0 FFF7FEFF 		bl	osal_printf
 660              	.LVL82:
 661 00a4 F5E7     		b	.L57
 662              	.LVL83:
 663              	.L64:
 102:../switch_sdk/core/yt/yt_port.c ****     CMM_PARAM_CHK((NULL == pLinkStatus), CMM_ERR_NULL_POINT);
 664              		.loc 1 102 5 discriminator 5 view .LVU184
 665              	.LBE13:
 103:../switch_sdk/core/yt/yt_port.c **** 
 666              		.loc 1 103 5 is_stmt 1 discriminator 1 view .LVU185
 103:../switch_sdk/core/yt/yt_port.c **** 
 667              		.loc 1 103 5 discriminator 1 view .LVU186
 668 00a6 0A4B     		ldr	r3, .L70+12
 669 00a8 1B78     		ldrb	r3, [r3]	@ zero_extendqisi2
 670 00aa 012B     		cmp	r3, #1
 671 00ac 01D8     		bhi	.L69
 672              	.LVL84:
 673              	.L59:
 103:../switch_sdk/core/yt/yt_port.c **** 
 674              		.loc 1 103 5 discriminator 5 view .LVU187
 103:../switch_sdk/core/yt/yt_port.c **** 
 675              		.loc 1 103 5 discriminator 5 view .LVU188
 103:../switch_sdk/core/yt/yt_port.c **** 
 676              		.loc 1 103 5 discriminator 5 view .LVU189
 677 00ae 0220     		movs	r0, #2
 678 00b0 C0E7     		b	.L47
 679              	.LVL85:
 680              	.L69:
 103:../switch_sdk/core/yt/yt_port.c **** 
 681              		.loc 1 103 5 discriminator 3 view .LVU190
 682              	.LBB14:
 103:../switch_sdk/core/yt/yt_port.c **** 
 683              		.loc 1 103 5 discriminator 3 view .LVU191
 684 00b2 084B     		ldr	r3, .L70+16
 685 00b4 9A68     		ldr	r2, [r3, #8]
 686              	.LVL86:
 103:../switch_sdk/core/yt/yt_port.c **** 
 687              		.loc 1 103 5 is_stmt 0 discriminator 3 view .LVU192
 688 00b6 084B     		ldr	r3, .L70+20
 689 00b8 9968     		ldr	r1, [r3, #8]
 690              	.LVL87:
 103:../switch_sdk/core/yt/yt_port.c **** 
 691              		.loc 1 103 5 discriminator 3 view .LVU193
 692 00ba 0848     		ldr	r0, .L70+24
 693 00bc FFF7FEFF 		bl	osal_printf
 694              	.LVL88:
 695 00c0 F5E7     		b	.L59
 696              	.L71:
 697 00c2 00BF     		.align	2
 698              	.L70:
 699 00c4 00000000 		.word	gpfal_dispatch
 700 00c8 00000000 		.word	gcal_inited
 701 00cc 00000000 		.word	gpSwitchUnit
 702 00d0 00000000 		.word	yt_debug_level
 703 00d4 00000000 		.word	_yt_errmsg
 704 00d8 00000000 		.word	_yt_prompt_msg
 705 00dc 00000000 		.word	.LC0
 706              	.LBE14:
 707              		.cfi_endproc
 708              	.LFE6:
 710              		.section	.text.yt_port_link_status_all_get,"ax",%progbits
 711              		.align	1
 712              		.global	yt_port_link_status_all_get
 713              		.syntax unified
 714              		.thumb
 715              		.thumb_func
 717              	yt_port_link_status_all_get:
 718              	.LVL89:
 719              	.LFB7:
 107:../switch_sdk/core/yt/yt_port.c **** 
 108:../switch_sdk/core/yt/yt_port.c **** /**
 109:../switch_sdk/core/yt/yt_port.c ****  * @internal      yt_port_link_status_all_get
 110:../switch_sdk/core/yt/yt_port.c ****  * @endinternal
 111:../switch_sdk/core/yt/yt_port.c ****  *
 112:../switch_sdk/core/yt/yt_port.c ****  * @brief         Description
 113:../switch_sdk/core/yt/yt_port.c ****  * @note          APPLICABLE DEVICES  -Tiger
 114:../switch_sdk/core/yt/yt_port.c ****  * @param[in]     unit                -unit id
 115:../switch_sdk/core/yt/yt_port.c ****  * @param[in]     port                -port num
 116:../switch_sdk/core/yt/yt_port.c ****  * @param[out]    pAllLinkStatus      -x
 117:../switch_sdk/core/yt/yt_port.c ****  * @retval        CMM_ERR_OK          -on success
 118:../switch_sdk/core/yt/yt_port.c ****  * @retval        CMM_ERR_FAIL        -on fail
 119:../switch_sdk/core/yt/yt_port.c ****  */
 120:../switch_sdk/core/yt/yt_port.c **** yt_ret_t yt_port_link_status_all_get(yt_unit_t unit, yt_port_t port, yt_port_linkStatus_all_t *pAll
 121:../switch_sdk/core/yt/yt_port.c **** {
 720              		.loc 1 121 1 is_stmt 1 view -0
 721              		.cfi_startproc
 722              		@ args = 0, pretend = 0, frame = 0
 723              		@ frame_needed = 0, uses_anonymous_args = 0
 724              		.loc 1 121 1 is_stmt 0 view .LVU195
 725 0000 08B5     		push	{r3, lr}
 726              		.cfi_def_cfa_offset 8
 727              		.cfi_offset 3, -8
 728              		.cfi_offset 14, -4
 122:../switch_sdk/core/yt/yt_port.c ****     CMM_PARAM_CHK((YT_UNIT_NUM <= unit), CMM_ERR_INPUT);
 729              		.loc 1 122 5 is_stmt 1 view .LVU196
 730              		.loc 1 122 5 view .LVU197
 731 0002 C0B9     		cbnz	r0, .L86
 732 0004 8446     		mov	ip, r0
 733              		.loc 1 122 5 discriminator 2 view .LVU198
 123:../switch_sdk/core/yt/yt_port.c ****     CMM_PARAM_CHK(NULL == YT_DISPATCH(unit), CMM_ERR_NOT_INIT);
 734              		.loc 1 123 5 discriminator 2 view .LVU199
 735              		.loc 1 123 5 discriminator 2 view .LVU200
 736 0006 2F4B     		ldr	r3, .L95
 737 0008 53F82030 		ldr	r3, [r3, r0, lsl #2]
 738 000c 0BB3     		cbz	r3, .L87
 739              		.loc 1 123 5 discriminator 2 view .LVU201
 124:../switch_sdk/core/yt/yt_port.c ****     CMM_PARAM_CHK((!(YT_DISPATCH(unit)->is_inited)), CMM_ERR_NOT_INIT);
 740              		.loc 1 124 5 discriminator 2 view .LVU202
 741              		.loc 1 124 5 discriminator 2 view .LVU203
 742 000e 1878     		ldrb	r0, [r3]	@ zero_extendqisi2
 743              	.LVL90:
 744              		.loc 1 124 5 is_stmt 0 discriminator 2 view .LVU204
 745 0010 0028     		cmp	r0, #0
 746 0012 2CD0     		beq	.L88
 747              		.loc 1 124 5 is_stmt 1 discriminator 2 view .LVU205
 125:../switch_sdk/core/yt/yt_port.c ****     CMM_PARAM_CHK((!(CMM_PORT_VALID(unit, port))), CMM_ERR_PORT);
 748              		.loc 1 125 5 discriminator 2 view .LVU206
 749              		.loc 1 125 5 discriminator 2 view .LVU207
 750 0014 2C48     		ldr	r0, .L95+4
 751 0016 0078     		ldrb	r0, [r0]	@ zero_extendqisi2
 752 0018 0028     		cmp	r0, #0
 753 001a 36D0     		beq	.L80
 754 001c 2B48     		ldr	r0, .L95+8
 755 001e 50F82C00 		ldr	r0, [r0, ip, lsl #2]
 756 0022 007D     		ldrb	r0, [r0, #20]	@ zero_extendqisi2
 757 0024 8842     		cmp	r0, r1
 758 0026 30D9     		bls	.L80
 759              		.loc 1 125 5 discriminator 4 view .LVU208
 126:../switch_sdk/core/yt/yt_port.c ****     CMM_PARAM_CHK((NULL == pAllLinkStatus), CMM_ERR_NULL_POINT);
 760              		.loc 1 126 5 discriminator 4 view .LVU209
 761              		.loc 1 126 5 discriminator 4 view .LVU210
 762 0028 002A     		cmp	r2, #0
 763 002a 3CD0     		beq	.L89
 764              		.loc 1 126 5 discriminator 2 view .LVU211
 127:../switch_sdk/core/yt/yt_port.c **** 
 128:../switch_sdk/core/yt/yt_port.c ****     return YT_DISPATCH(unit)->port_link_status_all_get(unit, port, pAllLinkStatus);
 765              		.loc 1 128 5 discriminator 2 view .LVU212
 766              		.loc 1 128 29 is_stmt 0 discriminator 2 view .LVU213
 767 002c D3F86035 		ldr	r3, [r3, #1376]
 768              		.loc 1 128 12 discriminator 2 view .LVU214
 769 0030 6046     		mov	r0, ip
 770 0032 9847     		blx	r3
 771              	.LVL91:
 772              	.L72:
 129:../switch_sdk/core/yt/yt_port.c **** }
 773              		.loc 1 129 1 view .LVU215
 774 0034 08BD     		pop	{r3, pc}
 775              	.LVL92:
 776              	.L86:
 122:../switch_sdk/core/yt/yt_port.c ****     CMM_PARAM_CHK(NULL == YT_DISPATCH(unit), CMM_ERR_NOT_INIT);
 777              		.loc 1 122 5 is_stmt 1 discriminator 1 view .LVU216
 122:../switch_sdk/core/yt/yt_port.c ****     CMM_PARAM_CHK(NULL == YT_DISPATCH(unit), CMM_ERR_NOT_INIT);
 778              		.loc 1 122 5 discriminator 1 view .LVU217
 779 0036 264B     		ldr	r3, .L95+12
 780 0038 1B78     		ldrb	r3, [r3]	@ zero_extendqisi2
 781 003a 012B     		cmp	r3, #1
 782 003c 01D8     		bhi	.L90
 783              	.LVL93:
 784              	.L74:
 122:../switch_sdk/core/yt/yt_port.c ****     CMM_PARAM_CHK(NULL == YT_DISPATCH(unit), CMM_ERR_NOT_INIT);
 785              		.loc 1 122 5 discriminator 5 view .LVU218
 122:../switch_sdk/core/yt/yt_port.c ****     CMM_PARAM_CHK(NULL == YT_DISPATCH(unit), CMM_ERR_NOT_INIT);
 786              		.loc 1 122 5 discriminator 5 view .LVU219
 122:../switch_sdk/core/yt/yt_port.c ****     CMM_PARAM_CHK(NULL == YT_DISPATCH(unit), CMM_ERR_NOT_INIT);
 787              		.loc 1 122 5 discriminator 5 view .LVU220
 788 003e 0520     		movs	r0, #5
 789 0040 F8E7     		b	.L72
 790              	.LVL94:
 791              	.L90:
 122:../switch_sdk/core/yt/yt_port.c ****     CMM_PARAM_CHK(NULL == YT_DISPATCH(unit), CMM_ERR_NOT_INIT);
 792              		.loc 1 122 5 discriminator 3 view .LVU221
 793              	.LBB15:
 122:../switch_sdk/core/yt/yt_port.c ****     CMM_PARAM_CHK(NULL == YT_DISPATCH(unit), CMM_ERR_NOT_INIT);
 794              		.loc 1 122 5 discriminator 3 view .LVU222
 795 0042 244B     		ldr	r3, .L95+16
 796 0044 5A69     		ldr	r2, [r3, #20]
 797              	.LVL95:
 122:../switch_sdk/core/yt/yt_port.c ****     CMM_PARAM_CHK(NULL == YT_DISPATCH(unit), CMM_ERR_NOT_INIT);
 798              		.loc 1 122 5 is_stmt 0 discriminator 3 view .LVU223
 799 0046 244B     		ldr	r3, .L95+20
 800 0048 9968     		ldr	r1, [r3, #8]
 801              	.LVL96:
 122:../switch_sdk/core/yt/yt_port.c ****     CMM_PARAM_CHK(NULL == YT_DISPATCH(unit), CMM_ERR_NOT_INIT);
 802              		.loc 1 122 5 discriminator 3 view .LVU224
 803 004a 2448     		ldr	r0, .L95+24
 804              	.LVL97:
 122:../switch_sdk/core/yt/yt_port.c ****     CMM_PARAM_CHK(NULL == YT_DISPATCH(unit), CMM_ERR_NOT_INIT);
 805              		.loc 1 122 5 discriminator 3 view .LVU225
 806 004c FFF7FEFF 		bl	osal_printf
 807              	.LVL98:
 808 0050 F5E7     		b	.L74
 809              	.LVL99:
 810              	.L87:
 122:../switch_sdk/core/yt/yt_port.c ****     CMM_PARAM_CHK(NULL == YT_DISPATCH(unit), CMM_ERR_NOT_INIT);
 811              		.loc 1 122 5 discriminator 3 view .LVU226
 812              	.LBE15:
 123:../switch_sdk/core/yt/yt_port.c ****     CMM_PARAM_CHK((!(YT_DISPATCH(unit)->is_inited)), CMM_ERR_NOT_INIT);
 813              		.loc 1 123 5 is_stmt 1 discriminator 1 view .LVU227
 123:../switch_sdk/core/yt/yt_port.c ****     CMM_PARAM_CHK((!(YT_DISPATCH(unit)->is_inited)), CMM_ERR_NOT_INIT);
 814              		.loc 1 123 5 discriminator 1 view .LVU228
 815 0052 1F4B     		ldr	r3, .L95+12
 816 0054 1B78     		ldrb	r3, [r3]	@ zero_extendqisi2
 817 0056 012B     		cmp	r3, #1
 818 0058 01D8     		bhi	.L91
 819              	.LVL100:
 820              	.L77:
 123:../switch_sdk/core/yt/yt_port.c ****     CMM_PARAM_CHK((!(YT_DISPATCH(unit)->is_inited)), CMM_ERR_NOT_INIT);
 821              		.loc 1 123 5 discriminator 5 view .LVU229
 123:../switch_sdk/core/yt/yt_port.c ****     CMM_PARAM_CHK((!(YT_DISPATCH(unit)->is_inited)), CMM_ERR_NOT_INIT);
 822              		.loc 1 123 5 discriminator 5 view .LVU230
 123:../switch_sdk/core/yt/yt_port.c ****     CMM_PARAM_CHK((!(YT_DISPATCH(unit)->is_inited)), CMM_ERR_NOT_INIT);
 823              		.loc 1 123 5 discriminator 5 view .LVU231
 824 005a 0420     		movs	r0, #4
 825 005c EAE7     		b	.L72
 826              	.LVL101:
 827              	.L91:
 123:../switch_sdk/core/yt/yt_port.c ****     CMM_PARAM_CHK((!(YT_DISPATCH(unit)->is_inited)), CMM_ERR_NOT_INIT);
 828              		.loc 1 123 5 discriminator 3 view .LVU232
 829              	.LBB16:
 123:../switch_sdk/core/yt/yt_port.c ****     CMM_PARAM_CHK((!(YT_DISPATCH(unit)->is_inited)), CMM_ERR_NOT_INIT);
 830              		.loc 1 123 5 discriminator 3 view .LVU233
 831 005e 1D4B     		ldr	r3, .L95+16
 832 0060 1A69     		ldr	r2, [r3, #16]
 833              	.LVL102:
 123:../switch_sdk/core/yt/yt_port.c ****     CMM_PARAM_CHK((!(YT_DISPATCH(unit)->is_inited)), CMM_ERR_NOT_INIT);
 834              		.loc 1 123 5 is_stmt 0 discriminator 3 view .LVU234
 835 0062 1D4B     		ldr	r3, .L95+20
 836 0064 9968     		ldr	r1, [r3, #8]
 837              	.LVL103:
 123:../switch_sdk/core/yt/yt_port.c ****     CMM_PARAM_CHK((!(YT_DISPATCH(unit)->is_inited)), CMM_ERR_NOT_INIT);
 838              		.loc 1 123 5 discriminator 3 view .LVU235
 839 0066 1D48     		ldr	r0, .L95+24
 840              	.LVL104:
 123:../switch_sdk/core/yt/yt_port.c ****     CMM_PARAM_CHK((!(YT_DISPATCH(unit)->is_inited)), CMM_ERR_NOT_INIT);
 841              		.loc 1 123 5 discriminator 3 view .LVU236
 842 0068 FFF7FEFF 		bl	osal_printf
 843              	.LVL105:
 844 006c F5E7     		b	.L77
 845              	.LVL106:
 846              	.L88:
 123:../switch_sdk/core/yt/yt_port.c ****     CMM_PARAM_CHK((!(YT_DISPATCH(unit)->is_inited)), CMM_ERR_NOT_INIT);
 847              		.loc 1 123 5 discriminator 3 view .LVU237
 848              	.LBE16:
 124:../switch_sdk/core/yt/yt_port.c ****     CMM_PARAM_CHK((!(CMM_PORT_VALID(unit, port))), CMM_ERR_PORT);
 849              		.loc 1 124 5 is_stmt 1 discriminator 1 view .LVU238
 124:../switch_sdk/core/yt/yt_port.c ****     CMM_PARAM_CHK((!(CMM_PORT_VALID(unit, port))), CMM_ERR_PORT);
 850              		.loc 1 124 5 discriminator 1 view .LVU239
 851 006e 184B     		ldr	r3, .L95+12
 852 0070 1B78     		ldrb	r3, [r3]	@ zero_extendqisi2
 853 0072 012B     		cmp	r3, #1
 854 0074 01D8     		bhi	.L92
 855              	.LVL107:
 856              	.L79:
 124:../switch_sdk/core/yt/yt_port.c ****     CMM_PARAM_CHK((!(CMM_PORT_VALID(unit, port))), CMM_ERR_PORT);
 857              		.loc 1 124 5 discriminator 5 view .LVU240
 124:../switch_sdk/core/yt/yt_port.c ****     CMM_PARAM_CHK((!(CMM_PORT_VALID(unit, port))), CMM_ERR_PORT);
 858              		.loc 1 124 5 discriminator 5 view .LVU241
 124:../switch_sdk/core/yt/yt_port.c ****     CMM_PARAM_CHK((!(CMM_PORT_VALID(unit, port))), CMM_ERR_PORT);
 859              		.loc 1 124 5 discriminator 5 view .LVU242
 860 0076 0420     		movs	r0, #4
 861 0078 DCE7     		b	.L72
 862              	.LVL108:
 863              	.L92:
 124:../switch_sdk/core/yt/yt_port.c ****     CMM_PARAM_CHK((!(CMM_PORT_VALID(unit, port))), CMM_ERR_PORT);
 864              		.loc 1 124 5 discriminator 3 view .LVU243
 865              	.LBB17:
 124:../switch_sdk/core/yt/yt_port.c ****     CMM_PARAM_CHK((!(CMM_PORT_VALID(unit, port))), CMM_ERR_PORT);
 866              		.loc 1 124 5 discriminator 3 view .LVU244
 867 007a 164B     		ldr	r3, .L95+16
 868 007c 1A69     		ldr	r2, [r3, #16]
 869              	.LVL109:
 124:../switch_sdk/core/yt/yt_port.c ****     CMM_PARAM_CHK((!(CMM_PORT_VALID(unit, port))), CMM_ERR_PORT);
 870              		.loc 1 124 5 is_stmt 0 discriminator 3 view .LVU245
 871 007e 164B     		ldr	r3, .L95+20
 872 0080 9968     		ldr	r1, [r3, #8]
 873              	.LVL110:
 124:../switch_sdk/core/yt/yt_port.c ****     CMM_PARAM_CHK((!(CMM_PORT_VALID(unit, port))), CMM_ERR_PORT);
 874              		.loc 1 124 5 discriminator 3 view .LVU246
 875 0082 1648     		ldr	r0, .L95+24
 876 0084 FFF7FEFF 		bl	osal_printf
 877              	.LVL111:
 878 0088 F5E7     		b	.L79
 879              	.LVL112:
 880              	.L80:
 124:../switch_sdk/core/yt/yt_port.c ****     CMM_PARAM_CHK((!(CMM_PORT_VALID(unit, port))), CMM_ERR_PORT);
 881              		.loc 1 124 5 discriminator 3 view .LVU247
 882              	.LBE17:
 125:../switch_sdk/core/yt/yt_port.c ****     CMM_PARAM_CHK((NULL == pAllLinkStatus), CMM_ERR_NULL_POINT);
 883              		.loc 1 125 5 is_stmt 1 discriminator 3 view .LVU248
 125:../switch_sdk/core/yt/yt_port.c ****     CMM_PARAM_CHK((NULL == pAllLinkStatus), CMM_ERR_NULL_POINT);
 884              		.loc 1 125 5 discriminator 3 view .LVU249
 885 008a 114B     		ldr	r3, .L95+12
 886 008c 1B78     		ldrb	r3, [r3]	@ zero_extendqisi2
 887 008e 012B     		cmp	r3, #1
 888 0090 01D8     		bhi	.L93
 889              	.LVL113:
 890              	.L82:
 125:../switch_sdk/core/yt/yt_port.c ****     CMM_PARAM_CHK((NULL == pAllLinkStatus), CMM_ERR_NULL_POINT);
 891              		.loc 1 125 5 discriminator 7 view .LVU250
 125:../switch_sdk/core/yt/yt_port.c ****     CMM_PARAM_CHK((NULL == pAllLinkStatus), CMM_ERR_NULL_POINT);
 892              		.loc 1 125 5 discriminator 7 view .LVU251
 125:../switch_sdk/core/yt/yt_port.c ****     CMM_PARAM_CHK((NULL == pAllLinkStatus), CMM_ERR_NULL_POINT);
 893              		.loc 1 125 5 discriminator 7 view .LVU252
 894 0092 0E20     		movs	r0, #14
 895 0094 CEE7     		b	.L72
 896              	.LVL114:
 897              	.L93:
 125:../switch_sdk/core/yt/yt_port.c ****     CMM_PARAM_CHK((NULL == pAllLinkStatus), CMM_ERR_NULL_POINT);
 898              		.loc 1 125 5 discriminator 5 view .LVU253
 899              	.LBB18:
 125:../switch_sdk/core/yt/yt_port.c ****     CMM_PARAM_CHK((NULL == pAllLinkStatus), CMM_ERR_NULL_POINT);
 900              		.loc 1 125 5 discriminator 5 view .LVU254
 901 0096 0F4B     		ldr	r3, .L95+16
 902 0098 9A6B     		ldr	r2, [r3, #56]
 903              	.LVL115:
 125:../switch_sdk/core/yt/yt_port.c ****     CMM_PARAM_CHK((NULL == pAllLinkStatus), CMM_ERR_NULL_POINT);
 904              		.loc 1 125 5 is_stmt 0 discriminator 5 view .LVU255
 905 009a 0F4B     		ldr	r3, .L95+20
 906 009c 9968     		ldr	r1, [r3, #8]
 907              	.LVL116:
 125:../switch_sdk/core/yt/yt_port.c ****     CMM_PARAM_CHK((NULL == pAllLinkStatus), CMM_ERR_NULL_POINT);
 908              		.loc 1 125 5 discriminator 5 view .LVU256
 909 009e 0F48     		ldr	r0, .L95+24
 910 00a0 FFF7FEFF 		bl	osal_printf
 911              	.LVL117:
 912 00a4 F5E7     		b	.L82
 913              	.LVL118:
 914              	.L89:
 125:../switch_sdk/core/yt/yt_port.c ****     CMM_PARAM_CHK((NULL == pAllLinkStatus), CMM_ERR_NULL_POINT);
 915              		.loc 1 125 5 discriminator 5 view .LVU257
 916              	.LBE18:
 126:../switch_sdk/core/yt/yt_port.c **** 
 917              		.loc 1 126 5 is_stmt 1 discriminator 1 view .LVU258
 126:../switch_sdk/core/yt/yt_port.c **** 
 918              		.loc 1 126 5 discriminator 1 view .LVU259
 919 00a6 0A4B     		ldr	r3, .L95+12
 920 00a8 1B78     		ldrb	r3, [r3]	@ zero_extendqisi2
 921 00aa 012B     		cmp	r3, #1
 922 00ac 01D8     		bhi	.L94
 923              	.LVL119:
 924              	.L84:
 126:../switch_sdk/core/yt/yt_port.c **** 
 925              		.loc 1 126 5 discriminator 5 view .LVU260
 126:../switch_sdk/core/yt/yt_port.c **** 
 926              		.loc 1 126 5 discriminator 5 view .LVU261
 126:../switch_sdk/core/yt/yt_port.c **** 
 927              		.loc 1 126 5 discriminator 5 view .LVU262
 928 00ae 0220     		movs	r0, #2
 929 00b0 C0E7     		b	.L72
 930              	.LVL120:
 931              	.L94:
 126:../switch_sdk/core/yt/yt_port.c **** 
 932              		.loc 1 126 5 discriminator 3 view .LVU263
 933              	.LBB19:
 126:../switch_sdk/core/yt/yt_port.c **** 
 934              		.loc 1 126 5 discriminator 3 view .LVU264
 935 00b2 084B     		ldr	r3, .L95+16
 936 00b4 9A68     		ldr	r2, [r3, #8]
 937              	.LVL121:
 126:../switch_sdk/core/yt/yt_port.c **** 
 938              		.loc 1 126 5 is_stmt 0 discriminator 3 view .LVU265
 939 00b6 084B     		ldr	r3, .L95+20
 940 00b8 9968     		ldr	r1, [r3, #8]
 941              	.LVL122:
 126:../switch_sdk/core/yt/yt_port.c **** 
 942              		.loc 1 126 5 discriminator 3 view .LVU266
 943 00ba 0848     		ldr	r0, .L95+24
 944 00bc FFF7FEFF 		bl	osal_printf
 945              	.LVL123:
 946 00c0 F5E7     		b	.L84
 947              	.L96:
 948 00c2 00BF     		.align	2
 949              	.L95:
 950 00c4 00000000 		.word	gpfal_dispatch
 951 00c8 00000000 		.word	gcal_inited
 952 00cc 00000000 		.word	gpSwitchUnit
 953 00d0 00000000 		.word	yt_debug_level
 954 00d4 00000000 		.word	_yt_errmsg
 955 00d8 00000000 		.word	_yt_prompt_msg
 956 00dc 00000000 		.word	.LC0
 957              	.LBE19:
 958              		.cfi_endproc
 959              	.LFE7:
 961              		.section	.text.yt_port_backpress_enable_set,"ax",%progbits
 962              		.align	1
 963              		.global	yt_port_backpress_enable_set
 964              		.syntax unified
 965              		.thumb
 966              		.thumb_func
 968              	yt_port_backpress_enable_set:
 969              	.LVL124:
 970              	.LFB8:
 130:../switch_sdk/core/yt/yt_port.c **** 
 131:../switch_sdk/core/yt/yt_port.c **** /**
 132:../switch_sdk/core/yt/yt_port.c ****  * @internal      yt_port_backpress_enable_set
 133:../switch_sdk/core/yt/yt_port.c ****  * @endinternal
 134:../switch_sdk/core/yt/yt_port.c ****  *
 135:../switch_sdk/core/yt/yt_port.c ****  * @brief         Description
 136:../switch_sdk/core/yt/yt_port.c ****  * @note          APPLICABLE DEVICES  -Tiger
 137:../switch_sdk/core/yt/yt_port.c ****  * @param[in]     unit                -unit id
 138:../switch_sdk/core/yt/yt_port.c ****  * @param[in]     port                -port num
 139:../switch_sdk/core/yt/yt_port.c ****  * @param[in]     enable              -enable or disable
 140:../switch_sdk/core/yt/yt_port.c ****  * @retval        CMM_ERR_OK          -on success
 141:../switch_sdk/core/yt/yt_port.c ****  * @retval        CMM_ERR_FAIL        -on fail
 142:../switch_sdk/core/yt/yt_port.c ****  */
 143:../switch_sdk/core/yt/yt_port.c **** yt_ret_t yt_port_backpress_enable_set(yt_unit_t unit, yt_port_t port, yt_enable_t enable)
 144:../switch_sdk/core/yt/yt_port.c **** {
 971              		.loc 1 144 1 is_stmt 1 view -0
 972              		.cfi_startproc
 973              		@ args = 0, pretend = 0, frame = 0
 974              		@ frame_needed = 0, uses_anonymous_args = 0
 975              		.loc 1 144 1 is_stmt 0 view .LVU268
 976 0000 08B5     		push	{r3, lr}
 977              		.cfi_def_cfa_offset 8
 978              		.cfi_offset 3, -8
 979              		.cfi_offset 14, -4
 145:../switch_sdk/core/yt/yt_port.c ****     CMM_PARAM_CHK((YT_UNIT_NUM <= unit), CMM_ERR_INPUT);
 980              		.loc 1 145 5 is_stmt 1 view .LVU269
 981              		.loc 1 145 5 view .LVU270
 982 0002 C0B9     		cbnz	r0, .L111
 983 0004 8446     		mov	ip, r0
 984              		.loc 1 145 5 discriminator 2 view .LVU271
 146:../switch_sdk/core/yt/yt_port.c ****     CMM_PARAM_CHK(NULL == YT_DISPATCH(unit), CMM_ERR_NOT_INIT);
 985              		.loc 1 146 5 discriminator 2 view .LVU272
 986              		.loc 1 146 5 discriminator 2 view .LVU273
 987 0006 2F4B     		ldr	r3, .L120
 988 0008 53F82030 		ldr	r3, [r3, r0, lsl #2]
 989 000c 0BB3     		cbz	r3, .L112
 990              		.loc 1 146 5 discriminator 2 view .LVU274
 147:../switch_sdk/core/yt/yt_port.c ****     CMM_PARAM_CHK((!(YT_DISPATCH(unit)->is_inited)), CMM_ERR_NOT_INIT);
 991              		.loc 1 147 5 discriminator 2 view .LVU275
 992              		.loc 1 147 5 discriminator 2 view .LVU276
 993 000e 1878     		ldrb	r0, [r3]	@ zero_extendqisi2
 994              	.LVL125:
 995              		.loc 1 147 5 is_stmt 0 discriminator 2 view .LVU277
 996 0010 0028     		cmp	r0, #0
 997 0012 2CD0     		beq	.L113
 998              		.loc 1 147 5 is_stmt 1 discriminator 2 view .LVU278
 148:../switch_sdk/core/yt/yt_port.c ****     CMM_PARAM_CHK((!(CMM_PORT_VALID(unit, port))), CMM_ERR_PORT);
 999              		.loc 1 148 5 discriminator 2 view .LVU279
 1000              		.loc 1 148 5 discriminator 2 view .LVU280
 1001 0014 2C48     		ldr	r0, .L120+4
 1002 0016 0078     		ldrb	r0, [r0]	@ zero_extendqisi2
 1003 0018 0028     		cmp	r0, #0
 1004 001a 36D0     		beq	.L105
 1005 001c 2B48     		ldr	r0, .L120+8
 1006 001e 50F82C00 		ldr	r0, [r0, ip, lsl #2]
 1007 0022 007D     		ldrb	r0, [r0, #20]	@ zero_extendqisi2
 1008 0024 8842     		cmp	r0, r1
 1009 0026 30D9     		bls	.L105
 1010              		.loc 1 148 5 discriminator 4 view .LVU281
 149:../switch_sdk/core/yt/yt_port.c ****     CMM_PARAM_CHK((YT_ENABLE < enable || YT_DISABLE > enable), CMM_ERR_INPUT);
 1011              		.loc 1 149 5 discriminator 4 view .LVU282
 1012              		.loc 1 149 5 discriminator 4 view .LVU283
 1013 0028 012A     		cmp	r2, #1
 1014 002a 3CD8     		bhi	.L114
 1015              		.loc 1 149 5 discriminator 2 view .LVU284
 150:../switch_sdk/core/yt/yt_port.c **** 
 151:../switch_sdk/core/yt/yt_port.c ****     return YT_DISPATCH(unit)->port_backpress_enable_set(unit, port, enable);
 1016              		.loc 1 151 5 discriminator 2 view .LVU285
 1017              		.loc 1 151 29 is_stmt 0 discriminator 2 view .LVU286
 1018 002c D3F86435 		ldr	r3, [r3, #1380]
 1019              		.loc 1 151 12 discriminator 2 view .LVU287
 1020 0030 6046     		mov	r0, ip
 1021 0032 9847     		blx	r3
 1022              	.LVL126:
 1023              	.L97:
 152:../switch_sdk/core/yt/yt_port.c **** }
 1024              		.loc 1 152 1 view .LVU288
 1025 0034 08BD     		pop	{r3, pc}
 1026              	.LVL127:
 1027              	.L111:
 145:../switch_sdk/core/yt/yt_port.c ****     CMM_PARAM_CHK(NULL == YT_DISPATCH(unit), CMM_ERR_NOT_INIT);
 1028              		.loc 1 145 5 is_stmt 1 discriminator 1 view .LVU289
 145:../switch_sdk/core/yt/yt_port.c ****     CMM_PARAM_CHK(NULL == YT_DISPATCH(unit), CMM_ERR_NOT_INIT);
 1029              		.loc 1 145 5 discriminator 1 view .LVU290
 1030 0036 264B     		ldr	r3, .L120+12
 1031 0038 1B78     		ldrb	r3, [r3]	@ zero_extendqisi2
 1032 003a 012B     		cmp	r3, #1
 1033 003c 01D8     		bhi	.L115
 1034              	.LVL128:
 1035              	.L99:
 145:../switch_sdk/core/yt/yt_port.c ****     CMM_PARAM_CHK(NULL == YT_DISPATCH(unit), CMM_ERR_NOT_INIT);
 1036              		.loc 1 145 5 discriminator 5 view .LVU291
 145:../switch_sdk/core/yt/yt_port.c ****     CMM_PARAM_CHK(NULL == YT_DISPATCH(unit), CMM_ERR_NOT_INIT);
 1037              		.loc 1 145 5 discriminator 5 view .LVU292
 145:../switch_sdk/core/yt/yt_port.c ****     CMM_PARAM_CHK(NULL == YT_DISPATCH(unit), CMM_ERR_NOT_INIT);
 1038              		.loc 1 145 5 discriminator 5 view .LVU293
 1039 003e 0520     		movs	r0, #5
 1040 0040 F8E7     		b	.L97
 1041              	.LVL129:
 1042              	.L115:
 145:../switch_sdk/core/yt/yt_port.c ****     CMM_PARAM_CHK(NULL == YT_DISPATCH(unit), CMM_ERR_NOT_INIT);
 1043              		.loc 1 145 5 discriminator 3 view .LVU294
 1044              	.LBB20:
 145:../switch_sdk/core/yt/yt_port.c ****     CMM_PARAM_CHK(NULL == YT_DISPATCH(unit), CMM_ERR_NOT_INIT);
 1045              		.loc 1 145 5 discriminator 3 view .LVU295
 1046 0042 244B     		ldr	r3, .L120+16
 1047 0044 5A69     		ldr	r2, [r3, #20]
 1048              	.LVL130:
 145:../switch_sdk/core/yt/yt_port.c ****     CMM_PARAM_CHK(NULL == YT_DISPATCH(unit), CMM_ERR_NOT_INIT);
 1049              		.loc 1 145 5 is_stmt 0 discriminator 3 view .LVU296
 1050 0046 244B     		ldr	r3, .L120+20
 1051 0048 9968     		ldr	r1, [r3, #8]
 1052              	.LVL131:
 145:../switch_sdk/core/yt/yt_port.c ****     CMM_PARAM_CHK(NULL == YT_DISPATCH(unit), CMM_ERR_NOT_INIT);
 1053              		.loc 1 145 5 discriminator 3 view .LVU297
 1054 004a 2448     		ldr	r0, .L120+24
 1055              	.LVL132:
 145:../switch_sdk/core/yt/yt_port.c ****     CMM_PARAM_CHK(NULL == YT_DISPATCH(unit), CMM_ERR_NOT_INIT);
 1056              		.loc 1 145 5 discriminator 3 view .LVU298
 1057 004c FFF7FEFF 		bl	osal_printf
 1058              	.LVL133:
 1059 0050 F5E7     		b	.L99
 1060              	.LVL134:
 1061              	.L112:
 145:../switch_sdk/core/yt/yt_port.c ****     CMM_PARAM_CHK(NULL == YT_DISPATCH(unit), CMM_ERR_NOT_INIT);
 1062              		.loc 1 145 5 discriminator 3 view .LVU299
 1063              	.LBE20:
 146:../switch_sdk/core/yt/yt_port.c ****     CMM_PARAM_CHK((!(YT_DISPATCH(unit)->is_inited)), CMM_ERR_NOT_INIT);
 1064              		.loc 1 146 5 is_stmt 1 discriminator 1 view .LVU300
 146:../switch_sdk/core/yt/yt_port.c ****     CMM_PARAM_CHK((!(YT_DISPATCH(unit)->is_inited)), CMM_ERR_NOT_INIT);
 1065              		.loc 1 146 5 discriminator 1 view .LVU301
 1066 0052 1F4B     		ldr	r3, .L120+12
 1067 0054 1B78     		ldrb	r3, [r3]	@ zero_extendqisi2
 1068 0056 012B     		cmp	r3, #1
 1069 0058 01D8     		bhi	.L116
 1070              	.LVL135:
 1071              	.L102:
 146:../switch_sdk/core/yt/yt_port.c ****     CMM_PARAM_CHK((!(YT_DISPATCH(unit)->is_inited)), CMM_ERR_NOT_INIT);
 1072              		.loc 1 146 5 discriminator 5 view .LVU302
 146:../switch_sdk/core/yt/yt_port.c ****     CMM_PARAM_CHK((!(YT_DISPATCH(unit)->is_inited)), CMM_ERR_NOT_INIT);
 1073              		.loc 1 146 5 discriminator 5 view .LVU303
 146:../switch_sdk/core/yt/yt_port.c ****     CMM_PARAM_CHK((!(YT_DISPATCH(unit)->is_inited)), CMM_ERR_NOT_INIT);
 1074              		.loc 1 146 5 discriminator 5 view .LVU304
 1075 005a 0420     		movs	r0, #4
 1076 005c EAE7     		b	.L97
 1077              	.LVL136:
 1078              	.L116:
 146:../switch_sdk/core/yt/yt_port.c ****     CMM_PARAM_CHK((!(YT_DISPATCH(unit)->is_inited)), CMM_ERR_NOT_INIT);
 1079              		.loc 1 146 5 discriminator 3 view .LVU305
 1080              	.LBB21:
 146:../switch_sdk/core/yt/yt_port.c ****     CMM_PARAM_CHK((!(YT_DISPATCH(unit)->is_inited)), CMM_ERR_NOT_INIT);
 1081              		.loc 1 146 5 discriminator 3 view .LVU306
 1082 005e 1D4B     		ldr	r3, .L120+16
 1083 0060 1A69     		ldr	r2, [r3, #16]
 1084              	.LVL137:
 146:../switch_sdk/core/yt/yt_port.c ****     CMM_PARAM_CHK((!(YT_DISPATCH(unit)->is_inited)), CMM_ERR_NOT_INIT);
 1085              		.loc 1 146 5 is_stmt 0 discriminator 3 view .LVU307
 1086 0062 1D4B     		ldr	r3, .L120+20
 1087 0064 9968     		ldr	r1, [r3, #8]
 1088              	.LVL138:
 146:../switch_sdk/core/yt/yt_port.c ****     CMM_PARAM_CHK((!(YT_DISPATCH(unit)->is_inited)), CMM_ERR_NOT_INIT);
 1089              		.loc 1 146 5 discriminator 3 view .LVU308
 1090 0066 1D48     		ldr	r0, .L120+24
 1091              	.LVL139:
 146:../switch_sdk/core/yt/yt_port.c ****     CMM_PARAM_CHK((!(YT_DISPATCH(unit)->is_inited)), CMM_ERR_NOT_INIT);
 1092              		.loc 1 146 5 discriminator 3 view .LVU309
 1093 0068 FFF7FEFF 		bl	osal_printf
 1094              	.LVL140:
 1095 006c F5E7     		b	.L102
 1096              	.LVL141:
 1097              	.L113:
 146:../switch_sdk/core/yt/yt_port.c ****     CMM_PARAM_CHK((!(YT_DISPATCH(unit)->is_inited)), CMM_ERR_NOT_INIT);
 1098              		.loc 1 146 5 discriminator 3 view .LVU310
 1099              	.LBE21:
 147:../switch_sdk/core/yt/yt_port.c ****     CMM_PARAM_CHK((!(CMM_PORT_VALID(unit, port))), CMM_ERR_PORT);
 1100              		.loc 1 147 5 is_stmt 1 discriminator 1 view .LVU311
 147:../switch_sdk/core/yt/yt_port.c ****     CMM_PARAM_CHK((!(CMM_PORT_VALID(unit, port))), CMM_ERR_PORT);
 1101              		.loc 1 147 5 discriminator 1 view .LVU312
 1102 006e 184B     		ldr	r3, .L120+12
 1103 0070 1B78     		ldrb	r3, [r3]	@ zero_extendqisi2
 1104 0072 012B     		cmp	r3, #1
 1105 0074 01D8     		bhi	.L117
 1106              	.LVL142:
 1107              	.L104:
 147:../switch_sdk/core/yt/yt_port.c ****     CMM_PARAM_CHK((!(CMM_PORT_VALID(unit, port))), CMM_ERR_PORT);
 1108              		.loc 1 147 5 discriminator 5 view .LVU313
 147:../switch_sdk/core/yt/yt_port.c ****     CMM_PARAM_CHK((!(CMM_PORT_VALID(unit, port))), CMM_ERR_PORT);
 1109              		.loc 1 147 5 discriminator 5 view .LVU314
 147:../switch_sdk/core/yt/yt_port.c ****     CMM_PARAM_CHK((!(CMM_PORT_VALID(unit, port))), CMM_ERR_PORT);
 1110              		.loc 1 147 5 discriminator 5 view .LVU315
 1111 0076 0420     		movs	r0, #4
 1112 0078 DCE7     		b	.L97
 1113              	.LVL143:
 1114              	.L117:
 147:../switch_sdk/core/yt/yt_port.c ****     CMM_PARAM_CHK((!(CMM_PORT_VALID(unit, port))), CMM_ERR_PORT);
 1115              		.loc 1 147 5 discriminator 3 view .LVU316
 1116              	.LBB22:
 147:../switch_sdk/core/yt/yt_port.c ****     CMM_PARAM_CHK((!(CMM_PORT_VALID(unit, port))), CMM_ERR_PORT);
 1117              		.loc 1 147 5 discriminator 3 view .LVU317
 1118 007a 164B     		ldr	r3, .L120+16
 1119 007c 1A69     		ldr	r2, [r3, #16]
 1120              	.LVL144:
 147:../switch_sdk/core/yt/yt_port.c ****     CMM_PARAM_CHK((!(CMM_PORT_VALID(unit, port))), CMM_ERR_PORT);
 1121              		.loc 1 147 5 is_stmt 0 discriminator 3 view .LVU318
 1122 007e 164B     		ldr	r3, .L120+20
 1123 0080 9968     		ldr	r1, [r3, #8]
 1124              	.LVL145:
 147:../switch_sdk/core/yt/yt_port.c ****     CMM_PARAM_CHK((!(CMM_PORT_VALID(unit, port))), CMM_ERR_PORT);
 1125              		.loc 1 147 5 discriminator 3 view .LVU319
 1126 0082 1648     		ldr	r0, .L120+24
 1127 0084 FFF7FEFF 		bl	osal_printf
 1128              	.LVL146:
 1129 0088 F5E7     		b	.L104
 1130              	.LVL147:
 1131              	.L105:
 147:../switch_sdk/core/yt/yt_port.c ****     CMM_PARAM_CHK((!(CMM_PORT_VALID(unit, port))), CMM_ERR_PORT);
 1132              		.loc 1 147 5 discriminator 3 view .LVU320
 1133              	.LBE22:
 148:../switch_sdk/core/yt/yt_port.c ****     CMM_PARAM_CHK((YT_ENABLE < enable || YT_DISABLE > enable), CMM_ERR_INPUT);
 1134              		.loc 1 148 5 is_stmt 1 discriminator 3 view .LVU321
 148:../switch_sdk/core/yt/yt_port.c ****     CMM_PARAM_CHK((YT_ENABLE < enable || YT_DISABLE > enable), CMM_ERR_INPUT);
 1135              		.loc 1 148 5 discriminator 3 view .LVU322
 1136 008a 114B     		ldr	r3, .L120+12
 1137 008c 1B78     		ldrb	r3, [r3]	@ zero_extendqisi2
 1138 008e 012B     		cmp	r3, #1
 1139 0090 01D8     		bhi	.L118
 1140              	.LVL148:
 1141              	.L107:
 148:../switch_sdk/core/yt/yt_port.c ****     CMM_PARAM_CHK((YT_ENABLE < enable || YT_DISABLE > enable), CMM_ERR_INPUT);
 1142              		.loc 1 148 5 discriminator 7 view .LVU323
 148:../switch_sdk/core/yt/yt_port.c ****     CMM_PARAM_CHK((YT_ENABLE < enable || YT_DISABLE > enable), CMM_ERR_INPUT);
 1143              		.loc 1 148 5 discriminator 7 view .LVU324
 148:../switch_sdk/core/yt/yt_port.c ****     CMM_PARAM_CHK((YT_ENABLE < enable || YT_DISABLE > enable), CMM_ERR_INPUT);
 1144              		.loc 1 148 5 discriminator 7 view .LVU325
 1145 0092 0E20     		movs	r0, #14
 1146 0094 CEE7     		b	.L97
 1147              	.LVL149:
 1148              	.L118:
 148:../switch_sdk/core/yt/yt_port.c ****     CMM_PARAM_CHK((YT_ENABLE < enable || YT_DISABLE > enable), CMM_ERR_INPUT);
 1149              		.loc 1 148 5 discriminator 5 view .LVU326
 1150              	.LBB23:
 148:../switch_sdk/core/yt/yt_port.c ****     CMM_PARAM_CHK((YT_ENABLE < enable || YT_DISABLE > enable), CMM_ERR_INPUT);
 1151              		.loc 1 148 5 discriminator 5 view .LVU327
 1152 0096 0F4B     		ldr	r3, .L120+16
 1153 0098 9A6B     		ldr	r2, [r3, #56]
 1154              	.LVL150:
 148:../switch_sdk/core/yt/yt_port.c ****     CMM_PARAM_CHK((YT_ENABLE < enable || YT_DISABLE > enable), CMM_ERR_INPUT);
 1155              		.loc 1 148 5 is_stmt 0 discriminator 5 view .LVU328
 1156 009a 0F4B     		ldr	r3, .L120+20
 1157 009c 9968     		ldr	r1, [r3, #8]
 1158              	.LVL151:
 148:../switch_sdk/core/yt/yt_port.c ****     CMM_PARAM_CHK((YT_ENABLE < enable || YT_DISABLE > enable), CMM_ERR_INPUT);
 1159              		.loc 1 148 5 discriminator 5 view .LVU329
 1160 009e 0F48     		ldr	r0, .L120+24
 1161 00a0 FFF7FEFF 		bl	osal_printf
 1162              	.LVL152:
 1163 00a4 F5E7     		b	.L107
 1164              	.LVL153:
 1165              	.L114:
 148:../switch_sdk/core/yt/yt_port.c ****     CMM_PARAM_CHK((YT_ENABLE < enable || YT_DISABLE > enable), CMM_ERR_INPUT);
 1166              		.loc 1 148 5 discriminator 5 view .LVU330
 1167              	.LBE23:
 149:../switch_sdk/core/yt/yt_port.c **** 
 1168              		.loc 1 149 5 is_stmt 1 discriminator 1 view .LVU331
 149:../switch_sdk/core/yt/yt_port.c **** 
 1169              		.loc 1 149 5 discriminator 1 view .LVU332
 1170 00a6 0A4B     		ldr	r3, .L120+12
 1171 00a8 1B78     		ldrb	r3, [r3]	@ zero_extendqisi2
 1172 00aa 012B     		cmp	r3, #1
 1173 00ac 01D8     		bhi	.L119
 1174              	.LVL154:
 1175              	.L109:
 149:../switch_sdk/core/yt/yt_port.c **** 
 1176              		.loc 1 149 5 discriminator 5 view .LVU333
 149:../switch_sdk/core/yt/yt_port.c **** 
 1177              		.loc 1 149 5 discriminator 5 view .LVU334
 149:../switch_sdk/core/yt/yt_port.c **** 
 1178              		.loc 1 149 5 discriminator 5 view .LVU335
 1179 00ae 0520     		movs	r0, #5
 1180 00b0 C0E7     		b	.L97
 1181              	.LVL155:
 1182              	.L119:
 149:../switch_sdk/core/yt/yt_port.c **** 
 1183              		.loc 1 149 5 discriminator 3 view .LVU336
 1184              	.LBB24:
 149:../switch_sdk/core/yt/yt_port.c **** 
 1185              		.loc 1 149 5 discriminator 3 view .LVU337
 1186 00b2 084B     		ldr	r3, .L120+16
 1187 00b4 5A69     		ldr	r2, [r3, #20]
 1188              	.LVL156:
 149:../switch_sdk/core/yt/yt_port.c **** 
 1189              		.loc 1 149 5 is_stmt 0 discriminator 3 view .LVU338
 1190 00b6 084B     		ldr	r3, .L120+20
 1191 00b8 9968     		ldr	r1, [r3, #8]
 1192              	.LVL157:
 149:../switch_sdk/core/yt/yt_port.c **** 
 1193              		.loc 1 149 5 discriminator 3 view .LVU339
 1194 00ba 0848     		ldr	r0, .L120+24
 1195 00bc FFF7FEFF 		bl	osal_printf
 1196              	.LVL158:
 1197 00c0 F5E7     		b	.L109
 1198              	.L121:
 1199 00c2 00BF     		.align	2
 1200              	.L120:
 1201 00c4 00000000 		.word	gpfal_dispatch
 1202 00c8 00000000 		.word	gcal_inited
 1203 00cc 00000000 		.word	gpSwitchUnit
 1204 00d0 00000000 		.word	yt_debug_level
 1205 00d4 00000000 		.word	_yt_errmsg
 1206 00d8 00000000 		.word	_yt_prompt_msg
 1207 00dc 00000000 		.word	.LC0
 1208              	.LBE24:
 1209              		.cfi_endproc
 1210              	.LFE8:
 1212              		.section	.text.yt_port_backpress_enable_get,"ax",%progbits
 1213              		.align	1
 1214              		.global	yt_port_backpress_enable_get
 1215              		.syntax unified
 1216              		.thumb
 1217              		.thumb_func
 1219              	yt_port_backpress_enable_get:
 1220              	.LVL159:
 1221              	.LFB9:
 153:../switch_sdk/core/yt/yt_port.c **** 
 154:../switch_sdk/core/yt/yt_port.c **** /**
 155:../switch_sdk/core/yt/yt_port.c ****  * @internal      yt_port_backpress_enable_get
 156:../switch_sdk/core/yt/yt_port.c ****  * @endinternal
 157:../switch_sdk/core/yt/yt_port.c ****  *
 158:../switch_sdk/core/yt/yt_port.c ****  * @brief         Description
 159:../switch_sdk/core/yt/yt_port.c ****  * @note          APPLICABLE DEVICES  -Tiger
 160:../switch_sdk/core/yt/yt_port.c ****  * @param[in]     unit                -unit id
 161:../switch_sdk/core/yt/yt_port.c ****  * @param[in]     port                -port num
 162:../switch_sdk/core/yt/yt_port.c ****  * @param[out]    pEnable             -enable or disable
 163:../switch_sdk/core/yt/yt_port.c ****  * @retval        CMM_ERR_OK          -on success
 164:../switch_sdk/core/yt/yt_port.c ****  * @retval        CMM_ERR_FAIL        -on fail
 165:../switch_sdk/core/yt/yt_port.c ****  */
 166:../switch_sdk/core/yt/yt_port.c **** yt_ret_t yt_port_backpress_enable_get(yt_unit_t unit, yt_port_t port, yt_enable_t *pEnable)
 167:../switch_sdk/core/yt/yt_port.c **** {
 1222              		.loc 1 167 1 is_stmt 1 view -0
 1223              		.cfi_startproc
 1224              		@ args = 0, pretend = 0, frame = 0
 1225              		@ frame_needed = 0, uses_anonymous_args = 0
 1226              		.loc 1 167 1 is_stmt 0 view .LVU341
 1227 0000 08B5     		push	{r3, lr}
 1228              		.cfi_def_cfa_offset 8
 1229              		.cfi_offset 3, -8
 1230              		.cfi_offset 14, -4
 168:../switch_sdk/core/yt/yt_port.c ****     CMM_PARAM_CHK((YT_UNIT_NUM <= unit), CMM_ERR_INPUT);
 1231              		.loc 1 168 5 is_stmt 1 view .LVU342
 1232              		.loc 1 168 5 view .LVU343
 1233 0002 C0B9     		cbnz	r0, .L136
 1234 0004 8446     		mov	ip, r0
 1235              		.loc 1 168 5 discriminator 2 view .LVU344
 169:../switch_sdk/core/yt/yt_port.c ****     CMM_PARAM_CHK(NULL == YT_DISPATCH(unit), CMM_ERR_NOT_INIT);
 1236              		.loc 1 169 5 discriminator 2 view .LVU345
 1237              		.loc 1 169 5 discriminator 2 view .LVU346
 1238 0006 2F4B     		ldr	r3, .L145
 1239 0008 53F82030 		ldr	r3, [r3, r0, lsl #2]
 1240 000c 0BB3     		cbz	r3, .L137
 1241              		.loc 1 169 5 discriminator 2 view .LVU347
 170:../switch_sdk/core/yt/yt_port.c ****     CMM_PARAM_CHK((!(YT_DISPATCH(unit)->is_inited)), CMM_ERR_NOT_INIT);
 1242              		.loc 1 170 5 discriminator 2 view .LVU348
 1243              		.loc 1 170 5 discriminator 2 view .LVU349
 1244 000e 1878     		ldrb	r0, [r3]	@ zero_extendqisi2
 1245              	.LVL160:
 1246              		.loc 1 170 5 is_stmt 0 discriminator 2 view .LVU350
 1247 0010 0028     		cmp	r0, #0
 1248 0012 2CD0     		beq	.L138
 1249              		.loc 1 170 5 is_stmt 1 discriminator 2 view .LVU351
 171:../switch_sdk/core/yt/yt_port.c ****     CMM_PARAM_CHK((!(CMM_PORT_VALID(unit, port))), CMM_ERR_PORT);
 1250              		.loc 1 171 5 discriminator 2 view .LVU352
 1251              		.loc 1 171 5 discriminator 2 view .LVU353
 1252 0014 2C48     		ldr	r0, .L145+4
 1253 0016 0078     		ldrb	r0, [r0]	@ zero_extendqisi2
 1254 0018 0028     		cmp	r0, #0
 1255 001a 36D0     		beq	.L130
 1256 001c 2B48     		ldr	r0, .L145+8
 1257 001e 50F82C00 		ldr	r0, [r0, ip, lsl #2]
 1258 0022 007D     		ldrb	r0, [r0, #20]	@ zero_extendqisi2
 1259 0024 8842     		cmp	r0, r1
 1260 0026 30D9     		bls	.L130
 1261              		.loc 1 171 5 discriminator 4 view .LVU354
 172:../switch_sdk/core/yt/yt_port.c ****     CMM_PARAM_CHK((NULL == pEnable), CMM_ERR_NULL_POINT);
 1262              		.loc 1 172 5 discriminator 4 view .LVU355
 1263              		.loc 1 172 5 discriminator 4 view .LVU356
 1264 0028 002A     		cmp	r2, #0
 1265 002a 3CD0     		beq	.L139
 1266              		.loc 1 172 5 discriminator 2 view .LVU357
 173:../switch_sdk/core/yt/yt_port.c **** 
 174:../switch_sdk/core/yt/yt_port.c ****     return YT_DISPATCH(unit)->port_backpress_enable_get(unit, port, pEnable);
 1267              		.loc 1 174 5 discriminator 2 view .LVU358
 1268              		.loc 1 174 29 is_stmt 0 discriminator 2 view .LVU359
 1269 002c D3F86835 		ldr	r3, [r3, #1384]
 1270              		.loc 1 174 12 discriminator 2 view .LVU360
 1271 0030 6046     		mov	r0, ip
 1272 0032 9847     		blx	r3
 1273              	.LVL161:
 1274              	.L122:
 175:../switch_sdk/core/yt/yt_port.c **** }
 1275              		.loc 1 175 1 view .LVU361
 1276 0034 08BD     		pop	{r3, pc}
 1277              	.LVL162:
 1278              	.L136:
 168:../switch_sdk/core/yt/yt_port.c ****     CMM_PARAM_CHK(NULL == YT_DISPATCH(unit), CMM_ERR_NOT_INIT);
 1279              		.loc 1 168 5 is_stmt 1 discriminator 1 view .LVU362
 168:../switch_sdk/core/yt/yt_port.c ****     CMM_PARAM_CHK(NULL == YT_DISPATCH(unit), CMM_ERR_NOT_INIT);
 1280              		.loc 1 168 5 discriminator 1 view .LVU363
 1281 0036 264B     		ldr	r3, .L145+12
 1282 0038 1B78     		ldrb	r3, [r3]	@ zero_extendqisi2
 1283 003a 012B     		cmp	r3, #1
 1284 003c 01D8     		bhi	.L140
 1285              	.LVL163:
 1286              	.L124:
 168:../switch_sdk/core/yt/yt_port.c ****     CMM_PARAM_CHK(NULL == YT_DISPATCH(unit), CMM_ERR_NOT_INIT);
 1287              		.loc 1 168 5 discriminator 5 view .LVU364
 168:../switch_sdk/core/yt/yt_port.c ****     CMM_PARAM_CHK(NULL == YT_DISPATCH(unit), CMM_ERR_NOT_INIT);
 1288              		.loc 1 168 5 discriminator 5 view .LVU365
 168:../switch_sdk/core/yt/yt_port.c ****     CMM_PARAM_CHK(NULL == YT_DISPATCH(unit), CMM_ERR_NOT_INIT);
 1289              		.loc 1 168 5 discriminator 5 view .LVU366
 1290 003e 0520     		movs	r0, #5
 1291 0040 F8E7     		b	.L122
 1292              	.LVL164:
 1293              	.L140:
 168:../switch_sdk/core/yt/yt_port.c ****     CMM_PARAM_CHK(NULL == YT_DISPATCH(unit), CMM_ERR_NOT_INIT);
 1294              		.loc 1 168 5 discriminator 3 view .LVU367
 1295              	.LBB25:
 168:../switch_sdk/core/yt/yt_port.c ****     CMM_PARAM_CHK(NULL == YT_DISPATCH(unit), CMM_ERR_NOT_INIT);
 1296              		.loc 1 168 5 discriminator 3 view .LVU368
 1297 0042 244B     		ldr	r3, .L145+16
 1298 0044 5A69     		ldr	r2, [r3, #20]
 1299              	.LVL165:
 168:../switch_sdk/core/yt/yt_port.c ****     CMM_PARAM_CHK(NULL == YT_DISPATCH(unit), CMM_ERR_NOT_INIT);
 1300              		.loc 1 168 5 is_stmt 0 discriminator 3 view .LVU369
 1301 0046 244B     		ldr	r3, .L145+20
 1302 0048 9968     		ldr	r1, [r3, #8]
 1303              	.LVL166:
 168:../switch_sdk/core/yt/yt_port.c ****     CMM_PARAM_CHK(NULL == YT_DISPATCH(unit), CMM_ERR_NOT_INIT);
 1304              		.loc 1 168 5 discriminator 3 view .LVU370
 1305 004a 2448     		ldr	r0, .L145+24
 1306              	.LVL167:
 168:../switch_sdk/core/yt/yt_port.c ****     CMM_PARAM_CHK(NULL == YT_DISPATCH(unit), CMM_ERR_NOT_INIT);
 1307              		.loc 1 168 5 discriminator 3 view .LVU371
 1308 004c FFF7FEFF 		bl	osal_printf
 1309              	.LVL168:
 1310 0050 F5E7     		b	.L124
 1311              	.LVL169:
 1312              	.L137:
 168:../switch_sdk/core/yt/yt_port.c ****     CMM_PARAM_CHK(NULL == YT_DISPATCH(unit), CMM_ERR_NOT_INIT);
 1313              		.loc 1 168 5 discriminator 3 view .LVU372
 1314              	.LBE25:
 169:../switch_sdk/core/yt/yt_port.c ****     CMM_PARAM_CHK((!(YT_DISPATCH(unit)->is_inited)), CMM_ERR_NOT_INIT);
 1315              		.loc 1 169 5 is_stmt 1 discriminator 1 view .LVU373
 169:../switch_sdk/core/yt/yt_port.c ****     CMM_PARAM_CHK((!(YT_DISPATCH(unit)->is_inited)), CMM_ERR_NOT_INIT);
 1316              		.loc 1 169 5 discriminator 1 view .LVU374
 1317 0052 1F4B     		ldr	r3, .L145+12
 1318 0054 1B78     		ldrb	r3, [r3]	@ zero_extendqisi2
 1319 0056 012B     		cmp	r3, #1
 1320 0058 01D8     		bhi	.L141
 1321              	.LVL170:
 1322              	.L127:
 169:../switch_sdk/core/yt/yt_port.c ****     CMM_PARAM_CHK((!(YT_DISPATCH(unit)->is_inited)), CMM_ERR_NOT_INIT);
 1323              		.loc 1 169 5 discriminator 5 view .LVU375
 169:../switch_sdk/core/yt/yt_port.c ****     CMM_PARAM_CHK((!(YT_DISPATCH(unit)->is_inited)), CMM_ERR_NOT_INIT);
 1324              		.loc 1 169 5 discriminator 5 view .LVU376
 169:../switch_sdk/core/yt/yt_port.c ****     CMM_PARAM_CHK((!(YT_DISPATCH(unit)->is_inited)), CMM_ERR_NOT_INIT);
 1325              		.loc 1 169 5 discriminator 5 view .LVU377
 1326 005a 0420     		movs	r0, #4
 1327 005c EAE7     		b	.L122
 1328              	.LVL171:
 1329              	.L141:
 169:../switch_sdk/core/yt/yt_port.c ****     CMM_PARAM_CHK((!(YT_DISPATCH(unit)->is_inited)), CMM_ERR_NOT_INIT);
 1330              		.loc 1 169 5 discriminator 3 view .LVU378
 1331              	.LBB26:
 169:../switch_sdk/core/yt/yt_port.c ****     CMM_PARAM_CHK((!(YT_DISPATCH(unit)->is_inited)), CMM_ERR_NOT_INIT);
 1332              		.loc 1 169 5 discriminator 3 view .LVU379
 1333 005e 1D4B     		ldr	r3, .L145+16
 1334 0060 1A69     		ldr	r2, [r3, #16]
 1335              	.LVL172:
 169:../switch_sdk/core/yt/yt_port.c ****     CMM_PARAM_CHK((!(YT_DISPATCH(unit)->is_inited)), CMM_ERR_NOT_INIT);
 1336              		.loc 1 169 5 is_stmt 0 discriminator 3 view .LVU380
 1337 0062 1D4B     		ldr	r3, .L145+20
 1338 0064 9968     		ldr	r1, [r3, #8]
 1339              	.LVL173:
 169:../switch_sdk/core/yt/yt_port.c ****     CMM_PARAM_CHK((!(YT_DISPATCH(unit)->is_inited)), CMM_ERR_NOT_INIT);
 1340              		.loc 1 169 5 discriminator 3 view .LVU381
 1341 0066 1D48     		ldr	r0, .L145+24
 1342              	.LVL174:
 169:../switch_sdk/core/yt/yt_port.c ****     CMM_PARAM_CHK((!(YT_DISPATCH(unit)->is_inited)), CMM_ERR_NOT_INIT);
 1343              		.loc 1 169 5 discriminator 3 view .LVU382
 1344 0068 FFF7FEFF 		bl	osal_printf
 1345              	.LVL175:
 1346 006c F5E7     		b	.L127
 1347              	.LVL176:
 1348              	.L138:
 169:../switch_sdk/core/yt/yt_port.c ****     CMM_PARAM_CHK((!(YT_DISPATCH(unit)->is_inited)), CMM_ERR_NOT_INIT);
 1349              		.loc 1 169 5 discriminator 3 view .LVU383
 1350              	.LBE26:
 170:../switch_sdk/core/yt/yt_port.c ****     CMM_PARAM_CHK((!(CMM_PORT_VALID(unit, port))), CMM_ERR_PORT);
 1351              		.loc 1 170 5 is_stmt 1 discriminator 1 view .LVU384
 170:../switch_sdk/core/yt/yt_port.c ****     CMM_PARAM_CHK((!(CMM_PORT_VALID(unit, port))), CMM_ERR_PORT);
 1352              		.loc 1 170 5 discriminator 1 view .LVU385
 1353 006e 184B     		ldr	r3, .L145+12
 1354 0070 1B78     		ldrb	r3, [r3]	@ zero_extendqisi2
 1355 0072 012B     		cmp	r3, #1
 1356 0074 01D8     		bhi	.L142
 1357              	.LVL177:
 1358              	.L129:
 170:../switch_sdk/core/yt/yt_port.c ****     CMM_PARAM_CHK((!(CMM_PORT_VALID(unit, port))), CMM_ERR_PORT);
 1359              		.loc 1 170 5 discriminator 5 view .LVU386
 170:../switch_sdk/core/yt/yt_port.c ****     CMM_PARAM_CHK((!(CMM_PORT_VALID(unit, port))), CMM_ERR_PORT);
 1360              		.loc 1 170 5 discriminator 5 view .LVU387
 170:../switch_sdk/core/yt/yt_port.c ****     CMM_PARAM_CHK((!(CMM_PORT_VALID(unit, port))), CMM_ERR_PORT);
 1361              		.loc 1 170 5 discriminator 5 view .LVU388
 1362 0076 0420     		movs	r0, #4
 1363 0078 DCE7     		b	.L122
 1364              	.LVL178:
 1365              	.L142:
 170:../switch_sdk/core/yt/yt_port.c ****     CMM_PARAM_CHK((!(CMM_PORT_VALID(unit, port))), CMM_ERR_PORT);
 1366              		.loc 1 170 5 discriminator 3 view .LVU389
 1367              	.LBB27:
 170:../switch_sdk/core/yt/yt_port.c ****     CMM_PARAM_CHK((!(CMM_PORT_VALID(unit, port))), CMM_ERR_PORT);
 1368              		.loc 1 170 5 discriminator 3 view .LVU390
 1369 007a 164B     		ldr	r3, .L145+16
 1370 007c 1A69     		ldr	r2, [r3, #16]
 1371              	.LVL179:
 170:../switch_sdk/core/yt/yt_port.c ****     CMM_PARAM_CHK((!(CMM_PORT_VALID(unit, port))), CMM_ERR_PORT);
 1372              		.loc 1 170 5 is_stmt 0 discriminator 3 view .LVU391
 1373 007e 164B     		ldr	r3, .L145+20
 1374 0080 9968     		ldr	r1, [r3, #8]
 1375              	.LVL180:
 170:../switch_sdk/core/yt/yt_port.c ****     CMM_PARAM_CHK((!(CMM_PORT_VALID(unit, port))), CMM_ERR_PORT);
 1376              		.loc 1 170 5 discriminator 3 view .LVU392
 1377 0082 1648     		ldr	r0, .L145+24
 1378 0084 FFF7FEFF 		bl	osal_printf
 1379              	.LVL181:
 1380 0088 F5E7     		b	.L129
 1381              	.LVL182:
 1382              	.L130:
 170:../switch_sdk/core/yt/yt_port.c ****     CMM_PARAM_CHK((!(CMM_PORT_VALID(unit, port))), CMM_ERR_PORT);
 1383              		.loc 1 170 5 discriminator 3 view .LVU393
 1384              	.LBE27:
 171:../switch_sdk/core/yt/yt_port.c ****     CMM_PARAM_CHK((NULL == pEnable), CMM_ERR_NULL_POINT);
 1385              		.loc 1 171 5 is_stmt 1 discriminator 3 view .LVU394
 171:../switch_sdk/core/yt/yt_port.c ****     CMM_PARAM_CHK((NULL == pEnable), CMM_ERR_NULL_POINT);
 1386              		.loc 1 171 5 discriminator 3 view .LVU395
 1387 008a 114B     		ldr	r3, .L145+12
 1388 008c 1B78     		ldrb	r3, [r3]	@ zero_extendqisi2
 1389 008e 012B     		cmp	r3, #1
 1390 0090 01D8     		bhi	.L143
 1391              	.LVL183:
 1392              	.L132:
 171:../switch_sdk/core/yt/yt_port.c ****     CMM_PARAM_CHK((NULL == pEnable), CMM_ERR_NULL_POINT);
 1393              		.loc 1 171 5 discriminator 7 view .LVU396
 171:../switch_sdk/core/yt/yt_port.c ****     CMM_PARAM_CHK((NULL == pEnable), CMM_ERR_NULL_POINT);
 1394              		.loc 1 171 5 discriminator 7 view .LVU397
 171:../switch_sdk/core/yt/yt_port.c ****     CMM_PARAM_CHK((NULL == pEnable), CMM_ERR_NULL_POINT);
 1395              		.loc 1 171 5 discriminator 7 view .LVU398
 1396 0092 0E20     		movs	r0, #14
 1397 0094 CEE7     		b	.L122
 1398              	.LVL184:
 1399              	.L143:
 171:../switch_sdk/core/yt/yt_port.c ****     CMM_PARAM_CHK((NULL == pEnable), CMM_ERR_NULL_POINT);
 1400              		.loc 1 171 5 discriminator 5 view .LVU399
 1401              	.LBB28:
 171:../switch_sdk/core/yt/yt_port.c ****     CMM_PARAM_CHK((NULL == pEnable), CMM_ERR_NULL_POINT);
 1402              		.loc 1 171 5 discriminator 5 view .LVU400
 1403 0096 0F4B     		ldr	r3, .L145+16
 1404 0098 9A6B     		ldr	r2, [r3, #56]
 1405              	.LVL185:
 171:../switch_sdk/core/yt/yt_port.c ****     CMM_PARAM_CHK((NULL == pEnable), CMM_ERR_NULL_POINT);
 1406              		.loc 1 171 5 is_stmt 0 discriminator 5 view .LVU401
 1407 009a 0F4B     		ldr	r3, .L145+20
 1408 009c 9968     		ldr	r1, [r3, #8]
 1409              	.LVL186:
 171:../switch_sdk/core/yt/yt_port.c ****     CMM_PARAM_CHK((NULL == pEnable), CMM_ERR_NULL_POINT);
 1410              		.loc 1 171 5 discriminator 5 view .LVU402
 1411 009e 0F48     		ldr	r0, .L145+24
 1412 00a0 FFF7FEFF 		bl	osal_printf
 1413              	.LVL187:
 1414 00a4 F5E7     		b	.L132
 1415              	.LVL188:
 1416              	.L139:
 171:../switch_sdk/core/yt/yt_port.c ****     CMM_PARAM_CHK((NULL == pEnable), CMM_ERR_NULL_POINT);
 1417              		.loc 1 171 5 discriminator 5 view .LVU403
 1418              	.LBE28:
 172:../switch_sdk/core/yt/yt_port.c **** 
 1419              		.loc 1 172 5 is_stmt 1 discriminator 1 view .LVU404
 172:../switch_sdk/core/yt/yt_port.c **** 
 1420              		.loc 1 172 5 discriminator 1 view .LVU405
 1421 00a6 0A4B     		ldr	r3, .L145+12
 1422 00a8 1B78     		ldrb	r3, [r3]	@ zero_extendqisi2
 1423 00aa 012B     		cmp	r3, #1
 1424 00ac 01D8     		bhi	.L144
 1425              	.LVL189:
 1426              	.L134:
 172:../switch_sdk/core/yt/yt_port.c **** 
 1427              		.loc 1 172 5 discriminator 5 view .LVU406
 172:../switch_sdk/core/yt/yt_port.c **** 
 1428              		.loc 1 172 5 discriminator 5 view .LVU407
 172:../switch_sdk/core/yt/yt_port.c **** 
 1429              		.loc 1 172 5 discriminator 5 view .LVU408
 1430 00ae 0220     		movs	r0, #2
 1431 00b0 C0E7     		b	.L122
 1432              	.LVL190:
 1433              	.L144:
 172:../switch_sdk/core/yt/yt_port.c **** 
 1434              		.loc 1 172 5 discriminator 3 view .LVU409
 1435              	.LBB29:
 172:../switch_sdk/core/yt/yt_port.c **** 
 1436              		.loc 1 172 5 discriminator 3 view .LVU410
 1437 00b2 084B     		ldr	r3, .L145+16
 1438 00b4 9A68     		ldr	r2, [r3, #8]
 1439              	.LVL191:
 172:../switch_sdk/core/yt/yt_port.c **** 
 1440              		.loc 1 172 5 is_stmt 0 discriminator 3 view .LVU411
 1441 00b6 084B     		ldr	r3, .L145+20
 1442 00b8 9968     		ldr	r1, [r3, #8]
 1443              	.LVL192:
 172:../switch_sdk/core/yt/yt_port.c **** 
 1444              		.loc 1 172 5 discriminator 3 view .LVU412
 1445 00ba 0848     		ldr	r0, .L145+24
 1446 00bc FFF7FEFF 		bl	osal_printf
 1447              	.LVL193:
 1448 00c0 F5E7     		b	.L134
 1449              	.L146:
 1450 00c2 00BF     		.align	2
 1451              	.L145:
 1452 00c4 00000000 		.word	gpfal_dispatch
 1453 00c8 00000000 		.word	gcal_inited
 1454 00cc 00000000 		.word	gpSwitchUnit
 1455 00d0 00000000 		.word	yt_debug_level
 1456 00d4 00000000 		.word	_yt_errmsg
 1457 00d8 00000000 		.word	_yt_prompt_msg
 1458 00dc 00000000 		.word	.LC0
 1459              	.LBE29:
 1460              		.cfi_endproc
 1461              	.LFE9:
 1463              		.section	.text.yt_port_cascade_set,"ax",%progbits
 1464              		.align	1
 1465              		.global	yt_port_cascade_set
 1466              		.syntax unified
 1467              		.thumb
 1468              		.thumb_func
 1470              	yt_port_cascade_set:
 1471              	.LVL194:
 1472              	.LFB10:
 176:../switch_sdk/core/yt/yt_port.c **** 
 177:../switch_sdk/core/yt/yt_port.c **** /**
 178:../switch_sdk/core/yt/yt_port.c ****  * @internal      yt_port_cascade_set
 179:../switch_sdk/core/yt/yt_port.c ****  * @endinternal
 180:../switch_sdk/core/yt/yt_port.c ****  *
 181:../switch_sdk/core/yt/yt_port.c ****  * @brief         Description
 182:../switch_sdk/core/yt/yt_port.c ****  * @note          APPLICABLE DEVICES  -Tiger
 183:../switch_sdk/core/yt/yt_port.c ****  * @param[in]     unit                -unit id
 184:../switch_sdk/core/yt/yt_port.c ****  * @param[in]     cascade_info        -cascade enable status and ports configure information
 185:../switch_sdk/core/yt/yt_port.c ****  * @retval        CMM_ERR_OK          -on success
 186:../switch_sdk/core/yt/yt_port.c ****  * @retval        CMM_ERR_FAIL        -on fail
 187:../switch_sdk/core/yt/yt_port.c ****  */
 188:../switch_sdk/core/yt/yt_port.c **** yt_ret_t yt_port_cascade_set(yt_unit_t unit, yt_cascade_info_t cascade_info)
 189:../switch_sdk/core/yt/yt_port.c **** {
 1473              		.loc 1 189 1 is_stmt 1 view -0
 1474              		.cfi_startproc
 1475              		@ args = 24, pretend = 16, frame = 0
 1476              		@ frame_needed = 0, uses_anonymous_args = 0
 1477              		.loc 1 189 1 is_stmt 0 view .LVU414
 1478 0000 84B0     		sub	sp, sp, #16
 1479              		.cfi_def_cfa_offset 16
 1480 0002 10B5     		push	{r4, lr}
 1481              		.cfi_def_cfa_offset 24
 1482              		.cfi_offset 4, -24
 1483              		.cfi_offset 14, -20
 1484 0004 82B0     		sub	sp, sp, #8
 1485              		.cfi_def_cfa_offset 32
 1486 0006 0DF1140C 		add	ip, sp, #20
 1487 000a 8CE80E00 		stm	ip, {r1, r2, r3}
 190:../switch_sdk/core/yt/yt_port.c ****     uint32_t i;
 1488              		.loc 1 190 5 is_stmt 1 view .LVU415
 191:../switch_sdk/core/yt/yt_port.c **** 
 192:../switch_sdk/core/yt/yt_port.c ****     CMM_PARAM_CHK((YT_UNIT_NUM <= unit), CMM_ERR_INPUT);
 1489              		.loc 1 192 5 view .LVU416
 1490              		.loc 1 192 5 view .LVU417
 1491 000e 60B9     		cbnz	r0, .L163
 1492 0010 8446     		mov	ip, r0
 1493              		.loc 1 192 5 discriminator 2 view .LVU418
 193:../switch_sdk/core/yt/yt_port.c ****     CMM_PARAM_CHK(NULL == YT_DISPATCH(unit), CMM_ERR_NOT_INIT);
 1494              		.loc 1 193 5 discriminator 2 view .LVU419
 1495              		.loc 1 193 5 discriminator 2 view .LVU420
 1496 0012 3C4B     		ldr	r3, .L173
 1497 0014 53F82020 		ldr	r2, [r3, r0, lsl #2]
 1498 0018 AAB1     		cbz	r2, .L164
 1499              		.loc 1 193 5 discriminator 2 view .LVU421
 194:../switch_sdk/core/yt/yt_port.c ****     CMM_PARAM_CHK((!(YT_DISPATCH(unit)->is_inited)), CMM_ERR_NOT_INIT);
 1500              		.loc 1 194 5 discriminator 2 view .LVU422
 1501              		.loc 1 194 5 discriminator 2 view .LVU423
 1502 001a 1378     		ldrb	r3, [r2]	@ zero_extendqisi2
 1503 001c 0BB3     		cbz	r3, .L165
 1504              		.loc 1 194 5 discriminator 2 view .LVU424
 195:../switch_sdk/core/yt/yt_port.c ****     CMM_PARAM_CHK((YT_ENABLE < cascade_info.en || YT_DISABLE > cascade_info.en), CMM_ERR_INPUT);
 1505              		.loc 1 195 5 discriminator 2 view .LVU425
 1506              		.loc 1 195 5 discriminator 2 view .LVU426
 1507 001e 9DF81430 		ldrb	r3, [sp, #20]	@ zero_extendqisi2
 1508 0022 012B     		cmp	r3, #1
 1509 0024 2BD8     		bhi	.L166
 196:../switch_sdk/core/yt/yt_port.c ****     for (i = 0; i < YT_MAX_CASCADE_PORT_NUM; i++)
 1510              		.loc 1 196 12 is_stmt 0 view .LVU427
 1511 0026 0023     		movs	r3, #0
 1512 0028 40E0     		b	.L155
 1513              	.L163:
 192:../switch_sdk/core/yt/yt_port.c ****     CMM_PARAM_CHK(NULL == YT_DISPATCH(unit), CMM_ERR_NOT_INIT);
 1514              		.loc 1 192 5 is_stmt 1 discriminator 1 view .LVU428
 192:../switch_sdk/core/yt/yt_port.c ****     CMM_PARAM_CHK(NULL == YT_DISPATCH(unit), CMM_ERR_NOT_INIT);
 1515              		.loc 1 192 5 discriminator 1 view .LVU429
 1516 002a 374B     		ldr	r3, .L173+4
 1517 002c 1B78     		ldrb	r3, [r3]	@ zero_extendqisi2
 1518 002e 012B     		cmp	r3, #1
 1519 0030 01D8     		bhi	.L167
 1520              	.LVL195:
 1521              	.L149:
 192:../switch_sdk/core/yt/yt_port.c ****     CMM_PARAM_CHK(NULL == YT_DISPATCH(unit), CMM_ERR_NOT_INIT);
 1522              		.loc 1 192 5 discriminator 5 view .LVU430
 192:../switch_sdk/core/yt/yt_port.c ****     CMM_PARAM_CHK(NULL == YT_DISPATCH(unit), CMM_ERR_NOT_INIT);
 1523              		.loc 1 192 5 discriminator 5 view .LVU431
 192:../switch_sdk/core/yt/yt_port.c ****     CMM_PARAM_CHK(NULL == YT_DISPATCH(unit), CMM_ERR_NOT_INIT);
 1524              		.loc 1 192 5 discriminator 5 view .LVU432
 1525 0032 0520     		movs	r0, #5
 1526 0034 60E0     		b	.L147
 1527              	.LVL196:
 1528              	.L167:
 192:../switch_sdk/core/yt/yt_port.c ****     CMM_PARAM_CHK(NULL == YT_DISPATCH(unit), CMM_ERR_NOT_INIT);
 1529              		.loc 1 192 5 discriminator 3 view .LVU433
 1530              	.LBB30:
 192:../switch_sdk/core/yt/yt_port.c ****     CMM_PARAM_CHK(NULL == YT_DISPATCH(unit), CMM_ERR_NOT_INIT);
 1531              		.loc 1 192 5 discriminator 3 view .LVU434
 1532 0036 354B     		ldr	r3, .L173+8
 1533 0038 5A69     		ldr	r2, [r3, #20]
 1534 003a 354B     		ldr	r3, .L173+12
 1535 003c 9968     		ldr	r1, [r3, #8]
 1536 003e 3548     		ldr	r0, .L173+16
 1537              	.LVL197:
 192:../switch_sdk/core/yt/yt_port.c ****     CMM_PARAM_CHK(NULL == YT_DISPATCH(unit), CMM_ERR_NOT_INIT);
 1538              		.loc 1 192 5 is_stmt 0 discriminator 3 view .LVU435
 1539 0040 FFF7FEFF 		bl	osal_printf
 1540              	.LVL198:
 1541 0044 F5E7     		b	.L149
 1542              	.LVL199:
 1543              	.L164:
 192:../switch_sdk/core/yt/yt_port.c ****     CMM_PARAM_CHK(NULL == YT_DISPATCH(unit), CMM_ERR_NOT_INIT);
 1544              		.loc 1 192 5 discriminator 3 view .LVU436
 1545              	.LBE30:
 193:../switch_sdk/core/yt/yt_port.c ****     CMM_PARAM_CHK((!(YT_DISPATCH(unit)->is_inited)), CMM_ERR_NOT_INIT);
 1546              		.loc 1 193 5 is_stmt 1 discriminator 1 view .LVU437
 193:../switch_sdk/core/yt/yt_port.c ****     CMM_PARAM_CHK((!(YT_DISPATCH(unit)->is_inited)), CMM_ERR_NOT_INIT);
 1547              		.loc 1 193 5 discriminator 1 view .LVU438
 1548 0046 304B     		ldr	r3, .L173+4
 1549 0048 1B78     		ldrb	r3, [r3]	@ zero_extendqisi2
 1550 004a 012B     		cmp	r3, #1
 1551 004c 01D8     		bhi	.L168
 1552              	.LVL200:
 1553              	.L152:
 193:../switch_sdk/core/yt/yt_port.c ****     CMM_PARAM_CHK((!(YT_DISPATCH(unit)->is_inited)), CMM_ERR_NOT_INIT);
 1554              		.loc 1 193 5 discriminator 5 view .LVU439
 193:../switch_sdk/core/yt/yt_port.c ****     CMM_PARAM_CHK((!(YT_DISPATCH(unit)->is_inited)), CMM_ERR_NOT_INIT);
 1555              		.loc 1 193 5 discriminator 5 view .LVU440
 193:../switch_sdk/core/yt/yt_port.c ****     CMM_PARAM_CHK((!(YT_DISPATCH(unit)->is_inited)), CMM_ERR_NOT_INIT);
 1556              		.loc 1 193 5 discriminator 5 view .LVU441
 1557 004e 0420     		movs	r0, #4
 1558 0050 52E0     		b	.L147
 1559              	.LVL201:
 1560              	.L168:
 193:../switch_sdk/core/yt/yt_port.c ****     CMM_PARAM_CHK((!(YT_DISPATCH(unit)->is_inited)), CMM_ERR_NOT_INIT);
 1561              		.loc 1 193 5 discriminator 3 view .LVU442
 1562              	.LBB31:
 193:../switch_sdk/core/yt/yt_port.c ****     CMM_PARAM_CHK((!(YT_DISPATCH(unit)->is_inited)), CMM_ERR_NOT_INIT);
 1563              		.loc 1 193 5 discriminator 3 view .LVU443
 1564 0052 2E4B     		ldr	r3, .L173+8
 1565 0054 1A69     		ldr	r2, [r3, #16]
 1566 0056 2E4B     		ldr	r3, .L173+12
 1567 0058 9968     		ldr	r1, [r3, #8]
 1568 005a 2E48     		ldr	r0, .L173+16
 1569              	.LVL202:
 193:../switch_sdk/core/yt/yt_port.c ****     CMM_PARAM_CHK((!(YT_DISPATCH(unit)->is_inited)), CMM_ERR_NOT_INIT);
 1570              		.loc 1 193 5 is_stmt 0 discriminator 3 view .LVU444
 1571 005c FFF7FEFF 		bl	osal_printf
 1572              	.LVL203:
 1573 0060 F5E7     		b	.L152
 1574              	.LVL204:
 1575              	.L165:
 193:../switch_sdk/core/yt/yt_port.c ****     CMM_PARAM_CHK((!(YT_DISPATCH(unit)->is_inited)), CMM_ERR_NOT_INIT);
 1576              		.loc 1 193 5 discriminator 3 view .LVU445
 1577              	.LBE31:
 194:../switch_sdk/core/yt/yt_port.c ****     CMM_PARAM_CHK((YT_ENABLE < cascade_info.en || YT_DISABLE > cascade_info.en), CMM_ERR_INPUT);
 1578              		.loc 1 194 5 is_stmt 1 discriminator 1 view .LVU446
 194:../switch_sdk/core/yt/yt_port.c ****     CMM_PARAM_CHK((YT_ENABLE < cascade_info.en || YT_DISABLE > cascade_info.en), CMM_ERR_INPUT);
 1579              		.loc 1 194 5 discriminator 1 view .LVU447
 1580 0062 294B     		ldr	r3, .L173+4
 1581 0064 1B78     		ldrb	r3, [r3]	@ zero_extendqisi2
 1582 0066 012B     		cmp	r3, #1
 1583 0068 01D8     		bhi	.L169
 1584              	.LVL205:
 1585              	.L154:
 194:../switch_sdk/core/yt/yt_port.c ****     CMM_PARAM_CHK((YT_ENABLE < cascade_info.en || YT_DISABLE > cascade_info.en), CMM_ERR_INPUT);
 1586              		.loc 1 194 5 discriminator 5 view .LVU448
 194:../switch_sdk/core/yt/yt_port.c ****     CMM_PARAM_CHK((YT_ENABLE < cascade_info.en || YT_DISABLE > cascade_info.en), CMM_ERR_INPUT);
 1587              		.loc 1 194 5 discriminator 5 view .LVU449
 194:../switch_sdk/core/yt/yt_port.c ****     CMM_PARAM_CHK((YT_ENABLE < cascade_info.en || YT_DISABLE > cascade_info.en), CMM_ERR_INPUT);
 1588              		.loc 1 194 5 discriminator 5 view .LVU450
 1589 006a 0420     		movs	r0, #4
 1590 006c 44E0     		b	.L147
 1591              	.LVL206:
 1592              	.L169:
 194:../switch_sdk/core/yt/yt_port.c ****     CMM_PARAM_CHK((YT_ENABLE < cascade_info.en || YT_DISABLE > cascade_info.en), CMM_ERR_INPUT);
 1593              		.loc 1 194 5 discriminator 3 view .LVU451
 1594              	.LBB32:
 194:../switch_sdk/core/yt/yt_port.c ****     CMM_PARAM_CHK((YT_ENABLE < cascade_info.en || YT_DISABLE > cascade_info.en), CMM_ERR_INPUT);
 1595              		.loc 1 194 5 discriminator 3 view .LVU452
 1596 006e 274B     		ldr	r3, .L173+8
 1597 0070 1A69     		ldr	r2, [r3, #16]
 1598 0072 274B     		ldr	r3, .L173+12
 1599 0074 9968     		ldr	r1, [r3, #8]
 1600 0076 2748     		ldr	r0, .L173+16
 1601              	.LVL207:
 194:../switch_sdk/core/yt/yt_port.c ****     CMM_PARAM_CHK((YT_ENABLE < cascade_info.en || YT_DISABLE > cascade_info.en), CMM_ERR_INPUT);
 1602              		.loc 1 194 5 is_stmt 0 discriminator 3 view .LVU453
 1603 0078 FFF7FEFF 		bl	osal_printf
 1604              	.LVL208:
 1605 007c F5E7     		b	.L154
 1606              	.LVL209:
 1607              	.L166:
 194:../switch_sdk/core/yt/yt_port.c ****     CMM_PARAM_CHK((YT_ENABLE < cascade_info.en || YT_DISABLE > cascade_info.en), CMM_ERR_INPUT);
 1608              		.loc 1 194 5 discriminator 3 view .LVU454
 1609              	.LBE32:
 195:../switch_sdk/core/yt/yt_port.c ****     for (i = 0; i < YT_MAX_CASCADE_PORT_NUM; i++)
 1610              		.loc 1 195 5 is_stmt 1 discriminator 1 view .LVU455
 195:../switch_sdk/core/yt/yt_port.c ****     for (i = 0; i < YT_MAX_CASCADE_PORT_NUM; i++)
 1611              		.loc 1 195 5 discriminator 1 view .LVU456
 1612 007e 224B     		ldr	r3, .L173+4
 1613 0080 1B78     		ldrb	r3, [r3]	@ zero_extendqisi2
 1614 0082 012B     		cmp	r3, #1
 1615 0084 01D8     		bhi	.L170
 1616              	.LVL210:
 1617              	.L156:
 195:../switch_sdk/core/yt/yt_port.c ****     for (i = 0; i < YT_MAX_CASCADE_PORT_NUM; i++)
 1618              		.loc 1 195 5 discriminator 5 view .LVU457
 195:../switch_sdk/core/yt/yt_port.c ****     for (i = 0; i < YT_MAX_CASCADE_PORT_NUM; i++)
 1619              		.loc 1 195 5 discriminator 5 view .LVU458
 195:../switch_sdk/core/yt/yt_port.c ****     for (i = 0; i < YT_MAX_CASCADE_PORT_NUM; i++)
 1620              		.loc 1 195 5 discriminator 5 view .LVU459
 1621 0086 0520     		movs	r0, #5
 1622 0088 36E0     		b	.L147
 1623              	.LVL211:
 1624              	.L170:
 195:../switch_sdk/core/yt/yt_port.c ****     for (i = 0; i < YT_MAX_CASCADE_PORT_NUM; i++)
 1625              		.loc 1 195 5 discriminator 3 view .LVU460
 1626              	.LBB33:
 195:../switch_sdk/core/yt/yt_port.c ****     for (i = 0; i < YT_MAX_CASCADE_PORT_NUM; i++)
 1627              		.loc 1 195 5 discriminator 3 view .LVU461
 1628 008a 204B     		ldr	r3, .L173+8
 1629 008c 5A69     		ldr	r2, [r3, #20]
 1630 008e 204B     		ldr	r3, .L173+12
 1631 0090 9968     		ldr	r1, [r3, #8]
 1632 0092 2048     		ldr	r0, .L173+16
 1633              	.LVL212:
 195:../switch_sdk/core/yt/yt_port.c ****     for (i = 0; i < YT_MAX_CASCADE_PORT_NUM; i++)
 1634              		.loc 1 195 5 is_stmt 0 discriminator 3 view .LVU462
 1635 0094 FFF7FEFF 		bl	osal_printf
 1636              	.LVL213:
 1637 0098 F5E7     		b	.L156
 1638              	.LVL214:
 1639              	.L172:
 195:../switch_sdk/core/yt/yt_port.c ****     for (i = 0; i < YT_MAX_CASCADE_PORT_NUM; i++)
 1640              		.loc 1 195 5 discriminator 3 view .LVU463
 1641              	.LBE33:
 197:../switch_sdk/core/yt/yt_port.c ****     {
 198:../switch_sdk/core/yt/yt_port.c ****         if (cascade_info.ports[i].valid)
 199:../switch_sdk/core/yt/yt_port.c ****             CMM_PARAM_CHK((!(CMM_PORT_VALID(unit, cascade_info.ports[i].port_num))), CMM_ERR_PORT);
 1642              		.loc 1 199 13 is_stmt 1 discriminator 5 view .LVU464
 1643              	.LBB34:
 1644              		.loc 1 199 13 discriminator 5 view .LVU465
 1645 009a 1C4B     		ldr	r3, .L173+8
 1646 009c 9A6B     		ldr	r2, [r3, #56]
 1647 009e 1C4B     		ldr	r3, .L173+12
 1648 00a0 9968     		ldr	r1, [r3, #8]
 1649 00a2 1C48     		ldr	r0, .L173+16
 1650 00a4 FFF7FEFF 		bl	osal_printf
 1651              	.LVL215:
 1652 00a8 19E0     		b	.L159
 1653              	.LVL216:
 1654              	.L157:
 1655              		.loc 1 199 13 is_stmt 0 discriminator 5 view .LVU466
 1656              	.LBE34:
 1657              		.loc 1 199 13 is_stmt 1 discriminator 4 view .LVU467
 196:../switch_sdk/core/yt/yt_port.c ****     {
 1658              		.loc 1 196 47 discriminator 4 view .LVU468
 1659 00aa 0133     		adds	r3, r3, #1
 1660              	.LVL217:
 1661              	.L155:
 196:../switch_sdk/core/yt/yt_port.c ****     {
 1662              		.loc 1 196 19 discriminator 2 view .LVU469
 1663 00ac 012B     		cmp	r3, #1
 1664 00ae 18D8     		bhi	.L171
 198:../switch_sdk/core/yt/yt_port.c ****             CMM_PARAM_CHK((!(CMM_PORT_VALID(unit, cascade_info.ports[i].port_num))), CMM_ERR_PORT);
 1665              		.loc 1 198 9 view .LVU470
 198:../switch_sdk/core/yt/yt_port.c ****             CMM_PARAM_CHK((!(CMM_PORT_VALID(unit, cascade_info.ports[i].port_num))), CMM_ERR_PORT);
 1666              		.loc 1 198 34 is_stmt 0 view .LVU471
 1667 00b0 04A9     		add	r1, sp, #16
 1668 00b2 01EBC301 		add	r1, r1, r3, lsl #3
 1669 00b6 097A     		ldrb	r1, [r1, #8]	@ zero_extendqisi2
 198:../switch_sdk/core/yt/yt_port.c ****             CMM_PARAM_CHK((!(CMM_PORT_VALID(unit, cascade_info.ports[i].port_num))), CMM_ERR_PORT);
 1670              		.loc 1 198 12 view .LVU472
 1671 00b8 0029     		cmp	r1, #0
 1672 00ba F6D0     		beq	.L157
 1673              		.loc 1 199 13 is_stmt 1 view .LVU473
 1674              		.loc 1 199 13 view .LVU474
 1675 00bc 1649     		ldr	r1, .L173+20
 1676 00be 0978     		ldrb	r1, [r1]	@ zero_extendqisi2
 1677 00c0 49B1     		cbz	r1, .L158
 1678              		.loc 1 199 13 is_stmt 0 discriminator 2 view .LVU475
 1679 00c2 04A9     		add	r1, sp, #16
 1680 00c4 01EBC301 		add	r1, r1, r3, lsl #3
 1681 00c8 C868     		ldr	r0, [r1, #12]
 1682 00ca 1449     		ldr	r1, .L173+24
 1683 00cc 51F82C10 		ldr	r1, [r1, ip, lsl #2]
 1684 00d0 097D     		ldrb	r1, [r1, #20]	@ zero_extendqisi2
 1685 00d2 8842     		cmp	r0, r1
 1686 00d4 E9D3     		bcc	.L157
 1687              	.L158:
 1688              		.loc 1 199 13 is_stmt 1 discriminator 3 view .LVU476
 1689              		.loc 1 199 13 discriminator 3 view .LVU477
 1690 00d6 0C4B     		ldr	r3, .L173+4
 1691              	.LVL218:
 1692              		.loc 1 199 13 is_stmt 0 discriminator 3 view .LVU478
 1693 00d8 1B78     		ldrb	r3, [r3]	@ zero_extendqisi2
 1694 00da 012B     		cmp	r3, #1
 1695 00dc DDD8     		bhi	.L172
 1696              	.L159:
 1697              		.loc 1 199 13 is_stmt 1 discriminator 7 view .LVU479
 1698              		.loc 1 199 13 discriminator 7 view .LVU480
 1699              		.loc 1 199 13 discriminator 7 view .LVU481
 1700 00de 0E20     		movs	r0, #14
 1701 00e0 0AE0     		b	.L147
 1702              	.LVL219:
 1703              	.L171:
 200:../switch_sdk/core/yt/yt_port.c ****     }
 201:../switch_sdk/core/yt/yt_port.c **** 
 202:../switch_sdk/core/yt/yt_port.c ****     return YT_DISPATCH(unit)->port_cascade_set(unit, cascade_info);
 1704              		.loc 1 202 5 view .LVU482
 1705              		.loc 1 202 29 is_stmt 0 view .LVU483
 1706 00e2 D2F86C45 		ldr	r4, [r2, #1388]
 1707              		.loc 1 202 12 view .LVU484
 1708 00e6 08AB     		add	r3, sp, #32
 1709              	.LVL220:
 1710              		.loc 1 202 12 view .LVU485
 1711 00e8 93E80300 		ldm	r3, {r0, r1}
 1712 00ec 8DE80300 		stm	sp, {r0, r1}
 1713 00f0 05AB     		add	r3, sp, #20
 1714 00f2 0ECB     		ldm	r3, {r1, r2, r3}
 1715 00f4 6046     		mov	r0, ip
 1716 00f6 A047     		blx	r4
 1717              	.LVL221:
 1718              	.L147:
 203:../switch_sdk/core/yt/yt_port.c **** }
 1719              		.loc 1 203 1 view .LVU486
 1720 00f8 02B0     		add	sp, sp, #8
 1721              		.cfi_def_cfa_offset 24
 1722              		@ sp needed
 1723 00fa BDE81040 		pop	{r4, lr}
 1724              		.cfi_restore 14
 1725              		.cfi_restore 4
 1726              		.cfi_def_cfa_offset 16
 1727 00fe 04B0     		add	sp, sp, #16
 1728              		.cfi_def_cfa_offset 0
 1729 0100 7047     		bx	lr
 1730              	.L174:
 1731 0102 00BF     		.align	2
 1732              	.L173:
 1733 0104 00000000 		.word	gpfal_dispatch
 1734 0108 00000000 		.word	yt_debug_level
 1735 010c 00000000 		.word	_yt_errmsg
 1736 0110 00000000 		.word	_yt_prompt_msg
 1737 0114 00000000 		.word	.LC0
 1738 0118 00000000 		.word	gcal_inited
 1739 011c 00000000 		.word	gpSwitchUnit
 1740              		.cfi_endproc
 1741              	.LFE10:
 1743              		.section	.text.yt_port_cascade_get,"ax",%progbits
 1744              		.align	1
 1745              		.global	yt_port_cascade_get
 1746              		.syntax unified
 1747              		.thumb
 1748              		.thumb_func
 1750              	yt_port_cascade_get:
 1751              	.LVL222:
 1752              	.LFB11:
 204:../switch_sdk/core/yt/yt_port.c **** 
 205:../switch_sdk/core/yt/yt_port.c **** /**
 206:../switch_sdk/core/yt/yt_port.c ****  * @internal      yt_port_cascade_get
 207:../switch_sdk/core/yt/yt_port.c ****  * @endinternal
 208:../switch_sdk/core/yt/yt_port.c ****  *
 209:../switch_sdk/core/yt/yt_port.c ****  * @brief         Description
 210:../switch_sdk/core/yt/yt_port.c ****  * @note          APPLICABLE DEVICES  -Tiger
 211:../switch_sdk/core/yt/yt_port.c ****  * @param[in]     unit                -unit id
 212:../switch_sdk/core/yt/yt_port.c ****  * @param[out]    pCascade_info       -cascade enable status and ports configure information
 213:../switch_sdk/core/yt/yt_port.c ****  * @retval        CMM_ERR_OK          -on success
 214:../switch_sdk/core/yt/yt_port.c ****  * @retval        CMM_ERR_FAIL        -on fail
 215:../switch_sdk/core/yt/yt_port.c ****  */
 216:../switch_sdk/core/yt/yt_port.c **** yt_ret_t yt_port_cascade_get(yt_unit_t unit, yt_cascade_info_t *pCascade_info)
 217:../switch_sdk/core/yt/yt_port.c **** {
 1753              		.loc 1 217 1 is_stmt 1 view -0
 1754              		.cfi_startproc
 1755              		@ args = 0, pretend = 0, frame = 0
 1756              		@ frame_needed = 0, uses_anonymous_args = 0
 1757              		.loc 1 217 1 is_stmt 0 view .LVU488
 1758 0000 08B5     		push	{r3, lr}
 1759              		.cfi_def_cfa_offset 8
 1760              		.cfi_offset 3, -8
 1761              		.cfi_offset 14, -4
 218:../switch_sdk/core/yt/yt_port.c ****     CMM_PARAM_CHK((YT_UNIT_NUM <= unit), CMM_ERR_INPUT);
 1762              		.loc 1 218 5 is_stmt 1 view .LVU489
 1763              		.loc 1 218 5 view .LVU490
 1764 0002 68B9     		cbnz	r0, .L186
 1765 0004 0246     		mov	r2, r0
 1766              		.loc 1 218 5 discriminator 2 view .LVU491
 219:../switch_sdk/core/yt/yt_port.c ****     CMM_PARAM_CHK(NULL == YT_DISPATCH(unit), CMM_ERR_NOT_INIT);
 1767              		.loc 1 219 5 discriminator 2 view .LVU492
 1768              		.loc 1 219 5 discriminator 2 view .LVU493
 1769 0006 224B     		ldr	r3, .L194
 1770 0008 53F82030 		ldr	r3, [r3, r0, lsl #2]
 1771 000c B3B1     		cbz	r3, .L187
 1772              		.loc 1 219 5 discriminator 2 view .LVU494
 220:../switch_sdk/core/yt/yt_port.c ****     CMM_PARAM_CHK((!(YT_DISPATCH(unit)->is_inited)), CMM_ERR_NOT_INIT);
 1773              		.loc 1 220 5 discriminator 2 view .LVU495
 1774              		.loc 1 220 5 discriminator 2 view .LVU496
 1775 000e 1878     		ldrb	r0, [r3]	@ zero_extendqisi2
 1776              	.LVL223:
 1777              		.loc 1 220 5 is_stmt 0 discriminator 2 view .LVU497
 1778 0010 10B3     		cbz	r0, .L188
 1779              		.loc 1 220 5 is_stmt 1 discriminator 2 view .LVU498
 221:../switch_sdk/core/yt/yt_port.c ****     CMM_PARAM_CHK((NULL == pCascade_info), CMM_ERR_NULL_POINT);
 1780              		.loc 1 221 5 discriminator 2 view .LVU499
 1781              		.loc 1 221 5 discriminator 2 view .LVU500
 1782 0012 0029     		cmp	r1, #0
 1783 0014 2ED0     		beq	.L189
 1784              		.loc 1 221 5 discriminator 2 view .LVU501
 222:../switch_sdk/core/yt/yt_port.c **** 
 223:../switch_sdk/core/yt/yt_port.c ****     return YT_DISPATCH(unit)->port_cascade_get(unit, pCascade_info);
 1785              		.loc 1 223 5 discriminator 2 view .LVU502
 1786              		.loc 1 223 29 is_stmt 0 discriminator 2 view .LVU503
 1787 0016 D3F87035 		ldr	r3, [r3, #1392]
 1788              		.loc 1 223 12 discriminator 2 view .LVU504
 1789 001a 1046     		mov	r0, r2
 1790 001c 9847     		blx	r3
 1791              	.LVL224:
 1792              	.L175:
 224:../switch_sdk/core/yt/yt_port.c **** }
 1793              		.loc 1 224 1 view .LVU505
 1794 001e 08BD     		pop	{r3, pc}
 1795              	.LVL225:
 1796              	.L186:
 218:../switch_sdk/core/yt/yt_port.c ****     CMM_PARAM_CHK(NULL == YT_DISPATCH(unit), CMM_ERR_NOT_INIT);
 1797              		.loc 1 218 5 is_stmt 1 discriminator 1 view .LVU506
 218:../switch_sdk/core/yt/yt_port.c ****     CMM_PARAM_CHK(NULL == YT_DISPATCH(unit), CMM_ERR_NOT_INIT);
 1798              		.loc 1 218 5 discriminator 1 view .LVU507
 1799 0020 1C4B     		ldr	r3, .L194+4
 1800 0022 1B78     		ldrb	r3, [r3]	@ zero_extendqisi2
 1801 0024 012B     		cmp	r3, #1
 1802 0026 01D8     		bhi	.L190
 1803              	.LVL226:
 1804              	.L177:
 218:../switch_sdk/core/yt/yt_port.c ****     CMM_PARAM_CHK(NULL == YT_DISPATCH(unit), CMM_ERR_NOT_INIT);
 1805              		.loc 1 218 5 discriminator 5 view .LVU508
 218:../switch_sdk/core/yt/yt_port.c ****     CMM_PARAM_CHK(NULL == YT_DISPATCH(unit), CMM_ERR_NOT_INIT);
 1806              		.loc 1 218 5 discriminator 5 view .LVU509
 218:../switch_sdk/core/yt/yt_port.c ****     CMM_PARAM_CHK(NULL == YT_DISPATCH(unit), CMM_ERR_NOT_INIT);
 1807              		.loc 1 218 5 discriminator 5 view .LVU510
 1808 0028 0520     		movs	r0, #5
 1809 002a F8E7     		b	.L175
 1810              	.LVL227:
 1811              	.L190:
 218:../switch_sdk/core/yt/yt_port.c ****     CMM_PARAM_CHK(NULL == YT_DISPATCH(unit), CMM_ERR_NOT_INIT);
 1812              		.loc 1 218 5 discriminator 3 view .LVU511
 1813              	.LBB35:
 218:../switch_sdk/core/yt/yt_port.c ****     CMM_PARAM_CHK(NULL == YT_DISPATCH(unit), CMM_ERR_NOT_INIT);
 1814              		.loc 1 218 5 discriminator 3 view .LVU512
 1815 002c 1A4B     		ldr	r3, .L194+8
 1816 002e 5A69     		ldr	r2, [r3, #20]
 1817 0030 1A4B     		ldr	r3, .L194+12
 1818 0032 9968     		ldr	r1, [r3, #8]
 1819              	.LVL228:
 218:../switch_sdk/core/yt/yt_port.c ****     CMM_PARAM_CHK(NULL == YT_DISPATCH(unit), CMM_ERR_NOT_INIT);
 1820              		.loc 1 218 5 is_stmt 0 discriminator 3 view .LVU513
 1821 0034 1A48     		ldr	r0, .L194+16
 1822              	.LVL229:
 218:../switch_sdk/core/yt/yt_port.c ****     CMM_PARAM_CHK(NULL == YT_DISPATCH(unit), CMM_ERR_NOT_INIT);
 1823              		.loc 1 218 5 discriminator 3 view .LVU514
 1824 0036 FFF7FEFF 		bl	osal_printf
 1825              	.LVL230:
 1826 003a F5E7     		b	.L177
 1827              	.LVL231:
 1828              	.L187:
 218:../switch_sdk/core/yt/yt_port.c ****     CMM_PARAM_CHK(NULL == YT_DISPATCH(unit), CMM_ERR_NOT_INIT);
 1829              		.loc 1 218 5 discriminator 3 view .LVU515
 1830              	.LBE35:
 219:../switch_sdk/core/yt/yt_port.c ****     CMM_PARAM_CHK((!(YT_DISPATCH(unit)->is_inited)), CMM_ERR_NOT_INIT);
 1831              		.loc 1 219 5 is_stmt 1 discriminator 1 view .LVU516
 219:../switch_sdk/core/yt/yt_port.c ****     CMM_PARAM_CHK((!(YT_DISPATCH(unit)->is_inited)), CMM_ERR_NOT_INIT);
 1832              		.loc 1 219 5 discriminator 1 view .LVU517
 1833 003c 154B     		ldr	r3, .L194+4
 1834 003e 1B78     		ldrb	r3, [r3]	@ zero_extendqisi2
 1835 0040 012B     		cmp	r3, #1
 1836 0042 01D8     		bhi	.L191
 1837              	.LVL232:
 1838              	.L180:
 219:../switch_sdk/core/yt/yt_port.c ****     CMM_PARAM_CHK((!(YT_DISPATCH(unit)->is_inited)), CMM_ERR_NOT_INIT);
 1839              		.loc 1 219 5 discriminator 5 view .LVU518
 219:../switch_sdk/core/yt/yt_port.c ****     CMM_PARAM_CHK((!(YT_DISPATCH(unit)->is_inited)), CMM_ERR_NOT_INIT);
 1840              		.loc 1 219 5 discriminator 5 view .LVU519
 219:../switch_sdk/core/yt/yt_port.c ****     CMM_PARAM_CHK((!(YT_DISPATCH(unit)->is_inited)), CMM_ERR_NOT_INIT);
 1841              		.loc 1 219 5 discriminator 5 view .LVU520
 1842 0044 0420     		movs	r0, #4
 1843 0046 EAE7     		b	.L175
 1844              	.LVL233:
 1845              	.L191:
 219:../switch_sdk/core/yt/yt_port.c ****     CMM_PARAM_CHK((!(YT_DISPATCH(unit)->is_inited)), CMM_ERR_NOT_INIT);
 1846              		.loc 1 219 5 discriminator 3 view .LVU521
 1847              	.LBB36:
 219:../switch_sdk/core/yt/yt_port.c ****     CMM_PARAM_CHK((!(YT_DISPATCH(unit)->is_inited)), CMM_ERR_NOT_INIT);
 1848              		.loc 1 219 5 discriminator 3 view .LVU522
 1849 0048 134B     		ldr	r3, .L194+8
 1850 004a 1A69     		ldr	r2, [r3, #16]
 1851 004c 134B     		ldr	r3, .L194+12
 1852 004e 9968     		ldr	r1, [r3, #8]
 1853              	.LVL234:
 219:../switch_sdk/core/yt/yt_port.c ****     CMM_PARAM_CHK((!(YT_DISPATCH(unit)->is_inited)), CMM_ERR_NOT_INIT);
 1854              		.loc 1 219 5 is_stmt 0 discriminator 3 view .LVU523
 1855 0050 1348     		ldr	r0, .L194+16
 1856              	.LVL235:
 219:../switch_sdk/core/yt/yt_port.c ****     CMM_PARAM_CHK((!(YT_DISPATCH(unit)->is_inited)), CMM_ERR_NOT_INIT);
 1857              		.loc 1 219 5 discriminator 3 view .LVU524
 1858 0052 FFF7FEFF 		bl	osal_printf
 1859              	.LVL236:
 1860 0056 F5E7     		b	.L180
 1861              	.LVL237:
 1862              	.L188:
 219:../switch_sdk/core/yt/yt_port.c ****     CMM_PARAM_CHK((!(YT_DISPATCH(unit)->is_inited)), CMM_ERR_NOT_INIT);
 1863              		.loc 1 219 5 discriminator 3 view .LVU525
 1864              	.LBE36:
 220:../switch_sdk/core/yt/yt_port.c ****     CMM_PARAM_CHK((NULL == pCascade_info), CMM_ERR_NULL_POINT);
 1865              		.loc 1 220 5 is_stmt 1 discriminator 1 view .LVU526
 220:../switch_sdk/core/yt/yt_port.c ****     CMM_PARAM_CHK((NULL == pCascade_info), CMM_ERR_NULL_POINT);
 1866              		.loc 1 220 5 discriminator 1 view .LVU527
 1867 0058 0E4B     		ldr	r3, .L194+4
 1868 005a 1B78     		ldrb	r3, [r3]	@ zero_extendqisi2
 1869 005c 012B     		cmp	r3, #1
 1870 005e 01D8     		bhi	.L192
 1871              	.LVL238:
 1872              	.L182:
 220:../switch_sdk/core/yt/yt_port.c ****     CMM_PARAM_CHK((NULL == pCascade_info), CMM_ERR_NULL_POINT);
 1873              		.loc 1 220 5 discriminator 5 view .LVU528
 220:../switch_sdk/core/yt/yt_port.c ****     CMM_PARAM_CHK((NULL == pCascade_info), CMM_ERR_NULL_POINT);
 1874              		.loc 1 220 5 discriminator 5 view .LVU529
 220:../switch_sdk/core/yt/yt_port.c ****     CMM_PARAM_CHK((NULL == pCascade_info), CMM_ERR_NULL_POINT);
 1875              		.loc 1 220 5 discriminator 5 view .LVU530
 1876 0060 0420     		movs	r0, #4
 1877 0062 DCE7     		b	.L175
 1878              	.LVL239:
 1879              	.L192:
 220:../switch_sdk/core/yt/yt_port.c ****     CMM_PARAM_CHK((NULL == pCascade_info), CMM_ERR_NULL_POINT);
 1880              		.loc 1 220 5 discriminator 3 view .LVU531
 1881              	.LBB37:
 220:../switch_sdk/core/yt/yt_port.c ****     CMM_PARAM_CHK((NULL == pCascade_info), CMM_ERR_NULL_POINT);
 1882              		.loc 1 220 5 discriminator 3 view .LVU532
 1883 0064 0C4B     		ldr	r3, .L194+8
 1884 0066 1A69     		ldr	r2, [r3, #16]
 1885 0068 0C4B     		ldr	r3, .L194+12
 1886 006a 9968     		ldr	r1, [r3, #8]
 1887              	.LVL240:
 220:../switch_sdk/core/yt/yt_port.c ****     CMM_PARAM_CHK((NULL == pCascade_info), CMM_ERR_NULL_POINT);
 1888              		.loc 1 220 5 is_stmt 0 discriminator 3 view .LVU533
 1889 006c 0C48     		ldr	r0, .L194+16
 1890 006e FFF7FEFF 		bl	osal_printf
 1891              	.LVL241:
 1892 0072 F5E7     		b	.L182
 1893              	.LVL242:
 1894              	.L189:
 220:../switch_sdk/core/yt/yt_port.c ****     CMM_PARAM_CHK((NULL == pCascade_info), CMM_ERR_NULL_POINT);
 1895              		.loc 1 220 5 discriminator 3 view .LVU534
 1896              	.LBE37:
 221:../switch_sdk/core/yt/yt_port.c **** 
 1897              		.loc 1 221 5 is_stmt 1 discriminator 1 view .LVU535
 221:../switch_sdk/core/yt/yt_port.c **** 
 1898              		.loc 1 221 5 discriminator 1 view .LVU536
 1899 0074 074B     		ldr	r3, .L194+4
 1900 0076 1B78     		ldrb	r3, [r3]	@ zero_extendqisi2
 1901 0078 012B     		cmp	r3, #1
 1902 007a 01D8     		bhi	.L193
 1903              	.LVL243:
 1904              	.L184:
 221:../switch_sdk/core/yt/yt_port.c **** 
 1905              		.loc 1 221 5 discriminator 5 view .LVU537
 221:../switch_sdk/core/yt/yt_port.c **** 
 1906              		.loc 1 221 5 discriminator 5 view .LVU538
 221:../switch_sdk/core/yt/yt_port.c **** 
 1907              		.loc 1 221 5 discriminator 5 view .LVU539
 1908 007c 0220     		movs	r0, #2
 1909 007e CEE7     		b	.L175
 1910              	.LVL244:
 1911              	.L193:
 221:../switch_sdk/core/yt/yt_port.c **** 
 1912              		.loc 1 221 5 discriminator 3 view .LVU540
 1913              	.LBB38:
 221:../switch_sdk/core/yt/yt_port.c **** 
 1914              		.loc 1 221 5 discriminator 3 view .LVU541
 1915 0080 054B     		ldr	r3, .L194+8
 1916 0082 9A68     		ldr	r2, [r3, #8]
 1917 0084 054B     		ldr	r3, .L194+12
 1918 0086 9968     		ldr	r1, [r3, #8]
 1919              	.LVL245:
 221:../switch_sdk/core/yt/yt_port.c **** 
 1920              		.loc 1 221 5 is_stmt 0 discriminator 3 view .LVU542
 1921 0088 0548     		ldr	r0, .L194+16
 1922 008a FFF7FEFF 		bl	osal_printf
 1923              	.LVL246:
 1924 008e F5E7     		b	.L184
 1925              	.L195:
 1926              		.align	2
 1927              	.L194:
 1928 0090 00000000 		.word	gpfal_dispatch
 1929 0094 00000000 		.word	yt_debug_level
 1930 0098 00000000 		.word	_yt_errmsg
 1931 009c 00000000 		.word	_yt_prompt_msg
 1932 00a0 00000000 		.word	.LC0
 1933              	.LBE38:
 1934              		.cfi_endproc
 1935              	.LFE11:
 1937              		.section	.text.yt_port_pkt_gap_set,"ax",%progbits
 1938              		.align	1
 1939              		.global	yt_port_pkt_gap_set
 1940              		.syntax unified
 1941              		.thumb
 1942              		.thumb_func
 1944              	yt_port_pkt_gap_set:
 1945              	.LVL247:
 1946              	.LFB12:
 225:../switch_sdk/core/yt/yt_port.c **** 
 226:../switch_sdk/core/yt/yt_port.c **** /**
 227:../switch_sdk/core/yt/yt_port.c ****  * @internal      yt_port_pkt_gap_set
 228:../switch_sdk/core/yt/yt_port.c ****  * @endinternal
 229:../switch_sdk/core/yt/yt_port.c ****  *
 230:../switch_sdk/core/yt/yt_port.c ****  * @brief         Description
 231:../switch_sdk/core/yt/yt_port.c ****  * @note          APPLICABLE DEVICES  -Tiger
 232:../switch_sdk/core/yt/yt_port.c ****  * @param[in]     unit                -unit id
 233:../switch_sdk/core/yt/yt_port.c ****  * @param[in]     port                -port num
 234:../switch_sdk/core/yt/yt_port.c ****  * @param[in]     gap                 -x
 235:../switch_sdk/core/yt/yt_port.c ****  * @retval        CMM_ERR_OK          -on success
 236:../switch_sdk/core/yt/yt_port.c ****  * @retval        CMM_ERR_FAIL        -on fail
 237:../switch_sdk/core/yt/yt_port.c ****  */
 238:../switch_sdk/core/yt/yt_port.c **** yt_ret_t yt_port_pkt_gap_set(yt_unit_t unit, yt_port_t port, uint8_t gap)
 239:../switch_sdk/core/yt/yt_port.c **** {
 1947              		.loc 1 239 1 is_stmt 1 view -0
 1948              		.cfi_startproc
 1949              		@ args = 0, pretend = 0, frame = 0
 1950              		@ frame_needed = 0, uses_anonymous_args = 0
 1951              		.loc 1 239 1 is_stmt 0 view .LVU544
 1952 0000 08B5     		push	{r3, lr}
 1953              		.cfi_def_cfa_offset 8
 1954              		.cfi_offset 3, -8
 1955              		.cfi_offset 14, -4
 240:../switch_sdk/core/yt/yt_port.c ****     CMM_PARAM_CHK((YT_UNIT_NUM <= unit), CMM_ERR_INPUT);
 1956              		.loc 1 240 5 is_stmt 1 view .LVU545
 1957              		.loc 1 240 5 view .LVU546
 1958 0002 A8B9     		cbnz	r0, .L208
 1959 0004 8446     		mov	ip, r0
 1960              		.loc 1 240 5 discriminator 2 view .LVU547
 241:../switch_sdk/core/yt/yt_port.c ****     CMM_PARAM_CHK(NULL == YT_DISPATCH(unit), CMM_ERR_NOT_INIT);
 1961              		.loc 1 241 5 discriminator 2 view .LVU548
 1962              		.loc 1 241 5 discriminator 2 view .LVU549
 1963 0006 264B     		ldr	r3, .L215
 1964 0008 53F82030 		ldr	r3, [r3, r0, lsl #2]
 1965 000c F3B1     		cbz	r3, .L209
 1966              		.loc 1 241 5 discriminator 2 view .LVU550
 242:../switch_sdk/core/yt/yt_port.c ****     CMM_PARAM_CHK((!(YT_DISPATCH(unit)->is_inited)), CMM_ERR_NOT_INIT);
 1967              		.loc 1 242 5 discriminator 2 view .LVU551
 1968              		.loc 1 242 5 discriminator 2 view .LVU552
 1969 000e 1878     		ldrb	r0, [r3]	@ zero_extendqisi2
 1970              	.LVL248:
 1971              		.loc 1 242 5 is_stmt 0 discriminator 2 view .LVU553
 1972 0010 50B3     		cbz	r0, .L210
 1973              		.loc 1 242 5 is_stmt 1 discriminator 2 view .LVU554
 243:../switch_sdk/core/yt/yt_port.c ****     CMM_PARAM_CHK((!(CMM_PORT_VALID(unit, port))), CMM_ERR_PORT);
 1974              		.loc 1 243 5 discriminator 2 view .LVU555
 1975              		.loc 1 243 5 discriminator 2 view .LVU556
 1976 0012 2448     		ldr	r0, .L215+4
 1977 0014 0078     		ldrb	r0, [r0]	@ zero_extendqisi2
 1978 0016 0028     		cmp	r0, #0
 1979 0018 34D0     		beq	.L204
 1980 001a 2348     		ldr	r0, .L215+8
 1981 001c 50F82C00 		ldr	r0, [r0, ip, lsl #2]
 1982 0020 007D     		ldrb	r0, [r0, #20]	@ zero_extendqisi2
 1983 0022 8842     		cmp	r0, r1
 1984 0024 2ED9     		bls	.L204
 1985              		.loc 1 243 5 discriminator 4 view .LVU557
 244:../switch_sdk/core/yt/yt_port.c **** 
 245:../switch_sdk/core/yt/yt_port.c ****     return YT_DISPATCH(unit)->port_pkt_gap_set(unit, port, gap);
 1986              		.loc 1 245 5 discriminator 4 view .LVU558
 1987              		.loc 1 245 29 is_stmt 0 discriminator 4 view .LVU559
 1988 0026 D3F87435 		ldr	r3, [r3, #1396]
 1989              		.loc 1 245 12 discriminator 4 view .LVU560
 1990 002a 6046     		mov	r0, ip
 1991 002c 9847     		blx	r3
 1992              	.LVL249:
 1993              	.L196:
 246:../switch_sdk/core/yt/yt_port.c **** }
 1994              		.loc 1 246 1 view .LVU561
 1995 002e 08BD     		pop	{r3, pc}
 1996              	.LVL250:
 1997              	.L208:
 240:../switch_sdk/core/yt/yt_port.c ****     CMM_PARAM_CHK(NULL == YT_DISPATCH(unit), CMM_ERR_NOT_INIT);
 1998              		.loc 1 240 5 is_stmt 1 discriminator 1 view .LVU562
 240:../switch_sdk/core/yt/yt_port.c ****     CMM_PARAM_CHK(NULL == YT_DISPATCH(unit), CMM_ERR_NOT_INIT);
 1999              		.loc 1 240 5 discriminator 1 view .LVU563
 2000 0030 1E4B     		ldr	r3, .L215+12
 2001 0032 1B78     		ldrb	r3, [r3]	@ zero_extendqisi2
 2002 0034 012B     		cmp	r3, #1
 2003 0036 01D8     		bhi	.L211
 2004              	.LVL251:
 2005              	.L198:
 240:../switch_sdk/core/yt/yt_port.c ****     CMM_PARAM_CHK(NULL == YT_DISPATCH(unit), CMM_ERR_NOT_INIT);
 2006              		.loc 1 240 5 discriminator 5 view .LVU564
 240:../switch_sdk/core/yt/yt_port.c ****     CMM_PARAM_CHK(NULL == YT_DISPATCH(unit), CMM_ERR_NOT_INIT);
 2007              		.loc 1 240 5 discriminator 5 view .LVU565
 240:../switch_sdk/core/yt/yt_port.c ****     CMM_PARAM_CHK(NULL == YT_DISPATCH(unit), CMM_ERR_NOT_INIT);
 2008              		.loc 1 240 5 discriminator 5 view .LVU566
 2009 0038 0520     		movs	r0, #5
 2010 003a F8E7     		b	.L196
 2011              	.LVL252:
 2012              	.L211:
 240:../switch_sdk/core/yt/yt_port.c ****     CMM_PARAM_CHK(NULL == YT_DISPATCH(unit), CMM_ERR_NOT_INIT);
 2013              		.loc 1 240 5 discriminator 3 view .LVU567
 2014              	.LBB39:
 240:../switch_sdk/core/yt/yt_port.c ****     CMM_PARAM_CHK(NULL == YT_DISPATCH(unit), CMM_ERR_NOT_INIT);
 2015              		.loc 1 240 5 discriminator 3 view .LVU568
 2016 003c 1C4B     		ldr	r3, .L215+16
 2017 003e 5A69     		ldr	r2, [r3, #20]
 2018              	.LVL253:
 240:../switch_sdk/core/yt/yt_port.c ****     CMM_PARAM_CHK(NULL == YT_DISPATCH(unit), CMM_ERR_NOT_INIT);
 2019              		.loc 1 240 5 is_stmt 0 discriminator 3 view .LVU569
 2020 0040 1C4B     		ldr	r3, .L215+20
 2021 0042 9968     		ldr	r1, [r3, #8]
 2022              	.LVL254:
 240:../switch_sdk/core/yt/yt_port.c ****     CMM_PARAM_CHK(NULL == YT_DISPATCH(unit), CMM_ERR_NOT_INIT);
 2023              		.loc 1 240 5 discriminator 3 view .LVU570
 2024 0044 1C48     		ldr	r0, .L215+24
 2025              	.LVL255:
 240:../switch_sdk/core/yt/yt_port.c ****     CMM_PARAM_CHK(NULL == YT_DISPATCH(unit), CMM_ERR_NOT_INIT);
 2026              		.loc 1 240 5 discriminator 3 view .LVU571
 2027 0046 FFF7FEFF 		bl	osal_printf
 2028              	.LVL256:
 2029 004a F5E7     		b	.L198
 2030              	.LVL257:
 2031              	.L209:
 240:../switch_sdk/core/yt/yt_port.c ****     CMM_PARAM_CHK(NULL == YT_DISPATCH(unit), CMM_ERR_NOT_INIT);
 2032              		.loc 1 240 5 discriminator 3 view .LVU572
 2033              	.LBE39:
 241:../switch_sdk/core/yt/yt_port.c ****     CMM_PARAM_CHK((!(YT_DISPATCH(unit)->is_inited)), CMM_ERR_NOT_INIT);
 2034              		.loc 1 241 5 is_stmt 1 discriminator 1 view .LVU573
 241:../switch_sdk/core/yt/yt_port.c ****     CMM_PARAM_CHK((!(YT_DISPATCH(unit)->is_inited)), CMM_ERR_NOT_INIT);
 2035              		.loc 1 241 5 discriminator 1 view .LVU574
 2036 004c 174B     		ldr	r3, .L215+12
 2037 004e 1B78     		ldrb	r3, [r3]	@ zero_extendqisi2
 2038 0050 012B     		cmp	r3, #1
 2039 0052 01D8     		bhi	.L212
 2040              	.LVL258:
 2041              	.L201:
 241:../switch_sdk/core/yt/yt_port.c ****     CMM_PARAM_CHK((!(YT_DISPATCH(unit)->is_inited)), CMM_ERR_NOT_INIT);
 2042              		.loc 1 241 5 discriminator 5 view .LVU575
 241:../switch_sdk/core/yt/yt_port.c ****     CMM_PARAM_CHK((!(YT_DISPATCH(unit)->is_inited)), CMM_ERR_NOT_INIT);
 2043              		.loc 1 241 5 discriminator 5 view .LVU576
 241:../switch_sdk/core/yt/yt_port.c ****     CMM_PARAM_CHK((!(YT_DISPATCH(unit)->is_inited)), CMM_ERR_NOT_INIT);
 2044              		.loc 1 241 5 discriminator 5 view .LVU577
 2045 0054 0420     		movs	r0, #4
 2046 0056 EAE7     		b	.L196
 2047              	.LVL259:
 2048              	.L212:
 241:../switch_sdk/core/yt/yt_port.c ****     CMM_PARAM_CHK((!(YT_DISPATCH(unit)->is_inited)), CMM_ERR_NOT_INIT);
 2049              		.loc 1 241 5 discriminator 3 view .LVU578
 2050              	.LBB40:
 241:../switch_sdk/core/yt/yt_port.c ****     CMM_PARAM_CHK((!(YT_DISPATCH(unit)->is_inited)), CMM_ERR_NOT_INIT);
 2051              		.loc 1 241 5 discriminator 3 view .LVU579
 2052 0058 154B     		ldr	r3, .L215+16
 2053 005a 1A69     		ldr	r2, [r3, #16]
 2054              	.LVL260:
 241:../switch_sdk/core/yt/yt_port.c ****     CMM_PARAM_CHK((!(YT_DISPATCH(unit)->is_inited)), CMM_ERR_NOT_INIT);
 2055              		.loc 1 241 5 is_stmt 0 discriminator 3 view .LVU580
 2056 005c 154B     		ldr	r3, .L215+20
 2057 005e 9968     		ldr	r1, [r3, #8]
 2058              	.LVL261:
 241:../switch_sdk/core/yt/yt_port.c ****     CMM_PARAM_CHK((!(YT_DISPATCH(unit)->is_inited)), CMM_ERR_NOT_INIT);
 2059              		.loc 1 241 5 discriminator 3 view .LVU581
 2060 0060 1548     		ldr	r0, .L215+24
 2061              	.LVL262:
 241:../switch_sdk/core/yt/yt_port.c ****     CMM_PARAM_CHK((!(YT_DISPATCH(unit)->is_inited)), CMM_ERR_NOT_INIT);
 2062              		.loc 1 241 5 discriminator 3 view .LVU582
 2063 0062 FFF7FEFF 		bl	osal_printf
 2064              	.LVL263:
 2065 0066 F5E7     		b	.L201
 2066              	.LVL264:
 2067              	.L210:
 241:../switch_sdk/core/yt/yt_port.c ****     CMM_PARAM_CHK((!(YT_DISPATCH(unit)->is_inited)), CMM_ERR_NOT_INIT);
 2068              		.loc 1 241 5 discriminator 3 view .LVU583
 2069              	.LBE40:
 242:../switch_sdk/core/yt/yt_port.c ****     CMM_PARAM_CHK((!(CMM_PORT_VALID(unit, port))), CMM_ERR_PORT);
 2070              		.loc 1 242 5 is_stmt 1 discriminator 1 view .LVU584
 242:../switch_sdk/core/yt/yt_port.c ****     CMM_PARAM_CHK((!(CMM_PORT_VALID(unit, port))), CMM_ERR_PORT);
 2071              		.loc 1 242 5 discriminator 1 view .LVU585
 2072 0068 104B     		ldr	r3, .L215+12
 2073 006a 1B78     		ldrb	r3, [r3]	@ zero_extendqisi2
 2074 006c 012B     		cmp	r3, #1
 2075 006e 01D8     		bhi	.L213
 2076              	.LVL265:
 2077              	.L203:
 242:../switch_sdk/core/yt/yt_port.c ****     CMM_PARAM_CHK((!(CMM_PORT_VALID(unit, port))), CMM_ERR_PORT);
 2078              		.loc 1 242 5 discriminator 5 view .LVU586
 242:../switch_sdk/core/yt/yt_port.c ****     CMM_PARAM_CHK((!(CMM_PORT_VALID(unit, port))), CMM_ERR_PORT);
 2079              		.loc 1 242 5 discriminator 5 view .LVU587
 242:../switch_sdk/core/yt/yt_port.c ****     CMM_PARAM_CHK((!(CMM_PORT_VALID(unit, port))), CMM_ERR_PORT);
 2080              		.loc 1 242 5 discriminator 5 view .LVU588
 2081 0070 0420     		movs	r0, #4
 2082 0072 DCE7     		b	.L196
 2083              	.LVL266:
 2084              	.L213:
 242:../switch_sdk/core/yt/yt_port.c ****     CMM_PARAM_CHK((!(CMM_PORT_VALID(unit, port))), CMM_ERR_PORT);
 2085              		.loc 1 242 5 discriminator 3 view .LVU589
 2086              	.LBB41:
 242:../switch_sdk/core/yt/yt_port.c ****     CMM_PARAM_CHK((!(CMM_PORT_VALID(unit, port))), CMM_ERR_PORT);
 2087              		.loc 1 242 5 discriminator 3 view .LVU590
 2088 0074 0E4B     		ldr	r3, .L215+16
 2089 0076 1A69     		ldr	r2, [r3, #16]
 2090              	.LVL267:
 242:../switch_sdk/core/yt/yt_port.c ****     CMM_PARAM_CHK((!(CMM_PORT_VALID(unit, port))), CMM_ERR_PORT);
 2091              		.loc 1 242 5 is_stmt 0 discriminator 3 view .LVU591
 2092 0078 0E4B     		ldr	r3, .L215+20
 2093 007a 9968     		ldr	r1, [r3, #8]
 2094              	.LVL268:
 242:../switch_sdk/core/yt/yt_port.c ****     CMM_PARAM_CHK((!(CMM_PORT_VALID(unit, port))), CMM_ERR_PORT);
 2095              		.loc 1 242 5 discriminator 3 view .LVU592
 2096 007c 0E48     		ldr	r0, .L215+24
 2097 007e FFF7FEFF 		bl	osal_printf
 2098              	.LVL269:
 2099 0082 F5E7     		b	.L203
 2100              	.LVL270:
 2101              	.L204:
 242:../switch_sdk/core/yt/yt_port.c ****     CMM_PARAM_CHK((!(CMM_PORT_VALID(unit, port))), CMM_ERR_PORT);
 2102              		.loc 1 242 5 discriminator 3 view .LVU593
 2103              	.LBE41:
 243:../switch_sdk/core/yt/yt_port.c **** 
 2104              		.loc 1 243 5 is_stmt 1 discriminator 3 view .LVU594
 243:../switch_sdk/core/yt/yt_port.c **** 
 2105              		.loc 1 243 5 discriminator 3 view .LVU595
 2106 0084 094B     		ldr	r3, .L215+12
 2107 0086 1B78     		ldrb	r3, [r3]	@ zero_extendqisi2
 2108 0088 012B     		cmp	r3, #1
 2109 008a 01D8     		bhi	.L214
 2110              	.LVL271:
 2111              	.L206:
 243:../switch_sdk/core/yt/yt_port.c **** 
 2112              		.loc 1 243 5 discriminator 7 view .LVU596
 243:../switch_sdk/core/yt/yt_port.c **** 
 2113              		.loc 1 243 5 discriminator 7 view .LVU597
 243:../switch_sdk/core/yt/yt_port.c **** 
 2114              		.loc 1 243 5 discriminator 7 view .LVU598
 2115 008c 0E20     		movs	r0, #14
 2116 008e CEE7     		b	.L196
 2117              	.LVL272:
 2118              	.L214:
 243:../switch_sdk/core/yt/yt_port.c **** 
 2119              		.loc 1 243 5 discriminator 5 view .LVU599
 2120              	.LBB42:
 243:../switch_sdk/core/yt/yt_port.c **** 
 2121              		.loc 1 243 5 discriminator 5 view .LVU600
 2122 0090 074B     		ldr	r3, .L215+16
 2123 0092 9A6B     		ldr	r2, [r3, #56]
 2124              	.LVL273:
 243:../switch_sdk/core/yt/yt_port.c **** 
 2125              		.loc 1 243 5 is_stmt 0 discriminator 5 view .LVU601
 2126 0094 074B     		ldr	r3, .L215+20
 2127 0096 9968     		ldr	r1, [r3, #8]
 2128              	.LVL274:
 243:../switch_sdk/core/yt/yt_port.c **** 
 2129              		.loc 1 243 5 discriminator 5 view .LVU602
 2130 0098 0748     		ldr	r0, .L215+24
 2131 009a FFF7FEFF 		bl	osal_printf
 2132              	.LVL275:
 2133 009e F5E7     		b	.L206
 2134              	.L216:
 2135              		.align	2
 2136              	.L215:
 2137 00a0 00000000 		.word	gpfal_dispatch
 2138 00a4 00000000 		.word	gcal_inited
 2139 00a8 00000000 		.word	gpSwitchUnit
 2140 00ac 00000000 		.word	yt_debug_level
 2141 00b0 00000000 		.word	_yt_errmsg
 2142 00b4 00000000 		.word	_yt_prompt_msg
 2143 00b8 00000000 		.word	.LC0
 2144              	.LBE42:
 2145              		.cfi_endproc
 2146              	.LFE12:
 2148              		.section	.text.yt_port_pkt_gap_get,"ax",%progbits
 2149              		.align	1
 2150              		.global	yt_port_pkt_gap_get
 2151              		.syntax unified
 2152              		.thumb
 2153              		.thumb_func
 2155              	yt_port_pkt_gap_get:
 2156              	.LVL276:
 2157              	.LFB13:
 247:../switch_sdk/core/yt/yt_port.c **** 
 248:../switch_sdk/core/yt/yt_port.c **** /**
 249:../switch_sdk/core/yt/yt_port.c ****  * @internal      yt_port_pkt_gap_get
 250:../switch_sdk/core/yt/yt_port.c ****  * @endinternal
 251:../switch_sdk/core/yt/yt_port.c ****  *
 252:../switch_sdk/core/yt/yt_port.c ****  * @brief         Description
 253:../switch_sdk/core/yt/yt_port.c ****  * @note          APPLICABLE DEVICES  -Tiger
 254:../switch_sdk/core/yt/yt_port.c ****  * @param[in]     unit                -unit id
 255:../switch_sdk/core/yt/yt_port.c ****  * @param[in]     port                -port num
 256:../switch_sdk/core/yt/yt_port.c ****  * @param[out]    pGap                -x
 257:../switch_sdk/core/yt/yt_port.c ****  * @retval        CMM_ERR_OK          -on success
 258:../switch_sdk/core/yt/yt_port.c ****  * @retval        CMM_ERR_FAIL        -on fail
 259:../switch_sdk/core/yt/yt_port.c ****  */
 260:../switch_sdk/core/yt/yt_port.c **** yt_ret_t yt_port_pkt_gap_get(yt_unit_t unit, yt_port_t port, uint8_t *pGap)
 261:../switch_sdk/core/yt/yt_port.c **** {
 2158              		.loc 1 261 1 is_stmt 1 view -0
 2159              		.cfi_startproc
 2160              		@ args = 0, pretend = 0, frame = 0
 2161              		@ frame_needed = 0, uses_anonymous_args = 0
 2162              		.loc 1 261 1 is_stmt 0 view .LVU604
 2163 0000 08B5     		push	{r3, lr}
 2164              		.cfi_def_cfa_offset 8
 2165              		.cfi_offset 3, -8
 2166              		.cfi_offset 14, -4
 262:../switch_sdk/core/yt/yt_port.c ****     CMM_PARAM_CHK((YT_UNIT_NUM <= unit), CMM_ERR_INPUT);
 2167              		.loc 1 262 5 is_stmt 1 view .LVU605
 2168              		.loc 1 262 5 view .LVU606
 2169 0002 C0B9     		cbnz	r0, .L231
 2170 0004 8446     		mov	ip, r0
 2171              		.loc 1 262 5 discriminator 2 view .LVU607
 263:../switch_sdk/core/yt/yt_port.c ****     CMM_PARAM_CHK(NULL == YT_DISPATCH(unit), CMM_ERR_NOT_INIT);
 2172              		.loc 1 263 5 discriminator 2 view .LVU608
 2173              		.loc 1 263 5 discriminator 2 view .LVU609
 2174 0006 2F4B     		ldr	r3, .L240
 2175 0008 53F82030 		ldr	r3, [r3, r0, lsl #2]
 2176 000c 0BB3     		cbz	r3, .L232
 2177              		.loc 1 263 5 discriminator 2 view .LVU610
 264:../switch_sdk/core/yt/yt_port.c ****     CMM_PARAM_CHK((!(YT_DISPATCH(unit)->is_inited)), CMM_ERR_NOT_INIT);
 2178              		.loc 1 264 5 discriminator 2 view .LVU611
 2179              		.loc 1 264 5 discriminator 2 view .LVU612
 2180 000e 1878     		ldrb	r0, [r3]	@ zero_extendqisi2
 2181              	.LVL277:
 2182              		.loc 1 264 5 is_stmt 0 discriminator 2 view .LVU613
 2183 0010 0028     		cmp	r0, #0
 2184 0012 2CD0     		beq	.L233
 2185              		.loc 1 264 5 is_stmt 1 discriminator 2 view .LVU614
 265:../switch_sdk/core/yt/yt_port.c ****     CMM_PARAM_CHK((!(CMM_PORT_VALID(unit, port))), CMM_ERR_PORT);
 2186              		.loc 1 265 5 discriminator 2 view .LVU615
 2187              		.loc 1 265 5 discriminator 2 view .LVU616
 2188 0014 2C48     		ldr	r0, .L240+4
 2189 0016 0078     		ldrb	r0, [r0]	@ zero_extendqisi2
 2190 0018 0028     		cmp	r0, #0
 2191 001a 36D0     		beq	.L225
 2192 001c 2B48     		ldr	r0, .L240+8
 2193 001e 50F82C00 		ldr	r0, [r0, ip, lsl #2]
 2194 0022 007D     		ldrb	r0, [r0, #20]	@ zero_extendqisi2
 2195 0024 8842     		cmp	r0, r1
 2196 0026 30D9     		bls	.L225
 2197              		.loc 1 265 5 discriminator 4 view .LVU617
 266:../switch_sdk/core/yt/yt_port.c ****     CMM_PARAM_CHK((NULL == pGap), CMM_ERR_NULL_POINT);
 2198              		.loc 1 266 5 discriminator 4 view .LVU618
 2199              		.loc 1 266 5 discriminator 4 view .LVU619
 2200 0028 002A     		cmp	r2, #0
 2201 002a 3CD0     		beq	.L234
 2202              		.loc 1 266 5 discriminator 2 view .LVU620
 267:../switch_sdk/core/yt/yt_port.c **** 
 268:../switch_sdk/core/yt/yt_port.c ****     return YT_DISPATCH(unit)->port_pkt_gap_get(unit, port, pGap);
 2203              		.loc 1 268 5 discriminator 2 view .LVU621
 2204              		.loc 1 268 29 is_stmt 0 discriminator 2 view .LVU622
 2205 002c D3F87835 		ldr	r3, [r3, #1400]
 2206              		.loc 1 268 12 discriminator 2 view .LVU623
 2207 0030 6046     		mov	r0, ip
 2208 0032 9847     		blx	r3
 2209              	.LVL278:
 2210              	.L217:
 269:../switch_sdk/core/yt/yt_port.c **** }
 2211              		.loc 1 269 1 view .LVU624
 2212 0034 08BD     		pop	{r3, pc}
 2213              	.LVL279:
 2214              	.L231:
 262:../switch_sdk/core/yt/yt_port.c ****     CMM_PARAM_CHK(NULL == YT_DISPATCH(unit), CMM_ERR_NOT_INIT);
 2215              		.loc 1 262 5 is_stmt 1 discriminator 1 view .LVU625
 262:../switch_sdk/core/yt/yt_port.c ****     CMM_PARAM_CHK(NULL == YT_DISPATCH(unit), CMM_ERR_NOT_INIT);
 2216              		.loc 1 262 5 discriminator 1 view .LVU626
 2217 0036 264B     		ldr	r3, .L240+12
 2218 0038 1B78     		ldrb	r3, [r3]	@ zero_extendqisi2
 2219 003a 012B     		cmp	r3, #1
 2220 003c 01D8     		bhi	.L235
 2221              	.LVL280:
 2222              	.L219:
 262:../switch_sdk/core/yt/yt_port.c ****     CMM_PARAM_CHK(NULL == YT_DISPATCH(unit), CMM_ERR_NOT_INIT);
 2223              		.loc 1 262 5 discriminator 5 view .LVU627
 262:../switch_sdk/core/yt/yt_port.c ****     CMM_PARAM_CHK(NULL == YT_DISPATCH(unit), CMM_ERR_NOT_INIT);
 2224              		.loc 1 262 5 discriminator 5 view .LVU628
 262:../switch_sdk/core/yt/yt_port.c ****     CMM_PARAM_CHK(NULL == YT_DISPATCH(unit), CMM_ERR_NOT_INIT);
 2225              		.loc 1 262 5 discriminator 5 view .LVU629
 2226 003e 0520     		movs	r0, #5
 2227 0040 F8E7     		b	.L217
 2228              	.LVL281:
 2229              	.L235:
 262:../switch_sdk/core/yt/yt_port.c ****     CMM_PARAM_CHK(NULL == YT_DISPATCH(unit), CMM_ERR_NOT_INIT);
 2230              		.loc 1 262 5 discriminator 3 view .LVU630
 2231              	.LBB43:
 262:../switch_sdk/core/yt/yt_port.c ****     CMM_PARAM_CHK(NULL == YT_DISPATCH(unit), CMM_ERR_NOT_INIT);
 2232              		.loc 1 262 5 discriminator 3 view .LVU631
 2233 0042 244B     		ldr	r3, .L240+16
 2234 0044 5A69     		ldr	r2, [r3, #20]
 2235              	.LVL282:
 262:../switch_sdk/core/yt/yt_port.c ****     CMM_PARAM_CHK(NULL == YT_DISPATCH(unit), CMM_ERR_NOT_INIT);
 2236              		.loc 1 262 5 is_stmt 0 discriminator 3 view .LVU632
 2237 0046 244B     		ldr	r3, .L240+20
 2238 0048 9968     		ldr	r1, [r3, #8]
 2239              	.LVL283:
 262:../switch_sdk/core/yt/yt_port.c ****     CMM_PARAM_CHK(NULL == YT_DISPATCH(unit), CMM_ERR_NOT_INIT);
 2240              		.loc 1 262 5 discriminator 3 view .LVU633
 2241 004a 2448     		ldr	r0, .L240+24
 2242              	.LVL284:
 262:../switch_sdk/core/yt/yt_port.c ****     CMM_PARAM_CHK(NULL == YT_DISPATCH(unit), CMM_ERR_NOT_INIT);
 2243              		.loc 1 262 5 discriminator 3 view .LVU634
 2244 004c FFF7FEFF 		bl	osal_printf
 2245              	.LVL285:
 2246 0050 F5E7     		b	.L219
 2247              	.LVL286:
 2248              	.L232:
 262:../switch_sdk/core/yt/yt_port.c ****     CMM_PARAM_CHK(NULL == YT_DISPATCH(unit), CMM_ERR_NOT_INIT);
 2249              		.loc 1 262 5 discriminator 3 view .LVU635
 2250              	.LBE43:
 263:../switch_sdk/core/yt/yt_port.c ****     CMM_PARAM_CHK((!(YT_DISPATCH(unit)->is_inited)), CMM_ERR_NOT_INIT);
 2251              		.loc 1 263 5 is_stmt 1 discriminator 1 view .LVU636
 263:../switch_sdk/core/yt/yt_port.c ****     CMM_PARAM_CHK((!(YT_DISPATCH(unit)->is_inited)), CMM_ERR_NOT_INIT);
 2252              		.loc 1 263 5 discriminator 1 view .LVU637
 2253 0052 1F4B     		ldr	r3, .L240+12
 2254 0054 1B78     		ldrb	r3, [r3]	@ zero_extendqisi2
 2255 0056 012B     		cmp	r3, #1
 2256 0058 01D8     		bhi	.L236
 2257              	.LVL287:
 2258              	.L222:
 263:../switch_sdk/core/yt/yt_port.c ****     CMM_PARAM_CHK((!(YT_DISPATCH(unit)->is_inited)), CMM_ERR_NOT_INIT);
 2259              		.loc 1 263 5 discriminator 5 view .LVU638
 263:../switch_sdk/core/yt/yt_port.c ****     CMM_PARAM_CHK((!(YT_DISPATCH(unit)->is_inited)), CMM_ERR_NOT_INIT);
 2260              		.loc 1 263 5 discriminator 5 view .LVU639
 263:../switch_sdk/core/yt/yt_port.c ****     CMM_PARAM_CHK((!(YT_DISPATCH(unit)->is_inited)), CMM_ERR_NOT_INIT);
 2261              		.loc 1 263 5 discriminator 5 view .LVU640
 2262 005a 0420     		movs	r0, #4
 2263 005c EAE7     		b	.L217
 2264              	.LVL288:
 2265              	.L236:
 263:../switch_sdk/core/yt/yt_port.c ****     CMM_PARAM_CHK((!(YT_DISPATCH(unit)->is_inited)), CMM_ERR_NOT_INIT);
 2266              		.loc 1 263 5 discriminator 3 view .LVU641
 2267              	.LBB44:
 263:../switch_sdk/core/yt/yt_port.c ****     CMM_PARAM_CHK((!(YT_DISPATCH(unit)->is_inited)), CMM_ERR_NOT_INIT);
 2268              		.loc 1 263 5 discriminator 3 view .LVU642
 2269 005e 1D4B     		ldr	r3, .L240+16
 2270 0060 1A69     		ldr	r2, [r3, #16]
 2271              	.LVL289:
 263:../switch_sdk/core/yt/yt_port.c ****     CMM_PARAM_CHK((!(YT_DISPATCH(unit)->is_inited)), CMM_ERR_NOT_INIT);
 2272              		.loc 1 263 5 is_stmt 0 discriminator 3 view .LVU643
 2273 0062 1D4B     		ldr	r3, .L240+20
 2274 0064 9968     		ldr	r1, [r3, #8]
 2275              	.LVL290:
 263:../switch_sdk/core/yt/yt_port.c ****     CMM_PARAM_CHK((!(YT_DISPATCH(unit)->is_inited)), CMM_ERR_NOT_INIT);
 2276              		.loc 1 263 5 discriminator 3 view .LVU644
 2277 0066 1D48     		ldr	r0, .L240+24
 2278              	.LVL291:
 263:../switch_sdk/core/yt/yt_port.c ****     CMM_PARAM_CHK((!(YT_DISPATCH(unit)->is_inited)), CMM_ERR_NOT_INIT);
 2279              		.loc 1 263 5 discriminator 3 view .LVU645
 2280 0068 FFF7FEFF 		bl	osal_printf
 2281              	.LVL292:
 2282 006c F5E7     		b	.L222
 2283              	.LVL293:
 2284              	.L233:
 263:../switch_sdk/core/yt/yt_port.c ****     CMM_PARAM_CHK((!(YT_DISPATCH(unit)->is_inited)), CMM_ERR_NOT_INIT);
 2285              		.loc 1 263 5 discriminator 3 view .LVU646
 2286              	.LBE44:
 264:../switch_sdk/core/yt/yt_port.c ****     CMM_PARAM_CHK((!(CMM_PORT_VALID(unit, port))), CMM_ERR_PORT);
 2287              		.loc 1 264 5 is_stmt 1 discriminator 1 view .LVU647
 264:../switch_sdk/core/yt/yt_port.c ****     CMM_PARAM_CHK((!(CMM_PORT_VALID(unit, port))), CMM_ERR_PORT);
 2288              		.loc 1 264 5 discriminator 1 view .LVU648
 2289 006e 184B     		ldr	r3, .L240+12
 2290 0070 1B78     		ldrb	r3, [r3]	@ zero_extendqisi2
 2291 0072 012B     		cmp	r3, #1
 2292 0074 01D8     		bhi	.L237
 2293              	.LVL294:
 2294              	.L224:
 264:../switch_sdk/core/yt/yt_port.c ****     CMM_PARAM_CHK((!(CMM_PORT_VALID(unit, port))), CMM_ERR_PORT);
 2295              		.loc 1 264 5 discriminator 5 view .LVU649
 264:../switch_sdk/core/yt/yt_port.c ****     CMM_PARAM_CHK((!(CMM_PORT_VALID(unit, port))), CMM_ERR_PORT);
 2296              		.loc 1 264 5 discriminator 5 view .LVU650
 264:../switch_sdk/core/yt/yt_port.c ****     CMM_PARAM_CHK((!(CMM_PORT_VALID(unit, port))), CMM_ERR_PORT);
 2297              		.loc 1 264 5 discriminator 5 view .LVU651
 2298 0076 0420     		movs	r0, #4
 2299 0078 DCE7     		b	.L217
 2300              	.LVL295:
 2301              	.L237:
 264:../switch_sdk/core/yt/yt_port.c ****     CMM_PARAM_CHK((!(CMM_PORT_VALID(unit, port))), CMM_ERR_PORT);
 2302              		.loc 1 264 5 discriminator 3 view .LVU652
 2303              	.LBB45:
 264:../switch_sdk/core/yt/yt_port.c ****     CMM_PARAM_CHK((!(CMM_PORT_VALID(unit, port))), CMM_ERR_PORT);
 2304              		.loc 1 264 5 discriminator 3 view .LVU653
 2305 007a 164B     		ldr	r3, .L240+16
 2306 007c 1A69     		ldr	r2, [r3, #16]
 2307              	.LVL296:
 264:../switch_sdk/core/yt/yt_port.c ****     CMM_PARAM_CHK((!(CMM_PORT_VALID(unit, port))), CMM_ERR_PORT);
 2308              		.loc 1 264 5 is_stmt 0 discriminator 3 view .LVU654
 2309 007e 164B     		ldr	r3, .L240+20
 2310 0080 9968     		ldr	r1, [r3, #8]
 2311              	.LVL297:
 264:../switch_sdk/core/yt/yt_port.c ****     CMM_PARAM_CHK((!(CMM_PORT_VALID(unit, port))), CMM_ERR_PORT);
 2312              		.loc 1 264 5 discriminator 3 view .LVU655
 2313 0082 1648     		ldr	r0, .L240+24
 2314 0084 FFF7FEFF 		bl	osal_printf
 2315              	.LVL298:
 2316 0088 F5E7     		b	.L224
 2317              	.LVL299:
 2318              	.L225:
 264:../switch_sdk/core/yt/yt_port.c ****     CMM_PARAM_CHK((!(CMM_PORT_VALID(unit, port))), CMM_ERR_PORT);
 2319              		.loc 1 264 5 discriminator 3 view .LVU656
 2320              	.LBE45:
 265:../switch_sdk/core/yt/yt_port.c ****     CMM_PARAM_CHK((NULL == pGap), CMM_ERR_NULL_POINT);
 2321              		.loc 1 265 5 is_stmt 1 discriminator 3 view .LVU657
 265:../switch_sdk/core/yt/yt_port.c ****     CMM_PARAM_CHK((NULL == pGap), CMM_ERR_NULL_POINT);
 2322              		.loc 1 265 5 discriminator 3 view .LVU658
 2323 008a 114B     		ldr	r3, .L240+12
 2324 008c 1B78     		ldrb	r3, [r3]	@ zero_extendqisi2
 2325 008e 012B     		cmp	r3, #1
 2326 0090 01D8     		bhi	.L238
 2327              	.LVL300:
 2328              	.L227:
 265:../switch_sdk/core/yt/yt_port.c ****     CMM_PARAM_CHK((NULL == pGap), CMM_ERR_NULL_POINT);
 2329              		.loc 1 265 5 discriminator 7 view .LVU659
 265:../switch_sdk/core/yt/yt_port.c ****     CMM_PARAM_CHK((NULL == pGap), CMM_ERR_NULL_POINT);
 2330              		.loc 1 265 5 discriminator 7 view .LVU660
 265:../switch_sdk/core/yt/yt_port.c ****     CMM_PARAM_CHK((NULL == pGap), CMM_ERR_NULL_POINT);
 2331              		.loc 1 265 5 discriminator 7 view .LVU661
 2332 0092 0E20     		movs	r0, #14
 2333 0094 CEE7     		b	.L217
 2334              	.LVL301:
 2335              	.L238:
 265:../switch_sdk/core/yt/yt_port.c ****     CMM_PARAM_CHK((NULL == pGap), CMM_ERR_NULL_POINT);
 2336              		.loc 1 265 5 discriminator 5 view .LVU662
 2337              	.LBB46:
 265:../switch_sdk/core/yt/yt_port.c ****     CMM_PARAM_CHK((NULL == pGap), CMM_ERR_NULL_POINT);
 2338              		.loc 1 265 5 discriminator 5 view .LVU663
 2339 0096 0F4B     		ldr	r3, .L240+16
 2340 0098 9A6B     		ldr	r2, [r3, #56]
 2341              	.LVL302:
 265:../switch_sdk/core/yt/yt_port.c ****     CMM_PARAM_CHK((NULL == pGap), CMM_ERR_NULL_POINT);
 2342              		.loc 1 265 5 is_stmt 0 discriminator 5 view .LVU664
 2343 009a 0F4B     		ldr	r3, .L240+20
 2344 009c 9968     		ldr	r1, [r3, #8]
 2345              	.LVL303:
 265:../switch_sdk/core/yt/yt_port.c ****     CMM_PARAM_CHK((NULL == pGap), CMM_ERR_NULL_POINT);
 2346              		.loc 1 265 5 discriminator 5 view .LVU665
 2347 009e 0F48     		ldr	r0, .L240+24
 2348 00a0 FFF7FEFF 		bl	osal_printf
 2349              	.LVL304:
 2350 00a4 F5E7     		b	.L227
 2351              	.LVL305:
 2352              	.L234:
 265:../switch_sdk/core/yt/yt_port.c ****     CMM_PARAM_CHK((NULL == pGap), CMM_ERR_NULL_POINT);
 2353              		.loc 1 265 5 discriminator 5 view .LVU666
 2354              	.LBE46:
 266:../switch_sdk/core/yt/yt_port.c **** 
 2355              		.loc 1 266 5 is_stmt 1 discriminator 1 view .LVU667
 266:../switch_sdk/core/yt/yt_port.c **** 
 2356              		.loc 1 266 5 discriminator 1 view .LVU668
 2357 00a6 0A4B     		ldr	r3, .L240+12
 2358 00a8 1B78     		ldrb	r3, [r3]	@ zero_extendqisi2
 2359 00aa 012B     		cmp	r3, #1
 2360 00ac 01D8     		bhi	.L239
 2361              	.LVL306:
 2362              	.L229:
 266:../switch_sdk/core/yt/yt_port.c **** 
 2363              		.loc 1 266 5 discriminator 5 view .LVU669
 266:../switch_sdk/core/yt/yt_port.c **** 
 2364              		.loc 1 266 5 discriminator 5 view .LVU670
 266:../switch_sdk/core/yt/yt_port.c **** 
 2365              		.loc 1 266 5 discriminator 5 view .LVU671
 2366 00ae 0220     		movs	r0, #2
 2367 00b0 C0E7     		b	.L217
 2368              	.LVL307:
 2369              	.L239:
 266:../switch_sdk/core/yt/yt_port.c **** 
 2370              		.loc 1 266 5 discriminator 3 view .LVU672
 2371              	.LBB47:
 266:../switch_sdk/core/yt/yt_port.c **** 
 2372              		.loc 1 266 5 discriminator 3 view .LVU673
 2373 00b2 084B     		ldr	r3, .L240+16
 2374 00b4 9A68     		ldr	r2, [r3, #8]
 2375              	.LVL308:
 266:../switch_sdk/core/yt/yt_port.c **** 
 2376              		.loc 1 266 5 is_stmt 0 discriminator 3 view .LVU674
 2377 00b6 084B     		ldr	r3, .L240+20
 2378 00b8 9968     		ldr	r1, [r3, #8]
 2379              	.LVL309:
 266:../switch_sdk/core/yt/yt_port.c **** 
 2380              		.loc 1 266 5 discriminator 3 view .LVU675
 2381 00ba 0848     		ldr	r0, .L240+24
 2382 00bc FFF7FEFF 		bl	osal_printf
 2383              	.LVL310:
 2384 00c0 F5E7     		b	.L229
 2385              	.L241:
 2386 00c2 00BF     		.align	2
 2387              	.L240:
 2388 00c4 00000000 		.word	gpfal_dispatch
 2389 00c8 00000000 		.word	gcal_inited
 2390 00cc 00000000 		.word	gpSwitchUnit
 2391 00d0 00000000 		.word	yt_debug_level
 2392 00d4 00000000 		.word	_yt_errmsg
 2393 00d8 00000000 		.word	_yt_prompt_msg
 2394 00dc 00000000 		.word	.LC0
 2395              	.LBE47:
 2396              		.cfi_endproc
 2397              	.LFE13:
 2399              		.section	.text.yt_port_macAutoNeg_enable_set,"ax",%progbits
 2400              		.align	1
 2401              		.global	yt_port_macAutoNeg_enable_set
 2402              		.syntax unified
 2403              		.thumb
 2404              		.thumb_func
 2406              	yt_port_macAutoNeg_enable_set:
 2407              	.LVL311:
 2408              	.LFB14:
 270:../switch_sdk/core/yt/yt_port.c **** 
 271:../switch_sdk/core/yt/yt_port.c **** /**
 272:../switch_sdk/core/yt/yt_port.c ****  * @internal      yt_port_macAutoNeg_enable_set
 273:../switch_sdk/core/yt/yt_port.c ****  * @endinternal
 274:../switch_sdk/core/yt/yt_port.c ****  *
 275:../switch_sdk/core/yt/yt_port.c ****  * @brief         Description
 276:../switch_sdk/core/yt/yt_port.c ****  * @note          APPLICABLE DEVICES  -Tiger
 277:../switch_sdk/core/yt/yt_port.c ****  * @param[in]     unit                -unit id
 278:../switch_sdk/core/yt/yt_port.c ****  * @param[in]     port                -port num
 279:../switch_sdk/core/yt/yt_port.c ****  * @param[in]     enable              -enable or disable
 280:../switch_sdk/core/yt/yt_port.c ****  * @retval        CMM_ERR_OK          -on success
 281:../switch_sdk/core/yt/yt_port.c ****  * @retval        CMM_ERR_FAIL        -on fail
 282:../switch_sdk/core/yt/yt_port.c ****  */
 283:../switch_sdk/core/yt/yt_port.c **** yt_ret_t yt_port_macAutoNeg_enable_set(yt_unit_t unit, yt_port_t port, yt_enable_t enable)
 284:../switch_sdk/core/yt/yt_port.c **** {
 2409              		.loc 1 284 1 is_stmt 1 view -0
 2410              		.cfi_startproc
 2411              		@ args = 0, pretend = 0, frame = 0
 2412              		@ frame_needed = 0, uses_anonymous_args = 0
 2413              		.loc 1 284 1 is_stmt 0 view .LVU677
 2414 0000 08B5     		push	{r3, lr}
 2415              		.cfi_def_cfa_offset 8
 2416              		.cfi_offset 3, -8
 2417              		.cfi_offset 14, -4
 285:../switch_sdk/core/yt/yt_port.c ****     CMM_PARAM_CHK((YT_UNIT_NUM <= unit), CMM_ERR_INPUT);
 2418              		.loc 1 285 5 is_stmt 1 view .LVU678
 2419              		.loc 1 285 5 view .LVU679
 2420 0002 C0B9     		cbnz	r0, .L256
 2421 0004 8446     		mov	ip, r0
 2422              		.loc 1 285 5 discriminator 2 view .LVU680
 286:../switch_sdk/core/yt/yt_port.c ****     CMM_PARAM_CHK(NULL == YT_DISPATCH(unit), CMM_ERR_NOT_INIT);
 2423              		.loc 1 286 5 discriminator 2 view .LVU681
 2424              		.loc 1 286 5 discriminator 2 view .LVU682
 2425 0006 2F4B     		ldr	r3, .L265
 2426 0008 53F82030 		ldr	r3, [r3, r0, lsl #2]
 2427 000c 0BB3     		cbz	r3, .L257
 2428              		.loc 1 286 5 discriminator 2 view .LVU683
 287:../switch_sdk/core/yt/yt_port.c ****     CMM_PARAM_CHK((!(YT_DISPATCH(unit)->is_inited)), CMM_ERR_NOT_INIT);
 2429              		.loc 1 287 5 discriminator 2 view .LVU684
 2430              		.loc 1 287 5 discriminator 2 view .LVU685
 2431 000e 1878     		ldrb	r0, [r3]	@ zero_extendqisi2
 2432              	.LVL312:
 2433              		.loc 1 287 5 is_stmt 0 discriminator 2 view .LVU686
 2434 0010 0028     		cmp	r0, #0
 2435 0012 2CD0     		beq	.L258
 2436              		.loc 1 287 5 is_stmt 1 discriminator 2 view .LVU687
 288:../switch_sdk/core/yt/yt_port.c ****     CMM_PARAM_CHK((!(CMM_PORT_VALID(unit, port))), CMM_ERR_PORT);
 2437              		.loc 1 288 5 discriminator 2 view .LVU688
 2438              		.loc 1 288 5 discriminator 2 view .LVU689
 2439 0014 2C48     		ldr	r0, .L265+4
 2440 0016 0078     		ldrb	r0, [r0]	@ zero_extendqisi2
 2441 0018 0028     		cmp	r0, #0
 2442 001a 36D0     		beq	.L250
 2443 001c 2B48     		ldr	r0, .L265+8
 2444 001e 50F82C00 		ldr	r0, [r0, ip, lsl #2]
 2445 0022 007D     		ldrb	r0, [r0, #20]	@ zero_extendqisi2
 2446 0024 8842     		cmp	r0, r1
 2447 0026 30D9     		bls	.L250
 2448              		.loc 1 288 5 discriminator 4 view .LVU690
 289:../switch_sdk/core/yt/yt_port.c ****     CMM_PARAM_CHK((YT_ENABLE < enable || YT_DISABLE > enable), CMM_ERR_INPUT);
 2449              		.loc 1 289 5 discriminator 4 view .LVU691
 2450              		.loc 1 289 5 discriminator 4 view .LVU692
 2451 0028 012A     		cmp	r2, #1
 2452 002a 3CD8     		bhi	.L259
 2453              		.loc 1 289 5 discriminator 2 view .LVU693
 290:../switch_sdk/core/yt/yt_port.c **** 
 291:../switch_sdk/core/yt/yt_port.c ****     return YT_DISPATCH(unit)->port_macAutoNeg_enable_set(unit, port, enable);
 2454              		.loc 1 291 5 discriminator 2 view .LVU694
 2455              		.loc 1 291 29 is_stmt 0 discriminator 2 view .LVU695
 2456 002c D3F87C35 		ldr	r3, [r3, #1404]
 2457              		.loc 1 291 12 discriminator 2 view .LVU696
 2458 0030 6046     		mov	r0, ip
 2459 0032 9847     		blx	r3
 2460              	.LVL313:
 2461              	.L242:
 292:../switch_sdk/core/yt/yt_port.c **** }
 2462              		.loc 1 292 1 view .LVU697
 2463 0034 08BD     		pop	{r3, pc}
 2464              	.LVL314:
 2465              	.L256:
 285:../switch_sdk/core/yt/yt_port.c ****     CMM_PARAM_CHK(NULL == YT_DISPATCH(unit), CMM_ERR_NOT_INIT);
 2466              		.loc 1 285 5 is_stmt 1 discriminator 1 view .LVU698
 285:../switch_sdk/core/yt/yt_port.c ****     CMM_PARAM_CHK(NULL == YT_DISPATCH(unit), CMM_ERR_NOT_INIT);
 2467              		.loc 1 285 5 discriminator 1 view .LVU699
 2468 0036 264B     		ldr	r3, .L265+12
 2469 0038 1B78     		ldrb	r3, [r3]	@ zero_extendqisi2
 2470 003a 012B     		cmp	r3, #1
 2471 003c 01D8     		bhi	.L260
 2472              	.LVL315:
 2473              	.L244:
 285:../switch_sdk/core/yt/yt_port.c ****     CMM_PARAM_CHK(NULL == YT_DISPATCH(unit), CMM_ERR_NOT_INIT);
 2474              		.loc 1 285 5 discriminator 5 view .LVU700
 285:../switch_sdk/core/yt/yt_port.c ****     CMM_PARAM_CHK(NULL == YT_DISPATCH(unit), CMM_ERR_NOT_INIT);
 2475              		.loc 1 285 5 discriminator 5 view .LVU701
 285:../switch_sdk/core/yt/yt_port.c ****     CMM_PARAM_CHK(NULL == YT_DISPATCH(unit), CMM_ERR_NOT_INIT);
 2476              		.loc 1 285 5 discriminator 5 view .LVU702
 2477 003e 0520     		movs	r0, #5
 2478 0040 F8E7     		b	.L242
 2479              	.LVL316:
 2480              	.L260:
 285:../switch_sdk/core/yt/yt_port.c ****     CMM_PARAM_CHK(NULL == YT_DISPATCH(unit), CMM_ERR_NOT_INIT);
 2481              		.loc 1 285 5 discriminator 3 view .LVU703
 2482              	.LBB48:
 285:../switch_sdk/core/yt/yt_port.c ****     CMM_PARAM_CHK(NULL == YT_DISPATCH(unit), CMM_ERR_NOT_INIT);
 2483              		.loc 1 285 5 discriminator 3 view .LVU704
 2484 0042 244B     		ldr	r3, .L265+16
 2485 0044 5A69     		ldr	r2, [r3, #20]
 2486              	.LVL317:
 285:../switch_sdk/core/yt/yt_port.c ****     CMM_PARAM_CHK(NULL == YT_DISPATCH(unit), CMM_ERR_NOT_INIT);
 2487              		.loc 1 285 5 is_stmt 0 discriminator 3 view .LVU705
 2488 0046 244B     		ldr	r3, .L265+20
 2489 0048 9968     		ldr	r1, [r3, #8]
 2490              	.LVL318:
 285:../switch_sdk/core/yt/yt_port.c ****     CMM_PARAM_CHK(NULL == YT_DISPATCH(unit), CMM_ERR_NOT_INIT);
 2491              		.loc 1 285 5 discriminator 3 view .LVU706
 2492 004a 2448     		ldr	r0, .L265+24
 2493              	.LVL319:
 285:../switch_sdk/core/yt/yt_port.c ****     CMM_PARAM_CHK(NULL == YT_DISPATCH(unit), CMM_ERR_NOT_INIT);
 2494              		.loc 1 285 5 discriminator 3 view .LVU707
 2495 004c FFF7FEFF 		bl	osal_printf
 2496              	.LVL320:
 2497 0050 F5E7     		b	.L244
 2498              	.LVL321:
 2499              	.L257:
 285:../switch_sdk/core/yt/yt_port.c ****     CMM_PARAM_CHK(NULL == YT_DISPATCH(unit), CMM_ERR_NOT_INIT);
 2500              		.loc 1 285 5 discriminator 3 view .LVU708
 2501              	.LBE48:
 286:../switch_sdk/core/yt/yt_port.c ****     CMM_PARAM_CHK((!(YT_DISPATCH(unit)->is_inited)), CMM_ERR_NOT_INIT);
 2502              		.loc 1 286 5 is_stmt 1 discriminator 1 view .LVU709
 286:../switch_sdk/core/yt/yt_port.c ****     CMM_PARAM_CHK((!(YT_DISPATCH(unit)->is_inited)), CMM_ERR_NOT_INIT);
 2503              		.loc 1 286 5 discriminator 1 view .LVU710
 2504 0052 1F4B     		ldr	r3, .L265+12
 2505 0054 1B78     		ldrb	r3, [r3]	@ zero_extendqisi2
 2506 0056 012B     		cmp	r3, #1
 2507 0058 01D8     		bhi	.L261
 2508              	.LVL322:
 2509              	.L247:
 286:../switch_sdk/core/yt/yt_port.c ****     CMM_PARAM_CHK((!(YT_DISPATCH(unit)->is_inited)), CMM_ERR_NOT_INIT);
 2510              		.loc 1 286 5 discriminator 5 view .LVU711
 286:../switch_sdk/core/yt/yt_port.c ****     CMM_PARAM_CHK((!(YT_DISPATCH(unit)->is_inited)), CMM_ERR_NOT_INIT);
 2511              		.loc 1 286 5 discriminator 5 view .LVU712
 286:../switch_sdk/core/yt/yt_port.c ****     CMM_PARAM_CHK((!(YT_DISPATCH(unit)->is_inited)), CMM_ERR_NOT_INIT);
 2512              		.loc 1 286 5 discriminator 5 view .LVU713
 2513 005a 0420     		movs	r0, #4
 2514 005c EAE7     		b	.L242
 2515              	.LVL323:
 2516              	.L261:
 286:../switch_sdk/core/yt/yt_port.c ****     CMM_PARAM_CHK((!(YT_DISPATCH(unit)->is_inited)), CMM_ERR_NOT_INIT);
 2517              		.loc 1 286 5 discriminator 3 view .LVU714
 2518              	.LBB49:
 286:../switch_sdk/core/yt/yt_port.c ****     CMM_PARAM_CHK((!(YT_DISPATCH(unit)->is_inited)), CMM_ERR_NOT_INIT);
 2519              		.loc 1 286 5 discriminator 3 view .LVU715
 2520 005e 1D4B     		ldr	r3, .L265+16
 2521 0060 1A69     		ldr	r2, [r3, #16]
 2522              	.LVL324:
 286:../switch_sdk/core/yt/yt_port.c ****     CMM_PARAM_CHK((!(YT_DISPATCH(unit)->is_inited)), CMM_ERR_NOT_INIT);
 2523              		.loc 1 286 5 is_stmt 0 discriminator 3 view .LVU716
 2524 0062 1D4B     		ldr	r3, .L265+20
 2525 0064 9968     		ldr	r1, [r3, #8]
 2526              	.LVL325:
 286:../switch_sdk/core/yt/yt_port.c ****     CMM_PARAM_CHK((!(YT_DISPATCH(unit)->is_inited)), CMM_ERR_NOT_INIT);
 2527              		.loc 1 286 5 discriminator 3 view .LVU717
 2528 0066 1D48     		ldr	r0, .L265+24
 2529              	.LVL326:
 286:../switch_sdk/core/yt/yt_port.c ****     CMM_PARAM_CHK((!(YT_DISPATCH(unit)->is_inited)), CMM_ERR_NOT_INIT);
 2530              		.loc 1 286 5 discriminator 3 view .LVU718
 2531 0068 FFF7FEFF 		bl	osal_printf
 2532              	.LVL327:
 2533 006c F5E7     		b	.L247
 2534              	.LVL328:
 2535              	.L258:
 286:../switch_sdk/core/yt/yt_port.c ****     CMM_PARAM_CHK((!(YT_DISPATCH(unit)->is_inited)), CMM_ERR_NOT_INIT);
 2536              		.loc 1 286 5 discriminator 3 view .LVU719
 2537              	.LBE49:
 287:../switch_sdk/core/yt/yt_port.c ****     CMM_PARAM_CHK((!(CMM_PORT_VALID(unit, port))), CMM_ERR_PORT);
 2538              		.loc 1 287 5 is_stmt 1 discriminator 1 view .LVU720
 287:../switch_sdk/core/yt/yt_port.c ****     CMM_PARAM_CHK((!(CMM_PORT_VALID(unit, port))), CMM_ERR_PORT);
 2539              		.loc 1 287 5 discriminator 1 view .LVU721
 2540 006e 184B     		ldr	r3, .L265+12
 2541 0070 1B78     		ldrb	r3, [r3]	@ zero_extendqisi2
 2542 0072 012B     		cmp	r3, #1
 2543 0074 01D8     		bhi	.L262
 2544              	.LVL329:
 2545              	.L249:
 287:../switch_sdk/core/yt/yt_port.c ****     CMM_PARAM_CHK((!(CMM_PORT_VALID(unit, port))), CMM_ERR_PORT);
 2546              		.loc 1 287 5 discriminator 5 view .LVU722
 287:../switch_sdk/core/yt/yt_port.c ****     CMM_PARAM_CHK((!(CMM_PORT_VALID(unit, port))), CMM_ERR_PORT);
 2547              		.loc 1 287 5 discriminator 5 view .LVU723
 287:../switch_sdk/core/yt/yt_port.c ****     CMM_PARAM_CHK((!(CMM_PORT_VALID(unit, port))), CMM_ERR_PORT);
 2548              		.loc 1 287 5 discriminator 5 view .LVU724
 2549 0076 0420     		movs	r0, #4
 2550 0078 DCE7     		b	.L242
 2551              	.LVL330:
 2552              	.L262:
 287:../switch_sdk/core/yt/yt_port.c ****     CMM_PARAM_CHK((!(CMM_PORT_VALID(unit, port))), CMM_ERR_PORT);
 2553              		.loc 1 287 5 discriminator 3 view .LVU725
 2554              	.LBB50:
 287:../switch_sdk/core/yt/yt_port.c ****     CMM_PARAM_CHK((!(CMM_PORT_VALID(unit, port))), CMM_ERR_PORT);
 2555              		.loc 1 287 5 discriminator 3 view .LVU726
 2556 007a 164B     		ldr	r3, .L265+16
 2557 007c 1A69     		ldr	r2, [r3, #16]
 2558              	.LVL331:
 287:../switch_sdk/core/yt/yt_port.c ****     CMM_PARAM_CHK((!(CMM_PORT_VALID(unit, port))), CMM_ERR_PORT);
 2559              		.loc 1 287 5 is_stmt 0 discriminator 3 view .LVU727
 2560 007e 164B     		ldr	r3, .L265+20
 2561 0080 9968     		ldr	r1, [r3, #8]
 2562              	.LVL332:
 287:../switch_sdk/core/yt/yt_port.c ****     CMM_PARAM_CHK((!(CMM_PORT_VALID(unit, port))), CMM_ERR_PORT);
 2563              		.loc 1 287 5 discriminator 3 view .LVU728
 2564 0082 1648     		ldr	r0, .L265+24
 2565 0084 FFF7FEFF 		bl	osal_printf
 2566              	.LVL333:
 2567 0088 F5E7     		b	.L249
 2568              	.LVL334:
 2569              	.L250:
 287:../switch_sdk/core/yt/yt_port.c ****     CMM_PARAM_CHK((!(CMM_PORT_VALID(unit, port))), CMM_ERR_PORT);
 2570              		.loc 1 287 5 discriminator 3 view .LVU729
 2571              	.LBE50:
 288:../switch_sdk/core/yt/yt_port.c ****     CMM_PARAM_CHK((YT_ENABLE < enable || YT_DISABLE > enable), CMM_ERR_INPUT);
 2572              		.loc 1 288 5 is_stmt 1 discriminator 3 view .LVU730
 288:../switch_sdk/core/yt/yt_port.c ****     CMM_PARAM_CHK((YT_ENABLE < enable || YT_DISABLE > enable), CMM_ERR_INPUT);
 2573              		.loc 1 288 5 discriminator 3 view .LVU731
 2574 008a 114B     		ldr	r3, .L265+12
 2575 008c 1B78     		ldrb	r3, [r3]	@ zero_extendqisi2
 2576 008e 012B     		cmp	r3, #1
 2577 0090 01D8     		bhi	.L263
 2578              	.LVL335:
 2579              	.L252:
 288:../switch_sdk/core/yt/yt_port.c ****     CMM_PARAM_CHK((YT_ENABLE < enable || YT_DISABLE > enable), CMM_ERR_INPUT);
 2580              		.loc 1 288 5 discriminator 7 view .LVU732
 288:../switch_sdk/core/yt/yt_port.c ****     CMM_PARAM_CHK((YT_ENABLE < enable || YT_DISABLE > enable), CMM_ERR_INPUT);
 2581              		.loc 1 288 5 discriminator 7 view .LVU733
 288:../switch_sdk/core/yt/yt_port.c ****     CMM_PARAM_CHK((YT_ENABLE < enable || YT_DISABLE > enable), CMM_ERR_INPUT);
 2582              		.loc 1 288 5 discriminator 7 view .LVU734
 2583 0092 0E20     		movs	r0, #14
 2584 0094 CEE7     		b	.L242
 2585              	.LVL336:
 2586              	.L263:
 288:../switch_sdk/core/yt/yt_port.c ****     CMM_PARAM_CHK((YT_ENABLE < enable || YT_DISABLE > enable), CMM_ERR_INPUT);
 2587              		.loc 1 288 5 discriminator 5 view .LVU735
 2588              	.LBB51:
 288:../switch_sdk/core/yt/yt_port.c ****     CMM_PARAM_CHK((YT_ENABLE < enable || YT_DISABLE > enable), CMM_ERR_INPUT);
 2589              		.loc 1 288 5 discriminator 5 view .LVU736
 2590 0096 0F4B     		ldr	r3, .L265+16
 2591 0098 9A6B     		ldr	r2, [r3, #56]
 2592              	.LVL337:
 288:../switch_sdk/core/yt/yt_port.c ****     CMM_PARAM_CHK((YT_ENABLE < enable || YT_DISABLE > enable), CMM_ERR_INPUT);
 2593              		.loc 1 288 5 is_stmt 0 discriminator 5 view .LVU737
 2594 009a 0F4B     		ldr	r3, .L265+20
 2595 009c 9968     		ldr	r1, [r3, #8]
 2596              	.LVL338:
 288:../switch_sdk/core/yt/yt_port.c ****     CMM_PARAM_CHK((YT_ENABLE < enable || YT_DISABLE > enable), CMM_ERR_INPUT);
 2597              		.loc 1 288 5 discriminator 5 view .LVU738
 2598 009e 0F48     		ldr	r0, .L265+24
 2599 00a0 FFF7FEFF 		bl	osal_printf
 2600              	.LVL339:
 2601 00a4 F5E7     		b	.L252
 2602              	.LVL340:
 2603              	.L259:
 288:../switch_sdk/core/yt/yt_port.c ****     CMM_PARAM_CHK((YT_ENABLE < enable || YT_DISABLE > enable), CMM_ERR_INPUT);
 2604              		.loc 1 288 5 discriminator 5 view .LVU739
 2605              	.LBE51:
 289:../switch_sdk/core/yt/yt_port.c **** 
 2606              		.loc 1 289 5 is_stmt 1 discriminator 1 view .LVU740
 289:../switch_sdk/core/yt/yt_port.c **** 
 2607              		.loc 1 289 5 discriminator 1 view .LVU741
 2608 00a6 0A4B     		ldr	r3, .L265+12
 2609 00a8 1B78     		ldrb	r3, [r3]	@ zero_extendqisi2
 2610 00aa 012B     		cmp	r3, #1
 2611 00ac 01D8     		bhi	.L264
 2612              	.LVL341:
 2613              	.L254:
 289:../switch_sdk/core/yt/yt_port.c **** 
 2614              		.loc 1 289 5 discriminator 5 view .LVU742
 289:../switch_sdk/core/yt/yt_port.c **** 
 2615              		.loc 1 289 5 discriminator 5 view .LVU743
 289:../switch_sdk/core/yt/yt_port.c **** 
 2616              		.loc 1 289 5 discriminator 5 view .LVU744
 2617 00ae 0520     		movs	r0, #5
 2618 00b0 C0E7     		b	.L242
 2619              	.LVL342:
 2620              	.L264:
 289:../switch_sdk/core/yt/yt_port.c **** 
 2621              		.loc 1 289 5 discriminator 3 view .LVU745
 2622              	.LBB52:
 289:../switch_sdk/core/yt/yt_port.c **** 
 2623              		.loc 1 289 5 discriminator 3 view .LVU746
 2624 00b2 084B     		ldr	r3, .L265+16
 2625 00b4 5A69     		ldr	r2, [r3, #20]
 2626              	.LVL343:
 289:../switch_sdk/core/yt/yt_port.c **** 
 2627              		.loc 1 289 5 is_stmt 0 discriminator 3 view .LVU747
 2628 00b6 084B     		ldr	r3, .L265+20
 2629 00b8 9968     		ldr	r1, [r3, #8]
 2630              	.LVL344:
 289:../switch_sdk/core/yt/yt_port.c **** 
 2631              		.loc 1 289 5 discriminator 3 view .LVU748
 2632 00ba 0848     		ldr	r0, .L265+24
 2633 00bc FFF7FEFF 		bl	osal_printf
 2634              	.LVL345:
 2635 00c0 F5E7     		b	.L254
 2636              	.L266:
 2637 00c2 00BF     		.align	2
 2638              	.L265:
 2639 00c4 00000000 		.word	gpfal_dispatch
 2640 00c8 00000000 		.word	gcal_inited
 2641 00cc 00000000 		.word	gpSwitchUnit
 2642 00d0 00000000 		.word	yt_debug_level
 2643 00d4 00000000 		.word	_yt_errmsg
 2644 00d8 00000000 		.word	_yt_prompt_msg
 2645 00dc 00000000 		.word	.LC0
 2646              	.LBE52:
 2647              		.cfi_endproc
 2648              	.LFE14:
 2650              		.section	.text.yt_port_macAutoNeg_enable_get,"ax",%progbits
 2651              		.align	1
 2652              		.global	yt_port_macAutoNeg_enable_get
 2653              		.syntax unified
 2654              		.thumb
 2655              		.thumb_func
 2657              	yt_port_macAutoNeg_enable_get:
 2658              	.LVL346:
 2659              	.LFB15:
 293:../switch_sdk/core/yt/yt_port.c **** 
 294:../switch_sdk/core/yt/yt_port.c **** /**
 295:../switch_sdk/core/yt/yt_port.c ****  * @internal      yt_port_macAutoNeg_enable_get
 296:../switch_sdk/core/yt/yt_port.c ****  * @endinternal
 297:../switch_sdk/core/yt/yt_port.c ****  *
 298:../switch_sdk/core/yt/yt_port.c ****  * @brief         Description
 299:../switch_sdk/core/yt/yt_port.c ****  * @note          APPLICABLE DEVICES  -Tiger
 300:../switch_sdk/core/yt/yt_port.c ****  * @param[in]     unit                -unit id
 301:../switch_sdk/core/yt/yt_port.c ****  * @param[in]     port                -port num
 302:../switch_sdk/core/yt/yt_port.c ****  * @param[out]    pEnable             -enable or disable
 303:../switch_sdk/core/yt/yt_port.c ****  * @retval        CMM_ERR_OK          -on success
 304:../switch_sdk/core/yt/yt_port.c ****  * @retval        CMM_ERR_FAIL        -on fail
 305:../switch_sdk/core/yt/yt_port.c ****  */
 306:../switch_sdk/core/yt/yt_port.c **** yt_ret_t yt_port_macAutoNeg_enable_get(yt_unit_t unit, yt_port_t port, yt_enable_t *pEnable)
 307:../switch_sdk/core/yt/yt_port.c **** {
 2660              		.loc 1 307 1 is_stmt 1 view -0
 2661              		.cfi_startproc
 2662              		@ args = 0, pretend = 0, frame = 0
 2663              		@ frame_needed = 0, uses_anonymous_args = 0
 2664              		.loc 1 307 1 is_stmt 0 view .LVU750
 2665 0000 08B5     		push	{r3, lr}
 2666              		.cfi_def_cfa_offset 8
 2667              		.cfi_offset 3, -8
 2668              		.cfi_offset 14, -4
 308:../switch_sdk/core/yt/yt_port.c ****     CMM_PARAM_CHK((YT_UNIT_NUM <= unit), CMM_ERR_INPUT);
 2669              		.loc 1 308 5 is_stmt 1 view .LVU751
 2670              		.loc 1 308 5 view .LVU752
 2671 0002 C0B9     		cbnz	r0, .L281
 2672 0004 8446     		mov	ip, r0
 2673              		.loc 1 308 5 discriminator 2 view .LVU753
 309:../switch_sdk/core/yt/yt_port.c ****     CMM_PARAM_CHK(NULL == YT_DISPATCH(unit), CMM_ERR_NOT_INIT);
 2674              		.loc 1 309 5 discriminator 2 view .LVU754
 2675              		.loc 1 309 5 discriminator 2 view .LVU755
 2676 0006 2F4B     		ldr	r3, .L290
 2677 0008 53F82030 		ldr	r3, [r3, r0, lsl #2]
 2678 000c 0BB3     		cbz	r3, .L282
 2679              		.loc 1 309 5 discriminator 2 view .LVU756
 310:../switch_sdk/core/yt/yt_port.c ****     CMM_PARAM_CHK((!(YT_DISPATCH(unit)->is_inited)), CMM_ERR_NOT_INIT);
 2680              		.loc 1 310 5 discriminator 2 view .LVU757
 2681              		.loc 1 310 5 discriminator 2 view .LVU758
 2682 000e 1878     		ldrb	r0, [r3]	@ zero_extendqisi2
 2683              	.LVL347:
 2684              		.loc 1 310 5 is_stmt 0 discriminator 2 view .LVU759
 2685 0010 0028     		cmp	r0, #0
 2686 0012 2CD0     		beq	.L283
 2687              		.loc 1 310 5 is_stmt 1 discriminator 2 view .LVU760
 311:../switch_sdk/core/yt/yt_port.c ****     CMM_PARAM_CHK((!(CMM_PORT_VALID(unit, port))), CMM_ERR_PORT);
 2688              		.loc 1 311 5 discriminator 2 view .LVU761
 2689              		.loc 1 311 5 discriminator 2 view .LVU762
 2690 0014 2C48     		ldr	r0, .L290+4
 2691 0016 0078     		ldrb	r0, [r0]	@ zero_extendqisi2
 2692 0018 0028     		cmp	r0, #0
 2693 001a 36D0     		beq	.L275
 2694 001c 2B48     		ldr	r0, .L290+8
 2695 001e 50F82C00 		ldr	r0, [r0, ip, lsl #2]
 2696 0022 007D     		ldrb	r0, [r0, #20]	@ zero_extendqisi2
 2697 0024 8842     		cmp	r0, r1
 2698 0026 30D9     		bls	.L275
 2699              		.loc 1 311 5 discriminator 4 view .LVU763
 312:../switch_sdk/core/yt/yt_port.c ****     CMM_PARAM_CHK((NULL == pEnable), CMM_ERR_NULL_POINT);
 2700              		.loc 1 312 5 discriminator 4 view .LVU764
 2701              		.loc 1 312 5 discriminator 4 view .LVU765
 2702 0028 002A     		cmp	r2, #0
 2703 002a 3CD0     		beq	.L284
 2704              		.loc 1 312 5 discriminator 2 view .LVU766
 313:../switch_sdk/core/yt/yt_port.c **** 
 314:../switch_sdk/core/yt/yt_port.c ****     return YT_DISPATCH(unit)->port_macAutoNeg_enable_get(unit, port, pEnable);
 2705              		.loc 1 314 5 discriminator 2 view .LVU767
 2706              		.loc 1 314 29 is_stmt 0 discriminator 2 view .LVU768
 2707 002c D3F88035 		ldr	r3, [r3, #1408]
 2708              		.loc 1 314 12 discriminator 2 view .LVU769
 2709 0030 6046     		mov	r0, ip
 2710 0032 9847     		blx	r3
 2711              	.LVL348:
 2712              	.L267:
 315:../switch_sdk/core/yt/yt_port.c **** }
 2713              		.loc 1 315 1 view .LVU770
 2714 0034 08BD     		pop	{r3, pc}
 2715              	.LVL349:
 2716              	.L281:
 308:../switch_sdk/core/yt/yt_port.c ****     CMM_PARAM_CHK(NULL == YT_DISPATCH(unit), CMM_ERR_NOT_INIT);
 2717              		.loc 1 308 5 is_stmt 1 discriminator 1 view .LVU771
 308:../switch_sdk/core/yt/yt_port.c ****     CMM_PARAM_CHK(NULL == YT_DISPATCH(unit), CMM_ERR_NOT_INIT);
 2718              		.loc 1 308 5 discriminator 1 view .LVU772
 2719 0036 264B     		ldr	r3, .L290+12
 2720 0038 1B78     		ldrb	r3, [r3]	@ zero_extendqisi2
 2721 003a 012B     		cmp	r3, #1
 2722 003c 01D8     		bhi	.L285
 2723              	.LVL350:
 2724              	.L269:
 308:../switch_sdk/core/yt/yt_port.c ****     CMM_PARAM_CHK(NULL == YT_DISPATCH(unit), CMM_ERR_NOT_INIT);
 2725              		.loc 1 308 5 discriminator 5 view .LVU773
 308:../switch_sdk/core/yt/yt_port.c ****     CMM_PARAM_CHK(NULL == YT_DISPATCH(unit), CMM_ERR_NOT_INIT);
 2726              		.loc 1 308 5 discriminator 5 view .LVU774
 308:../switch_sdk/core/yt/yt_port.c ****     CMM_PARAM_CHK(NULL == YT_DISPATCH(unit), CMM_ERR_NOT_INIT);
 2727              		.loc 1 308 5 discriminator 5 view .LVU775
 2728 003e 0520     		movs	r0, #5
 2729 0040 F8E7     		b	.L267
 2730              	.LVL351:
 2731              	.L285:
 308:../switch_sdk/core/yt/yt_port.c ****     CMM_PARAM_CHK(NULL == YT_DISPATCH(unit), CMM_ERR_NOT_INIT);
 2732              		.loc 1 308 5 discriminator 3 view .LVU776
 2733              	.LBB53:
 308:../switch_sdk/core/yt/yt_port.c ****     CMM_PARAM_CHK(NULL == YT_DISPATCH(unit), CMM_ERR_NOT_INIT);
 2734              		.loc 1 308 5 discriminator 3 view .LVU777
 2735 0042 244B     		ldr	r3, .L290+16
 2736 0044 5A69     		ldr	r2, [r3, #20]
 2737              	.LVL352:
 308:../switch_sdk/core/yt/yt_port.c ****     CMM_PARAM_CHK(NULL == YT_DISPATCH(unit), CMM_ERR_NOT_INIT);
 2738              		.loc 1 308 5 is_stmt 0 discriminator 3 view .LVU778
 2739 0046 244B     		ldr	r3, .L290+20
 2740 0048 9968     		ldr	r1, [r3, #8]
 2741              	.LVL353:
 308:../switch_sdk/core/yt/yt_port.c ****     CMM_PARAM_CHK(NULL == YT_DISPATCH(unit), CMM_ERR_NOT_INIT);
 2742              		.loc 1 308 5 discriminator 3 view .LVU779
 2743 004a 2448     		ldr	r0, .L290+24
 2744              	.LVL354:
 308:../switch_sdk/core/yt/yt_port.c ****     CMM_PARAM_CHK(NULL == YT_DISPATCH(unit), CMM_ERR_NOT_INIT);
 2745              		.loc 1 308 5 discriminator 3 view .LVU780
 2746 004c FFF7FEFF 		bl	osal_printf
 2747              	.LVL355:
 2748 0050 F5E7     		b	.L269
 2749              	.LVL356:
 2750              	.L282:
 308:../switch_sdk/core/yt/yt_port.c ****     CMM_PARAM_CHK(NULL == YT_DISPATCH(unit), CMM_ERR_NOT_INIT);
 2751              		.loc 1 308 5 discriminator 3 view .LVU781
 2752              	.LBE53:
 309:../switch_sdk/core/yt/yt_port.c ****     CMM_PARAM_CHK((!(YT_DISPATCH(unit)->is_inited)), CMM_ERR_NOT_INIT);
 2753              		.loc 1 309 5 is_stmt 1 discriminator 1 view .LVU782
 309:../switch_sdk/core/yt/yt_port.c ****     CMM_PARAM_CHK((!(YT_DISPATCH(unit)->is_inited)), CMM_ERR_NOT_INIT);
 2754              		.loc 1 309 5 discriminator 1 view .LVU783
 2755 0052 1F4B     		ldr	r3, .L290+12
 2756 0054 1B78     		ldrb	r3, [r3]	@ zero_extendqisi2
 2757 0056 012B     		cmp	r3, #1
 2758 0058 01D8     		bhi	.L286
 2759              	.LVL357:
 2760              	.L272:
 309:../switch_sdk/core/yt/yt_port.c ****     CMM_PARAM_CHK((!(YT_DISPATCH(unit)->is_inited)), CMM_ERR_NOT_INIT);
 2761              		.loc 1 309 5 discriminator 5 view .LVU784
 309:../switch_sdk/core/yt/yt_port.c ****     CMM_PARAM_CHK((!(YT_DISPATCH(unit)->is_inited)), CMM_ERR_NOT_INIT);
 2762              		.loc 1 309 5 discriminator 5 view .LVU785
 309:../switch_sdk/core/yt/yt_port.c ****     CMM_PARAM_CHK((!(YT_DISPATCH(unit)->is_inited)), CMM_ERR_NOT_INIT);
 2763              		.loc 1 309 5 discriminator 5 view .LVU786
 2764 005a 0420     		movs	r0, #4
 2765 005c EAE7     		b	.L267
 2766              	.LVL358:
 2767              	.L286:
 309:../switch_sdk/core/yt/yt_port.c ****     CMM_PARAM_CHK((!(YT_DISPATCH(unit)->is_inited)), CMM_ERR_NOT_INIT);
 2768              		.loc 1 309 5 discriminator 3 view .LVU787
 2769              	.LBB54:
 309:../switch_sdk/core/yt/yt_port.c ****     CMM_PARAM_CHK((!(YT_DISPATCH(unit)->is_inited)), CMM_ERR_NOT_INIT);
 2770              		.loc 1 309 5 discriminator 3 view .LVU788
 2771 005e 1D4B     		ldr	r3, .L290+16
 2772 0060 1A69     		ldr	r2, [r3, #16]
 2773              	.LVL359:
 309:../switch_sdk/core/yt/yt_port.c ****     CMM_PARAM_CHK((!(YT_DISPATCH(unit)->is_inited)), CMM_ERR_NOT_INIT);
 2774              		.loc 1 309 5 is_stmt 0 discriminator 3 view .LVU789
 2775 0062 1D4B     		ldr	r3, .L290+20
 2776 0064 9968     		ldr	r1, [r3, #8]
 2777              	.LVL360:
 309:../switch_sdk/core/yt/yt_port.c ****     CMM_PARAM_CHK((!(YT_DISPATCH(unit)->is_inited)), CMM_ERR_NOT_INIT);
 2778              		.loc 1 309 5 discriminator 3 view .LVU790
 2779 0066 1D48     		ldr	r0, .L290+24
 2780              	.LVL361:
 309:../switch_sdk/core/yt/yt_port.c ****     CMM_PARAM_CHK((!(YT_DISPATCH(unit)->is_inited)), CMM_ERR_NOT_INIT);
 2781              		.loc 1 309 5 discriminator 3 view .LVU791
 2782 0068 FFF7FEFF 		bl	osal_printf
 2783              	.LVL362:
 2784 006c F5E7     		b	.L272
 2785              	.LVL363:
 2786              	.L283:
 309:../switch_sdk/core/yt/yt_port.c ****     CMM_PARAM_CHK((!(YT_DISPATCH(unit)->is_inited)), CMM_ERR_NOT_INIT);
 2787              		.loc 1 309 5 discriminator 3 view .LVU792
 2788              	.LBE54:
 310:../switch_sdk/core/yt/yt_port.c ****     CMM_PARAM_CHK((!(CMM_PORT_VALID(unit, port))), CMM_ERR_PORT);
 2789              		.loc 1 310 5 is_stmt 1 discriminator 1 view .LVU793
 310:../switch_sdk/core/yt/yt_port.c ****     CMM_PARAM_CHK((!(CMM_PORT_VALID(unit, port))), CMM_ERR_PORT);
 2790              		.loc 1 310 5 discriminator 1 view .LVU794
 2791 006e 184B     		ldr	r3, .L290+12
 2792 0070 1B78     		ldrb	r3, [r3]	@ zero_extendqisi2
 2793 0072 012B     		cmp	r3, #1
 2794 0074 01D8     		bhi	.L287
 2795              	.LVL364:
 2796              	.L274:
 310:../switch_sdk/core/yt/yt_port.c ****     CMM_PARAM_CHK((!(CMM_PORT_VALID(unit, port))), CMM_ERR_PORT);
 2797              		.loc 1 310 5 discriminator 5 view .LVU795
 310:../switch_sdk/core/yt/yt_port.c ****     CMM_PARAM_CHK((!(CMM_PORT_VALID(unit, port))), CMM_ERR_PORT);
 2798              		.loc 1 310 5 discriminator 5 view .LVU796
 310:../switch_sdk/core/yt/yt_port.c ****     CMM_PARAM_CHK((!(CMM_PORT_VALID(unit, port))), CMM_ERR_PORT);
 2799              		.loc 1 310 5 discriminator 5 view .LVU797
 2800 0076 0420     		movs	r0, #4
 2801 0078 DCE7     		b	.L267
 2802              	.LVL365:
 2803              	.L287:
 310:../switch_sdk/core/yt/yt_port.c ****     CMM_PARAM_CHK((!(CMM_PORT_VALID(unit, port))), CMM_ERR_PORT);
 2804              		.loc 1 310 5 discriminator 3 view .LVU798
 2805              	.LBB55:
 310:../switch_sdk/core/yt/yt_port.c ****     CMM_PARAM_CHK((!(CMM_PORT_VALID(unit, port))), CMM_ERR_PORT);
 2806              		.loc 1 310 5 discriminator 3 view .LVU799
 2807 007a 164B     		ldr	r3, .L290+16
 2808 007c 1A69     		ldr	r2, [r3, #16]
 2809              	.LVL366:
 310:../switch_sdk/core/yt/yt_port.c ****     CMM_PARAM_CHK((!(CMM_PORT_VALID(unit, port))), CMM_ERR_PORT);
 2810              		.loc 1 310 5 is_stmt 0 discriminator 3 view .LVU800
 2811 007e 164B     		ldr	r3, .L290+20
 2812 0080 9968     		ldr	r1, [r3, #8]
 2813              	.LVL367:
 310:../switch_sdk/core/yt/yt_port.c ****     CMM_PARAM_CHK((!(CMM_PORT_VALID(unit, port))), CMM_ERR_PORT);
 2814              		.loc 1 310 5 discriminator 3 view .LVU801
 2815 0082 1648     		ldr	r0, .L290+24
 2816 0084 FFF7FEFF 		bl	osal_printf
 2817              	.LVL368:
 2818 0088 F5E7     		b	.L274
 2819              	.LVL369:
 2820              	.L275:
 310:../switch_sdk/core/yt/yt_port.c ****     CMM_PARAM_CHK((!(CMM_PORT_VALID(unit, port))), CMM_ERR_PORT);
 2821              		.loc 1 310 5 discriminator 3 view .LVU802
 2822              	.LBE55:
 311:../switch_sdk/core/yt/yt_port.c ****     CMM_PARAM_CHK((NULL == pEnable), CMM_ERR_NULL_POINT);
 2823              		.loc 1 311 5 is_stmt 1 discriminator 3 view .LVU803
 311:../switch_sdk/core/yt/yt_port.c ****     CMM_PARAM_CHK((NULL == pEnable), CMM_ERR_NULL_POINT);
 2824              		.loc 1 311 5 discriminator 3 view .LVU804
 2825 008a 114B     		ldr	r3, .L290+12
 2826 008c 1B78     		ldrb	r3, [r3]	@ zero_extendqisi2
 2827 008e 012B     		cmp	r3, #1
 2828 0090 01D8     		bhi	.L288
 2829              	.LVL370:
 2830              	.L277:
 311:../switch_sdk/core/yt/yt_port.c ****     CMM_PARAM_CHK((NULL == pEnable), CMM_ERR_NULL_POINT);
 2831              		.loc 1 311 5 discriminator 7 view .LVU805
 311:../switch_sdk/core/yt/yt_port.c ****     CMM_PARAM_CHK((NULL == pEnable), CMM_ERR_NULL_POINT);
 2832              		.loc 1 311 5 discriminator 7 view .LVU806
 311:../switch_sdk/core/yt/yt_port.c ****     CMM_PARAM_CHK((NULL == pEnable), CMM_ERR_NULL_POINT);
 2833              		.loc 1 311 5 discriminator 7 view .LVU807
 2834 0092 0E20     		movs	r0, #14
 2835 0094 CEE7     		b	.L267
 2836              	.LVL371:
 2837              	.L288:
 311:../switch_sdk/core/yt/yt_port.c ****     CMM_PARAM_CHK((NULL == pEnable), CMM_ERR_NULL_POINT);
 2838              		.loc 1 311 5 discriminator 5 view .LVU808
 2839              	.LBB56:
 311:../switch_sdk/core/yt/yt_port.c ****     CMM_PARAM_CHK((NULL == pEnable), CMM_ERR_NULL_POINT);
 2840              		.loc 1 311 5 discriminator 5 view .LVU809
 2841 0096 0F4B     		ldr	r3, .L290+16
 2842 0098 9A6B     		ldr	r2, [r3, #56]
 2843              	.LVL372:
 311:../switch_sdk/core/yt/yt_port.c ****     CMM_PARAM_CHK((NULL == pEnable), CMM_ERR_NULL_POINT);
 2844              		.loc 1 311 5 is_stmt 0 discriminator 5 view .LVU810
 2845 009a 0F4B     		ldr	r3, .L290+20
 2846 009c 9968     		ldr	r1, [r3, #8]
 2847              	.LVL373:
 311:../switch_sdk/core/yt/yt_port.c ****     CMM_PARAM_CHK((NULL == pEnable), CMM_ERR_NULL_POINT);
 2848              		.loc 1 311 5 discriminator 5 view .LVU811
 2849 009e 0F48     		ldr	r0, .L290+24
 2850 00a0 FFF7FEFF 		bl	osal_printf
 2851              	.LVL374:
 2852 00a4 F5E7     		b	.L277
 2853              	.LVL375:
 2854              	.L284:
 311:../switch_sdk/core/yt/yt_port.c ****     CMM_PARAM_CHK((NULL == pEnable), CMM_ERR_NULL_POINT);
 2855              		.loc 1 311 5 discriminator 5 view .LVU812
 2856              	.LBE56:
 312:../switch_sdk/core/yt/yt_port.c **** 
 2857              		.loc 1 312 5 is_stmt 1 discriminator 1 view .LVU813
 312:../switch_sdk/core/yt/yt_port.c **** 
 2858              		.loc 1 312 5 discriminator 1 view .LVU814
 2859 00a6 0A4B     		ldr	r3, .L290+12
 2860 00a8 1B78     		ldrb	r3, [r3]	@ zero_extendqisi2
 2861 00aa 012B     		cmp	r3, #1
 2862 00ac 01D8     		bhi	.L289
 2863              	.LVL376:
 2864              	.L279:
 312:../switch_sdk/core/yt/yt_port.c **** 
 2865              		.loc 1 312 5 discriminator 5 view .LVU815
 312:../switch_sdk/core/yt/yt_port.c **** 
 2866              		.loc 1 312 5 discriminator 5 view .LVU816
 312:../switch_sdk/core/yt/yt_port.c **** 
 2867              		.loc 1 312 5 discriminator 5 view .LVU817
 2868 00ae 0220     		movs	r0, #2
 2869 00b0 C0E7     		b	.L267
 2870              	.LVL377:
 2871              	.L289:
 312:../switch_sdk/core/yt/yt_port.c **** 
 2872              		.loc 1 312 5 discriminator 3 view .LVU818
 2873              	.LBB57:
 312:../switch_sdk/core/yt/yt_port.c **** 
 2874              		.loc 1 312 5 discriminator 3 view .LVU819
 2875 00b2 084B     		ldr	r3, .L290+16
 2876 00b4 9A68     		ldr	r2, [r3, #8]
 2877              	.LVL378:
 312:../switch_sdk/core/yt/yt_port.c **** 
 2878              		.loc 1 312 5 is_stmt 0 discriminator 3 view .LVU820
 2879 00b6 084B     		ldr	r3, .L290+20
 2880 00b8 9968     		ldr	r1, [r3, #8]
 2881              	.LVL379:
 312:../switch_sdk/core/yt/yt_port.c **** 
 2882              		.loc 1 312 5 discriminator 3 view .LVU821
 2883 00ba 0848     		ldr	r0, .L290+24
 2884 00bc FFF7FEFF 		bl	osal_printf
 2885              	.LVL380:
 2886 00c0 F5E7     		b	.L279
 2887              	.L291:
 2888 00c2 00BF     		.align	2
 2889              	.L290:
 2890 00c4 00000000 		.word	gpfal_dispatch
 2891 00c8 00000000 		.word	gcal_inited
 2892 00cc 00000000 		.word	gpSwitchUnit
 2893 00d0 00000000 		.word	yt_debug_level
 2894 00d4 00000000 		.word	_yt_errmsg
 2895 00d8 00000000 		.word	_yt_prompt_msg
 2896 00dc 00000000 		.word	.LC0
 2897              	.LBE57:
 2898              		.cfi_endproc
 2899              	.LFE15:
 2901              		.section	.text.yt_port_mac_force_set,"ax",%progbits
 2902              		.align	1
 2903              		.global	yt_port_mac_force_set
 2904              		.syntax unified
 2905              		.thumb
 2906              		.thumb_func
 2908              	yt_port_mac_force_set:
 2909              	.LVL381:
 2910              	.LFB16:
 316:../switch_sdk/core/yt/yt_port.c **** 
 317:../switch_sdk/core/yt/yt_port.c **** /**
 318:../switch_sdk/core/yt/yt_port.c ****  * @internal      yt_port_mac_force_set
 319:../switch_sdk/core/yt/yt_port.c ****  * @endinternal
 320:../switch_sdk/core/yt/yt_port.c ****  *
 321:../switch_sdk/core/yt/yt_port.c ****  * @brief         Description
 322:../switch_sdk/core/yt/yt_port.c ****  * @note          APPLICABLE DEVICES  -Tiger
 323:../switch_sdk/core/yt/yt_port.c ****  * @param[in]     unit                -unit id
 324:../switch_sdk/core/yt/yt_port.c ****  * @param[in]     port                -port num
 325:../switch_sdk/core/yt/yt_port.c ****  * @param[in]     port_ctrl           -x
 326:../switch_sdk/core/yt/yt_port.c ****  * @retval        CMM_ERR_OK          -on success
 327:../switch_sdk/core/yt/yt_port.c ****  * @retval        CMM_ERR_FAIL        -on fail
 328:../switch_sdk/core/yt/yt_port.c ****  */
 329:../switch_sdk/core/yt/yt_port.c **** yt_ret_t yt_port_mac_force_set(yt_unit_t unit, yt_port_t port, yt_port_force_ctrl_t port_ctrl)
 330:../switch_sdk/core/yt/yt_port.c **** {
 2911              		.loc 1 330 1 is_stmt 1 view -0
 2912              		.cfi_startproc
 2913              		@ args = 0, pretend = 0, frame = 8
 2914              		@ frame_needed = 0, uses_anonymous_args = 0
 2915              		.loc 1 330 1 is_stmt 0 view .LVU823
 2916 0000 00B5     		push	{lr}
 2917              		.cfi_def_cfa_offset 4
 2918              		.cfi_offset 14, -4
 2919 0002 83B0     		sub	sp, sp, #12
 2920              		.cfi_def_cfa_offset 16
 2921 0004 0192     		str	r2, [sp, #4]
 331:../switch_sdk/core/yt/yt_port.c ****     CMM_PARAM_CHK((YT_UNIT_NUM <= unit), CMM_ERR_INPUT);
 2922              		.loc 1 331 5 is_stmt 1 view .LVU824
 2923              		.loc 1 331 5 view .LVU825
 2924 0006 B8B9     		cbnz	r0, .L304
 2925              		.loc 1 331 5 discriminator 2 view .LVU826
 332:../switch_sdk/core/yt/yt_port.c ****     CMM_PARAM_CHK(NULL == YT_DISPATCH(unit), CMM_ERR_NOT_INIT);
 2926              		.loc 1 332 5 discriminator 2 view .LVU827
 2927              		.loc 1 332 5 discriminator 2 view .LVU828
 2928 0008 274B     		ldr	r3, .L311
 2929 000a 53F82030 		ldr	r3, [r3, r0, lsl #2]
 2930 000e 0BB3     		cbz	r3, .L305
 2931              		.loc 1 332 5 discriminator 2 view .LVU829
 333:../switch_sdk/core/yt/yt_port.c ****     CMM_PARAM_CHK((!(YT_DISPATCH(unit)->is_inited)), CMM_ERR_NOT_INIT);
 2932              		.loc 1 333 5 discriminator 2 view .LVU830
 2933              		.loc 1 333 5 discriminator 2 view .LVU831
 2934 0010 1A78     		ldrb	r2, [r3]	@ zero_extendqisi2
 2935 0012 002A     		cmp	r2, #0
 2936 0014 2CD0     		beq	.L306
 2937              		.loc 1 333 5 discriminator 2 view .LVU832
 334:../switch_sdk/core/yt/yt_port.c ****     CMM_PARAM_CHK((!(CMM_PORT_VALID(unit, port))), CMM_ERR_PORT);
 2938              		.loc 1 334 5 discriminator 2 view .LVU833
 2939              		.loc 1 334 5 discriminator 2 view .LVU834
 2940 0016 254A     		ldr	r2, .L311+4
 2941 0018 1278     		ldrb	r2, [r2]	@ zero_extendqisi2
 2942 001a 002A     		cmp	r2, #0
 2943 001c 36D0     		beq	.L300
 2944 001e 244A     		ldr	r2, .L311+8
 2945 0020 52F82020 		ldr	r2, [r2, r0, lsl #2]
 2946 0024 127D     		ldrb	r2, [r2, #20]	@ zero_extendqisi2
 2947 0026 8A42     		cmp	r2, r1
 2948 0028 30D9     		bls	.L300
 2949              		.loc 1 334 5 discriminator 4 view .LVU835
 335:../switch_sdk/core/yt/yt_port.c **** 
 336:../switch_sdk/core/yt/yt_port.c ****     return YT_DISPATCH(unit)->port_mac_force_set(unit, port, port_ctrl);
 2950              		.loc 1 336 5 discriminator 4 view .LVU836
 2951              		.loc 1 336 29 is_stmt 0 discriminator 4 view .LVU837
 2952 002a D3F88435 		ldr	r3, [r3, #1412]
 2953              		.loc 1 336 12 discriminator 4 view .LVU838
 2954 002e 019A     		ldr	r2, [sp, #4]
 2955 0030 9847     		blx	r3
 2956              	.LVL382:
 2957              	.L292:
 337:../switch_sdk/core/yt/yt_port.c **** }
 2958              		.loc 1 337 1 view .LVU839
 2959 0032 03B0     		add	sp, sp, #12
 2960              		.cfi_remember_state
 2961              		.cfi_def_cfa_offset 4
 2962              		@ sp needed
 2963 0034 5DF804FB 		ldr	pc, [sp], #4
 2964              	.LVL383:
 2965              	.L304:
 2966              		.cfi_restore_state
 331:../switch_sdk/core/yt/yt_port.c ****     CMM_PARAM_CHK(NULL == YT_DISPATCH(unit), CMM_ERR_NOT_INIT);
 2967              		.loc 1 331 5 is_stmt 1 discriminator 1 view .LVU840
 331:../switch_sdk/core/yt/yt_port.c ****     CMM_PARAM_CHK(NULL == YT_DISPATCH(unit), CMM_ERR_NOT_INIT);
 2968              		.loc 1 331 5 discriminator 1 view .LVU841
 2969 0038 1E4B     		ldr	r3, .L311+12
 2970 003a 1B78     		ldrb	r3, [r3]	@ zero_extendqisi2
 2971 003c 012B     		cmp	r3, #1
 2972 003e 01D8     		bhi	.L307
 2973              	.LVL384:
 2974              	.L294:
 331:../switch_sdk/core/yt/yt_port.c ****     CMM_PARAM_CHK(NULL == YT_DISPATCH(unit), CMM_ERR_NOT_INIT);
 2975              		.loc 1 331 5 discriminator 5 view .LVU842
 331:../switch_sdk/core/yt/yt_port.c ****     CMM_PARAM_CHK(NULL == YT_DISPATCH(unit), CMM_ERR_NOT_INIT);
 2976              		.loc 1 331 5 discriminator 5 view .LVU843
 331:../switch_sdk/core/yt/yt_port.c ****     CMM_PARAM_CHK(NULL == YT_DISPATCH(unit), CMM_ERR_NOT_INIT);
 2977              		.loc 1 331 5 discriminator 5 view .LVU844
 2978 0040 0520     		movs	r0, #5
 2979 0042 F6E7     		b	.L292
 2980              	.LVL385:
 2981              	.L307:
 331:../switch_sdk/core/yt/yt_port.c ****     CMM_PARAM_CHK(NULL == YT_DISPATCH(unit), CMM_ERR_NOT_INIT);
 2982              		.loc 1 331 5 discriminator 3 view .LVU845
 2983              	.LBB58:
 331:../switch_sdk/core/yt/yt_port.c ****     CMM_PARAM_CHK(NULL == YT_DISPATCH(unit), CMM_ERR_NOT_INIT);
 2984              		.loc 1 331 5 discriminator 3 view .LVU846
 2985 0044 1C4B     		ldr	r3, .L311+16
 2986 0046 5A69     		ldr	r2, [r3, #20]
 2987 0048 1C4B     		ldr	r3, .L311+20
 2988 004a 9968     		ldr	r1, [r3, #8]
 2989              	.LVL386:
 331:../switch_sdk/core/yt/yt_port.c ****     CMM_PARAM_CHK(NULL == YT_DISPATCH(unit), CMM_ERR_NOT_INIT);
 2990              		.loc 1 331 5 is_stmt 0 discriminator 3 view .LVU847
 2991 004c 1C48     		ldr	r0, .L311+24
 2992              	.LVL387:
 331:../switch_sdk/core/yt/yt_port.c ****     CMM_PARAM_CHK(NULL == YT_DISPATCH(unit), CMM_ERR_NOT_INIT);
 2993              		.loc 1 331 5 discriminator 3 view .LVU848
 2994 004e FFF7FEFF 		bl	osal_printf
 2995              	.LVL388:
 2996 0052 F5E7     		b	.L294
 2997              	.LVL389:
 2998              	.L305:
 331:../switch_sdk/core/yt/yt_port.c ****     CMM_PARAM_CHK(NULL == YT_DISPATCH(unit), CMM_ERR_NOT_INIT);
 2999              		.loc 1 331 5 discriminator 3 view .LVU849
 3000              	.LBE58:
 332:../switch_sdk/core/yt/yt_port.c ****     CMM_PARAM_CHK((!(YT_DISPATCH(unit)->is_inited)), CMM_ERR_NOT_INIT);
 3001              		.loc 1 332 5 is_stmt 1 discriminator 1 view .LVU850
 332:../switch_sdk/core/yt/yt_port.c ****     CMM_PARAM_CHK((!(YT_DISPATCH(unit)->is_inited)), CMM_ERR_NOT_INIT);
 3002              		.loc 1 332 5 discriminator 1 view .LVU851
 3003 0054 174B     		ldr	r3, .L311+12
 3004 0056 1B78     		ldrb	r3, [r3]	@ zero_extendqisi2
 3005 0058 012B     		cmp	r3, #1
 3006 005a 01D8     		bhi	.L308
 3007              	.LVL390:
 3008              	.L297:
 332:../switch_sdk/core/yt/yt_port.c ****     CMM_PARAM_CHK((!(YT_DISPATCH(unit)->is_inited)), CMM_ERR_NOT_INIT);
 3009              		.loc 1 332 5 discriminator 5 view .LVU852
 332:../switch_sdk/core/yt/yt_port.c ****     CMM_PARAM_CHK((!(YT_DISPATCH(unit)->is_inited)), CMM_ERR_NOT_INIT);
 3010              		.loc 1 332 5 discriminator 5 view .LVU853
 332:../switch_sdk/core/yt/yt_port.c ****     CMM_PARAM_CHK((!(YT_DISPATCH(unit)->is_inited)), CMM_ERR_NOT_INIT);
 3011              		.loc 1 332 5 discriminator 5 view .LVU854
 3012 005c 0420     		movs	r0, #4
 3013 005e E8E7     		b	.L292
 3014              	.LVL391:
 3015              	.L308:
 332:../switch_sdk/core/yt/yt_port.c ****     CMM_PARAM_CHK((!(YT_DISPATCH(unit)->is_inited)), CMM_ERR_NOT_INIT);
 3016              		.loc 1 332 5 discriminator 3 view .LVU855
 3017              	.LBB59:
 332:../switch_sdk/core/yt/yt_port.c ****     CMM_PARAM_CHK((!(YT_DISPATCH(unit)->is_inited)), CMM_ERR_NOT_INIT);
 3018              		.loc 1 332 5 discriminator 3 view .LVU856
 3019 0060 154B     		ldr	r3, .L311+16
 3020 0062 1A69     		ldr	r2, [r3, #16]
 3021 0064 154B     		ldr	r3, .L311+20
 3022 0066 9968     		ldr	r1, [r3, #8]
 3023              	.LVL392:
 332:../switch_sdk/core/yt/yt_port.c ****     CMM_PARAM_CHK((!(YT_DISPATCH(unit)->is_inited)), CMM_ERR_NOT_INIT);
 3024              		.loc 1 332 5 is_stmt 0 discriminator 3 view .LVU857
 3025 0068 1548     		ldr	r0, .L311+24
 3026              	.LVL393:
 332:../switch_sdk/core/yt/yt_port.c ****     CMM_PARAM_CHK((!(YT_DISPATCH(unit)->is_inited)), CMM_ERR_NOT_INIT);
 3027              		.loc 1 332 5 discriminator 3 view .LVU858
 3028 006a FFF7FEFF 		bl	osal_printf
 3029              	.LVL394:
 3030 006e F5E7     		b	.L297
 3031              	.LVL395:
 3032              	.L306:
 332:../switch_sdk/core/yt/yt_port.c ****     CMM_PARAM_CHK((!(YT_DISPATCH(unit)->is_inited)), CMM_ERR_NOT_INIT);
 3033              		.loc 1 332 5 discriminator 3 view .LVU859
 3034              	.LBE59:
 333:../switch_sdk/core/yt/yt_port.c ****     CMM_PARAM_CHK((!(CMM_PORT_VALID(unit, port))), CMM_ERR_PORT);
 3035              		.loc 1 333 5 is_stmt 1 discriminator 1 view .LVU860
 333:../switch_sdk/core/yt/yt_port.c ****     CMM_PARAM_CHK((!(CMM_PORT_VALID(unit, port))), CMM_ERR_PORT);
 3036              		.loc 1 333 5 discriminator 1 view .LVU861
 3037 0070 104B     		ldr	r3, .L311+12
 3038 0072 1B78     		ldrb	r3, [r3]	@ zero_extendqisi2
 3039 0074 012B     		cmp	r3, #1
 3040 0076 01D8     		bhi	.L309
 3041              	.LVL396:
 3042              	.L299:
 333:../switch_sdk/core/yt/yt_port.c ****     CMM_PARAM_CHK((!(CMM_PORT_VALID(unit, port))), CMM_ERR_PORT);
 3043              		.loc 1 333 5 discriminator 5 view .LVU862
 333:../switch_sdk/core/yt/yt_port.c ****     CMM_PARAM_CHK((!(CMM_PORT_VALID(unit, port))), CMM_ERR_PORT);
 3044              		.loc 1 333 5 discriminator 5 view .LVU863
 333:../switch_sdk/core/yt/yt_port.c ****     CMM_PARAM_CHK((!(CMM_PORT_VALID(unit, port))), CMM_ERR_PORT);
 3045              		.loc 1 333 5 discriminator 5 view .LVU864
 3046 0078 0420     		movs	r0, #4
 3047 007a DAE7     		b	.L292
 3048              	.LVL397:
 3049              	.L309:
 333:../switch_sdk/core/yt/yt_port.c ****     CMM_PARAM_CHK((!(CMM_PORT_VALID(unit, port))), CMM_ERR_PORT);
 3050              		.loc 1 333 5 discriminator 3 view .LVU865
 3051              	.LBB60:
 333:../switch_sdk/core/yt/yt_port.c ****     CMM_PARAM_CHK((!(CMM_PORT_VALID(unit, port))), CMM_ERR_PORT);
 3052              		.loc 1 333 5 discriminator 3 view .LVU866
 3053 007c 0E4B     		ldr	r3, .L311+16
 3054 007e 1A69     		ldr	r2, [r3, #16]
 3055 0080 0E4B     		ldr	r3, .L311+20
 3056 0082 9968     		ldr	r1, [r3, #8]
 3057              	.LVL398:
 333:../switch_sdk/core/yt/yt_port.c ****     CMM_PARAM_CHK((!(CMM_PORT_VALID(unit, port))), CMM_ERR_PORT);
 3058              		.loc 1 333 5 is_stmt 0 discriminator 3 view .LVU867
 3059 0084 0E48     		ldr	r0, .L311+24
 3060              	.LVL399:
 333:../switch_sdk/core/yt/yt_port.c ****     CMM_PARAM_CHK((!(CMM_PORT_VALID(unit, port))), CMM_ERR_PORT);
 3061              		.loc 1 333 5 discriminator 3 view .LVU868
 3062 0086 FFF7FEFF 		bl	osal_printf
 3063              	.LVL400:
 3064 008a F5E7     		b	.L299
 3065              	.LVL401:
 3066              	.L300:
 333:../switch_sdk/core/yt/yt_port.c ****     CMM_PARAM_CHK((!(CMM_PORT_VALID(unit, port))), CMM_ERR_PORT);
 3067              		.loc 1 333 5 discriminator 3 view .LVU869
 3068              	.LBE60:
 334:../switch_sdk/core/yt/yt_port.c **** 
 3069              		.loc 1 334 5 is_stmt 1 discriminator 3 view .LVU870
 334:../switch_sdk/core/yt/yt_port.c **** 
 3070              		.loc 1 334 5 discriminator 3 view .LVU871
 3071 008c 094B     		ldr	r3, .L311+12
 3072 008e 1B78     		ldrb	r3, [r3]	@ zero_extendqisi2
 3073 0090 012B     		cmp	r3, #1
 3074 0092 01D8     		bhi	.L310
 3075              	.LVL402:
 3076              	.L302:
 334:../switch_sdk/core/yt/yt_port.c **** 
 3077              		.loc 1 334 5 discriminator 7 view .LVU872
 334:../switch_sdk/core/yt/yt_port.c **** 
 3078              		.loc 1 334 5 discriminator 7 view .LVU873
 334:../switch_sdk/core/yt/yt_port.c **** 
 3079              		.loc 1 334 5 discriminator 7 view .LVU874
 3080 0094 0E20     		movs	r0, #14
 3081 0096 CCE7     		b	.L292
 3082              	.LVL403:
 3083              	.L310:
 334:../switch_sdk/core/yt/yt_port.c **** 
 3084              		.loc 1 334 5 discriminator 5 view .LVU875
 3085              	.LBB61:
 334:../switch_sdk/core/yt/yt_port.c **** 
 3086              		.loc 1 334 5 discriminator 5 view .LVU876
 3087 0098 074B     		ldr	r3, .L311+16
 3088 009a 9A6B     		ldr	r2, [r3, #56]
 3089 009c 074B     		ldr	r3, .L311+20
 3090 009e 9968     		ldr	r1, [r3, #8]
 3091              	.LVL404:
 334:../switch_sdk/core/yt/yt_port.c **** 
 3092              		.loc 1 334 5 is_stmt 0 discriminator 5 view .LVU877
 3093 00a0 0748     		ldr	r0, .L311+24
 3094              	.LVL405:
 334:../switch_sdk/core/yt/yt_port.c **** 
 3095              		.loc 1 334 5 discriminator 5 view .LVU878
 3096 00a2 FFF7FEFF 		bl	osal_printf
 3097              	.LVL406:
 3098 00a6 F5E7     		b	.L302
 3099              	.L312:
 3100              		.align	2
 3101              	.L311:
 3102 00a8 00000000 		.word	gpfal_dispatch
 3103 00ac 00000000 		.word	gcal_inited
 3104 00b0 00000000 		.word	gpSwitchUnit
 3105 00b4 00000000 		.word	yt_debug_level
 3106 00b8 00000000 		.word	_yt_errmsg
 3107 00bc 00000000 		.word	_yt_prompt_msg
 3108 00c0 00000000 		.word	.LC0
 3109              	.LBE61:
 3110              		.cfi_endproc
 3111              	.LFE16:
 3113              		.section	.text.yt_port_mac_force_get,"ax",%progbits
 3114              		.align	1
 3115              		.global	yt_port_mac_force_get
 3116              		.syntax unified
 3117              		.thumb
 3118              		.thumb_func
 3120              	yt_port_mac_force_get:
 3121              	.LVL407:
 3122              	.LFB17:
 338:../switch_sdk/core/yt/yt_port.c **** 
 339:../switch_sdk/core/yt/yt_port.c **** /**
 340:../switch_sdk/core/yt/yt_port.c ****  * @internal      yt_port_mac_force_get
 341:../switch_sdk/core/yt/yt_port.c ****  * @endinternal
 342:../switch_sdk/core/yt/yt_port.c ****  *
 343:../switch_sdk/core/yt/yt_port.c ****  * @brief         Description
 344:../switch_sdk/core/yt/yt_port.c ****  * @note          APPLICABLE DEVICES  -Tiger
 345:../switch_sdk/core/yt/yt_port.c ****  * @param[in]     unit                -unit id
 346:../switch_sdk/core/yt/yt_port.c ****  * @param[in]     port                -port num
 347:../switch_sdk/core/yt/yt_port.c ****  * @param[out]    pPort_ctrl          -x
 348:../switch_sdk/core/yt/yt_port.c ****  * @retval        CMM_ERR_OK          -on success
 349:../switch_sdk/core/yt/yt_port.c ****  * @retval        CMM_ERR_FAIL        -on fail
 350:../switch_sdk/core/yt/yt_port.c ****  */
 351:../switch_sdk/core/yt/yt_port.c **** yt_ret_t yt_port_mac_force_get(yt_unit_t unit, yt_port_t port, yt_port_force_ctrl_t *pPort_ctrl)
 352:../switch_sdk/core/yt/yt_port.c **** {
 3123              		.loc 1 352 1 is_stmt 1 view -0
 3124              		.cfi_startproc
 3125              		@ args = 0, pretend = 0, frame = 0
 3126              		@ frame_needed = 0, uses_anonymous_args = 0
 3127              		.loc 1 352 1 is_stmt 0 view .LVU880
 3128 0000 08B5     		push	{r3, lr}
 3129              		.cfi_def_cfa_offset 8
 3130              		.cfi_offset 3, -8
 3131              		.cfi_offset 14, -4
 353:../switch_sdk/core/yt/yt_port.c ****     CMM_PARAM_CHK((YT_UNIT_NUM <= unit), CMM_ERR_INPUT);
 3132              		.loc 1 353 5 is_stmt 1 view .LVU881
 3133              		.loc 1 353 5 view .LVU882
 3134 0002 C0B9     		cbnz	r0, .L327
 3135 0004 8446     		mov	ip, r0
 3136              		.loc 1 353 5 discriminator 2 view .LVU883
 354:../switch_sdk/core/yt/yt_port.c ****     CMM_PARAM_CHK(NULL == YT_DISPATCH(unit), CMM_ERR_NOT_INIT);
 3137              		.loc 1 354 5 discriminator 2 view .LVU884
 3138              		.loc 1 354 5 discriminator 2 view .LVU885
 3139 0006 2F4B     		ldr	r3, .L336
 3140 0008 53F82030 		ldr	r3, [r3, r0, lsl #2]
 3141 000c 0BB3     		cbz	r3, .L328
 3142              		.loc 1 354 5 discriminator 2 view .LVU886
 355:../switch_sdk/core/yt/yt_port.c ****     CMM_PARAM_CHK((!(YT_DISPATCH(unit)->is_inited)), CMM_ERR_NOT_INIT);
 3143              		.loc 1 355 5 discriminator 2 view .LVU887
 3144              		.loc 1 355 5 discriminator 2 view .LVU888
 3145 000e 1878     		ldrb	r0, [r3]	@ zero_extendqisi2
 3146              	.LVL408:
 3147              		.loc 1 355 5 is_stmt 0 discriminator 2 view .LVU889
 3148 0010 0028     		cmp	r0, #0
 3149 0012 2CD0     		beq	.L329
 3150              		.loc 1 355 5 is_stmt 1 discriminator 2 view .LVU890
 356:../switch_sdk/core/yt/yt_port.c ****     CMM_PARAM_CHK((!(CMM_PORT_VALID(unit, port))), CMM_ERR_PORT);
 3151              		.loc 1 356 5 discriminator 2 view .LVU891
 3152              		.loc 1 356 5 discriminator 2 view .LVU892
 3153 0014 2C48     		ldr	r0, .L336+4
 3154 0016 0078     		ldrb	r0, [r0]	@ zero_extendqisi2
 3155 0018 0028     		cmp	r0, #0
 3156 001a 36D0     		beq	.L321
 3157 001c 2B48     		ldr	r0, .L336+8
 3158 001e 50F82C00 		ldr	r0, [r0, ip, lsl #2]
 3159 0022 007D     		ldrb	r0, [r0, #20]	@ zero_extendqisi2
 3160 0024 8842     		cmp	r0, r1
 3161 0026 30D9     		bls	.L321
 3162              		.loc 1 356 5 discriminator 4 view .LVU893
 357:../switch_sdk/core/yt/yt_port.c ****     CMM_PARAM_CHK((NULL == pPort_ctrl), CMM_ERR_NULL_POINT);
 3163              		.loc 1 357 5 discriminator 4 view .LVU894
 3164              		.loc 1 357 5 discriminator 4 view .LVU895
 3165 0028 002A     		cmp	r2, #0
 3166 002a 3CD0     		beq	.L330
 3167              		.loc 1 357 5 discriminator 2 view .LVU896
 358:../switch_sdk/core/yt/yt_port.c **** 
 359:../switch_sdk/core/yt/yt_port.c ****     return YT_DISPATCH(unit)->port_mac_force_get(unit, port, pPort_ctrl);
 3168              		.loc 1 359 5 discriminator 2 view .LVU897
 3169              		.loc 1 359 29 is_stmt 0 discriminator 2 view .LVU898
 3170 002c D3F88835 		ldr	r3, [r3, #1416]
 3171              		.loc 1 359 12 discriminator 2 view .LVU899
 3172 0030 6046     		mov	r0, ip
 3173 0032 9847     		blx	r3
 3174              	.LVL409:
 3175              	.L313:
 360:../switch_sdk/core/yt/yt_port.c **** }
 3176              		.loc 1 360 1 view .LVU900
 3177 0034 08BD     		pop	{r3, pc}
 3178              	.LVL410:
 3179              	.L327:
 353:../switch_sdk/core/yt/yt_port.c ****     CMM_PARAM_CHK(NULL == YT_DISPATCH(unit), CMM_ERR_NOT_INIT);
 3180              		.loc 1 353 5 is_stmt 1 discriminator 1 view .LVU901
 353:../switch_sdk/core/yt/yt_port.c ****     CMM_PARAM_CHK(NULL == YT_DISPATCH(unit), CMM_ERR_NOT_INIT);
 3181              		.loc 1 353 5 discriminator 1 view .LVU902
 3182 0036 264B     		ldr	r3, .L336+12
 3183 0038 1B78     		ldrb	r3, [r3]	@ zero_extendqisi2
 3184 003a 012B     		cmp	r3, #1
 3185 003c 01D8     		bhi	.L331
 3186              	.LVL411:
 3187              	.L315:
 353:../switch_sdk/core/yt/yt_port.c ****     CMM_PARAM_CHK(NULL == YT_DISPATCH(unit), CMM_ERR_NOT_INIT);
 3188              		.loc 1 353 5 discriminator 5 view .LVU903
 353:../switch_sdk/core/yt/yt_port.c ****     CMM_PARAM_CHK(NULL == YT_DISPATCH(unit), CMM_ERR_NOT_INIT);
 3189              		.loc 1 353 5 discriminator 5 view .LVU904
 353:../switch_sdk/core/yt/yt_port.c ****     CMM_PARAM_CHK(NULL == YT_DISPATCH(unit), CMM_ERR_NOT_INIT);
 3190              		.loc 1 353 5 discriminator 5 view .LVU905
 3191 003e 0520     		movs	r0, #5
 3192 0040 F8E7     		b	.L313
 3193              	.LVL412:
 3194              	.L331:
 353:../switch_sdk/core/yt/yt_port.c ****     CMM_PARAM_CHK(NULL == YT_DISPATCH(unit), CMM_ERR_NOT_INIT);
 3195              		.loc 1 353 5 discriminator 3 view .LVU906
 3196              	.LBB62:
 353:../switch_sdk/core/yt/yt_port.c ****     CMM_PARAM_CHK(NULL == YT_DISPATCH(unit), CMM_ERR_NOT_INIT);
 3197              		.loc 1 353 5 discriminator 3 view .LVU907
 3198 0042 244B     		ldr	r3, .L336+16
 3199 0044 5A69     		ldr	r2, [r3, #20]
 3200              	.LVL413:
 353:../switch_sdk/core/yt/yt_port.c ****     CMM_PARAM_CHK(NULL == YT_DISPATCH(unit), CMM_ERR_NOT_INIT);
 3201              		.loc 1 353 5 is_stmt 0 discriminator 3 view .LVU908
 3202 0046 244B     		ldr	r3, .L336+20
 3203 0048 9968     		ldr	r1, [r3, #8]
 3204              	.LVL414:
 353:../switch_sdk/core/yt/yt_port.c ****     CMM_PARAM_CHK(NULL == YT_DISPATCH(unit), CMM_ERR_NOT_INIT);
 3205              		.loc 1 353 5 discriminator 3 view .LVU909
 3206 004a 2448     		ldr	r0, .L336+24
 3207              	.LVL415:
 353:../switch_sdk/core/yt/yt_port.c ****     CMM_PARAM_CHK(NULL == YT_DISPATCH(unit), CMM_ERR_NOT_INIT);
 3208              		.loc 1 353 5 discriminator 3 view .LVU910
 3209 004c FFF7FEFF 		bl	osal_printf
 3210              	.LVL416:
 3211 0050 F5E7     		b	.L315
 3212              	.LVL417:
 3213              	.L328:
 353:../switch_sdk/core/yt/yt_port.c ****     CMM_PARAM_CHK(NULL == YT_DISPATCH(unit), CMM_ERR_NOT_INIT);
 3214              		.loc 1 353 5 discriminator 3 view .LVU911
 3215              	.LBE62:
 354:../switch_sdk/core/yt/yt_port.c ****     CMM_PARAM_CHK((!(YT_DISPATCH(unit)->is_inited)), CMM_ERR_NOT_INIT);
 3216              		.loc 1 354 5 is_stmt 1 discriminator 1 view .LVU912
 354:../switch_sdk/core/yt/yt_port.c ****     CMM_PARAM_CHK((!(YT_DISPATCH(unit)->is_inited)), CMM_ERR_NOT_INIT);
 3217              		.loc 1 354 5 discriminator 1 view .LVU913
 3218 0052 1F4B     		ldr	r3, .L336+12
 3219 0054 1B78     		ldrb	r3, [r3]	@ zero_extendqisi2
 3220 0056 012B     		cmp	r3, #1
 3221 0058 01D8     		bhi	.L332
 3222              	.LVL418:
 3223              	.L318:
 354:../switch_sdk/core/yt/yt_port.c ****     CMM_PARAM_CHK((!(YT_DISPATCH(unit)->is_inited)), CMM_ERR_NOT_INIT);
 3224              		.loc 1 354 5 discriminator 5 view .LVU914
 354:../switch_sdk/core/yt/yt_port.c ****     CMM_PARAM_CHK((!(YT_DISPATCH(unit)->is_inited)), CMM_ERR_NOT_INIT);
 3225              		.loc 1 354 5 discriminator 5 view .LVU915
 354:../switch_sdk/core/yt/yt_port.c ****     CMM_PARAM_CHK((!(YT_DISPATCH(unit)->is_inited)), CMM_ERR_NOT_INIT);
 3226              		.loc 1 354 5 discriminator 5 view .LVU916
 3227 005a 0420     		movs	r0, #4
 3228 005c EAE7     		b	.L313
 3229              	.LVL419:
 3230              	.L332:
 354:../switch_sdk/core/yt/yt_port.c ****     CMM_PARAM_CHK((!(YT_DISPATCH(unit)->is_inited)), CMM_ERR_NOT_INIT);
 3231              		.loc 1 354 5 discriminator 3 view .LVU917
 3232              	.LBB63:
 354:../switch_sdk/core/yt/yt_port.c ****     CMM_PARAM_CHK((!(YT_DISPATCH(unit)->is_inited)), CMM_ERR_NOT_INIT);
 3233              		.loc 1 354 5 discriminator 3 view .LVU918
 3234 005e 1D4B     		ldr	r3, .L336+16
 3235 0060 1A69     		ldr	r2, [r3, #16]
 3236              	.LVL420:
 354:../switch_sdk/core/yt/yt_port.c ****     CMM_PARAM_CHK((!(YT_DISPATCH(unit)->is_inited)), CMM_ERR_NOT_INIT);
 3237              		.loc 1 354 5 is_stmt 0 discriminator 3 view .LVU919
 3238 0062 1D4B     		ldr	r3, .L336+20
 3239 0064 9968     		ldr	r1, [r3, #8]
 3240              	.LVL421:
 354:../switch_sdk/core/yt/yt_port.c ****     CMM_PARAM_CHK((!(YT_DISPATCH(unit)->is_inited)), CMM_ERR_NOT_INIT);
 3241              		.loc 1 354 5 discriminator 3 view .LVU920
 3242 0066 1D48     		ldr	r0, .L336+24
 3243              	.LVL422:
 354:../switch_sdk/core/yt/yt_port.c ****     CMM_PARAM_CHK((!(YT_DISPATCH(unit)->is_inited)), CMM_ERR_NOT_INIT);
 3244              		.loc 1 354 5 discriminator 3 view .LVU921
 3245 0068 FFF7FEFF 		bl	osal_printf
 3246              	.LVL423:
 3247 006c F5E7     		b	.L318
 3248              	.LVL424:
 3249              	.L329:
 354:../switch_sdk/core/yt/yt_port.c ****     CMM_PARAM_CHK((!(YT_DISPATCH(unit)->is_inited)), CMM_ERR_NOT_INIT);
 3250              		.loc 1 354 5 discriminator 3 view .LVU922
 3251              	.LBE63:
 355:../switch_sdk/core/yt/yt_port.c ****     CMM_PARAM_CHK((!(CMM_PORT_VALID(unit, port))), CMM_ERR_PORT);
 3252              		.loc 1 355 5 is_stmt 1 discriminator 1 view .LVU923
 355:../switch_sdk/core/yt/yt_port.c ****     CMM_PARAM_CHK((!(CMM_PORT_VALID(unit, port))), CMM_ERR_PORT);
 3253              		.loc 1 355 5 discriminator 1 view .LVU924
 3254 006e 184B     		ldr	r3, .L336+12
 3255 0070 1B78     		ldrb	r3, [r3]	@ zero_extendqisi2
 3256 0072 012B     		cmp	r3, #1
 3257 0074 01D8     		bhi	.L333
 3258              	.LVL425:
 3259              	.L320:
 355:../switch_sdk/core/yt/yt_port.c ****     CMM_PARAM_CHK((!(CMM_PORT_VALID(unit, port))), CMM_ERR_PORT);
 3260              		.loc 1 355 5 discriminator 5 view .LVU925
 355:../switch_sdk/core/yt/yt_port.c ****     CMM_PARAM_CHK((!(CMM_PORT_VALID(unit, port))), CMM_ERR_PORT);
 3261              		.loc 1 355 5 discriminator 5 view .LVU926
 355:../switch_sdk/core/yt/yt_port.c ****     CMM_PARAM_CHK((!(CMM_PORT_VALID(unit, port))), CMM_ERR_PORT);
 3262              		.loc 1 355 5 discriminator 5 view .LVU927
 3263 0076 0420     		movs	r0, #4
 3264 0078 DCE7     		b	.L313
 3265              	.LVL426:
 3266              	.L333:
 355:../switch_sdk/core/yt/yt_port.c ****     CMM_PARAM_CHK((!(CMM_PORT_VALID(unit, port))), CMM_ERR_PORT);
 3267              		.loc 1 355 5 discriminator 3 view .LVU928
 3268              	.LBB64:
 355:../switch_sdk/core/yt/yt_port.c ****     CMM_PARAM_CHK((!(CMM_PORT_VALID(unit, port))), CMM_ERR_PORT);
 3269              		.loc 1 355 5 discriminator 3 view .LVU929
 3270 007a 164B     		ldr	r3, .L336+16
 3271 007c 1A69     		ldr	r2, [r3, #16]
 3272              	.LVL427:
 355:../switch_sdk/core/yt/yt_port.c ****     CMM_PARAM_CHK((!(CMM_PORT_VALID(unit, port))), CMM_ERR_PORT);
 3273              		.loc 1 355 5 is_stmt 0 discriminator 3 view .LVU930
 3274 007e 164B     		ldr	r3, .L336+20
 3275 0080 9968     		ldr	r1, [r3, #8]
 3276              	.LVL428:
 355:../switch_sdk/core/yt/yt_port.c ****     CMM_PARAM_CHK((!(CMM_PORT_VALID(unit, port))), CMM_ERR_PORT);
 3277              		.loc 1 355 5 discriminator 3 view .LVU931
 3278 0082 1648     		ldr	r0, .L336+24
 3279 0084 FFF7FEFF 		bl	osal_printf
 3280              	.LVL429:
 3281 0088 F5E7     		b	.L320
 3282              	.LVL430:
 3283              	.L321:
 355:../switch_sdk/core/yt/yt_port.c ****     CMM_PARAM_CHK((!(CMM_PORT_VALID(unit, port))), CMM_ERR_PORT);
 3284              		.loc 1 355 5 discriminator 3 view .LVU932
 3285              	.LBE64:
 356:../switch_sdk/core/yt/yt_port.c ****     CMM_PARAM_CHK((NULL == pPort_ctrl), CMM_ERR_NULL_POINT);
 3286              		.loc 1 356 5 is_stmt 1 discriminator 3 view .LVU933
 356:../switch_sdk/core/yt/yt_port.c ****     CMM_PARAM_CHK((NULL == pPort_ctrl), CMM_ERR_NULL_POINT);
 3287              		.loc 1 356 5 discriminator 3 view .LVU934
 3288 008a 114B     		ldr	r3, .L336+12
 3289 008c 1B78     		ldrb	r3, [r3]	@ zero_extendqisi2
 3290 008e 012B     		cmp	r3, #1
 3291 0090 01D8     		bhi	.L334
 3292              	.LVL431:
 3293              	.L323:
 356:../switch_sdk/core/yt/yt_port.c ****     CMM_PARAM_CHK((NULL == pPort_ctrl), CMM_ERR_NULL_POINT);
 3294              		.loc 1 356 5 discriminator 7 view .LVU935
 356:../switch_sdk/core/yt/yt_port.c ****     CMM_PARAM_CHK((NULL == pPort_ctrl), CMM_ERR_NULL_POINT);
 3295              		.loc 1 356 5 discriminator 7 view .LVU936
 356:../switch_sdk/core/yt/yt_port.c ****     CMM_PARAM_CHK((NULL == pPort_ctrl), CMM_ERR_NULL_POINT);
 3296              		.loc 1 356 5 discriminator 7 view .LVU937
 3297 0092 0E20     		movs	r0, #14
 3298 0094 CEE7     		b	.L313
 3299              	.LVL432:
 3300              	.L334:
 356:../switch_sdk/core/yt/yt_port.c ****     CMM_PARAM_CHK((NULL == pPort_ctrl), CMM_ERR_NULL_POINT);
 3301              		.loc 1 356 5 discriminator 5 view .LVU938
 3302              	.LBB65:
 356:../switch_sdk/core/yt/yt_port.c ****     CMM_PARAM_CHK((NULL == pPort_ctrl), CMM_ERR_NULL_POINT);
 3303              		.loc 1 356 5 discriminator 5 view .LVU939
 3304 0096 0F4B     		ldr	r3, .L336+16
 3305 0098 9A6B     		ldr	r2, [r3, #56]
 3306              	.LVL433:
 356:../switch_sdk/core/yt/yt_port.c ****     CMM_PARAM_CHK((NULL == pPort_ctrl), CMM_ERR_NULL_POINT);
 3307              		.loc 1 356 5 is_stmt 0 discriminator 5 view .LVU940
 3308 009a 0F4B     		ldr	r3, .L336+20
 3309 009c 9968     		ldr	r1, [r3, #8]
 3310              	.LVL434:
 356:../switch_sdk/core/yt/yt_port.c ****     CMM_PARAM_CHK((NULL == pPort_ctrl), CMM_ERR_NULL_POINT);
 3311              		.loc 1 356 5 discriminator 5 view .LVU941
 3312 009e 0F48     		ldr	r0, .L336+24
 3313 00a0 FFF7FEFF 		bl	osal_printf
 3314              	.LVL435:
 3315 00a4 F5E7     		b	.L323
 3316              	.LVL436:
 3317              	.L330:
 356:../switch_sdk/core/yt/yt_port.c ****     CMM_PARAM_CHK((NULL == pPort_ctrl), CMM_ERR_NULL_POINT);
 3318              		.loc 1 356 5 discriminator 5 view .LVU942
 3319              	.LBE65:
 357:../switch_sdk/core/yt/yt_port.c **** 
 3320              		.loc 1 357 5 is_stmt 1 discriminator 1 view .LVU943
 357:../switch_sdk/core/yt/yt_port.c **** 
 3321              		.loc 1 357 5 discriminator 1 view .LVU944
 3322 00a6 0A4B     		ldr	r3, .L336+12
 3323 00a8 1B78     		ldrb	r3, [r3]	@ zero_extendqisi2
 3324 00aa 012B     		cmp	r3, #1
 3325 00ac 01D8     		bhi	.L335
 3326              	.LVL437:
 3327              	.L325:
 357:../switch_sdk/core/yt/yt_port.c **** 
 3328              		.loc 1 357 5 discriminator 5 view .LVU945
 357:../switch_sdk/core/yt/yt_port.c **** 
 3329              		.loc 1 357 5 discriminator 5 view .LVU946
 357:../switch_sdk/core/yt/yt_port.c **** 
 3330              		.loc 1 357 5 discriminator 5 view .LVU947
 3331 00ae 0220     		movs	r0, #2
 3332 00b0 C0E7     		b	.L313
 3333              	.LVL438:
 3334              	.L335:
 357:../switch_sdk/core/yt/yt_port.c **** 
 3335              		.loc 1 357 5 discriminator 3 view .LVU948
 3336              	.LBB66:
 357:../switch_sdk/core/yt/yt_port.c **** 
 3337              		.loc 1 357 5 discriminator 3 view .LVU949
 3338 00b2 084B     		ldr	r3, .L336+16
 3339 00b4 9A68     		ldr	r2, [r3, #8]
 3340              	.LVL439:
 357:../switch_sdk/core/yt/yt_port.c **** 
 3341              		.loc 1 357 5 is_stmt 0 discriminator 3 view .LVU950
 3342 00b6 084B     		ldr	r3, .L336+20
 3343 00b8 9968     		ldr	r1, [r3, #8]
 3344              	.LVL440:
 357:../switch_sdk/core/yt/yt_port.c **** 
 3345              		.loc 1 357 5 discriminator 3 view .LVU951
 3346 00ba 0848     		ldr	r0, .L336+24
 3347 00bc FFF7FEFF 		bl	osal_printf
 3348              	.LVL441:
 3349 00c0 F5E7     		b	.L325
 3350              	.L337:
 3351 00c2 00BF     		.align	2
 3352              	.L336:
 3353 00c4 00000000 		.word	gpfal_dispatch
 3354 00c8 00000000 		.word	gcal_inited
 3355 00cc 00000000 		.word	gpSwitchUnit
 3356 00d0 00000000 		.word	yt_debug_level
 3357 00d4 00000000 		.word	_yt_errmsg
 3358 00d8 00000000 		.word	_yt_prompt_msg
 3359 00dc 00000000 		.word	.LC0
 3360              	.LBE66:
 3361              		.cfi_endproc
 3362              	.LFE17:
 3364              		.section	.text.yt_port_mac_fc_set,"ax",%progbits
 3365              		.align	1
 3366              		.global	yt_port_mac_fc_set
 3367              		.syntax unified
 3368              		.thumb
 3369              		.thumb_func
 3371              	yt_port_mac_fc_set:
 3372              	.LVL442:
 3373              	.LFB18:
 361:../switch_sdk/core/yt/yt_port.c **** 
 362:../switch_sdk/core/yt/yt_port.c **** /**
 363:../switch_sdk/core/yt/yt_port.c ****  * @internal      yt_port_mac_fc_set
 364:../switch_sdk/core/yt/yt_port.c ****  * @endinternal
 365:../switch_sdk/core/yt/yt_port.c ****  *
 366:../switch_sdk/core/yt/yt_port.c ****  * @brief         Description
 367:../switch_sdk/core/yt/yt_port.c ****  * @note          APPLICABLE DEVICES  -Tiger
 368:../switch_sdk/core/yt/yt_port.c ****  * @param[in]     unit                -unit id
 369:../switch_sdk/core/yt/yt_port.c ****  * @param[in]     port                -port num
 370:../switch_sdk/core/yt/yt_port.c ****  * @param[in]     enable              -enable or disable
 371:../switch_sdk/core/yt/yt_port.c ****  * @retval        CMM_ERR_OK          -on success
 372:../switch_sdk/core/yt/yt_port.c ****  * @retval        CMM_ERR_FAIL        -on fail
 373:../switch_sdk/core/yt/yt_port.c ****  */
 374:../switch_sdk/core/yt/yt_port.c **** yt_ret_t yt_port_mac_fc_set(yt_unit_t unit, yt_port_t port, yt_enable_t enable)
 375:../switch_sdk/core/yt/yt_port.c **** {
 3374              		.loc 1 375 1 is_stmt 1 view -0
 3375              		.cfi_startproc
 3376              		@ args = 0, pretend = 0, frame = 0
 3377              		@ frame_needed = 0, uses_anonymous_args = 0
 3378              		.loc 1 375 1 is_stmt 0 view .LVU953
 3379 0000 08B5     		push	{r3, lr}
 3380              		.cfi_def_cfa_offset 8
 3381              		.cfi_offset 3, -8
 3382              		.cfi_offset 14, -4
 376:../switch_sdk/core/yt/yt_port.c ****     CMM_PARAM_CHK((YT_UNIT_NUM <= unit), CMM_ERR_INPUT);
 3383              		.loc 1 376 5 is_stmt 1 view .LVU954
 3384              		.loc 1 376 5 view .LVU955
 3385 0002 C0B9     		cbnz	r0, .L352
 3386 0004 8446     		mov	ip, r0
 3387              		.loc 1 376 5 discriminator 2 view .LVU956
 377:../switch_sdk/core/yt/yt_port.c ****     CMM_PARAM_CHK(NULL == YT_DISPATCH(unit), CMM_ERR_NOT_INIT);
 3388              		.loc 1 377 5 discriminator 2 view .LVU957
 3389              		.loc 1 377 5 discriminator 2 view .LVU958
 3390 0006 2F4B     		ldr	r3, .L361
 3391 0008 53F82030 		ldr	r3, [r3, r0, lsl #2]
 3392 000c 0BB3     		cbz	r3, .L353
 3393              		.loc 1 377 5 discriminator 2 view .LVU959
 378:../switch_sdk/core/yt/yt_port.c ****     CMM_PARAM_CHK((!(YT_DISPATCH(unit)->is_inited)), CMM_ERR_NOT_INIT);
 3394              		.loc 1 378 5 discriminator 2 view .LVU960
 3395              		.loc 1 378 5 discriminator 2 view .LVU961
 3396 000e 1878     		ldrb	r0, [r3]	@ zero_extendqisi2
 3397              	.LVL443:
 3398              		.loc 1 378 5 is_stmt 0 discriminator 2 view .LVU962
 3399 0010 0028     		cmp	r0, #0
 3400 0012 2CD0     		beq	.L354
 3401              		.loc 1 378 5 is_stmt 1 discriminator 2 view .LVU963
 379:../switch_sdk/core/yt/yt_port.c ****     CMM_PARAM_CHK((!(CMM_PORT_VALID(unit, port))), CMM_ERR_PORT);
 3402              		.loc 1 379 5 discriminator 2 view .LVU964
 3403              		.loc 1 379 5 discriminator 2 view .LVU965
 3404 0014 2C48     		ldr	r0, .L361+4
 3405 0016 0078     		ldrb	r0, [r0]	@ zero_extendqisi2
 3406 0018 0028     		cmp	r0, #0
 3407 001a 36D0     		beq	.L346
 3408 001c 2B48     		ldr	r0, .L361+8
 3409 001e 50F82C00 		ldr	r0, [r0, ip, lsl #2]
 3410 0022 007D     		ldrb	r0, [r0, #20]	@ zero_extendqisi2
 3411 0024 8842     		cmp	r0, r1
 3412 0026 30D9     		bls	.L346
 3413              		.loc 1 379 5 discriminator 4 view .LVU966
 380:../switch_sdk/core/yt/yt_port.c ****     CMM_PARAM_CHK((YT_ENABLE < enable || YT_DISABLE > enable), CMM_ERR_INPUT);
 3414              		.loc 1 380 5 discriminator 4 view .LVU967
 3415              		.loc 1 380 5 discriminator 4 view .LVU968
 3416 0028 012A     		cmp	r2, #1
 3417 002a 3CD8     		bhi	.L355
 3418              		.loc 1 380 5 discriminator 2 view .LVU969
 381:../switch_sdk/core/yt/yt_port.c **** 
 382:../switch_sdk/core/yt/yt_port.c ****     return YT_DISPATCH(unit)->port_mac_fc_set(unit, port, enable);
 3419              		.loc 1 382 5 discriminator 2 view .LVU970
 3420              		.loc 1 382 29 is_stmt 0 discriminator 2 view .LVU971
 3421 002c D3F88C35 		ldr	r3, [r3, #1420]
 3422              		.loc 1 382 12 discriminator 2 view .LVU972
 3423 0030 6046     		mov	r0, ip
 3424 0032 9847     		blx	r3
 3425              	.LVL444:
 3426              	.L338:
 383:../switch_sdk/core/yt/yt_port.c **** }
 3427              		.loc 1 383 1 view .LVU973
 3428 0034 08BD     		pop	{r3, pc}
 3429              	.LVL445:
 3430              	.L352:
 376:../switch_sdk/core/yt/yt_port.c ****     CMM_PARAM_CHK(NULL == YT_DISPATCH(unit), CMM_ERR_NOT_INIT);
 3431              		.loc 1 376 5 is_stmt 1 discriminator 1 view .LVU974
 376:../switch_sdk/core/yt/yt_port.c ****     CMM_PARAM_CHK(NULL == YT_DISPATCH(unit), CMM_ERR_NOT_INIT);
 3432              		.loc 1 376 5 discriminator 1 view .LVU975
 3433 0036 264B     		ldr	r3, .L361+12
 3434 0038 1B78     		ldrb	r3, [r3]	@ zero_extendqisi2
 3435 003a 012B     		cmp	r3, #1
 3436 003c 01D8     		bhi	.L356
 3437              	.LVL446:
 3438              	.L340:
 376:../switch_sdk/core/yt/yt_port.c ****     CMM_PARAM_CHK(NULL == YT_DISPATCH(unit), CMM_ERR_NOT_INIT);
 3439              		.loc 1 376 5 discriminator 5 view .LVU976
 376:../switch_sdk/core/yt/yt_port.c ****     CMM_PARAM_CHK(NULL == YT_DISPATCH(unit), CMM_ERR_NOT_INIT);
 3440              		.loc 1 376 5 discriminator 5 view .LVU977
 376:../switch_sdk/core/yt/yt_port.c ****     CMM_PARAM_CHK(NULL == YT_DISPATCH(unit), CMM_ERR_NOT_INIT);
 3441              		.loc 1 376 5 discriminator 5 view .LVU978
 3442 003e 0520     		movs	r0, #5
 3443 0040 F8E7     		b	.L338
 3444              	.LVL447:
 3445              	.L356:
 376:../switch_sdk/core/yt/yt_port.c ****     CMM_PARAM_CHK(NULL == YT_DISPATCH(unit), CMM_ERR_NOT_INIT);
 3446              		.loc 1 376 5 discriminator 3 view .LVU979
 3447              	.LBB67:
 376:../switch_sdk/core/yt/yt_port.c ****     CMM_PARAM_CHK(NULL == YT_DISPATCH(unit), CMM_ERR_NOT_INIT);
 3448              		.loc 1 376 5 discriminator 3 view .LVU980
 3449 0042 244B     		ldr	r3, .L361+16
 3450 0044 5A69     		ldr	r2, [r3, #20]
 3451              	.LVL448:
 376:../switch_sdk/core/yt/yt_port.c ****     CMM_PARAM_CHK(NULL == YT_DISPATCH(unit), CMM_ERR_NOT_INIT);
 3452              		.loc 1 376 5 is_stmt 0 discriminator 3 view .LVU981
 3453 0046 244B     		ldr	r3, .L361+20
 3454 0048 9968     		ldr	r1, [r3, #8]
 3455              	.LVL449:
 376:../switch_sdk/core/yt/yt_port.c ****     CMM_PARAM_CHK(NULL == YT_DISPATCH(unit), CMM_ERR_NOT_INIT);
 3456              		.loc 1 376 5 discriminator 3 view .LVU982
 3457 004a 2448     		ldr	r0, .L361+24
 3458              	.LVL450:
 376:../switch_sdk/core/yt/yt_port.c ****     CMM_PARAM_CHK(NULL == YT_DISPATCH(unit), CMM_ERR_NOT_INIT);
 3459              		.loc 1 376 5 discriminator 3 view .LVU983
 3460 004c FFF7FEFF 		bl	osal_printf
 3461              	.LVL451:
 3462 0050 F5E7     		b	.L340
 3463              	.LVL452:
 3464              	.L353:
 376:../switch_sdk/core/yt/yt_port.c ****     CMM_PARAM_CHK(NULL == YT_DISPATCH(unit), CMM_ERR_NOT_INIT);
 3465              		.loc 1 376 5 discriminator 3 view .LVU984
 3466              	.LBE67:
 377:../switch_sdk/core/yt/yt_port.c ****     CMM_PARAM_CHK((!(YT_DISPATCH(unit)->is_inited)), CMM_ERR_NOT_INIT);
 3467              		.loc 1 377 5 is_stmt 1 discriminator 1 view .LVU985
 377:../switch_sdk/core/yt/yt_port.c ****     CMM_PARAM_CHK((!(YT_DISPATCH(unit)->is_inited)), CMM_ERR_NOT_INIT);
 3468              		.loc 1 377 5 discriminator 1 view .LVU986
 3469 0052 1F4B     		ldr	r3, .L361+12
 3470 0054 1B78     		ldrb	r3, [r3]	@ zero_extendqisi2
 3471 0056 012B     		cmp	r3, #1
 3472 0058 01D8     		bhi	.L357
 3473              	.LVL453:
 3474              	.L343:
 377:../switch_sdk/core/yt/yt_port.c ****     CMM_PARAM_CHK((!(YT_DISPATCH(unit)->is_inited)), CMM_ERR_NOT_INIT);
 3475              		.loc 1 377 5 discriminator 5 view .LVU987
 377:../switch_sdk/core/yt/yt_port.c ****     CMM_PARAM_CHK((!(YT_DISPATCH(unit)->is_inited)), CMM_ERR_NOT_INIT);
 3476              		.loc 1 377 5 discriminator 5 view .LVU988
 377:../switch_sdk/core/yt/yt_port.c ****     CMM_PARAM_CHK((!(YT_DISPATCH(unit)->is_inited)), CMM_ERR_NOT_INIT);
 3477              		.loc 1 377 5 discriminator 5 view .LVU989
 3478 005a 0420     		movs	r0, #4
 3479 005c EAE7     		b	.L338
 3480              	.LVL454:
 3481              	.L357:
 377:../switch_sdk/core/yt/yt_port.c ****     CMM_PARAM_CHK((!(YT_DISPATCH(unit)->is_inited)), CMM_ERR_NOT_INIT);
 3482              		.loc 1 377 5 discriminator 3 view .LVU990
 3483              	.LBB68:
 377:../switch_sdk/core/yt/yt_port.c ****     CMM_PARAM_CHK((!(YT_DISPATCH(unit)->is_inited)), CMM_ERR_NOT_INIT);
 3484              		.loc 1 377 5 discriminator 3 view .LVU991
 3485 005e 1D4B     		ldr	r3, .L361+16
 3486 0060 1A69     		ldr	r2, [r3, #16]
 3487              	.LVL455:
 377:../switch_sdk/core/yt/yt_port.c ****     CMM_PARAM_CHK((!(YT_DISPATCH(unit)->is_inited)), CMM_ERR_NOT_INIT);
 3488              		.loc 1 377 5 is_stmt 0 discriminator 3 view .LVU992
 3489 0062 1D4B     		ldr	r3, .L361+20
 3490 0064 9968     		ldr	r1, [r3, #8]
 3491              	.LVL456:
 377:../switch_sdk/core/yt/yt_port.c ****     CMM_PARAM_CHK((!(YT_DISPATCH(unit)->is_inited)), CMM_ERR_NOT_INIT);
 3492              		.loc 1 377 5 discriminator 3 view .LVU993
 3493 0066 1D48     		ldr	r0, .L361+24
 3494              	.LVL457:
 377:../switch_sdk/core/yt/yt_port.c ****     CMM_PARAM_CHK((!(YT_DISPATCH(unit)->is_inited)), CMM_ERR_NOT_INIT);
 3495              		.loc 1 377 5 discriminator 3 view .LVU994
 3496 0068 FFF7FEFF 		bl	osal_printf
 3497              	.LVL458:
 3498 006c F5E7     		b	.L343
 3499              	.LVL459:
 3500              	.L354:
 377:../switch_sdk/core/yt/yt_port.c ****     CMM_PARAM_CHK((!(YT_DISPATCH(unit)->is_inited)), CMM_ERR_NOT_INIT);
 3501              		.loc 1 377 5 discriminator 3 view .LVU995
 3502              	.LBE68:
 378:../switch_sdk/core/yt/yt_port.c ****     CMM_PARAM_CHK((!(CMM_PORT_VALID(unit, port))), CMM_ERR_PORT);
 3503              		.loc 1 378 5 is_stmt 1 discriminator 1 view .LVU996
 378:../switch_sdk/core/yt/yt_port.c ****     CMM_PARAM_CHK((!(CMM_PORT_VALID(unit, port))), CMM_ERR_PORT);
 3504              		.loc 1 378 5 discriminator 1 view .LVU997
 3505 006e 184B     		ldr	r3, .L361+12
 3506 0070 1B78     		ldrb	r3, [r3]	@ zero_extendqisi2
 3507 0072 012B     		cmp	r3, #1
 3508 0074 01D8     		bhi	.L358
 3509              	.LVL460:
 3510              	.L345:
 378:../switch_sdk/core/yt/yt_port.c ****     CMM_PARAM_CHK((!(CMM_PORT_VALID(unit, port))), CMM_ERR_PORT);
 3511              		.loc 1 378 5 discriminator 5 view .LVU998
 378:../switch_sdk/core/yt/yt_port.c ****     CMM_PARAM_CHK((!(CMM_PORT_VALID(unit, port))), CMM_ERR_PORT);
 3512              		.loc 1 378 5 discriminator 5 view .LVU999
 378:../switch_sdk/core/yt/yt_port.c ****     CMM_PARAM_CHK((!(CMM_PORT_VALID(unit, port))), CMM_ERR_PORT);
 3513              		.loc 1 378 5 discriminator 5 view .LVU1000
 3514 0076 0420     		movs	r0, #4
 3515 0078 DCE7     		b	.L338
 3516              	.LVL461:
 3517              	.L358:
 378:../switch_sdk/core/yt/yt_port.c ****     CMM_PARAM_CHK((!(CMM_PORT_VALID(unit, port))), CMM_ERR_PORT);
 3518              		.loc 1 378 5 discriminator 3 view .LVU1001
 3519              	.LBB69:
 378:../switch_sdk/core/yt/yt_port.c ****     CMM_PARAM_CHK((!(CMM_PORT_VALID(unit, port))), CMM_ERR_PORT);
 3520              		.loc 1 378 5 discriminator 3 view .LVU1002
 3521 007a 164B     		ldr	r3, .L361+16
 3522 007c 1A69     		ldr	r2, [r3, #16]
 3523              	.LVL462:
 378:../switch_sdk/core/yt/yt_port.c ****     CMM_PARAM_CHK((!(CMM_PORT_VALID(unit, port))), CMM_ERR_PORT);
 3524              		.loc 1 378 5 is_stmt 0 discriminator 3 view .LVU1003
 3525 007e 164B     		ldr	r3, .L361+20
 3526 0080 9968     		ldr	r1, [r3, #8]
 3527              	.LVL463:
 378:../switch_sdk/core/yt/yt_port.c ****     CMM_PARAM_CHK((!(CMM_PORT_VALID(unit, port))), CMM_ERR_PORT);
 3528              		.loc 1 378 5 discriminator 3 view .LVU1004
 3529 0082 1648     		ldr	r0, .L361+24
 3530 0084 FFF7FEFF 		bl	osal_printf
 3531              	.LVL464:
 3532 0088 F5E7     		b	.L345
 3533              	.LVL465:
 3534              	.L346:
 378:../switch_sdk/core/yt/yt_port.c ****     CMM_PARAM_CHK((!(CMM_PORT_VALID(unit, port))), CMM_ERR_PORT);
 3535              		.loc 1 378 5 discriminator 3 view .LVU1005
 3536              	.LBE69:
 379:../switch_sdk/core/yt/yt_port.c ****     CMM_PARAM_CHK((YT_ENABLE < enable || YT_DISABLE > enable), CMM_ERR_INPUT);
 3537              		.loc 1 379 5 is_stmt 1 discriminator 3 view .LVU1006
 379:../switch_sdk/core/yt/yt_port.c ****     CMM_PARAM_CHK((YT_ENABLE < enable || YT_DISABLE > enable), CMM_ERR_INPUT);
 3538              		.loc 1 379 5 discriminator 3 view .LVU1007
 3539 008a 114B     		ldr	r3, .L361+12
 3540 008c 1B78     		ldrb	r3, [r3]	@ zero_extendqisi2
 3541 008e 012B     		cmp	r3, #1
 3542 0090 01D8     		bhi	.L359
 3543              	.LVL466:
 3544              	.L348:
 379:../switch_sdk/core/yt/yt_port.c ****     CMM_PARAM_CHK((YT_ENABLE < enable || YT_DISABLE > enable), CMM_ERR_INPUT);
 3545              		.loc 1 379 5 discriminator 7 view .LVU1008
 379:../switch_sdk/core/yt/yt_port.c ****     CMM_PARAM_CHK((YT_ENABLE < enable || YT_DISABLE > enable), CMM_ERR_INPUT);
 3546              		.loc 1 379 5 discriminator 7 view .LVU1009
 379:../switch_sdk/core/yt/yt_port.c ****     CMM_PARAM_CHK((YT_ENABLE < enable || YT_DISABLE > enable), CMM_ERR_INPUT);
 3547              		.loc 1 379 5 discriminator 7 view .LVU1010
 3548 0092 0E20     		movs	r0, #14
 3549 0094 CEE7     		b	.L338
 3550              	.LVL467:
 3551              	.L359:
 379:../switch_sdk/core/yt/yt_port.c ****     CMM_PARAM_CHK((YT_ENABLE < enable || YT_DISABLE > enable), CMM_ERR_INPUT);
 3552              		.loc 1 379 5 discriminator 5 view .LVU1011
 3553              	.LBB70:
 379:../switch_sdk/core/yt/yt_port.c ****     CMM_PARAM_CHK((YT_ENABLE < enable || YT_DISABLE > enable), CMM_ERR_INPUT);
 3554              		.loc 1 379 5 discriminator 5 view .LVU1012
 3555 0096 0F4B     		ldr	r3, .L361+16
 3556 0098 9A6B     		ldr	r2, [r3, #56]
 3557              	.LVL468:
 379:../switch_sdk/core/yt/yt_port.c ****     CMM_PARAM_CHK((YT_ENABLE < enable || YT_DISABLE > enable), CMM_ERR_INPUT);
 3558              		.loc 1 379 5 is_stmt 0 discriminator 5 view .LVU1013
 3559 009a 0F4B     		ldr	r3, .L361+20
 3560 009c 9968     		ldr	r1, [r3, #8]
 3561              	.LVL469:
 379:../switch_sdk/core/yt/yt_port.c ****     CMM_PARAM_CHK((YT_ENABLE < enable || YT_DISABLE > enable), CMM_ERR_INPUT);
 3562              		.loc 1 379 5 discriminator 5 view .LVU1014
 3563 009e 0F48     		ldr	r0, .L361+24
 3564 00a0 FFF7FEFF 		bl	osal_printf
 3565              	.LVL470:
 3566 00a4 F5E7     		b	.L348
 3567              	.LVL471:
 3568              	.L355:
 379:../switch_sdk/core/yt/yt_port.c ****     CMM_PARAM_CHK((YT_ENABLE < enable || YT_DISABLE > enable), CMM_ERR_INPUT);
 3569              		.loc 1 379 5 discriminator 5 view .LVU1015
 3570              	.LBE70:
 380:../switch_sdk/core/yt/yt_port.c **** 
 3571              		.loc 1 380 5 is_stmt 1 discriminator 1 view .LVU1016
 380:../switch_sdk/core/yt/yt_port.c **** 
 3572              		.loc 1 380 5 discriminator 1 view .LVU1017
 3573 00a6 0A4B     		ldr	r3, .L361+12
 3574 00a8 1B78     		ldrb	r3, [r3]	@ zero_extendqisi2
 3575 00aa 012B     		cmp	r3, #1
 3576 00ac 01D8     		bhi	.L360
 3577              	.LVL472:
 3578              	.L350:
 380:../switch_sdk/core/yt/yt_port.c **** 
 3579              		.loc 1 380 5 discriminator 5 view .LVU1018
 380:../switch_sdk/core/yt/yt_port.c **** 
 3580              		.loc 1 380 5 discriminator 5 view .LVU1019
 380:../switch_sdk/core/yt/yt_port.c **** 
 3581              		.loc 1 380 5 discriminator 5 view .LVU1020
 3582 00ae 0520     		movs	r0, #5
 3583 00b0 C0E7     		b	.L338
 3584              	.LVL473:
 3585              	.L360:
 380:../switch_sdk/core/yt/yt_port.c **** 
 3586              		.loc 1 380 5 discriminator 3 view .LVU1021
 3587              	.LBB71:
 380:../switch_sdk/core/yt/yt_port.c **** 
 3588              		.loc 1 380 5 discriminator 3 view .LVU1022
 3589 00b2 084B     		ldr	r3, .L361+16
 3590 00b4 5A69     		ldr	r2, [r3, #20]
 3591              	.LVL474:
 380:../switch_sdk/core/yt/yt_port.c **** 
 3592              		.loc 1 380 5 is_stmt 0 discriminator 3 view .LVU1023
 3593 00b6 084B     		ldr	r3, .L361+20
 3594 00b8 9968     		ldr	r1, [r3, #8]
 3595              	.LVL475:
 380:../switch_sdk/core/yt/yt_port.c **** 
 3596              		.loc 1 380 5 discriminator 3 view .LVU1024
 3597 00ba 0848     		ldr	r0, .L361+24
 3598 00bc FFF7FEFF 		bl	osal_printf
 3599              	.LVL476:
 3600 00c0 F5E7     		b	.L350
 3601              	.L362:
 3602 00c2 00BF     		.align	2
 3603              	.L361:
 3604 00c4 00000000 		.word	gpfal_dispatch
 3605 00c8 00000000 		.word	gcal_inited
 3606 00cc 00000000 		.word	gpSwitchUnit
 3607 00d0 00000000 		.word	yt_debug_level
 3608 00d4 00000000 		.word	_yt_errmsg
 3609 00d8 00000000 		.word	_yt_prompt_msg
 3610 00dc 00000000 		.word	.LC0
 3611              	.LBE71:
 3612              		.cfi_endproc
 3613              	.LFE18:
 3615              		.section	.text.yt_port_mac_fc_get,"ax",%progbits
 3616              		.align	1
 3617              		.global	yt_port_mac_fc_get
 3618              		.syntax unified
 3619              		.thumb
 3620              		.thumb_func
 3622              	yt_port_mac_fc_get:
 3623              	.LVL477:
 3624              	.LFB19:
 384:../switch_sdk/core/yt/yt_port.c **** 
 385:../switch_sdk/core/yt/yt_port.c **** /**
 386:../switch_sdk/core/yt/yt_port.c ****  * @internal      yt_port_mac_fc_get
 387:../switch_sdk/core/yt/yt_port.c ****  * @endinternal
 388:../switch_sdk/core/yt/yt_port.c ****  *
 389:../switch_sdk/core/yt/yt_port.c ****  * @brief         Description
 390:../switch_sdk/core/yt/yt_port.c ****  * @note          APPLICABLE DEVICES  -Tiger
 391:../switch_sdk/core/yt/yt_port.c ****  * @param[in]     unit                -unit id
 392:../switch_sdk/core/yt/yt_port.c ****  * @param[in]     port                -port num
 393:../switch_sdk/core/yt/yt_port.c ****  * @param[out]    pEnable             -enable or disable
 394:../switch_sdk/core/yt/yt_port.c ****  * @retval        CMM_ERR_OK          -on success
 395:../switch_sdk/core/yt/yt_port.c ****  * @retval        CMM_ERR_FAIL        -on fail
 396:../switch_sdk/core/yt/yt_port.c ****  */
 397:../switch_sdk/core/yt/yt_port.c **** yt_ret_t yt_port_mac_fc_get(yt_unit_t unit, yt_port_t port, yt_enable_t *pEnable)
 398:../switch_sdk/core/yt/yt_port.c **** {
 3625              		.loc 1 398 1 is_stmt 1 view -0
 3626              		.cfi_startproc
 3627              		@ args = 0, pretend = 0, frame = 0
 3628              		@ frame_needed = 0, uses_anonymous_args = 0
 3629              		.loc 1 398 1 is_stmt 0 view .LVU1026
 3630 0000 08B5     		push	{r3, lr}
 3631              		.cfi_def_cfa_offset 8
 3632              		.cfi_offset 3, -8
 3633              		.cfi_offset 14, -4
 399:../switch_sdk/core/yt/yt_port.c ****     CMM_PARAM_CHK((YT_UNIT_NUM <= unit), CMM_ERR_INPUT);
 3634              		.loc 1 399 5 is_stmt 1 view .LVU1027
 3635              		.loc 1 399 5 view .LVU1028
 3636 0002 C0B9     		cbnz	r0, .L377
 3637 0004 8446     		mov	ip, r0
 3638              		.loc 1 399 5 discriminator 2 view .LVU1029
 400:../switch_sdk/core/yt/yt_port.c ****     CMM_PARAM_CHK(NULL == YT_DISPATCH(unit), CMM_ERR_NOT_INIT);
 3639              		.loc 1 400 5 discriminator 2 view .LVU1030
 3640              		.loc 1 400 5 discriminator 2 view .LVU1031
 3641 0006 2F4B     		ldr	r3, .L386
 3642 0008 53F82030 		ldr	r3, [r3, r0, lsl #2]
 3643 000c 0BB3     		cbz	r3, .L378
 3644              		.loc 1 400 5 discriminator 2 view .LVU1032
 401:../switch_sdk/core/yt/yt_port.c ****     CMM_PARAM_CHK((!(YT_DISPATCH(unit)->is_inited)), CMM_ERR_NOT_INIT);
 3645              		.loc 1 401 5 discriminator 2 view .LVU1033
 3646              		.loc 1 401 5 discriminator 2 view .LVU1034
 3647 000e 1878     		ldrb	r0, [r3]	@ zero_extendqisi2
 3648              	.LVL478:
 3649              		.loc 1 401 5 is_stmt 0 discriminator 2 view .LVU1035
 3650 0010 0028     		cmp	r0, #0
 3651 0012 2CD0     		beq	.L379
 3652              		.loc 1 401 5 is_stmt 1 discriminator 2 view .LVU1036
 402:../switch_sdk/core/yt/yt_port.c ****     CMM_PARAM_CHK((!(CMM_PORT_VALID(unit, port))), CMM_ERR_PORT);
 3653              		.loc 1 402 5 discriminator 2 view .LVU1037
 3654              		.loc 1 402 5 discriminator 2 view .LVU1038
 3655 0014 2C48     		ldr	r0, .L386+4
 3656 0016 0078     		ldrb	r0, [r0]	@ zero_extendqisi2
 3657 0018 0028     		cmp	r0, #0
 3658 001a 36D0     		beq	.L371
 3659 001c 2B48     		ldr	r0, .L386+8
 3660 001e 50F82C00 		ldr	r0, [r0, ip, lsl #2]
 3661 0022 007D     		ldrb	r0, [r0, #20]	@ zero_extendqisi2
 3662 0024 8842     		cmp	r0, r1
 3663 0026 30D9     		bls	.L371
 3664              		.loc 1 402 5 discriminator 4 view .LVU1039
 403:../switch_sdk/core/yt/yt_port.c ****     CMM_PARAM_CHK((NULL == pEnable), CMM_ERR_NULL_POINT);
 3665              		.loc 1 403 5 discriminator 4 view .LVU1040
 3666              		.loc 1 403 5 discriminator 4 view .LVU1041
 3667 0028 002A     		cmp	r2, #0
 3668 002a 3CD0     		beq	.L380
 3669              		.loc 1 403 5 discriminator 2 view .LVU1042
 404:../switch_sdk/core/yt/yt_port.c **** 
 405:../switch_sdk/core/yt/yt_port.c ****     return YT_DISPATCH(unit)->port_mac_fc_get(unit, port, pEnable);
 3670              		.loc 1 405 5 discriminator 2 view .LVU1043
 3671              		.loc 1 405 29 is_stmt 0 discriminator 2 view .LVU1044
 3672 002c D3F89035 		ldr	r3, [r3, #1424]
 3673              		.loc 1 405 12 discriminator 2 view .LVU1045
 3674 0030 6046     		mov	r0, ip
 3675 0032 9847     		blx	r3
 3676              	.LVL479:
 3677              	.L363:
 406:../switch_sdk/core/yt/yt_port.c **** }
 3678              		.loc 1 406 1 view .LVU1046
 3679 0034 08BD     		pop	{r3, pc}
 3680              	.LVL480:
 3681              	.L377:
 399:../switch_sdk/core/yt/yt_port.c ****     CMM_PARAM_CHK(NULL == YT_DISPATCH(unit), CMM_ERR_NOT_INIT);
 3682              		.loc 1 399 5 is_stmt 1 discriminator 1 view .LVU1047
 399:../switch_sdk/core/yt/yt_port.c ****     CMM_PARAM_CHK(NULL == YT_DISPATCH(unit), CMM_ERR_NOT_INIT);
 3683              		.loc 1 399 5 discriminator 1 view .LVU1048
 3684 0036 264B     		ldr	r3, .L386+12
 3685 0038 1B78     		ldrb	r3, [r3]	@ zero_extendqisi2
 3686 003a 012B     		cmp	r3, #1
 3687 003c 01D8     		bhi	.L381
 3688              	.LVL481:
 3689              	.L365:
 399:../switch_sdk/core/yt/yt_port.c ****     CMM_PARAM_CHK(NULL == YT_DISPATCH(unit), CMM_ERR_NOT_INIT);
 3690              		.loc 1 399 5 discriminator 5 view .LVU1049
 399:../switch_sdk/core/yt/yt_port.c ****     CMM_PARAM_CHK(NULL == YT_DISPATCH(unit), CMM_ERR_NOT_INIT);
 3691              		.loc 1 399 5 discriminator 5 view .LVU1050
 399:../switch_sdk/core/yt/yt_port.c ****     CMM_PARAM_CHK(NULL == YT_DISPATCH(unit), CMM_ERR_NOT_INIT);
 3692              		.loc 1 399 5 discriminator 5 view .LVU1051
 3693 003e 0520     		movs	r0, #5
 3694 0040 F8E7     		b	.L363
 3695              	.LVL482:
 3696              	.L381:
 399:../switch_sdk/core/yt/yt_port.c ****     CMM_PARAM_CHK(NULL == YT_DISPATCH(unit), CMM_ERR_NOT_INIT);
 3697              		.loc 1 399 5 discriminator 3 view .LVU1052
 3698              	.LBB72:
 399:../switch_sdk/core/yt/yt_port.c ****     CMM_PARAM_CHK(NULL == YT_DISPATCH(unit), CMM_ERR_NOT_INIT);
 3699              		.loc 1 399 5 discriminator 3 view .LVU1053
 3700 0042 244B     		ldr	r3, .L386+16
 3701 0044 5A69     		ldr	r2, [r3, #20]
 3702              	.LVL483:
 399:../switch_sdk/core/yt/yt_port.c ****     CMM_PARAM_CHK(NULL == YT_DISPATCH(unit), CMM_ERR_NOT_INIT);
 3703              		.loc 1 399 5 is_stmt 0 discriminator 3 view .LVU1054
 3704 0046 244B     		ldr	r3, .L386+20
 3705 0048 9968     		ldr	r1, [r3, #8]
 3706              	.LVL484:
 399:../switch_sdk/core/yt/yt_port.c ****     CMM_PARAM_CHK(NULL == YT_DISPATCH(unit), CMM_ERR_NOT_INIT);
 3707              		.loc 1 399 5 discriminator 3 view .LVU1055
 3708 004a 2448     		ldr	r0, .L386+24
 3709              	.LVL485:
 399:../switch_sdk/core/yt/yt_port.c ****     CMM_PARAM_CHK(NULL == YT_DISPATCH(unit), CMM_ERR_NOT_INIT);
 3710              		.loc 1 399 5 discriminator 3 view .LVU1056
 3711 004c FFF7FEFF 		bl	osal_printf
 3712              	.LVL486:
 3713 0050 F5E7     		b	.L365
 3714              	.LVL487:
 3715              	.L378:
 399:../switch_sdk/core/yt/yt_port.c ****     CMM_PARAM_CHK(NULL == YT_DISPATCH(unit), CMM_ERR_NOT_INIT);
 3716              		.loc 1 399 5 discriminator 3 view .LVU1057
 3717              	.LBE72:
 400:../switch_sdk/core/yt/yt_port.c ****     CMM_PARAM_CHK((!(YT_DISPATCH(unit)->is_inited)), CMM_ERR_NOT_INIT);
 3718              		.loc 1 400 5 is_stmt 1 discriminator 1 view .LVU1058
 400:../switch_sdk/core/yt/yt_port.c ****     CMM_PARAM_CHK((!(YT_DISPATCH(unit)->is_inited)), CMM_ERR_NOT_INIT);
 3719              		.loc 1 400 5 discriminator 1 view .LVU1059
 3720 0052 1F4B     		ldr	r3, .L386+12
 3721 0054 1B78     		ldrb	r3, [r3]	@ zero_extendqisi2
 3722 0056 012B     		cmp	r3, #1
 3723 0058 01D8     		bhi	.L382
 3724              	.LVL488:
 3725              	.L368:
 400:../switch_sdk/core/yt/yt_port.c ****     CMM_PARAM_CHK((!(YT_DISPATCH(unit)->is_inited)), CMM_ERR_NOT_INIT);
 3726              		.loc 1 400 5 discriminator 5 view .LVU1060
 400:../switch_sdk/core/yt/yt_port.c ****     CMM_PARAM_CHK((!(YT_DISPATCH(unit)->is_inited)), CMM_ERR_NOT_INIT);
 3727              		.loc 1 400 5 discriminator 5 view .LVU1061
 400:../switch_sdk/core/yt/yt_port.c ****     CMM_PARAM_CHK((!(YT_DISPATCH(unit)->is_inited)), CMM_ERR_NOT_INIT);
 3728              		.loc 1 400 5 discriminator 5 view .LVU1062
 3729 005a 0420     		movs	r0, #4
 3730 005c EAE7     		b	.L363
 3731              	.LVL489:
 3732              	.L382:
 400:../switch_sdk/core/yt/yt_port.c ****     CMM_PARAM_CHK((!(YT_DISPATCH(unit)->is_inited)), CMM_ERR_NOT_INIT);
 3733              		.loc 1 400 5 discriminator 3 view .LVU1063
 3734              	.LBB73:
 400:../switch_sdk/core/yt/yt_port.c ****     CMM_PARAM_CHK((!(YT_DISPATCH(unit)->is_inited)), CMM_ERR_NOT_INIT);
 3735              		.loc 1 400 5 discriminator 3 view .LVU1064
 3736 005e 1D4B     		ldr	r3, .L386+16
 3737 0060 1A69     		ldr	r2, [r3, #16]
 3738              	.LVL490:
 400:../switch_sdk/core/yt/yt_port.c ****     CMM_PARAM_CHK((!(YT_DISPATCH(unit)->is_inited)), CMM_ERR_NOT_INIT);
 3739              		.loc 1 400 5 is_stmt 0 discriminator 3 view .LVU1065
 3740 0062 1D4B     		ldr	r3, .L386+20
 3741 0064 9968     		ldr	r1, [r3, #8]
 3742              	.LVL491:
 400:../switch_sdk/core/yt/yt_port.c ****     CMM_PARAM_CHK((!(YT_DISPATCH(unit)->is_inited)), CMM_ERR_NOT_INIT);
 3743              		.loc 1 400 5 discriminator 3 view .LVU1066
 3744 0066 1D48     		ldr	r0, .L386+24
 3745              	.LVL492:
 400:../switch_sdk/core/yt/yt_port.c ****     CMM_PARAM_CHK((!(YT_DISPATCH(unit)->is_inited)), CMM_ERR_NOT_INIT);
 3746              		.loc 1 400 5 discriminator 3 view .LVU1067
 3747 0068 FFF7FEFF 		bl	osal_printf
 3748              	.LVL493:
 3749 006c F5E7     		b	.L368
 3750              	.LVL494:
 3751              	.L379:
 400:../switch_sdk/core/yt/yt_port.c ****     CMM_PARAM_CHK((!(YT_DISPATCH(unit)->is_inited)), CMM_ERR_NOT_INIT);
 3752              		.loc 1 400 5 discriminator 3 view .LVU1068
 3753              	.LBE73:
 401:../switch_sdk/core/yt/yt_port.c ****     CMM_PARAM_CHK((!(CMM_PORT_VALID(unit, port))), CMM_ERR_PORT);
 3754              		.loc 1 401 5 is_stmt 1 discriminator 1 view .LVU1069
 401:../switch_sdk/core/yt/yt_port.c ****     CMM_PARAM_CHK((!(CMM_PORT_VALID(unit, port))), CMM_ERR_PORT);
 3755              		.loc 1 401 5 discriminator 1 view .LVU1070
 3756 006e 184B     		ldr	r3, .L386+12
 3757 0070 1B78     		ldrb	r3, [r3]	@ zero_extendqisi2
 3758 0072 012B     		cmp	r3, #1
 3759 0074 01D8     		bhi	.L383
 3760              	.LVL495:
 3761              	.L370:
 401:../switch_sdk/core/yt/yt_port.c ****     CMM_PARAM_CHK((!(CMM_PORT_VALID(unit, port))), CMM_ERR_PORT);
 3762              		.loc 1 401 5 discriminator 5 view .LVU1071
 401:../switch_sdk/core/yt/yt_port.c ****     CMM_PARAM_CHK((!(CMM_PORT_VALID(unit, port))), CMM_ERR_PORT);
 3763              		.loc 1 401 5 discriminator 5 view .LVU1072
 401:../switch_sdk/core/yt/yt_port.c ****     CMM_PARAM_CHK((!(CMM_PORT_VALID(unit, port))), CMM_ERR_PORT);
 3764              		.loc 1 401 5 discriminator 5 view .LVU1073
 3765 0076 0420     		movs	r0, #4
 3766 0078 DCE7     		b	.L363
 3767              	.LVL496:
 3768              	.L383:
 401:../switch_sdk/core/yt/yt_port.c ****     CMM_PARAM_CHK((!(CMM_PORT_VALID(unit, port))), CMM_ERR_PORT);
 3769              		.loc 1 401 5 discriminator 3 view .LVU1074
 3770              	.LBB74:
 401:../switch_sdk/core/yt/yt_port.c ****     CMM_PARAM_CHK((!(CMM_PORT_VALID(unit, port))), CMM_ERR_PORT);
 3771              		.loc 1 401 5 discriminator 3 view .LVU1075
 3772 007a 164B     		ldr	r3, .L386+16
 3773 007c 1A69     		ldr	r2, [r3, #16]
 3774              	.LVL497:
 401:../switch_sdk/core/yt/yt_port.c ****     CMM_PARAM_CHK((!(CMM_PORT_VALID(unit, port))), CMM_ERR_PORT);
 3775              		.loc 1 401 5 is_stmt 0 discriminator 3 view .LVU1076
 3776 007e 164B     		ldr	r3, .L386+20
 3777 0080 9968     		ldr	r1, [r3, #8]
 3778              	.LVL498:
 401:../switch_sdk/core/yt/yt_port.c ****     CMM_PARAM_CHK((!(CMM_PORT_VALID(unit, port))), CMM_ERR_PORT);
 3779              		.loc 1 401 5 discriminator 3 view .LVU1077
 3780 0082 1648     		ldr	r0, .L386+24
 3781 0084 FFF7FEFF 		bl	osal_printf
 3782              	.LVL499:
 3783 0088 F5E7     		b	.L370
 3784              	.LVL500:
 3785              	.L371:
 401:../switch_sdk/core/yt/yt_port.c ****     CMM_PARAM_CHK((!(CMM_PORT_VALID(unit, port))), CMM_ERR_PORT);
 3786              		.loc 1 401 5 discriminator 3 view .LVU1078
 3787              	.LBE74:
 402:../switch_sdk/core/yt/yt_port.c ****     CMM_PARAM_CHK((NULL == pEnable), CMM_ERR_NULL_POINT);
 3788              		.loc 1 402 5 is_stmt 1 discriminator 3 view .LVU1079
 402:../switch_sdk/core/yt/yt_port.c ****     CMM_PARAM_CHK((NULL == pEnable), CMM_ERR_NULL_POINT);
 3789              		.loc 1 402 5 discriminator 3 view .LVU1080
 3790 008a 114B     		ldr	r3, .L386+12
 3791 008c 1B78     		ldrb	r3, [r3]	@ zero_extendqisi2
 3792 008e 012B     		cmp	r3, #1
 3793 0090 01D8     		bhi	.L384
 3794              	.LVL501:
 3795              	.L373:
 402:../switch_sdk/core/yt/yt_port.c ****     CMM_PARAM_CHK((NULL == pEnable), CMM_ERR_NULL_POINT);
 3796              		.loc 1 402 5 discriminator 7 view .LVU1081
 402:../switch_sdk/core/yt/yt_port.c ****     CMM_PARAM_CHK((NULL == pEnable), CMM_ERR_NULL_POINT);
 3797              		.loc 1 402 5 discriminator 7 view .LVU1082
 402:../switch_sdk/core/yt/yt_port.c ****     CMM_PARAM_CHK((NULL == pEnable), CMM_ERR_NULL_POINT);
 3798              		.loc 1 402 5 discriminator 7 view .LVU1083
 3799 0092 0E20     		movs	r0, #14
 3800 0094 CEE7     		b	.L363
 3801              	.LVL502:
 3802              	.L384:
 402:../switch_sdk/core/yt/yt_port.c ****     CMM_PARAM_CHK((NULL == pEnable), CMM_ERR_NULL_POINT);
 3803              		.loc 1 402 5 discriminator 5 view .LVU1084
 3804              	.LBB75:
 402:../switch_sdk/core/yt/yt_port.c ****     CMM_PARAM_CHK((NULL == pEnable), CMM_ERR_NULL_POINT);
 3805              		.loc 1 402 5 discriminator 5 view .LVU1085
 3806 0096 0F4B     		ldr	r3, .L386+16
 3807 0098 9A6B     		ldr	r2, [r3, #56]
 3808              	.LVL503:
 402:../switch_sdk/core/yt/yt_port.c ****     CMM_PARAM_CHK((NULL == pEnable), CMM_ERR_NULL_POINT);
 3809              		.loc 1 402 5 is_stmt 0 discriminator 5 view .LVU1086
 3810 009a 0F4B     		ldr	r3, .L386+20
 3811 009c 9968     		ldr	r1, [r3, #8]
 3812              	.LVL504:
 402:../switch_sdk/core/yt/yt_port.c ****     CMM_PARAM_CHK((NULL == pEnable), CMM_ERR_NULL_POINT);
 3813              		.loc 1 402 5 discriminator 5 view .LVU1087
 3814 009e 0F48     		ldr	r0, .L386+24
 3815 00a0 FFF7FEFF 		bl	osal_printf
 3816              	.LVL505:
 3817 00a4 F5E7     		b	.L373
 3818              	.LVL506:
 3819              	.L380:
 402:../switch_sdk/core/yt/yt_port.c ****     CMM_PARAM_CHK((NULL == pEnable), CMM_ERR_NULL_POINT);
 3820              		.loc 1 402 5 discriminator 5 view .LVU1088
 3821              	.LBE75:
 403:../switch_sdk/core/yt/yt_port.c **** 
 3822              		.loc 1 403 5 is_stmt 1 discriminator 1 view .LVU1089
 403:../switch_sdk/core/yt/yt_port.c **** 
 3823              		.loc 1 403 5 discriminator 1 view .LVU1090
 3824 00a6 0A4B     		ldr	r3, .L386+12
 3825 00a8 1B78     		ldrb	r3, [r3]	@ zero_extendqisi2
 3826 00aa 012B     		cmp	r3, #1
 3827 00ac 01D8     		bhi	.L385
 3828              	.LVL507:
 3829              	.L375:
 403:../switch_sdk/core/yt/yt_port.c **** 
 3830              		.loc 1 403 5 discriminator 5 view .LVU1091
 403:../switch_sdk/core/yt/yt_port.c **** 
 3831              		.loc 1 403 5 discriminator 5 view .LVU1092
 403:../switch_sdk/core/yt/yt_port.c **** 
 3832              		.loc 1 403 5 discriminator 5 view .LVU1093
 3833 00ae 0220     		movs	r0, #2
 3834 00b0 C0E7     		b	.L363
 3835              	.LVL508:
 3836              	.L385:
 403:../switch_sdk/core/yt/yt_port.c **** 
 3837              		.loc 1 403 5 discriminator 3 view .LVU1094
 3838              	.LBB76:
 403:../switch_sdk/core/yt/yt_port.c **** 
 3839              		.loc 1 403 5 discriminator 3 view .LVU1095
 3840 00b2 084B     		ldr	r3, .L386+16
 3841 00b4 9A68     		ldr	r2, [r3, #8]
 3842              	.LVL509:
 403:../switch_sdk/core/yt/yt_port.c **** 
 3843              		.loc 1 403 5 is_stmt 0 discriminator 3 view .LVU1096
 3844 00b6 084B     		ldr	r3, .L386+20
 3845 00b8 9968     		ldr	r1, [r3, #8]
 3846              	.LVL510:
 403:../switch_sdk/core/yt/yt_port.c **** 
 3847              		.loc 1 403 5 discriminator 3 view .LVU1097
 3848 00ba 0848     		ldr	r0, .L386+24
 3849 00bc FFF7FEFF 		bl	osal_printf
 3850              	.LVL511:
 3851 00c0 F5E7     		b	.L375
 3852              	.L387:
 3853 00c2 00BF     		.align	2
 3854              	.L386:
 3855 00c4 00000000 		.word	gpfal_dispatch
 3856 00c8 00000000 		.word	gcal_inited
 3857 00cc 00000000 		.word	gpSwitchUnit
 3858 00d0 00000000 		.word	yt_debug_level
 3859 00d4 00000000 		.word	_yt_errmsg
 3860 00d8 00000000 		.word	_yt_prompt_msg
 3861 00dc 00000000 		.word	.LC0
 3862              	.LBE76:
 3863              		.cfi_endproc
 3864              	.LFE19:
 3866              		.section	.text.yt_port_extif_mode_set,"ax",%progbits
 3867              		.align	1
 3868              		.global	yt_port_extif_mode_set
 3869              		.syntax unified
 3870              		.thumb
 3871              		.thumb_func
 3873              	yt_port_extif_mode_set:
 3874              	.LVL512:
 3875              	.LFB20:
 407:../switch_sdk/core/yt/yt_port.c **** 
 408:../switch_sdk/core/yt/yt_port.c **** /**
 409:../switch_sdk/core/yt/yt_port.c ****  * @internal      yt_port_extif_mode_set
 410:../switch_sdk/core/yt/yt_port.c ****  * @endinternal
 411:../switch_sdk/core/yt/yt_port.c ****  *
 412:../switch_sdk/core/yt/yt_port.c ****  * @brief         Description
 413:../switch_sdk/core/yt/yt_port.c ****  * @note          APPLICABLE DEVICES  -Tiger
 414:../switch_sdk/core/yt/yt_port.c ****  * @param[in]     unit                -unit id
 415:../switch_sdk/core/yt/yt_port.c ****  * @param[in]     port                -port num
 416:../switch_sdk/core/yt/yt_port.c ****  * @param[in]     mode                -x
 417:../switch_sdk/core/yt/yt_port.c ****  * @retval        CMM_ERR_OK          -on success
 418:../switch_sdk/core/yt/yt_port.c ****  * @retval        CMM_ERR_FAIL        -on fail
 419:../switch_sdk/core/yt/yt_port.c ****  */
 420:../switch_sdk/core/yt/yt_port.c **** yt_ret_t yt_port_extif_mode_set(yt_unit_t unit, yt_port_t port, yt_extif_mode_t mode)
 421:../switch_sdk/core/yt/yt_port.c **** {
 3876              		.loc 1 421 1 is_stmt 1 view -0
 3877              		.cfi_startproc
 3878              		@ args = 0, pretend = 0, frame = 0
 3879              		@ frame_needed = 0, uses_anonymous_args = 0
 3880              		.loc 1 421 1 is_stmt 0 view .LVU1099
 3881 0000 08B5     		push	{r3, lr}
 3882              		.cfi_def_cfa_offset 8
 3883              		.cfi_offset 3, -8
 3884              		.cfi_offset 14, -4
 422:../switch_sdk/core/yt/yt_port.c **** //    CMM_PARAM_CHK((YT_UNIT_NUM <= unit), CMM_ERR_INPUT);
 423:../switch_sdk/core/yt/yt_port.c **** //    CMM_PARAM_CHK(NULL == YT_DISPATCH(unit), CMM_ERR_NOT_INIT);
 424:../switch_sdk/core/yt/yt_port.c **** //    CMM_PARAM_CHK((!(YT_DISPATCH(unit)->is_inited)), CMM_ERR_NOT_INIT);
 425:../switch_sdk/core/yt/yt_port.c **** //    CMM_PARAM_CHK((!(CMM_PORT_VALID(unit, port))), CMM_ERR_PORT);
 426:../switch_sdk/core/yt/yt_port.c **** //    CMM_PARAM_CHK((YT_EXTIF_MODE_SGFIB_AS < mode || YT_EXTIF_MODE_MII > mode), CMM_ERR_INPUT);
 427:../switch_sdk/core/yt/yt_port.c **** 
 428:../switch_sdk/core/yt/yt_port.c ****     return YT_DISPATCH(unit)->port_extif_mode_set(unit, port, mode);
 3885              		.loc 1 428 5 is_stmt 1 view .LVU1100
 3886              		.loc 1 428 12 is_stmt 0 view .LVU1101
 3887 0002 034B     		ldr	r3, .L390
 3888 0004 53F82030 		ldr	r3, [r3, r0, lsl #2]
 3889              		.loc 1 428 29 view .LVU1102
 3890 0008 D3F89435 		ldr	r3, [r3, #1428]
 3891              		.loc 1 428 12 view .LVU1103
 3892 000c 9847     		blx	r3
 3893              	.LVL513:
 429:../switch_sdk/core/yt/yt_port.c **** }
 3894              		.loc 1 429 1 view .LVU1104
 3895 000e 08BD     		pop	{r3, pc}
 3896              	.L391:
 3897              		.align	2
 3898              	.L390:
 3899 0010 00000000 		.word	gpfal_dispatch
 3900              		.cfi_endproc
 3901              	.LFE20:
 3903              		.section	.text.yt_port_extif_mode_get,"ax",%progbits
 3904              		.align	1
 3905              		.global	yt_port_extif_mode_get
 3906              		.syntax unified
 3907              		.thumb
 3908              		.thumb_func
 3910              	yt_port_extif_mode_get:
 3911              	.LVL514:
 3912              	.LFB21:
 430:../switch_sdk/core/yt/yt_port.c **** 
 431:../switch_sdk/core/yt/yt_port.c **** /**
 432:../switch_sdk/core/yt/yt_port.c ****  * @internal      yt_port_extif_mode_get
 433:../switch_sdk/core/yt/yt_port.c ****  * @endinternal
 434:../switch_sdk/core/yt/yt_port.c ****  *
 435:../switch_sdk/core/yt/yt_port.c ****  * @brief         Description
 436:../switch_sdk/core/yt/yt_port.c ****  * @note          APPLICABLE DEVICES  -Tiger
 437:../switch_sdk/core/yt/yt_port.c ****  * @param[in]     unit                -unit id
 438:../switch_sdk/core/yt/yt_port.c ****  * @param[in]     port                -port num
 439:../switch_sdk/core/yt/yt_port.c ****  * @param[out]    pMode               -x
 440:../switch_sdk/core/yt/yt_port.c ****  * @retval        CMM_ERR_OK          -on success
 441:../switch_sdk/core/yt/yt_port.c ****  * @retval        CMM_ERR_FAIL        -on fail
 442:../switch_sdk/core/yt/yt_port.c ****  */
 443:../switch_sdk/core/yt/yt_port.c **** yt_ret_t yt_port_extif_mode_get(yt_unit_t unit, yt_port_t port, yt_extif_mode_t *pMode)
 444:../switch_sdk/core/yt/yt_port.c **** {
 3913              		.loc 1 444 1 is_stmt 1 view -0
 3914              		.cfi_startproc
 3915              		@ args = 0, pretend = 0, frame = 0
 3916              		@ frame_needed = 0, uses_anonymous_args = 0
 3917              		.loc 1 444 1 is_stmt 0 view .LVU1106
 3918 0000 08B5     		push	{r3, lr}
 3919              		.cfi_def_cfa_offset 8
 3920              		.cfi_offset 3, -8
 3921              		.cfi_offset 14, -4
 445:../switch_sdk/core/yt/yt_port.c ****     CMM_PARAM_CHK((YT_UNIT_NUM <= unit), CMM_ERR_INPUT);
 3922              		.loc 1 445 5 is_stmt 1 view .LVU1107
 3923              		.loc 1 445 5 view .LVU1108
 3924 0002 C0B9     		cbnz	r0, .L406
 3925 0004 8446     		mov	ip, r0
 3926              		.loc 1 445 5 discriminator 2 view .LVU1109
 446:../switch_sdk/core/yt/yt_port.c ****     CMM_PARAM_CHK(NULL == YT_DISPATCH(unit), CMM_ERR_NOT_INIT);
 3927              		.loc 1 446 5 discriminator 2 view .LVU1110
 3928              		.loc 1 446 5 discriminator 2 view .LVU1111
 3929 0006 2F4B     		ldr	r3, .L415
 3930 0008 53F82030 		ldr	r3, [r3, r0, lsl #2]
 3931 000c 0BB3     		cbz	r3, .L407
 3932              		.loc 1 446 5 discriminator 2 view .LVU1112
 447:../switch_sdk/core/yt/yt_port.c ****     CMM_PARAM_CHK((!(YT_DISPATCH(unit)->is_inited)), CMM_ERR_NOT_INIT);
 3933              		.loc 1 447 5 discriminator 2 view .LVU1113
 3934              		.loc 1 447 5 discriminator 2 view .LVU1114
 3935 000e 1878     		ldrb	r0, [r3]	@ zero_extendqisi2
 3936              	.LVL515:
 3937              		.loc 1 447 5 is_stmt 0 discriminator 2 view .LVU1115
 3938 0010 0028     		cmp	r0, #0
 3939 0012 2CD0     		beq	.L408
 3940              		.loc 1 447 5 is_stmt 1 discriminator 2 view .LVU1116
 448:../switch_sdk/core/yt/yt_port.c ****     CMM_PARAM_CHK((!(CMM_PORT_VALID(unit, port))), CMM_ERR_PORT);
 3941              		.loc 1 448 5 discriminator 2 view .LVU1117
 3942              		.loc 1 448 5 discriminator 2 view .LVU1118
 3943 0014 2C48     		ldr	r0, .L415+4
 3944 0016 0078     		ldrb	r0, [r0]	@ zero_extendqisi2
 3945 0018 0028     		cmp	r0, #0
 3946 001a 36D0     		beq	.L400
 3947 001c 2B48     		ldr	r0, .L415+8
 3948 001e 50F82C00 		ldr	r0, [r0, ip, lsl #2]
 3949 0022 007D     		ldrb	r0, [r0, #20]	@ zero_extendqisi2
 3950 0024 8842     		cmp	r0, r1
 3951 0026 30D9     		bls	.L400
 3952              		.loc 1 448 5 discriminator 4 view .LVU1119
 449:../switch_sdk/core/yt/yt_port.c ****     CMM_PARAM_CHK((NULL == pMode), CMM_ERR_NULL_POINT);
 3953              		.loc 1 449 5 discriminator 4 view .LVU1120
 3954              		.loc 1 449 5 discriminator 4 view .LVU1121
 3955 0028 002A     		cmp	r2, #0
 3956 002a 3CD0     		beq	.L409
 3957              		.loc 1 449 5 discriminator 2 view .LVU1122
 450:../switch_sdk/core/yt/yt_port.c **** 
 451:../switch_sdk/core/yt/yt_port.c ****     return YT_DISPATCH(unit)->port_extif_mode_get(unit, port, pMode);
 3958              		.loc 1 451 5 discriminator 2 view .LVU1123
 3959              		.loc 1 451 29 is_stmt 0 discriminator 2 view .LVU1124
 3960 002c D3F89835 		ldr	r3, [r3, #1432]
 3961              		.loc 1 451 12 discriminator 2 view .LVU1125
 3962 0030 6046     		mov	r0, ip
 3963 0032 9847     		blx	r3
 3964              	.LVL516:
 3965              	.L392:
 452:../switch_sdk/core/yt/yt_port.c **** }
 3966              		.loc 1 452 1 view .LVU1126
 3967 0034 08BD     		pop	{r3, pc}
 3968              	.LVL517:
 3969              	.L406:
 445:../switch_sdk/core/yt/yt_port.c ****     CMM_PARAM_CHK(NULL == YT_DISPATCH(unit), CMM_ERR_NOT_INIT);
 3970              		.loc 1 445 5 is_stmt 1 discriminator 1 view .LVU1127
 445:../switch_sdk/core/yt/yt_port.c ****     CMM_PARAM_CHK(NULL == YT_DISPATCH(unit), CMM_ERR_NOT_INIT);
 3971              		.loc 1 445 5 discriminator 1 view .LVU1128
 3972 0036 264B     		ldr	r3, .L415+12
 3973 0038 1B78     		ldrb	r3, [r3]	@ zero_extendqisi2
 3974 003a 012B     		cmp	r3, #1
 3975 003c 01D8     		bhi	.L410
 3976              	.LVL518:
 3977              	.L394:
 445:../switch_sdk/core/yt/yt_port.c ****     CMM_PARAM_CHK(NULL == YT_DISPATCH(unit), CMM_ERR_NOT_INIT);
 3978              		.loc 1 445 5 discriminator 5 view .LVU1129
 445:../switch_sdk/core/yt/yt_port.c ****     CMM_PARAM_CHK(NULL == YT_DISPATCH(unit), CMM_ERR_NOT_INIT);
 3979              		.loc 1 445 5 discriminator 5 view .LVU1130
 445:../switch_sdk/core/yt/yt_port.c ****     CMM_PARAM_CHK(NULL == YT_DISPATCH(unit), CMM_ERR_NOT_INIT);
 3980              		.loc 1 445 5 discriminator 5 view .LVU1131
 3981 003e 0520     		movs	r0, #5
 3982 0040 F8E7     		b	.L392
 3983              	.LVL519:
 3984              	.L410:
 445:../switch_sdk/core/yt/yt_port.c ****     CMM_PARAM_CHK(NULL == YT_DISPATCH(unit), CMM_ERR_NOT_INIT);
 3985              		.loc 1 445 5 discriminator 3 view .LVU1132
 3986              	.LBB77:
 445:../switch_sdk/core/yt/yt_port.c ****     CMM_PARAM_CHK(NULL == YT_DISPATCH(unit), CMM_ERR_NOT_INIT);
 3987              		.loc 1 445 5 discriminator 3 view .LVU1133
 3988 0042 244B     		ldr	r3, .L415+16
 3989 0044 5A69     		ldr	r2, [r3, #20]
 3990              	.LVL520:
 445:../switch_sdk/core/yt/yt_port.c ****     CMM_PARAM_CHK(NULL == YT_DISPATCH(unit), CMM_ERR_NOT_INIT);
 3991              		.loc 1 445 5 is_stmt 0 discriminator 3 view .LVU1134
 3992 0046 244B     		ldr	r3, .L415+20
 3993 0048 9968     		ldr	r1, [r3, #8]
 3994              	.LVL521:
 445:../switch_sdk/core/yt/yt_port.c ****     CMM_PARAM_CHK(NULL == YT_DISPATCH(unit), CMM_ERR_NOT_INIT);
 3995              		.loc 1 445 5 discriminator 3 view .LVU1135
 3996 004a 2448     		ldr	r0, .L415+24
 3997              	.LVL522:
 445:../switch_sdk/core/yt/yt_port.c ****     CMM_PARAM_CHK(NULL == YT_DISPATCH(unit), CMM_ERR_NOT_INIT);
 3998              		.loc 1 445 5 discriminator 3 view .LVU1136
 3999 004c FFF7FEFF 		bl	osal_printf
 4000              	.LVL523:
 4001 0050 F5E7     		b	.L394
 4002              	.LVL524:
 4003              	.L407:
 445:../switch_sdk/core/yt/yt_port.c ****     CMM_PARAM_CHK(NULL == YT_DISPATCH(unit), CMM_ERR_NOT_INIT);
 4004              		.loc 1 445 5 discriminator 3 view .LVU1137
 4005              	.LBE77:
 446:../switch_sdk/core/yt/yt_port.c ****     CMM_PARAM_CHK((!(YT_DISPATCH(unit)->is_inited)), CMM_ERR_NOT_INIT);
 4006              		.loc 1 446 5 is_stmt 1 discriminator 1 view .LVU1138
 446:../switch_sdk/core/yt/yt_port.c ****     CMM_PARAM_CHK((!(YT_DISPATCH(unit)->is_inited)), CMM_ERR_NOT_INIT);
 4007              		.loc 1 446 5 discriminator 1 view .LVU1139
 4008 0052 1F4B     		ldr	r3, .L415+12
 4009 0054 1B78     		ldrb	r3, [r3]	@ zero_extendqisi2
 4010 0056 012B     		cmp	r3, #1
 4011 0058 01D8     		bhi	.L411
 4012              	.LVL525:
 4013              	.L397:
 446:../switch_sdk/core/yt/yt_port.c ****     CMM_PARAM_CHK((!(YT_DISPATCH(unit)->is_inited)), CMM_ERR_NOT_INIT);
 4014              		.loc 1 446 5 discriminator 5 view .LVU1140
 446:../switch_sdk/core/yt/yt_port.c ****     CMM_PARAM_CHK((!(YT_DISPATCH(unit)->is_inited)), CMM_ERR_NOT_INIT);
 4015              		.loc 1 446 5 discriminator 5 view .LVU1141
 446:../switch_sdk/core/yt/yt_port.c ****     CMM_PARAM_CHK((!(YT_DISPATCH(unit)->is_inited)), CMM_ERR_NOT_INIT);
 4016              		.loc 1 446 5 discriminator 5 view .LVU1142
 4017 005a 0420     		movs	r0, #4
 4018 005c EAE7     		b	.L392
 4019              	.LVL526:
 4020              	.L411:
 446:../switch_sdk/core/yt/yt_port.c ****     CMM_PARAM_CHK((!(YT_DISPATCH(unit)->is_inited)), CMM_ERR_NOT_INIT);
 4021              		.loc 1 446 5 discriminator 3 view .LVU1143
 4022              	.LBB78:
 446:../switch_sdk/core/yt/yt_port.c ****     CMM_PARAM_CHK((!(YT_DISPATCH(unit)->is_inited)), CMM_ERR_NOT_INIT);
 4023              		.loc 1 446 5 discriminator 3 view .LVU1144
 4024 005e 1D4B     		ldr	r3, .L415+16
 4025 0060 1A69     		ldr	r2, [r3, #16]
 4026              	.LVL527:
 446:../switch_sdk/core/yt/yt_port.c ****     CMM_PARAM_CHK((!(YT_DISPATCH(unit)->is_inited)), CMM_ERR_NOT_INIT);
 4027              		.loc 1 446 5 is_stmt 0 discriminator 3 view .LVU1145
 4028 0062 1D4B     		ldr	r3, .L415+20
 4029 0064 9968     		ldr	r1, [r3, #8]
 4030              	.LVL528:
 446:../switch_sdk/core/yt/yt_port.c ****     CMM_PARAM_CHK((!(YT_DISPATCH(unit)->is_inited)), CMM_ERR_NOT_INIT);
 4031              		.loc 1 446 5 discriminator 3 view .LVU1146
 4032 0066 1D48     		ldr	r0, .L415+24
 4033              	.LVL529:
 446:../switch_sdk/core/yt/yt_port.c ****     CMM_PARAM_CHK((!(YT_DISPATCH(unit)->is_inited)), CMM_ERR_NOT_INIT);
 4034              		.loc 1 446 5 discriminator 3 view .LVU1147
 4035 0068 FFF7FEFF 		bl	osal_printf
 4036              	.LVL530:
 4037 006c F5E7     		b	.L397
 4038              	.LVL531:
 4039              	.L408:
 446:../switch_sdk/core/yt/yt_port.c ****     CMM_PARAM_CHK((!(YT_DISPATCH(unit)->is_inited)), CMM_ERR_NOT_INIT);
 4040              		.loc 1 446 5 discriminator 3 view .LVU1148
 4041              	.LBE78:
 447:../switch_sdk/core/yt/yt_port.c ****     CMM_PARAM_CHK((!(CMM_PORT_VALID(unit, port))), CMM_ERR_PORT);
 4042              		.loc 1 447 5 is_stmt 1 discriminator 1 view .LVU1149
 447:../switch_sdk/core/yt/yt_port.c ****     CMM_PARAM_CHK((!(CMM_PORT_VALID(unit, port))), CMM_ERR_PORT);
 4043              		.loc 1 447 5 discriminator 1 view .LVU1150
 4044 006e 184B     		ldr	r3, .L415+12
 4045 0070 1B78     		ldrb	r3, [r3]	@ zero_extendqisi2
 4046 0072 012B     		cmp	r3, #1
 4047 0074 01D8     		bhi	.L412
 4048              	.LVL532:
 4049              	.L399:
 447:../switch_sdk/core/yt/yt_port.c ****     CMM_PARAM_CHK((!(CMM_PORT_VALID(unit, port))), CMM_ERR_PORT);
 4050              		.loc 1 447 5 discriminator 5 view .LVU1151
 447:../switch_sdk/core/yt/yt_port.c ****     CMM_PARAM_CHK((!(CMM_PORT_VALID(unit, port))), CMM_ERR_PORT);
 4051              		.loc 1 447 5 discriminator 5 view .LVU1152
 447:../switch_sdk/core/yt/yt_port.c ****     CMM_PARAM_CHK((!(CMM_PORT_VALID(unit, port))), CMM_ERR_PORT);
 4052              		.loc 1 447 5 discriminator 5 view .LVU1153
 4053 0076 0420     		movs	r0, #4
 4054 0078 DCE7     		b	.L392
 4055              	.LVL533:
 4056              	.L412:
 447:../switch_sdk/core/yt/yt_port.c ****     CMM_PARAM_CHK((!(CMM_PORT_VALID(unit, port))), CMM_ERR_PORT);
 4057              		.loc 1 447 5 discriminator 3 view .LVU1154
 4058              	.LBB79:
 447:../switch_sdk/core/yt/yt_port.c ****     CMM_PARAM_CHK((!(CMM_PORT_VALID(unit, port))), CMM_ERR_PORT);
 4059              		.loc 1 447 5 discriminator 3 view .LVU1155
 4060 007a 164B     		ldr	r3, .L415+16
 4061 007c 1A69     		ldr	r2, [r3, #16]
 4062              	.LVL534:
 447:../switch_sdk/core/yt/yt_port.c ****     CMM_PARAM_CHK((!(CMM_PORT_VALID(unit, port))), CMM_ERR_PORT);
 4063              		.loc 1 447 5 is_stmt 0 discriminator 3 view .LVU1156
 4064 007e 164B     		ldr	r3, .L415+20
 4065 0080 9968     		ldr	r1, [r3, #8]
 4066              	.LVL535:
 447:../switch_sdk/core/yt/yt_port.c ****     CMM_PARAM_CHK((!(CMM_PORT_VALID(unit, port))), CMM_ERR_PORT);
 4067              		.loc 1 447 5 discriminator 3 view .LVU1157
 4068 0082 1648     		ldr	r0, .L415+24
 4069 0084 FFF7FEFF 		bl	osal_printf
 4070              	.LVL536:
 4071 0088 F5E7     		b	.L399
 4072              	.LVL537:
 4073              	.L400:
 447:../switch_sdk/core/yt/yt_port.c ****     CMM_PARAM_CHK((!(CMM_PORT_VALID(unit, port))), CMM_ERR_PORT);
 4074              		.loc 1 447 5 discriminator 3 view .LVU1158
 4075              	.LBE79:
 448:../switch_sdk/core/yt/yt_port.c ****     CMM_PARAM_CHK((NULL == pMode), CMM_ERR_NULL_POINT);
 4076              		.loc 1 448 5 is_stmt 1 discriminator 3 view .LVU1159
 448:../switch_sdk/core/yt/yt_port.c ****     CMM_PARAM_CHK((NULL == pMode), CMM_ERR_NULL_POINT);
 4077              		.loc 1 448 5 discriminator 3 view .LVU1160
 4078 008a 114B     		ldr	r3, .L415+12
 4079 008c 1B78     		ldrb	r3, [r3]	@ zero_extendqisi2
 4080 008e 012B     		cmp	r3, #1
 4081 0090 01D8     		bhi	.L413
 4082              	.LVL538:
 4083              	.L402:
 448:../switch_sdk/core/yt/yt_port.c ****     CMM_PARAM_CHK((NULL == pMode), CMM_ERR_NULL_POINT);
 4084              		.loc 1 448 5 discriminator 7 view .LVU1161
 448:../switch_sdk/core/yt/yt_port.c ****     CMM_PARAM_CHK((NULL == pMode), CMM_ERR_NULL_POINT);
 4085              		.loc 1 448 5 discriminator 7 view .LVU1162
 448:../switch_sdk/core/yt/yt_port.c ****     CMM_PARAM_CHK((NULL == pMode), CMM_ERR_NULL_POINT);
 4086              		.loc 1 448 5 discriminator 7 view .LVU1163
 4087 0092 0E20     		movs	r0, #14
 4088 0094 CEE7     		b	.L392
 4089              	.LVL539:
 4090              	.L413:
 448:../switch_sdk/core/yt/yt_port.c ****     CMM_PARAM_CHK((NULL == pMode), CMM_ERR_NULL_POINT);
 4091              		.loc 1 448 5 discriminator 5 view .LVU1164
 4092              	.LBB80:
 448:../switch_sdk/core/yt/yt_port.c ****     CMM_PARAM_CHK((NULL == pMode), CMM_ERR_NULL_POINT);
 4093              		.loc 1 448 5 discriminator 5 view .LVU1165
 4094 0096 0F4B     		ldr	r3, .L415+16
 4095 0098 9A6B     		ldr	r2, [r3, #56]
 4096              	.LVL540:
 448:../switch_sdk/core/yt/yt_port.c ****     CMM_PARAM_CHK((NULL == pMode), CMM_ERR_NULL_POINT);
 4097              		.loc 1 448 5 is_stmt 0 discriminator 5 view .LVU1166
 4098 009a 0F4B     		ldr	r3, .L415+20
 4099 009c 9968     		ldr	r1, [r3, #8]
 4100              	.LVL541:
 448:../switch_sdk/core/yt/yt_port.c ****     CMM_PARAM_CHK((NULL == pMode), CMM_ERR_NULL_POINT);
 4101              		.loc 1 448 5 discriminator 5 view .LVU1167
 4102 009e 0F48     		ldr	r0, .L415+24
 4103 00a0 FFF7FEFF 		bl	osal_printf
 4104              	.LVL542:
 4105 00a4 F5E7     		b	.L402
 4106              	.LVL543:
 4107              	.L409:
 448:../switch_sdk/core/yt/yt_port.c ****     CMM_PARAM_CHK((NULL == pMode), CMM_ERR_NULL_POINT);
 4108              		.loc 1 448 5 discriminator 5 view .LVU1168
 4109              	.LBE80:
 449:../switch_sdk/core/yt/yt_port.c **** 
 4110              		.loc 1 449 5 is_stmt 1 discriminator 1 view .LVU1169
 449:../switch_sdk/core/yt/yt_port.c **** 
 4111              		.loc 1 449 5 discriminator 1 view .LVU1170
 4112 00a6 0A4B     		ldr	r3, .L415+12
 4113 00a8 1B78     		ldrb	r3, [r3]	@ zero_extendqisi2
 4114 00aa 012B     		cmp	r3, #1
 4115 00ac 01D8     		bhi	.L414
 4116              	.LVL544:
 4117              	.L404:
 449:../switch_sdk/core/yt/yt_port.c **** 
 4118              		.loc 1 449 5 discriminator 5 view .LVU1171
 449:../switch_sdk/core/yt/yt_port.c **** 
 4119              		.loc 1 449 5 discriminator 5 view .LVU1172
 449:../switch_sdk/core/yt/yt_port.c **** 
 4120              		.loc 1 449 5 discriminator 5 view .LVU1173
 4121 00ae 0220     		movs	r0, #2
 4122 00b0 C0E7     		b	.L392
 4123              	.LVL545:
 4124              	.L414:
 449:../switch_sdk/core/yt/yt_port.c **** 
 4125              		.loc 1 449 5 discriminator 3 view .LVU1174
 4126              	.LBB81:
 449:../switch_sdk/core/yt/yt_port.c **** 
 4127              		.loc 1 449 5 discriminator 3 view .LVU1175
 4128 00b2 084B     		ldr	r3, .L415+16
 4129 00b4 9A68     		ldr	r2, [r3, #8]
 4130              	.LVL546:
 449:../switch_sdk/core/yt/yt_port.c **** 
 4131              		.loc 1 449 5 is_stmt 0 discriminator 3 view .LVU1176
 4132 00b6 084B     		ldr	r3, .L415+20
 4133 00b8 9968     		ldr	r1, [r3, #8]
 4134              	.LVL547:
 449:../switch_sdk/core/yt/yt_port.c **** 
 4135              		.loc 1 449 5 discriminator 3 view .LVU1177
 4136 00ba 0848     		ldr	r0, .L415+24
 4137 00bc FFF7FEFF 		bl	osal_printf
 4138              	.LVL548:
 4139 00c0 F5E7     		b	.L404
 4140              	.L416:
 4141 00c2 00BF     		.align	2
 4142              	.L415:
 4143 00c4 00000000 		.word	gpfal_dispatch
 4144 00c8 00000000 		.word	gcal_inited
 4145 00cc 00000000 		.word	gpSwitchUnit
 4146 00d0 00000000 		.word	yt_debug_level
 4147 00d4 00000000 		.word	_yt_errmsg
 4148 00d8 00000000 		.word	_yt_prompt_msg
 4149 00dc 00000000 		.word	.LC0
 4150              	.LBE81:
 4151              		.cfi_endproc
 4152              	.LFE21:
 4154              		.section	.text.yt_port_extif_rgmii_delay_set,"ax",%progbits
 4155              		.align	1
 4156              		.global	yt_port_extif_rgmii_delay_set
 4157              		.syntax unified
 4158              		.thumb
 4159              		.thumb_func
 4161              	yt_port_extif_rgmii_delay_set:
 4162              	.LVL549:
 4163              	.LFB22:
 453:../switch_sdk/core/yt/yt_port.c **** 
 454:../switch_sdk/core/yt/yt_port.c **** /**
 455:../switch_sdk/core/yt/yt_port.c ****  * @internal      yt_port_extif_rgmii_delay_set
 456:../switch_sdk/core/yt/yt_port.c ****  * @endinternal
 457:../switch_sdk/core/yt/yt_port.c ****  *
 458:../switch_sdk/core/yt/yt_port.c ****  * @brief         Description
 459:../switch_sdk/core/yt/yt_port.c ****  * @note          APPLICABLE DEVICES  -Tiger
 460:../switch_sdk/core/yt/yt_port.c ****  * @param[in]     unit                -unit id
 461:../switch_sdk/core/yt/yt_port.c ****  * @param[in]     port                -port num
 462:../switch_sdk/core/yt/yt_port.c ****  * @param[in]     rxc_delay           -x
 463:../switch_sdk/core/yt/yt_port.c ****  * @param[in]     txc_delay           -x
 464:../switch_sdk/core/yt/yt_port.c ****  * @param[in]     txc_2ns_en          -enable or disable
 465:../switch_sdk/core/yt/yt_port.c ****  * @retval        CMM_ERR_OK          -on success
 466:../switch_sdk/core/yt/yt_port.c ****  * @retval        CMM_ERR_FAIL        -on fail
 467:../switch_sdk/core/yt/yt_port.c ****  */
 468:../switch_sdk/core/yt/yt_port.c **** yt_ret_t yt_port_extif_rgmii_delay_set(yt_unit_t unit, yt_port_t port, uint8_t rxc_delay, uint8_t t
 469:../switch_sdk/core/yt/yt_port.c **** {
 4164              		.loc 1 469 1 is_stmt 1 view -0
 4165              		.cfi_startproc
 4166              		@ args = 4, pretend = 0, frame = 0
 4167              		@ frame_needed = 0, uses_anonymous_args = 0
 4168              		.loc 1 469 1 is_stmt 0 view .LVU1179
 4169 0000 30B5     		push	{r4, r5, lr}
 4170              		.cfi_def_cfa_offset 12
 4171              		.cfi_offset 4, -12
 4172              		.cfi_offset 5, -8
 4173              		.cfi_offset 14, -4
 4174 0002 83B0     		sub	sp, sp, #12
 4175              		.cfi_def_cfa_offset 24
 4176 0004 9DF81850 		ldrb	r5, [sp, #24]	@ zero_extendqisi2
 470:../switch_sdk/core/yt/yt_port.c ****     CMM_PARAM_CHK((YT_UNIT_NUM <= unit), CMM_ERR_INPUT);
 4177              		.loc 1 470 5 is_stmt 1 view .LVU1180
 4178              		.loc 1 470 5 view .LVU1181
 4179 0008 D0B9     		cbnz	r0, .L431
 4180 000a 8446     		mov	ip, r0
 4181              		.loc 1 470 5 discriminator 2 view .LVU1182
 471:../switch_sdk/core/yt/yt_port.c ****     CMM_PARAM_CHK(NULL == YT_DISPATCH(unit), CMM_ERR_NOT_INIT);
 4182              		.loc 1 471 5 discriminator 2 view .LVU1183
 4183              		.loc 1 471 5 discriminator 2 view .LVU1184
 4184 000c 2F48     		ldr	r0, .L440
 4185              	.LVL550:
 4186              		.loc 1 471 5 is_stmt 0 discriminator 2 view .LVU1185
 4187 000e 50F82C40 		ldr	r4, [r0, ip, lsl #2]
 4188 0012 1CB3     		cbz	r4, .L432
 4189              		.loc 1 471 5 is_stmt 1 discriminator 2 view .LVU1186
 472:../switch_sdk/core/yt/yt_port.c ****     CMM_PARAM_CHK((!(YT_DISPATCH(unit)->is_inited)), CMM_ERR_NOT_INIT);
 4190              		.loc 1 472 5 discriminator 2 view .LVU1187
 4191              		.loc 1 472 5 discriminator 2 view .LVU1188
 4192 0014 2078     		ldrb	r0, [r4]	@ zero_extendqisi2
 4193 0016 0028     		cmp	r0, #0
 4194 0018 2ED0     		beq	.L433
 4195              		.loc 1 472 5 discriminator 2 view .LVU1189
 473:../switch_sdk/core/yt/yt_port.c ****     CMM_PARAM_CHK((!(CMM_PORT_VALID(unit, port))), CMM_ERR_PORT);
 4196              		.loc 1 473 5 discriminator 2 view .LVU1190
 4197              		.loc 1 473 5 discriminator 2 view .LVU1191
 4198 001a 2D48     		ldr	r0, .L440+4
 4199 001c 0078     		ldrb	r0, [r0]	@ zero_extendqisi2
 4200 001e 0028     		cmp	r0, #0
 4201 0020 38D0     		beq	.L425
 4202 0022 2C48     		ldr	r0, .L440+8
 4203 0024 50F82C00 		ldr	r0, [r0, ip, lsl #2]
 4204 0028 007D     		ldrb	r0, [r0, #20]	@ zero_extendqisi2
 4205 002a 8842     		cmp	r0, r1
 4206 002c 32D9     		bls	.L425
 4207              		.loc 1 473 5 discriminator 4 view .LVU1192
 474:../switch_sdk/core/yt/yt_port.c ****     CMM_PARAM_CHK((YT_ENABLE < txc_2ns_en || YT_DISABLE > txc_2ns_en), CMM_ERR_INPUT);
 4208              		.loc 1 474 5 discriminator 4 view .LVU1193
 4209              		.loc 1 474 5 discriminator 4 view .LVU1194
 4210 002e 012D     		cmp	r5, #1
 4211 0030 3ED8     		bhi	.L434
 4212              		.loc 1 474 5 discriminator 2 view .LVU1195
 475:../switch_sdk/core/yt/yt_port.c **** 
 476:../switch_sdk/core/yt/yt_port.c ****     return YT_DISPATCH(unit)->port_extif_rgmii_delay_set(unit, port, rxc_delay, txc_delay, txc_2ns_
 4213              		.loc 1 476 5 discriminator 2 view .LVU1196
 4214              		.loc 1 476 29 is_stmt 0 discriminator 2 view .LVU1197
 4215 0032 D4F8A445 		ldr	r4, [r4, #1444]
 4216              		.loc 1 476 12 discriminator 2 view .LVU1198
 4217 0036 0095     		str	r5, [sp]
 4218 0038 6046     		mov	r0, ip
 4219 003a A047     		blx	r4
 4220              	.LVL551:
 4221              	.L417:
 477:../switch_sdk/core/yt/yt_port.c **** }
 4222              		.loc 1 477 1 view .LVU1199
 4223 003c 03B0     		add	sp, sp, #12
 4224              		.cfi_remember_state
 4225              		.cfi_def_cfa_offset 12
 4226              		@ sp needed
 4227 003e 30BD     		pop	{r4, r5, pc}
 4228              	.LVL552:
 4229              	.L431:
 4230              		.cfi_restore_state
 470:../switch_sdk/core/yt/yt_port.c ****     CMM_PARAM_CHK(NULL == YT_DISPATCH(unit), CMM_ERR_NOT_INIT);
 4231              		.loc 1 470 5 is_stmt 1 discriminator 1 view .LVU1200
 470:../switch_sdk/core/yt/yt_port.c ****     CMM_PARAM_CHK(NULL == YT_DISPATCH(unit), CMM_ERR_NOT_INIT);
 4232              		.loc 1 470 5 discriminator 1 view .LVU1201
 4233 0040 254B     		ldr	r3, .L440+12
 4234              	.LVL553:
 470:../switch_sdk/core/yt/yt_port.c ****     CMM_PARAM_CHK(NULL == YT_DISPATCH(unit), CMM_ERR_NOT_INIT);
 4235              		.loc 1 470 5 is_stmt 0 discriminator 1 view .LVU1202
 4236 0042 1B78     		ldrb	r3, [r3]	@ zero_extendqisi2
 4237 0044 012B     		cmp	r3, #1
 4238 0046 01D8     		bhi	.L435
 4239              	.LVL554:
 4240              	.L419:
 470:../switch_sdk/core/yt/yt_port.c ****     CMM_PARAM_CHK(NULL == YT_DISPATCH(unit), CMM_ERR_NOT_INIT);
 4241              		.loc 1 470 5 is_stmt 1 discriminator 5 view .LVU1203
 470:../switch_sdk/core/yt/yt_port.c ****     CMM_PARAM_CHK(NULL == YT_DISPATCH(unit), CMM_ERR_NOT_INIT);
 4242              		.loc 1 470 5 discriminator 5 view .LVU1204
 470:../switch_sdk/core/yt/yt_port.c ****     CMM_PARAM_CHK(NULL == YT_DISPATCH(unit), CMM_ERR_NOT_INIT);
 4243              		.loc 1 470 5 discriminator 5 view .LVU1205
 4244 0048 0520     		movs	r0, #5
 4245 004a F7E7     		b	.L417
 4246              	.LVL555:
 4247              	.L435:
 470:../switch_sdk/core/yt/yt_port.c ****     CMM_PARAM_CHK(NULL == YT_DISPATCH(unit), CMM_ERR_NOT_INIT);
 4248              		.loc 1 470 5 discriminator 3 view .LVU1206
 4249              	.LBB82:
 470:../switch_sdk/core/yt/yt_port.c ****     CMM_PARAM_CHK(NULL == YT_DISPATCH(unit), CMM_ERR_NOT_INIT);
 4250              		.loc 1 470 5 discriminator 3 view .LVU1207
 4251 004c 234B     		ldr	r3, .L440+16
 4252 004e 5A69     		ldr	r2, [r3, #20]
 4253              	.LVL556:
 470:../switch_sdk/core/yt/yt_port.c ****     CMM_PARAM_CHK(NULL == YT_DISPATCH(unit), CMM_ERR_NOT_INIT);
 4254              		.loc 1 470 5 is_stmt 0 discriminator 3 view .LVU1208
 4255 0050 234B     		ldr	r3, .L440+20
 4256 0052 9968     		ldr	r1, [r3, #8]
 4257              	.LVL557:
 470:../switch_sdk/core/yt/yt_port.c ****     CMM_PARAM_CHK(NULL == YT_DISPATCH(unit), CMM_ERR_NOT_INIT);
 4258              		.loc 1 470 5 discriminator 3 view .LVU1209
 4259 0054 2348     		ldr	r0, .L440+24
 4260              	.LVL558:
 470:../switch_sdk/core/yt/yt_port.c ****     CMM_PARAM_CHK(NULL == YT_DISPATCH(unit), CMM_ERR_NOT_INIT);
 4261              		.loc 1 470 5 discriminator 3 view .LVU1210
 4262 0056 FFF7FEFF 		bl	osal_printf
 4263              	.LVL559:
 4264 005a F5E7     		b	.L419
 4265              	.LVL560:
 4266              	.L432:
 470:../switch_sdk/core/yt/yt_port.c ****     CMM_PARAM_CHK(NULL == YT_DISPATCH(unit), CMM_ERR_NOT_INIT);
 4267              		.loc 1 470 5 discriminator 3 view .LVU1211
 4268              	.LBE82:
 471:../switch_sdk/core/yt/yt_port.c ****     CMM_PARAM_CHK((!(YT_DISPATCH(unit)->is_inited)), CMM_ERR_NOT_INIT);
 4269              		.loc 1 471 5 is_stmt 1 discriminator 1 view .LVU1212
 471:../switch_sdk/core/yt/yt_port.c ****     CMM_PARAM_CHK((!(YT_DISPATCH(unit)->is_inited)), CMM_ERR_NOT_INIT);
 4270              		.loc 1 471 5 discriminator 1 view .LVU1213
 4271 005c 1E4B     		ldr	r3, .L440+12
 4272              	.LVL561:
 471:../switch_sdk/core/yt/yt_port.c ****     CMM_PARAM_CHK((!(YT_DISPATCH(unit)->is_inited)), CMM_ERR_NOT_INIT);
 4273              		.loc 1 471 5 is_stmt 0 discriminator 1 view .LVU1214
 4274 005e 1B78     		ldrb	r3, [r3]	@ zero_extendqisi2
 4275 0060 012B     		cmp	r3, #1
 4276 0062 01D8     		bhi	.L436
 4277              	.LVL562:
 4278              	.L422:
 471:../switch_sdk/core/yt/yt_port.c ****     CMM_PARAM_CHK((!(YT_DISPATCH(unit)->is_inited)), CMM_ERR_NOT_INIT);
 4279              		.loc 1 471 5 is_stmt 1 discriminator 5 view .LVU1215
 471:../switch_sdk/core/yt/yt_port.c ****     CMM_PARAM_CHK((!(YT_DISPATCH(unit)->is_inited)), CMM_ERR_NOT_INIT);
 4280              		.loc 1 471 5 discriminator 5 view .LVU1216
 471:../switch_sdk/core/yt/yt_port.c ****     CMM_PARAM_CHK((!(YT_DISPATCH(unit)->is_inited)), CMM_ERR_NOT_INIT);
 4281              		.loc 1 471 5 discriminator 5 view .LVU1217
 4282 0064 0420     		movs	r0, #4
 4283 0066 E9E7     		b	.L417
 4284              	.LVL563:
 4285              	.L436:
 471:../switch_sdk/core/yt/yt_port.c ****     CMM_PARAM_CHK((!(YT_DISPATCH(unit)->is_inited)), CMM_ERR_NOT_INIT);
 4286              		.loc 1 471 5 discriminator 3 view .LVU1218
 4287              	.LBB83:
 471:../switch_sdk/core/yt/yt_port.c ****     CMM_PARAM_CHK((!(YT_DISPATCH(unit)->is_inited)), CMM_ERR_NOT_INIT);
 4288              		.loc 1 471 5 discriminator 3 view .LVU1219
 4289 0068 1C4B     		ldr	r3, .L440+16
 4290 006a 1A69     		ldr	r2, [r3, #16]
 4291              	.LVL564:
 471:../switch_sdk/core/yt/yt_port.c ****     CMM_PARAM_CHK((!(YT_DISPATCH(unit)->is_inited)), CMM_ERR_NOT_INIT);
 4292              		.loc 1 471 5 is_stmt 0 discriminator 3 view .LVU1220
 4293 006c 1C4B     		ldr	r3, .L440+20
 4294 006e 9968     		ldr	r1, [r3, #8]
 4295              	.LVL565:
 471:../switch_sdk/core/yt/yt_port.c ****     CMM_PARAM_CHK((!(YT_DISPATCH(unit)->is_inited)), CMM_ERR_NOT_INIT);
 4296              		.loc 1 471 5 discriminator 3 view .LVU1221
 4297 0070 1C48     		ldr	r0, .L440+24
 4298 0072 FFF7FEFF 		bl	osal_printf
 4299              	.LVL566:
 4300 0076 F5E7     		b	.L422
 4301              	.LVL567:
 4302              	.L433:
 471:../switch_sdk/core/yt/yt_port.c ****     CMM_PARAM_CHK((!(YT_DISPATCH(unit)->is_inited)), CMM_ERR_NOT_INIT);
 4303              		.loc 1 471 5 discriminator 3 view .LVU1222
 4304              	.LBE83:
 472:../switch_sdk/core/yt/yt_port.c ****     CMM_PARAM_CHK((!(CMM_PORT_VALID(unit, port))), CMM_ERR_PORT);
 4305              		.loc 1 472 5 is_stmt 1 discriminator 1 view .LVU1223
 472:../switch_sdk/core/yt/yt_port.c ****     CMM_PARAM_CHK((!(CMM_PORT_VALID(unit, port))), CMM_ERR_PORT);
 4306              		.loc 1 472 5 discriminator 1 view .LVU1224
 4307 0078 174B     		ldr	r3, .L440+12
 4308              	.LVL568:
 472:../switch_sdk/core/yt/yt_port.c ****     CMM_PARAM_CHK((!(CMM_PORT_VALID(unit, port))), CMM_ERR_PORT);
 4309              		.loc 1 472 5 is_stmt 0 discriminator 1 view .LVU1225
 4310 007a 1B78     		ldrb	r3, [r3]	@ zero_extendqisi2
 4311 007c 012B     		cmp	r3, #1
 4312 007e 01D8     		bhi	.L437
 4313              	.LVL569:
 4314              	.L424:
 472:../switch_sdk/core/yt/yt_port.c ****     CMM_PARAM_CHK((!(CMM_PORT_VALID(unit, port))), CMM_ERR_PORT);
 4315              		.loc 1 472 5 is_stmt 1 discriminator 5 view .LVU1226
 472:../switch_sdk/core/yt/yt_port.c ****     CMM_PARAM_CHK((!(CMM_PORT_VALID(unit, port))), CMM_ERR_PORT);
 4316              		.loc 1 472 5 discriminator 5 view .LVU1227
 472:../switch_sdk/core/yt/yt_port.c ****     CMM_PARAM_CHK((!(CMM_PORT_VALID(unit, port))), CMM_ERR_PORT);
 4317              		.loc 1 472 5 discriminator 5 view .LVU1228
 4318 0080 0420     		movs	r0, #4
 4319 0082 DBE7     		b	.L417
 4320              	.LVL570:
 4321              	.L437:
 472:../switch_sdk/core/yt/yt_port.c ****     CMM_PARAM_CHK((!(CMM_PORT_VALID(unit, port))), CMM_ERR_PORT);
 4322              		.loc 1 472 5 discriminator 3 view .LVU1229
 4323              	.LBB84:
 472:../switch_sdk/core/yt/yt_port.c ****     CMM_PARAM_CHK((!(CMM_PORT_VALID(unit, port))), CMM_ERR_PORT);
 4324              		.loc 1 472 5 discriminator 3 view .LVU1230
 4325 0084 154B     		ldr	r3, .L440+16
 4326 0086 1A69     		ldr	r2, [r3, #16]
 4327              	.LVL571:
 472:../switch_sdk/core/yt/yt_port.c ****     CMM_PARAM_CHK((!(CMM_PORT_VALID(unit, port))), CMM_ERR_PORT);
 4328              		.loc 1 472 5 is_stmt 0 discriminator 3 view .LVU1231
 4329 0088 154B     		ldr	r3, .L440+20
 4330 008a 9968     		ldr	r1, [r3, #8]
 4331              	.LVL572:
 472:../switch_sdk/core/yt/yt_port.c ****     CMM_PARAM_CHK((!(CMM_PORT_VALID(unit, port))), CMM_ERR_PORT);
 4332              		.loc 1 472 5 discriminator 3 view .LVU1232
 4333 008c 1548     		ldr	r0, .L440+24
 4334 008e FFF7FEFF 		bl	osal_printf
 4335              	.LVL573:
 4336 0092 F5E7     		b	.L424
 4337              	.LVL574:
 4338              	.L425:
 472:../switch_sdk/core/yt/yt_port.c ****     CMM_PARAM_CHK((!(CMM_PORT_VALID(unit, port))), CMM_ERR_PORT);
 4339              		.loc 1 472 5 discriminator 3 view .LVU1233
 4340              	.LBE84:
 473:../switch_sdk/core/yt/yt_port.c ****     CMM_PARAM_CHK((YT_ENABLE < txc_2ns_en || YT_DISABLE > txc_2ns_en), CMM_ERR_INPUT);
 4341              		.loc 1 473 5 is_stmt 1 discriminator 3 view .LVU1234
 473:../switch_sdk/core/yt/yt_port.c ****     CMM_PARAM_CHK((YT_ENABLE < txc_2ns_en || YT_DISABLE > txc_2ns_en), CMM_ERR_INPUT);
 4342              		.loc 1 473 5 discriminator 3 view .LVU1235
 4343 0094 104B     		ldr	r3, .L440+12
 4344              	.LVL575:
 473:../switch_sdk/core/yt/yt_port.c ****     CMM_PARAM_CHK((YT_ENABLE < txc_2ns_en || YT_DISABLE > txc_2ns_en), CMM_ERR_INPUT);
 4345              		.loc 1 473 5 is_stmt 0 discriminator 3 view .LVU1236
 4346 0096 1B78     		ldrb	r3, [r3]	@ zero_extendqisi2
 4347 0098 012B     		cmp	r3, #1
 4348 009a 01D8     		bhi	.L438
 4349              	.LVL576:
 4350              	.L427:
 473:../switch_sdk/core/yt/yt_port.c ****     CMM_PARAM_CHK((YT_ENABLE < txc_2ns_en || YT_DISABLE > txc_2ns_en), CMM_ERR_INPUT);
 4351              		.loc 1 473 5 is_stmt 1 discriminator 7 view .LVU1237
 473:../switch_sdk/core/yt/yt_port.c ****     CMM_PARAM_CHK((YT_ENABLE < txc_2ns_en || YT_DISABLE > txc_2ns_en), CMM_ERR_INPUT);
 4352              		.loc 1 473 5 discriminator 7 view .LVU1238
 473:../switch_sdk/core/yt/yt_port.c ****     CMM_PARAM_CHK((YT_ENABLE < txc_2ns_en || YT_DISABLE > txc_2ns_en), CMM_ERR_INPUT);
 4353              		.loc 1 473 5 discriminator 7 view .LVU1239
 4354 009c 0E20     		movs	r0, #14
 4355 009e CDE7     		b	.L417
 4356              	.LVL577:
 4357              	.L438:
 473:../switch_sdk/core/yt/yt_port.c ****     CMM_PARAM_CHK((YT_ENABLE < txc_2ns_en || YT_DISABLE > txc_2ns_en), CMM_ERR_INPUT);
 4358              		.loc 1 473 5 discriminator 5 view .LVU1240
 4359              	.LBB85:
 473:../switch_sdk/core/yt/yt_port.c ****     CMM_PARAM_CHK((YT_ENABLE < txc_2ns_en || YT_DISABLE > txc_2ns_en), CMM_ERR_INPUT);
 4360              		.loc 1 473 5 discriminator 5 view .LVU1241
 4361 00a0 0E4B     		ldr	r3, .L440+16
 4362 00a2 9A6B     		ldr	r2, [r3, #56]
 4363              	.LVL578:
 473:../switch_sdk/core/yt/yt_port.c ****     CMM_PARAM_CHK((YT_ENABLE < txc_2ns_en || YT_DISABLE > txc_2ns_en), CMM_ERR_INPUT);
 4364              		.loc 1 473 5 is_stmt 0 discriminator 5 view .LVU1242
 4365 00a4 0E4B     		ldr	r3, .L440+20
 4366 00a6 9968     		ldr	r1, [r3, #8]
 4367              	.LVL579:
 473:../switch_sdk/core/yt/yt_port.c ****     CMM_PARAM_CHK((YT_ENABLE < txc_2ns_en || YT_DISABLE > txc_2ns_en), CMM_ERR_INPUT);
 4368              		.loc 1 473 5 discriminator 5 view .LVU1243
 4369 00a8 0E48     		ldr	r0, .L440+24
 4370 00aa FFF7FEFF 		bl	osal_printf
 4371              	.LVL580:
 4372 00ae F5E7     		b	.L427
 4373              	.LVL581:
 4374              	.L434:
 473:../switch_sdk/core/yt/yt_port.c ****     CMM_PARAM_CHK((YT_ENABLE < txc_2ns_en || YT_DISABLE > txc_2ns_en), CMM_ERR_INPUT);
 4375              		.loc 1 473 5 discriminator 5 view .LVU1244
 4376              	.LBE85:
 474:../switch_sdk/core/yt/yt_port.c **** 
 4377              		.loc 1 474 5 is_stmt 1 discriminator 1 view .LVU1245
 474:../switch_sdk/core/yt/yt_port.c **** 
 4378              		.loc 1 474 5 discriminator 1 view .LVU1246
 4379 00b0 094B     		ldr	r3, .L440+12
 4380              	.LVL582:
 474:../switch_sdk/core/yt/yt_port.c **** 
 4381              		.loc 1 474 5 is_stmt 0 discriminator 1 view .LVU1247
 4382 00b2 1B78     		ldrb	r3, [r3]	@ zero_extendqisi2
 4383 00b4 012B     		cmp	r3, #1
 4384 00b6 01D8     		bhi	.L439
 4385              	.LVL583:
 4386              	.L429:
 474:../switch_sdk/core/yt/yt_port.c **** 
 4387              		.loc 1 474 5 is_stmt 1 discriminator 5 view .LVU1248
 474:../switch_sdk/core/yt/yt_port.c **** 
 4388              		.loc 1 474 5 discriminator 5 view .LVU1249
 474:../switch_sdk/core/yt/yt_port.c **** 
 4389              		.loc 1 474 5 discriminator 5 view .LVU1250
 4390 00b8 0520     		movs	r0, #5
 4391 00ba BFE7     		b	.L417
 4392              	.LVL584:
 4393              	.L439:
 474:../switch_sdk/core/yt/yt_port.c **** 
 4394              		.loc 1 474 5 discriminator 3 view .LVU1251
 4395              	.LBB86:
 474:../switch_sdk/core/yt/yt_port.c **** 
 4396              		.loc 1 474 5 discriminator 3 view .LVU1252
 4397 00bc 074B     		ldr	r3, .L440+16
 4398 00be 5A69     		ldr	r2, [r3, #20]
 4399              	.LVL585:
 474:../switch_sdk/core/yt/yt_port.c **** 
 4400              		.loc 1 474 5 is_stmt 0 discriminator 3 view .LVU1253
 4401 00c0 074B     		ldr	r3, .L440+20
 4402 00c2 9968     		ldr	r1, [r3, #8]
 4403              	.LVL586:
 474:../switch_sdk/core/yt/yt_port.c **** 
 4404              		.loc 1 474 5 discriminator 3 view .LVU1254
 4405 00c4 0748     		ldr	r0, .L440+24
 4406 00c6 FFF7FEFF 		bl	osal_printf
 4407              	.LVL587:
 4408 00ca F5E7     		b	.L429
 4409              	.L441:
 4410              		.align	2
 4411              	.L440:
 4412 00cc 00000000 		.word	gpfal_dispatch
 4413 00d0 00000000 		.word	gcal_inited
 4414 00d4 00000000 		.word	gpSwitchUnit
 4415 00d8 00000000 		.word	yt_debug_level
 4416 00dc 00000000 		.word	_yt_errmsg
 4417 00e0 00000000 		.word	_yt_prompt_msg
 4418 00e4 00000000 		.word	.LC0
 4419              	.LBE86:
 4420              		.cfi_endproc
 4421              	.LFE22:
 4423              		.section	.text.yt_port_extif_rgmii_delay_get,"ax",%progbits
 4424              		.align	1
 4425              		.global	yt_port_extif_rgmii_delay_get
 4426              		.syntax unified
 4427              		.thumb
 4428              		.thumb_func
 4430              	yt_port_extif_rgmii_delay_get:
 4431              	.LVL588:
 4432              	.LFB23:
 478:../switch_sdk/core/yt/yt_port.c **** 
 479:../switch_sdk/core/yt/yt_port.c **** /**
 480:../switch_sdk/core/yt/yt_port.c ****  * @internal      yt_port_extif_rgmii_delay_get
 481:../switch_sdk/core/yt/yt_port.c ****  * @endinternal
 482:../switch_sdk/core/yt/yt_port.c ****  *
 483:../switch_sdk/core/yt/yt_port.c ****  * @brief         Description
 484:../switch_sdk/core/yt/yt_port.c ****  * @note          APPLICABLE DEVICES  -Tiger
 485:../switch_sdk/core/yt/yt_port.c ****  * @param[in]     unit                -unit id
 486:../switch_sdk/core/yt/yt_port.c ****  * @param[in]     port                -port num
 487:../switch_sdk/core/yt/yt_port.c ****  * @param[out]    pRxc_delay          -x
 488:../switch_sdk/core/yt/yt_port.c ****  * @param[out]    pTxc_delay          -x
 489:../switch_sdk/core/yt/yt_port.c ****  * @param[out]    pTxc_2ns_en         -enable or disable
 490:../switch_sdk/core/yt/yt_port.c ****  * @retval        CMM_ERR_OK          -on success
 491:../switch_sdk/core/yt/yt_port.c ****  * @retval        CMM_ERR_FAIL        -on fail
 492:../switch_sdk/core/yt/yt_port.c ****  */
 493:../switch_sdk/core/yt/yt_port.c **** yt_ret_t yt_port_extif_rgmii_delay_get(yt_unit_t unit, yt_port_t port, uint8_t *pRxc_delay, uint8_t
 494:../switch_sdk/core/yt/yt_port.c **** {
 4433              		.loc 1 494 1 is_stmt 1 view -0
 4434              		.cfi_startproc
 4435              		@ args = 4, pretend = 0, frame = 0
 4436              		@ frame_needed = 0, uses_anonymous_args = 0
 4437              		.loc 1 494 1 is_stmt 0 view .LVU1256
 4438 0000 10B5     		push	{r4, lr}
 4439              		.cfi_def_cfa_offset 8
 4440              		.cfi_offset 4, -8
 4441              		.cfi_offset 14, -4
 4442 0002 82B0     		sub	sp, sp, #8
 4443              		.cfi_def_cfa_offset 16
 495:../switch_sdk/core/yt/yt_port.c ****     CMM_PARAM_CHK((YT_UNIT_NUM <= unit), CMM_ERR_INPUT);
 4444              		.loc 1 495 5 is_stmt 1 view .LVU1257
 4445              		.loc 1 495 5 view .LVU1258
 4446 0004 08BB     		cbnz	r0, .L460
 4447 0006 8446     		mov	ip, r0
 4448              		.loc 1 495 5 discriminator 2 view .LVU1259
 496:../switch_sdk/core/yt/yt_port.c ****     CMM_PARAM_CHK(NULL == YT_DISPATCH(unit), CMM_ERR_NOT_INIT);
 4449              		.loc 1 496 5 discriminator 2 view .LVU1260
 4450              		.loc 1 496 5 discriminator 2 view .LVU1261
 4451 0008 4148     		ldr	r0, .L473
 4452              	.LVL589:
 4453              		.loc 1 496 5 is_stmt 0 discriminator 2 view .LVU1262
 4454 000a 50F82C40 		ldr	r4, [r0, ip, lsl #2]
 4455 000e 002C     		cmp	r4, #0
 4456 0010 29D0     		beq	.L461
 4457              		.loc 1 496 5 is_stmt 1 discriminator 2 view .LVU1263
 497:../switch_sdk/core/yt/yt_port.c ****     CMM_PARAM_CHK((!(YT_DISPATCH(unit)->is_inited)), CMM_ERR_NOT_INIT);
 4458              		.loc 1 497 5 discriminator 2 view .LVU1264
 4459              		.loc 1 497 5 discriminator 2 view .LVU1265
 4460 0012 2078     		ldrb	r0, [r4]	@ zero_extendqisi2
 4461 0014 0028     		cmp	r0, #0
 4462 0016 34D0     		beq	.L462
 4463              		.loc 1 497 5 discriminator 2 view .LVU1266
 498:../switch_sdk/core/yt/yt_port.c ****     CMM_PARAM_CHK((!(CMM_PORT_VALID(unit, port))), CMM_ERR_PORT);
 4464              		.loc 1 498 5 discriminator 2 view .LVU1267
 4465              		.loc 1 498 5 discriminator 2 view .LVU1268
 4466 0018 3E48     		ldr	r0, .L473+4
 4467 001a 0078     		ldrb	r0, [r0]	@ zero_extendqisi2
 4468 001c 0028     		cmp	r0, #0
 4469 001e 3ED0     		beq	.L450
 4470 0020 3D48     		ldr	r0, .L473+8
 4471 0022 50F82C00 		ldr	r0, [r0, ip, lsl #2]
 4472 0026 007D     		ldrb	r0, [r0, #20]	@ zero_extendqisi2
 4473 0028 8842     		cmp	r0, r1
 4474 002a 38D9     		bls	.L450
 4475              		.loc 1 498 5 discriminator 4 view .LVU1269
 499:../switch_sdk/core/yt/yt_port.c ****     CMM_PARAM_CHK((NULL == pRxc_delay), CMM_ERR_NULL_POINT);
 4476              		.loc 1 499 5 discriminator 4 view .LVU1270
 4477              		.loc 1 499 5 discriminator 4 view .LVU1271
 4478 002c 002A     		cmp	r2, #0
 4479 002e 44D0     		beq	.L463
 4480              		.loc 1 499 5 discriminator 2 view .LVU1272
 500:../switch_sdk/core/yt/yt_port.c ****     CMM_PARAM_CHK((NULL == pTxc_delay), CMM_ERR_NULL_POINT);
 4481              		.loc 1 500 5 discriminator 2 view .LVU1273
 4482              		.loc 1 500 5 discriminator 2 view .LVU1274
 4483 0030 002B     		cmp	r3, #0
 4484 0032 50D0     		beq	.L464
 4485              		.loc 1 500 5 discriminator 2 view .LVU1275
 501:../switch_sdk/core/yt/yt_port.c ****     CMM_PARAM_CHK((NULL == pTxc_2ns_en), CMM_ERR_NULL_POINT);
 4486              		.loc 1 501 5 discriminator 2 view .LVU1276
 4487              		.loc 1 501 5 discriminator 2 view .LVU1277
 4488 0034 0498     		ldr	r0, [sp, #16]
 4489 0036 0028     		cmp	r0, #0
 4490 0038 5BD0     		beq	.L465
 4491              		.loc 1 501 5 discriminator 2 view .LVU1278
 502:../switch_sdk/core/yt/yt_port.c **** 
 503:../switch_sdk/core/yt/yt_port.c ****     return YT_DISPATCH(unit)->port_extif_rgmii_delay_get(unit, port, pRxc_delay, pTxc_delay, pTxc_2
 4492              		.loc 1 503 5 discriminator 2 view .LVU1279
 4493              		.loc 1 503 29 is_stmt 0 discriminator 2 view .LVU1280
 4494 003a D4F8A845 		ldr	r4, [r4, #1448]
 4495              		.loc 1 503 12 discriminator 2 view .LVU1281
 4496 003e 0498     		ldr	r0, [sp, #16]
 4497 0040 0090     		str	r0, [sp]
 4498 0042 6046     		mov	r0, ip
 4499 0044 A047     		blx	r4
 4500              	.LVL590:
 4501              	.L442:
 504:../switch_sdk/core/yt/yt_port.c **** }
 4502              		.loc 1 504 1 view .LVU1282
 4503 0046 02B0     		add	sp, sp, #8
 4504              		.cfi_remember_state
 4505              		.cfi_def_cfa_offset 8
 4506              		@ sp needed
 4507 0048 10BD     		pop	{r4, pc}
 4508              	.LVL591:
 4509              	.L460:
 4510              		.cfi_restore_state
 495:../switch_sdk/core/yt/yt_port.c ****     CMM_PARAM_CHK(NULL == YT_DISPATCH(unit), CMM_ERR_NOT_INIT);
 4511              		.loc 1 495 5 is_stmt 1 discriminator 1 view .LVU1283
 495:../switch_sdk/core/yt/yt_port.c ****     CMM_PARAM_CHK(NULL == YT_DISPATCH(unit), CMM_ERR_NOT_INIT);
 4512              		.loc 1 495 5 discriminator 1 view .LVU1284
 4513 004a 344B     		ldr	r3, .L473+12
 4514              	.LVL592:
 495:../switch_sdk/core/yt/yt_port.c ****     CMM_PARAM_CHK(NULL == YT_DISPATCH(unit), CMM_ERR_NOT_INIT);
 4515              		.loc 1 495 5 is_stmt 0 discriminator 1 view .LVU1285
 4516 004c 1B78     		ldrb	r3, [r3]	@ zero_extendqisi2
 4517 004e 012B     		cmp	r3, #1
 4518 0050 01D8     		bhi	.L466
 4519              	.LVL593:
 4520              	.L444:
 495:../switch_sdk/core/yt/yt_port.c ****     CMM_PARAM_CHK(NULL == YT_DISPATCH(unit), CMM_ERR_NOT_INIT);
 4521              		.loc 1 495 5 is_stmt 1 discriminator 5 view .LVU1286
 495:../switch_sdk/core/yt/yt_port.c ****     CMM_PARAM_CHK(NULL == YT_DISPATCH(unit), CMM_ERR_NOT_INIT);
 4522              		.loc 1 495 5 discriminator 5 view .LVU1287
 495:../switch_sdk/core/yt/yt_port.c ****     CMM_PARAM_CHK(NULL == YT_DISPATCH(unit), CMM_ERR_NOT_INIT);
 4523              		.loc 1 495 5 discriminator 5 view .LVU1288
 4524 0052 0520     		movs	r0, #5
 4525 0054 F7E7     		b	.L442
 4526              	.LVL594:
 4527              	.L466:
 495:../switch_sdk/core/yt/yt_port.c ****     CMM_PARAM_CHK(NULL == YT_DISPATCH(unit), CMM_ERR_NOT_INIT);
 4528              		.loc 1 495 5 discriminator 3 view .LVU1289
 4529              	.LBB87:
 495:../switch_sdk/core/yt/yt_port.c ****     CMM_PARAM_CHK(NULL == YT_DISPATCH(unit), CMM_ERR_NOT_INIT);
 4530              		.loc 1 495 5 discriminator 3 view .LVU1290
 4531 0056 324B     		ldr	r3, .L473+16
 4532 0058 5A69     		ldr	r2, [r3, #20]
 4533              	.LVL595:
 495:../switch_sdk/core/yt/yt_port.c ****     CMM_PARAM_CHK(NULL == YT_DISPATCH(unit), CMM_ERR_NOT_INIT);
 4534              		.loc 1 495 5 is_stmt 0 discriminator 3 view .LVU1291
 4535 005a 324B     		ldr	r3, .L473+20
 4536 005c 9968     		ldr	r1, [r3, #8]
 4537              	.LVL596:
 495:../switch_sdk/core/yt/yt_port.c ****     CMM_PARAM_CHK(NULL == YT_DISPATCH(unit), CMM_ERR_NOT_INIT);
 4538              		.loc 1 495 5 discriminator 3 view .LVU1292
 4539 005e 3248     		ldr	r0, .L473+24
 4540              	.LVL597:
 495:../switch_sdk/core/yt/yt_port.c ****     CMM_PARAM_CHK(NULL == YT_DISPATCH(unit), CMM_ERR_NOT_INIT);
 4541              		.loc 1 495 5 discriminator 3 view .LVU1293
 4542 0060 FFF7FEFF 		bl	osal_printf
 4543              	.LVL598:
 4544 0064 F5E7     		b	.L444
 4545              	.LVL599:
 4546              	.L461:
 495:../switch_sdk/core/yt/yt_port.c ****     CMM_PARAM_CHK(NULL == YT_DISPATCH(unit), CMM_ERR_NOT_INIT);
 4547              		.loc 1 495 5 discriminator 3 view .LVU1294
 4548              	.LBE87:
 496:../switch_sdk/core/yt/yt_port.c ****     CMM_PARAM_CHK((!(YT_DISPATCH(unit)->is_inited)), CMM_ERR_NOT_INIT);
 4549              		.loc 1 496 5 is_stmt 1 discriminator 1 view .LVU1295
 496:../switch_sdk/core/yt/yt_port.c ****     CMM_PARAM_CHK((!(YT_DISPATCH(unit)->is_inited)), CMM_ERR_NOT_INIT);
 4550              		.loc 1 496 5 discriminator 1 view .LVU1296
 4551 0066 2D4B     		ldr	r3, .L473+12
 4552              	.LVL600:
 496:../switch_sdk/core/yt/yt_port.c ****     CMM_PARAM_CHK((!(YT_DISPATCH(unit)->is_inited)), CMM_ERR_NOT_INIT);
 4553              		.loc 1 496 5 is_stmt 0 discriminator 1 view .LVU1297
 4554 0068 1B78     		ldrb	r3, [r3]	@ zero_extendqisi2
 4555 006a 012B     		cmp	r3, #1
 4556 006c 01D8     		bhi	.L467
 4557              	.LVL601:
 4558              	.L447:
 496:../switch_sdk/core/yt/yt_port.c ****     CMM_PARAM_CHK((!(YT_DISPATCH(unit)->is_inited)), CMM_ERR_NOT_INIT);
 4559              		.loc 1 496 5 is_stmt 1 discriminator 5 view .LVU1298
 496:../switch_sdk/core/yt/yt_port.c ****     CMM_PARAM_CHK((!(YT_DISPATCH(unit)->is_inited)), CMM_ERR_NOT_INIT);
 4560              		.loc 1 496 5 discriminator 5 view .LVU1299
 496:../switch_sdk/core/yt/yt_port.c ****     CMM_PARAM_CHK((!(YT_DISPATCH(unit)->is_inited)), CMM_ERR_NOT_INIT);
 4561              		.loc 1 496 5 discriminator 5 view .LVU1300
 4562 006e 0420     		movs	r0, #4
 4563 0070 E9E7     		b	.L442
 4564              	.LVL602:
 4565              	.L467:
 496:../switch_sdk/core/yt/yt_port.c ****     CMM_PARAM_CHK((!(YT_DISPATCH(unit)->is_inited)), CMM_ERR_NOT_INIT);
 4566              		.loc 1 496 5 discriminator 3 view .LVU1301
 4567              	.LBB88:
 496:../switch_sdk/core/yt/yt_port.c ****     CMM_PARAM_CHK((!(YT_DISPATCH(unit)->is_inited)), CMM_ERR_NOT_INIT);
 4568              		.loc 1 496 5 discriminator 3 view .LVU1302
 4569 0072 2B4B     		ldr	r3, .L473+16
 4570 0074 1A69     		ldr	r2, [r3, #16]
 4571              	.LVL603:
 496:../switch_sdk/core/yt/yt_port.c ****     CMM_PARAM_CHK((!(YT_DISPATCH(unit)->is_inited)), CMM_ERR_NOT_INIT);
 4572              		.loc 1 496 5 is_stmt 0 discriminator 3 view .LVU1303
 4573 0076 2B4B     		ldr	r3, .L473+20
 4574 0078 9968     		ldr	r1, [r3, #8]
 4575              	.LVL604:
 496:../switch_sdk/core/yt/yt_port.c ****     CMM_PARAM_CHK((!(YT_DISPATCH(unit)->is_inited)), CMM_ERR_NOT_INIT);
 4576              		.loc 1 496 5 discriminator 3 view .LVU1304
 4577 007a 2B48     		ldr	r0, .L473+24
 4578 007c FFF7FEFF 		bl	osal_printf
 4579              	.LVL605:
 4580 0080 F5E7     		b	.L447
 4581              	.LVL606:
 4582              	.L462:
 496:../switch_sdk/core/yt/yt_port.c ****     CMM_PARAM_CHK((!(YT_DISPATCH(unit)->is_inited)), CMM_ERR_NOT_INIT);
 4583              		.loc 1 496 5 discriminator 3 view .LVU1305
 4584              	.LBE88:
 497:../switch_sdk/core/yt/yt_port.c ****     CMM_PARAM_CHK((!(CMM_PORT_VALID(unit, port))), CMM_ERR_PORT);
 4585              		.loc 1 497 5 is_stmt 1 discriminator 1 view .LVU1306
 497:../switch_sdk/core/yt/yt_port.c ****     CMM_PARAM_CHK((!(CMM_PORT_VALID(unit, port))), CMM_ERR_PORT);
 4586              		.loc 1 497 5 discriminator 1 view .LVU1307
 4587 0082 264B     		ldr	r3, .L473+12
 4588              	.LVL607:
 497:../switch_sdk/core/yt/yt_port.c ****     CMM_PARAM_CHK((!(CMM_PORT_VALID(unit, port))), CMM_ERR_PORT);
 4589              		.loc 1 497 5 is_stmt 0 discriminator 1 view .LVU1308
 4590 0084 1B78     		ldrb	r3, [r3]	@ zero_extendqisi2
 4591 0086 012B     		cmp	r3, #1
 4592 0088 01D8     		bhi	.L468
 4593              	.LVL608:
 4594              	.L449:
 497:../switch_sdk/core/yt/yt_port.c ****     CMM_PARAM_CHK((!(CMM_PORT_VALID(unit, port))), CMM_ERR_PORT);
 4595              		.loc 1 497 5 is_stmt 1 discriminator 5 view .LVU1309
 497:../switch_sdk/core/yt/yt_port.c ****     CMM_PARAM_CHK((!(CMM_PORT_VALID(unit, port))), CMM_ERR_PORT);
 4596              		.loc 1 497 5 discriminator 5 view .LVU1310
 497:../switch_sdk/core/yt/yt_port.c ****     CMM_PARAM_CHK((!(CMM_PORT_VALID(unit, port))), CMM_ERR_PORT);
 4597              		.loc 1 497 5 discriminator 5 view .LVU1311
 4598 008a 0420     		movs	r0, #4
 4599 008c DBE7     		b	.L442
 4600              	.LVL609:
 4601              	.L468:
 497:../switch_sdk/core/yt/yt_port.c ****     CMM_PARAM_CHK((!(CMM_PORT_VALID(unit, port))), CMM_ERR_PORT);
 4602              		.loc 1 497 5 discriminator 3 view .LVU1312
 4603              	.LBB89:
 497:../switch_sdk/core/yt/yt_port.c ****     CMM_PARAM_CHK((!(CMM_PORT_VALID(unit, port))), CMM_ERR_PORT);
 4604              		.loc 1 497 5 discriminator 3 view .LVU1313
 4605 008e 244B     		ldr	r3, .L473+16
 4606 0090 1A69     		ldr	r2, [r3, #16]
 4607              	.LVL610:
 497:../switch_sdk/core/yt/yt_port.c ****     CMM_PARAM_CHK((!(CMM_PORT_VALID(unit, port))), CMM_ERR_PORT);
 4608              		.loc 1 497 5 is_stmt 0 discriminator 3 view .LVU1314
 4609 0092 244B     		ldr	r3, .L473+20
 4610 0094 9968     		ldr	r1, [r3, #8]
 4611              	.LVL611:
 497:../switch_sdk/core/yt/yt_port.c ****     CMM_PARAM_CHK((!(CMM_PORT_VALID(unit, port))), CMM_ERR_PORT);
 4612              		.loc 1 497 5 discriminator 3 view .LVU1315
 4613 0096 2448     		ldr	r0, .L473+24
 4614 0098 FFF7FEFF 		bl	osal_printf
 4615              	.LVL612:
 4616 009c F5E7     		b	.L449
 4617              	.LVL613:
 4618              	.L450:
 497:../switch_sdk/core/yt/yt_port.c ****     CMM_PARAM_CHK((!(CMM_PORT_VALID(unit, port))), CMM_ERR_PORT);
 4619              		.loc 1 497 5 discriminator 3 view .LVU1316
 4620              	.LBE89:
 498:../switch_sdk/core/yt/yt_port.c ****     CMM_PARAM_CHK((NULL == pRxc_delay), CMM_ERR_NULL_POINT);
 4621              		.loc 1 498 5 is_stmt 1 discriminator 3 view .LVU1317
 498:../switch_sdk/core/yt/yt_port.c ****     CMM_PARAM_CHK((NULL == pRxc_delay), CMM_ERR_NULL_POINT);
 4622              		.loc 1 498 5 discriminator 3 view .LVU1318
 4623 009e 1F4B     		ldr	r3, .L473+12
 4624              	.LVL614:
 498:../switch_sdk/core/yt/yt_port.c ****     CMM_PARAM_CHK((NULL == pRxc_delay), CMM_ERR_NULL_POINT);
 4625              		.loc 1 498 5 is_stmt 0 discriminator 3 view .LVU1319
 4626 00a0 1B78     		ldrb	r3, [r3]	@ zero_extendqisi2
 4627 00a2 012B     		cmp	r3, #1
 4628 00a4 01D8     		bhi	.L469
 4629              	.LVL615:
 4630              	.L452:
 498:../switch_sdk/core/yt/yt_port.c ****     CMM_PARAM_CHK((NULL == pRxc_delay), CMM_ERR_NULL_POINT);
 4631              		.loc 1 498 5 is_stmt 1 discriminator 7 view .LVU1320
 498:../switch_sdk/core/yt/yt_port.c ****     CMM_PARAM_CHK((NULL == pRxc_delay), CMM_ERR_NULL_POINT);
 4632              		.loc 1 498 5 discriminator 7 view .LVU1321
 498:../switch_sdk/core/yt/yt_port.c ****     CMM_PARAM_CHK((NULL == pRxc_delay), CMM_ERR_NULL_POINT);
 4633              		.loc 1 498 5 discriminator 7 view .LVU1322
 4634 00a6 0E20     		movs	r0, #14
 4635 00a8 CDE7     		b	.L442
 4636              	.LVL616:
 4637              	.L469:
 498:../switch_sdk/core/yt/yt_port.c ****     CMM_PARAM_CHK((NULL == pRxc_delay), CMM_ERR_NULL_POINT);
 4638              		.loc 1 498 5 discriminator 5 view .LVU1323
 4639              	.LBB90:
 498:../switch_sdk/core/yt/yt_port.c ****     CMM_PARAM_CHK((NULL == pRxc_delay), CMM_ERR_NULL_POINT);
 4640              		.loc 1 498 5 discriminator 5 view .LVU1324
 4641 00aa 1D4B     		ldr	r3, .L473+16
 4642 00ac 9A6B     		ldr	r2, [r3, #56]
 4643              	.LVL617:
 498:../switch_sdk/core/yt/yt_port.c ****     CMM_PARAM_CHK((NULL == pRxc_delay), CMM_ERR_NULL_POINT);
 4644              		.loc 1 498 5 is_stmt 0 discriminator 5 view .LVU1325
 4645 00ae 1D4B     		ldr	r3, .L473+20
 4646 00b0 9968     		ldr	r1, [r3, #8]
 4647              	.LVL618:
 498:../switch_sdk/core/yt/yt_port.c ****     CMM_PARAM_CHK((NULL == pRxc_delay), CMM_ERR_NULL_POINT);
 4648              		.loc 1 498 5 discriminator 5 view .LVU1326
 4649 00b2 1D48     		ldr	r0, .L473+24
 4650 00b4 FFF7FEFF 		bl	osal_printf
 4651              	.LVL619:
 4652 00b8 F5E7     		b	.L452
 4653              	.LVL620:
 4654              	.L463:
 498:../switch_sdk/core/yt/yt_port.c ****     CMM_PARAM_CHK((NULL == pRxc_delay), CMM_ERR_NULL_POINT);
 4655              		.loc 1 498 5 discriminator 5 view .LVU1327
 4656              	.LBE90:
 499:../switch_sdk/core/yt/yt_port.c ****     CMM_PARAM_CHK((NULL == pTxc_delay), CMM_ERR_NULL_POINT);
 4657              		.loc 1 499 5 is_stmt 1 discriminator 1 view .LVU1328
 499:../switch_sdk/core/yt/yt_port.c ****     CMM_PARAM_CHK((NULL == pTxc_delay), CMM_ERR_NULL_POINT);
 4658              		.loc 1 499 5 discriminator 1 view .LVU1329
 4659 00ba 184B     		ldr	r3, .L473+12
 4660              	.LVL621:
 499:../switch_sdk/core/yt/yt_port.c ****     CMM_PARAM_CHK((NULL == pTxc_delay), CMM_ERR_NULL_POINT);
 4661              		.loc 1 499 5 is_stmt 0 discriminator 1 view .LVU1330
 4662 00bc 1B78     		ldrb	r3, [r3]	@ zero_extendqisi2
 4663 00be 012B     		cmp	r3, #1
 4664 00c0 01D8     		bhi	.L470
 4665              	.LVL622:
 4666              	.L454:
 499:../switch_sdk/core/yt/yt_port.c ****     CMM_PARAM_CHK((NULL == pTxc_delay), CMM_ERR_NULL_POINT);
 4667              		.loc 1 499 5 is_stmt 1 discriminator 5 view .LVU1331
 499:../switch_sdk/core/yt/yt_port.c ****     CMM_PARAM_CHK((NULL == pTxc_delay), CMM_ERR_NULL_POINT);
 4668              		.loc 1 499 5 discriminator 5 view .LVU1332
 499:../switch_sdk/core/yt/yt_port.c ****     CMM_PARAM_CHK((NULL == pTxc_delay), CMM_ERR_NULL_POINT);
 4669              		.loc 1 499 5 discriminator 5 view .LVU1333
 4670 00c2 0220     		movs	r0, #2
 4671 00c4 BFE7     		b	.L442
 4672              	.LVL623:
 4673              	.L470:
 499:../switch_sdk/core/yt/yt_port.c ****     CMM_PARAM_CHK((NULL == pTxc_delay), CMM_ERR_NULL_POINT);
 4674              		.loc 1 499 5 discriminator 3 view .LVU1334
 4675              	.LBB91:
 499:../switch_sdk/core/yt/yt_port.c ****     CMM_PARAM_CHK((NULL == pTxc_delay), CMM_ERR_NULL_POINT);
 4676              		.loc 1 499 5 discriminator 3 view .LVU1335
 4677 00c6 164B     		ldr	r3, .L473+16
 4678 00c8 9A68     		ldr	r2, [r3, #8]
 4679              	.LVL624:
 499:../switch_sdk/core/yt/yt_port.c ****     CMM_PARAM_CHK((NULL == pTxc_delay), CMM_ERR_NULL_POINT);
 4680              		.loc 1 499 5 is_stmt 0 discriminator 3 view .LVU1336
 4681 00ca 164B     		ldr	r3, .L473+20
 4682 00cc 9968     		ldr	r1, [r3, #8]
 4683              	.LVL625:
 499:../switch_sdk/core/yt/yt_port.c ****     CMM_PARAM_CHK((NULL == pTxc_delay), CMM_ERR_NULL_POINT);
 4684              		.loc 1 499 5 discriminator 3 view .LVU1337
 4685 00ce 1648     		ldr	r0, .L473+24
 4686 00d0 FFF7FEFF 		bl	osal_printf
 4687              	.LVL626:
 4688 00d4 F5E7     		b	.L454
 4689              	.LVL627:
 4690              	.L464:
 499:../switch_sdk/core/yt/yt_port.c ****     CMM_PARAM_CHK((NULL == pTxc_delay), CMM_ERR_NULL_POINT);
 4691              		.loc 1 499 5 discriminator 3 view .LVU1338
 4692              	.LBE91:
 500:../switch_sdk/core/yt/yt_port.c ****     CMM_PARAM_CHK((NULL == pTxc_2ns_en), CMM_ERR_NULL_POINT);
 4693              		.loc 1 500 5 is_stmt 1 discriminator 1 view .LVU1339
 500:../switch_sdk/core/yt/yt_port.c ****     CMM_PARAM_CHK((NULL == pTxc_2ns_en), CMM_ERR_NULL_POINT);
 4694              		.loc 1 500 5 discriminator 1 view .LVU1340
 4695 00d6 114B     		ldr	r3, .L473+12
 4696              	.LVL628:
 500:../switch_sdk/core/yt/yt_port.c ****     CMM_PARAM_CHK((NULL == pTxc_2ns_en), CMM_ERR_NULL_POINT);
 4697              		.loc 1 500 5 is_stmt 0 discriminator 1 view .LVU1341
 4698 00d8 1B78     		ldrb	r3, [r3]	@ zero_extendqisi2
 4699 00da 012B     		cmp	r3, #1
 4700 00dc 01D8     		bhi	.L471
 4701              	.LVL629:
 4702              	.L456:
 500:../switch_sdk/core/yt/yt_port.c ****     CMM_PARAM_CHK((NULL == pTxc_2ns_en), CMM_ERR_NULL_POINT);
 4703              		.loc 1 500 5 is_stmt 1 discriminator 5 view .LVU1342
 500:../switch_sdk/core/yt/yt_port.c ****     CMM_PARAM_CHK((NULL == pTxc_2ns_en), CMM_ERR_NULL_POINT);
 4704              		.loc 1 500 5 discriminator 5 view .LVU1343
 500:../switch_sdk/core/yt/yt_port.c ****     CMM_PARAM_CHK((NULL == pTxc_2ns_en), CMM_ERR_NULL_POINT);
 4705              		.loc 1 500 5 discriminator 5 view .LVU1344
 4706 00de 0220     		movs	r0, #2
 4707 00e0 B1E7     		b	.L442
 4708              	.LVL630:
 4709              	.L471:
 500:../switch_sdk/core/yt/yt_port.c ****     CMM_PARAM_CHK((NULL == pTxc_2ns_en), CMM_ERR_NULL_POINT);
 4710              		.loc 1 500 5 discriminator 3 view .LVU1345
 4711              	.LBB92:
 500:../switch_sdk/core/yt/yt_port.c ****     CMM_PARAM_CHK((NULL == pTxc_2ns_en), CMM_ERR_NULL_POINT);
 4712              		.loc 1 500 5 discriminator 3 view .LVU1346
 4713 00e2 0F4B     		ldr	r3, .L473+16
 4714 00e4 9A68     		ldr	r2, [r3, #8]
 4715              	.LVL631:
 500:../switch_sdk/core/yt/yt_port.c ****     CMM_PARAM_CHK((NULL == pTxc_2ns_en), CMM_ERR_NULL_POINT);
 4716              		.loc 1 500 5 is_stmt 0 discriminator 3 view .LVU1347
 4717 00e6 0F4B     		ldr	r3, .L473+20
 4718 00e8 9968     		ldr	r1, [r3, #8]
 4719              	.LVL632:
 500:../switch_sdk/core/yt/yt_port.c ****     CMM_PARAM_CHK((NULL == pTxc_2ns_en), CMM_ERR_NULL_POINT);
 4720              		.loc 1 500 5 discriminator 3 view .LVU1348
 4721 00ea 0F48     		ldr	r0, .L473+24
 4722 00ec FFF7FEFF 		bl	osal_printf
 4723              	.LVL633:
 4724 00f0 F5E7     		b	.L456
 4725              	.LVL634:
 4726              	.L465:
 500:../switch_sdk/core/yt/yt_port.c ****     CMM_PARAM_CHK((NULL == pTxc_2ns_en), CMM_ERR_NULL_POINT);
 4727              		.loc 1 500 5 discriminator 3 view .LVU1349
 4728              	.LBE92:
 501:../switch_sdk/core/yt/yt_port.c **** 
 4729              		.loc 1 501 5 is_stmt 1 discriminator 1 view .LVU1350
 501:../switch_sdk/core/yt/yt_port.c **** 
 4730              		.loc 1 501 5 discriminator 1 view .LVU1351
 4731 00f2 0A4B     		ldr	r3, .L473+12
 4732              	.LVL635:
 501:../switch_sdk/core/yt/yt_port.c **** 
 4733              		.loc 1 501 5 is_stmt 0 discriminator 1 view .LVU1352
 4734 00f4 1B78     		ldrb	r3, [r3]	@ zero_extendqisi2
 4735 00f6 012B     		cmp	r3, #1
 4736 00f8 01D8     		bhi	.L472
 4737              	.LVL636:
 4738              	.L458:
 501:../switch_sdk/core/yt/yt_port.c **** 
 4739              		.loc 1 501 5 is_stmt 1 discriminator 5 view .LVU1353
 501:../switch_sdk/core/yt/yt_port.c **** 
 4740              		.loc 1 501 5 discriminator 5 view .LVU1354
 501:../switch_sdk/core/yt/yt_port.c **** 
 4741              		.loc 1 501 5 discriminator 5 view .LVU1355
 4742 00fa 0220     		movs	r0, #2
 4743 00fc A3E7     		b	.L442
 4744              	.LVL637:
 4745              	.L472:
 501:../switch_sdk/core/yt/yt_port.c **** 
 4746              		.loc 1 501 5 discriminator 3 view .LVU1356
 4747              	.LBB93:
 501:../switch_sdk/core/yt/yt_port.c **** 
 4748              		.loc 1 501 5 discriminator 3 view .LVU1357
 4749 00fe 084B     		ldr	r3, .L473+16
 4750 0100 9A68     		ldr	r2, [r3, #8]
 4751              	.LVL638:
 501:../switch_sdk/core/yt/yt_port.c **** 
 4752              		.loc 1 501 5 is_stmt 0 discriminator 3 view .LVU1358
 4753 0102 084B     		ldr	r3, .L473+20
 4754 0104 9968     		ldr	r1, [r3, #8]
 4755              	.LVL639:
 501:../switch_sdk/core/yt/yt_port.c **** 
 4756              		.loc 1 501 5 discriminator 3 view .LVU1359
 4757 0106 0848     		ldr	r0, .L473+24
 4758 0108 FFF7FEFF 		bl	osal_printf
 4759              	.LVL640:
 4760 010c F5E7     		b	.L458
 4761              	.L474:
 4762 010e 00BF     		.align	2
 4763              	.L473:
 4764 0110 00000000 		.word	gpfal_dispatch
 4765 0114 00000000 		.word	gcal_inited
 4766 0118 00000000 		.word	gpSwitchUnit
 4767 011c 00000000 		.word	yt_debug_level
 4768 0120 00000000 		.word	_yt_errmsg
 4769 0124 00000000 		.word	_yt_prompt_msg
 4770 0128 00000000 		.word	.LC0
 4771              	.LBE93:
 4772              		.cfi_endproc
 4773              	.LFE23:
 4775              		.section	.text.yt_port_phyAutoNeg_enable_set,"ax",%progbits
 4776              		.align	1
 4777              		.global	yt_port_phyAutoNeg_enable_set
 4778              		.syntax unified
 4779              		.thumb
 4780              		.thumb_func
 4782              	yt_port_phyAutoNeg_enable_set:
 4783              	.LVL641:
 4784              	.LFB24:
 505:../switch_sdk/core/yt/yt_port.c **** 
 506:../switch_sdk/core/yt/yt_port.c **** /**
 507:../switch_sdk/core/yt/yt_port.c ****  * @internal      yt_port_phyAutoNeg_enable_set
 508:../switch_sdk/core/yt/yt_port.c ****  * @endinternal
 509:../switch_sdk/core/yt/yt_port.c ****  *
 510:../switch_sdk/core/yt/yt_port.c ****  * @brief         Description
 511:../switch_sdk/core/yt/yt_port.c ****  * @note          APPLICABLE DEVICES  -Tiger
 512:../switch_sdk/core/yt/yt_port.c ****  * @param[in]     unit                -unit id
 513:../switch_sdk/core/yt/yt_port.c ****  * @param[in]     port                -port num
 514:../switch_sdk/core/yt/yt_port.c ****  * @param[in]     enable              -enable or disable
 515:../switch_sdk/core/yt/yt_port.c ****  * @retval        CMM_ERR_OK          -on success
 516:../switch_sdk/core/yt/yt_port.c ****  * @retval        CMM_ERR_FAIL        -on fail
 517:../switch_sdk/core/yt/yt_port.c ****  */
 518:../switch_sdk/core/yt/yt_port.c **** yt_ret_t yt_port_phyAutoNeg_enable_set(yt_unit_t unit, yt_port_t port, yt_enable_t enable)
 519:../switch_sdk/core/yt/yt_port.c **** {
 4785              		.loc 1 519 1 is_stmt 1 view -0
 4786              		.cfi_startproc
 4787              		@ args = 0, pretend = 0, frame = 0
 4788              		@ frame_needed = 0, uses_anonymous_args = 0
 4789              		.loc 1 519 1 is_stmt 0 view .LVU1361
 4790 0000 08B5     		push	{r3, lr}
 4791              		.cfi_def_cfa_offset 8
 4792              		.cfi_offset 3, -8
 4793              		.cfi_offset 14, -4
 520:../switch_sdk/core/yt/yt_port.c ****     CMM_PARAM_CHK((YT_UNIT_NUM <= unit), CMM_ERR_INPUT);
 4794              		.loc 1 520 5 is_stmt 1 view .LVU1362
 4795              		.loc 1 520 5 view .LVU1363
 4796 0002 C0B9     		cbnz	r0, .L489
 4797 0004 8446     		mov	ip, r0
 4798              		.loc 1 520 5 discriminator 2 view .LVU1364
 521:../switch_sdk/core/yt/yt_port.c ****     CMM_PARAM_CHK(NULL == YT_DISPATCH(unit), CMM_ERR_NOT_INIT);
 4799              		.loc 1 521 5 discriminator 2 view .LVU1365
 4800              		.loc 1 521 5 discriminator 2 view .LVU1366
 4801 0006 2F4B     		ldr	r3, .L498
 4802 0008 53F82030 		ldr	r3, [r3, r0, lsl #2]
 4803 000c 0BB3     		cbz	r3, .L490
 4804              		.loc 1 521 5 discriminator 2 view .LVU1367
 522:../switch_sdk/core/yt/yt_port.c ****     CMM_PARAM_CHK((!(YT_DISPATCH(unit)->is_inited)), CMM_ERR_NOT_INIT);
 4805              		.loc 1 522 5 discriminator 2 view .LVU1368
 4806              		.loc 1 522 5 discriminator 2 view .LVU1369
 4807 000e 1878     		ldrb	r0, [r3]	@ zero_extendqisi2
 4808              	.LVL642:
 4809              		.loc 1 522 5 is_stmt 0 discriminator 2 view .LVU1370
 4810 0010 0028     		cmp	r0, #0
 4811 0012 2CD0     		beq	.L491
 4812              		.loc 1 522 5 is_stmt 1 discriminator 2 view .LVU1371
 523:../switch_sdk/core/yt/yt_port.c ****     CMM_PARAM_CHK((!(CMM_PORT_VALID(unit, port))), CMM_ERR_PORT);
 4813              		.loc 1 523 5 discriminator 2 view .LVU1372
 4814              		.loc 1 523 5 discriminator 2 view .LVU1373
 4815 0014 2C48     		ldr	r0, .L498+4
 4816 0016 0078     		ldrb	r0, [r0]	@ zero_extendqisi2
 4817 0018 0028     		cmp	r0, #0
 4818 001a 36D0     		beq	.L483
 4819 001c 2B48     		ldr	r0, .L498+8
 4820 001e 50F82C00 		ldr	r0, [r0, ip, lsl #2]
 4821 0022 007D     		ldrb	r0, [r0, #20]	@ zero_extendqisi2
 4822 0024 8842     		cmp	r0, r1
 4823 0026 30D9     		bls	.L483
 4824              		.loc 1 523 5 discriminator 4 view .LVU1374
 524:../switch_sdk/core/yt/yt_port.c ****     CMM_PARAM_CHK((YT_ENABLE < enable || YT_DISABLE > enable), CMM_ERR_INPUT);
 4825              		.loc 1 524 5 discriminator 4 view .LVU1375
 4826              		.loc 1 524 5 discriminator 4 view .LVU1376
 4827 0028 012A     		cmp	r2, #1
 4828 002a 3CD8     		bhi	.L492
 4829              		.loc 1 524 5 discriminator 2 view .LVU1377
 525:../switch_sdk/core/yt/yt_port.c **** 
 526:../switch_sdk/core/yt/yt_port.c ****     return YT_DISPATCH(unit)->port_phyAutoNeg_enable_set(unit, port, enable);
 4830              		.loc 1 526 5 discriminator 2 view .LVU1378
 4831              		.loc 1 526 29 is_stmt 0 discriminator 2 view .LVU1379
 4832 002c D3F8AC35 		ldr	r3, [r3, #1452]
 4833              		.loc 1 526 12 discriminator 2 view .LVU1380
 4834 0030 6046     		mov	r0, ip
 4835 0032 9847     		blx	r3
 4836              	.LVL643:
 4837              	.L475:
 527:../switch_sdk/core/yt/yt_port.c **** }
 4838              		.loc 1 527 1 view .LVU1381
 4839 0034 08BD     		pop	{r3, pc}
 4840              	.LVL644:
 4841              	.L489:
 520:../switch_sdk/core/yt/yt_port.c ****     CMM_PARAM_CHK(NULL == YT_DISPATCH(unit), CMM_ERR_NOT_INIT);
 4842              		.loc 1 520 5 is_stmt 1 discriminator 1 view .LVU1382
 520:../switch_sdk/core/yt/yt_port.c ****     CMM_PARAM_CHK(NULL == YT_DISPATCH(unit), CMM_ERR_NOT_INIT);
 4843              		.loc 1 520 5 discriminator 1 view .LVU1383
 4844 0036 264B     		ldr	r3, .L498+12
 4845 0038 1B78     		ldrb	r3, [r3]	@ zero_extendqisi2
 4846 003a 012B     		cmp	r3, #1
 4847 003c 01D8     		bhi	.L493
 4848              	.LVL645:
 4849              	.L477:
 520:../switch_sdk/core/yt/yt_port.c ****     CMM_PARAM_CHK(NULL == YT_DISPATCH(unit), CMM_ERR_NOT_INIT);
 4850              		.loc 1 520 5 discriminator 5 view .LVU1384
 520:../switch_sdk/core/yt/yt_port.c ****     CMM_PARAM_CHK(NULL == YT_DISPATCH(unit), CMM_ERR_NOT_INIT);
 4851              		.loc 1 520 5 discriminator 5 view .LVU1385
 520:../switch_sdk/core/yt/yt_port.c ****     CMM_PARAM_CHK(NULL == YT_DISPATCH(unit), CMM_ERR_NOT_INIT);
 4852              		.loc 1 520 5 discriminator 5 view .LVU1386
 4853 003e 0520     		movs	r0, #5
 4854 0040 F8E7     		b	.L475
 4855              	.LVL646:
 4856              	.L493:
 520:../switch_sdk/core/yt/yt_port.c ****     CMM_PARAM_CHK(NULL == YT_DISPATCH(unit), CMM_ERR_NOT_INIT);
 4857              		.loc 1 520 5 discriminator 3 view .LVU1387
 4858              	.LBB94:
 520:../switch_sdk/core/yt/yt_port.c ****     CMM_PARAM_CHK(NULL == YT_DISPATCH(unit), CMM_ERR_NOT_INIT);
 4859              		.loc 1 520 5 discriminator 3 view .LVU1388
 4860 0042 244B     		ldr	r3, .L498+16
 4861 0044 5A69     		ldr	r2, [r3, #20]
 4862              	.LVL647:
 520:../switch_sdk/core/yt/yt_port.c ****     CMM_PARAM_CHK(NULL == YT_DISPATCH(unit), CMM_ERR_NOT_INIT);
 4863              		.loc 1 520 5 is_stmt 0 discriminator 3 view .LVU1389
 4864 0046 244B     		ldr	r3, .L498+20
 4865 0048 9968     		ldr	r1, [r3, #8]
 4866              	.LVL648:
 520:../switch_sdk/core/yt/yt_port.c ****     CMM_PARAM_CHK(NULL == YT_DISPATCH(unit), CMM_ERR_NOT_INIT);
 4867              		.loc 1 520 5 discriminator 3 view .LVU1390
 4868 004a 2448     		ldr	r0, .L498+24
 4869              	.LVL649:
 520:../switch_sdk/core/yt/yt_port.c ****     CMM_PARAM_CHK(NULL == YT_DISPATCH(unit), CMM_ERR_NOT_INIT);
 4870              		.loc 1 520 5 discriminator 3 view .LVU1391
 4871 004c FFF7FEFF 		bl	osal_printf
 4872              	.LVL650:
 4873 0050 F5E7     		b	.L477
 4874              	.LVL651:
 4875              	.L490:
 520:../switch_sdk/core/yt/yt_port.c ****     CMM_PARAM_CHK(NULL == YT_DISPATCH(unit), CMM_ERR_NOT_INIT);
 4876              		.loc 1 520 5 discriminator 3 view .LVU1392
 4877              	.LBE94:
 521:../switch_sdk/core/yt/yt_port.c ****     CMM_PARAM_CHK((!(YT_DISPATCH(unit)->is_inited)), CMM_ERR_NOT_INIT);
 4878              		.loc 1 521 5 is_stmt 1 discriminator 1 view .LVU1393
 521:../switch_sdk/core/yt/yt_port.c ****     CMM_PARAM_CHK((!(YT_DISPATCH(unit)->is_inited)), CMM_ERR_NOT_INIT);
 4879              		.loc 1 521 5 discriminator 1 view .LVU1394
 4880 0052 1F4B     		ldr	r3, .L498+12
 4881 0054 1B78     		ldrb	r3, [r3]	@ zero_extendqisi2
 4882 0056 012B     		cmp	r3, #1
 4883 0058 01D8     		bhi	.L494
 4884              	.LVL652:
 4885              	.L480:
 521:../switch_sdk/core/yt/yt_port.c ****     CMM_PARAM_CHK((!(YT_DISPATCH(unit)->is_inited)), CMM_ERR_NOT_INIT);
 4886              		.loc 1 521 5 discriminator 5 view .LVU1395
 521:../switch_sdk/core/yt/yt_port.c ****     CMM_PARAM_CHK((!(YT_DISPATCH(unit)->is_inited)), CMM_ERR_NOT_INIT);
 4887              		.loc 1 521 5 discriminator 5 view .LVU1396
 521:../switch_sdk/core/yt/yt_port.c ****     CMM_PARAM_CHK((!(YT_DISPATCH(unit)->is_inited)), CMM_ERR_NOT_INIT);
 4888              		.loc 1 521 5 discriminator 5 view .LVU1397
 4889 005a 0420     		movs	r0, #4
 4890 005c EAE7     		b	.L475
 4891              	.LVL653:
 4892              	.L494:
 521:../switch_sdk/core/yt/yt_port.c ****     CMM_PARAM_CHK((!(YT_DISPATCH(unit)->is_inited)), CMM_ERR_NOT_INIT);
 4893              		.loc 1 521 5 discriminator 3 view .LVU1398
 4894              	.LBB95:
 521:../switch_sdk/core/yt/yt_port.c ****     CMM_PARAM_CHK((!(YT_DISPATCH(unit)->is_inited)), CMM_ERR_NOT_INIT);
 4895              		.loc 1 521 5 discriminator 3 view .LVU1399
 4896 005e 1D4B     		ldr	r3, .L498+16
 4897 0060 1A69     		ldr	r2, [r3, #16]
 4898              	.LVL654:
 521:../switch_sdk/core/yt/yt_port.c ****     CMM_PARAM_CHK((!(YT_DISPATCH(unit)->is_inited)), CMM_ERR_NOT_INIT);
 4899              		.loc 1 521 5 is_stmt 0 discriminator 3 view .LVU1400
 4900 0062 1D4B     		ldr	r3, .L498+20
 4901 0064 9968     		ldr	r1, [r3, #8]
 4902              	.LVL655:
 521:../switch_sdk/core/yt/yt_port.c ****     CMM_PARAM_CHK((!(YT_DISPATCH(unit)->is_inited)), CMM_ERR_NOT_INIT);
 4903              		.loc 1 521 5 discriminator 3 view .LVU1401
 4904 0066 1D48     		ldr	r0, .L498+24
 4905              	.LVL656:
 521:../switch_sdk/core/yt/yt_port.c ****     CMM_PARAM_CHK((!(YT_DISPATCH(unit)->is_inited)), CMM_ERR_NOT_INIT);
 4906              		.loc 1 521 5 discriminator 3 view .LVU1402
 4907 0068 FFF7FEFF 		bl	osal_printf
 4908              	.LVL657:
 4909 006c F5E7     		b	.L480
 4910              	.LVL658:
 4911              	.L491:
 521:../switch_sdk/core/yt/yt_port.c ****     CMM_PARAM_CHK((!(YT_DISPATCH(unit)->is_inited)), CMM_ERR_NOT_INIT);
 4912              		.loc 1 521 5 discriminator 3 view .LVU1403
 4913              	.LBE95:
 522:../switch_sdk/core/yt/yt_port.c ****     CMM_PARAM_CHK((!(CMM_PORT_VALID(unit, port))), CMM_ERR_PORT);
 4914              		.loc 1 522 5 is_stmt 1 discriminator 1 view .LVU1404
 522:../switch_sdk/core/yt/yt_port.c ****     CMM_PARAM_CHK((!(CMM_PORT_VALID(unit, port))), CMM_ERR_PORT);
 4915              		.loc 1 522 5 discriminator 1 view .LVU1405
 4916 006e 184B     		ldr	r3, .L498+12
 4917 0070 1B78     		ldrb	r3, [r3]	@ zero_extendqisi2
 4918 0072 012B     		cmp	r3, #1
 4919 0074 01D8     		bhi	.L495
 4920              	.LVL659:
 4921              	.L482:
 522:../switch_sdk/core/yt/yt_port.c ****     CMM_PARAM_CHK((!(CMM_PORT_VALID(unit, port))), CMM_ERR_PORT);
 4922              		.loc 1 522 5 discriminator 5 view .LVU1406
 522:../switch_sdk/core/yt/yt_port.c ****     CMM_PARAM_CHK((!(CMM_PORT_VALID(unit, port))), CMM_ERR_PORT);
 4923              		.loc 1 522 5 discriminator 5 view .LVU1407
 522:../switch_sdk/core/yt/yt_port.c ****     CMM_PARAM_CHK((!(CMM_PORT_VALID(unit, port))), CMM_ERR_PORT);
 4924              		.loc 1 522 5 discriminator 5 view .LVU1408
 4925 0076 0420     		movs	r0, #4
 4926 0078 DCE7     		b	.L475
 4927              	.LVL660:
 4928              	.L495:
 522:../switch_sdk/core/yt/yt_port.c ****     CMM_PARAM_CHK((!(CMM_PORT_VALID(unit, port))), CMM_ERR_PORT);
 4929              		.loc 1 522 5 discriminator 3 view .LVU1409
 4930              	.LBB96:
 522:../switch_sdk/core/yt/yt_port.c ****     CMM_PARAM_CHK((!(CMM_PORT_VALID(unit, port))), CMM_ERR_PORT);
 4931              		.loc 1 522 5 discriminator 3 view .LVU1410
 4932 007a 164B     		ldr	r3, .L498+16
 4933 007c 1A69     		ldr	r2, [r3, #16]
 4934              	.LVL661:
 522:../switch_sdk/core/yt/yt_port.c ****     CMM_PARAM_CHK((!(CMM_PORT_VALID(unit, port))), CMM_ERR_PORT);
 4935              		.loc 1 522 5 is_stmt 0 discriminator 3 view .LVU1411
 4936 007e 164B     		ldr	r3, .L498+20
 4937 0080 9968     		ldr	r1, [r3, #8]
 4938              	.LVL662:
 522:../switch_sdk/core/yt/yt_port.c ****     CMM_PARAM_CHK((!(CMM_PORT_VALID(unit, port))), CMM_ERR_PORT);
 4939              		.loc 1 522 5 discriminator 3 view .LVU1412
 4940 0082 1648     		ldr	r0, .L498+24
 4941 0084 FFF7FEFF 		bl	osal_printf
 4942              	.LVL663:
 4943 0088 F5E7     		b	.L482
 4944              	.LVL664:
 4945              	.L483:
 522:../switch_sdk/core/yt/yt_port.c ****     CMM_PARAM_CHK((!(CMM_PORT_VALID(unit, port))), CMM_ERR_PORT);
 4946              		.loc 1 522 5 discriminator 3 view .LVU1413
 4947              	.LBE96:
 523:../switch_sdk/core/yt/yt_port.c ****     CMM_PARAM_CHK((YT_ENABLE < enable || YT_DISABLE > enable), CMM_ERR_INPUT);
 4948              		.loc 1 523 5 is_stmt 1 discriminator 3 view .LVU1414
 523:../switch_sdk/core/yt/yt_port.c ****     CMM_PARAM_CHK((YT_ENABLE < enable || YT_DISABLE > enable), CMM_ERR_INPUT);
 4949              		.loc 1 523 5 discriminator 3 view .LVU1415
 4950 008a 114B     		ldr	r3, .L498+12
 4951 008c 1B78     		ldrb	r3, [r3]	@ zero_extendqisi2
 4952 008e 012B     		cmp	r3, #1
 4953 0090 01D8     		bhi	.L496
 4954              	.LVL665:
 4955              	.L485:
 523:../switch_sdk/core/yt/yt_port.c ****     CMM_PARAM_CHK((YT_ENABLE < enable || YT_DISABLE > enable), CMM_ERR_INPUT);
 4956              		.loc 1 523 5 discriminator 7 view .LVU1416
 523:../switch_sdk/core/yt/yt_port.c ****     CMM_PARAM_CHK((YT_ENABLE < enable || YT_DISABLE > enable), CMM_ERR_INPUT);
 4957              		.loc 1 523 5 discriminator 7 view .LVU1417
 523:../switch_sdk/core/yt/yt_port.c ****     CMM_PARAM_CHK((YT_ENABLE < enable || YT_DISABLE > enable), CMM_ERR_INPUT);
 4958              		.loc 1 523 5 discriminator 7 view .LVU1418
 4959 0092 0E20     		movs	r0, #14
 4960 0094 CEE7     		b	.L475
 4961              	.LVL666:
 4962              	.L496:
 523:../switch_sdk/core/yt/yt_port.c ****     CMM_PARAM_CHK((YT_ENABLE < enable || YT_DISABLE > enable), CMM_ERR_INPUT);
 4963              		.loc 1 523 5 discriminator 5 view .LVU1419
 4964              	.LBB97:
 523:../switch_sdk/core/yt/yt_port.c ****     CMM_PARAM_CHK((YT_ENABLE < enable || YT_DISABLE > enable), CMM_ERR_INPUT);
 4965              		.loc 1 523 5 discriminator 5 view .LVU1420
 4966 0096 0F4B     		ldr	r3, .L498+16
 4967 0098 9A6B     		ldr	r2, [r3, #56]
 4968              	.LVL667:
 523:../switch_sdk/core/yt/yt_port.c ****     CMM_PARAM_CHK((YT_ENABLE < enable || YT_DISABLE > enable), CMM_ERR_INPUT);
 4969              		.loc 1 523 5 is_stmt 0 discriminator 5 view .LVU1421
 4970 009a 0F4B     		ldr	r3, .L498+20
 4971 009c 9968     		ldr	r1, [r3, #8]
 4972              	.LVL668:
 523:../switch_sdk/core/yt/yt_port.c ****     CMM_PARAM_CHK((YT_ENABLE < enable || YT_DISABLE > enable), CMM_ERR_INPUT);
 4973              		.loc 1 523 5 discriminator 5 view .LVU1422
 4974 009e 0F48     		ldr	r0, .L498+24
 4975 00a0 FFF7FEFF 		bl	osal_printf
 4976              	.LVL669:
 4977 00a4 F5E7     		b	.L485
 4978              	.LVL670:
 4979              	.L492:
 523:../switch_sdk/core/yt/yt_port.c ****     CMM_PARAM_CHK((YT_ENABLE < enable || YT_DISABLE > enable), CMM_ERR_INPUT);
 4980              		.loc 1 523 5 discriminator 5 view .LVU1423
 4981              	.LBE97:
 524:../switch_sdk/core/yt/yt_port.c **** 
 4982              		.loc 1 524 5 is_stmt 1 discriminator 1 view .LVU1424
 524:../switch_sdk/core/yt/yt_port.c **** 
 4983              		.loc 1 524 5 discriminator 1 view .LVU1425
 4984 00a6 0A4B     		ldr	r3, .L498+12
 4985 00a8 1B78     		ldrb	r3, [r3]	@ zero_extendqisi2
 4986 00aa 012B     		cmp	r3, #1
 4987 00ac 01D8     		bhi	.L497
 4988              	.LVL671:
 4989              	.L487:
 524:../switch_sdk/core/yt/yt_port.c **** 
 4990              		.loc 1 524 5 discriminator 5 view .LVU1426
 524:../switch_sdk/core/yt/yt_port.c **** 
 4991              		.loc 1 524 5 discriminator 5 view .LVU1427
 524:../switch_sdk/core/yt/yt_port.c **** 
 4992              		.loc 1 524 5 discriminator 5 view .LVU1428
 4993 00ae 0520     		movs	r0, #5
 4994 00b0 C0E7     		b	.L475
 4995              	.LVL672:
 4996              	.L497:
 524:../switch_sdk/core/yt/yt_port.c **** 
 4997              		.loc 1 524 5 discriminator 3 view .LVU1429
 4998              	.LBB98:
 524:../switch_sdk/core/yt/yt_port.c **** 
 4999              		.loc 1 524 5 discriminator 3 view .LVU1430
 5000 00b2 084B     		ldr	r3, .L498+16
 5001 00b4 5A69     		ldr	r2, [r3, #20]
 5002              	.LVL673:
 524:../switch_sdk/core/yt/yt_port.c **** 
 5003              		.loc 1 524 5 is_stmt 0 discriminator 3 view .LVU1431
 5004 00b6 084B     		ldr	r3, .L498+20
 5005 00b8 9968     		ldr	r1, [r3, #8]
 5006              	.LVL674:
 524:../switch_sdk/core/yt/yt_port.c **** 
 5007              		.loc 1 524 5 discriminator 3 view .LVU1432
 5008 00ba 0848     		ldr	r0, .L498+24
 5009 00bc FFF7FEFF 		bl	osal_printf
 5010              	.LVL675:
 5011 00c0 F5E7     		b	.L487
 5012              	.L499:
 5013 00c2 00BF     		.align	2
 5014              	.L498:
 5015 00c4 00000000 		.word	gpfal_dispatch
 5016 00c8 00000000 		.word	gcal_inited
 5017 00cc 00000000 		.word	gpSwitchUnit
 5018 00d0 00000000 		.word	yt_debug_level
 5019 00d4 00000000 		.word	_yt_errmsg
 5020 00d8 00000000 		.word	_yt_prompt_msg
 5021 00dc 00000000 		.word	.LC0
 5022              	.LBE98:
 5023              		.cfi_endproc
 5024              	.LFE24:
 5026              		.section	.text.yt_port_phyAutoNeg_enable_get,"ax",%progbits
 5027              		.align	1
 5028              		.global	yt_port_phyAutoNeg_enable_get
 5029              		.syntax unified
 5030              		.thumb
 5031              		.thumb_func
 5033              	yt_port_phyAutoNeg_enable_get:
 5034              	.LVL676:
 5035              	.LFB25:
 528:../switch_sdk/core/yt/yt_port.c **** 
 529:../switch_sdk/core/yt/yt_port.c **** /**
 530:../switch_sdk/core/yt/yt_port.c ****  * @internal      yt_port_phyAutoNeg_enable_get
 531:../switch_sdk/core/yt/yt_port.c ****  * @endinternal
 532:../switch_sdk/core/yt/yt_port.c ****  *
 533:../switch_sdk/core/yt/yt_port.c ****  * @brief         Description
 534:../switch_sdk/core/yt/yt_port.c ****  * @note          APPLICABLE DEVICES  -Tiger
 535:../switch_sdk/core/yt/yt_port.c ****  * @param[in]     unit                -unit id
 536:../switch_sdk/core/yt/yt_port.c ****  * @param[in]     port                -port num
 537:../switch_sdk/core/yt/yt_port.c ****  * @param[out]    pEnable             -enable or disable
 538:../switch_sdk/core/yt/yt_port.c ****  * @retval        CMM_ERR_OK          -on success
 539:../switch_sdk/core/yt/yt_port.c ****  * @retval        CMM_ERR_FAIL        -on fail
 540:../switch_sdk/core/yt/yt_port.c ****  */
 541:../switch_sdk/core/yt/yt_port.c **** yt_ret_t yt_port_phyAutoNeg_enable_get(yt_unit_t unit, yt_port_t port, yt_enable_t *pEnable)
 542:../switch_sdk/core/yt/yt_port.c **** {
 5036              		.loc 1 542 1 is_stmt 1 view -0
 5037              		.cfi_startproc
 5038              		@ args = 0, pretend = 0, frame = 0
 5039              		@ frame_needed = 0, uses_anonymous_args = 0
 5040              		.loc 1 542 1 is_stmt 0 view .LVU1434
 5041 0000 08B5     		push	{r3, lr}
 5042              		.cfi_def_cfa_offset 8
 5043              		.cfi_offset 3, -8
 5044              		.cfi_offset 14, -4
 543:../switch_sdk/core/yt/yt_port.c ****     CMM_PARAM_CHK((YT_UNIT_NUM <= unit), CMM_ERR_INPUT);
 5045              		.loc 1 543 5 is_stmt 1 view .LVU1435
 5046              		.loc 1 543 5 view .LVU1436
 5047 0002 C0B9     		cbnz	r0, .L514
 5048 0004 8446     		mov	ip, r0
 5049              		.loc 1 543 5 discriminator 2 view .LVU1437
 544:../switch_sdk/core/yt/yt_port.c ****     CMM_PARAM_CHK(NULL == YT_DISPATCH(unit), CMM_ERR_NOT_INIT);
 5050              		.loc 1 544 5 discriminator 2 view .LVU1438
 5051              		.loc 1 544 5 discriminator 2 view .LVU1439
 5052 0006 2F4B     		ldr	r3, .L523
 5053 0008 53F82030 		ldr	r3, [r3, r0, lsl #2]
 5054 000c 0BB3     		cbz	r3, .L515
 5055              		.loc 1 544 5 discriminator 2 view .LVU1440
 545:../switch_sdk/core/yt/yt_port.c ****     CMM_PARAM_CHK((!(YT_DISPATCH(unit)->is_inited)), CMM_ERR_NOT_INIT);
 5056              		.loc 1 545 5 discriminator 2 view .LVU1441
 5057              		.loc 1 545 5 discriminator 2 view .LVU1442
 5058 000e 1878     		ldrb	r0, [r3]	@ zero_extendqisi2
 5059              	.LVL677:
 5060              		.loc 1 545 5 is_stmt 0 discriminator 2 view .LVU1443
 5061 0010 0028     		cmp	r0, #0
 5062 0012 2CD0     		beq	.L516
 5063              		.loc 1 545 5 is_stmt 1 discriminator 2 view .LVU1444
 546:../switch_sdk/core/yt/yt_port.c ****     CMM_PARAM_CHK((!(CMM_PORT_VALID(unit, port))), CMM_ERR_PORT);
 5064              		.loc 1 546 5 discriminator 2 view .LVU1445
 5065              		.loc 1 546 5 discriminator 2 view .LVU1446
 5066 0014 2C48     		ldr	r0, .L523+4
 5067 0016 0078     		ldrb	r0, [r0]	@ zero_extendqisi2
 5068 0018 0028     		cmp	r0, #0
 5069 001a 36D0     		beq	.L508
 5070 001c 2B48     		ldr	r0, .L523+8
 5071 001e 50F82C00 		ldr	r0, [r0, ip, lsl #2]
 5072 0022 007D     		ldrb	r0, [r0, #20]	@ zero_extendqisi2
 5073 0024 8842     		cmp	r0, r1
 5074 0026 30D9     		bls	.L508
 5075              		.loc 1 546 5 discriminator 4 view .LVU1447
 547:../switch_sdk/core/yt/yt_port.c ****     CMM_PARAM_CHK((NULL == pEnable), CMM_ERR_NULL_POINT);
 5076              		.loc 1 547 5 discriminator 4 view .LVU1448
 5077              		.loc 1 547 5 discriminator 4 view .LVU1449
 5078 0028 002A     		cmp	r2, #0
 5079 002a 3CD0     		beq	.L517
 5080              		.loc 1 547 5 discriminator 2 view .LVU1450
 548:../switch_sdk/core/yt/yt_port.c **** 
 549:../switch_sdk/core/yt/yt_port.c ****     return YT_DISPATCH(unit)->port_phyAutoNeg_enable_get(unit, port, pEnable);
 5081              		.loc 1 549 5 discriminator 2 view .LVU1451
 5082              		.loc 1 549 29 is_stmt 0 discriminator 2 view .LVU1452
 5083 002c D3F8B035 		ldr	r3, [r3, #1456]
 5084              		.loc 1 549 12 discriminator 2 view .LVU1453
 5085 0030 6046     		mov	r0, ip
 5086 0032 9847     		blx	r3
 5087              	.LVL678:
 5088              	.L500:
 550:../switch_sdk/core/yt/yt_port.c **** }
 5089              		.loc 1 550 1 view .LVU1454
 5090 0034 08BD     		pop	{r3, pc}
 5091              	.LVL679:
 5092              	.L514:
 543:../switch_sdk/core/yt/yt_port.c ****     CMM_PARAM_CHK(NULL == YT_DISPATCH(unit), CMM_ERR_NOT_INIT);
 5093              		.loc 1 543 5 is_stmt 1 discriminator 1 view .LVU1455
 543:../switch_sdk/core/yt/yt_port.c ****     CMM_PARAM_CHK(NULL == YT_DISPATCH(unit), CMM_ERR_NOT_INIT);
 5094              		.loc 1 543 5 discriminator 1 view .LVU1456
 5095 0036 264B     		ldr	r3, .L523+12
 5096 0038 1B78     		ldrb	r3, [r3]	@ zero_extendqisi2
 5097 003a 012B     		cmp	r3, #1
 5098 003c 01D8     		bhi	.L518
 5099              	.LVL680:
 5100              	.L502:
 543:../switch_sdk/core/yt/yt_port.c ****     CMM_PARAM_CHK(NULL == YT_DISPATCH(unit), CMM_ERR_NOT_INIT);
 5101              		.loc 1 543 5 discriminator 5 view .LVU1457
 543:../switch_sdk/core/yt/yt_port.c ****     CMM_PARAM_CHK(NULL == YT_DISPATCH(unit), CMM_ERR_NOT_INIT);
 5102              		.loc 1 543 5 discriminator 5 view .LVU1458
 543:../switch_sdk/core/yt/yt_port.c ****     CMM_PARAM_CHK(NULL == YT_DISPATCH(unit), CMM_ERR_NOT_INIT);
 5103              		.loc 1 543 5 discriminator 5 view .LVU1459
 5104 003e 0520     		movs	r0, #5
 5105 0040 F8E7     		b	.L500
 5106              	.LVL681:
 5107              	.L518:
 543:../switch_sdk/core/yt/yt_port.c ****     CMM_PARAM_CHK(NULL == YT_DISPATCH(unit), CMM_ERR_NOT_INIT);
 5108              		.loc 1 543 5 discriminator 3 view .LVU1460
 5109              	.LBB99:
 543:../switch_sdk/core/yt/yt_port.c ****     CMM_PARAM_CHK(NULL == YT_DISPATCH(unit), CMM_ERR_NOT_INIT);
 5110              		.loc 1 543 5 discriminator 3 view .LVU1461
 5111 0042 244B     		ldr	r3, .L523+16
 5112 0044 5A69     		ldr	r2, [r3, #20]
 5113              	.LVL682:
 543:../switch_sdk/core/yt/yt_port.c ****     CMM_PARAM_CHK(NULL == YT_DISPATCH(unit), CMM_ERR_NOT_INIT);
 5114              		.loc 1 543 5 is_stmt 0 discriminator 3 view .LVU1462
 5115 0046 244B     		ldr	r3, .L523+20
 5116 0048 9968     		ldr	r1, [r3, #8]
 5117              	.LVL683:
 543:../switch_sdk/core/yt/yt_port.c ****     CMM_PARAM_CHK(NULL == YT_DISPATCH(unit), CMM_ERR_NOT_INIT);
 5118              		.loc 1 543 5 discriminator 3 view .LVU1463
 5119 004a 2448     		ldr	r0, .L523+24
 5120              	.LVL684:
 543:../switch_sdk/core/yt/yt_port.c ****     CMM_PARAM_CHK(NULL == YT_DISPATCH(unit), CMM_ERR_NOT_INIT);
 5121              		.loc 1 543 5 discriminator 3 view .LVU1464
 5122 004c FFF7FEFF 		bl	osal_printf
 5123              	.LVL685:
 5124 0050 F5E7     		b	.L502
 5125              	.LVL686:
 5126              	.L515:
 543:../switch_sdk/core/yt/yt_port.c ****     CMM_PARAM_CHK(NULL == YT_DISPATCH(unit), CMM_ERR_NOT_INIT);
 5127              		.loc 1 543 5 discriminator 3 view .LVU1465
 5128              	.LBE99:
 544:../switch_sdk/core/yt/yt_port.c ****     CMM_PARAM_CHK((!(YT_DISPATCH(unit)->is_inited)), CMM_ERR_NOT_INIT);
 5129              		.loc 1 544 5 is_stmt 1 discriminator 1 view .LVU1466
 544:../switch_sdk/core/yt/yt_port.c ****     CMM_PARAM_CHK((!(YT_DISPATCH(unit)->is_inited)), CMM_ERR_NOT_INIT);
 5130              		.loc 1 544 5 discriminator 1 view .LVU1467
 5131 0052 1F4B     		ldr	r3, .L523+12
 5132 0054 1B78     		ldrb	r3, [r3]	@ zero_extendqisi2
 5133 0056 012B     		cmp	r3, #1
 5134 0058 01D8     		bhi	.L519
 5135              	.LVL687:
 5136              	.L505:
 544:../switch_sdk/core/yt/yt_port.c ****     CMM_PARAM_CHK((!(YT_DISPATCH(unit)->is_inited)), CMM_ERR_NOT_INIT);
 5137              		.loc 1 544 5 discriminator 5 view .LVU1468
 544:../switch_sdk/core/yt/yt_port.c ****     CMM_PARAM_CHK((!(YT_DISPATCH(unit)->is_inited)), CMM_ERR_NOT_INIT);
 5138              		.loc 1 544 5 discriminator 5 view .LVU1469
 544:../switch_sdk/core/yt/yt_port.c ****     CMM_PARAM_CHK((!(YT_DISPATCH(unit)->is_inited)), CMM_ERR_NOT_INIT);
 5139              		.loc 1 544 5 discriminator 5 view .LVU1470
 5140 005a 0420     		movs	r0, #4
 5141 005c EAE7     		b	.L500
 5142              	.LVL688:
 5143              	.L519:
 544:../switch_sdk/core/yt/yt_port.c ****     CMM_PARAM_CHK((!(YT_DISPATCH(unit)->is_inited)), CMM_ERR_NOT_INIT);
 5144              		.loc 1 544 5 discriminator 3 view .LVU1471
 5145              	.LBB100:
 544:../switch_sdk/core/yt/yt_port.c ****     CMM_PARAM_CHK((!(YT_DISPATCH(unit)->is_inited)), CMM_ERR_NOT_INIT);
 5146              		.loc 1 544 5 discriminator 3 view .LVU1472
 5147 005e 1D4B     		ldr	r3, .L523+16
 5148 0060 1A69     		ldr	r2, [r3, #16]
 5149              	.LVL689:
 544:../switch_sdk/core/yt/yt_port.c ****     CMM_PARAM_CHK((!(YT_DISPATCH(unit)->is_inited)), CMM_ERR_NOT_INIT);
 5150              		.loc 1 544 5 is_stmt 0 discriminator 3 view .LVU1473
 5151 0062 1D4B     		ldr	r3, .L523+20
 5152 0064 9968     		ldr	r1, [r3, #8]
 5153              	.LVL690:
 544:../switch_sdk/core/yt/yt_port.c ****     CMM_PARAM_CHK((!(YT_DISPATCH(unit)->is_inited)), CMM_ERR_NOT_INIT);
 5154              		.loc 1 544 5 discriminator 3 view .LVU1474
 5155 0066 1D48     		ldr	r0, .L523+24
 5156              	.LVL691:
 544:../switch_sdk/core/yt/yt_port.c ****     CMM_PARAM_CHK((!(YT_DISPATCH(unit)->is_inited)), CMM_ERR_NOT_INIT);
 5157              		.loc 1 544 5 discriminator 3 view .LVU1475
 5158 0068 FFF7FEFF 		bl	osal_printf
 5159              	.LVL692:
 5160 006c F5E7     		b	.L505
 5161              	.LVL693:
 5162              	.L516:
 544:../switch_sdk/core/yt/yt_port.c ****     CMM_PARAM_CHK((!(YT_DISPATCH(unit)->is_inited)), CMM_ERR_NOT_INIT);
 5163              		.loc 1 544 5 discriminator 3 view .LVU1476
 5164              	.LBE100:
 545:../switch_sdk/core/yt/yt_port.c ****     CMM_PARAM_CHK((!(CMM_PORT_VALID(unit, port))), CMM_ERR_PORT);
 5165              		.loc 1 545 5 is_stmt 1 discriminator 1 view .LVU1477
 545:../switch_sdk/core/yt/yt_port.c ****     CMM_PARAM_CHK((!(CMM_PORT_VALID(unit, port))), CMM_ERR_PORT);
 5166              		.loc 1 545 5 discriminator 1 view .LVU1478
 5167 006e 184B     		ldr	r3, .L523+12
 5168 0070 1B78     		ldrb	r3, [r3]	@ zero_extendqisi2
 5169 0072 012B     		cmp	r3, #1
 5170 0074 01D8     		bhi	.L520
 5171              	.LVL694:
 5172              	.L507:
 545:../switch_sdk/core/yt/yt_port.c ****     CMM_PARAM_CHK((!(CMM_PORT_VALID(unit, port))), CMM_ERR_PORT);
 5173              		.loc 1 545 5 discriminator 5 view .LVU1479
 545:../switch_sdk/core/yt/yt_port.c ****     CMM_PARAM_CHK((!(CMM_PORT_VALID(unit, port))), CMM_ERR_PORT);
 5174              		.loc 1 545 5 discriminator 5 view .LVU1480
 545:../switch_sdk/core/yt/yt_port.c ****     CMM_PARAM_CHK((!(CMM_PORT_VALID(unit, port))), CMM_ERR_PORT);
 5175              		.loc 1 545 5 discriminator 5 view .LVU1481
 5176 0076 0420     		movs	r0, #4
 5177 0078 DCE7     		b	.L500
 5178              	.LVL695:
 5179              	.L520:
 545:../switch_sdk/core/yt/yt_port.c ****     CMM_PARAM_CHK((!(CMM_PORT_VALID(unit, port))), CMM_ERR_PORT);
 5180              		.loc 1 545 5 discriminator 3 view .LVU1482
 5181              	.LBB101:
 545:../switch_sdk/core/yt/yt_port.c ****     CMM_PARAM_CHK((!(CMM_PORT_VALID(unit, port))), CMM_ERR_PORT);
 5182              		.loc 1 545 5 discriminator 3 view .LVU1483
 5183 007a 164B     		ldr	r3, .L523+16
 5184 007c 1A69     		ldr	r2, [r3, #16]
 5185              	.LVL696:
 545:../switch_sdk/core/yt/yt_port.c ****     CMM_PARAM_CHK((!(CMM_PORT_VALID(unit, port))), CMM_ERR_PORT);
 5186              		.loc 1 545 5 is_stmt 0 discriminator 3 view .LVU1484
 5187 007e 164B     		ldr	r3, .L523+20
 5188 0080 9968     		ldr	r1, [r3, #8]
 5189              	.LVL697:
 545:../switch_sdk/core/yt/yt_port.c ****     CMM_PARAM_CHK((!(CMM_PORT_VALID(unit, port))), CMM_ERR_PORT);
 5190              		.loc 1 545 5 discriminator 3 view .LVU1485
 5191 0082 1648     		ldr	r0, .L523+24
 5192 0084 FFF7FEFF 		bl	osal_printf
 5193              	.LVL698:
 5194 0088 F5E7     		b	.L507
 5195              	.LVL699:
 5196              	.L508:
 545:../switch_sdk/core/yt/yt_port.c ****     CMM_PARAM_CHK((!(CMM_PORT_VALID(unit, port))), CMM_ERR_PORT);
 5197              		.loc 1 545 5 discriminator 3 view .LVU1486
 5198              	.LBE101:
 546:../switch_sdk/core/yt/yt_port.c ****     CMM_PARAM_CHK((NULL == pEnable), CMM_ERR_NULL_POINT);
 5199              		.loc 1 546 5 is_stmt 1 discriminator 3 view .LVU1487
 546:../switch_sdk/core/yt/yt_port.c ****     CMM_PARAM_CHK((NULL == pEnable), CMM_ERR_NULL_POINT);
 5200              		.loc 1 546 5 discriminator 3 view .LVU1488
 5201 008a 114B     		ldr	r3, .L523+12
 5202 008c 1B78     		ldrb	r3, [r3]	@ zero_extendqisi2
 5203 008e 012B     		cmp	r3, #1
 5204 0090 01D8     		bhi	.L521
 5205              	.LVL700:
 5206              	.L510:
 546:../switch_sdk/core/yt/yt_port.c ****     CMM_PARAM_CHK((NULL == pEnable), CMM_ERR_NULL_POINT);
 5207              		.loc 1 546 5 discriminator 7 view .LVU1489
 546:../switch_sdk/core/yt/yt_port.c ****     CMM_PARAM_CHK((NULL == pEnable), CMM_ERR_NULL_POINT);
 5208              		.loc 1 546 5 discriminator 7 view .LVU1490
 546:../switch_sdk/core/yt/yt_port.c ****     CMM_PARAM_CHK((NULL == pEnable), CMM_ERR_NULL_POINT);
 5209              		.loc 1 546 5 discriminator 7 view .LVU1491
 5210 0092 0E20     		movs	r0, #14
 5211 0094 CEE7     		b	.L500
 5212              	.LVL701:
 5213              	.L521:
 546:../switch_sdk/core/yt/yt_port.c ****     CMM_PARAM_CHK((NULL == pEnable), CMM_ERR_NULL_POINT);
 5214              		.loc 1 546 5 discriminator 5 view .LVU1492
 5215              	.LBB102:
 546:../switch_sdk/core/yt/yt_port.c ****     CMM_PARAM_CHK((NULL == pEnable), CMM_ERR_NULL_POINT);
 5216              		.loc 1 546 5 discriminator 5 view .LVU1493
 5217 0096 0F4B     		ldr	r3, .L523+16
 5218 0098 9A6B     		ldr	r2, [r3, #56]
 5219              	.LVL702:
 546:../switch_sdk/core/yt/yt_port.c ****     CMM_PARAM_CHK((NULL == pEnable), CMM_ERR_NULL_POINT);
 5220              		.loc 1 546 5 is_stmt 0 discriminator 5 view .LVU1494
 5221 009a 0F4B     		ldr	r3, .L523+20
 5222 009c 9968     		ldr	r1, [r3, #8]
 5223              	.LVL703:
 546:../switch_sdk/core/yt/yt_port.c ****     CMM_PARAM_CHK((NULL == pEnable), CMM_ERR_NULL_POINT);
 5224              		.loc 1 546 5 discriminator 5 view .LVU1495
 5225 009e 0F48     		ldr	r0, .L523+24
 5226 00a0 FFF7FEFF 		bl	osal_printf
 5227              	.LVL704:
 5228 00a4 F5E7     		b	.L510
 5229              	.LVL705:
 5230              	.L517:
 546:../switch_sdk/core/yt/yt_port.c ****     CMM_PARAM_CHK((NULL == pEnable), CMM_ERR_NULL_POINT);
 5231              		.loc 1 546 5 discriminator 5 view .LVU1496
 5232              	.LBE102:
 547:../switch_sdk/core/yt/yt_port.c **** 
 5233              		.loc 1 547 5 is_stmt 1 discriminator 1 view .LVU1497
 547:../switch_sdk/core/yt/yt_port.c **** 
 5234              		.loc 1 547 5 discriminator 1 view .LVU1498
 5235 00a6 0A4B     		ldr	r3, .L523+12
 5236 00a8 1B78     		ldrb	r3, [r3]	@ zero_extendqisi2
 5237 00aa 012B     		cmp	r3, #1
 5238 00ac 01D8     		bhi	.L522
 5239              	.LVL706:
 5240              	.L512:
 547:../switch_sdk/core/yt/yt_port.c **** 
 5241              		.loc 1 547 5 discriminator 5 view .LVU1499
 547:../switch_sdk/core/yt/yt_port.c **** 
 5242              		.loc 1 547 5 discriminator 5 view .LVU1500
 547:../switch_sdk/core/yt/yt_port.c **** 
 5243              		.loc 1 547 5 discriminator 5 view .LVU1501
 5244 00ae 0220     		movs	r0, #2
 5245 00b0 C0E7     		b	.L500
 5246              	.LVL707:
 5247              	.L522:
 547:../switch_sdk/core/yt/yt_port.c **** 
 5248              		.loc 1 547 5 discriminator 3 view .LVU1502
 5249              	.LBB103:
 547:../switch_sdk/core/yt/yt_port.c **** 
 5250              		.loc 1 547 5 discriminator 3 view .LVU1503
 5251 00b2 084B     		ldr	r3, .L523+16
 5252 00b4 9A68     		ldr	r2, [r3, #8]
 5253              	.LVL708:
 547:../switch_sdk/core/yt/yt_port.c **** 
 5254              		.loc 1 547 5 is_stmt 0 discriminator 3 view .LVU1504
 5255 00b6 084B     		ldr	r3, .L523+20
 5256 00b8 9968     		ldr	r1, [r3, #8]
 5257              	.LVL709:
 547:../switch_sdk/core/yt/yt_port.c **** 
 5258              		.loc 1 547 5 discriminator 3 view .LVU1505
 5259 00ba 0848     		ldr	r0, .L523+24
 5260 00bc FFF7FEFF 		bl	osal_printf
 5261              	.LVL710:
 5262 00c0 F5E7     		b	.L512
 5263              	.L524:
 5264 00c2 00BF     		.align	2
 5265              	.L523:
 5266 00c4 00000000 		.word	gpfal_dispatch
 5267 00c8 00000000 		.word	gcal_inited
 5268 00cc 00000000 		.word	gpSwitchUnit
 5269 00d0 00000000 		.word	yt_debug_level
 5270 00d4 00000000 		.word	_yt_errmsg
 5271 00d8 00000000 		.word	_yt_prompt_msg
 5272 00dc 00000000 		.word	.LC0
 5273              	.LBE103:
 5274              		.cfi_endproc
 5275              	.LFE25:
 5277              		.section	.text.yt_port_phyAutoNeg_ability_set,"ax",%progbits
 5278              		.align	1
 5279              		.global	yt_port_phyAutoNeg_ability_set
 5280              		.syntax unified
 5281              		.thumb
 5282              		.thumb_func
 5284              	yt_port_phyAutoNeg_ability_set:
 5285              	.LVL711:
 5286              	.LFB26:
 551:../switch_sdk/core/yt/yt_port.c **** 
 552:../switch_sdk/core/yt/yt_port.c **** /**
 553:../switch_sdk/core/yt/yt_port.c ****  * @internal      yt_port_phyAutoNeg_ability_set
 554:../switch_sdk/core/yt/yt_port.c ****  * @endinternal
 555:../switch_sdk/core/yt/yt_port.c ****  *
 556:../switch_sdk/core/yt/yt_port.c ****  * @brief         Description
 557:../switch_sdk/core/yt/yt_port.c ****  * @note          APPLICABLE DEVICES  -Tiger
 558:../switch_sdk/core/yt/yt_port.c ****  * @param[in]     unit                -unit id
 559:../switch_sdk/core/yt/yt_port.c ****  * @param[in]     port                -port num
 560:../switch_sdk/core/yt/yt_port.c ****  * @param[in]     ability             -x
 561:../switch_sdk/core/yt/yt_port.c ****  * @retval        CMM_ERR_OK          -on success
 562:../switch_sdk/core/yt/yt_port.c ****  * @retval        CMM_ERR_FAIL        -on fail
 563:../switch_sdk/core/yt/yt_port.c ****  */
 564:../switch_sdk/core/yt/yt_port.c **** yt_ret_t yt_port_phyAutoNeg_ability_set(yt_unit_t unit, yt_port_t port, yt_port_an_ability_t abilit
 565:../switch_sdk/core/yt/yt_port.c **** {
 5287              		.loc 1 565 1 is_stmt 1 view -0
 5288              		.cfi_startproc
 5289              		@ args = 0, pretend = 0, frame = 8
 5290              		@ frame_needed = 0, uses_anonymous_args = 0
 5291              		.loc 1 565 1 is_stmt 0 view .LVU1507
 5292 0000 10B5     		push	{r4, lr}
 5293              		.cfi_def_cfa_offset 8
 5294              		.cfi_offset 4, -8
 5295              		.cfi_offset 14, -4
 5296 0002 82B0     		sub	sp, sp, #8
 5297              		.cfi_def_cfa_offset 16
 5298 0004 02AC     		add	r4, sp, #8
 5299 0006 04E90C00 		stmdb	r4, {r2, r3}
 566:../switch_sdk/core/yt/yt_port.c ****     CMM_PARAM_CHK((YT_UNIT_NUM <= unit), CMM_ERR_INPUT);
 5300              		.loc 1 566 5 is_stmt 1 view .LVU1508
 5301              		.loc 1 566 5 view .LVU1509
 5302 000a C0B9     		cbnz	r0, .L537
 5303              		.loc 1 566 5 discriminator 2 view .LVU1510
 567:../switch_sdk/core/yt/yt_port.c ****     CMM_PARAM_CHK(NULL == YT_DISPATCH(unit), CMM_ERR_NOT_INIT);
 5304              		.loc 1 567 5 discriminator 2 view .LVU1511
 5305              		.loc 1 567 5 discriminator 2 view .LVU1512
 5306 000c 284B     		ldr	r3, .L544
 5307 000e 53F82030 		ldr	r3, [r3, r0, lsl #2]
 5308 0012 13B3     		cbz	r3, .L538
 5309              		.loc 1 567 5 discriminator 2 view .LVU1513
 568:../switch_sdk/core/yt/yt_port.c ****     CMM_PARAM_CHK((!(YT_DISPATCH(unit)->is_inited)), CMM_ERR_NOT_INIT);
 5310              		.loc 1 568 5 discriminator 2 view .LVU1514
 5311              		.loc 1 568 5 discriminator 2 view .LVU1515
 5312 0014 1A78     		ldrb	r2, [r3]	@ zero_extendqisi2
 5313 0016 002A     		cmp	r2, #0
 5314 0018 2DD0     		beq	.L539
 5315              		.loc 1 568 5 discriminator 2 view .LVU1516
 569:../switch_sdk/core/yt/yt_port.c ****     CMM_PARAM_CHK((!(CMM_PORT_VALID(unit, port))), CMM_ERR_PORT);
 5316              		.loc 1 569 5 discriminator 2 view .LVU1517
 5317              		.loc 1 569 5 discriminator 2 view .LVU1518
 5318 001a 264A     		ldr	r2, .L544+4
 5319 001c 1278     		ldrb	r2, [r2]	@ zero_extendqisi2
 5320 001e 002A     		cmp	r2, #0
 5321 0020 37D0     		beq	.L533
 5322 0022 254A     		ldr	r2, .L544+8
 5323 0024 52F82020 		ldr	r2, [r2, r0, lsl #2]
 5324 0028 127D     		ldrb	r2, [r2, #20]	@ zero_extendqisi2
 5325 002a 8A42     		cmp	r2, r1
 5326 002c 31D9     		bls	.L533
 5327              		.loc 1 569 5 discriminator 4 view .LVU1519
 570:../switch_sdk/core/yt/yt_port.c **** 
 571:../switch_sdk/core/yt/yt_port.c ****     return YT_DISPATCH(unit)->port_phyAutoNeg_ability_set(unit, port, ability);
 5328              		.loc 1 571 5 discriminator 4 view .LVU1520
 5329              		.loc 1 571 29 is_stmt 0 discriminator 4 view .LVU1521
 5330 002e D3F8B445 		ldr	r4, [r3, #1460]
 5331              		.loc 1 571 12 discriminator 4 view .LVU1522
 5332 0032 02AB     		add	r3, sp, #8
 5333 0034 13E90C00 		ldmdb	r3, {r2, r3}
 5334 0038 A047     		blx	r4
 5335              	.LVL712:
 5336              	.L525:
 572:../switch_sdk/core/yt/yt_port.c **** }
 5337              		.loc 1 572 1 view .LVU1523
 5338 003a 02B0     		add	sp, sp, #8
 5339              		.cfi_remember_state
 5340              		.cfi_def_cfa_offset 8
 5341              		@ sp needed
 5342 003c 10BD     		pop	{r4, pc}
 5343              	.LVL713:
 5344              	.L537:
 5345              		.cfi_restore_state
 566:../switch_sdk/core/yt/yt_port.c ****     CMM_PARAM_CHK(NULL == YT_DISPATCH(unit), CMM_ERR_NOT_INIT);
 5346              		.loc 1 566 5 is_stmt 1 discriminator 1 view .LVU1524
 566:../switch_sdk/core/yt/yt_port.c ****     CMM_PARAM_CHK(NULL == YT_DISPATCH(unit), CMM_ERR_NOT_INIT);
 5347              		.loc 1 566 5 discriminator 1 view .LVU1525
 5348 003e 1F4B     		ldr	r3, .L544+12
 5349 0040 1B78     		ldrb	r3, [r3]	@ zero_extendqisi2
 5350 0042 012B     		cmp	r3, #1
 5351 0044 01D8     		bhi	.L540
 5352              	.LVL714:
 5353              	.L527:
 566:../switch_sdk/core/yt/yt_port.c ****     CMM_PARAM_CHK(NULL == YT_DISPATCH(unit), CMM_ERR_NOT_INIT);
 5354              		.loc 1 566 5 discriminator 5 view .LVU1526
 566:../switch_sdk/core/yt/yt_port.c ****     CMM_PARAM_CHK(NULL == YT_DISPATCH(unit), CMM_ERR_NOT_INIT);
 5355              		.loc 1 566 5 discriminator 5 view .LVU1527
 566:../switch_sdk/core/yt/yt_port.c ****     CMM_PARAM_CHK(NULL == YT_DISPATCH(unit), CMM_ERR_NOT_INIT);
 5356              		.loc 1 566 5 discriminator 5 view .LVU1528
 5357 0046 0520     		movs	r0, #5
 5358 0048 F7E7     		b	.L525
 5359              	.LVL715:
 5360              	.L540:
 566:../switch_sdk/core/yt/yt_port.c ****     CMM_PARAM_CHK(NULL == YT_DISPATCH(unit), CMM_ERR_NOT_INIT);
 5361              		.loc 1 566 5 discriminator 3 view .LVU1529
 5362              	.LBB104:
 566:../switch_sdk/core/yt/yt_port.c ****     CMM_PARAM_CHK(NULL == YT_DISPATCH(unit), CMM_ERR_NOT_INIT);
 5363              		.loc 1 566 5 discriminator 3 view .LVU1530
 5364 004a 1D4B     		ldr	r3, .L544+16
 5365 004c 5A69     		ldr	r2, [r3, #20]
 5366 004e 1D4B     		ldr	r3, .L544+20
 5367 0050 9968     		ldr	r1, [r3, #8]
 5368              	.LVL716:
 566:../switch_sdk/core/yt/yt_port.c ****     CMM_PARAM_CHK(NULL == YT_DISPATCH(unit), CMM_ERR_NOT_INIT);
 5369              		.loc 1 566 5 is_stmt 0 discriminator 3 view .LVU1531
 5370 0052 1D48     		ldr	r0, .L544+24
 5371              	.LVL717:
 566:../switch_sdk/core/yt/yt_port.c ****     CMM_PARAM_CHK(NULL == YT_DISPATCH(unit), CMM_ERR_NOT_INIT);
 5372              		.loc 1 566 5 discriminator 3 view .LVU1532
 5373 0054 FFF7FEFF 		bl	osal_printf
 5374              	.LVL718:
 5375 0058 F5E7     		b	.L527
 5376              	.LVL719:
 5377              	.L538:
 566:../switch_sdk/core/yt/yt_port.c ****     CMM_PARAM_CHK(NULL == YT_DISPATCH(unit), CMM_ERR_NOT_INIT);
 5378              		.loc 1 566 5 discriminator 3 view .LVU1533
 5379              	.LBE104:
 567:../switch_sdk/core/yt/yt_port.c ****     CMM_PARAM_CHK((!(YT_DISPATCH(unit)->is_inited)), CMM_ERR_NOT_INIT);
 5380              		.loc 1 567 5 is_stmt 1 discriminator 1 view .LVU1534
 567:../switch_sdk/core/yt/yt_port.c ****     CMM_PARAM_CHK((!(YT_DISPATCH(unit)->is_inited)), CMM_ERR_NOT_INIT);
 5381              		.loc 1 567 5 discriminator 1 view .LVU1535
 5382 005a 184B     		ldr	r3, .L544+12
 5383 005c 1B78     		ldrb	r3, [r3]	@ zero_extendqisi2
 5384 005e 012B     		cmp	r3, #1
 5385 0060 01D8     		bhi	.L541
 5386              	.LVL720:
 5387              	.L530:
 567:../switch_sdk/core/yt/yt_port.c ****     CMM_PARAM_CHK((!(YT_DISPATCH(unit)->is_inited)), CMM_ERR_NOT_INIT);
 5388              		.loc 1 567 5 discriminator 5 view .LVU1536
 567:../switch_sdk/core/yt/yt_port.c ****     CMM_PARAM_CHK((!(YT_DISPATCH(unit)->is_inited)), CMM_ERR_NOT_INIT);
 5389              		.loc 1 567 5 discriminator 5 view .LVU1537
 567:../switch_sdk/core/yt/yt_port.c ****     CMM_PARAM_CHK((!(YT_DISPATCH(unit)->is_inited)), CMM_ERR_NOT_INIT);
 5390              		.loc 1 567 5 discriminator 5 view .LVU1538
 5391 0062 0420     		movs	r0, #4
 5392 0064 E9E7     		b	.L525
 5393              	.LVL721:
 5394              	.L541:
 567:../switch_sdk/core/yt/yt_port.c ****     CMM_PARAM_CHK((!(YT_DISPATCH(unit)->is_inited)), CMM_ERR_NOT_INIT);
 5395              		.loc 1 567 5 discriminator 3 view .LVU1539
 5396              	.LBB105:
 567:../switch_sdk/core/yt/yt_port.c ****     CMM_PARAM_CHK((!(YT_DISPATCH(unit)->is_inited)), CMM_ERR_NOT_INIT);
 5397              		.loc 1 567 5 discriminator 3 view .LVU1540
 5398 0066 164B     		ldr	r3, .L544+16
 5399 0068 1A69     		ldr	r2, [r3, #16]
 5400 006a 164B     		ldr	r3, .L544+20
 5401 006c 9968     		ldr	r1, [r3, #8]
 5402              	.LVL722:
 567:../switch_sdk/core/yt/yt_port.c ****     CMM_PARAM_CHK((!(YT_DISPATCH(unit)->is_inited)), CMM_ERR_NOT_INIT);
 5403              		.loc 1 567 5 is_stmt 0 discriminator 3 view .LVU1541
 5404 006e 1648     		ldr	r0, .L544+24
 5405              	.LVL723:
 567:../switch_sdk/core/yt/yt_port.c ****     CMM_PARAM_CHK((!(YT_DISPATCH(unit)->is_inited)), CMM_ERR_NOT_INIT);
 5406              		.loc 1 567 5 discriminator 3 view .LVU1542
 5407 0070 FFF7FEFF 		bl	osal_printf
 5408              	.LVL724:
 5409 0074 F5E7     		b	.L530
 5410              	.LVL725:
 5411              	.L539:
 567:../switch_sdk/core/yt/yt_port.c ****     CMM_PARAM_CHK((!(YT_DISPATCH(unit)->is_inited)), CMM_ERR_NOT_INIT);
 5412              		.loc 1 567 5 discriminator 3 view .LVU1543
 5413              	.LBE105:
 568:../switch_sdk/core/yt/yt_port.c ****     CMM_PARAM_CHK((!(CMM_PORT_VALID(unit, port))), CMM_ERR_PORT);
 5414              		.loc 1 568 5 is_stmt 1 discriminator 1 view .LVU1544
 568:../switch_sdk/core/yt/yt_port.c ****     CMM_PARAM_CHK((!(CMM_PORT_VALID(unit, port))), CMM_ERR_PORT);
 5415              		.loc 1 568 5 discriminator 1 view .LVU1545
 5416 0076 114B     		ldr	r3, .L544+12
 5417 0078 1B78     		ldrb	r3, [r3]	@ zero_extendqisi2
 5418 007a 012B     		cmp	r3, #1
 5419 007c 01D8     		bhi	.L542
 5420              	.LVL726:
 5421              	.L532:
 568:../switch_sdk/core/yt/yt_port.c ****     CMM_PARAM_CHK((!(CMM_PORT_VALID(unit, port))), CMM_ERR_PORT);
 5422              		.loc 1 568 5 discriminator 5 view .LVU1546
 568:../switch_sdk/core/yt/yt_port.c ****     CMM_PARAM_CHK((!(CMM_PORT_VALID(unit, port))), CMM_ERR_PORT);
 5423              		.loc 1 568 5 discriminator 5 view .LVU1547
 568:../switch_sdk/core/yt/yt_port.c ****     CMM_PARAM_CHK((!(CMM_PORT_VALID(unit, port))), CMM_ERR_PORT);
 5424              		.loc 1 568 5 discriminator 5 view .LVU1548
 5425 007e 0420     		movs	r0, #4
 5426 0080 DBE7     		b	.L525
 5427              	.LVL727:
 5428              	.L542:
 568:../switch_sdk/core/yt/yt_port.c ****     CMM_PARAM_CHK((!(CMM_PORT_VALID(unit, port))), CMM_ERR_PORT);
 5429              		.loc 1 568 5 discriminator 3 view .LVU1549
 5430              	.LBB106:
 568:../switch_sdk/core/yt/yt_port.c ****     CMM_PARAM_CHK((!(CMM_PORT_VALID(unit, port))), CMM_ERR_PORT);
 5431              		.loc 1 568 5 discriminator 3 view .LVU1550
 5432 0082 0F4B     		ldr	r3, .L544+16
 5433 0084 1A69     		ldr	r2, [r3, #16]
 5434 0086 0F4B     		ldr	r3, .L544+20
 5435 0088 9968     		ldr	r1, [r3, #8]
 5436              	.LVL728:
 568:../switch_sdk/core/yt/yt_port.c ****     CMM_PARAM_CHK((!(CMM_PORT_VALID(unit, port))), CMM_ERR_PORT);
 5437              		.loc 1 568 5 is_stmt 0 discriminator 3 view .LVU1551
 5438 008a 0F48     		ldr	r0, .L544+24
 5439              	.LVL729:
 568:../switch_sdk/core/yt/yt_port.c ****     CMM_PARAM_CHK((!(CMM_PORT_VALID(unit, port))), CMM_ERR_PORT);
 5440              		.loc 1 568 5 discriminator 3 view .LVU1552
 5441 008c FFF7FEFF 		bl	osal_printf
 5442              	.LVL730:
 5443 0090 F5E7     		b	.L532
 5444              	.LVL731:
 5445              	.L533:
 568:../switch_sdk/core/yt/yt_port.c ****     CMM_PARAM_CHK((!(CMM_PORT_VALID(unit, port))), CMM_ERR_PORT);
 5446              		.loc 1 568 5 discriminator 3 view .LVU1553
 5447              	.LBE106:
 569:../switch_sdk/core/yt/yt_port.c **** 
 5448              		.loc 1 569 5 is_stmt 1 discriminator 3 view .LVU1554
 569:../switch_sdk/core/yt/yt_port.c **** 
 5449              		.loc 1 569 5 discriminator 3 view .LVU1555
 5450 0092 0A4B     		ldr	r3, .L544+12
 5451 0094 1B78     		ldrb	r3, [r3]	@ zero_extendqisi2
 5452 0096 012B     		cmp	r3, #1
 5453 0098 01D8     		bhi	.L543
 5454              	.LVL732:
 5455              	.L535:
 569:../switch_sdk/core/yt/yt_port.c **** 
 5456              		.loc 1 569 5 discriminator 7 view .LVU1556
 569:../switch_sdk/core/yt/yt_port.c **** 
 5457              		.loc 1 569 5 discriminator 7 view .LVU1557
 569:../switch_sdk/core/yt/yt_port.c **** 
 5458              		.loc 1 569 5 discriminator 7 view .LVU1558
 5459 009a 0E20     		movs	r0, #14
 5460 009c CDE7     		b	.L525
 5461              	.LVL733:
 5462              	.L543:
 569:../switch_sdk/core/yt/yt_port.c **** 
 5463              		.loc 1 569 5 discriminator 5 view .LVU1559
 5464              	.LBB107:
 569:../switch_sdk/core/yt/yt_port.c **** 
 5465              		.loc 1 569 5 discriminator 5 view .LVU1560
 5466 009e 084B     		ldr	r3, .L544+16
 5467 00a0 9A6B     		ldr	r2, [r3, #56]
 5468 00a2 084B     		ldr	r3, .L544+20
 5469 00a4 9968     		ldr	r1, [r3, #8]
 5470              	.LVL734:
 569:../switch_sdk/core/yt/yt_port.c **** 
 5471              		.loc 1 569 5 is_stmt 0 discriminator 5 view .LVU1561
 5472 00a6 0848     		ldr	r0, .L544+24
 5473              	.LVL735:
 569:../switch_sdk/core/yt/yt_port.c **** 
 5474              		.loc 1 569 5 discriminator 5 view .LVU1562
 5475 00a8 FFF7FEFF 		bl	osal_printf
 5476              	.LVL736:
 5477 00ac F5E7     		b	.L535
 5478              	.L545:
 5479 00ae 00BF     		.align	2
 5480              	.L544:
 5481 00b0 00000000 		.word	gpfal_dispatch
 5482 00b4 00000000 		.word	gcal_inited
 5483 00b8 00000000 		.word	gpSwitchUnit
 5484 00bc 00000000 		.word	yt_debug_level
 5485 00c0 00000000 		.word	_yt_errmsg
 5486 00c4 00000000 		.word	_yt_prompt_msg
 5487 00c8 00000000 		.word	.LC0
 5488              	.LBE107:
 5489              		.cfi_endproc
 5490              	.LFE26:
 5492              		.section	.text.yt_port_phyAutoNeg_ability_get,"ax",%progbits
 5493              		.align	1
 5494              		.global	yt_port_phyAutoNeg_ability_get
 5495              		.syntax unified
 5496              		.thumb
 5497              		.thumb_func
 5499              	yt_port_phyAutoNeg_ability_get:
 5500              	.LVL737:
 5501              	.LFB27:
 573:../switch_sdk/core/yt/yt_port.c **** 
 574:../switch_sdk/core/yt/yt_port.c **** /**
 575:../switch_sdk/core/yt/yt_port.c ****  * @internal      yt_port_phyAutoNeg_ability_get
 576:../switch_sdk/core/yt/yt_port.c ****  * @endinternal
 577:../switch_sdk/core/yt/yt_port.c ****  *
 578:../switch_sdk/core/yt/yt_port.c ****  * @brief         Description
 579:../switch_sdk/core/yt/yt_port.c ****  * @note          APPLICABLE DEVICES  -Tiger
 580:../switch_sdk/core/yt/yt_port.c ****  * @param[in]     unit                -unit id
 581:../switch_sdk/core/yt/yt_port.c ****  * @param[in]     port                -port num
 582:../switch_sdk/core/yt/yt_port.c ****  * @param[out]    pAbility            -x
 583:../switch_sdk/core/yt/yt_port.c ****  * @retval        CMM_ERR_OK          -on success
 584:../switch_sdk/core/yt/yt_port.c ****  * @retval        CMM_ERR_FAIL        -on fail
 585:../switch_sdk/core/yt/yt_port.c ****  */
 586:../switch_sdk/core/yt/yt_port.c **** yt_ret_t yt_port_phyAutoNeg_ability_get(yt_unit_t unit, yt_port_t port, yt_port_an_ability_t *pAbil
 587:../switch_sdk/core/yt/yt_port.c **** {
 5502              		.loc 1 587 1 is_stmt 1 view -0
 5503              		.cfi_startproc
 5504              		@ args = 0, pretend = 0, frame = 0
 5505              		@ frame_needed = 0, uses_anonymous_args = 0
 5506              		.loc 1 587 1 is_stmt 0 view .LVU1564
 5507 0000 08B5     		push	{r3, lr}
 5508              		.cfi_def_cfa_offset 8
 5509              		.cfi_offset 3, -8
 5510              		.cfi_offset 14, -4
 588:../switch_sdk/core/yt/yt_port.c ****     CMM_PARAM_CHK((YT_UNIT_NUM <= unit), CMM_ERR_INPUT);
 5511              		.loc 1 588 5 is_stmt 1 view .LVU1565
 5512              		.loc 1 588 5 view .LVU1566
 5513 0002 C0B9     		cbnz	r0, .L560
 5514 0004 8446     		mov	ip, r0
 5515              		.loc 1 588 5 discriminator 2 view .LVU1567
 589:../switch_sdk/core/yt/yt_port.c ****     CMM_PARAM_CHK(NULL == YT_DISPATCH(unit), CMM_ERR_NOT_INIT);
 5516              		.loc 1 589 5 discriminator 2 view .LVU1568
 5517              		.loc 1 589 5 discriminator 2 view .LVU1569
 5518 0006 2F4B     		ldr	r3, .L569
 5519 0008 53F82030 		ldr	r3, [r3, r0, lsl #2]
 5520 000c 0BB3     		cbz	r3, .L561
 5521              		.loc 1 589 5 discriminator 2 view .LVU1570
 590:../switch_sdk/core/yt/yt_port.c ****     CMM_PARAM_CHK((!(YT_DISPATCH(unit)->is_inited)), CMM_ERR_NOT_INIT);
 5522              		.loc 1 590 5 discriminator 2 view .LVU1571
 5523              		.loc 1 590 5 discriminator 2 view .LVU1572
 5524 000e 1878     		ldrb	r0, [r3]	@ zero_extendqisi2
 5525              	.LVL738:
 5526              		.loc 1 590 5 is_stmt 0 discriminator 2 view .LVU1573
 5527 0010 0028     		cmp	r0, #0
 5528 0012 2CD0     		beq	.L562
 5529              		.loc 1 590 5 is_stmt 1 discriminator 2 view .LVU1574
 591:../switch_sdk/core/yt/yt_port.c ****     CMM_PARAM_CHK((!(CMM_PORT_VALID(unit, port))), CMM_ERR_PORT);
 5530              		.loc 1 591 5 discriminator 2 view .LVU1575
 5531              		.loc 1 591 5 discriminator 2 view .LVU1576
 5532 0014 2C48     		ldr	r0, .L569+4
 5533 0016 0078     		ldrb	r0, [r0]	@ zero_extendqisi2
 5534 0018 0028     		cmp	r0, #0
 5535 001a 36D0     		beq	.L554
 5536 001c 2B48     		ldr	r0, .L569+8
 5537 001e 50F82C00 		ldr	r0, [r0, ip, lsl #2]
 5538 0022 007D     		ldrb	r0, [r0, #20]	@ zero_extendqisi2
 5539 0024 8842     		cmp	r0, r1
 5540 0026 30D9     		bls	.L554
 5541              		.loc 1 591 5 discriminator 4 view .LVU1577
 592:../switch_sdk/core/yt/yt_port.c ****     CMM_PARAM_CHK((NULL == pAbility), CMM_ERR_NULL_POINT);
 5542              		.loc 1 592 5 discriminator 4 view .LVU1578
 5543              		.loc 1 592 5 discriminator 4 view .LVU1579
 5544 0028 002A     		cmp	r2, #0
 5545 002a 3CD0     		beq	.L563
 5546              		.loc 1 592 5 discriminator 2 view .LVU1580
 593:../switch_sdk/core/yt/yt_port.c **** 
 594:../switch_sdk/core/yt/yt_port.c ****     return YT_DISPATCH(unit)->port_phyAutoNeg_ability_get(unit, port, pAbility);
 5547              		.loc 1 594 5 discriminator 2 view .LVU1581
 5548              		.loc 1 594 29 is_stmt 0 discriminator 2 view .LVU1582
 5549 002c D3F8B835 		ldr	r3, [r3, #1464]
 5550              		.loc 1 594 12 discriminator 2 view .LVU1583
 5551 0030 6046     		mov	r0, ip
 5552 0032 9847     		blx	r3
 5553              	.LVL739:
 5554              	.L546:
 595:../switch_sdk/core/yt/yt_port.c **** }
 5555              		.loc 1 595 1 view .LVU1584
 5556 0034 08BD     		pop	{r3, pc}
 5557              	.LVL740:
 5558              	.L560:
 588:../switch_sdk/core/yt/yt_port.c ****     CMM_PARAM_CHK(NULL == YT_DISPATCH(unit), CMM_ERR_NOT_INIT);
 5559              		.loc 1 588 5 is_stmt 1 discriminator 1 view .LVU1585
 588:../switch_sdk/core/yt/yt_port.c ****     CMM_PARAM_CHK(NULL == YT_DISPATCH(unit), CMM_ERR_NOT_INIT);
 5560              		.loc 1 588 5 discriminator 1 view .LVU1586
 5561 0036 264B     		ldr	r3, .L569+12
 5562 0038 1B78     		ldrb	r3, [r3]	@ zero_extendqisi2
 5563 003a 012B     		cmp	r3, #1
 5564 003c 01D8     		bhi	.L564
 5565              	.LVL741:
 5566              	.L548:
 588:../switch_sdk/core/yt/yt_port.c ****     CMM_PARAM_CHK(NULL == YT_DISPATCH(unit), CMM_ERR_NOT_INIT);
 5567              		.loc 1 588 5 discriminator 5 view .LVU1587
 588:../switch_sdk/core/yt/yt_port.c ****     CMM_PARAM_CHK(NULL == YT_DISPATCH(unit), CMM_ERR_NOT_INIT);
 5568              		.loc 1 588 5 discriminator 5 view .LVU1588
 588:../switch_sdk/core/yt/yt_port.c ****     CMM_PARAM_CHK(NULL == YT_DISPATCH(unit), CMM_ERR_NOT_INIT);
 5569              		.loc 1 588 5 discriminator 5 view .LVU1589
 5570 003e 0520     		movs	r0, #5
 5571 0040 F8E7     		b	.L546
 5572              	.LVL742:
 5573              	.L564:
 588:../switch_sdk/core/yt/yt_port.c ****     CMM_PARAM_CHK(NULL == YT_DISPATCH(unit), CMM_ERR_NOT_INIT);
 5574              		.loc 1 588 5 discriminator 3 view .LVU1590
 5575              	.LBB108:
 588:../switch_sdk/core/yt/yt_port.c ****     CMM_PARAM_CHK(NULL == YT_DISPATCH(unit), CMM_ERR_NOT_INIT);
 5576              		.loc 1 588 5 discriminator 3 view .LVU1591
 5577 0042 244B     		ldr	r3, .L569+16
 5578 0044 5A69     		ldr	r2, [r3, #20]
 5579              	.LVL743:
 588:../switch_sdk/core/yt/yt_port.c ****     CMM_PARAM_CHK(NULL == YT_DISPATCH(unit), CMM_ERR_NOT_INIT);
 5580              		.loc 1 588 5 is_stmt 0 discriminator 3 view .LVU1592
 5581 0046 244B     		ldr	r3, .L569+20
 5582 0048 9968     		ldr	r1, [r3, #8]
 5583              	.LVL744:
 588:../switch_sdk/core/yt/yt_port.c ****     CMM_PARAM_CHK(NULL == YT_DISPATCH(unit), CMM_ERR_NOT_INIT);
 5584              		.loc 1 588 5 discriminator 3 view .LVU1593
 5585 004a 2448     		ldr	r0, .L569+24
 5586              	.LVL745:
 588:../switch_sdk/core/yt/yt_port.c ****     CMM_PARAM_CHK(NULL == YT_DISPATCH(unit), CMM_ERR_NOT_INIT);
 5587              		.loc 1 588 5 discriminator 3 view .LVU1594
 5588 004c FFF7FEFF 		bl	osal_printf
 5589              	.LVL746:
 5590 0050 F5E7     		b	.L548
 5591              	.LVL747:
 5592              	.L561:
 588:../switch_sdk/core/yt/yt_port.c ****     CMM_PARAM_CHK(NULL == YT_DISPATCH(unit), CMM_ERR_NOT_INIT);
 5593              		.loc 1 588 5 discriminator 3 view .LVU1595
 5594              	.LBE108:
 589:../switch_sdk/core/yt/yt_port.c ****     CMM_PARAM_CHK((!(YT_DISPATCH(unit)->is_inited)), CMM_ERR_NOT_INIT);
 5595              		.loc 1 589 5 is_stmt 1 discriminator 1 view .LVU1596
 589:../switch_sdk/core/yt/yt_port.c ****     CMM_PARAM_CHK((!(YT_DISPATCH(unit)->is_inited)), CMM_ERR_NOT_INIT);
 5596              		.loc 1 589 5 discriminator 1 view .LVU1597
 5597 0052 1F4B     		ldr	r3, .L569+12
 5598 0054 1B78     		ldrb	r3, [r3]	@ zero_extendqisi2
 5599 0056 012B     		cmp	r3, #1
 5600 0058 01D8     		bhi	.L565
 5601              	.LVL748:
 5602              	.L551:
 589:../switch_sdk/core/yt/yt_port.c ****     CMM_PARAM_CHK((!(YT_DISPATCH(unit)->is_inited)), CMM_ERR_NOT_INIT);
 5603              		.loc 1 589 5 discriminator 5 view .LVU1598
 589:../switch_sdk/core/yt/yt_port.c ****     CMM_PARAM_CHK((!(YT_DISPATCH(unit)->is_inited)), CMM_ERR_NOT_INIT);
 5604              		.loc 1 589 5 discriminator 5 view .LVU1599
 589:../switch_sdk/core/yt/yt_port.c ****     CMM_PARAM_CHK((!(YT_DISPATCH(unit)->is_inited)), CMM_ERR_NOT_INIT);
 5605              		.loc 1 589 5 discriminator 5 view .LVU1600
 5606 005a 0420     		movs	r0, #4
 5607 005c EAE7     		b	.L546
 5608              	.LVL749:
 5609              	.L565:
 589:../switch_sdk/core/yt/yt_port.c ****     CMM_PARAM_CHK((!(YT_DISPATCH(unit)->is_inited)), CMM_ERR_NOT_INIT);
 5610              		.loc 1 589 5 discriminator 3 view .LVU1601
 5611              	.LBB109:
 589:../switch_sdk/core/yt/yt_port.c ****     CMM_PARAM_CHK((!(YT_DISPATCH(unit)->is_inited)), CMM_ERR_NOT_INIT);
 5612              		.loc 1 589 5 discriminator 3 view .LVU1602
 5613 005e 1D4B     		ldr	r3, .L569+16
 5614 0060 1A69     		ldr	r2, [r3, #16]
 5615              	.LVL750:
 589:../switch_sdk/core/yt/yt_port.c ****     CMM_PARAM_CHK((!(YT_DISPATCH(unit)->is_inited)), CMM_ERR_NOT_INIT);
 5616              		.loc 1 589 5 is_stmt 0 discriminator 3 view .LVU1603
 5617 0062 1D4B     		ldr	r3, .L569+20
 5618 0064 9968     		ldr	r1, [r3, #8]
 5619              	.LVL751:
 589:../switch_sdk/core/yt/yt_port.c ****     CMM_PARAM_CHK((!(YT_DISPATCH(unit)->is_inited)), CMM_ERR_NOT_INIT);
 5620              		.loc 1 589 5 discriminator 3 view .LVU1604
 5621 0066 1D48     		ldr	r0, .L569+24
 5622              	.LVL752:
 589:../switch_sdk/core/yt/yt_port.c ****     CMM_PARAM_CHK((!(YT_DISPATCH(unit)->is_inited)), CMM_ERR_NOT_INIT);
 5623              		.loc 1 589 5 discriminator 3 view .LVU1605
 5624 0068 FFF7FEFF 		bl	osal_printf
 5625              	.LVL753:
 5626 006c F5E7     		b	.L551
 5627              	.LVL754:
 5628              	.L562:
 589:../switch_sdk/core/yt/yt_port.c ****     CMM_PARAM_CHK((!(YT_DISPATCH(unit)->is_inited)), CMM_ERR_NOT_INIT);
 5629              		.loc 1 589 5 discriminator 3 view .LVU1606
 5630              	.LBE109:
 590:../switch_sdk/core/yt/yt_port.c ****     CMM_PARAM_CHK((!(CMM_PORT_VALID(unit, port))), CMM_ERR_PORT);
 5631              		.loc 1 590 5 is_stmt 1 discriminator 1 view .LVU1607
 590:../switch_sdk/core/yt/yt_port.c ****     CMM_PARAM_CHK((!(CMM_PORT_VALID(unit, port))), CMM_ERR_PORT);
 5632              		.loc 1 590 5 discriminator 1 view .LVU1608
 5633 006e 184B     		ldr	r3, .L569+12
 5634 0070 1B78     		ldrb	r3, [r3]	@ zero_extendqisi2
 5635 0072 012B     		cmp	r3, #1
 5636 0074 01D8     		bhi	.L566
 5637              	.LVL755:
 5638              	.L553:
 590:../switch_sdk/core/yt/yt_port.c ****     CMM_PARAM_CHK((!(CMM_PORT_VALID(unit, port))), CMM_ERR_PORT);
 5639              		.loc 1 590 5 discriminator 5 view .LVU1609
 590:../switch_sdk/core/yt/yt_port.c ****     CMM_PARAM_CHK((!(CMM_PORT_VALID(unit, port))), CMM_ERR_PORT);
 5640              		.loc 1 590 5 discriminator 5 view .LVU1610
 590:../switch_sdk/core/yt/yt_port.c ****     CMM_PARAM_CHK((!(CMM_PORT_VALID(unit, port))), CMM_ERR_PORT);
 5641              		.loc 1 590 5 discriminator 5 view .LVU1611
 5642 0076 0420     		movs	r0, #4
 5643 0078 DCE7     		b	.L546
 5644              	.LVL756:
 5645              	.L566:
 590:../switch_sdk/core/yt/yt_port.c ****     CMM_PARAM_CHK((!(CMM_PORT_VALID(unit, port))), CMM_ERR_PORT);
 5646              		.loc 1 590 5 discriminator 3 view .LVU1612
 5647              	.LBB110:
 590:../switch_sdk/core/yt/yt_port.c ****     CMM_PARAM_CHK((!(CMM_PORT_VALID(unit, port))), CMM_ERR_PORT);
 5648              		.loc 1 590 5 discriminator 3 view .LVU1613
 5649 007a 164B     		ldr	r3, .L569+16
 5650 007c 1A69     		ldr	r2, [r3, #16]
 5651              	.LVL757:
 590:../switch_sdk/core/yt/yt_port.c ****     CMM_PARAM_CHK((!(CMM_PORT_VALID(unit, port))), CMM_ERR_PORT);
 5652              		.loc 1 590 5 is_stmt 0 discriminator 3 view .LVU1614
 5653 007e 164B     		ldr	r3, .L569+20
 5654 0080 9968     		ldr	r1, [r3, #8]
 5655              	.LVL758:
 590:../switch_sdk/core/yt/yt_port.c ****     CMM_PARAM_CHK((!(CMM_PORT_VALID(unit, port))), CMM_ERR_PORT);
 5656              		.loc 1 590 5 discriminator 3 view .LVU1615
 5657 0082 1648     		ldr	r0, .L569+24
 5658 0084 FFF7FEFF 		bl	osal_printf
 5659              	.LVL759:
 5660 0088 F5E7     		b	.L553
 5661              	.LVL760:
 5662              	.L554:
 590:../switch_sdk/core/yt/yt_port.c ****     CMM_PARAM_CHK((!(CMM_PORT_VALID(unit, port))), CMM_ERR_PORT);
 5663              		.loc 1 590 5 discriminator 3 view .LVU1616
 5664              	.LBE110:
 591:../switch_sdk/core/yt/yt_port.c ****     CMM_PARAM_CHK((NULL == pAbility), CMM_ERR_NULL_POINT);
 5665              		.loc 1 591 5 is_stmt 1 discriminator 3 view .LVU1617
 591:../switch_sdk/core/yt/yt_port.c ****     CMM_PARAM_CHK((NULL == pAbility), CMM_ERR_NULL_POINT);
 5666              		.loc 1 591 5 discriminator 3 view .LVU1618
 5667 008a 114B     		ldr	r3, .L569+12
 5668 008c 1B78     		ldrb	r3, [r3]	@ zero_extendqisi2
 5669 008e 012B     		cmp	r3, #1
 5670 0090 01D8     		bhi	.L567
 5671              	.LVL761:
 5672              	.L556:
 591:../switch_sdk/core/yt/yt_port.c ****     CMM_PARAM_CHK((NULL == pAbility), CMM_ERR_NULL_POINT);
 5673              		.loc 1 591 5 discriminator 7 view .LVU1619
 591:../switch_sdk/core/yt/yt_port.c ****     CMM_PARAM_CHK((NULL == pAbility), CMM_ERR_NULL_POINT);
 5674              		.loc 1 591 5 discriminator 7 view .LVU1620
 591:../switch_sdk/core/yt/yt_port.c ****     CMM_PARAM_CHK((NULL == pAbility), CMM_ERR_NULL_POINT);
 5675              		.loc 1 591 5 discriminator 7 view .LVU1621
 5676 0092 0E20     		movs	r0, #14
 5677 0094 CEE7     		b	.L546
 5678              	.LVL762:
 5679              	.L567:
 591:../switch_sdk/core/yt/yt_port.c ****     CMM_PARAM_CHK((NULL == pAbility), CMM_ERR_NULL_POINT);
 5680              		.loc 1 591 5 discriminator 5 view .LVU1622
 5681              	.LBB111:
 591:../switch_sdk/core/yt/yt_port.c ****     CMM_PARAM_CHK((NULL == pAbility), CMM_ERR_NULL_POINT);
 5682              		.loc 1 591 5 discriminator 5 view .LVU1623
 5683 0096 0F4B     		ldr	r3, .L569+16
 5684 0098 9A6B     		ldr	r2, [r3, #56]
 5685              	.LVL763:
 591:../switch_sdk/core/yt/yt_port.c ****     CMM_PARAM_CHK((NULL == pAbility), CMM_ERR_NULL_POINT);
 5686              		.loc 1 591 5 is_stmt 0 discriminator 5 view .LVU1624
 5687 009a 0F4B     		ldr	r3, .L569+20
 5688 009c 9968     		ldr	r1, [r3, #8]
 5689              	.LVL764:
 591:../switch_sdk/core/yt/yt_port.c ****     CMM_PARAM_CHK((NULL == pAbility), CMM_ERR_NULL_POINT);
 5690              		.loc 1 591 5 discriminator 5 view .LVU1625
 5691 009e 0F48     		ldr	r0, .L569+24
 5692 00a0 FFF7FEFF 		bl	osal_printf
 5693              	.LVL765:
 5694 00a4 F5E7     		b	.L556
 5695              	.LVL766:
 5696              	.L563:
 591:../switch_sdk/core/yt/yt_port.c ****     CMM_PARAM_CHK((NULL == pAbility), CMM_ERR_NULL_POINT);
 5697              		.loc 1 591 5 discriminator 5 view .LVU1626
 5698              	.LBE111:
 592:../switch_sdk/core/yt/yt_port.c **** 
 5699              		.loc 1 592 5 is_stmt 1 discriminator 1 view .LVU1627
 592:../switch_sdk/core/yt/yt_port.c **** 
 5700              		.loc 1 592 5 discriminator 1 view .LVU1628
 5701 00a6 0A4B     		ldr	r3, .L569+12
 5702 00a8 1B78     		ldrb	r3, [r3]	@ zero_extendqisi2
 5703 00aa 012B     		cmp	r3, #1
 5704 00ac 01D8     		bhi	.L568
 5705              	.LVL767:
 5706              	.L558:
 592:../switch_sdk/core/yt/yt_port.c **** 
 5707              		.loc 1 592 5 discriminator 5 view .LVU1629
 592:../switch_sdk/core/yt/yt_port.c **** 
 5708              		.loc 1 592 5 discriminator 5 view .LVU1630
 592:../switch_sdk/core/yt/yt_port.c **** 
 5709              		.loc 1 592 5 discriminator 5 view .LVU1631
 5710 00ae 0220     		movs	r0, #2
 5711 00b0 C0E7     		b	.L546
 5712              	.LVL768:
 5713              	.L568:
 592:../switch_sdk/core/yt/yt_port.c **** 
 5714              		.loc 1 592 5 discriminator 3 view .LVU1632
 5715              	.LBB112:
 592:../switch_sdk/core/yt/yt_port.c **** 
 5716              		.loc 1 592 5 discriminator 3 view .LVU1633
 5717 00b2 084B     		ldr	r3, .L569+16
 5718 00b4 9A68     		ldr	r2, [r3, #8]
 5719              	.LVL769:
 592:../switch_sdk/core/yt/yt_port.c **** 
 5720              		.loc 1 592 5 is_stmt 0 discriminator 3 view .LVU1634
 5721 00b6 084B     		ldr	r3, .L569+20
 5722 00b8 9968     		ldr	r1, [r3, #8]
 5723              	.LVL770:
 592:../switch_sdk/core/yt/yt_port.c **** 
 5724              		.loc 1 592 5 discriminator 3 view .LVU1635
 5725 00ba 0848     		ldr	r0, .L569+24
 5726 00bc FFF7FEFF 		bl	osal_printf
 5727              	.LVL771:
 5728 00c0 F5E7     		b	.L558
 5729              	.L570:
 5730 00c2 00BF     		.align	2
 5731              	.L569:
 5732 00c4 00000000 		.word	gpfal_dispatch
 5733 00c8 00000000 		.word	gcal_inited
 5734 00cc 00000000 		.word	gpSwitchUnit
 5735 00d0 00000000 		.word	yt_debug_level
 5736 00d4 00000000 		.word	_yt_errmsg
 5737 00d8 00000000 		.word	_yt_prompt_msg
 5738 00dc 00000000 		.word	.LC0
 5739              	.LBE112:
 5740              		.cfi_endproc
 5741              	.LFE27:
 5743              		.section	.text.yt_port_phy_force_set,"ax",%progbits
 5744              		.align	1
 5745              		.global	yt_port_phy_force_set
 5746              		.syntax unified
 5747              		.thumb
 5748              		.thumb_func
 5750              	yt_port_phy_force_set:
 5751              	.LVL772:
 5752              	.LFB28:
 596:../switch_sdk/core/yt/yt_port.c **** 
 597:../switch_sdk/core/yt/yt_port.c **** /**
 598:../switch_sdk/core/yt/yt_port.c ****  * @internal      yt_port_phy_force_set
 599:../switch_sdk/core/yt/yt_port.c ****  * @endinternal
 600:../switch_sdk/core/yt/yt_port.c ****  *
 601:../switch_sdk/core/yt/yt_port.c ****  * @brief         Description
 602:../switch_sdk/core/yt/yt_port.c ****  * @note          APPLICABLE DEVICES  -Tiger
 603:../switch_sdk/core/yt/yt_port.c ****  * @param[in]     unit                -unit id
 604:../switch_sdk/core/yt/yt_port.c ****  * @param[in]     port                -port num
 605:../switch_sdk/core/yt/yt_port.c ****  * @param[in]     speed_dup           -x
 606:../switch_sdk/core/yt/yt_port.c ****  * @retval        CMM_ERR_OK          -on success
 607:../switch_sdk/core/yt/yt_port.c ****  * @retval        CMM_ERR_FAIL        -on fail
 608:../switch_sdk/core/yt/yt_port.c ****  */
 609:../switch_sdk/core/yt/yt_port.c **** yt_ret_t yt_port_phy_force_set(yt_unit_t unit, yt_port_t port, yt_port_speed_duplex_t speed_dup)
 610:../switch_sdk/core/yt/yt_port.c **** {
 5753              		.loc 1 610 1 is_stmt 1 view -0
 5754              		.cfi_startproc
 5755              		@ args = 0, pretend = 0, frame = 0
 5756              		@ frame_needed = 0, uses_anonymous_args = 0
 5757              		.loc 1 610 1 is_stmt 0 view .LVU1637
 5758 0000 08B5     		push	{r3, lr}
 5759              		.cfi_def_cfa_offset 8
 5760              		.cfi_offset 3, -8
 5761              		.cfi_offset 14, -4
 611:../switch_sdk/core/yt/yt_port.c ****     CMM_PARAM_CHK((YT_UNIT_NUM <= unit), CMM_ERR_INPUT);
 5762              		.loc 1 611 5 is_stmt 1 view .LVU1638
 5763              		.loc 1 611 5 view .LVU1639
 5764 0002 C0B9     		cbnz	r0, .L585
 5765 0004 8446     		mov	ip, r0
 5766              		.loc 1 611 5 discriminator 2 view .LVU1640
 612:../switch_sdk/core/yt/yt_port.c ****     CMM_PARAM_CHK(NULL == YT_DISPATCH(unit), CMM_ERR_NOT_INIT);
 5767              		.loc 1 612 5 discriminator 2 view .LVU1641
 5768              		.loc 1 612 5 discriminator 2 view .LVU1642
 5769 0006 2F4B     		ldr	r3, .L594
 5770 0008 53F82030 		ldr	r3, [r3, r0, lsl #2]
 5771 000c 0BB3     		cbz	r3, .L586
 5772              		.loc 1 612 5 discriminator 2 view .LVU1643
 613:../switch_sdk/core/yt/yt_port.c ****     CMM_PARAM_CHK((!(YT_DISPATCH(unit)->is_inited)), CMM_ERR_NOT_INIT);
 5773              		.loc 1 613 5 discriminator 2 view .LVU1644
 5774              		.loc 1 613 5 discriminator 2 view .LVU1645
 5775 000e 1878     		ldrb	r0, [r3]	@ zero_extendqisi2
 5776              	.LVL773:
 5777              		.loc 1 613 5 is_stmt 0 discriminator 2 view .LVU1646
 5778 0010 0028     		cmp	r0, #0
 5779 0012 2CD0     		beq	.L587
 5780              		.loc 1 613 5 is_stmt 1 discriminator 2 view .LVU1647
 614:../switch_sdk/core/yt/yt_port.c ****     CMM_PARAM_CHK((!(CMM_PORT_VALID(unit, port))), CMM_ERR_PORT);
 5781              		.loc 1 614 5 discriminator 2 view .LVU1648
 5782              		.loc 1 614 5 discriminator 2 view .LVU1649
 5783 0014 2C48     		ldr	r0, .L594+4
 5784 0016 0078     		ldrb	r0, [r0]	@ zero_extendqisi2
 5785 0018 0028     		cmp	r0, #0
 5786 001a 36D0     		beq	.L579
 5787 001c 2B48     		ldr	r0, .L594+8
 5788 001e 50F82C00 		ldr	r0, [r0, ip, lsl #2]
 5789 0022 007D     		ldrb	r0, [r0, #20]	@ zero_extendqisi2
 5790 0024 8842     		cmp	r0, r1
 5791 0026 30D9     		bls	.L579
 5792              		.loc 1 614 5 discriminator 4 view .LVU1650
 615:../switch_sdk/core/yt/yt_port.c ****     CMM_PARAM_CHK((PORT_SPEED_DUP_1000FULL <= speed_dup || PORT_SPEED_DUP_10HALF > speed_dup), CMM_
 5793              		.loc 1 615 5 discriminator 4 view .LVU1651
 5794              		.loc 1 615 5 discriminator 4 view .LVU1652
 5795 0028 032A     		cmp	r2, #3
 5796 002a 3CD8     		bhi	.L588
 5797              		.loc 1 615 5 discriminator 2 view .LVU1653
 616:../switch_sdk/core/yt/yt_port.c **** 
 617:../switch_sdk/core/yt/yt_port.c ****     return YT_DISPATCH(unit)->port_phy_force_set(unit, port, speed_dup);
 5798              		.loc 1 617 5 discriminator 2 view .LVU1654
 5799              		.loc 1 617 29 is_stmt 0 discriminator 2 view .LVU1655
 5800 002c D3F8BC35 		ldr	r3, [r3, #1468]
 5801              		.loc 1 617 12 discriminator 2 view .LVU1656
 5802 0030 6046     		mov	r0, ip
 5803 0032 9847     		blx	r3
 5804              	.LVL774:
 5805              	.L571:
 618:../switch_sdk/core/yt/yt_port.c **** }
 5806              		.loc 1 618 1 view .LVU1657
 5807 0034 08BD     		pop	{r3, pc}
 5808              	.LVL775:
 5809              	.L585:
 611:../switch_sdk/core/yt/yt_port.c ****     CMM_PARAM_CHK(NULL == YT_DISPATCH(unit), CMM_ERR_NOT_INIT);
 5810              		.loc 1 611 5 is_stmt 1 discriminator 1 view .LVU1658
 611:../switch_sdk/core/yt/yt_port.c ****     CMM_PARAM_CHK(NULL == YT_DISPATCH(unit), CMM_ERR_NOT_INIT);
 5811              		.loc 1 611 5 discriminator 1 view .LVU1659
 5812 0036 264B     		ldr	r3, .L594+12
 5813 0038 1B78     		ldrb	r3, [r3]	@ zero_extendqisi2
 5814 003a 012B     		cmp	r3, #1
 5815 003c 01D8     		bhi	.L589
 5816              	.LVL776:
 5817              	.L573:
 611:../switch_sdk/core/yt/yt_port.c ****     CMM_PARAM_CHK(NULL == YT_DISPATCH(unit), CMM_ERR_NOT_INIT);
 5818              		.loc 1 611 5 discriminator 5 view .LVU1660
 611:../switch_sdk/core/yt/yt_port.c ****     CMM_PARAM_CHK(NULL == YT_DISPATCH(unit), CMM_ERR_NOT_INIT);
 5819              		.loc 1 611 5 discriminator 5 view .LVU1661
 611:../switch_sdk/core/yt/yt_port.c ****     CMM_PARAM_CHK(NULL == YT_DISPATCH(unit), CMM_ERR_NOT_INIT);
 5820              		.loc 1 611 5 discriminator 5 view .LVU1662
 5821 003e 0520     		movs	r0, #5
 5822 0040 F8E7     		b	.L571
 5823              	.LVL777:
 5824              	.L589:
 611:../switch_sdk/core/yt/yt_port.c ****     CMM_PARAM_CHK(NULL == YT_DISPATCH(unit), CMM_ERR_NOT_INIT);
 5825              		.loc 1 611 5 discriminator 3 view .LVU1663
 5826              	.LBB113:
 611:../switch_sdk/core/yt/yt_port.c ****     CMM_PARAM_CHK(NULL == YT_DISPATCH(unit), CMM_ERR_NOT_INIT);
 5827              		.loc 1 611 5 discriminator 3 view .LVU1664
 5828 0042 244B     		ldr	r3, .L594+16
 5829 0044 5A69     		ldr	r2, [r3, #20]
 5830              	.LVL778:
 611:../switch_sdk/core/yt/yt_port.c ****     CMM_PARAM_CHK(NULL == YT_DISPATCH(unit), CMM_ERR_NOT_INIT);
 5831              		.loc 1 611 5 is_stmt 0 discriminator 3 view .LVU1665
 5832 0046 244B     		ldr	r3, .L594+20
 5833 0048 9968     		ldr	r1, [r3, #8]
 5834              	.LVL779:
 611:../switch_sdk/core/yt/yt_port.c ****     CMM_PARAM_CHK(NULL == YT_DISPATCH(unit), CMM_ERR_NOT_INIT);
 5835              		.loc 1 611 5 discriminator 3 view .LVU1666
 5836 004a 2448     		ldr	r0, .L594+24
 5837              	.LVL780:
 611:../switch_sdk/core/yt/yt_port.c ****     CMM_PARAM_CHK(NULL == YT_DISPATCH(unit), CMM_ERR_NOT_INIT);
 5838              		.loc 1 611 5 discriminator 3 view .LVU1667
 5839 004c FFF7FEFF 		bl	osal_printf
 5840              	.LVL781:
 5841 0050 F5E7     		b	.L573
 5842              	.LVL782:
 5843              	.L586:
 611:../switch_sdk/core/yt/yt_port.c ****     CMM_PARAM_CHK(NULL == YT_DISPATCH(unit), CMM_ERR_NOT_INIT);
 5844              		.loc 1 611 5 discriminator 3 view .LVU1668
 5845              	.LBE113:
 612:../switch_sdk/core/yt/yt_port.c ****     CMM_PARAM_CHK((!(YT_DISPATCH(unit)->is_inited)), CMM_ERR_NOT_INIT);
 5846              		.loc 1 612 5 is_stmt 1 discriminator 1 view .LVU1669
 612:../switch_sdk/core/yt/yt_port.c ****     CMM_PARAM_CHK((!(YT_DISPATCH(unit)->is_inited)), CMM_ERR_NOT_INIT);
 5847              		.loc 1 612 5 discriminator 1 view .LVU1670
 5848 0052 1F4B     		ldr	r3, .L594+12
 5849 0054 1B78     		ldrb	r3, [r3]	@ zero_extendqisi2
 5850 0056 012B     		cmp	r3, #1
 5851 0058 01D8     		bhi	.L590
 5852              	.LVL783:
 5853              	.L576:
 612:../switch_sdk/core/yt/yt_port.c ****     CMM_PARAM_CHK((!(YT_DISPATCH(unit)->is_inited)), CMM_ERR_NOT_INIT);
 5854              		.loc 1 612 5 discriminator 5 view .LVU1671
 612:../switch_sdk/core/yt/yt_port.c ****     CMM_PARAM_CHK((!(YT_DISPATCH(unit)->is_inited)), CMM_ERR_NOT_INIT);
 5855              		.loc 1 612 5 discriminator 5 view .LVU1672
 612:../switch_sdk/core/yt/yt_port.c ****     CMM_PARAM_CHK((!(YT_DISPATCH(unit)->is_inited)), CMM_ERR_NOT_INIT);
 5856              		.loc 1 612 5 discriminator 5 view .LVU1673
 5857 005a 0420     		movs	r0, #4
 5858 005c EAE7     		b	.L571
 5859              	.LVL784:
 5860              	.L590:
 612:../switch_sdk/core/yt/yt_port.c ****     CMM_PARAM_CHK((!(YT_DISPATCH(unit)->is_inited)), CMM_ERR_NOT_INIT);
 5861              		.loc 1 612 5 discriminator 3 view .LVU1674
 5862              	.LBB114:
 612:../switch_sdk/core/yt/yt_port.c ****     CMM_PARAM_CHK((!(YT_DISPATCH(unit)->is_inited)), CMM_ERR_NOT_INIT);
 5863              		.loc 1 612 5 discriminator 3 view .LVU1675
 5864 005e 1D4B     		ldr	r3, .L594+16
 5865 0060 1A69     		ldr	r2, [r3, #16]
 5866              	.LVL785:
 612:../switch_sdk/core/yt/yt_port.c ****     CMM_PARAM_CHK((!(YT_DISPATCH(unit)->is_inited)), CMM_ERR_NOT_INIT);
 5867              		.loc 1 612 5 is_stmt 0 discriminator 3 view .LVU1676
 5868 0062 1D4B     		ldr	r3, .L594+20
 5869 0064 9968     		ldr	r1, [r3, #8]
 5870              	.LVL786:
 612:../switch_sdk/core/yt/yt_port.c ****     CMM_PARAM_CHK((!(YT_DISPATCH(unit)->is_inited)), CMM_ERR_NOT_INIT);
 5871              		.loc 1 612 5 discriminator 3 view .LVU1677
 5872 0066 1D48     		ldr	r0, .L594+24
 5873              	.LVL787:
 612:../switch_sdk/core/yt/yt_port.c ****     CMM_PARAM_CHK((!(YT_DISPATCH(unit)->is_inited)), CMM_ERR_NOT_INIT);
 5874              		.loc 1 612 5 discriminator 3 view .LVU1678
 5875 0068 FFF7FEFF 		bl	osal_printf
 5876              	.LVL788:
 5877 006c F5E7     		b	.L576
 5878              	.LVL789:
 5879              	.L587:
 612:../switch_sdk/core/yt/yt_port.c ****     CMM_PARAM_CHK((!(YT_DISPATCH(unit)->is_inited)), CMM_ERR_NOT_INIT);
 5880              		.loc 1 612 5 discriminator 3 view .LVU1679
 5881              	.LBE114:
 613:../switch_sdk/core/yt/yt_port.c ****     CMM_PARAM_CHK((!(CMM_PORT_VALID(unit, port))), CMM_ERR_PORT);
 5882              		.loc 1 613 5 is_stmt 1 discriminator 1 view .LVU1680
 613:../switch_sdk/core/yt/yt_port.c ****     CMM_PARAM_CHK((!(CMM_PORT_VALID(unit, port))), CMM_ERR_PORT);
 5883              		.loc 1 613 5 discriminator 1 view .LVU1681
 5884 006e 184B     		ldr	r3, .L594+12
 5885 0070 1B78     		ldrb	r3, [r3]	@ zero_extendqisi2
 5886 0072 012B     		cmp	r3, #1
 5887 0074 01D8     		bhi	.L591
 5888              	.LVL790:
 5889              	.L578:
 613:../switch_sdk/core/yt/yt_port.c ****     CMM_PARAM_CHK((!(CMM_PORT_VALID(unit, port))), CMM_ERR_PORT);
 5890              		.loc 1 613 5 discriminator 5 view .LVU1682
 613:../switch_sdk/core/yt/yt_port.c ****     CMM_PARAM_CHK((!(CMM_PORT_VALID(unit, port))), CMM_ERR_PORT);
 5891              		.loc 1 613 5 discriminator 5 view .LVU1683
 613:../switch_sdk/core/yt/yt_port.c ****     CMM_PARAM_CHK((!(CMM_PORT_VALID(unit, port))), CMM_ERR_PORT);
 5892              		.loc 1 613 5 discriminator 5 view .LVU1684
 5893 0076 0420     		movs	r0, #4
 5894 0078 DCE7     		b	.L571
 5895              	.LVL791:
 5896              	.L591:
 613:../switch_sdk/core/yt/yt_port.c ****     CMM_PARAM_CHK((!(CMM_PORT_VALID(unit, port))), CMM_ERR_PORT);
 5897              		.loc 1 613 5 discriminator 3 view .LVU1685
 5898              	.LBB115:
 613:../switch_sdk/core/yt/yt_port.c ****     CMM_PARAM_CHK((!(CMM_PORT_VALID(unit, port))), CMM_ERR_PORT);
 5899              		.loc 1 613 5 discriminator 3 view .LVU1686
 5900 007a 164B     		ldr	r3, .L594+16
 5901 007c 1A69     		ldr	r2, [r3, #16]
 5902              	.LVL792:
 613:../switch_sdk/core/yt/yt_port.c ****     CMM_PARAM_CHK((!(CMM_PORT_VALID(unit, port))), CMM_ERR_PORT);
 5903              		.loc 1 613 5 is_stmt 0 discriminator 3 view .LVU1687
 5904 007e 164B     		ldr	r3, .L594+20
 5905 0080 9968     		ldr	r1, [r3, #8]
 5906              	.LVL793:
 613:../switch_sdk/core/yt/yt_port.c ****     CMM_PARAM_CHK((!(CMM_PORT_VALID(unit, port))), CMM_ERR_PORT);
 5907              		.loc 1 613 5 discriminator 3 view .LVU1688
 5908 0082 1648     		ldr	r0, .L594+24
 5909 0084 FFF7FEFF 		bl	osal_printf
 5910              	.LVL794:
 5911 0088 F5E7     		b	.L578
 5912              	.LVL795:
 5913              	.L579:
 613:../switch_sdk/core/yt/yt_port.c ****     CMM_PARAM_CHK((!(CMM_PORT_VALID(unit, port))), CMM_ERR_PORT);
 5914              		.loc 1 613 5 discriminator 3 view .LVU1689
 5915              	.LBE115:
 614:../switch_sdk/core/yt/yt_port.c ****     CMM_PARAM_CHK((PORT_SPEED_DUP_1000FULL <= speed_dup || PORT_SPEED_DUP_10HALF > speed_dup), CMM_
 5916              		.loc 1 614 5 is_stmt 1 discriminator 3 view .LVU1690
 614:../switch_sdk/core/yt/yt_port.c ****     CMM_PARAM_CHK((PORT_SPEED_DUP_1000FULL <= speed_dup || PORT_SPEED_DUP_10HALF > speed_dup), CMM_
 5917              		.loc 1 614 5 discriminator 3 view .LVU1691
 5918 008a 114B     		ldr	r3, .L594+12
 5919 008c 1B78     		ldrb	r3, [r3]	@ zero_extendqisi2
 5920 008e 012B     		cmp	r3, #1
 5921 0090 01D8     		bhi	.L592
 5922              	.LVL796:
 5923              	.L581:
 614:../switch_sdk/core/yt/yt_port.c ****     CMM_PARAM_CHK((PORT_SPEED_DUP_1000FULL <= speed_dup || PORT_SPEED_DUP_10HALF > speed_dup), CMM_
 5924              		.loc 1 614 5 discriminator 7 view .LVU1692
 614:../switch_sdk/core/yt/yt_port.c ****     CMM_PARAM_CHK((PORT_SPEED_DUP_1000FULL <= speed_dup || PORT_SPEED_DUP_10HALF > speed_dup), CMM_
 5925              		.loc 1 614 5 discriminator 7 view .LVU1693
 614:../switch_sdk/core/yt/yt_port.c ****     CMM_PARAM_CHK((PORT_SPEED_DUP_1000FULL <= speed_dup || PORT_SPEED_DUP_10HALF > speed_dup), CMM_
 5926              		.loc 1 614 5 discriminator 7 view .LVU1694
 5927 0092 0E20     		movs	r0, #14
 5928 0094 CEE7     		b	.L571
 5929              	.LVL797:
 5930              	.L592:
 614:../switch_sdk/core/yt/yt_port.c ****     CMM_PARAM_CHK((PORT_SPEED_DUP_1000FULL <= speed_dup || PORT_SPEED_DUP_10HALF > speed_dup), CMM_
 5931              		.loc 1 614 5 discriminator 5 view .LVU1695
 5932              	.LBB116:
 614:../switch_sdk/core/yt/yt_port.c ****     CMM_PARAM_CHK((PORT_SPEED_DUP_1000FULL <= speed_dup || PORT_SPEED_DUP_10HALF > speed_dup), CMM_
 5933              		.loc 1 614 5 discriminator 5 view .LVU1696
 5934 0096 0F4B     		ldr	r3, .L594+16
 5935 0098 9A6B     		ldr	r2, [r3, #56]
 5936              	.LVL798:
 614:../switch_sdk/core/yt/yt_port.c ****     CMM_PARAM_CHK((PORT_SPEED_DUP_1000FULL <= speed_dup || PORT_SPEED_DUP_10HALF > speed_dup), CMM_
 5937              		.loc 1 614 5 is_stmt 0 discriminator 5 view .LVU1697
 5938 009a 0F4B     		ldr	r3, .L594+20
 5939 009c 9968     		ldr	r1, [r3, #8]
 5940              	.LVL799:
 614:../switch_sdk/core/yt/yt_port.c ****     CMM_PARAM_CHK((PORT_SPEED_DUP_1000FULL <= speed_dup || PORT_SPEED_DUP_10HALF > speed_dup), CMM_
 5941              		.loc 1 614 5 discriminator 5 view .LVU1698
 5942 009e 0F48     		ldr	r0, .L594+24
 5943 00a0 FFF7FEFF 		bl	osal_printf
 5944              	.LVL800:
 5945 00a4 F5E7     		b	.L581
 5946              	.LVL801:
 5947              	.L588:
 614:../switch_sdk/core/yt/yt_port.c ****     CMM_PARAM_CHK((PORT_SPEED_DUP_1000FULL <= speed_dup || PORT_SPEED_DUP_10HALF > speed_dup), CMM_
 5948              		.loc 1 614 5 discriminator 5 view .LVU1699
 5949              	.LBE116:
 615:../switch_sdk/core/yt/yt_port.c **** 
 5950              		.loc 1 615 5 is_stmt 1 discriminator 1 view .LVU1700
 615:../switch_sdk/core/yt/yt_port.c **** 
 5951              		.loc 1 615 5 discriminator 1 view .LVU1701
 5952 00a6 0A4B     		ldr	r3, .L594+12
 5953 00a8 1B78     		ldrb	r3, [r3]	@ zero_extendqisi2
 5954 00aa 012B     		cmp	r3, #1
 5955 00ac 01D8     		bhi	.L593
 5956              	.LVL802:
 5957              	.L583:
 615:../switch_sdk/core/yt/yt_port.c **** 
 5958              		.loc 1 615 5 discriminator 5 view .LVU1702
 615:../switch_sdk/core/yt/yt_port.c **** 
 5959              		.loc 1 615 5 discriminator 5 view .LVU1703
 615:../switch_sdk/core/yt/yt_port.c **** 
 5960              		.loc 1 615 5 discriminator 5 view .LVU1704
 5961 00ae 0520     		movs	r0, #5
 5962 00b0 C0E7     		b	.L571
 5963              	.LVL803:
 5964              	.L593:
 615:../switch_sdk/core/yt/yt_port.c **** 
 5965              		.loc 1 615 5 discriminator 3 view .LVU1705
 5966              	.LBB117:
 615:../switch_sdk/core/yt/yt_port.c **** 
 5967              		.loc 1 615 5 discriminator 3 view .LVU1706
 5968 00b2 084B     		ldr	r3, .L594+16
 5969 00b4 5A69     		ldr	r2, [r3, #20]
 5970              	.LVL804:
 615:../switch_sdk/core/yt/yt_port.c **** 
 5971              		.loc 1 615 5 is_stmt 0 discriminator 3 view .LVU1707
 5972 00b6 084B     		ldr	r3, .L594+20
 5973 00b8 9968     		ldr	r1, [r3, #8]
 5974              	.LVL805:
 615:../switch_sdk/core/yt/yt_port.c **** 
 5975              		.loc 1 615 5 discriminator 3 view .LVU1708
 5976 00ba 0848     		ldr	r0, .L594+24
 5977 00bc FFF7FEFF 		bl	osal_printf
 5978              	.LVL806:
 5979 00c0 F5E7     		b	.L583
 5980              	.L595:
 5981 00c2 00BF     		.align	2
 5982              	.L594:
 5983 00c4 00000000 		.word	gpfal_dispatch
 5984 00c8 00000000 		.word	gcal_inited
 5985 00cc 00000000 		.word	gpSwitchUnit
 5986 00d0 00000000 		.word	yt_debug_level
 5987 00d4 00000000 		.word	_yt_errmsg
 5988 00d8 00000000 		.word	_yt_prompt_msg
 5989 00dc 00000000 		.word	.LC0
 5990              	.LBE117:
 5991              		.cfi_endproc
 5992              	.LFE28:
 5994              		.section	.text.yt_port_phy_force_get,"ax",%progbits
 5995              		.align	1
 5996              		.global	yt_port_phy_force_get
 5997              		.syntax unified
 5998              		.thumb
 5999              		.thumb_func
 6001              	yt_port_phy_force_get:
 6002              	.LVL807:
 6003              	.LFB29:
 619:../switch_sdk/core/yt/yt_port.c **** 
 620:../switch_sdk/core/yt/yt_port.c **** /**
 621:../switch_sdk/core/yt/yt_port.c ****  * @internal      yt_port_phy_force_get
 622:../switch_sdk/core/yt/yt_port.c ****  * @endinternal
 623:../switch_sdk/core/yt/yt_port.c ****  *
 624:../switch_sdk/core/yt/yt_port.c ****  * @brief         Description
 625:../switch_sdk/core/yt/yt_port.c ****  * @note          APPLICABLE DEVICES  -Tiger
 626:../switch_sdk/core/yt/yt_port.c ****  * @param[in]     unit                -unit id
 627:../switch_sdk/core/yt/yt_port.c ****  * @param[in]     port                -port num
 628:../switch_sdk/core/yt/yt_port.c ****  * @param[out]    pSpeedDup           -x
 629:../switch_sdk/core/yt/yt_port.c ****  * @retval        CMM_ERR_OK          -on success
 630:../switch_sdk/core/yt/yt_port.c ****  * @retval        CMM_ERR_FAIL        -on fail
 631:../switch_sdk/core/yt/yt_port.c ****  */
 632:../switch_sdk/core/yt/yt_port.c **** yt_ret_t yt_port_phy_force_get(yt_unit_t unit, yt_port_t port, yt_port_speed_duplex_t *pSpeedDup)
 633:../switch_sdk/core/yt/yt_port.c **** {
 6004              		.loc 1 633 1 is_stmt 1 view -0
 6005              		.cfi_startproc
 6006              		@ args = 0, pretend = 0, frame = 0
 6007              		@ frame_needed = 0, uses_anonymous_args = 0
 6008              		.loc 1 633 1 is_stmt 0 view .LVU1710
 6009 0000 08B5     		push	{r3, lr}
 6010              		.cfi_def_cfa_offset 8
 6011              		.cfi_offset 3, -8
 6012              		.cfi_offset 14, -4
 634:../switch_sdk/core/yt/yt_port.c ****     CMM_PARAM_CHK((YT_UNIT_NUM <= unit), CMM_ERR_INPUT);
 6013              		.loc 1 634 5 is_stmt 1 view .LVU1711
 6014              		.loc 1 634 5 view .LVU1712
 6015 0002 C0B9     		cbnz	r0, .L610
 6016 0004 8446     		mov	ip, r0
 6017              		.loc 1 634 5 discriminator 2 view .LVU1713
 635:../switch_sdk/core/yt/yt_port.c ****     CMM_PARAM_CHK(NULL == YT_DISPATCH(unit), CMM_ERR_NOT_INIT);
 6018              		.loc 1 635 5 discriminator 2 view .LVU1714
 6019              		.loc 1 635 5 discriminator 2 view .LVU1715
 6020 0006 2F4B     		ldr	r3, .L619
 6021 0008 53F82030 		ldr	r3, [r3, r0, lsl #2]
 6022 000c 0BB3     		cbz	r3, .L611
 6023              		.loc 1 635 5 discriminator 2 view .LVU1716
 636:../switch_sdk/core/yt/yt_port.c ****     CMM_PARAM_CHK((!(YT_DISPATCH(unit)->is_inited)), CMM_ERR_NOT_INIT);
 6024              		.loc 1 636 5 discriminator 2 view .LVU1717
 6025              		.loc 1 636 5 discriminator 2 view .LVU1718
 6026 000e 1878     		ldrb	r0, [r3]	@ zero_extendqisi2
 6027              	.LVL808:
 6028              		.loc 1 636 5 is_stmt 0 discriminator 2 view .LVU1719
 6029 0010 0028     		cmp	r0, #0
 6030 0012 2CD0     		beq	.L612
 6031              		.loc 1 636 5 is_stmt 1 discriminator 2 view .LVU1720
 637:../switch_sdk/core/yt/yt_port.c ****     CMM_PARAM_CHK((!(CMM_PORT_VALID(unit, port))), CMM_ERR_PORT);
 6032              		.loc 1 637 5 discriminator 2 view .LVU1721
 6033              		.loc 1 637 5 discriminator 2 view .LVU1722
 6034 0014 2C48     		ldr	r0, .L619+4
 6035 0016 0078     		ldrb	r0, [r0]	@ zero_extendqisi2
 6036 0018 0028     		cmp	r0, #0
 6037 001a 36D0     		beq	.L604
 6038 001c 2B48     		ldr	r0, .L619+8
 6039 001e 50F82C00 		ldr	r0, [r0, ip, lsl #2]
 6040 0022 007D     		ldrb	r0, [r0, #20]	@ zero_extendqisi2
 6041 0024 8842     		cmp	r0, r1
 6042 0026 30D9     		bls	.L604
 6043              		.loc 1 637 5 discriminator 4 view .LVU1723
 638:../switch_sdk/core/yt/yt_port.c ****     CMM_PARAM_CHK((NULL == pSpeedDup), CMM_ERR_NULL_POINT);
 6044              		.loc 1 638 5 discriminator 4 view .LVU1724
 6045              		.loc 1 638 5 discriminator 4 view .LVU1725
 6046 0028 002A     		cmp	r2, #0
 6047 002a 3CD0     		beq	.L613
 6048              		.loc 1 638 5 discriminator 2 view .LVU1726
 639:../switch_sdk/core/yt/yt_port.c **** 
 640:../switch_sdk/core/yt/yt_port.c ****     return YT_DISPATCH(unit)->port_phy_force_get(unit, port, pSpeedDup);
 6049              		.loc 1 640 5 discriminator 2 view .LVU1727
 6050              		.loc 1 640 29 is_stmt 0 discriminator 2 view .LVU1728
 6051 002c D3F8C035 		ldr	r3, [r3, #1472]
 6052              		.loc 1 640 12 discriminator 2 view .LVU1729
 6053 0030 6046     		mov	r0, ip
 6054 0032 9847     		blx	r3
 6055              	.LVL809:
 6056              	.L596:
 641:../switch_sdk/core/yt/yt_port.c **** }
 6057              		.loc 1 641 1 view .LVU1730
 6058 0034 08BD     		pop	{r3, pc}
 6059              	.LVL810:
 6060              	.L610:
 634:../switch_sdk/core/yt/yt_port.c ****     CMM_PARAM_CHK(NULL == YT_DISPATCH(unit), CMM_ERR_NOT_INIT);
 6061              		.loc 1 634 5 is_stmt 1 discriminator 1 view .LVU1731
 634:../switch_sdk/core/yt/yt_port.c ****     CMM_PARAM_CHK(NULL == YT_DISPATCH(unit), CMM_ERR_NOT_INIT);
 6062              		.loc 1 634 5 discriminator 1 view .LVU1732
 6063 0036 264B     		ldr	r3, .L619+12
 6064 0038 1B78     		ldrb	r3, [r3]	@ zero_extendqisi2
 6065 003a 012B     		cmp	r3, #1
 6066 003c 01D8     		bhi	.L614
 6067              	.LVL811:
 6068              	.L598:
 634:../switch_sdk/core/yt/yt_port.c ****     CMM_PARAM_CHK(NULL == YT_DISPATCH(unit), CMM_ERR_NOT_INIT);
 6069              		.loc 1 634 5 discriminator 5 view .LVU1733
 634:../switch_sdk/core/yt/yt_port.c ****     CMM_PARAM_CHK(NULL == YT_DISPATCH(unit), CMM_ERR_NOT_INIT);
 6070              		.loc 1 634 5 discriminator 5 view .LVU1734
 634:../switch_sdk/core/yt/yt_port.c ****     CMM_PARAM_CHK(NULL == YT_DISPATCH(unit), CMM_ERR_NOT_INIT);
 6071              		.loc 1 634 5 discriminator 5 view .LVU1735
 6072 003e 0520     		movs	r0, #5
 6073 0040 F8E7     		b	.L596
 6074              	.LVL812:
 6075              	.L614:
 634:../switch_sdk/core/yt/yt_port.c ****     CMM_PARAM_CHK(NULL == YT_DISPATCH(unit), CMM_ERR_NOT_INIT);
 6076              		.loc 1 634 5 discriminator 3 view .LVU1736
 6077              	.LBB118:
 634:../switch_sdk/core/yt/yt_port.c ****     CMM_PARAM_CHK(NULL == YT_DISPATCH(unit), CMM_ERR_NOT_INIT);
 6078              		.loc 1 634 5 discriminator 3 view .LVU1737
 6079 0042 244B     		ldr	r3, .L619+16
 6080 0044 5A69     		ldr	r2, [r3, #20]
 6081              	.LVL813:
 634:../switch_sdk/core/yt/yt_port.c ****     CMM_PARAM_CHK(NULL == YT_DISPATCH(unit), CMM_ERR_NOT_INIT);
 6082              		.loc 1 634 5 is_stmt 0 discriminator 3 view .LVU1738
 6083 0046 244B     		ldr	r3, .L619+20
 6084 0048 9968     		ldr	r1, [r3, #8]
 6085              	.LVL814:
 634:../switch_sdk/core/yt/yt_port.c ****     CMM_PARAM_CHK(NULL == YT_DISPATCH(unit), CMM_ERR_NOT_INIT);
 6086              		.loc 1 634 5 discriminator 3 view .LVU1739
 6087 004a 2448     		ldr	r0, .L619+24
 6088              	.LVL815:
 634:../switch_sdk/core/yt/yt_port.c ****     CMM_PARAM_CHK(NULL == YT_DISPATCH(unit), CMM_ERR_NOT_INIT);
 6089              		.loc 1 634 5 discriminator 3 view .LVU1740
 6090 004c FFF7FEFF 		bl	osal_printf
 6091              	.LVL816:
 6092 0050 F5E7     		b	.L598
 6093              	.LVL817:
 6094              	.L611:
 634:../switch_sdk/core/yt/yt_port.c ****     CMM_PARAM_CHK(NULL == YT_DISPATCH(unit), CMM_ERR_NOT_INIT);
 6095              		.loc 1 634 5 discriminator 3 view .LVU1741
 6096              	.LBE118:
 635:../switch_sdk/core/yt/yt_port.c ****     CMM_PARAM_CHK((!(YT_DISPATCH(unit)->is_inited)), CMM_ERR_NOT_INIT);
 6097              		.loc 1 635 5 is_stmt 1 discriminator 1 view .LVU1742
 635:../switch_sdk/core/yt/yt_port.c ****     CMM_PARAM_CHK((!(YT_DISPATCH(unit)->is_inited)), CMM_ERR_NOT_INIT);
 6098              		.loc 1 635 5 discriminator 1 view .LVU1743
 6099 0052 1F4B     		ldr	r3, .L619+12
 6100 0054 1B78     		ldrb	r3, [r3]	@ zero_extendqisi2
 6101 0056 012B     		cmp	r3, #1
 6102 0058 01D8     		bhi	.L615
 6103              	.LVL818:
 6104              	.L601:
 635:../switch_sdk/core/yt/yt_port.c ****     CMM_PARAM_CHK((!(YT_DISPATCH(unit)->is_inited)), CMM_ERR_NOT_INIT);
 6105              		.loc 1 635 5 discriminator 5 view .LVU1744
 635:../switch_sdk/core/yt/yt_port.c ****     CMM_PARAM_CHK((!(YT_DISPATCH(unit)->is_inited)), CMM_ERR_NOT_INIT);
 6106              		.loc 1 635 5 discriminator 5 view .LVU1745
 635:../switch_sdk/core/yt/yt_port.c ****     CMM_PARAM_CHK((!(YT_DISPATCH(unit)->is_inited)), CMM_ERR_NOT_INIT);
 6107              		.loc 1 635 5 discriminator 5 view .LVU1746
 6108 005a 0420     		movs	r0, #4
 6109 005c EAE7     		b	.L596
 6110              	.LVL819:
 6111              	.L615:
 635:../switch_sdk/core/yt/yt_port.c ****     CMM_PARAM_CHK((!(YT_DISPATCH(unit)->is_inited)), CMM_ERR_NOT_INIT);
 6112              		.loc 1 635 5 discriminator 3 view .LVU1747
 6113              	.LBB119:
 635:../switch_sdk/core/yt/yt_port.c ****     CMM_PARAM_CHK((!(YT_DISPATCH(unit)->is_inited)), CMM_ERR_NOT_INIT);
 6114              		.loc 1 635 5 discriminator 3 view .LVU1748
 6115 005e 1D4B     		ldr	r3, .L619+16
 6116 0060 1A69     		ldr	r2, [r3, #16]
 6117              	.LVL820:
 635:../switch_sdk/core/yt/yt_port.c ****     CMM_PARAM_CHK((!(YT_DISPATCH(unit)->is_inited)), CMM_ERR_NOT_INIT);
 6118              		.loc 1 635 5 is_stmt 0 discriminator 3 view .LVU1749
 6119 0062 1D4B     		ldr	r3, .L619+20
 6120 0064 9968     		ldr	r1, [r3, #8]
 6121              	.LVL821:
 635:../switch_sdk/core/yt/yt_port.c ****     CMM_PARAM_CHK((!(YT_DISPATCH(unit)->is_inited)), CMM_ERR_NOT_INIT);
 6122              		.loc 1 635 5 discriminator 3 view .LVU1750
 6123 0066 1D48     		ldr	r0, .L619+24
 6124              	.LVL822:
 635:../switch_sdk/core/yt/yt_port.c ****     CMM_PARAM_CHK((!(YT_DISPATCH(unit)->is_inited)), CMM_ERR_NOT_INIT);
 6125              		.loc 1 635 5 discriminator 3 view .LVU1751
 6126 0068 FFF7FEFF 		bl	osal_printf
 6127              	.LVL823:
 6128 006c F5E7     		b	.L601
 6129              	.LVL824:
 6130              	.L612:
 635:../switch_sdk/core/yt/yt_port.c ****     CMM_PARAM_CHK((!(YT_DISPATCH(unit)->is_inited)), CMM_ERR_NOT_INIT);
 6131              		.loc 1 635 5 discriminator 3 view .LVU1752
 6132              	.LBE119:
 636:../switch_sdk/core/yt/yt_port.c ****     CMM_PARAM_CHK((!(CMM_PORT_VALID(unit, port))), CMM_ERR_PORT);
 6133              		.loc 1 636 5 is_stmt 1 discriminator 1 view .LVU1753
 636:../switch_sdk/core/yt/yt_port.c ****     CMM_PARAM_CHK((!(CMM_PORT_VALID(unit, port))), CMM_ERR_PORT);
 6134              		.loc 1 636 5 discriminator 1 view .LVU1754
 6135 006e 184B     		ldr	r3, .L619+12
 6136 0070 1B78     		ldrb	r3, [r3]	@ zero_extendqisi2
 6137 0072 012B     		cmp	r3, #1
 6138 0074 01D8     		bhi	.L616
 6139              	.LVL825:
 6140              	.L603:
 636:../switch_sdk/core/yt/yt_port.c ****     CMM_PARAM_CHK((!(CMM_PORT_VALID(unit, port))), CMM_ERR_PORT);
 6141              		.loc 1 636 5 discriminator 5 view .LVU1755
 636:../switch_sdk/core/yt/yt_port.c ****     CMM_PARAM_CHK((!(CMM_PORT_VALID(unit, port))), CMM_ERR_PORT);
 6142              		.loc 1 636 5 discriminator 5 view .LVU1756
 636:../switch_sdk/core/yt/yt_port.c ****     CMM_PARAM_CHK((!(CMM_PORT_VALID(unit, port))), CMM_ERR_PORT);
 6143              		.loc 1 636 5 discriminator 5 view .LVU1757
 6144 0076 0420     		movs	r0, #4
 6145 0078 DCE7     		b	.L596
 6146              	.LVL826:
 6147              	.L616:
 636:../switch_sdk/core/yt/yt_port.c ****     CMM_PARAM_CHK((!(CMM_PORT_VALID(unit, port))), CMM_ERR_PORT);
 6148              		.loc 1 636 5 discriminator 3 view .LVU1758
 6149              	.LBB120:
 636:../switch_sdk/core/yt/yt_port.c ****     CMM_PARAM_CHK((!(CMM_PORT_VALID(unit, port))), CMM_ERR_PORT);
 6150              		.loc 1 636 5 discriminator 3 view .LVU1759
 6151 007a 164B     		ldr	r3, .L619+16
 6152 007c 1A69     		ldr	r2, [r3, #16]
 6153              	.LVL827:
 636:../switch_sdk/core/yt/yt_port.c ****     CMM_PARAM_CHK((!(CMM_PORT_VALID(unit, port))), CMM_ERR_PORT);
 6154              		.loc 1 636 5 is_stmt 0 discriminator 3 view .LVU1760
 6155 007e 164B     		ldr	r3, .L619+20
 6156 0080 9968     		ldr	r1, [r3, #8]
 6157              	.LVL828:
 636:../switch_sdk/core/yt/yt_port.c ****     CMM_PARAM_CHK((!(CMM_PORT_VALID(unit, port))), CMM_ERR_PORT);
 6158              		.loc 1 636 5 discriminator 3 view .LVU1761
 6159 0082 1648     		ldr	r0, .L619+24
 6160 0084 FFF7FEFF 		bl	osal_printf
 6161              	.LVL829:
 6162 0088 F5E7     		b	.L603
 6163              	.LVL830:
 6164              	.L604:
 636:../switch_sdk/core/yt/yt_port.c ****     CMM_PARAM_CHK((!(CMM_PORT_VALID(unit, port))), CMM_ERR_PORT);
 6165              		.loc 1 636 5 discriminator 3 view .LVU1762
 6166              	.LBE120:
 637:../switch_sdk/core/yt/yt_port.c ****     CMM_PARAM_CHK((NULL == pSpeedDup), CMM_ERR_NULL_POINT);
 6167              		.loc 1 637 5 is_stmt 1 discriminator 3 view .LVU1763
 637:../switch_sdk/core/yt/yt_port.c ****     CMM_PARAM_CHK((NULL == pSpeedDup), CMM_ERR_NULL_POINT);
 6168              		.loc 1 637 5 discriminator 3 view .LVU1764
 6169 008a 114B     		ldr	r3, .L619+12
 6170 008c 1B78     		ldrb	r3, [r3]	@ zero_extendqisi2
 6171 008e 012B     		cmp	r3, #1
 6172 0090 01D8     		bhi	.L617
 6173              	.LVL831:
 6174              	.L606:
 637:../switch_sdk/core/yt/yt_port.c ****     CMM_PARAM_CHK((NULL == pSpeedDup), CMM_ERR_NULL_POINT);
 6175              		.loc 1 637 5 discriminator 7 view .LVU1765
 637:../switch_sdk/core/yt/yt_port.c ****     CMM_PARAM_CHK((NULL == pSpeedDup), CMM_ERR_NULL_POINT);
 6176              		.loc 1 637 5 discriminator 7 view .LVU1766
 637:../switch_sdk/core/yt/yt_port.c ****     CMM_PARAM_CHK((NULL == pSpeedDup), CMM_ERR_NULL_POINT);
 6177              		.loc 1 637 5 discriminator 7 view .LVU1767
 6178 0092 0E20     		movs	r0, #14
 6179 0094 CEE7     		b	.L596
 6180              	.LVL832:
 6181              	.L617:
 637:../switch_sdk/core/yt/yt_port.c ****     CMM_PARAM_CHK((NULL == pSpeedDup), CMM_ERR_NULL_POINT);
 6182              		.loc 1 637 5 discriminator 5 view .LVU1768
 6183              	.LBB121:
 637:../switch_sdk/core/yt/yt_port.c ****     CMM_PARAM_CHK((NULL == pSpeedDup), CMM_ERR_NULL_POINT);
 6184              		.loc 1 637 5 discriminator 5 view .LVU1769
 6185 0096 0F4B     		ldr	r3, .L619+16
 6186 0098 9A6B     		ldr	r2, [r3, #56]
 6187              	.LVL833:
 637:../switch_sdk/core/yt/yt_port.c ****     CMM_PARAM_CHK((NULL == pSpeedDup), CMM_ERR_NULL_POINT);
 6188              		.loc 1 637 5 is_stmt 0 discriminator 5 view .LVU1770
 6189 009a 0F4B     		ldr	r3, .L619+20
 6190 009c 9968     		ldr	r1, [r3, #8]
 6191              	.LVL834:
 637:../switch_sdk/core/yt/yt_port.c ****     CMM_PARAM_CHK((NULL == pSpeedDup), CMM_ERR_NULL_POINT);
 6192              		.loc 1 637 5 discriminator 5 view .LVU1771
 6193 009e 0F48     		ldr	r0, .L619+24
 6194 00a0 FFF7FEFF 		bl	osal_printf
 6195              	.LVL835:
 6196 00a4 F5E7     		b	.L606
 6197              	.LVL836:
 6198              	.L613:
 637:../switch_sdk/core/yt/yt_port.c ****     CMM_PARAM_CHK((NULL == pSpeedDup), CMM_ERR_NULL_POINT);
 6199              		.loc 1 637 5 discriminator 5 view .LVU1772
 6200              	.LBE121:
 638:../switch_sdk/core/yt/yt_port.c **** 
 6201              		.loc 1 638 5 is_stmt 1 discriminator 1 view .LVU1773
 638:../switch_sdk/core/yt/yt_port.c **** 
 6202              		.loc 1 638 5 discriminator 1 view .LVU1774
 6203 00a6 0A4B     		ldr	r3, .L619+12
 6204 00a8 1B78     		ldrb	r3, [r3]	@ zero_extendqisi2
 6205 00aa 012B     		cmp	r3, #1
 6206 00ac 01D8     		bhi	.L618
 6207              	.LVL837:
 6208              	.L608:
 638:../switch_sdk/core/yt/yt_port.c **** 
 6209              		.loc 1 638 5 discriminator 5 view .LVU1775
 638:../switch_sdk/core/yt/yt_port.c **** 
 6210              		.loc 1 638 5 discriminator 5 view .LVU1776
 638:../switch_sdk/core/yt/yt_port.c **** 
 6211              		.loc 1 638 5 discriminator 5 view .LVU1777
 6212 00ae 0220     		movs	r0, #2
 6213 00b0 C0E7     		b	.L596
 6214              	.LVL838:
 6215              	.L618:
 638:../switch_sdk/core/yt/yt_port.c **** 
 6216              		.loc 1 638 5 discriminator 3 view .LVU1778
 6217              	.LBB122:
 638:../switch_sdk/core/yt/yt_port.c **** 
 6218              		.loc 1 638 5 discriminator 3 view .LVU1779
 6219 00b2 084B     		ldr	r3, .L619+16
 6220 00b4 9A68     		ldr	r2, [r3, #8]
 6221              	.LVL839:
 638:../switch_sdk/core/yt/yt_port.c **** 
 6222              		.loc 1 638 5 is_stmt 0 discriminator 3 view .LVU1780
 6223 00b6 084B     		ldr	r3, .L619+20
 6224 00b8 9968     		ldr	r1, [r3, #8]
 6225              	.LVL840:
 638:../switch_sdk/core/yt/yt_port.c **** 
 6226              		.loc 1 638 5 discriminator 3 view .LVU1781
 6227 00ba 0848     		ldr	r0, .L619+24
 6228 00bc FFF7FEFF 		bl	osal_printf
 6229              	.LVL841:
 6230 00c0 F5E7     		b	.L608
 6231              	.L620:
 6232 00c2 00BF     		.align	2
 6233              	.L619:
 6234 00c4 00000000 		.word	gpfal_dispatch
 6235 00c8 00000000 		.word	gcal_inited
 6236 00cc 00000000 		.word	gpSwitchUnit
 6237 00d0 00000000 		.word	yt_debug_level
 6238 00d4 00000000 		.word	_yt_errmsg
 6239 00d8 00000000 		.word	_yt_prompt_msg
 6240 00dc 00000000 		.word	.LC0
 6241              	.LBE122:
 6242              		.cfi_endproc
 6243              	.LFE29:
 6245              		.section	.text.yt_port_phy_linkstatus_get,"ax",%progbits
 6246              		.align	1
 6247              		.global	yt_port_phy_linkstatus_get
 6248              		.syntax unified
 6249              		.thumb
 6250              		.thumb_func
 6252              	yt_port_phy_linkstatus_get:
 6253              	.LVL842:
 6254              	.LFB30:
 642:../switch_sdk/core/yt/yt_port.c **** 
 643:../switch_sdk/core/yt/yt_port.c **** /**
 644:../switch_sdk/core/yt/yt_port.c ****  * @internal      yt_port_phy_linkstatus_get
 645:../switch_sdk/core/yt/yt_port.c ****  * @endinternal
 646:../switch_sdk/core/yt/yt_port.c ****  *
 647:../switch_sdk/core/yt/yt_port.c ****  * @brief         Description
 648:../switch_sdk/core/yt/yt_port.c ****  * @note          APPLICABLE DEVICES  -Tiger
 649:../switch_sdk/core/yt/yt_port.c ****  * @param[in]     unit                -unit id
 650:../switch_sdk/core/yt/yt_port.c ****  * @param[in]     port                -port num
 651:../switch_sdk/core/yt/yt_port.c ****  * @param[out]    pLinkStatus         -x
 652:../switch_sdk/core/yt/yt_port.c ****  * @retval        CMM_ERR_OK          -on success
 653:../switch_sdk/core/yt/yt_port.c ****  * @retval        CMM_ERR_FAIL        -on fail
 654:../switch_sdk/core/yt/yt_port.c ****  */
 655:../switch_sdk/core/yt/yt_port.c **** yt_ret_t yt_port_phy_linkstatus_get(yt_unit_t unit, yt_port_t port, yt_port_linkStatus_all_t *pLink
 656:../switch_sdk/core/yt/yt_port.c **** {
 6255              		.loc 1 656 1 is_stmt 1 view -0
 6256              		.cfi_startproc
 6257              		@ args = 0, pretend = 0, frame = 0
 6258              		@ frame_needed = 0, uses_anonymous_args = 0
 6259              		.loc 1 656 1 is_stmt 0 view .LVU1783
 6260 0000 08B5     		push	{r3, lr}
 6261              		.cfi_def_cfa_offset 8
 6262              		.cfi_offset 3, -8
 6263              		.cfi_offset 14, -4
 657:../switch_sdk/core/yt/yt_port.c ****     CMM_PARAM_CHK((YT_UNIT_NUM <= unit), CMM_ERR_INPUT);
 6264              		.loc 1 657 5 is_stmt 1 view .LVU1784
 6265              		.loc 1 657 5 view .LVU1785
 6266 0002 C0B9     		cbnz	r0, .L635
 6267 0004 8446     		mov	ip, r0
 6268              		.loc 1 657 5 discriminator 2 view .LVU1786
 658:../switch_sdk/core/yt/yt_port.c ****     CMM_PARAM_CHK(NULL == YT_DISPATCH(unit), CMM_ERR_NOT_INIT);
 6269              		.loc 1 658 5 discriminator 2 view .LVU1787
 6270              		.loc 1 658 5 discriminator 2 view .LVU1788
 6271 0006 2F4B     		ldr	r3, .L644
 6272 0008 53F82030 		ldr	r3, [r3, r0, lsl #2]
 6273 000c 0BB3     		cbz	r3, .L636
 6274              		.loc 1 658 5 discriminator 2 view .LVU1789
 659:../switch_sdk/core/yt/yt_port.c ****     CMM_PARAM_CHK((!(YT_DISPATCH(unit)->is_inited)), CMM_ERR_NOT_INIT);
 6275              		.loc 1 659 5 discriminator 2 view .LVU1790
 6276              		.loc 1 659 5 discriminator 2 view .LVU1791
 6277 000e 1878     		ldrb	r0, [r3]	@ zero_extendqisi2
 6278              	.LVL843:
 6279              		.loc 1 659 5 is_stmt 0 discriminator 2 view .LVU1792
 6280 0010 0028     		cmp	r0, #0
 6281 0012 2CD0     		beq	.L637
 6282              		.loc 1 659 5 is_stmt 1 discriminator 2 view .LVU1793
 660:../switch_sdk/core/yt/yt_port.c ****     CMM_PARAM_CHK((!(CMM_PORT_VALID(unit, port))), CMM_ERR_PORT);
 6283              		.loc 1 660 5 discriminator 2 view .LVU1794
 6284              		.loc 1 660 5 discriminator 2 view .LVU1795
 6285 0014 2C48     		ldr	r0, .L644+4
 6286 0016 0078     		ldrb	r0, [r0]	@ zero_extendqisi2
 6287 0018 0028     		cmp	r0, #0
 6288 001a 36D0     		beq	.L629
 6289 001c 2B48     		ldr	r0, .L644+8
 6290 001e 50F82C00 		ldr	r0, [r0, ip, lsl #2]
 6291 0022 007D     		ldrb	r0, [r0, #20]	@ zero_extendqisi2
 6292 0024 8842     		cmp	r0, r1
 6293 0026 30D9     		bls	.L629
 6294              		.loc 1 660 5 discriminator 4 view .LVU1796
 661:../switch_sdk/core/yt/yt_port.c ****     CMM_PARAM_CHK((NULL == pLinkStatus), CMM_ERR_NULL_POINT);
 6295              		.loc 1 661 5 discriminator 4 view .LVU1797
 6296              		.loc 1 661 5 discriminator 4 view .LVU1798
 6297 0028 002A     		cmp	r2, #0
 6298 002a 3CD0     		beq	.L638
 6299              		.loc 1 661 5 discriminator 2 view .LVU1799
 662:../switch_sdk/core/yt/yt_port.c **** 
 663:../switch_sdk/core/yt/yt_port.c ****     return YT_DISPATCH(unit)->port_phy_linkstatus_get(unit, port, pLinkStatus);
 6300              		.loc 1 663 5 discriminator 2 view .LVU1800
 6301              		.loc 1 663 29 is_stmt 0 discriminator 2 view .LVU1801
 6302 002c D3F8C435 		ldr	r3, [r3, #1476]
 6303              		.loc 1 663 12 discriminator 2 view .LVU1802
 6304 0030 6046     		mov	r0, ip
 6305 0032 9847     		blx	r3
 6306              	.LVL844:
 6307              	.L621:
 664:../switch_sdk/core/yt/yt_port.c **** }
 6308              		.loc 1 664 1 view .LVU1803
 6309 0034 08BD     		pop	{r3, pc}
 6310              	.LVL845:
 6311              	.L635:
 657:../switch_sdk/core/yt/yt_port.c ****     CMM_PARAM_CHK(NULL == YT_DISPATCH(unit), CMM_ERR_NOT_INIT);
 6312              		.loc 1 657 5 is_stmt 1 discriminator 1 view .LVU1804
 657:../switch_sdk/core/yt/yt_port.c ****     CMM_PARAM_CHK(NULL == YT_DISPATCH(unit), CMM_ERR_NOT_INIT);
 6313              		.loc 1 657 5 discriminator 1 view .LVU1805
 6314 0036 264B     		ldr	r3, .L644+12
 6315 0038 1B78     		ldrb	r3, [r3]	@ zero_extendqisi2
 6316 003a 012B     		cmp	r3, #1
 6317 003c 01D8     		bhi	.L639
 6318              	.LVL846:
 6319              	.L623:
 657:../switch_sdk/core/yt/yt_port.c ****     CMM_PARAM_CHK(NULL == YT_DISPATCH(unit), CMM_ERR_NOT_INIT);
 6320              		.loc 1 657 5 discriminator 5 view .LVU1806
 657:../switch_sdk/core/yt/yt_port.c ****     CMM_PARAM_CHK(NULL == YT_DISPATCH(unit), CMM_ERR_NOT_INIT);
 6321              		.loc 1 657 5 discriminator 5 view .LVU1807
 657:../switch_sdk/core/yt/yt_port.c ****     CMM_PARAM_CHK(NULL == YT_DISPATCH(unit), CMM_ERR_NOT_INIT);
 6322              		.loc 1 657 5 discriminator 5 view .LVU1808
 6323 003e 0520     		movs	r0, #5
 6324 0040 F8E7     		b	.L621
 6325              	.LVL847:
 6326              	.L639:
 657:../switch_sdk/core/yt/yt_port.c ****     CMM_PARAM_CHK(NULL == YT_DISPATCH(unit), CMM_ERR_NOT_INIT);
 6327              		.loc 1 657 5 discriminator 3 view .LVU1809
 6328              	.LBB123:
 657:../switch_sdk/core/yt/yt_port.c ****     CMM_PARAM_CHK(NULL == YT_DISPATCH(unit), CMM_ERR_NOT_INIT);
 6329              		.loc 1 657 5 discriminator 3 view .LVU1810
 6330 0042 244B     		ldr	r3, .L644+16
 6331 0044 5A69     		ldr	r2, [r3, #20]
 6332              	.LVL848:
 657:../switch_sdk/core/yt/yt_port.c ****     CMM_PARAM_CHK(NULL == YT_DISPATCH(unit), CMM_ERR_NOT_INIT);
 6333              		.loc 1 657 5 is_stmt 0 discriminator 3 view .LVU1811
 6334 0046 244B     		ldr	r3, .L644+20
 6335 0048 9968     		ldr	r1, [r3, #8]
 6336              	.LVL849:
 657:../switch_sdk/core/yt/yt_port.c ****     CMM_PARAM_CHK(NULL == YT_DISPATCH(unit), CMM_ERR_NOT_INIT);
 6337              		.loc 1 657 5 discriminator 3 view .LVU1812
 6338 004a 2448     		ldr	r0, .L644+24
 6339              	.LVL850:
 657:../switch_sdk/core/yt/yt_port.c ****     CMM_PARAM_CHK(NULL == YT_DISPATCH(unit), CMM_ERR_NOT_INIT);
 6340              		.loc 1 657 5 discriminator 3 view .LVU1813
 6341 004c FFF7FEFF 		bl	osal_printf
 6342              	.LVL851:
 6343 0050 F5E7     		b	.L623
 6344              	.LVL852:
 6345              	.L636:
 657:../switch_sdk/core/yt/yt_port.c ****     CMM_PARAM_CHK(NULL == YT_DISPATCH(unit), CMM_ERR_NOT_INIT);
 6346              		.loc 1 657 5 discriminator 3 view .LVU1814
 6347              	.LBE123:
 658:../switch_sdk/core/yt/yt_port.c ****     CMM_PARAM_CHK((!(YT_DISPATCH(unit)->is_inited)), CMM_ERR_NOT_INIT);
 6348              		.loc 1 658 5 is_stmt 1 discriminator 1 view .LVU1815
 658:../switch_sdk/core/yt/yt_port.c ****     CMM_PARAM_CHK((!(YT_DISPATCH(unit)->is_inited)), CMM_ERR_NOT_INIT);
 6349              		.loc 1 658 5 discriminator 1 view .LVU1816
 6350 0052 1F4B     		ldr	r3, .L644+12
 6351 0054 1B78     		ldrb	r3, [r3]	@ zero_extendqisi2
 6352 0056 012B     		cmp	r3, #1
 6353 0058 01D8     		bhi	.L640
 6354              	.LVL853:
 6355              	.L626:
 658:../switch_sdk/core/yt/yt_port.c ****     CMM_PARAM_CHK((!(YT_DISPATCH(unit)->is_inited)), CMM_ERR_NOT_INIT);
 6356              		.loc 1 658 5 discriminator 5 view .LVU1817
 658:../switch_sdk/core/yt/yt_port.c ****     CMM_PARAM_CHK((!(YT_DISPATCH(unit)->is_inited)), CMM_ERR_NOT_INIT);
 6357              		.loc 1 658 5 discriminator 5 view .LVU1818
 658:../switch_sdk/core/yt/yt_port.c ****     CMM_PARAM_CHK((!(YT_DISPATCH(unit)->is_inited)), CMM_ERR_NOT_INIT);
 6358              		.loc 1 658 5 discriminator 5 view .LVU1819
 6359 005a 0420     		movs	r0, #4
 6360 005c EAE7     		b	.L621
 6361              	.LVL854:
 6362              	.L640:
 658:../switch_sdk/core/yt/yt_port.c ****     CMM_PARAM_CHK((!(YT_DISPATCH(unit)->is_inited)), CMM_ERR_NOT_INIT);
 6363              		.loc 1 658 5 discriminator 3 view .LVU1820
 6364              	.LBB124:
 658:../switch_sdk/core/yt/yt_port.c ****     CMM_PARAM_CHK((!(YT_DISPATCH(unit)->is_inited)), CMM_ERR_NOT_INIT);
 6365              		.loc 1 658 5 discriminator 3 view .LVU1821
 6366 005e 1D4B     		ldr	r3, .L644+16
 6367 0060 1A69     		ldr	r2, [r3, #16]
 6368              	.LVL855:
 658:../switch_sdk/core/yt/yt_port.c ****     CMM_PARAM_CHK((!(YT_DISPATCH(unit)->is_inited)), CMM_ERR_NOT_INIT);
 6369              		.loc 1 658 5 is_stmt 0 discriminator 3 view .LVU1822
 6370 0062 1D4B     		ldr	r3, .L644+20
 6371 0064 9968     		ldr	r1, [r3, #8]
 6372              	.LVL856:
 658:../switch_sdk/core/yt/yt_port.c ****     CMM_PARAM_CHK((!(YT_DISPATCH(unit)->is_inited)), CMM_ERR_NOT_INIT);
 6373              		.loc 1 658 5 discriminator 3 view .LVU1823
 6374 0066 1D48     		ldr	r0, .L644+24
 6375              	.LVL857:
 658:../switch_sdk/core/yt/yt_port.c ****     CMM_PARAM_CHK((!(YT_DISPATCH(unit)->is_inited)), CMM_ERR_NOT_INIT);
 6376              		.loc 1 658 5 discriminator 3 view .LVU1824
 6377 0068 FFF7FEFF 		bl	osal_printf
 6378              	.LVL858:
 6379 006c F5E7     		b	.L626
 6380              	.LVL859:
 6381              	.L637:
 658:../switch_sdk/core/yt/yt_port.c ****     CMM_PARAM_CHK((!(YT_DISPATCH(unit)->is_inited)), CMM_ERR_NOT_INIT);
 6382              		.loc 1 658 5 discriminator 3 view .LVU1825
 6383              	.LBE124:
 659:../switch_sdk/core/yt/yt_port.c ****     CMM_PARAM_CHK((!(CMM_PORT_VALID(unit, port))), CMM_ERR_PORT);
 6384              		.loc 1 659 5 is_stmt 1 discriminator 1 view .LVU1826
 659:../switch_sdk/core/yt/yt_port.c ****     CMM_PARAM_CHK((!(CMM_PORT_VALID(unit, port))), CMM_ERR_PORT);
 6385              		.loc 1 659 5 discriminator 1 view .LVU1827
 6386 006e 184B     		ldr	r3, .L644+12
 6387 0070 1B78     		ldrb	r3, [r3]	@ zero_extendqisi2
 6388 0072 012B     		cmp	r3, #1
 6389 0074 01D8     		bhi	.L641
 6390              	.LVL860:
 6391              	.L628:
 659:../switch_sdk/core/yt/yt_port.c ****     CMM_PARAM_CHK((!(CMM_PORT_VALID(unit, port))), CMM_ERR_PORT);
 6392              		.loc 1 659 5 discriminator 5 view .LVU1828
 659:../switch_sdk/core/yt/yt_port.c ****     CMM_PARAM_CHK((!(CMM_PORT_VALID(unit, port))), CMM_ERR_PORT);
 6393              		.loc 1 659 5 discriminator 5 view .LVU1829
 659:../switch_sdk/core/yt/yt_port.c ****     CMM_PARAM_CHK((!(CMM_PORT_VALID(unit, port))), CMM_ERR_PORT);
 6394              		.loc 1 659 5 discriminator 5 view .LVU1830
 6395 0076 0420     		movs	r0, #4
 6396 0078 DCE7     		b	.L621
 6397              	.LVL861:
 6398              	.L641:
 659:../switch_sdk/core/yt/yt_port.c ****     CMM_PARAM_CHK((!(CMM_PORT_VALID(unit, port))), CMM_ERR_PORT);
 6399              		.loc 1 659 5 discriminator 3 view .LVU1831
 6400              	.LBB125:
 659:../switch_sdk/core/yt/yt_port.c ****     CMM_PARAM_CHK((!(CMM_PORT_VALID(unit, port))), CMM_ERR_PORT);
 6401              		.loc 1 659 5 discriminator 3 view .LVU1832
 6402 007a 164B     		ldr	r3, .L644+16
 6403 007c 1A69     		ldr	r2, [r3, #16]
 6404              	.LVL862:
 659:../switch_sdk/core/yt/yt_port.c ****     CMM_PARAM_CHK((!(CMM_PORT_VALID(unit, port))), CMM_ERR_PORT);
 6405              		.loc 1 659 5 is_stmt 0 discriminator 3 view .LVU1833
 6406 007e 164B     		ldr	r3, .L644+20
 6407 0080 9968     		ldr	r1, [r3, #8]
 6408              	.LVL863:
 659:../switch_sdk/core/yt/yt_port.c ****     CMM_PARAM_CHK((!(CMM_PORT_VALID(unit, port))), CMM_ERR_PORT);
 6409              		.loc 1 659 5 discriminator 3 view .LVU1834
 6410 0082 1648     		ldr	r0, .L644+24
 6411 0084 FFF7FEFF 		bl	osal_printf
 6412              	.LVL864:
 6413 0088 F5E7     		b	.L628
 6414              	.LVL865:
 6415              	.L629:
 659:../switch_sdk/core/yt/yt_port.c ****     CMM_PARAM_CHK((!(CMM_PORT_VALID(unit, port))), CMM_ERR_PORT);
 6416              		.loc 1 659 5 discriminator 3 view .LVU1835
 6417              	.LBE125:
 660:../switch_sdk/core/yt/yt_port.c ****     CMM_PARAM_CHK((NULL == pLinkStatus), CMM_ERR_NULL_POINT);
 6418              		.loc 1 660 5 is_stmt 1 discriminator 3 view .LVU1836
 660:../switch_sdk/core/yt/yt_port.c ****     CMM_PARAM_CHK((NULL == pLinkStatus), CMM_ERR_NULL_POINT);
 6419              		.loc 1 660 5 discriminator 3 view .LVU1837
 6420 008a 114B     		ldr	r3, .L644+12
 6421 008c 1B78     		ldrb	r3, [r3]	@ zero_extendqisi2
 6422 008e 012B     		cmp	r3, #1
 6423 0090 01D8     		bhi	.L642
 6424              	.LVL866:
 6425              	.L631:
 660:../switch_sdk/core/yt/yt_port.c ****     CMM_PARAM_CHK((NULL == pLinkStatus), CMM_ERR_NULL_POINT);
 6426              		.loc 1 660 5 discriminator 7 view .LVU1838
 660:../switch_sdk/core/yt/yt_port.c ****     CMM_PARAM_CHK((NULL == pLinkStatus), CMM_ERR_NULL_POINT);
 6427              		.loc 1 660 5 discriminator 7 view .LVU1839
 660:../switch_sdk/core/yt/yt_port.c ****     CMM_PARAM_CHK((NULL == pLinkStatus), CMM_ERR_NULL_POINT);
 6428              		.loc 1 660 5 discriminator 7 view .LVU1840
 6429 0092 0E20     		movs	r0, #14
 6430 0094 CEE7     		b	.L621
 6431              	.LVL867:
 6432              	.L642:
 660:../switch_sdk/core/yt/yt_port.c ****     CMM_PARAM_CHK((NULL == pLinkStatus), CMM_ERR_NULL_POINT);
 6433              		.loc 1 660 5 discriminator 5 view .LVU1841
 6434              	.LBB126:
 660:../switch_sdk/core/yt/yt_port.c ****     CMM_PARAM_CHK((NULL == pLinkStatus), CMM_ERR_NULL_POINT);
 6435              		.loc 1 660 5 discriminator 5 view .LVU1842
 6436 0096 0F4B     		ldr	r3, .L644+16
 6437 0098 9A6B     		ldr	r2, [r3, #56]
 6438              	.LVL868:
 660:../switch_sdk/core/yt/yt_port.c ****     CMM_PARAM_CHK((NULL == pLinkStatus), CMM_ERR_NULL_POINT);
 6439              		.loc 1 660 5 is_stmt 0 discriminator 5 view .LVU1843
 6440 009a 0F4B     		ldr	r3, .L644+20
 6441 009c 9968     		ldr	r1, [r3, #8]
 6442              	.LVL869:
 660:../switch_sdk/core/yt/yt_port.c ****     CMM_PARAM_CHK((NULL == pLinkStatus), CMM_ERR_NULL_POINT);
 6443              		.loc 1 660 5 discriminator 5 view .LVU1844
 6444 009e 0F48     		ldr	r0, .L644+24
 6445 00a0 FFF7FEFF 		bl	osal_printf
 6446              	.LVL870:
 6447 00a4 F5E7     		b	.L631
 6448              	.LVL871:
 6449              	.L638:
 660:../switch_sdk/core/yt/yt_port.c ****     CMM_PARAM_CHK((NULL == pLinkStatus), CMM_ERR_NULL_POINT);
 6450              		.loc 1 660 5 discriminator 5 view .LVU1845
 6451              	.LBE126:
 661:../switch_sdk/core/yt/yt_port.c **** 
 6452              		.loc 1 661 5 is_stmt 1 discriminator 1 view .LVU1846
 661:../switch_sdk/core/yt/yt_port.c **** 
 6453              		.loc 1 661 5 discriminator 1 view .LVU1847
 6454 00a6 0A4B     		ldr	r3, .L644+12
 6455 00a8 1B78     		ldrb	r3, [r3]	@ zero_extendqisi2
 6456 00aa 012B     		cmp	r3, #1
 6457 00ac 01D8     		bhi	.L643
 6458              	.LVL872:
 6459              	.L633:
 661:../switch_sdk/core/yt/yt_port.c **** 
 6460              		.loc 1 661 5 discriminator 5 view .LVU1848
 661:../switch_sdk/core/yt/yt_port.c **** 
 6461              		.loc 1 661 5 discriminator 5 view .LVU1849
 661:../switch_sdk/core/yt/yt_port.c **** 
 6462              		.loc 1 661 5 discriminator 5 view .LVU1850
 6463 00ae 0220     		movs	r0, #2
 6464 00b0 C0E7     		b	.L621
 6465              	.LVL873:
 6466              	.L643:
 661:../switch_sdk/core/yt/yt_port.c **** 
 6467              		.loc 1 661 5 discriminator 3 view .LVU1851
 6468              	.LBB127:
 661:../switch_sdk/core/yt/yt_port.c **** 
 6469              		.loc 1 661 5 discriminator 3 view .LVU1852
 6470 00b2 084B     		ldr	r3, .L644+16
 6471 00b4 9A68     		ldr	r2, [r3, #8]
 6472              	.LVL874:
 661:../switch_sdk/core/yt/yt_port.c **** 
 6473              		.loc 1 661 5 is_stmt 0 discriminator 3 view .LVU1853
 6474 00b6 084B     		ldr	r3, .L644+20
 6475 00b8 9968     		ldr	r1, [r3, #8]
 6476              	.LVL875:
 661:../switch_sdk/core/yt/yt_port.c **** 
 6477              		.loc 1 661 5 discriminator 3 view .LVU1854
 6478 00ba 0848     		ldr	r0, .L644+24
 6479 00bc FFF7FEFF 		bl	osal_printf
 6480              	.LVL876:
 6481 00c0 F5E7     		b	.L633
 6482              	.L645:
 6483 00c2 00BF     		.align	2
 6484              	.L644:
 6485 00c4 00000000 		.word	gpfal_dispatch
 6486 00c8 00000000 		.word	gcal_inited
 6487 00cc 00000000 		.word	gpSwitchUnit
 6488 00d0 00000000 		.word	yt_debug_level
 6489 00d4 00000000 		.word	_yt_errmsg
 6490 00d8 00000000 		.word	_yt_prompt_msg
 6491 00dc 00000000 		.word	.LC0
 6492              	.LBE127:
 6493              		.cfi_endproc
 6494              	.LFE30:
 6496              		.section	.text.yt_port_phy_reg_set,"ax",%progbits
 6497              		.align	1
 6498              		.global	yt_port_phy_reg_set
 6499              		.syntax unified
 6500              		.thumb
 6501              		.thumb_func
 6503              	yt_port_phy_reg_set:
 6504              	.LVL877:
 6505              	.LFB31:
 665:../switch_sdk/core/yt/yt_port.c **** 
 666:../switch_sdk/core/yt/yt_port.c **** /**
 667:../switch_sdk/core/yt/yt_port.c ****  * @internal      yt_port_phy_reg_set
 668:../switch_sdk/core/yt/yt_port.c ****  * @endinternal
 669:../switch_sdk/core/yt/yt_port.c ****  *
 670:../switch_sdk/core/yt/yt_port.c ****  * @brief         Description
 671:../switch_sdk/core/yt/yt_port.c ****  * @note          APPLICABLE DEVICES  -Tiger
 672:../switch_sdk/core/yt/yt_port.c ****  * @param[in]     unit                -unit id
 673:../switch_sdk/core/yt/yt_port.c ****  * @param[in]     port                -port num
 674:../switch_sdk/core/yt/yt_port.c ****  * @param[in]     regAddr             -x
 675:../switch_sdk/core/yt/yt_port.c ****  * @param[in]     data                -x
 676:../switch_sdk/core/yt/yt_port.c ****  * @param[in]     type                -phy type, internal or external phy
 677:../switch_sdk/core/yt/yt_port.c ****  * @retval        CMM_ERR_OK          -on success
 678:../switch_sdk/core/yt/yt_port.c ****  * @retval        CMM_ERR_FAIL        -on fail
 679:../switch_sdk/core/yt/yt_port.c ****  */
 680:../switch_sdk/core/yt/yt_port.c **** yt_ret_t yt_port_phy_reg_set(yt_unit_t unit, yt_port_t port, uint32_t regAddr, uint16_t data, yt_ph
 681:../switch_sdk/core/yt/yt_port.c **** {
 6506              		.loc 1 681 1 is_stmt 1 view -0
 6507              		.cfi_startproc
 6508              		@ args = 4, pretend = 0, frame = 0
 6509              		@ frame_needed = 0, uses_anonymous_args = 0
 6510              		.loc 1 681 1 is_stmt 0 view .LVU1856
 6511 0000 30B5     		push	{r4, r5, lr}
 6512              		.cfi_def_cfa_offset 12
 6513              		.cfi_offset 4, -12
 6514              		.cfi_offset 5, -8
 6515              		.cfi_offset 14, -4
 6516 0002 83B0     		sub	sp, sp, #12
 6517              		.cfi_def_cfa_offset 24
 6518 0004 9DF81850 		ldrb	r5, [sp, #24]	@ zero_extendqisi2
 682:../switch_sdk/core/yt/yt_port.c ****     CMM_PARAM_CHK((YT_UNIT_NUM <= unit), CMM_ERR_INPUT);
 6519              		.loc 1 682 5 is_stmt 1 view .LVU1857
 6520              		.loc 1 682 5 view .LVU1858
 6521 0008 D0B9     		cbnz	r0, .L660
 6522 000a 8446     		mov	ip, r0
 6523              		.loc 1 682 5 discriminator 2 view .LVU1859
 683:../switch_sdk/core/yt/yt_port.c ****     CMM_PARAM_CHK(NULL == YT_DISPATCH(unit), CMM_ERR_NOT_INIT);
 6524              		.loc 1 683 5 discriminator 2 view .LVU1860
 6525              		.loc 1 683 5 discriminator 2 view .LVU1861
 6526 000c 2F48     		ldr	r0, .L669
 6527              	.LVL878:
 6528              		.loc 1 683 5 is_stmt 0 discriminator 2 view .LVU1862
 6529 000e 50F82C40 		ldr	r4, [r0, ip, lsl #2]
 6530 0012 1CB3     		cbz	r4, .L661
 6531              		.loc 1 683 5 is_stmt 1 discriminator 2 view .LVU1863
 684:../switch_sdk/core/yt/yt_port.c ****     CMM_PARAM_CHK((!(YT_DISPATCH(unit)->is_inited)), CMM_ERR_NOT_INIT);
 6532              		.loc 1 684 5 discriminator 2 view .LVU1864
 6533              		.loc 1 684 5 discriminator 2 view .LVU1865
 6534 0014 2078     		ldrb	r0, [r4]	@ zero_extendqisi2
 6535 0016 0028     		cmp	r0, #0
 6536 0018 2ED0     		beq	.L662
 6537              		.loc 1 684 5 discriminator 2 view .LVU1866
 685:../switch_sdk/core/yt/yt_port.c ****     CMM_PARAM_CHK((!(CMM_PORT_VALID(unit, port))), CMM_ERR_PORT);
 6538              		.loc 1 685 5 discriminator 2 view .LVU1867
 6539              		.loc 1 685 5 discriminator 2 view .LVU1868
 6540 001a 2D48     		ldr	r0, .L669+4
 6541 001c 0078     		ldrb	r0, [r0]	@ zero_extendqisi2
 6542 001e 0028     		cmp	r0, #0
 6543 0020 38D0     		beq	.L654
 6544 0022 2C48     		ldr	r0, .L669+8
 6545 0024 50F82C00 		ldr	r0, [r0, ip, lsl #2]
 6546 0028 007D     		ldrb	r0, [r0, #20]	@ zero_extendqisi2
 6547 002a 8842     		cmp	r0, r1
 6548 002c 32D9     		bls	.L654
 6549              		.loc 1 685 5 discriminator 4 view .LVU1869
 686:../switch_sdk/core/yt/yt_port.c ****     CMM_PARAM_CHK((PHY_EXTERNAL < type || PHY_INTERNAL > type), CMM_ERR_INPUT);
 6550              		.loc 1 686 5 discriminator 4 view .LVU1870
 6551              		.loc 1 686 5 discriminator 4 view .LVU1871
 6552 002e 012D     		cmp	r5, #1
 6553 0030 3ED8     		bhi	.L663
 6554              		.loc 1 686 5 discriminator 2 view .LVU1872
 687:../switch_sdk/core/yt/yt_port.c **** 
 688:../switch_sdk/core/yt/yt_port.c ****     return YT_DISPATCH(unit)->port_phy_reg_set(unit, port, regAddr, data, type);
 6555              		.loc 1 688 5 discriminator 2 view .LVU1873
 6556              		.loc 1 688 29 is_stmt 0 discriminator 2 view .LVU1874
 6557 0032 D4F8C845 		ldr	r4, [r4, #1480]
 6558              		.loc 1 688 12 discriminator 2 view .LVU1875
 6559 0036 0095     		str	r5, [sp]
 6560 0038 6046     		mov	r0, ip
 6561 003a A047     		blx	r4
 6562              	.LVL879:
 6563              	.L646:
 689:../switch_sdk/core/yt/yt_port.c **** }
 6564              		.loc 1 689 1 view .LVU1876
 6565 003c 03B0     		add	sp, sp, #12
 6566              		.cfi_remember_state
 6567              		.cfi_def_cfa_offset 12
 6568              		@ sp needed
 6569 003e 30BD     		pop	{r4, r5, pc}
 6570              	.LVL880:
 6571              	.L660:
 6572              		.cfi_restore_state
 682:../switch_sdk/core/yt/yt_port.c ****     CMM_PARAM_CHK(NULL == YT_DISPATCH(unit), CMM_ERR_NOT_INIT);
 6573              		.loc 1 682 5 is_stmt 1 discriminator 1 view .LVU1877
 682:../switch_sdk/core/yt/yt_port.c ****     CMM_PARAM_CHK(NULL == YT_DISPATCH(unit), CMM_ERR_NOT_INIT);
 6574              		.loc 1 682 5 discriminator 1 view .LVU1878
 6575 0040 254B     		ldr	r3, .L669+12
 6576              	.LVL881:
 682:../switch_sdk/core/yt/yt_port.c ****     CMM_PARAM_CHK(NULL == YT_DISPATCH(unit), CMM_ERR_NOT_INIT);
 6577              		.loc 1 682 5 is_stmt 0 discriminator 1 view .LVU1879
 6578 0042 1B78     		ldrb	r3, [r3]	@ zero_extendqisi2
 6579 0044 012B     		cmp	r3, #1
 6580 0046 01D8     		bhi	.L664
 6581              	.LVL882:
 6582              	.L648:
 682:../switch_sdk/core/yt/yt_port.c ****     CMM_PARAM_CHK(NULL == YT_DISPATCH(unit), CMM_ERR_NOT_INIT);
 6583              		.loc 1 682 5 is_stmt 1 discriminator 5 view .LVU1880
 682:../switch_sdk/core/yt/yt_port.c ****     CMM_PARAM_CHK(NULL == YT_DISPATCH(unit), CMM_ERR_NOT_INIT);
 6584              		.loc 1 682 5 discriminator 5 view .LVU1881
 682:../switch_sdk/core/yt/yt_port.c ****     CMM_PARAM_CHK(NULL == YT_DISPATCH(unit), CMM_ERR_NOT_INIT);
 6585              		.loc 1 682 5 discriminator 5 view .LVU1882
 6586 0048 0520     		movs	r0, #5
 6587 004a F7E7     		b	.L646
 6588              	.LVL883:
 6589              	.L664:
 682:../switch_sdk/core/yt/yt_port.c ****     CMM_PARAM_CHK(NULL == YT_DISPATCH(unit), CMM_ERR_NOT_INIT);
 6590              		.loc 1 682 5 discriminator 3 view .LVU1883
 6591              	.LBB128:
 682:../switch_sdk/core/yt/yt_port.c ****     CMM_PARAM_CHK(NULL == YT_DISPATCH(unit), CMM_ERR_NOT_INIT);
 6592              		.loc 1 682 5 discriminator 3 view .LVU1884
 6593 004c 234B     		ldr	r3, .L669+16
 6594 004e 5A69     		ldr	r2, [r3, #20]
 6595              	.LVL884:
 682:../switch_sdk/core/yt/yt_port.c ****     CMM_PARAM_CHK(NULL == YT_DISPATCH(unit), CMM_ERR_NOT_INIT);
 6596              		.loc 1 682 5 is_stmt 0 discriminator 3 view .LVU1885
 6597 0050 234B     		ldr	r3, .L669+20
 6598 0052 9968     		ldr	r1, [r3, #8]
 6599              	.LVL885:
 682:../switch_sdk/core/yt/yt_port.c ****     CMM_PARAM_CHK(NULL == YT_DISPATCH(unit), CMM_ERR_NOT_INIT);
 6600              		.loc 1 682 5 discriminator 3 view .LVU1886
 6601 0054 2348     		ldr	r0, .L669+24
 6602              	.LVL886:
 682:../switch_sdk/core/yt/yt_port.c ****     CMM_PARAM_CHK(NULL == YT_DISPATCH(unit), CMM_ERR_NOT_INIT);
 6603              		.loc 1 682 5 discriminator 3 view .LVU1887
 6604 0056 FFF7FEFF 		bl	osal_printf
 6605              	.LVL887:
 6606 005a F5E7     		b	.L648
 6607              	.LVL888:
 6608              	.L661:
 682:../switch_sdk/core/yt/yt_port.c ****     CMM_PARAM_CHK(NULL == YT_DISPATCH(unit), CMM_ERR_NOT_INIT);
 6609              		.loc 1 682 5 discriminator 3 view .LVU1888
 6610              	.LBE128:
 683:../switch_sdk/core/yt/yt_port.c ****     CMM_PARAM_CHK((!(YT_DISPATCH(unit)->is_inited)), CMM_ERR_NOT_INIT);
 6611              		.loc 1 683 5 is_stmt 1 discriminator 1 view .LVU1889
 683:../switch_sdk/core/yt/yt_port.c ****     CMM_PARAM_CHK((!(YT_DISPATCH(unit)->is_inited)), CMM_ERR_NOT_INIT);
 6612              		.loc 1 683 5 discriminator 1 view .LVU1890
 6613 005c 1E4B     		ldr	r3, .L669+12
 6614              	.LVL889:
 683:../switch_sdk/core/yt/yt_port.c ****     CMM_PARAM_CHK((!(YT_DISPATCH(unit)->is_inited)), CMM_ERR_NOT_INIT);
 6615              		.loc 1 683 5 is_stmt 0 discriminator 1 view .LVU1891
 6616 005e 1B78     		ldrb	r3, [r3]	@ zero_extendqisi2
 6617 0060 012B     		cmp	r3, #1
 6618 0062 01D8     		bhi	.L665
 6619              	.LVL890:
 6620              	.L651:
 683:../switch_sdk/core/yt/yt_port.c ****     CMM_PARAM_CHK((!(YT_DISPATCH(unit)->is_inited)), CMM_ERR_NOT_INIT);
 6621              		.loc 1 683 5 is_stmt 1 discriminator 5 view .LVU1892
 683:../switch_sdk/core/yt/yt_port.c ****     CMM_PARAM_CHK((!(YT_DISPATCH(unit)->is_inited)), CMM_ERR_NOT_INIT);
 6622              		.loc 1 683 5 discriminator 5 view .LVU1893
 683:../switch_sdk/core/yt/yt_port.c ****     CMM_PARAM_CHK((!(YT_DISPATCH(unit)->is_inited)), CMM_ERR_NOT_INIT);
 6623              		.loc 1 683 5 discriminator 5 view .LVU1894
 6624 0064 0420     		movs	r0, #4
 6625 0066 E9E7     		b	.L646
 6626              	.LVL891:
 6627              	.L665:
 683:../switch_sdk/core/yt/yt_port.c ****     CMM_PARAM_CHK((!(YT_DISPATCH(unit)->is_inited)), CMM_ERR_NOT_INIT);
 6628              		.loc 1 683 5 discriminator 3 view .LVU1895
 6629              	.LBB129:
 683:../switch_sdk/core/yt/yt_port.c ****     CMM_PARAM_CHK((!(YT_DISPATCH(unit)->is_inited)), CMM_ERR_NOT_INIT);
 6630              		.loc 1 683 5 discriminator 3 view .LVU1896
 6631 0068 1C4B     		ldr	r3, .L669+16
 6632 006a 1A69     		ldr	r2, [r3, #16]
 6633              	.LVL892:
 683:../switch_sdk/core/yt/yt_port.c ****     CMM_PARAM_CHK((!(YT_DISPATCH(unit)->is_inited)), CMM_ERR_NOT_INIT);
 6634              		.loc 1 683 5 is_stmt 0 discriminator 3 view .LVU1897
 6635 006c 1C4B     		ldr	r3, .L669+20
 6636 006e 9968     		ldr	r1, [r3, #8]
 6637              	.LVL893:
 683:../switch_sdk/core/yt/yt_port.c ****     CMM_PARAM_CHK((!(YT_DISPATCH(unit)->is_inited)), CMM_ERR_NOT_INIT);
 6638              		.loc 1 683 5 discriminator 3 view .LVU1898
 6639 0070 1C48     		ldr	r0, .L669+24
 6640 0072 FFF7FEFF 		bl	osal_printf
 6641              	.LVL894:
 6642 0076 F5E7     		b	.L651
 6643              	.LVL895:
 6644              	.L662:
 683:../switch_sdk/core/yt/yt_port.c ****     CMM_PARAM_CHK((!(YT_DISPATCH(unit)->is_inited)), CMM_ERR_NOT_INIT);
 6645              		.loc 1 683 5 discriminator 3 view .LVU1899
 6646              	.LBE129:
 684:../switch_sdk/core/yt/yt_port.c ****     CMM_PARAM_CHK((!(CMM_PORT_VALID(unit, port))), CMM_ERR_PORT);
 6647              		.loc 1 684 5 is_stmt 1 discriminator 1 view .LVU1900
 684:../switch_sdk/core/yt/yt_port.c ****     CMM_PARAM_CHK((!(CMM_PORT_VALID(unit, port))), CMM_ERR_PORT);
 6648              		.loc 1 684 5 discriminator 1 view .LVU1901
 6649 0078 174B     		ldr	r3, .L669+12
 6650              	.LVL896:
 684:../switch_sdk/core/yt/yt_port.c ****     CMM_PARAM_CHK((!(CMM_PORT_VALID(unit, port))), CMM_ERR_PORT);
 6651              		.loc 1 684 5 is_stmt 0 discriminator 1 view .LVU1902
 6652 007a 1B78     		ldrb	r3, [r3]	@ zero_extendqisi2
 6653 007c 012B     		cmp	r3, #1
 6654 007e 01D8     		bhi	.L666
 6655              	.LVL897:
 6656              	.L653:
 684:../switch_sdk/core/yt/yt_port.c ****     CMM_PARAM_CHK((!(CMM_PORT_VALID(unit, port))), CMM_ERR_PORT);
 6657              		.loc 1 684 5 is_stmt 1 discriminator 5 view .LVU1903
 684:../switch_sdk/core/yt/yt_port.c ****     CMM_PARAM_CHK((!(CMM_PORT_VALID(unit, port))), CMM_ERR_PORT);
 6658              		.loc 1 684 5 discriminator 5 view .LVU1904
 684:../switch_sdk/core/yt/yt_port.c ****     CMM_PARAM_CHK((!(CMM_PORT_VALID(unit, port))), CMM_ERR_PORT);
 6659              		.loc 1 684 5 discriminator 5 view .LVU1905
 6660 0080 0420     		movs	r0, #4
 6661 0082 DBE7     		b	.L646
 6662              	.LVL898:
 6663              	.L666:
 684:../switch_sdk/core/yt/yt_port.c ****     CMM_PARAM_CHK((!(CMM_PORT_VALID(unit, port))), CMM_ERR_PORT);
 6664              		.loc 1 684 5 discriminator 3 view .LVU1906
 6665              	.LBB130:
 684:../switch_sdk/core/yt/yt_port.c ****     CMM_PARAM_CHK((!(CMM_PORT_VALID(unit, port))), CMM_ERR_PORT);
 6666              		.loc 1 684 5 discriminator 3 view .LVU1907
 6667 0084 154B     		ldr	r3, .L669+16
 6668 0086 1A69     		ldr	r2, [r3, #16]
 6669              	.LVL899:
 684:../switch_sdk/core/yt/yt_port.c ****     CMM_PARAM_CHK((!(CMM_PORT_VALID(unit, port))), CMM_ERR_PORT);
 6670              		.loc 1 684 5 is_stmt 0 discriminator 3 view .LVU1908
 6671 0088 154B     		ldr	r3, .L669+20
 6672 008a 9968     		ldr	r1, [r3, #8]
 6673              	.LVL900:
 684:../switch_sdk/core/yt/yt_port.c ****     CMM_PARAM_CHK((!(CMM_PORT_VALID(unit, port))), CMM_ERR_PORT);
 6674              		.loc 1 684 5 discriminator 3 view .LVU1909
 6675 008c 1548     		ldr	r0, .L669+24
 6676 008e FFF7FEFF 		bl	osal_printf
 6677              	.LVL901:
 6678 0092 F5E7     		b	.L653
 6679              	.LVL902:
 6680              	.L654:
 684:../switch_sdk/core/yt/yt_port.c ****     CMM_PARAM_CHK((!(CMM_PORT_VALID(unit, port))), CMM_ERR_PORT);
 6681              		.loc 1 684 5 discriminator 3 view .LVU1910
 6682              	.LBE130:
 685:../switch_sdk/core/yt/yt_port.c ****     CMM_PARAM_CHK((PHY_EXTERNAL < type || PHY_INTERNAL > type), CMM_ERR_INPUT);
 6683              		.loc 1 685 5 is_stmt 1 discriminator 3 view .LVU1911
 685:../switch_sdk/core/yt/yt_port.c ****     CMM_PARAM_CHK((PHY_EXTERNAL < type || PHY_INTERNAL > type), CMM_ERR_INPUT);
 6684              		.loc 1 685 5 discriminator 3 view .LVU1912
 6685 0094 104B     		ldr	r3, .L669+12
 6686              	.LVL903:
 685:../switch_sdk/core/yt/yt_port.c ****     CMM_PARAM_CHK((PHY_EXTERNAL < type || PHY_INTERNAL > type), CMM_ERR_INPUT);
 6687              		.loc 1 685 5 is_stmt 0 discriminator 3 view .LVU1913
 6688 0096 1B78     		ldrb	r3, [r3]	@ zero_extendqisi2
 6689 0098 012B     		cmp	r3, #1
 6690 009a 01D8     		bhi	.L667
 6691              	.LVL904:
 6692              	.L656:
 685:../switch_sdk/core/yt/yt_port.c ****     CMM_PARAM_CHK((PHY_EXTERNAL < type || PHY_INTERNAL > type), CMM_ERR_INPUT);
 6693              		.loc 1 685 5 is_stmt 1 discriminator 7 view .LVU1914
 685:../switch_sdk/core/yt/yt_port.c ****     CMM_PARAM_CHK((PHY_EXTERNAL < type || PHY_INTERNAL > type), CMM_ERR_INPUT);
 6694              		.loc 1 685 5 discriminator 7 view .LVU1915
 685:../switch_sdk/core/yt/yt_port.c ****     CMM_PARAM_CHK((PHY_EXTERNAL < type || PHY_INTERNAL > type), CMM_ERR_INPUT);
 6695              		.loc 1 685 5 discriminator 7 view .LVU1916
 6696 009c 0E20     		movs	r0, #14
 6697 009e CDE7     		b	.L646
 6698              	.LVL905:
 6699              	.L667:
 685:../switch_sdk/core/yt/yt_port.c ****     CMM_PARAM_CHK((PHY_EXTERNAL < type || PHY_INTERNAL > type), CMM_ERR_INPUT);
 6700              		.loc 1 685 5 discriminator 5 view .LVU1917
 6701              	.LBB131:
 685:../switch_sdk/core/yt/yt_port.c ****     CMM_PARAM_CHK((PHY_EXTERNAL < type || PHY_INTERNAL > type), CMM_ERR_INPUT);
 6702              		.loc 1 685 5 discriminator 5 view .LVU1918
 6703 00a0 0E4B     		ldr	r3, .L669+16
 6704 00a2 9A6B     		ldr	r2, [r3, #56]
 6705              	.LVL906:
 685:../switch_sdk/core/yt/yt_port.c ****     CMM_PARAM_CHK((PHY_EXTERNAL < type || PHY_INTERNAL > type), CMM_ERR_INPUT);
 6706              		.loc 1 685 5 is_stmt 0 discriminator 5 view .LVU1919
 6707 00a4 0E4B     		ldr	r3, .L669+20
 6708 00a6 9968     		ldr	r1, [r3, #8]
 6709              	.LVL907:
 685:../switch_sdk/core/yt/yt_port.c ****     CMM_PARAM_CHK((PHY_EXTERNAL < type || PHY_INTERNAL > type), CMM_ERR_INPUT);
 6710              		.loc 1 685 5 discriminator 5 view .LVU1920
 6711 00a8 0E48     		ldr	r0, .L669+24
 6712 00aa FFF7FEFF 		bl	osal_printf
 6713              	.LVL908:
 6714 00ae F5E7     		b	.L656
 6715              	.LVL909:
 6716              	.L663:
 685:../switch_sdk/core/yt/yt_port.c ****     CMM_PARAM_CHK((PHY_EXTERNAL < type || PHY_INTERNAL > type), CMM_ERR_INPUT);
 6717              		.loc 1 685 5 discriminator 5 view .LVU1921
 6718              	.LBE131:
 686:../switch_sdk/core/yt/yt_port.c **** 
 6719              		.loc 1 686 5 is_stmt 1 discriminator 1 view .LVU1922
 686:../switch_sdk/core/yt/yt_port.c **** 
 6720              		.loc 1 686 5 discriminator 1 view .LVU1923
 6721 00b0 094B     		ldr	r3, .L669+12
 6722              	.LVL910:
 686:../switch_sdk/core/yt/yt_port.c **** 
 6723              		.loc 1 686 5 is_stmt 0 discriminator 1 view .LVU1924
 6724 00b2 1B78     		ldrb	r3, [r3]	@ zero_extendqisi2
 6725 00b4 012B     		cmp	r3, #1
 6726 00b6 01D8     		bhi	.L668
 6727              	.LVL911:
 6728              	.L658:
 686:../switch_sdk/core/yt/yt_port.c **** 
 6729              		.loc 1 686 5 is_stmt 1 discriminator 5 view .LVU1925
 686:../switch_sdk/core/yt/yt_port.c **** 
 6730              		.loc 1 686 5 discriminator 5 view .LVU1926
 686:../switch_sdk/core/yt/yt_port.c **** 
 6731              		.loc 1 686 5 discriminator 5 view .LVU1927
 6732 00b8 0520     		movs	r0, #5
 6733 00ba BFE7     		b	.L646
 6734              	.LVL912:
 6735              	.L668:
 686:../switch_sdk/core/yt/yt_port.c **** 
 6736              		.loc 1 686 5 discriminator 3 view .LVU1928
 6737              	.LBB132:
 686:../switch_sdk/core/yt/yt_port.c **** 
 6738              		.loc 1 686 5 discriminator 3 view .LVU1929
 6739 00bc 074B     		ldr	r3, .L669+16
 6740 00be 5A69     		ldr	r2, [r3, #20]
 6741              	.LVL913:
 686:../switch_sdk/core/yt/yt_port.c **** 
 6742              		.loc 1 686 5 is_stmt 0 discriminator 3 view .LVU1930
 6743 00c0 074B     		ldr	r3, .L669+20
 6744 00c2 9968     		ldr	r1, [r3, #8]
 6745              	.LVL914:
 686:../switch_sdk/core/yt/yt_port.c **** 
 6746              		.loc 1 686 5 discriminator 3 view .LVU1931
 6747 00c4 0748     		ldr	r0, .L669+24
 6748 00c6 FFF7FEFF 		bl	osal_printf
 6749              	.LVL915:
 6750 00ca F5E7     		b	.L658
 6751              	.L670:
 6752              		.align	2
 6753              	.L669:
 6754 00cc 00000000 		.word	gpfal_dispatch
 6755 00d0 00000000 		.word	gcal_inited
 6756 00d4 00000000 		.word	gpSwitchUnit
 6757 00d8 00000000 		.word	yt_debug_level
 6758 00dc 00000000 		.word	_yt_errmsg
 6759 00e0 00000000 		.word	_yt_prompt_msg
 6760 00e4 00000000 		.word	.LC0
 6761              	.LBE132:
 6762              		.cfi_endproc
 6763              	.LFE31:
 6765              		.section	.text.yt_port_phy_reg_get,"ax",%progbits
 6766              		.align	1
 6767              		.global	yt_port_phy_reg_get
 6768              		.syntax unified
 6769              		.thumb
 6770              		.thumb_func
 6772              	yt_port_phy_reg_get:
 6773              	.LVL916:
 6774              	.LFB32:
 690:../switch_sdk/core/yt/yt_port.c **** 
 691:../switch_sdk/core/yt/yt_port.c **** /**
 692:../switch_sdk/core/yt/yt_port.c ****  * @internal      yt_port_phy_reg_get
 693:../switch_sdk/core/yt/yt_port.c ****  * @endinternal
 694:../switch_sdk/core/yt/yt_port.c ****  *
 695:../switch_sdk/core/yt/yt_port.c ****  * @brief         Description
 696:../switch_sdk/core/yt/yt_port.c ****  * @note          APPLICABLE DEVICES  -Tiger
 697:../switch_sdk/core/yt/yt_port.c ****  * @param[in]     unit                -unit id
 698:../switch_sdk/core/yt/yt_port.c ****  * @param[in]     port                -port num
 699:../switch_sdk/core/yt/yt_port.c ****  * @param[in]     regAddr             -x
 700:../switch_sdk/core/yt/yt_port.c ****  * @param[out]    pData               -x
 701:../switch_sdk/core/yt/yt_port.c ****  * @param[in]     type                -phy type, internal or external phy
 702:../switch_sdk/core/yt/yt_port.c ****  * @retval        CMM_ERR_OK          -on success
 703:../switch_sdk/core/yt/yt_port.c ****  * @retval        CMM_ERR_FAIL        -on fail
 704:../switch_sdk/core/yt/yt_port.c ****  */
 705:../switch_sdk/core/yt/yt_port.c **** yt_ret_t yt_port_phy_reg_get(yt_unit_t unit, yt_port_t port, uint32_t regAddr, uint16_t *pData, yt_
 706:../switch_sdk/core/yt/yt_port.c **** {
 6775              		.loc 1 706 1 is_stmt 1 view -0
 6776              		.cfi_startproc
 6777              		@ args = 4, pretend = 0, frame = 0
 6778              		@ frame_needed = 0, uses_anonymous_args = 0
 6779              		.loc 1 706 1 is_stmt 0 view .LVU1933
 6780 0000 30B5     		push	{r4, r5, lr}
 6781              		.cfi_def_cfa_offset 12
 6782              		.cfi_offset 4, -12
 6783              		.cfi_offset 5, -8
 6784              		.cfi_offset 14, -4
 6785 0002 83B0     		sub	sp, sp, #12
 6786              		.cfi_def_cfa_offset 24
 6787 0004 9DF81850 		ldrb	r5, [sp, #24]	@ zero_extendqisi2
 707:../switch_sdk/core/yt/yt_port.c ****     CMM_PARAM_CHK((YT_UNIT_NUM <= unit), CMM_ERR_INPUT);
 6788              		.loc 1 707 5 is_stmt 1 view .LVU1934
 6789              		.loc 1 707 5 view .LVU1935
 6790 0008 D8B9     		cbnz	r0, .L687
 6791 000a 8446     		mov	ip, r0
 6792              		.loc 1 707 5 discriminator 2 view .LVU1936
 708:../switch_sdk/core/yt/yt_port.c ****     CMM_PARAM_CHK(NULL == YT_DISPATCH(unit), CMM_ERR_NOT_INIT);
 6793              		.loc 1 708 5 discriminator 2 view .LVU1937
 6794              		.loc 1 708 5 discriminator 2 view .LVU1938
 6795 000c 3748     		ldr	r0, .L698
 6796              	.LVL917:
 6797              		.loc 1 708 5 is_stmt 0 discriminator 2 view .LVU1939
 6798 000e 50F82C40 		ldr	r4, [r0, ip, lsl #2]
 6799 0012 2CB3     		cbz	r4, .L688
 6800              		.loc 1 708 5 is_stmt 1 discriminator 2 view .LVU1940
 709:../switch_sdk/core/yt/yt_port.c ****     CMM_PARAM_CHK((!(YT_DISPATCH(unit)->is_inited)), CMM_ERR_NOT_INIT);
 6801              		.loc 1 709 5 discriminator 2 view .LVU1941
 6802              		.loc 1 709 5 discriminator 2 view .LVU1942
 6803 0014 2078     		ldrb	r0, [r4]	@ zero_extendqisi2
 6804 0016 0028     		cmp	r0, #0
 6805 0018 30D0     		beq	.L689
 6806              		.loc 1 709 5 discriminator 2 view .LVU1943
 710:../switch_sdk/core/yt/yt_port.c ****     CMM_PARAM_CHK((!(CMM_PORT_VALID(unit, port))), CMM_ERR_PORT);
 6807              		.loc 1 710 5 discriminator 2 view .LVU1944
 6808              		.loc 1 710 5 discriminator 2 view .LVU1945
 6809 001a 3548     		ldr	r0, .L698+4
 6810 001c 0078     		ldrb	r0, [r0]	@ zero_extendqisi2
 6811 001e 0028     		cmp	r0, #0
 6812 0020 3AD0     		beq	.L679
 6813 0022 3448     		ldr	r0, .L698+8
 6814 0024 50F82C00 		ldr	r0, [r0, ip, lsl #2]
 6815 0028 007D     		ldrb	r0, [r0, #20]	@ zero_extendqisi2
 6816 002a 8842     		cmp	r0, r1
 6817 002c 34D9     		bls	.L679
 6818              		.loc 1 710 5 discriminator 4 view .LVU1946
 711:../switch_sdk/core/yt/yt_port.c ****     CMM_PARAM_CHK((NULL == pData), CMM_ERR_NULL_POINT);
 6819              		.loc 1 711 5 discriminator 4 view .LVU1947
 6820              		.loc 1 711 5 discriminator 4 view .LVU1948
 6821 002e 002B     		cmp	r3, #0
 6822 0030 40D0     		beq	.L690
 6823              		.loc 1 711 5 discriminator 2 view .LVU1949
 712:../switch_sdk/core/yt/yt_port.c ****     CMM_PARAM_CHK((PHY_EXTERNAL < type || PHY_INTERNAL > type), CMM_ERR_INPUT);
 6824              		.loc 1 712 5 discriminator 2 view .LVU1950
 6825              		.loc 1 712 5 discriminator 2 view .LVU1951
 6826 0032 012D     		cmp	r5, #1
 6827 0034 4CD8     		bhi	.L691
 6828              		.loc 1 712 5 discriminator 2 view .LVU1952
 713:../switch_sdk/core/yt/yt_port.c **** 
 714:../switch_sdk/core/yt/yt_port.c ****     return YT_DISPATCH(unit)->port_phy_reg_get(unit, port, regAddr, pData, type);
 6829              		.loc 1 714 5 discriminator 2 view .LVU1953
 6830              		.loc 1 714 29 is_stmt 0 discriminator 2 view .LVU1954
 6831 0036 D4F8CC45 		ldr	r4, [r4, #1484]
 6832              		.loc 1 714 12 discriminator 2 view .LVU1955
 6833 003a 0095     		str	r5, [sp]
 6834 003c 6046     		mov	r0, ip
 6835 003e A047     		blx	r4
 6836              	.LVL918:
 6837              		.loc 1 714 12 discriminator 2 view .LVU1956
 6838 0040 04E0     		b	.L671
 6839              	.LVL919:
 6840              	.L687:
 707:../switch_sdk/core/yt/yt_port.c ****     CMM_PARAM_CHK(NULL == YT_DISPATCH(unit), CMM_ERR_NOT_INIT);
 6841              		.loc 1 707 5 is_stmt 1 discriminator 1 view .LVU1957
 707:../switch_sdk/core/yt/yt_port.c ****     CMM_PARAM_CHK(NULL == YT_DISPATCH(unit), CMM_ERR_NOT_INIT);
 6842              		.loc 1 707 5 discriminator 1 view .LVU1958
 6843 0042 2D4B     		ldr	r3, .L698+12
 6844              	.LVL920:
 707:../switch_sdk/core/yt/yt_port.c ****     CMM_PARAM_CHK(NULL == YT_DISPATCH(unit), CMM_ERR_NOT_INIT);
 6845              		.loc 1 707 5 is_stmt 0 discriminator 1 view .LVU1959
 6846 0044 1B78     		ldrb	r3, [r3]	@ zero_extendqisi2
 6847 0046 012B     		cmp	r3, #1
 6848 0048 02D8     		bhi	.L692
 6849              	.LVL921:
 6850              	.L673:
 707:../switch_sdk/core/yt/yt_port.c ****     CMM_PARAM_CHK(NULL == YT_DISPATCH(unit), CMM_ERR_NOT_INIT);
 6851              		.loc 1 707 5 is_stmt 1 discriminator 5 view .LVU1960
 707:../switch_sdk/core/yt/yt_port.c ****     CMM_PARAM_CHK(NULL == YT_DISPATCH(unit), CMM_ERR_NOT_INIT);
 6852              		.loc 1 707 5 discriminator 5 view .LVU1961
 707:../switch_sdk/core/yt/yt_port.c ****     CMM_PARAM_CHK(NULL == YT_DISPATCH(unit), CMM_ERR_NOT_INIT);
 6853              		.loc 1 707 5 discriminator 5 view .LVU1962
 6854 004a 0520     		movs	r0, #5
 6855              	.L671:
 715:../switch_sdk/core/yt/yt_port.c **** }
 6856              		.loc 1 715 1 is_stmt 0 view .LVU1963
 6857 004c 03B0     		add	sp, sp, #12
 6858              		.cfi_remember_state
 6859              		.cfi_def_cfa_offset 12
 6860              		@ sp needed
 6861 004e 30BD     		pop	{r4, r5, pc}
 6862              	.LVL922:
 6863              	.L692:
 6864              		.cfi_restore_state
 707:../switch_sdk/core/yt/yt_port.c ****     CMM_PARAM_CHK(NULL == YT_DISPATCH(unit), CMM_ERR_NOT_INIT);
 6865              		.loc 1 707 5 is_stmt 1 discriminator 3 view .LVU1964
 6866              	.LBB133:
 707:../switch_sdk/core/yt/yt_port.c ****     CMM_PARAM_CHK(NULL == YT_DISPATCH(unit), CMM_ERR_NOT_INIT);
 6867              		.loc 1 707 5 discriminator 3 view .LVU1965
 6868 0050 2A4B     		ldr	r3, .L698+16
 6869 0052 5A69     		ldr	r2, [r3, #20]
 6870              	.LVL923:
 707:../switch_sdk/core/yt/yt_port.c ****     CMM_PARAM_CHK(NULL == YT_DISPATCH(unit), CMM_ERR_NOT_INIT);
 6871              		.loc 1 707 5 is_stmt 0 discriminator 3 view .LVU1966
 6872 0054 2A4B     		ldr	r3, .L698+20
 6873 0056 9968     		ldr	r1, [r3, #8]
 6874              	.LVL924:
 707:../switch_sdk/core/yt/yt_port.c ****     CMM_PARAM_CHK(NULL == YT_DISPATCH(unit), CMM_ERR_NOT_INIT);
 6875              		.loc 1 707 5 discriminator 3 view .LVU1967
 6876 0058 2A48     		ldr	r0, .L698+24
 6877              	.LVL925:
 707:../switch_sdk/core/yt/yt_port.c ****     CMM_PARAM_CHK(NULL == YT_DISPATCH(unit), CMM_ERR_NOT_INIT);
 6878              		.loc 1 707 5 discriminator 3 view .LVU1968
 6879 005a FFF7FEFF 		bl	osal_printf
 6880              	.LVL926:
 6881 005e F4E7     		b	.L673
 6882              	.LVL927:
 6883              	.L688:
 707:../switch_sdk/core/yt/yt_port.c ****     CMM_PARAM_CHK(NULL == YT_DISPATCH(unit), CMM_ERR_NOT_INIT);
 6884              		.loc 1 707 5 discriminator 3 view .LVU1969
 6885              	.LBE133:
 708:../switch_sdk/core/yt/yt_port.c ****     CMM_PARAM_CHK((!(YT_DISPATCH(unit)->is_inited)), CMM_ERR_NOT_INIT);
 6886              		.loc 1 708 5 is_stmt 1 discriminator 1 view .LVU1970
 708:../switch_sdk/core/yt/yt_port.c ****     CMM_PARAM_CHK((!(YT_DISPATCH(unit)->is_inited)), CMM_ERR_NOT_INIT);
 6887              		.loc 1 708 5 discriminator 1 view .LVU1971
 6888 0060 254B     		ldr	r3, .L698+12
 6889              	.LVL928:
 708:../switch_sdk/core/yt/yt_port.c ****     CMM_PARAM_CHK((!(YT_DISPATCH(unit)->is_inited)), CMM_ERR_NOT_INIT);
 6890              		.loc 1 708 5 is_stmt 0 discriminator 1 view .LVU1972
 6891 0062 1B78     		ldrb	r3, [r3]	@ zero_extendqisi2
 6892 0064 012B     		cmp	r3, #1
 6893 0066 01D8     		bhi	.L693
 6894              	.LVL929:
 6895              	.L676:
 708:../switch_sdk/core/yt/yt_port.c ****     CMM_PARAM_CHK((!(YT_DISPATCH(unit)->is_inited)), CMM_ERR_NOT_INIT);
 6896              		.loc 1 708 5 is_stmt 1 discriminator 5 view .LVU1973
 708:../switch_sdk/core/yt/yt_port.c ****     CMM_PARAM_CHK((!(YT_DISPATCH(unit)->is_inited)), CMM_ERR_NOT_INIT);
 6897              		.loc 1 708 5 discriminator 5 view .LVU1974
 708:../switch_sdk/core/yt/yt_port.c ****     CMM_PARAM_CHK((!(YT_DISPATCH(unit)->is_inited)), CMM_ERR_NOT_INIT);
 6898              		.loc 1 708 5 discriminator 5 view .LVU1975
 6899 0068 0420     		movs	r0, #4
 6900 006a EFE7     		b	.L671
 6901              	.LVL930:
 6902              	.L693:
 708:../switch_sdk/core/yt/yt_port.c ****     CMM_PARAM_CHK((!(YT_DISPATCH(unit)->is_inited)), CMM_ERR_NOT_INIT);
 6903              		.loc 1 708 5 discriminator 3 view .LVU1976
 6904              	.LBB134:
 708:../switch_sdk/core/yt/yt_port.c ****     CMM_PARAM_CHK((!(YT_DISPATCH(unit)->is_inited)), CMM_ERR_NOT_INIT);
 6905              		.loc 1 708 5 discriminator 3 view .LVU1977
 6906 006c 234B     		ldr	r3, .L698+16
 6907 006e 1A69     		ldr	r2, [r3, #16]
 6908              	.LVL931:
 708:../switch_sdk/core/yt/yt_port.c ****     CMM_PARAM_CHK((!(YT_DISPATCH(unit)->is_inited)), CMM_ERR_NOT_INIT);
 6909              		.loc 1 708 5 is_stmt 0 discriminator 3 view .LVU1978
 6910 0070 234B     		ldr	r3, .L698+20
 6911 0072 9968     		ldr	r1, [r3, #8]
 6912              	.LVL932:
 708:../switch_sdk/core/yt/yt_port.c ****     CMM_PARAM_CHK((!(YT_DISPATCH(unit)->is_inited)), CMM_ERR_NOT_INIT);
 6913              		.loc 1 708 5 discriminator 3 view .LVU1979
 6914 0074 2348     		ldr	r0, .L698+24
 6915 0076 FFF7FEFF 		bl	osal_printf
 6916              	.LVL933:
 6917 007a F5E7     		b	.L676
 6918              	.LVL934:
 6919              	.L689:
 708:../switch_sdk/core/yt/yt_port.c ****     CMM_PARAM_CHK((!(YT_DISPATCH(unit)->is_inited)), CMM_ERR_NOT_INIT);
 6920              		.loc 1 708 5 discriminator 3 view .LVU1980
 6921              	.LBE134:
 709:../switch_sdk/core/yt/yt_port.c ****     CMM_PARAM_CHK((!(CMM_PORT_VALID(unit, port))), CMM_ERR_PORT);
 6922              		.loc 1 709 5 is_stmt 1 discriminator 1 view .LVU1981
 709:../switch_sdk/core/yt/yt_port.c ****     CMM_PARAM_CHK((!(CMM_PORT_VALID(unit, port))), CMM_ERR_PORT);
 6923              		.loc 1 709 5 discriminator 1 view .LVU1982
 6924 007c 1E4B     		ldr	r3, .L698+12
 6925              	.LVL935:
 709:../switch_sdk/core/yt/yt_port.c ****     CMM_PARAM_CHK((!(CMM_PORT_VALID(unit, port))), CMM_ERR_PORT);
 6926              		.loc 1 709 5 is_stmt 0 discriminator 1 view .LVU1983
 6927 007e 1B78     		ldrb	r3, [r3]	@ zero_extendqisi2
 6928 0080 012B     		cmp	r3, #1
 6929 0082 01D8     		bhi	.L694
 6930              	.LVL936:
 6931              	.L678:
 709:../switch_sdk/core/yt/yt_port.c ****     CMM_PARAM_CHK((!(CMM_PORT_VALID(unit, port))), CMM_ERR_PORT);
 6932              		.loc 1 709 5 is_stmt 1 discriminator 5 view .LVU1984
 709:../switch_sdk/core/yt/yt_port.c ****     CMM_PARAM_CHK((!(CMM_PORT_VALID(unit, port))), CMM_ERR_PORT);
 6933              		.loc 1 709 5 discriminator 5 view .LVU1985
 709:../switch_sdk/core/yt/yt_port.c ****     CMM_PARAM_CHK((!(CMM_PORT_VALID(unit, port))), CMM_ERR_PORT);
 6934              		.loc 1 709 5 discriminator 5 view .LVU1986
 6935 0084 0420     		movs	r0, #4
 6936 0086 E1E7     		b	.L671
 6937              	.LVL937:
 6938              	.L694:
 709:../switch_sdk/core/yt/yt_port.c ****     CMM_PARAM_CHK((!(CMM_PORT_VALID(unit, port))), CMM_ERR_PORT);
 6939              		.loc 1 709 5 discriminator 3 view .LVU1987
 6940              	.LBB135:
 709:../switch_sdk/core/yt/yt_port.c ****     CMM_PARAM_CHK((!(CMM_PORT_VALID(unit, port))), CMM_ERR_PORT);
 6941              		.loc 1 709 5 discriminator 3 view .LVU1988
 6942 0088 1C4B     		ldr	r3, .L698+16
 6943 008a 1A69     		ldr	r2, [r3, #16]
 6944              	.LVL938:
 709:../switch_sdk/core/yt/yt_port.c ****     CMM_PARAM_CHK((!(CMM_PORT_VALID(unit, port))), CMM_ERR_PORT);
 6945              		.loc 1 709 5 is_stmt 0 discriminator 3 view .LVU1989
 6946 008c 1C4B     		ldr	r3, .L698+20
 6947 008e 9968     		ldr	r1, [r3, #8]
 6948              	.LVL939:
 709:../switch_sdk/core/yt/yt_port.c ****     CMM_PARAM_CHK((!(CMM_PORT_VALID(unit, port))), CMM_ERR_PORT);
 6949              		.loc 1 709 5 discriminator 3 view .LVU1990
 6950 0090 1C48     		ldr	r0, .L698+24
 6951 0092 FFF7FEFF 		bl	osal_printf
 6952              	.LVL940:
 6953 0096 F5E7     		b	.L678
 6954              	.LVL941:
 6955              	.L679:
 709:../switch_sdk/core/yt/yt_port.c ****     CMM_PARAM_CHK((!(CMM_PORT_VALID(unit, port))), CMM_ERR_PORT);
 6956              		.loc 1 709 5 discriminator 3 view .LVU1991
 6957              	.LBE135:
 710:../switch_sdk/core/yt/yt_port.c ****     CMM_PARAM_CHK((NULL == pData), CMM_ERR_NULL_POINT);
 6958              		.loc 1 710 5 is_stmt 1 discriminator 3 view .LVU1992
 710:../switch_sdk/core/yt/yt_port.c ****     CMM_PARAM_CHK((NULL == pData), CMM_ERR_NULL_POINT);
 6959              		.loc 1 710 5 discriminator 3 view .LVU1993
 6960 0098 174B     		ldr	r3, .L698+12
 6961              	.LVL942:
 710:../switch_sdk/core/yt/yt_port.c ****     CMM_PARAM_CHK((NULL == pData), CMM_ERR_NULL_POINT);
 6962              		.loc 1 710 5 is_stmt 0 discriminator 3 view .LVU1994
 6963 009a 1B78     		ldrb	r3, [r3]	@ zero_extendqisi2
 6964 009c 012B     		cmp	r3, #1
 6965 009e 01D8     		bhi	.L695
 6966              	.LVL943:
 6967              	.L681:
 710:../switch_sdk/core/yt/yt_port.c ****     CMM_PARAM_CHK((NULL == pData), CMM_ERR_NULL_POINT);
 6968              		.loc 1 710 5 is_stmt 1 discriminator 7 view .LVU1995
 710:../switch_sdk/core/yt/yt_port.c ****     CMM_PARAM_CHK((NULL == pData), CMM_ERR_NULL_POINT);
 6969              		.loc 1 710 5 discriminator 7 view .LVU1996
 710:../switch_sdk/core/yt/yt_port.c ****     CMM_PARAM_CHK((NULL == pData), CMM_ERR_NULL_POINT);
 6970              		.loc 1 710 5 discriminator 7 view .LVU1997
 6971 00a0 0E20     		movs	r0, #14
 6972 00a2 D3E7     		b	.L671
 6973              	.LVL944:
 6974              	.L695:
 710:../switch_sdk/core/yt/yt_port.c ****     CMM_PARAM_CHK((NULL == pData), CMM_ERR_NULL_POINT);
 6975              		.loc 1 710 5 discriminator 5 view .LVU1998
 6976              	.LBB136:
 710:../switch_sdk/core/yt/yt_port.c ****     CMM_PARAM_CHK((NULL == pData), CMM_ERR_NULL_POINT);
 6977              		.loc 1 710 5 discriminator 5 view .LVU1999
 6978 00a4 154B     		ldr	r3, .L698+16
 6979 00a6 9A6B     		ldr	r2, [r3, #56]
 6980              	.LVL945:
 710:../switch_sdk/core/yt/yt_port.c ****     CMM_PARAM_CHK((NULL == pData), CMM_ERR_NULL_POINT);
 6981              		.loc 1 710 5 is_stmt 0 discriminator 5 view .LVU2000
 6982 00a8 154B     		ldr	r3, .L698+20
 6983 00aa 9968     		ldr	r1, [r3, #8]
 6984              	.LVL946:
 710:../switch_sdk/core/yt/yt_port.c ****     CMM_PARAM_CHK((NULL == pData), CMM_ERR_NULL_POINT);
 6985              		.loc 1 710 5 discriminator 5 view .LVU2001
 6986 00ac 1548     		ldr	r0, .L698+24
 6987 00ae FFF7FEFF 		bl	osal_printf
 6988              	.LVL947:
 6989 00b2 F5E7     		b	.L681
 6990              	.LVL948:
 6991              	.L690:
 710:../switch_sdk/core/yt/yt_port.c ****     CMM_PARAM_CHK((NULL == pData), CMM_ERR_NULL_POINT);
 6992              		.loc 1 710 5 discriminator 5 view .LVU2002
 6993              	.LBE136:
 711:../switch_sdk/core/yt/yt_port.c ****     CMM_PARAM_CHK((PHY_EXTERNAL < type || PHY_INTERNAL > type), CMM_ERR_INPUT);
 6994              		.loc 1 711 5 is_stmt 1 discriminator 1 view .LVU2003
 711:../switch_sdk/core/yt/yt_port.c ****     CMM_PARAM_CHK((PHY_EXTERNAL < type || PHY_INTERNAL > type), CMM_ERR_INPUT);
 6995              		.loc 1 711 5 discriminator 1 view .LVU2004
 6996 00b4 104B     		ldr	r3, .L698+12
 6997              	.LVL949:
 711:../switch_sdk/core/yt/yt_port.c ****     CMM_PARAM_CHK((PHY_EXTERNAL < type || PHY_INTERNAL > type), CMM_ERR_INPUT);
 6998              		.loc 1 711 5 is_stmt 0 discriminator 1 view .LVU2005
 6999 00b6 1B78     		ldrb	r3, [r3]	@ zero_extendqisi2
 7000 00b8 012B     		cmp	r3, #1
 7001 00ba 01D8     		bhi	.L696
 7002              	.LVL950:
 7003              	.L683:
 711:../switch_sdk/core/yt/yt_port.c ****     CMM_PARAM_CHK((PHY_EXTERNAL < type || PHY_INTERNAL > type), CMM_ERR_INPUT);
 7004              		.loc 1 711 5 is_stmt 1 discriminator 5 view .LVU2006
 711:../switch_sdk/core/yt/yt_port.c ****     CMM_PARAM_CHK((PHY_EXTERNAL < type || PHY_INTERNAL > type), CMM_ERR_INPUT);
 7005              		.loc 1 711 5 discriminator 5 view .LVU2007
 711:../switch_sdk/core/yt/yt_port.c ****     CMM_PARAM_CHK((PHY_EXTERNAL < type || PHY_INTERNAL > type), CMM_ERR_INPUT);
 7006              		.loc 1 711 5 discriminator 5 view .LVU2008
 7007 00bc 0220     		movs	r0, #2
 7008 00be C5E7     		b	.L671
 7009              	.LVL951:
 7010              	.L696:
 711:../switch_sdk/core/yt/yt_port.c ****     CMM_PARAM_CHK((PHY_EXTERNAL < type || PHY_INTERNAL > type), CMM_ERR_INPUT);
 7011              		.loc 1 711 5 discriminator 3 view .LVU2009
 7012              	.LBB137:
 711:../switch_sdk/core/yt/yt_port.c ****     CMM_PARAM_CHK((PHY_EXTERNAL < type || PHY_INTERNAL > type), CMM_ERR_INPUT);
 7013              		.loc 1 711 5 discriminator 3 view .LVU2010
 7014 00c0 0E4B     		ldr	r3, .L698+16
 7015 00c2 9A68     		ldr	r2, [r3, #8]
 7016              	.LVL952:
 711:../switch_sdk/core/yt/yt_port.c ****     CMM_PARAM_CHK((PHY_EXTERNAL < type || PHY_INTERNAL > type), CMM_ERR_INPUT);
 7017              		.loc 1 711 5 is_stmt 0 discriminator 3 view .LVU2011
 7018 00c4 0E4B     		ldr	r3, .L698+20
 7019 00c6 9968     		ldr	r1, [r3, #8]
 7020              	.LVL953:
 711:../switch_sdk/core/yt/yt_port.c ****     CMM_PARAM_CHK((PHY_EXTERNAL < type || PHY_INTERNAL > type), CMM_ERR_INPUT);
 7021              		.loc 1 711 5 discriminator 3 view .LVU2012
 7022 00c8 0E48     		ldr	r0, .L698+24
 7023 00ca FFF7FEFF 		bl	osal_printf
 7024              	.LVL954:
 7025 00ce F5E7     		b	.L683
 7026              	.LVL955:
 7027              	.L691:
 711:../switch_sdk/core/yt/yt_port.c ****     CMM_PARAM_CHK((PHY_EXTERNAL < type || PHY_INTERNAL > type), CMM_ERR_INPUT);
 7028              		.loc 1 711 5 discriminator 3 view .LVU2013
 7029              	.LBE137:
 712:../switch_sdk/core/yt/yt_port.c **** 
 7030              		.loc 1 712 5 is_stmt 1 discriminator 1 view .LVU2014
 712:../switch_sdk/core/yt/yt_port.c **** 
 7031              		.loc 1 712 5 discriminator 1 view .LVU2015
 7032 00d0 094B     		ldr	r3, .L698+12
 7033              	.LVL956:
 712:../switch_sdk/core/yt/yt_port.c **** 
 7034              		.loc 1 712 5 is_stmt 0 discriminator 1 view .LVU2016
 7035 00d2 1B78     		ldrb	r3, [r3]	@ zero_extendqisi2
 7036 00d4 012B     		cmp	r3, #1
 7037 00d6 01D8     		bhi	.L697
 7038              	.LVL957:
 7039              	.L685:
 712:../switch_sdk/core/yt/yt_port.c **** 
 7040              		.loc 1 712 5 is_stmt 1 discriminator 5 view .LVU2017
 712:../switch_sdk/core/yt/yt_port.c **** 
 7041              		.loc 1 712 5 discriminator 5 view .LVU2018
 712:../switch_sdk/core/yt/yt_port.c **** 
 7042              		.loc 1 712 5 discriminator 5 view .LVU2019
 7043 00d8 0520     		movs	r0, #5
 7044 00da B7E7     		b	.L671
 7045              	.LVL958:
 7046              	.L697:
 712:../switch_sdk/core/yt/yt_port.c **** 
 7047              		.loc 1 712 5 discriminator 3 view .LVU2020
 7048              	.LBB138:
 712:../switch_sdk/core/yt/yt_port.c **** 
 7049              		.loc 1 712 5 discriminator 3 view .LVU2021
 7050 00dc 074B     		ldr	r3, .L698+16
 7051 00de 5A69     		ldr	r2, [r3, #20]
 7052              	.LVL959:
 712:../switch_sdk/core/yt/yt_port.c **** 
 7053              		.loc 1 712 5 is_stmt 0 discriminator 3 view .LVU2022
 7054 00e0 074B     		ldr	r3, .L698+20
 7055 00e2 9968     		ldr	r1, [r3, #8]
 7056              	.LVL960:
 712:../switch_sdk/core/yt/yt_port.c **** 
 7057              		.loc 1 712 5 discriminator 3 view .LVU2023
 7058 00e4 0748     		ldr	r0, .L698+24
 7059 00e6 FFF7FEFF 		bl	osal_printf
 7060              	.LVL961:
 7061 00ea F5E7     		b	.L685
 7062              	.L699:
 7063              		.align	2
 7064              	.L698:
 7065 00ec 00000000 		.word	gpfal_dispatch
 7066 00f0 00000000 		.word	gcal_inited
 7067 00f4 00000000 		.word	gpSwitchUnit
 7068 00f8 00000000 		.word	yt_debug_level
 7069 00fc 00000000 		.word	_yt_errmsg
 7070 0100 00000000 		.word	_yt_prompt_msg
 7071 0104 00000000 		.word	.LC0
 7072              	.LBE138:
 7073              		.cfi_endproc
 7074              	.LFE32:
 7076              		.section	.text.yt_port_eee_enable_set,"ax",%progbits
 7077              		.align	1
 7078              		.global	yt_port_eee_enable_set
 7079              		.syntax unified
 7080              		.thumb
 7081              		.thumb_func
 7083              	yt_port_eee_enable_set:
 7084              	.LVL962:
 7085              	.LFB33:
 716:../switch_sdk/core/yt/yt_port.c **** /**
 717:../switch_sdk/core/yt/yt_port.c ****  * @internal      yt_port_eee_enable_set
 718:../switch_sdk/core/yt/yt_port.c ****  * @endinternal
 719:../switch_sdk/core/yt/yt_port.c ****  *
 720:../switch_sdk/core/yt/yt_port.c ****  * @brief         Description
 721:../switch_sdk/core/yt/yt_port.c ****  * @note          APPLICABLE DEVICES  -Tiger
 722:../switch_sdk/core/yt/yt_port.c ****  * @param[in]     unit                -unit id
 723:../switch_sdk/core/yt/yt_port.c ****  * @param[in]     port                -port num
 724:../switch_sdk/core/yt/yt_port.c ****  * @param[in]     enable              -enable or disable
 725:../switch_sdk/core/yt/yt_port.c ****  * @retval        CMM_ERR_OK          -on success
 726:../switch_sdk/core/yt/yt_port.c ****  * @retval        CMM_ERR_FAIL        -on fail
 727:../switch_sdk/core/yt/yt_port.c ****  */
 728:../switch_sdk/core/yt/yt_port.c **** yt_ret_t yt_port_eee_enable_set(yt_unit_t unit, yt_port_t port, yt_enable_t enable)
 729:../switch_sdk/core/yt/yt_port.c **** {
 7086              		.loc 1 729 1 is_stmt 1 view -0
 7087              		.cfi_startproc
 7088              		@ args = 0, pretend = 0, frame = 0
 7089              		@ frame_needed = 0, uses_anonymous_args = 0
 7090              		.loc 1 729 1 is_stmt 0 view .LVU2025
 7091 0000 08B5     		push	{r3, lr}
 7092              		.cfi_def_cfa_offset 8
 7093              		.cfi_offset 3, -8
 7094              		.cfi_offset 14, -4
 730:../switch_sdk/core/yt/yt_port.c ****     CMM_PARAM_CHK((YT_UNIT_NUM <= unit), CMM_ERR_INPUT);
 7095              		.loc 1 730 5 is_stmt 1 view .LVU2026
 7096              		.loc 1 730 5 view .LVU2027
 7097 0002 C0B9     		cbnz	r0, .L714
 7098 0004 8446     		mov	ip, r0
 7099              		.loc 1 730 5 discriminator 2 view .LVU2028
 731:../switch_sdk/core/yt/yt_port.c ****     CMM_PARAM_CHK(NULL == YT_DISPATCH(unit), CMM_ERR_NOT_INIT);
 7100              		.loc 1 731 5 discriminator 2 view .LVU2029
 7101              		.loc 1 731 5 discriminator 2 view .LVU2030
 7102 0006 2F4B     		ldr	r3, .L723
 7103 0008 53F82030 		ldr	r3, [r3, r0, lsl #2]
 7104 000c 0BB3     		cbz	r3, .L715
 7105              		.loc 1 731 5 discriminator 2 view .LVU2031
 732:../switch_sdk/core/yt/yt_port.c ****     CMM_PARAM_CHK((!(YT_DISPATCH(unit)->is_inited)), CMM_ERR_NOT_INIT);
 7106              		.loc 1 732 5 discriminator 2 view .LVU2032
 7107              		.loc 1 732 5 discriminator 2 view .LVU2033
 7108 000e 1878     		ldrb	r0, [r3]	@ zero_extendqisi2
 7109              	.LVL963:
 7110              		.loc 1 732 5 is_stmt 0 discriminator 2 view .LVU2034
 7111 0010 0028     		cmp	r0, #0
 7112 0012 2CD0     		beq	.L716
 7113              		.loc 1 732 5 is_stmt 1 discriminator 2 view .LVU2035
 733:../switch_sdk/core/yt/yt_port.c ****     CMM_PARAM_CHK((!(CMM_PORT_VALID(unit, port))), CMM_ERR_PORT);
 7114              		.loc 1 733 5 discriminator 2 view .LVU2036
 7115              		.loc 1 733 5 discriminator 2 view .LVU2037
 7116 0014 2C48     		ldr	r0, .L723+4
 7117 0016 0078     		ldrb	r0, [r0]	@ zero_extendqisi2
 7118 0018 0028     		cmp	r0, #0
 7119 001a 36D0     		beq	.L708
 7120 001c 2B48     		ldr	r0, .L723+8
 7121 001e 50F82C00 		ldr	r0, [r0, ip, lsl #2]
 7122 0022 007D     		ldrb	r0, [r0, #20]	@ zero_extendqisi2
 7123 0024 8842     		cmp	r0, r1
 7124 0026 30D9     		bls	.L708
 7125              		.loc 1 733 5 discriminator 4 view .LVU2038
 734:../switch_sdk/core/yt/yt_port.c ****     CMM_PARAM_CHK((YT_ENABLE < enable || YT_DISABLE > enable), CMM_ERR_INPUT);
 7126              		.loc 1 734 5 discriminator 4 view .LVU2039
 7127              		.loc 1 734 5 discriminator 4 view .LVU2040
 7128 0028 012A     		cmp	r2, #1
 7129 002a 3CD8     		bhi	.L717
 7130              		.loc 1 734 5 discriminator 2 view .LVU2041
 735:../switch_sdk/core/yt/yt_port.c **** 
 736:../switch_sdk/core/yt/yt_port.c ****     return YT_DISPATCH(unit)->port_eee_enable_set(unit, port, enable);
 7131              		.loc 1 736 5 discriminator 2 view .LVU2042
 7132              		.loc 1 736 29 is_stmt 0 discriminator 2 view .LVU2043
 7133 002c D3F8D035 		ldr	r3, [r3, #1488]
 7134              		.loc 1 736 12 discriminator 2 view .LVU2044
 7135 0030 6046     		mov	r0, ip
 7136 0032 9847     		blx	r3
 7137              	.LVL964:
 7138              	.L700:
 737:../switch_sdk/core/yt/yt_port.c **** }
 7139              		.loc 1 737 1 view .LVU2045
 7140 0034 08BD     		pop	{r3, pc}
 7141              	.LVL965:
 7142              	.L714:
 730:../switch_sdk/core/yt/yt_port.c ****     CMM_PARAM_CHK(NULL == YT_DISPATCH(unit), CMM_ERR_NOT_INIT);
 7143              		.loc 1 730 5 is_stmt 1 discriminator 1 view .LVU2046
 730:../switch_sdk/core/yt/yt_port.c ****     CMM_PARAM_CHK(NULL == YT_DISPATCH(unit), CMM_ERR_NOT_INIT);
 7144              		.loc 1 730 5 discriminator 1 view .LVU2047
 7145 0036 264B     		ldr	r3, .L723+12
 7146 0038 1B78     		ldrb	r3, [r3]	@ zero_extendqisi2
 7147 003a 012B     		cmp	r3, #1
 7148 003c 01D8     		bhi	.L718
 7149              	.LVL966:
 7150              	.L702:
 730:../switch_sdk/core/yt/yt_port.c ****     CMM_PARAM_CHK(NULL == YT_DISPATCH(unit), CMM_ERR_NOT_INIT);
 7151              		.loc 1 730 5 discriminator 5 view .LVU2048
 730:../switch_sdk/core/yt/yt_port.c ****     CMM_PARAM_CHK(NULL == YT_DISPATCH(unit), CMM_ERR_NOT_INIT);
 7152              		.loc 1 730 5 discriminator 5 view .LVU2049
 730:../switch_sdk/core/yt/yt_port.c ****     CMM_PARAM_CHK(NULL == YT_DISPATCH(unit), CMM_ERR_NOT_INIT);
 7153              		.loc 1 730 5 discriminator 5 view .LVU2050
 7154 003e 0520     		movs	r0, #5
 7155 0040 F8E7     		b	.L700
 7156              	.LVL967:
 7157              	.L718:
 730:../switch_sdk/core/yt/yt_port.c ****     CMM_PARAM_CHK(NULL == YT_DISPATCH(unit), CMM_ERR_NOT_INIT);
 7158              		.loc 1 730 5 discriminator 3 view .LVU2051
 7159              	.LBB139:
 730:../switch_sdk/core/yt/yt_port.c ****     CMM_PARAM_CHK(NULL == YT_DISPATCH(unit), CMM_ERR_NOT_INIT);
 7160              		.loc 1 730 5 discriminator 3 view .LVU2052
 7161 0042 244B     		ldr	r3, .L723+16
 7162 0044 5A69     		ldr	r2, [r3, #20]
 7163              	.LVL968:
 730:../switch_sdk/core/yt/yt_port.c ****     CMM_PARAM_CHK(NULL == YT_DISPATCH(unit), CMM_ERR_NOT_INIT);
 7164              		.loc 1 730 5 is_stmt 0 discriminator 3 view .LVU2053
 7165 0046 244B     		ldr	r3, .L723+20
 7166 0048 9968     		ldr	r1, [r3, #8]
 7167              	.LVL969:
 730:../switch_sdk/core/yt/yt_port.c ****     CMM_PARAM_CHK(NULL == YT_DISPATCH(unit), CMM_ERR_NOT_INIT);
 7168              		.loc 1 730 5 discriminator 3 view .LVU2054
 7169 004a 2448     		ldr	r0, .L723+24
 7170              	.LVL970:
 730:../switch_sdk/core/yt/yt_port.c ****     CMM_PARAM_CHK(NULL == YT_DISPATCH(unit), CMM_ERR_NOT_INIT);
 7171              		.loc 1 730 5 discriminator 3 view .LVU2055
 7172 004c FFF7FEFF 		bl	osal_printf
 7173              	.LVL971:
 7174 0050 F5E7     		b	.L702
 7175              	.LVL972:
 7176              	.L715:
 730:../switch_sdk/core/yt/yt_port.c ****     CMM_PARAM_CHK(NULL == YT_DISPATCH(unit), CMM_ERR_NOT_INIT);
 7177              		.loc 1 730 5 discriminator 3 view .LVU2056
 7178              	.LBE139:
 731:../switch_sdk/core/yt/yt_port.c ****     CMM_PARAM_CHK((!(YT_DISPATCH(unit)->is_inited)), CMM_ERR_NOT_INIT);
 7179              		.loc 1 731 5 is_stmt 1 discriminator 1 view .LVU2057
 731:../switch_sdk/core/yt/yt_port.c ****     CMM_PARAM_CHK((!(YT_DISPATCH(unit)->is_inited)), CMM_ERR_NOT_INIT);
 7180              		.loc 1 731 5 discriminator 1 view .LVU2058
 7181 0052 1F4B     		ldr	r3, .L723+12
 7182 0054 1B78     		ldrb	r3, [r3]	@ zero_extendqisi2
 7183 0056 012B     		cmp	r3, #1
 7184 0058 01D8     		bhi	.L719
 7185              	.LVL973:
 7186              	.L705:
 731:../switch_sdk/core/yt/yt_port.c ****     CMM_PARAM_CHK((!(YT_DISPATCH(unit)->is_inited)), CMM_ERR_NOT_INIT);
 7187              		.loc 1 731 5 discriminator 5 view .LVU2059
 731:../switch_sdk/core/yt/yt_port.c ****     CMM_PARAM_CHK((!(YT_DISPATCH(unit)->is_inited)), CMM_ERR_NOT_INIT);
 7188              		.loc 1 731 5 discriminator 5 view .LVU2060
 731:../switch_sdk/core/yt/yt_port.c ****     CMM_PARAM_CHK((!(YT_DISPATCH(unit)->is_inited)), CMM_ERR_NOT_INIT);
 7189              		.loc 1 731 5 discriminator 5 view .LVU2061
 7190 005a 0420     		movs	r0, #4
 7191 005c EAE7     		b	.L700
 7192              	.LVL974:
 7193              	.L719:
 731:../switch_sdk/core/yt/yt_port.c ****     CMM_PARAM_CHK((!(YT_DISPATCH(unit)->is_inited)), CMM_ERR_NOT_INIT);
 7194              		.loc 1 731 5 discriminator 3 view .LVU2062
 7195              	.LBB140:
 731:../switch_sdk/core/yt/yt_port.c ****     CMM_PARAM_CHK((!(YT_DISPATCH(unit)->is_inited)), CMM_ERR_NOT_INIT);
 7196              		.loc 1 731 5 discriminator 3 view .LVU2063
 7197 005e 1D4B     		ldr	r3, .L723+16
 7198 0060 1A69     		ldr	r2, [r3, #16]
 7199              	.LVL975:
 731:../switch_sdk/core/yt/yt_port.c ****     CMM_PARAM_CHK((!(YT_DISPATCH(unit)->is_inited)), CMM_ERR_NOT_INIT);
 7200              		.loc 1 731 5 is_stmt 0 discriminator 3 view .LVU2064
 7201 0062 1D4B     		ldr	r3, .L723+20
 7202 0064 9968     		ldr	r1, [r3, #8]
 7203              	.LVL976:
 731:../switch_sdk/core/yt/yt_port.c ****     CMM_PARAM_CHK((!(YT_DISPATCH(unit)->is_inited)), CMM_ERR_NOT_INIT);
 7204              		.loc 1 731 5 discriminator 3 view .LVU2065
 7205 0066 1D48     		ldr	r0, .L723+24
 7206              	.LVL977:
 731:../switch_sdk/core/yt/yt_port.c ****     CMM_PARAM_CHK((!(YT_DISPATCH(unit)->is_inited)), CMM_ERR_NOT_INIT);
 7207              		.loc 1 731 5 discriminator 3 view .LVU2066
 7208 0068 FFF7FEFF 		bl	osal_printf
 7209              	.LVL978:
 7210 006c F5E7     		b	.L705
 7211              	.LVL979:
 7212              	.L716:
 731:../switch_sdk/core/yt/yt_port.c ****     CMM_PARAM_CHK((!(YT_DISPATCH(unit)->is_inited)), CMM_ERR_NOT_INIT);
 7213              		.loc 1 731 5 discriminator 3 view .LVU2067
 7214              	.LBE140:
 732:../switch_sdk/core/yt/yt_port.c ****     CMM_PARAM_CHK((!(CMM_PORT_VALID(unit, port))), CMM_ERR_PORT);
 7215              		.loc 1 732 5 is_stmt 1 discriminator 1 view .LVU2068
 732:../switch_sdk/core/yt/yt_port.c ****     CMM_PARAM_CHK((!(CMM_PORT_VALID(unit, port))), CMM_ERR_PORT);
 7216              		.loc 1 732 5 discriminator 1 view .LVU2069
 7217 006e 184B     		ldr	r3, .L723+12
 7218 0070 1B78     		ldrb	r3, [r3]	@ zero_extendqisi2
 7219 0072 012B     		cmp	r3, #1
 7220 0074 01D8     		bhi	.L720
 7221              	.LVL980:
 7222              	.L707:
 732:../switch_sdk/core/yt/yt_port.c ****     CMM_PARAM_CHK((!(CMM_PORT_VALID(unit, port))), CMM_ERR_PORT);
 7223              		.loc 1 732 5 discriminator 5 view .LVU2070
 732:../switch_sdk/core/yt/yt_port.c ****     CMM_PARAM_CHK((!(CMM_PORT_VALID(unit, port))), CMM_ERR_PORT);
 7224              		.loc 1 732 5 discriminator 5 view .LVU2071
 732:../switch_sdk/core/yt/yt_port.c ****     CMM_PARAM_CHK((!(CMM_PORT_VALID(unit, port))), CMM_ERR_PORT);
 7225              		.loc 1 732 5 discriminator 5 view .LVU2072
 7226 0076 0420     		movs	r0, #4
 7227 0078 DCE7     		b	.L700
 7228              	.LVL981:
 7229              	.L720:
 732:../switch_sdk/core/yt/yt_port.c ****     CMM_PARAM_CHK((!(CMM_PORT_VALID(unit, port))), CMM_ERR_PORT);
 7230              		.loc 1 732 5 discriminator 3 view .LVU2073
 7231              	.LBB141:
 732:../switch_sdk/core/yt/yt_port.c ****     CMM_PARAM_CHK((!(CMM_PORT_VALID(unit, port))), CMM_ERR_PORT);
 7232              		.loc 1 732 5 discriminator 3 view .LVU2074
 7233 007a 164B     		ldr	r3, .L723+16
 7234 007c 1A69     		ldr	r2, [r3, #16]
 7235              	.LVL982:
 732:../switch_sdk/core/yt/yt_port.c ****     CMM_PARAM_CHK((!(CMM_PORT_VALID(unit, port))), CMM_ERR_PORT);
 7236              		.loc 1 732 5 is_stmt 0 discriminator 3 view .LVU2075
 7237 007e 164B     		ldr	r3, .L723+20
 7238 0080 9968     		ldr	r1, [r3, #8]
 7239              	.LVL983:
 732:../switch_sdk/core/yt/yt_port.c ****     CMM_PARAM_CHK((!(CMM_PORT_VALID(unit, port))), CMM_ERR_PORT);
 7240              		.loc 1 732 5 discriminator 3 view .LVU2076
 7241 0082 1648     		ldr	r0, .L723+24
 7242 0084 FFF7FEFF 		bl	osal_printf
 7243              	.LVL984:
 7244 0088 F5E7     		b	.L707
 7245              	.LVL985:
 7246              	.L708:
 732:../switch_sdk/core/yt/yt_port.c ****     CMM_PARAM_CHK((!(CMM_PORT_VALID(unit, port))), CMM_ERR_PORT);
 7247              		.loc 1 732 5 discriminator 3 view .LVU2077
 7248              	.LBE141:
 733:../switch_sdk/core/yt/yt_port.c ****     CMM_PARAM_CHK((YT_ENABLE < enable || YT_DISABLE > enable), CMM_ERR_INPUT);
 7249              		.loc 1 733 5 is_stmt 1 discriminator 3 view .LVU2078
 733:../switch_sdk/core/yt/yt_port.c ****     CMM_PARAM_CHK((YT_ENABLE < enable || YT_DISABLE > enable), CMM_ERR_INPUT);
 7250              		.loc 1 733 5 discriminator 3 view .LVU2079
 7251 008a 114B     		ldr	r3, .L723+12
 7252 008c 1B78     		ldrb	r3, [r3]	@ zero_extendqisi2
 7253 008e 012B     		cmp	r3, #1
 7254 0090 01D8     		bhi	.L721
 7255              	.LVL986:
 7256              	.L710:
 733:../switch_sdk/core/yt/yt_port.c ****     CMM_PARAM_CHK((YT_ENABLE < enable || YT_DISABLE > enable), CMM_ERR_INPUT);
 7257              		.loc 1 733 5 discriminator 7 view .LVU2080
 733:../switch_sdk/core/yt/yt_port.c ****     CMM_PARAM_CHK((YT_ENABLE < enable || YT_DISABLE > enable), CMM_ERR_INPUT);
 7258              		.loc 1 733 5 discriminator 7 view .LVU2081
 733:../switch_sdk/core/yt/yt_port.c ****     CMM_PARAM_CHK((YT_ENABLE < enable || YT_DISABLE > enable), CMM_ERR_INPUT);
 7259              		.loc 1 733 5 discriminator 7 view .LVU2082
 7260 0092 0E20     		movs	r0, #14
 7261 0094 CEE7     		b	.L700
 7262              	.LVL987:
 7263              	.L721:
 733:../switch_sdk/core/yt/yt_port.c ****     CMM_PARAM_CHK((YT_ENABLE < enable || YT_DISABLE > enable), CMM_ERR_INPUT);
 7264              		.loc 1 733 5 discriminator 5 view .LVU2083
 7265              	.LBB142:
 733:../switch_sdk/core/yt/yt_port.c ****     CMM_PARAM_CHK((YT_ENABLE < enable || YT_DISABLE > enable), CMM_ERR_INPUT);
 7266              		.loc 1 733 5 discriminator 5 view .LVU2084
 7267 0096 0F4B     		ldr	r3, .L723+16
 7268 0098 9A6B     		ldr	r2, [r3, #56]
 7269              	.LVL988:
 733:../switch_sdk/core/yt/yt_port.c ****     CMM_PARAM_CHK((YT_ENABLE < enable || YT_DISABLE > enable), CMM_ERR_INPUT);
 7270              		.loc 1 733 5 is_stmt 0 discriminator 5 view .LVU2085
 7271 009a 0F4B     		ldr	r3, .L723+20
 7272 009c 9968     		ldr	r1, [r3, #8]
 7273              	.LVL989:
 733:../switch_sdk/core/yt/yt_port.c ****     CMM_PARAM_CHK((YT_ENABLE < enable || YT_DISABLE > enable), CMM_ERR_INPUT);
 7274              		.loc 1 733 5 discriminator 5 view .LVU2086
 7275 009e 0F48     		ldr	r0, .L723+24
 7276 00a0 FFF7FEFF 		bl	osal_printf
 7277              	.LVL990:
 7278 00a4 F5E7     		b	.L710
 7279              	.LVL991:
 7280              	.L717:
 733:../switch_sdk/core/yt/yt_port.c ****     CMM_PARAM_CHK((YT_ENABLE < enable || YT_DISABLE > enable), CMM_ERR_INPUT);
 7281              		.loc 1 733 5 discriminator 5 view .LVU2087
 7282              	.LBE142:
 734:../switch_sdk/core/yt/yt_port.c **** 
 7283              		.loc 1 734 5 is_stmt 1 discriminator 1 view .LVU2088
 734:../switch_sdk/core/yt/yt_port.c **** 
 7284              		.loc 1 734 5 discriminator 1 view .LVU2089
 7285 00a6 0A4B     		ldr	r3, .L723+12
 7286 00a8 1B78     		ldrb	r3, [r3]	@ zero_extendqisi2
 7287 00aa 012B     		cmp	r3, #1
 7288 00ac 01D8     		bhi	.L722
 7289              	.LVL992:
 7290              	.L712:
 734:../switch_sdk/core/yt/yt_port.c **** 
 7291              		.loc 1 734 5 discriminator 5 view .LVU2090
 734:../switch_sdk/core/yt/yt_port.c **** 
 7292              		.loc 1 734 5 discriminator 5 view .LVU2091
 734:../switch_sdk/core/yt/yt_port.c **** 
 7293              		.loc 1 734 5 discriminator 5 view .LVU2092
 7294 00ae 0520     		movs	r0, #5
 7295 00b0 C0E7     		b	.L700
 7296              	.LVL993:
 7297              	.L722:
 734:../switch_sdk/core/yt/yt_port.c **** 
 7298              		.loc 1 734 5 discriminator 3 view .LVU2093
 7299              	.LBB143:
 734:../switch_sdk/core/yt/yt_port.c **** 
 7300              		.loc 1 734 5 discriminator 3 view .LVU2094
 7301 00b2 084B     		ldr	r3, .L723+16
 7302 00b4 5A69     		ldr	r2, [r3, #20]
 7303              	.LVL994:
 734:../switch_sdk/core/yt/yt_port.c **** 
 7304              		.loc 1 734 5 is_stmt 0 discriminator 3 view .LVU2095
 7305 00b6 084B     		ldr	r3, .L723+20
 7306 00b8 9968     		ldr	r1, [r3, #8]
 7307              	.LVL995:
 734:../switch_sdk/core/yt/yt_port.c **** 
 7308              		.loc 1 734 5 discriminator 3 view .LVU2096
 7309 00ba 0848     		ldr	r0, .L723+24
 7310 00bc FFF7FEFF 		bl	osal_printf
 7311              	.LVL996:
 7312 00c0 F5E7     		b	.L712
 7313              	.L724:
 7314 00c2 00BF     		.align	2
 7315              	.L723:
 7316 00c4 00000000 		.word	gpfal_dispatch
 7317 00c8 00000000 		.word	gcal_inited
 7318 00cc 00000000 		.word	gpSwitchUnit
 7319 00d0 00000000 		.word	yt_debug_level
 7320 00d4 00000000 		.word	_yt_errmsg
 7321 00d8 00000000 		.word	_yt_prompt_msg
 7322 00dc 00000000 		.word	.LC0
 7323              	.LBE143:
 7324              		.cfi_endproc
 7325              	.LFE33:
 7327              		.section	.text.yt_port_eee_enable_get,"ax",%progbits
 7328              		.align	1
 7329              		.global	yt_port_eee_enable_get
 7330              		.syntax unified
 7331              		.thumb
 7332              		.thumb_func
 7334              	yt_port_eee_enable_get:
 7335              	.LVL997:
 7336              	.LFB34:
 738:../switch_sdk/core/yt/yt_port.c **** 
 739:../switch_sdk/core/yt/yt_port.c **** /**
 740:../switch_sdk/core/yt/yt_port.c ****  * @internal      yt_port_eee_enable_get
 741:../switch_sdk/core/yt/yt_port.c ****  * @endinternal
 742:../switch_sdk/core/yt/yt_port.c ****  *
 743:../switch_sdk/core/yt/yt_port.c ****  * @brief         Description
 744:../switch_sdk/core/yt/yt_port.c ****  * @note          APPLICABLE DEVICES  -Tiger
 745:../switch_sdk/core/yt/yt_port.c ****  * @param[in]     unit                -unit id
 746:../switch_sdk/core/yt/yt_port.c ****  * @param[in]     port                -port num
 747:../switch_sdk/core/yt/yt_port.c ****  * @param[out]    pEnable             -enable or disable
 748:../switch_sdk/core/yt/yt_port.c ****  * @retval        CMM_ERR_OK          -on success
 749:../switch_sdk/core/yt/yt_port.c ****  * @retval        CMM_ERR_FAIL        -on fail
 750:../switch_sdk/core/yt/yt_port.c ****  */
 751:../switch_sdk/core/yt/yt_port.c **** yt_ret_t yt_port_eee_enable_get(yt_unit_t unit, yt_port_t port, yt_enable_t *pEnable)
 752:../switch_sdk/core/yt/yt_port.c **** {
 7337              		.loc 1 752 1 is_stmt 1 view -0
 7338              		.cfi_startproc
 7339              		@ args = 0, pretend = 0, frame = 0
 7340              		@ frame_needed = 0, uses_anonymous_args = 0
 7341              		.loc 1 752 1 is_stmt 0 view .LVU2098
 7342 0000 08B5     		push	{r3, lr}
 7343              		.cfi_def_cfa_offset 8
 7344              		.cfi_offset 3, -8
 7345              		.cfi_offset 14, -4
 753:../switch_sdk/core/yt/yt_port.c ****     CMM_PARAM_CHK((YT_UNIT_NUM <= unit), CMM_ERR_INPUT);
 7346              		.loc 1 753 5 is_stmt 1 view .LVU2099
 7347              		.loc 1 753 5 view .LVU2100
 7348 0002 C0B9     		cbnz	r0, .L739
 7349 0004 8446     		mov	ip, r0
 7350              		.loc 1 753 5 discriminator 2 view .LVU2101
 754:../switch_sdk/core/yt/yt_port.c ****     CMM_PARAM_CHK(NULL == YT_DISPATCH(unit), CMM_ERR_NOT_INIT);
 7351              		.loc 1 754 5 discriminator 2 view .LVU2102
 7352              		.loc 1 754 5 discriminator 2 view .LVU2103
 7353 0006 2F4B     		ldr	r3, .L748
 7354 0008 53F82030 		ldr	r3, [r3, r0, lsl #2]
 7355 000c 0BB3     		cbz	r3, .L740
 7356              		.loc 1 754 5 discriminator 2 view .LVU2104
 755:../switch_sdk/core/yt/yt_port.c ****     CMM_PARAM_CHK((!(YT_DISPATCH(unit)->is_inited)), CMM_ERR_NOT_INIT);
 7357              		.loc 1 755 5 discriminator 2 view .LVU2105
 7358              		.loc 1 755 5 discriminator 2 view .LVU2106
 7359 000e 1878     		ldrb	r0, [r3]	@ zero_extendqisi2
 7360              	.LVL998:
 7361              		.loc 1 755 5 is_stmt 0 discriminator 2 view .LVU2107
 7362 0010 0028     		cmp	r0, #0
 7363 0012 2CD0     		beq	.L741
 7364              		.loc 1 755 5 is_stmt 1 discriminator 2 view .LVU2108
 756:../switch_sdk/core/yt/yt_port.c ****     CMM_PARAM_CHK((!(CMM_PORT_VALID(unit, port))), CMM_ERR_PORT);
 7365              		.loc 1 756 5 discriminator 2 view .LVU2109
 7366              		.loc 1 756 5 discriminator 2 view .LVU2110
 7367 0014 2C48     		ldr	r0, .L748+4
 7368 0016 0078     		ldrb	r0, [r0]	@ zero_extendqisi2
 7369 0018 0028     		cmp	r0, #0
 7370 001a 36D0     		beq	.L733
 7371 001c 2B48     		ldr	r0, .L748+8
 7372 001e 50F82C00 		ldr	r0, [r0, ip, lsl #2]
 7373 0022 007D     		ldrb	r0, [r0, #20]	@ zero_extendqisi2
 7374 0024 8842     		cmp	r0, r1
 7375 0026 30D9     		bls	.L733
 7376              		.loc 1 756 5 discriminator 4 view .LVU2111
 757:../switch_sdk/core/yt/yt_port.c ****     CMM_PARAM_CHK((NULL == pEnable), CMM_ERR_NULL_POINT);
 7377              		.loc 1 757 5 discriminator 4 view .LVU2112
 7378              		.loc 1 757 5 discriminator 4 view .LVU2113
 7379 0028 002A     		cmp	r2, #0
 7380 002a 3CD0     		beq	.L742
 7381              		.loc 1 757 5 discriminator 2 view .LVU2114
 758:../switch_sdk/core/yt/yt_port.c **** 
 759:../switch_sdk/core/yt/yt_port.c ****     return YT_DISPATCH(unit)->port_eee_enable_get(unit, port, pEnable);
 7382              		.loc 1 759 5 discriminator 2 view .LVU2115
 7383              		.loc 1 759 29 is_stmt 0 discriminator 2 view .LVU2116
 7384 002c D3F8D435 		ldr	r3, [r3, #1492]
 7385              		.loc 1 759 12 discriminator 2 view .LVU2117
 7386 0030 6046     		mov	r0, ip
 7387 0032 9847     		blx	r3
 7388              	.LVL999:
 7389              	.L725:
 760:../switch_sdk/core/yt/yt_port.c **** }
 7390              		.loc 1 760 1 view .LVU2118
 7391 0034 08BD     		pop	{r3, pc}
 7392              	.LVL1000:
 7393              	.L739:
 753:../switch_sdk/core/yt/yt_port.c ****     CMM_PARAM_CHK(NULL == YT_DISPATCH(unit), CMM_ERR_NOT_INIT);
 7394              		.loc 1 753 5 is_stmt 1 discriminator 1 view .LVU2119
 753:../switch_sdk/core/yt/yt_port.c ****     CMM_PARAM_CHK(NULL == YT_DISPATCH(unit), CMM_ERR_NOT_INIT);
 7395              		.loc 1 753 5 discriminator 1 view .LVU2120
 7396 0036 264B     		ldr	r3, .L748+12
 7397 0038 1B78     		ldrb	r3, [r3]	@ zero_extendqisi2
 7398 003a 012B     		cmp	r3, #1
 7399 003c 01D8     		bhi	.L743
 7400              	.LVL1001:
 7401              	.L727:
 753:../switch_sdk/core/yt/yt_port.c ****     CMM_PARAM_CHK(NULL == YT_DISPATCH(unit), CMM_ERR_NOT_INIT);
 7402              		.loc 1 753 5 discriminator 5 view .LVU2121
 753:../switch_sdk/core/yt/yt_port.c ****     CMM_PARAM_CHK(NULL == YT_DISPATCH(unit), CMM_ERR_NOT_INIT);
 7403              		.loc 1 753 5 discriminator 5 view .LVU2122
 753:../switch_sdk/core/yt/yt_port.c ****     CMM_PARAM_CHK(NULL == YT_DISPATCH(unit), CMM_ERR_NOT_INIT);
 7404              		.loc 1 753 5 discriminator 5 view .LVU2123
 7405 003e 0520     		movs	r0, #5
 7406 0040 F8E7     		b	.L725
 7407              	.LVL1002:
 7408              	.L743:
 753:../switch_sdk/core/yt/yt_port.c ****     CMM_PARAM_CHK(NULL == YT_DISPATCH(unit), CMM_ERR_NOT_INIT);
 7409              		.loc 1 753 5 discriminator 3 view .LVU2124
 7410              	.LBB144:
 753:../switch_sdk/core/yt/yt_port.c ****     CMM_PARAM_CHK(NULL == YT_DISPATCH(unit), CMM_ERR_NOT_INIT);
 7411              		.loc 1 753 5 discriminator 3 view .LVU2125
 7412 0042 244B     		ldr	r3, .L748+16
 7413 0044 5A69     		ldr	r2, [r3, #20]
 7414              	.LVL1003:
 753:../switch_sdk/core/yt/yt_port.c ****     CMM_PARAM_CHK(NULL == YT_DISPATCH(unit), CMM_ERR_NOT_INIT);
 7415              		.loc 1 753 5 is_stmt 0 discriminator 3 view .LVU2126
 7416 0046 244B     		ldr	r3, .L748+20
 7417 0048 9968     		ldr	r1, [r3, #8]
 7418              	.LVL1004:
 753:../switch_sdk/core/yt/yt_port.c ****     CMM_PARAM_CHK(NULL == YT_DISPATCH(unit), CMM_ERR_NOT_INIT);
 7419              		.loc 1 753 5 discriminator 3 view .LVU2127
 7420 004a 2448     		ldr	r0, .L748+24
 7421              	.LVL1005:
 753:../switch_sdk/core/yt/yt_port.c ****     CMM_PARAM_CHK(NULL == YT_DISPATCH(unit), CMM_ERR_NOT_INIT);
 7422              		.loc 1 753 5 discriminator 3 view .LVU2128
 7423 004c FFF7FEFF 		bl	osal_printf
 7424              	.LVL1006:
 7425 0050 F5E7     		b	.L727
 7426              	.LVL1007:
 7427              	.L740:
 753:../switch_sdk/core/yt/yt_port.c ****     CMM_PARAM_CHK(NULL == YT_DISPATCH(unit), CMM_ERR_NOT_INIT);
 7428              		.loc 1 753 5 discriminator 3 view .LVU2129
 7429              	.LBE144:
 754:../switch_sdk/core/yt/yt_port.c ****     CMM_PARAM_CHK((!(YT_DISPATCH(unit)->is_inited)), CMM_ERR_NOT_INIT);
 7430              		.loc 1 754 5 is_stmt 1 discriminator 1 view .LVU2130
 754:../switch_sdk/core/yt/yt_port.c ****     CMM_PARAM_CHK((!(YT_DISPATCH(unit)->is_inited)), CMM_ERR_NOT_INIT);
 7431              		.loc 1 754 5 discriminator 1 view .LVU2131
 7432 0052 1F4B     		ldr	r3, .L748+12
 7433 0054 1B78     		ldrb	r3, [r3]	@ zero_extendqisi2
 7434 0056 012B     		cmp	r3, #1
 7435 0058 01D8     		bhi	.L744
 7436              	.LVL1008:
 7437              	.L730:
 754:../switch_sdk/core/yt/yt_port.c ****     CMM_PARAM_CHK((!(YT_DISPATCH(unit)->is_inited)), CMM_ERR_NOT_INIT);
 7438              		.loc 1 754 5 discriminator 5 view .LVU2132
 754:../switch_sdk/core/yt/yt_port.c ****     CMM_PARAM_CHK((!(YT_DISPATCH(unit)->is_inited)), CMM_ERR_NOT_INIT);
 7439              		.loc 1 754 5 discriminator 5 view .LVU2133
 754:../switch_sdk/core/yt/yt_port.c ****     CMM_PARAM_CHK((!(YT_DISPATCH(unit)->is_inited)), CMM_ERR_NOT_INIT);
 7440              		.loc 1 754 5 discriminator 5 view .LVU2134
 7441 005a 0420     		movs	r0, #4
 7442 005c EAE7     		b	.L725
 7443              	.LVL1009:
 7444              	.L744:
 754:../switch_sdk/core/yt/yt_port.c ****     CMM_PARAM_CHK((!(YT_DISPATCH(unit)->is_inited)), CMM_ERR_NOT_INIT);
 7445              		.loc 1 754 5 discriminator 3 view .LVU2135
 7446              	.LBB145:
 754:../switch_sdk/core/yt/yt_port.c ****     CMM_PARAM_CHK((!(YT_DISPATCH(unit)->is_inited)), CMM_ERR_NOT_INIT);
 7447              		.loc 1 754 5 discriminator 3 view .LVU2136
 7448 005e 1D4B     		ldr	r3, .L748+16
 7449 0060 1A69     		ldr	r2, [r3, #16]
 7450              	.LVL1010:
 754:../switch_sdk/core/yt/yt_port.c ****     CMM_PARAM_CHK((!(YT_DISPATCH(unit)->is_inited)), CMM_ERR_NOT_INIT);
 7451              		.loc 1 754 5 is_stmt 0 discriminator 3 view .LVU2137
 7452 0062 1D4B     		ldr	r3, .L748+20
 7453 0064 9968     		ldr	r1, [r3, #8]
 7454              	.LVL1011:
 754:../switch_sdk/core/yt/yt_port.c ****     CMM_PARAM_CHK((!(YT_DISPATCH(unit)->is_inited)), CMM_ERR_NOT_INIT);
 7455              		.loc 1 754 5 discriminator 3 view .LVU2138
 7456 0066 1D48     		ldr	r0, .L748+24
 7457              	.LVL1012:
 754:../switch_sdk/core/yt/yt_port.c ****     CMM_PARAM_CHK((!(YT_DISPATCH(unit)->is_inited)), CMM_ERR_NOT_INIT);
 7458              		.loc 1 754 5 discriminator 3 view .LVU2139
 7459 0068 FFF7FEFF 		bl	osal_printf
 7460              	.LVL1013:
 7461 006c F5E7     		b	.L730
 7462              	.LVL1014:
 7463              	.L741:
 754:../switch_sdk/core/yt/yt_port.c ****     CMM_PARAM_CHK((!(YT_DISPATCH(unit)->is_inited)), CMM_ERR_NOT_INIT);
 7464              		.loc 1 754 5 discriminator 3 view .LVU2140
 7465              	.LBE145:
 755:../switch_sdk/core/yt/yt_port.c ****     CMM_PARAM_CHK((!(CMM_PORT_VALID(unit, port))), CMM_ERR_PORT);
 7466              		.loc 1 755 5 is_stmt 1 discriminator 1 view .LVU2141
 755:../switch_sdk/core/yt/yt_port.c ****     CMM_PARAM_CHK((!(CMM_PORT_VALID(unit, port))), CMM_ERR_PORT);
 7467              		.loc 1 755 5 discriminator 1 view .LVU2142
 7468 006e 184B     		ldr	r3, .L748+12
 7469 0070 1B78     		ldrb	r3, [r3]	@ zero_extendqisi2
 7470 0072 012B     		cmp	r3, #1
 7471 0074 01D8     		bhi	.L745
 7472              	.LVL1015:
 7473              	.L732:
 755:../switch_sdk/core/yt/yt_port.c ****     CMM_PARAM_CHK((!(CMM_PORT_VALID(unit, port))), CMM_ERR_PORT);
 7474              		.loc 1 755 5 discriminator 5 view .LVU2143
 755:../switch_sdk/core/yt/yt_port.c ****     CMM_PARAM_CHK((!(CMM_PORT_VALID(unit, port))), CMM_ERR_PORT);
 7475              		.loc 1 755 5 discriminator 5 view .LVU2144
 755:../switch_sdk/core/yt/yt_port.c ****     CMM_PARAM_CHK((!(CMM_PORT_VALID(unit, port))), CMM_ERR_PORT);
 7476              		.loc 1 755 5 discriminator 5 view .LVU2145
 7477 0076 0420     		movs	r0, #4
 7478 0078 DCE7     		b	.L725
 7479              	.LVL1016:
 7480              	.L745:
 755:../switch_sdk/core/yt/yt_port.c ****     CMM_PARAM_CHK((!(CMM_PORT_VALID(unit, port))), CMM_ERR_PORT);
 7481              		.loc 1 755 5 discriminator 3 view .LVU2146
 7482              	.LBB146:
 755:../switch_sdk/core/yt/yt_port.c ****     CMM_PARAM_CHK((!(CMM_PORT_VALID(unit, port))), CMM_ERR_PORT);
 7483              		.loc 1 755 5 discriminator 3 view .LVU2147
 7484 007a 164B     		ldr	r3, .L748+16
 7485 007c 1A69     		ldr	r2, [r3, #16]
 7486              	.LVL1017:
 755:../switch_sdk/core/yt/yt_port.c ****     CMM_PARAM_CHK((!(CMM_PORT_VALID(unit, port))), CMM_ERR_PORT);
 7487              		.loc 1 755 5 is_stmt 0 discriminator 3 view .LVU2148
 7488 007e 164B     		ldr	r3, .L748+20
 7489 0080 9968     		ldr	r1, [r3, #8]
 7490              	.LVL1018:
 755:../switch_sdk/core/yt/yt_port.c ****     CMM_PARAM_CHK((!(CMM_PORT_VALID(unit, port))), CMM_ERR_PORT);
 7491              		.loc 1 755 5 discriminator 3 view .LVU2149
 7492 0082 1648     		ldr	r0, .L748+24
 7493 0084 FFF7FEFF 		bl	osal_printf
 7494              	.LVL1019:
 7495 0088 F5E7     		b	.L732
 7496              	.LVL1020:
 7497              	.L733:
 755:../switch_sdk/core/yt/yt_port.c ****     CMM_PARAM_CHK((!(CMM_PORT_VALID(unit, port))), CMM_ERR_PORT);
 7498              		.loc 1 755 5 discriminator 3 view .LVU2150
 7499              	.LBE146:
 756:../switch_sdk/core/yt/yt_port.c ****     CMM_PARAM_CHK((NULL == pEnable), CMM_ERR_NULL_POINT);
 7500              		.loc 1 756 5 is_stmt 1 discriminator 3 view .LVU2151
 756:../switch_sdk/core/yt/yt_port.c ****     CMM_PARAM_CHK((NULL == pEnable), CMM_ERR_NULL_POINT);
 7501              		.loc 1 756 5 discriminator 3 view .LVU2152
 7502 008a 114B     		ldr	r3, .L748+12
 7503 008c 1B78     		ldrb	r3, [r3]	@ zero_extendqisi2
 7504 008e 012B     		cmp	r3, #1
 7505 0090 01D8     		bhi	.L746
 7506              	.LVL1021:
 7507              	.L735:
 756:../switch_sdk/core/yt/yt_port.c ****     CMM_PARAM_CHK((NULL == pEnable), CMM_ERR_NULL_POINT);
 7508              		.loc 1 756 5 discriminator 7 view .LVU2153
 756:../switch_sdk/core/yt/yt_port.c ****     CMM_PARAM_CHK((NULL == pEnable), CMM_ERR_NULL_POINT);
 7509              		.loc 1 756 5 discriminator 7 view .LVU2154
 756:../switch_sdk/core/yt/yt_port.c ****     CMM_PARAM_CHK((NULL == pEnable), CMM_ERR_NULL_POINT);
 7510              		.loc 1 756 5 discriminator 7 view .LVU2155
 7511 0092 0E20     		movs	r0, #14
 7512 0094 CEE7     		b	.L725
 7513              	.LVL1022:
 7514              	.L746:
 756:../switch_sdk/core/yt/yt_port.c ****     CMM_PARAM_CHK((NULL == pEnable), CMM_ERR_NULL_POINT);
 7515              		.loc 1 756 5 discriminator 5 view .LVU2156
 7516              	.LBB147:
 756:../switch_sdk/core/yt/yt_port.c ****     CMM_PARAM_CHK((NULL == pEnable), CMM_ERR_NULL_POINT);
 7517              		.loc 1 756 5 discriminator 5 view .LVU2157
 7518 0096 0F4B     		ldr	r3, .L748+16
 7519 0098 9A6B     		ldr	r2, [r3, #56]
 7520              	.LVL1023:
 756:../switch_sdk/core/yt/yt_port.c ****     CMM_PARAM_CHK((NULL == pEnable), CMM_ERR_NULL_POINT);
 7521              		.loc 1 756 5 is_stmt 0 discriminator 5 view .LVU2158
 7522 009a 0F4B     		ldr	r3, .L748+20
 7523 009c 9968     		ldr	r1, [r3, #8]
 7524              	.LVL1024:
 756:../switch_sdk/core/yt/yt_port.c ****     CMM_PARAM_CHK((NULL == pEnable), CMM_ERR_NULL_POINT);
 7525              		.loc 1 756 5 discriminator 5 view .LVU2159
 7526 009e 0F48     		ldr	r0, .L748+24
 7527 00a0 FFF7FEFF 		bl	osal_printf
 7528              	.LVL1025:
 7529 00a4 F5E7     		b	.L735
 7530              	.LVL1026:
 7531              	.L742:
 756:../switch_sdk/core/yt/yt_port.c ****     CMM_PARAM_CHK((NULL == pEnable), CMM_ERR_NULL_POINT);
 7532              		.loc 1 756 5 discriminator 5 view .LVU2160
 7533              	.LBE147:
 757:../switch_sdk/core/yt/yt_port.c **** 
 7534              		.loc 1 757 5 is_stmt 1 discriminator 1 view .LVU2161
 757:../switch_sdk/core/yt/yt_port.c **** 
 7535              		.loc 1 757 5 discriminator 1 view .LVU2162
 7536 00a6 0A4B     		ldr	r3, .L748+12
 7537 00a8 1B78     		ldrb	r3, [r3]	@ zero_extendqisi2
 7538 00aa 012B     		cmp	r3, #1
 7539 00ac 01D8     		bhi	.L747
 7540              	.LVL1027:
 7541              	.L737:
 757:../switch_sdk/core/yt/yt_port.c **** 
 7542              		.loc 1 757 5 discriminator 5 view .LVU2163
 757:../switch_sdk/core/yt/yt_port.c **** 
 7543              		.loc 1 757 5 discriminator 5 view .LVU2164
 757:../switch_sdk/core/yt/yt_port.c **** 
 7544              		.loc 1 757 5 discriminator 5 view .LVU2165
 7545 00ae 0220     		movs	r0, #2
 7546 00b0 C0E7     		b	.L725
 7547              	.LVL1028:
 7548              	.L747:
 757:../switch_sdk/core/yt/yt_port.c **** 
 7549              		.loc 1 757 5 discriminator 3 view .LVU2166
 7550              	.LBB148:
 757:../switch_sdk/core/yt/yt_port.c **** 
 7551              		.loc 1 757 5 discriminator 3 view .LVU2167
 7552 00b2 084B     		ldr	r3, .L748+16
 7553 00b4 9A68     		ldr	r2, [r3, #8]
 7554              	.LVL1029:
 757:../switch_sdk/core/yt/yt_port.c **** 
 7555              		.loc 1 757 5 is_stmt 0 discriminator 3 view .LVU2168
 7556 00b6 084B     		ldr	r3, .L748+20
 7557 00b8 9968     		ldr	r1, [r3, #8]
 7558              	.LVL1030:
 757:../switch_sdk/core/yt/yt_port.c **** 
 7559              		.loc 1 757 5 discriminator 3 view .LVU2169
 7560 00ba 0848     		ldr	r0, .L748+24
 7561 00bc FFF7FEFF 		bl	osal_printf
 7562              	.LVL1031:
 7563 00c0 F5E7     		b	.L737
 7564              	.L749:
 7565 00c2 00BF     		.align	2
 7566              	.L748:
 7567 00c4 00000000 		.word	gpfal_dispatch
 7568 00c8 00000000 		.word	gcal_inited
 7569 00cc 00000000 		.word	gpSwitchUnit
 7570 00d0 00000000 		.word	yt_debug_level
 7571 00d4 00000000 		.word	_yt_errmsg
 7572 00d8 00000000 		.word	_yt_prompt_msg
 7573 00dc 00000000 		.word	.LC0
 7574              	.LBE148:
 7575              		.cfi_endproc
 7576              	.LFE34:
 7578              		.section	.text.yt_port_jumbo_enable_set,"ax",%progbits
 7579              		.align	1
 7580              		.global	yt_port_jumbo_enable_set
 7581              		.syntax unified
 7582              		.thumb
 7583              		.thumb_func
 7585              	yt_port_jumbo_enable_set:
 7586              	.LVL1032:
 7587              	.LFB35:
 761:../switch_sdk/core/yt/yt_port.c **** 
 762:../switch_sdk/core/yt/yt_port.c **** /**
 763:../switch_sdk/core/yt/yt_port.c ****  * @internal      yt_port_jumbo_enable_set
 764:../switch_sdk/core/yt/yt_port.c ****  * @endinternal
 765:../switch_sdk/core/yt/yt_port.c ****  *
 766:../switch_sdk/core/yt/yt_port.c ****  * @brief         Description
 767:../switch_sdk/core/yt/yt_port.c ****  * @note          APPLICABLE DEVICES  -Tiger
 768:../switch_sdk/core/yt/yt_port.c ****  * @param[in]     unit                -unit id
 769:../switch_sdk/core/yt/yt_port.c ****  * @param[in]     port                -port num
 770:../switch_sdk/core/yt/yt_port.c ****  * @param[in]     enable              -enable or disable
 771:../switch_sdk/core/yt/yt_port.c ****  * @retval        CMM_ERR_OK          -on success
 772:../switch_sdk/core/yt/yt_port.c ****  * @retval        CMM_ERR_FAIL        -on fail
 773:../switch_sdk/core/yt/yt_port.c ****  */
 774:../switch_sdk/core/yt/yt_port.c **** yt_ret_t yt_port_jumbo_enable_set(yt_unit_t unit, yt_port_t port, yt_enable_t enable)
 775:../switch_sdk/core/yt/yt_port.c **** {
 7588              		.loc 1 775 1 is_stmt 1 view -0
 7589              		.cfi_startproc
 7590              		@ args = 0, pretend = 0, frame = 0
 7591              		@ frame_needed = 0, uses_anonymous_args = 0
 7592              		.loc 1 775 1 is_stmt 0 view .LVU2171
 7593 0000 08B5     		push	{r3, lr}
 7594              		.cfi_def_cfa_offset 8
 7595              		.cfi_offset 3, -8
 7596              		.cfi_offset 14, -4
 776:../switch_sdk/core/yt/yt_port.c ****     CMM_PARAM_CHK((YT_UNIT_NUM <= unit), CMM_ERR_INPUT);
 7597              		.loc 1 776 5 is_stmt 1 view .LVU2172
 7598              		.loc 1 776 5 view .LVU2173
 7599 0002 C0B9     		cbnz	r0, .L764
 7600 0004 8446     		mov	ip, r0
 7601              		.loc 1 776 5 discriminator 2 view .LVU2174
 777:../switch_sdk/core/yt/yt_port.c ****     CMM_PARAM_CHK(NULL == YT_DISPATCH(unit), CMM_ERR_NOT_INIT);
 7602              		.loc 1 777 5 discriminator 2 view .LVU2175
 7603              		.loc 1 777 5 discriminator 2 view .LVU2176
 7604 0006 2F4B     		ldr	r3, .L773
 7605 0008 53F82030 		ldr	r3, [r3, r0, lsl #2]
 7606 000c 0BB3     		cbz	r3, .L765
 7607              		.loc 1 777 5 discriminator 2 view .LVU2177
 778:../switch_sdk/core/yt/yt_port.c ****     CMM_PARAM_CHK((!(YT_DISPATCH(unit)->is_inited)), CMM_ERR_NOT_INIT);
 7608              		.loc 1 778 5 discriminator 2 view .LVU2178
 7609              		.loc 1 778 5 discriminator 2 view .LVU2179
 7610 000e 1878     		ldrb	r0, [r3]	@ zero_extendqisi2
 7611              	.LVL1033:
 7612              		.loc 1 778 5 is_stmt 0 discriminator 2 view .LVU2180
 7613 0010 0028     		cmp	r0, #0
 7614 0012 2CD0     		beq	.L766
 7615              		.loc 1 778 5 is_stmt 1 discriminator 2 view .LVU2181
 779:../switch_sdk/core/yt/yt_port.c ****     CMM_PARAM_CHK((!(CMM_PORT_VALID(unit, port))), CMM_ERR_PORT);
 7616              		.loc 1 779 5 discriminator 2 view .LVU2182
 7617              		.loc 1 779 5 discriminator 2 view .LVU2183
 7618 0014 2C48     		ldr	r0, .L773+4
 7619 0016 0078     		ldrb	r0, [r0]	@ zero_extendqisi2
 7620 0018 0028     		cmp	r0, #0
 7621 001a 36D0     		beq	.L758
 7622 001c 2B48     		ldr	r0, .L773+8
 7623 001e 50F82C00 		ldr	r0, [r0, ip, lsl #2]
 7624 0022 007D     		ldrb	r0, [r0, #20]	@ zero_extendqisi2
 7625 0024 8842     		cmp	r0, r1
 7626 0026 30D9     		bls	.L758
 7627              		.loc 1 779 5 discriminator 4 view .LVU2184
 780:../switch_sdk/core/yt/yt_port.c ****     CMM_PARAM_CHK((YT_ENABLE < enable || YT_DISABLE > enable), CMM_ERR_INPUT);
 7628              		.loc 1 780 5 discriminator 4 view .LVU2185
 7629              		.loc 1 780 5 discriminator 4 view .LVU2186
 7630 0028 012A     		cmp	r2, #1
 7631 002a 3CD8     		bhi	.L767
 7632              		.loc 1 780 5 discriminator 2 view .LVU2187
 781:../switch_sdk/core/yt/yt_port.c **** 
 782:../switch_sdk/core/yt/yt_port.c ****     return YT_DISPATCH(unit)->port_jumbo_enable_set(unit, port, enable);
 7633              		.loc 1 782 5 discriminator 2 view .LVU2188
 7634              		.loc 1 782 29 is_stmt 0 discriminator 2 view .LVU2189
 7635 002c D3F8D835 		ldr	r3, [r3, #1496]
 7636              		.loc 1 782 12 discriminator 2 view .LVU2190
 7637 0030 6046     		mov	r0, ip
 7638 0032 9847     		blx	r3
 7639              	.LVL1034:
 7640              	.L750:
 783:../switch_sdk/core/yt/yt_port.c **** }
 7641              		.loc 1 783 1 view .LVU2191
 7642 0034 08BD     		pop	{r3, pc}
 7643              	.LVL1035:
 7644              	.L764:
 776:../switch_sdk/core/yt/yt_port.c ****     CMM_PARAM_CHK(NULL == YT_DISPATCH(unit), CMM_ERR_NOT_INIT);
 7645              		.loc 1 776 5 is_stmt 1 discriminator 1 view .LVU2192
 776:../switch_sdk/core/yt/yt_port.c ****     CMM_PARAM_CHK(NULL == YT_DISPATCH(unit), CMM_ERR_NOT_INIT);
 7646              		.loc 1 776 5 discriminator 1 view .LVU2193
 7647 0036 264B     		ldr	r3, .L773+12
 7648 0038 1B78     		ldrb	r3, [r3]	@ zero_extendqisi2
 7649 003a 012B     		cmp	r3, #1
 7650 003c 01D8     		bhi	.L768
 7651              	.LVL1036:
 7652              	.L752:
 776:../switch_sdk/core/yt/yt_port.c ****     CMM_PARAM_CHK(NULL == YT_DISPATCH(unit), CMM_ERR_NOT_INIT);
 7653              		.loc 1 776 5 discriminator 5 view .LVU2194
 776:../switch_sdk/core/yt/yt_port.c ****     CMM_PARAM_CHK(NULL == YT_DISPATCH(unit), CMM_ERR_NOT_INIT);
 7654              		.loc 1 776 5 discriminator 5 view .LVU2195
 776:../switch_sdk/core/yt/yt_port.c ****     CMM_PARAM_CHK(NULL == YT_DISPATCH(unit), CMM_ERR_NOT_INIT);
 7655              		.loc 1 776 5 discriminator 5 view .LVU2196
 7656 003e 0520     		movs	r0, #5
 7657 0040 F8E7     		b	.L750
 7658              	.LVL1037:
 7659              	.L768:
 776:../switch_sdk/core/yt/yt_port.c ****     CMM_PARAM_CHK(NULL == YT_DISPATCH(unit), CMM_ERR_NOT_INIT);
 7660              		.loc 1 776 5 discriminator 3 view .LVU2197
 7661              	.LBB149:
 776:../switch_sdk/core/yt/yt_port.c ****     CMM_PARAM_CHK(NULL == YT_DISPATCH(unit), CMM_ERR_NOT_INIT);
 7662              		.loc 1 776 5 discriminator 3 view .LVU2198
 7663 0042 244B     		ldr	r3, .L773+16
 7664 0044 5A69     		ldr	r2, [r3, #20]
 7665              	.LVL1038:
 776:../switch_sdk/core/yt/yt_port.c ****     CMM_PARAM_CHK(NULL == YT_DISPATCH(unit), CMM_ERR_NOT_INIT);
 7666              		.loc 1 776 5 is_stmt 0 discriminator 3 view .LVU2199
 7667 0046 244B     		ldr	r3, .L773+20
 7668 0048 9968     		ldr	r1, [r3, #8]
 7669              	.LVL1039:
 776:../switch_sdk/core/yt/yt_port.c ****     CMM_PARAM_CHK(NULL == YT_DISPATCH(unit), CMM_ERR_NOT_INIT);
 7670              		.loc 1 776 5 discriminator 3 view .LVU2200
 7671 004a 2448     		ldr	r0, .L773+24
 7672              	.LVL1040:
 776:../switch_sdk/core/yt/yt_port.c ****     CMM_PARAM_CHK(NULL == YT_DISPATCH(unit), CMM_ERR_NOT_INIT);
 7673              		.loc 1 776 5 discriminator 3 view .LVU2201
 7674 004c FFF7FEFF 		bl	osal_printf
 7675              	.LVL1041:
 7676 0050 F5E7     		b	.L752
 7677              	.LVL1042:
 7678              	.L765:
 776:../switch_sdk/core/yt/yt_port.c ****     CMM_PARAM_CHK(NULL == YT_DISPATCH(unit), CMM_ERR_NOT_INIT);
 7679              		.loc 1 776 5 discriminator 3 view .LVU2202
 7680              	.LBE149:
 777:../switch_sdk/core/yt/yt_port.c ****     CMM_PARAM_CHK((!(YT_DISPATCH(unit)->is_inited)), CMM_ERR_NOT_INIT);
 7681              		.loc 1 777 5 is_stmt 1 discriminator 1 view .LVU2203
 777:../switch_sdk/core/yt/yt_port.c ****     CMM_PARAM_CHK((!(YT_DISPATCH(unit)->is_inited)), CMM_ERR_NOT_INIT);
 7682              		.loc 1 777 5 discriminator 1 view .LVU2204
 7683 0052 1F4B     		ldr	r3, .L773+12
 7684 0054 1B78     		ldrb	r3, [r3]	@ zero_extendqisi2
 7685 0056 012B     		cmp	r3, #1
 7686 0058 01D8     		bhi	.L769
 7687              	.LVL1043:
 7688              	.L755:
 777:../switch_sdk/core/yt/yt_port.c ****     CMM_PARAM_CHK((!(YT_DISPATCH(unit)->is_inited)), CMM_ERR_NOT_INIT);
 7689              		.loc 1 777 5 discriminator 5 view .LVU2205
 777:../switch_sdk/core/yt/yt_port.c ****     CMM_PARAM_CHK((!(YT_DISPATCH(unit)->is_inited)), CMM_ERR_NOT_INIT);
 7690              		.loc 1 777 5 discriminator 5 view .LVU2206
 777:../switch_sdk/core/yt/yt_port.c ****     CMM_PARAM_CHK((!(YT_DISPATCH(unit)->is_inited)), CMM_ERR_NOT_INIT);
 7691              		.loc 1 777 5 discriminator 5 view .LVU2207
 7692 005a 0420     		movs	r0, #4
 7693 005c EAE7     		b	.L750
 7694              	.LVL1044:
 7695              	.L769:
 777:../switch_sdk/core/yt/yt_port.c ****     CMM_PARAM_CHK((!(YT_DISPATCH(unit)->is_inited)), CMM_ERR_NOT_INIT);
 7696              		.loc 1 777 5 discriminator 3 view .LVU2208
 7697              	.LBB150:
 777:../switch_sdk/core/yt/yt_port.c ****     CMM_PARAM_CHK((!(YT_DISPATCH(unit)->is_inited)), CMM_ERR_NOT_INIT);
 7698              		.loc 1 777 5 discriminator 3 view .LVU2209
 7699 005e 1D4B     		ldr	r3, .L773+16
 7700 0060 1A69     		ldr	r2, [r3, #16]
 7701              	.LVL1045:
 777:../switch_sdk/core/yt/yt_port.c ****     CMM_PARAM_CHK((!(YT_DISPATCH(unit)->is_inited)), CMM_ERR_NOT_INIT);
 7702              		.loc 1 777 5 is_stmt 0 discriminator 3 view .LVU2210
 7703 0062 1D4B     		ldr	r3, .L773+20
 7704 0064 9968     		ldr	r1, [r3, #8]
 7705              	.LVL1046:
 777:../switch_sdk/core/yt/yt_port.c ****     CMM_PARAM_CHK((!(YT_DISPATCH(unit)->is_inited)), CMM_ERR_NOT_INIT);
 7706              		.loc 1 777 5 discriminator 3 view .LVU2211
 7707 0066 1D48     		ldr	r0, .L773+24
 7708              	.LVL1047:
 777:../switch_sdk/core/yt/yt_port.c ****     CMM_PARAM_CHK((!(YT_DISPATCH(unit)->is_inited)), CMM_ERR_NOT_INIT);
 7709              		.loc 1 777 5 discriminator 3 view .LVU2212
 7710 0068 FFF7FEFF 		bl	osal_printf
 7711              	.LVL1048:
 7712 006c F5E7     		b	.L755
 7713              	.LVL1049:
 7714              	.L766:
 777:../switch_sdk/core/yt/yt_port.c ****     CMM_PARAM_CHK((!(YT_DISPATCH(unit)->is_inited)), CMM_ERR_NOT_INIT);
 7715              		.loc 1 777 5 discriminator 3 view .LVU2213
 7716              	.LBE150:
 778:../switch_sdk/core/yt/yt_port.c ****     CMM_PARAM_CHK((!(CMM_PORT_VALID(unit, port))), CMM_ERR_PORT);
 7717              		.loc 1 778 5 is_stmt 1 discriminator 1 view .LVU2214
 778:../switch_sdk/core/yt/yt_port.c ****     CMM_PARAM_CHK((!(CMM_PORT_VALID(unit, port))), CMM_ERR_PORT);
 7718              		.loc 1 778 5 discriminator 1 view .LVU2215
 7719 006e 184B     		ldr	r3, .L773+12
 7720 0070 1B78     		ldrb	r3, [r3]	@ zero_extendqisi2
 7721 0072 012B     		cmp	r3, #1
 7722 0074 01D8     		bhi	.L770
 7723              	.LVL1050:
 7724              	.L757:
 778:../switch_sdk/core/yt/yt_port.c ****     CMM_PARAM_CHK((!(CMM_PORT_VALID(unit, port))), CMM_ERR_PORT);
 7725              		.loc 1 778 5 discriminator 5 view .LVU2216
 778:../switch_sdk/core/yt/yt_port.c ****     CMM_PARAM_CHK((!(CMM_PORT_VALID(unit, port))), CMM_ERR_PORT);
 7726              		.loc 1 778 5 discriminator 5 view .LVU2217
 778:../switch_sdk/core/yt/yt_port.c ****     CMM_PARAM_CHK((!(CMM_PORT_VALID(unit, port))), CMM_ERR_PORT);
 7727              		.loc 1 778 5 discriminator 5 view .LVU2218
 7728 0076 0420     		movs	r0, #4
 7729 0078 DCE7     		b	.L750
 7730              	.LVL1051:
 7731              	.L770:
 778:../switch_sdk/core/yt/yt_port.c ****     CMM_PARAM_CHK((!(CMM_PORT_VALID(unit, port))), CMM_ERR_PORT);
 7732              		.loc 1 778 5 discriminator 3 view .LVU2219
 7733              	.LBB151:
 778:../switch_sdk/core/yt/yt_port.c ****     CMM_PARAM_CHK((!(CMM_PORT_VALID(unit, port))), CMM_ERR_PORT);
 7734              		.loc 1 778 5 discriminator 3 view .LVU2220
 7735 007a 164B     		ldr	r3, .L773+16
 7736 007c 1A69     		ldr	r2, [r3, #16]
 7737              	.LVL1052:
 778:../switch_sdk/core/yt/yt_port.c ****     CMM_PARAM_CHK((!(CMM_PORT_VALID(unit, port))), CMM_ERR_PORT);
 7738              		.loc 1 778 5 is_stmt 0 discriminator 3 view .LVU2221
 7739 007e 164B     		ldr	r3, .L773+20
 7740 0080 9968     		ldr	r1, [r3, #8]
 7741              	.LVL1053:
 778:../switch_sdk/core/yt/yt_port.c ****     CMM_PARAM_CHK((!(CMM_PORT_VALID(unit, port))), CMM_ERR_PORT);
 7742              		.loc 1 778 5 discriminator 3 view .LVU2222
 7743 0082 1648     		ldr	r0, .L773+24
 7744 0084 FFF7FEFF 		bl	osal_printf
 7745              	.LVL1054:
 7746 0088 F5E7     		b	.L757
 7747              	.LVL1055:
 7748              	.L758:
 778:../switch_sdk/core/yt/yt_port.c ****     CMM_PARAM_CHK((!(CMM_PORT_VALID(unit, port))), CMM_ERR_PORT);
 7749              		.loc 1 778 5 discriminator 3 view .LVU2223
 7750              	.LBE151:
 779:../switch_sdk/core/yt/yt_port.c ****     CMM_PARAM_CHK((YT_ENABLE < enable || YT_DISABLE > enable), CMM_ERR_INPUT);
 7751              		.loc 1 779 5 is_stmt 1 discriminator 3 view .LVU2224
 779:../switch_sdk/core/yt/yt_port.c ****     CMM_PARAM_CHK((YT_ENABLE < enable || YT_DISABLE > enable), CMM_ERR_INPUT);
 7752              		.loc 1 779 5 discriminator 3 view .LVU2225
 7753 008a 114B     		ldr	r3, .L773+12
 7754 008c 1B78     		ldrb	r3, [r3]	@ zero_extendqisi2
 7755 008e 012B     		cmp	r3, #1
 7756 0090 01D8     		bhi	.L771
 7757              	.LVL1056:
 7758              	.L760:
 779:../switch_sdk/core/yt/yt_port.c ****     CMM_PARAM_CHK((YT_ENABLE < enable || YT_DISABLE > enable), CMM_ERR_INPUT);
 7759              		.loc 1 779 5 discriminator 7 view .LVU2226
 779:../switch_sdk/core/yt/yt_port.c ****     CMM_PARAM_CHK((YT_ENABLE < enable || YT_DISABLE > enable), CMM_ERR_INPUT);
 7760              		.loc 1 779 5 discriminator 7 view .LVU2227
 779:../switch_sdk/core/yt/yt_port.c ****     CMM_PARAM_CHK((YT_ENABLE < enable || YT_DISABLE > enable), CMM_ERR_INPUT);
 7761              		.loc 1 779 5 discriminator 7 view .LVU2228
 7762 0092 0E20     		movs	r0, #14
 7763 0094 CEE7     		b	.L750
 7764              	.LVL1057:
 7765              	.L771:
 779:../switch_sdk/core/yt/yt_port.c ****     CMM_PARAM_CHK((YT_ENABLE < enable || YT_DISABLE > enable), CMM_ERR_INPUT);
 7766              		.loc 1 779 5 discriminator 5 view .LVU2229
 7767              	.LBB152:
 779:../switch_sdk/core/yt/yt_port.c ****     CMM_PARAM_CHK((YT_ENABLE < enable || YT_DISABLE > enable), CMM_ERR_INPUT);
 7768              		.loc 1 779 5 discriminator 5 view .LVU2230
 7769 0096 0F4B     		ldr	r3, .L773+16
 7770 0098 9A6B     		ldr	r2, [r3, #56]
 7771              	.LVL1058:
 779:../switch_sdk/core/yt/yt_port.c ****     CMM_PARAM_CHK((YT_ENABLE < enable || YT_DISABLE > enable), CMM_ERR_INPUT);
 7772              		.loc 1 779 5 is_stmt 0 discriminator 5 view .LVU2231
 7773 009a 0F4B     		ldr	r3, .L773+20
 7774 009c 9968     		ldr	r1, [r3, #8]
 7775              	.LVL1059:
 779:../switch_sdk/core/yt/yt_port.c ****     CMM_PARAM_CHK((YT_ENABLE < enable || YT_DISABLE > enable), CMM_ERR_INPUT);
 7776              		.loc 1 779 5 discriminator 5 view .LVU2232
 7777 009e 0F48     		ldr	r0, .L773+24
 7778 00a0 FFF7FEFF 		bl	osal_printf
 7779              	.LVL1060:
 7780 00a4 F5E7     		b	.L760
 7781              	.LVL1061:
 7782              	.L767:
 779:../switch_sdk/core/yt/yt_port.c ****     CMM_PARAM_CHK((YT_ENABLE < enable || YT_DISABLE > enable), CMM_ERR_INPUT);
 7783              		.loc 1 779 5 discriminator 5 view .LVU2233
 7784              	.LBE152:
 780:../switch_sdk/core/yt/yt_port.c **** 
 7785              		.loc 1 780 5 is_stmt 1 discriminator 1 view .LVU2234
 780:../switch_sdk/core/yt/yt_port.c **** 
 7786              		.loc 1 780 5 discriminator 1 view .LVU2235
 7787 00a6 0A4B     		ldr	r3, .L773+12
 7788 00a8 1B78     		ldrb	r3, [r3]	@ zero_extendqisi2
 7789 00aa 012B     		cmp	r3, #1
 7790 00ac 01D8     		bhi	.L772
 7791              	.LVL1062:
 7792              	.L762:
 780:../switch_sdk/core/yt/yt_port.c **** 
 7793              		.loc 1 780 5 discriminator 5 view .LVU2236
 780:../switch_sdk/core/yt/yt_port.c **** 
 7794              		.loc 1 780 5 discriminator 5 view .LVU2237
 780:../switch_sdk/core/yt/yt_port.c **** 
 7795              		.loc 1 780 5 discriminator 5 view .LVU2238
 7796 00ae 0520     		movs	r0, #5
 7797 00b0 C0E7     		b	.L750
 7798              	.LVL1063:
 7799              	.L772:
 780:../switch_sdk/core/yt/yt_port.c **** 
 7800              		.loc 1 780 5 discriminator 3 view .LVU2239
 7801              	.LBB153:
 780:../switch_sdk/core/yt/yt_port.c **** 
 7802              		.loc 1 780 5 discriminator 3 view .LVU2240
 7803 00b2 084B     		ldr	r3, .L773+16
 7804 00b4 5A69     		ldr	r2, [r3, #20]
 7805              	.LVL1064:
 780:../switch_sdk/core/yt/yt_port.c **** 
 7806              		.loc 1 780 5 is_stmt 0 discriminator 3 view .LVU2241
 7807 00b6 084B     		ldr	r3, .L773+20
 7808 00b8 9968     		ldr	r1, [r3, #8]
 7809              	.LVL1065:
 780:../switch_sdk/core/yt/yt_port.c **** 
 7810              		.loc 1 780 5 discriminator 3 view .LVU2242
 7811 00ba 0848     		ldr	r0, .L773+24
 7812 00bc FFF7FEFF 		bl	osal_printf
 7813              	.LVL1066:
 7814 00c0 F5E7     		b	.L762
 7815              	.L774:
 7816 00c2 00BF     		.align	2
 7817              	.L773:
 7818 00c4 00000000 		.word	gpfal_dispatch
 7819 00c8 00000000 		.word	gcal_inited
 7820 00cc 00000000 		.word	gpSwitchUnit
 7821 00d0 00000000 		.word	yt_debug_level
 7822 00d4 00000000 		.word	_yt_errmsg
 7823 00d8 00000000 		.word	_yt_prompt_msg
 7824 00dc 00000000 		.word	.LC0
 7825              	.LBE153:
 7826              		.cfi_endproc
 7827              	.LFE35:
 7829              		.section	.text.yt_port_jumbo_enable_get,"ax",%progbits
 7830              		.align	1
 7831              		.global	yt_port_jumbo_enable_get
 7832              		.syntax unified
 7833              		.thumb
 7834              		.thumb_func
 7836              	yt_port_jumbo_enable_get:
 7837              	.LVL1067:
 7838              	.LFB36:
 784:../switch_sdk/core/yt/yt_port.c **** 
 785:../switch_sdk/core/yt/yt_port.c **** /**
 786:../switch_sdk/core/yt/yt_port.c ****  * @internal      yt_port_jumbo_enable_get
 787:../switch_sdk/core/yt/yt_port.c ****  * @endinternal
 788:../switch_sdk/core/yt/yt_port.c ****  *
 789:../switch_sdk/core/yt/yt_port.c ****  * @brief         Description
 790:../switch_sdk/core/yt/yt_port.c ****  * @note          APPLICABLE DEVICES  -Tiger
 791:../switch_sdk/core/yt/yt_port.c ****  * @param[in]     unit                -unit id
 792:../switch_sdk/core/yt/yt_port.c ****  * @param[in]     port                -port num
 793:../switch_sdk/core/yt/yt_port.c ****  * @param[out]    pEnable             -enable or disable
 794:../switch_sdk/core/yt/yt_port.c ****  * @retval        CMM_ERR_OK          -on success
 795:../switch_sdk/core/yt/yt_port.c ****  * @retval        CMM_ERR_FAIL        -on fail
 796:../switch_sdk/core/yt/yt_port.c ****  */
 797:../switch_sdk/core/yt/yt_port.c **** yt_ret_t yt_port_jumbo_enable_get(yt_unit_t unit, yt_port_t port, yt_enable_t *pEnable)
 798:../switch_sdk/core/yt/yt_port.c **** {
 7839              		.loc 1 798 1 is_stmt 1 view -0
 7840              		.cfi_startproc
 7841              		@ args = 0, pretend = 0, frame = 0
 7842              		@ frame_needed = 0, uses_anonymous_args = 0
 7843              		.loc 1 798 1 is_stmt 0 view .LVU2244
 7844 0000 08B5     		push	{r3, lr}
 7845              		.cfi_def_cfa_offset 8
 7846              		.cfi_offset 3, -8
 7847              		.cfi_offset 14, -4
 799:../switch_sdk/core/yt/yt_port.c ****     CMM_PARAM_CHK((YT_UNIT_NUM <= unit), CMM_ERR_INPUT);
 7848              		.loc 1 799 5 is_stmt 1 view .LVU2245
 7849              		.loc 1 799 5 view .LVU2246
 7850 0002 C0B9     		cbnz	r0, .L789
 7851 0004 8446     		mov	ip, r0
 7852              		.loc 1 799 5 discriminator 2 view .LVU2247
 800:../switch_sdk/core/yt/yt_port.c ****     CMM_PARAM_CHK(NULL == YT_DISPATCH(unit), CMM_ERR_NOT_INIT);
 7853              		.loc 1 800 5 discriminator 2 view .LVU2248
 7854              		.loc 1 800 5 discriminator 2 view .LVU2249
 7855 0006 2F4B     		ldr	r3, .L798
 7856 0008 53F82030 		ldr	r3, [r3, r0, lsl #2]
 7857 000c 0BB3     		cbz	r3, .L790
 7858              		.loc 1 800 5 discriminator 2 view .LVU2250
 801:../switch_sdk/core/yt/yt_port.c ****     CMM_PARAM_CHK((!(YT_DISPATCH(unit)->is_inited)), CMM_ERR_NOT_INIT);
 7859              		.loc 1 801 5 discriminator 2 view .LVU2251
 7860              		.loc 1 801 5 discriminator 2 view .LVU2252
 7861 000e 1878     		ldrb	r0, [r3]	@ zero_extendqisi2
 7862              	.LVL1068:
 7863              		.loc 1 801 5 is_stmt 0 discriminator 2 view .LVU2253
 7864 0010 0028     		cmp	r0, #0
 7865 0012 2CD0     		beq	.L791
 7866              		.loc 1 801 5 is_stmt 1 discriminator 2 view .LVU2254
 802:../switch_sdk/core/yt/yt_port.c ****     CMM_PARAM_CHK((!(CMM_PORT_VALID(unit, port))), CMM_ERR_PORT);
 7867              		.loc 1 802 5 discriminator 2 view .LVU2255
 7868              		.loc 1 802 5 discriminator 2 view .LVU2256
 7869 0014 2C48     		ldr	r0, .L798+4
 7870 0016 0078     		ldrb	r0, [r0]	@ zero_extendqisi2
 7871 0018 0028     		cmp	r0, #0
 7872 001a 36D0     		beq	.L783
 7873 001c 2B48     		ldr	r0, .L798+8
 7874 001e 50F82C00 		ldr	r0, [r0, ip, lsl #2]
 7875 0022 007D     		ldrb	r0, [r0, #20]	@ zero_extendqisi2
 7876 0024 8842     		cmp	r0, r1
 7877 0026 30D9     		bls	.L783
 7878              		.loc 1 802 5 discriminator 4 view .LVU2257
 803:../switch_sdk/core/yt/yt_port.c ****     CMM_PARAM_CHK((NULL == pEnable), CMM_ERR_NULL_POINT);
 7879              		.loc 1 803 5 discriminator 4 view .LVU2258
 7880              		.loc 1 803 5 discriminator 4 view .LVU2259
 7881 0028 002A     		cmp	r2, #0
 7882 002a 3CD0     		beq	.L792
 7883              		.loc 1 803 5 discriminator 2 view .LVU2260
 804:../switch_sdk/core/yt/yt_port.c **** 
 805:../switch_sdk/core/yt/yt_port.c ****     return YT_DISPATCH(unit)->port_jumbo_enable_get(unit, port, pEnable);
 7884              		.loc 1 805 5 discriminator 2 view .LVU2261
 7885              		.loc 1 805 29 is_stmt 0 discriminator 2 view .LVU2262
 7886 002c D3F8DC35 		ldr	r3, [r3, #1500]
 7887              		.loc 1 805 12 discriminator 2 view .LVU2263
 7888 0030 6046     		mov	r0, ip
 7889 0032 9847     		blx	r3
 7890              	.LVL1069:
 7891              	.L775:
 806:../switch_sdk/core/yt/yt_port.c **** }
 7892              		.loc 1 806 1 view .LVU2264
 7893 0034 08BD     		pop	{r3, pc}
 7894              	.LVL1070:
 7895              	.L789:
 799:../switch_sdk/core/yt/yt_port.c ****     CMM_PARAM_CHK(NULL == YT_DISPATCH(unit), CMM_ERR_NOT_INIT);
 7896              		.loc 1 799 5 is_stmt 1 discriminator 1 view .LVU2265
 799:../switch_sdk/core/yt/yt_port.c ****     CMM_PARAM_CHK(NULL == YT_DISPATCH(unit), CMM_ERR_NOT_INIT);
 7897              		.loc 1 799 5 discriminator 1 view .LVU2266
 7898 0036 264B     		ldr	r3, .L798+12
 7899 0038 1B78     		ldrb	r3, [r3]	@ zero_extendqisi2
 7900 003a 012B     		cmp	r3, #1
 7901 003c 01D8     		bhi	.L793
 7902              	.LVL1071:
 7903              	.L777:
 799:../switch_sdk/core/yt/yt_port.c ****     CMM_PARAM_CHK(NULL == YT_DISPATCH(unit), CMM_ERR_NOT_INIT);
 7904              		.loc 1 799 5 discriminator 5 view .LVU2267
 799:../switch_sdk/core/yt/yt_port.c ****     CMM_PARAM_CHK(NULL == YT_DISPATCH(unit), CMM_ERR_NOT_INIT);
 7905              		.loc 1 799 5 discriminator 5 view .LVU2268
 799:../switch_sdk/core/yt/yt_port.c ****     CMM_PARAM_CHK(NULL == YT_DISPATCH(unit), CMM_ERR_NOT_INIT);
 7906              		.loc 1 799 5 discriminator 5 view .LVU2269
 7907 003e 0520     		movs	r0, #5
 7908 0040 F8E7     		b	.L775
 7909              	.LVL1072:
 7910              	.L793:
 799:../switch_sdk/core/yt/yt_port.c ****     CMM_PARAM_CHK(NULL == YT_DISPATCH(unit), CMM_ERR_NOT_INIT);
 7911              		.loc 1 799 5 discriminator 3 view .LVU2270
 7912              	.LBB154:
 799:../switch_sdk/core/yt/yt_port.c ****     CMM_PARAM_CHK(NULL == YT_DISPATCH(unit), CMM_ERR_NOT_INIT);
 7913              		.loc 1 799 5 discriminator 3 view .LVU2271
 7914 0042 244B     		ldr	r3, .L798+16
 7915 0044 5A69     		ldr	r2, [r3, #20]
 7916              	.LVL1073:
 799:../switch_sdk/core/yt/yt_port.c ****     CMM_PARAM_CHK(NULL == YT_DISPATCH(unit), CMM_ERR_NOT_INIT);
 7917              		.loc 1 799 5 is_stmt 0 discriminator 3 view .LVU2272
 7918 0046 244B     		ldr	r3, .L798+20
 7919 0048 9968     		ldr	r1, [r3, #8]
 7920              	.LVL1074:
 799:../switch_sdk/core/yt/yt_port.c ****     CMM_PARAM_CHK(NULL == YT_DISPATCH(unit), CMM_ERR_NOT_INIT);
 7921              		.loc 1 799 5 discriminator 3 view .LVU2273
 7922 004a 2448     		ldr	r0, .L798+24
 7923              	.LVL1075:
 799:../switch_sdk/core/yt/yt_port.c ****     CMM_PARAM_CHK(NULL == YT_DISPATCH(unit), CMM_ERR_NOT_INIT);
 7924              		.loc 1 799 5 discriminator 3 view .LVU2274
 7925 004c FFF7FEFF 		bl	osal_printf
 7926              	.LVL1076:
 7927 0050 F5E7     		b	.L777
 7928              	.LVL1077:
 7929              	.L790:
 799:../switch_sdk/core/yt/yt_port.c ****     CMM_PARAM_CHK(NULL == YT_DISPATCH(unit), CMM_ERR_NOT_INIT);
 7930              		.loc 1 799 5 discriminator 3 view .LVU2275
 7931              	.LBE154:
 800:../switch_sdk/core/yt/yt_port.c ****     CMM_PARAM_CHK((!(YT_DISPATCH(unit)->is_inited)), CMM_ERR_NOT_INIT);
 7932              		.loc 1 800 5 is_stmt 1 discriminator 1 view .LVU2276
 800:../switch_sdk/core/yt/yt_port.c ****     CMM_PARAM_CHK((!(YT_DISPATCH(unit)->is_inited)), CMM_ERR_NOT_INIT);
 7933              		.loc 1 800 5 discriminator 1 view .LVU2277
 7934 0052 1F4B     		ldr	r3, .L798+12
 7935 0054 1B78     		ldrb	r3, [r3]	@ zero_extendqisi2
 7936 0056 012B     		cmp	r3, #1
 7937 0058 01D8     		bhi	.L794
 7938              	.LVL1078:
 7939              	.L780:
 800:../switch_sdk/core/yt/yt_port.c ****     CMM_PARAM_CHK((!(YT_DISPATCH(unit)->is_inited)), CMM_ERR_NOT_INIT);
 7940              		.loc 1 800 5 discriminator 5 view .LVU2278
 800:../switch_sdk/core/yt/yt_port.c ****     CMM_PARAM_CHK((!(YT_DISPATCH(unit)->is_inited)), CMM_ERR_NOT_INIT);
 7941              		.loc 1 800 5 discriminator 5 view .LVU2279
 800:../switch_sdk/core/yt/yt_port.c ****     CMM_PARAM_CHK((!(YT_DISPATCH(unit)->is_inited)), CMM_ERR_NOT_INIT);
 7942              		.loc 1 800 5 discriminator 5 view .LVU2280
 7943 005a 0420     		movs	r0, #4
 7944 005c EAE7     		b	.L775
 7945              	.LVL1079:
 7946              	.L794:
 800:../switch_sdk/core/yt/yt_port.c ****     CMM_PARAM_CHK((!(YT_DISPATCH(unit)->is_inited)), CMM_ERR_NOT_INIT);
 7947              		.loc 1 800 5 discriminator 3 view .LVU2281
 7948              	.LBB155:
 800:../switch_sdk/core/yt/yt_port.c ****     CMM_PARAM_CHK((!(YT_DISPATCH(unit)->is_inited)), CMM_ERR_NOT_INIT);
 7949              		.loc 1 800 5 discriminator 3 view .LVU2282
 7950 005e 1D4B     		ldr	r3, .L798+16
 7951 0060 1A69     		ldr	r2, [r3, #16]
 7952              	.LVL1080:
 800:../switch_sdk/core/yt/yt_port.c ****     CMM_PARAM_CHK((!(YT_DISPATCH(unit)->is_inited)), CMM_ERR_NOT_INIT);
 7953              		.loc 1 800 5 is_stmt 0 discriminator 3 view .LVU2283
 7954 0062 1D4B     		ldr	r3, .L798+20
 7955 0064 9968     		ldr	r1, [r3, #8]
 7956              	.LVL1081:
 800:../switch_sdk/core/yt/yt_port.c ****     CMM_PARAM_CHK((!(YT_DISPATCH(unit)->is_inited)), CMM_ERR_NOT_INIT);
 7957              		.loc 1 800 5 discriminator 3 view .LVU2284
 7958 0066 1D48     		ldr	r0, .L798+24
 7959              	.LVL1082:
 800:../switch_sdk/core/yt/yt_port.c ****     CMM_PARAM_CHK((!(YT_DISPATCH(unit)->is_inited)), CMM_ERR_NOT_INIT);
 7960              		.loc 1 800 5 discriminator 3 view .LVU2285
 7961 0068 FFF7FEFF 		bl	osal_printf
 7962              	.LVL1083:
 7963 006c F5E7     		b	.L780
 7964              	.LVL1084:
 7965              	.L791:
 800:../switch_sdk/core/yt/yt_port.c ****     CMM_PARAM_CHK((!(YT_DISPATCH(unit)->is_inited)), CMM_ERR_NOT_INIT);
 7966              		.loc 1 800 5 discriminator 3 view .LVU2286
 7967              	.LBE155:
 801:../switch_sdk/core/yt/yt_port.c ****     CMM_PARAM_CHK((!(CMM_PORT_VALID(unit, port))), CMM_ERR_PORT);
 7968              		.loc 1 801 5 is_stmt 1 discriminator 1 view .LVU2287
 801:../switch_sdk/core/yt/yt_port.c ****     CMM_PARAM_CHK((!(CMM_PORT_VALID(unit, port))), CMM_ERR_PORT);
 7969              		.loc 1 801 5 discriminator 1 view .LVU2288
 7970 006e 184B     		ldr	r3, .L798+12
 7971 0070 1B78     		ldrb	r3, [r3]	@ zero_extendqisi2
 7972 0072 012B     		cmp	r3, #1
 7973 0074 01D8     		bhi	.L795
 7974              	.LVL1085:
 7975              	.L782:
 801:../switch_sdk/core/yt/yt_port.c ****     CMM_PARAM_CHK((!(CMM_PORT_VALID(unit, port))), CMM_ERR_PORT);
 7976              		.loc 1 801 5 discriminator 5 view .LVU2289
 801:../switch_sdk/core/yt/yt_port.c ****     CMM_PARAM_CHK((!(CMM_PORT_VALID(unit, port))), CMM_ERR_PORT);
 7977              		.loc 1 801 5 discriminator 5 view .LVU2290
 801:../switch_sdk/core/yt/yt_port.c ****     CMM_PARAM_CHK((!(CMM_PORT_VALID(unit, port))), CMM_ERR_PORT);
 7978              		.loc 1 801 5 discriminator 5 view .LVU2291
 7979 0076 0420     		movs	r0, #4
 7980 0078 DCE7     		b	.L775
 7981              	.LVL1086:
 7982              	.L795:
 801:../switch_sdk/core/yt/yt_port.c ****     CMM_PARAM_CHK((!(CMM_PORT_VALID(unit, port))), CMM_ERR_PORT);
 7983              		.loc 1 801 5 discriminator 3 view .LVU2292
 7984              	.LBB156:
 801:../switch_sdk/core/yt/yt_port.c ****     CMM_PARAM_CHK((!(CMM_PORT_VALID(unit, port))), CMM_ERR_PORT);
 7985              		.loc 1 801 5 discriminator 3 view .LVU2293
 7986 007a 164B     		ldr	r3, .L798+16
 7987 007c 1A69     		ldr	r2, [r3, #16]
 7988              	.LVL1087:
 801:../switch_sdk/core/yt/yt_port.c ****     CMM_PARAM_CHK((!(CMM_PORT_VALID(unit, port))), CMM_ERR_PORT);
 7989              		.loc 1 801 5 is_stmt 0 discriminator 3 view .LVU2294
 7990 007e 164B     		ldr	r3, .L798+20
 7991 0080 9968     		ldr	r1, [r3, #8]
 7992              	.LVL1088:
 801:../switch_sdk/core/yt/yt_port.c ****     CMM_PARAM_CHK((!(CMM_PORT_VALID(unit, port))), CMM_ERR_PORT);
 7993              		.loc 1 801 5 discriminator 3 view .LVU2295
 7994 0082 1648     		ldr	r0, .L798+24
 7995 0084 FFF7FEFF 		bl	osal_printf
 7996              	.LVL1089:
 7997 0088 F5E7     		b	.L782
 7998              	.LVL1090:
 7999              	.L783:
 801:../switch_sdk/core/yt/yt_port.c ****     CMM_PARAM_CHK((!(CMM_PORT_VALID(unit, port))), CMM_ERR_PORT);
 8000              		.loc 1 801 5 discriminator 3 view .LVU2296
 8001              	.LBE156:
 802:../switch_sdk/core/yt/yt_port.c ****     CMM_PARAM_CHK((NULL == pEnable), CMM_ERR_NULL_POINT);
 8002              		.loc 1 802 5 is_stmt 1 discriminator 3 view .LVU2297
 802:../switch_sdk/core/yt/yt_port.c ****     CMM_PARAM_CHK((NULL == pEnable), CMM_ERR_NULL_POINT);
 8003              		.loc 1 802 5 discriminator 3 view .LVU2298
 8004 008a 114B     		ldr	r3, .L798+12
 8005 008c 1B78     		ldrb	r3, [r3]	@ zero_extendqisi2
 8006 008e 012B     		cmp	r3, #1
 8007 0090 01D8     		bhi	.L796
 8008              	.LVL1091:
 8009              	.L785:
 802:../switch_sdk/core/yt/yt_port.c ****     CMM_PARAM_CHK((NULL == pEnable), CMM_ERR_NULL_POINT);
 8010              		.loc 1 802 5 discriminator 7 view .LVU2299
 802:../switch_sdk/core/yt/yt_port.c ****     CMM_PARAM_CHK((NULL == pEnable), CMM_ERR_NULL_POINT);
 8011              		.loc 1 802 5 discriminator 7 view .LVU2300
 802:../switch_sdk/core/yt/yt_port.c ****     CMM_PARAM_CHK((NULL == pEnable), CMM_ERR_NULL_POINT);
 8012              		.loc 1 802 5 discriminator 7 view .LVU2301
 8013 0092 0E20     		movs	r0, #14
 8014 0094 CEE7     		b	.L775
 8015              	.LVL1092:
 8016              	.L796:
 802:../switch_sdk/core/yt/yt_port.c ****     CMM_PARAM_CHK((NULL == pEnable), CMM_ERR_NULL_POINT);
 8017              		.loc 1 802 5 discriminator 5 view .LVU2302
 8018              	.LBB157:
 802:../switch_sdk/core/yt/yt_port.c ****     CMM_PARAM_CHK((NULL == pEnable), CMM_ERR_NULL_POINT);
 8019              		.loc 1 802 5 discriminator 5 view .LVU2303
 8020 0096 0F4B     		ldr	r3, .L798+16
 8021 0098 9A6B     		ldr	r2, [r3, #56]
 8022              	.LVL1093:
 802:../switch_sdk/core/yt/yt_port.c ****     CMM_PARAM_CHK((NULL == pEnable), CMM_ERR_NULL_POINT);
 8023              		.loc 1 802 5 is_stmt 0 discriminator 5 view .LVU2304
 8024 009a 0F4B     		ldr	r3, .L798+20
 8025 009c 9968     		ldr	r1, [r3, #8]
 8026              	.LVL1094:
 802:../switch_sdk/core/yt/yt_port.c ****     CMM_PARAM_CHK((NULL == pEnable), CMM_ERR_NULL_POINT);
 8027              		.loc 1 802 5 discriminator 5 view .LVU2305
 8028 009e 0F48     		ldr	r0, .L798+24
 8029 00a0 FFF7FEFF 		bl	osal_printf
 8030              	.LVL1095:
 8031 00a4 F5E7     		b	.L785
 8032              	.LVL1096:
 8033              	.L792:
 802:../switch_sdk/core/yt/yt_port.c ****     CMM_PARAM_CHK((NULL == pEnable), CMM_ERR_NULL_POINT);
 8034              		.loc 1 802 5 discriminator 5 view .LVU2306
 8035              	.LBE157:
 803:../switch_sdk/core/yt/yt_port.c **** 
 8036              		.loc 1 803 5 is_stmt 1 discriminator 1 view .LVU2307
 803:../switch_sdk/core/yt/yt_port.c **** 
 8037              		.loc 1 803 5 discriminator 1 view .LVU2308
 8038 00a6 0A4B     		ldr	r3, .L798+12
 8039 00a8 1B78     		ldrb	r3, [r3]	@ zero_extendqisi2
 8040 00aa 012B     		cmp	r3, #1
 8041 00ac 01D8     		bhi	.L797
 8042              	.LVL1097:
 8043              	.L787:
 803:../switch_sdk/core/yt/yt_port.c **** 
 8044              		.loc 1 803 5 discriminator 5 view .LVU2309
 803:../switch_sdk/core/yt/yt_port.c **** 
 8045              		.loc 1 803 5 discriminator 5 view .LVU2310
 803:../switch_sdk/core/yt/yt_port.c **** 
 8046              		.loc 1 803 5 discriminator 5 view .LVU2311
 8047 00ae 0220     		movs	r0, #2
 8048 00b0 C0E7     		b	.L775
 8049              	.LVL1098:
 8050              	.L797:
 803:../switch_sdk/core/yt/yt_port.c **** 
 8051              		.loc 1 803 5 discriminator 3 view .LVU2312
 8052              	.LBB158:
 803:../switch_sdk/core/yt/yt_port.c **** 
 8053              		.loc 1 803 5 discriminator 3 view .LVU2313
 8054 00b2 084B     		ldr	r3, .L798+16
 8055 00b4 9A68     		ldr	r2, [r3, #8]
 8056              	.LVL1099:
 803:../switch_sdk/core/yt/yt_port.c **** 
 8057              		.loc 1 803 5 is_stmt 0 discriminator 3 view .LVU2314
 8058 00b6 084B     		ldr	r3, .L798+20
 8059 00b8 9968     		ldr	r1, [r3, #8]
 8060              	.LVL1100:
 803:../switch_sdk/core/yt/yt_port.c **** 
 8061              		.loc 1 803 5 discriminator 3 view .LVU2315
 8062 00ba 0848     		ldr	r0, .L798+24
 8063 00bc FFF7FEFF 		bl	osal_printf
 8064              	.LVL1101:
 8065 00c0 F5E7     		b	.L787
 8066              	.L799:
 8067 00c2 00BF     		.align	2
 8068              	.L798:
 8069 00c4 00000000 		.word	gpfal_dispatch
 8070 00c8 00000000 		.word	gcal_inited
 8071 00cc 00000000 		.word	gpSwitchUnit
 8072 00d0 00000000 		.word	yt_debug_level
 8073 00d4 00000000 		.word	_yt_errmsg
 8074 00d8 00000000 		.word	_yt_prompt_msg
 8075 00dc 00000000 		.word	.LC0
 8076              	.LBE158:
 8077              		.cfi_endproc
 8078              	.LFE36:
 8080              		.section	.text.yt_port_jumbo_size_set,"ax",%progbits
 8081              		.align	1
 8082              		.global	yt_port_jumbo_size_set
 8083              		.syntax unified
 8084              		.thumb
 8085              		.thumb_func
 8087              	yt_port_jumbo_size_set:
 8088              	.LVL1102:
 8089              	.LFB37:
 807:../switch_sdk/core/yt/yt_port.c **** 
 808:../switch_sdk/core/yt/yt_port.c **** /**
 809:../switch_sdk/core/yt/yt_port.c ****  * @internal      yt_port_jumbo_size_set
 810:../switch_sdk/core/yt/yt_port.c ****  * @endinternal
 811:../switch_sdk/core/yt/yt_port.c ****  *
 812:../switch_sdk/core/yt/yt_port.c ****  * @brief         Description
 813:../switch_sdk/core/yt/yt_port.c ****  * @note          APPLICABLE DEVICES  -Tiger
 814:../switch_sdk/core/yt/yt_port.c ****  * @param[in]     unit                -unit id
 815:../switch_sdk/core/yt/yt_port.c ****  * @param[in]     port                -port num
 816:../switch_sdk/core/yt/yt_port.c ****  * @param[in]     size              -jumbo frame size
 817:../switch_sdk/core/yt/yt_port.c ****  * @retval        CMM_ERR_OK          -on success
 818:../switch_sdk/core/yt/yt_port.c ****  * @retval        CMM_ERR_FAIL        -on fail
 819:../switch_sdk/core/yt/yt_port.c ****  */
 820:../switch_sdk/core/yt/yt_port.c **** yt_ret_t yt_port_jumbo_size_set(yt_unit_t unit, yt_port_t port, uint32_t size)
 821:../switch_sdk/core/yt/yt_port.c **** {
 8090              		.loc 1 821 1 is_stmt 1 view -0
 8091              		.cfi_startproc
 8092              		@ args = 0, pretend = 0, frame = 0
 8093              		@ frame_needed = 0, uses_anonymous_args = 0
 8094              		.loc 1 821 1 is_stmt 0 view .LVU2317
 8095 0000 08B5     		push	{r3, lr}
 8096              		.cfi_def_cfa_offset 8
 8097              		.cfi_offset 3, -8
 8098              		.cfi_offset 14, -4
 822:../switch_sdk/core/yt/yt_port.c ****     CMM_PARAM_CHK((YT_UNIT_NUM <= unit), CMM_ERR_INPUT);
 8099              		.loc 1 822 5 is_stmt 1 view .LVU2318
 8100              		.loc 1 822 5 view .LVU2319
 8101 0002 E0B9     		cbnz	r0, .L814
 8102 0004 8446     		mov	ip, r0
 8103              		.loc 1 822 5 discriminator 2 view .LVU2320
 823:../switch_sdk/core/yt/yt_port.c ****     CMM_PARAM_CHK(NULL == YT_DISPATCH(unit), CMM_ERR_NOT_INIT);
 8104              		.loc 1 823 5 discriminator 2 view .LVU2321
 8105              		.loc 1 823 5 discriminator 2 view .LVU2322
 8106 0006 314B     		ldr	r3, .L823
 8107 0008 53F82030 		ldr	r3, [r3, r0, lsl #2]
 8108 000c 2BB3     		cbz	r3, .L815
 8109              		.loc 1 823 5 discriminator 2 view .LVU2323
 824:../switch_sdk/core/yt/yt_port.c ****     CMM_PARAM_CHK((!(YT_DISPATCH(unit)->is_inited)), CMM_ERR_NOT_INIT);
 8110              		.loc 1 824 5 discriminator 2 view .LVU2324
 8111              		.loc 1 824 5 discriminator 2 view .LVU2325
 8112 000e 1878     		ldrb	r0, [r3]	@ zero_extendqisi2
 8113              	.LVL1103:
 8114              		.loc 1 824 5 is_stmt 0 discriminator 2 view .LVU2326
 8115 0010 0028     		cmp	r0, #0
 8116 0012 30D0     		beq	.L816
 8117              		.loc 1 824 5 is_stmt 1 discriminator 2 view .LVU2327
 825:../switch_sdk/core/yt/yt_port.c ****     CMM_PARAM_CHK((!(CMM_PORT_VALID(unit, port))), CMM_ERR_PORT);
 8118              		.loc 1 825 5 discriminator 2 view .LVU2328
 8119              		.loc 1 825 5 discriminator 2 view .LVU2329
 8120 0014 2E48     		ldr	r0, .L823+4
 8121 0016 0078     		ldrb	r0, [r0]	@ zero_extendqisi2
 8122 0018 0028     		cmp	r0, #0
 8123 001a 3AD0     		beq	.L808
 8124 001c 2D48     		ldr	r0, .L823+8
 8125 001e 50F82C00 		ldr	r0, [r0, ip, lsl #2]
 8126 0022 007D     		ldrb	r0, [r0, #20]	@ zero_extendqisi2
 8127 0024 8842     		cmp	r0, r1
 8128 0026 34D9     		bls	.L808
 8129              		.loc 1 825 5 discriminator 4 view .LVU2330
 826:../switch_sdk/core/yt/yt_port.c ****     CMM_PARAM_CHK((YT_JUMBO_SIZE_MAX < size || size < YT_JUMBO_SIZE_MIN), CMM_ERR_EXCEED_RANGE);
 8130              		.loc 1 826 5 discriminator 4 view .LVU2331
 8131              		.loc 1 826 5 discriminator 4 view .LVU2332
 8132 0028 A2F2EE5E 		subw	lr, r2, #1518
 8133 002c 41F61260 		movw	r0, #7698
 8134 0030 8645     		cmp	lr, r0
 8135 0032 3CD8     		bhi	.L817
 8136              		.loc 1 826 5 discriminator 2 view .LVU2333
 827:../switch_sdk/core/yt/yt_port.c **** 
 828:../switch_sdk/core/yt/yt_port.c ****     return YT_DISPATCH(unit)->port_jumbo_size_set(unit, port, size);
 8137              		.loc 1 828 5 discriminator 2 view .LVU2334
 8138              		.loc 1 828 29 is_stmt 0 discriminator 2 view .LVU2335
 8139 0034 D3F8E035 		ldr	r3, [r3, #1504]
 8140              		.loc 1 828 12 discriminator 2 view .LVU2336
 8141 0038 6046     		mov	r0, ip
 8142 003a 9847     		blx	r3
 8143              	.LVL1104:
 8144              	.L800:
 829:../switch_sdk/core/yt/yt_port.c **** }
 8145              		.loc 1 829 1 view .LVU2337
 8146 003c 08BD     		pop	{r3, pc}
 8147              	.LVL1105:
 8148              	.L814:
 822:../switch_sdk/core/yt/yt_port.c ****     CMM_PARAM_CHK(NULL == YT_DISPATCH(unit), CMM_ERR_NOT_INIT);
 8149              		.loc 1 822 5 is_stmt 1 discriminator 1 view .LVU2338
 822:../switch_sdk/core/yt/yt_port.c ****     CMM_PARAM_CHK(NULL == YT_DISPATCH(unit), CMM_ERR_NOT_INIT);
 8150              		.loc 1 822 5 discriminator 1 view .LVU2339
 8151 003e 264B     		ldr	r3, .L823+12
 8152 0040 1B78     		ldrb	r3, [r3]	@ zero_extendqisi2
 8153 0042 012B     		cmp	r3, #1
 8154 0044 01D8     		bhi	.L818
 8155              	.LVL1106:
 8156              	.L802:
 822:../switch_sdk/core/yt/yt_port.c ****     CMM_PARAM_CHK(NULL == YT_DISPATCH(unit), CMM_ERR_NOT_INIT);
 8157              		.loc 1 822 5 discriminator 5 view .LVU2340
 822:../switch_sdk/core/yt/yt_port.c ****     CMM_PARAM_CHK(NULL == YT_DISPATCH(unit), CMM_ERR_NOT_INIT);
 8158              		.loc 1 822 5 discriminator 5 view .LVU2341
 822:../switch_sdk/core/yt/yt_port.c ****     CMM_PARAM_CHK(NULL == YT_DISPATCH(unit), CMM_ERR_NOT_INIT);
 8159              		.loc 1 822 5 discriminator 5 view .LVU2342
 8160 0046 0520     		movs	r0, #5
 8161 0048 F8E7     		b	.L800
 8162              	.LVL1107:
 8163              	.L818:
 822:../switch_sdk/core/yt/yt_port.c ****     CMM_PARAM_CHK(NULL == YT_DISPATCH(unit), CMM_ERR_NOT_INIT);
 8164              		.loc 1 822 5 discriminator 3 view .LVU2343
 8165              	.LBB159:
 822:../switch_sdk/core/yt/yt_port.c ****     CMM_PARAM_CHK(NULL == YT_DISPATCH(unit), CMM_ERR_NOT_INIT);
 8166              		.loc 1 822 5 discriminator 3 view .LVU2344
 8167 004a 244B     		ldr	r3, .L823+16
 8168 004c 5A69     		ldr	r2, [r3, #20]
 8169              	.LVL1108:
 822:../switch_sdk/core/yt/yt_port.c ****     CMM_PARAM_CHK(NULL == YT_DISPATCH(unit), CMM_ERR_NOT_INIT);
 8170              		.loc 1 822 5 is_stmt 0 discriminator 3 view .LVU2345
 8171 004e 244B     		ldr	r3, .L823+20
 8172 0050 9968     		ldr	r1, [r3, #8]
 8173              	.LVL1109:
 822:../switch_sdk/core/yt/yt_port.c ****     CMM_PARAM_CHK(NULL == YT_DISPATCH(unit), CMM_ERR_NOT_INIT);
 8174              		.loc 1 822 5 discriminator 3 view .LVU2346
 8175 0052 2448     		ldr	r0, .L823+24
 8176              	.LVL1110:
 822:../switch_sdk/core/yt/yt_port.c ****     CMM_PARAM_CHK(NULL == YT_DISPATCH(unit), CMM_ERR_NOT_INIT);
 8177              		.loc 1 822 5 discriminator 3 view .LVU2347
 8178 0054 FFF7FEFF 		bl	osal_printf
 8179              	.LVL1111:
 8180 0058 F5E7     		b	.L802
 8181              	.LVL1112:
 8182              	.L815:
 822:../switch_sdk/core/yt/yt_port.c ****     CMM_PARAM_CHK(NULL == YT_DISPATCH(unit), CMM_ERR_NOT_INIT);
 8183              		.loc 1 822 5 discriminator 3 view .LVU2348
 8184              	.LBE159:
 823:../switch_sdk/core/yt/yt_port.c ****     CMM_PARAM_CHK((!(YT_DISPATCH(unit)->is_inited)), CMM_ERR_NOT_INIT);
 8185              		.loc 1 823 5 is_stmt 1 discriminator 1 view .LVU2349
 823:../switch_sdk/core/yt/yt_port.c ****     CMM_PARAM_CHK((!(YT_DISPATCH(unit)->is_inited)), CMM_ERR_NOT_INIT);
 8186              		.loc 1 823 5 discriminator 1 view .LVU2350
 8187 005a 1F4B     		ldr	r3, .L823+12
 8188 005c 1B78     		ldrb	r3, [r3]	@ zero_extendqisi2
 8189 005e 012B     		cmp	r3, #1
 8190 0060 01D8     		bhi	.L819
 8191              	.LVL1113:
 8192              	.L805:
 823:../switch_sdk/core/yt/yt_port.c ****     CMM_PARAM_CHK((!(YT_DISPATCH(unit)->is_inited)), CMM_ERR_NOT_INIT);
 8193              		.loc 1 823 5 discriminator 5 view .LVU2351
 823:../switch_sdk/core/yt/yt_port.c ****     CMM_PARAM_CHK((!(YT_DISPATCH(unit)->is_inited)), CMM_ERR_NOT_INIT);
 8194              		.loc 1 823 5 discriminator 5 view .LVU2352
 823:../switch_sdk/core/yt/yt_port.c ****     CMM_PARAM_CHK((!(YT_DISPATCH(unit)->is_inited)), CMM_ERR_NOT_INIT);
 8195              		.loc 1 823 5 discriminator 5 view .LVU2353
 8196 0062 0420     		movs	r0, #4
 8197 0064 EAE7     		b	.L800
 8198              	.LVL1114:
 8199              	.L819:
 823:../switch_sdk/core/yt/yt_port.c ****     CMM_PARAM_CHK((!(YT_DISPATCH(unit)->is_inited)), CMM_ERR_NOT_INIT);
 8200              		.loc 1 823 5 discriminator 3 view .LVU2354
 8201              	.LBB160:
 823:../switch_sdk/core/yt/yt_port.c ****     CMM_PARAM_CHK((!(YT_DISPATCH(unit)->is_inited)), CMM_ERR_NOT_INIT);
 8202              		.loc 1 823 5 discriminator 3 view .LVU2355
 8203 0066 1D4B     		ldr	r3, .L823+16
 8204 0068 1A69     		ldr	r2, [r3, #16]
 8205              	.LVL1115:
 823:../switch_sdk/core/yt/yt_port.c ****     CMM_PARAM_CHK((!(YT_DISPATCH(unit)->is_inited)), CMM_ERR_NOT_INIT);
 8206              		.loc 1 823 5 is_stmt 0 discriminator 3 view .LVU2356
 8207 006a 1D4B     		ldr	r3, .L823+20
 8208 006c 9968     		ldr	r1, [r3, #8]
 8209              	.LVL1116:
 823:../switch_sdk/core/yt/yt_port.c ****     CMM_PARAM_CHK((!(YT_DISPATCH(unit)->is_inited)), CMM_ERR_NOT_INIT);
 8210              		.loc 1 823 5 discriminator 3 view .LVU2357
 8211 006e 1D48     		ldr	r0, .L823+24
 8212              	.LVL1117:
 823:../switch_sdk/core/yt/yt_port.c ****     CMM_PARAM_CHK((!(YT_DISPATCH(unit)->is_inited)), CMM_ERR_NOT_INIT);
 8213              		.loc 1 823 5 discriminator 3 view .LVU2358
 8214 0070 FFF7FEFF 		bl	osal_printf
 8215              	.LVL1118:
 8216 0074 F5E7     		b	.L805
 8217              	.LVL1119:
 8218              	.L816:
 823:../switch_sdk/core/yt/yt_port.c ****     CMM_PARAM_CHK((!(YT_DISPATCH(unit)->is_inited)), CMM_ERR_NOT_INIT);
 8219              		.loc 1 823 5 discriminator 3 view .LVU2359
 8220              	.LBE160:
 824:../switch_sdk/core/yt/yt_port.c ****     CMM_PARAM_CHK((!(CMM_PORT_VALID(unit, port))), CMM_ERR_PORT);
 8221              		.loc 1 824 5 is_stmt 1 discriminator 1 view .LVU2360
 824:../switch_sdk/core/yt/yt_port.c ****     CMM_PARAM_CHK((!(CMM_PORT_VALID(unit, port))), CMM_ERR_PORT);
 8222              		.loc 1 824 5 discriminator 1 view .LVU2361
 8223 0076 184B     		ldr	r3, .L823+12
 8224 0078 1B78     		ldrb	r3, [r3]	@ zero_extendqisi2
 8225 007a 012B     		cmp	r3, #1
 8226 007c 01D8     		bhi	.L820
 8227              	.LVL1120:
 8228              	.L807:
 824:../switch_sdk/core/yt/yt_port.c ****     CMM_PARAM_CHK((!(CMM_PORT_VALID(unit, port))), CMM_ERR_PORT);
 8229              		.loc 1 824 5 discriminator 5 view .LVU2362
 824:../switch_sdk/core/yt/yt_port.c ****     CMM_PARAM_CHK((!(CMM_PORT_VALID(unit, port))), CMM_ERR_PORT);
 8230              		.loc 1 824 5 discriminator 5 view .LVU2363
 824:../switch_sdk/core/yt/yt_port.c ****     CMM_PARAM_CHK((!(CMM_PORT_VALID(unit, port))), CMM_ERR_PORT);
 8231              		.loc 1 824 5 discriminator 5 view .LVU2364
 8232 007e 0420     		movs	r0, #4
 8233 0080 DCE7     		b	.L800
 8234              	.LVL1121:
 8235              	.L820:
 824:../switch_sdk/core/yt/yt_port.c ****     CMM_PARAM_CHK((!(CMM_PORT_VALID(unit, port))), CMM_ERR_PORT);
 8236              		.loc 1 824 5 discriminator 3 view .LVU2365
 8237              	.LBB161:
 824:../switch_sdk/core/yt/yt_port.c ****     CMM_PARAM_CHK((!(CMM_PORT_VALID(unit, port))), CMM_ERR_PORT);
 8238              		.loc 1 824 5 discriminator 3 view .LVU2366
 8239 0082 164B     		ldr	r3, .L823+16
 8240 0084 1A69     		ldr	r2, [r3, #16]
 8241              	.LVL1122:
 824:../switch_sdk/core/yt/yt_port.c ****     CMM_PARAM_CHK((!(CMM_PORT_VALID(unit, port))), CMM_ERR_PORT);
 8242              		.loc 1 824 5 is_stmt 0 discriminator 3 view .LVU2367
 8243 0086 164B     		ldr	r3, .L823+20
 8244 0088 9968     		ldr	r1, [r3, #8]
 8245              	.LVL1123:
 824:../switch_sdk/core/yt/yt_port.c ****     CMM_PARAM_CHK((!(CMM_PORT_VALID(unit, port))), CMM_ERR_PORT);
 8246              		.loc 1 824 5 discriminator 3 view .LVU2368
 8247 008a 1648     		ldr	r0, .L823+24
 8248 008c FFF7FEFF 		bl	osal_printf
 8249              	.LVL1124:
 8250 0090 F5E7     		b	.L807
 8251              	.LVL1125:
 8252              	.L808:
 824:../switch_sdk/core/yt/yt_port.c ****     CMM_PARAM_CHK((!(CMM_PORT_VALID(unit, port))), CMM_ERR_PORT);
 8253              		.loc 1 824 5 discriminator 3 view .LVU2369
 8254              	.LBE161:
 825:../switch_sdk/core/yt/yt_port.c ****     CMM_PARAM_CHK((YT_JUMBO_SIZE_MAX < size || size < YT_JUMBO_SIZE_MIN), CMM_ERR_EXCEED_RANGE);
 8255              		.loc 1 825 5 is_stmt 1 discriminator 3 view .LVU2370
 825:../switch_sdk/core/yt/yt_port.c ****     CMM_PARAM_CHK((YT_JUMBO_SIZE_MAX < size || size < YT_JUMBO_SIZE_MIN), CMM_ERR_EXCEED_RANGE);
 8256              		.loc 1 825 5 discriminator 3 view .LVU2371
 8257 0092 114B     		ldr	r3, .L823+12
 8258 0094 1B78     		ldrb	r3, [r3]	@ zero_extendqisi2
 8259 0096 012B     		cmp	r3, #1
 8260 0098 01D8     		bhi	.L821
 8261              	.LVL1126:
 8262              	.L810:
 825:../switch_sdk/core/yt/yt_port.c ****     CMM_PARAM_CHK((YT_JUMBO_SIZE_MAX < size || size < YT_JUMBO_SIZE_MIN), CMM_ERR_EXCEED_RANGE);
 8263              		.loc 1 825 5 discriminator 7 view .LVU2372
 825:../switch_sdk/core/yt/yt_port.c ****     CMM_PARAM_CHK((YT_JUMBO_SIZE_MAX < size || size < YT_JUMBO_SIZE_MIN), CMM_ERR_EXCEED_RANGE);
 8264              		.loc 1 825 5 discriminator 7 view .LVU2373
 825:../switch_sdk/core/yt/yt_port.c ****     CMM_PARAM_CHK((YT_JUMBO_SIZE_MAX < size || size < YT_JUMBO_SIZE_MIN), CMM_ERR_EXCEED_RANGE);
 8265              		.loc 1 825 5 discriminator 7 view .LVU2374
 8266 009a 0E20     		movs	r0, #14
 8267 009c CEE7     		b	.L800
 8268              	.LVL1127:
 8269              	.L821:
 825:../switch_sdk/core/yt/yt_port.c ****     CMM_PARAM_CHK((YT_JUMBO_SIZE_MAX < size || size < YT_JUMBO_SIZE_MIN), CMM_ERR_EXCEED_RANGE);
 8270              		.loc 1 825 5 discriminator 5 view .LVU2375
 8271              	.LBB162:
 825:../switch_sdk/core/yt/yt_port.c ****     CMM_PARAM_CHK((YT_JUMBO_SIZE_MAX < size || size < YT_JUMBO_SIZE_MIN), CMM_ERR_EXCEED_RANGE);
 8272              		.loc 1 825 5 discriminator 5 view .LVU2376
 8273 009e 0F4B     		ldr	r3, .L823+16
 8274 00a0 9A6B     		ldr	r2, [r3, #56]
 8275              	.LVL1128:
 825:../switch_sdk/core/yt/yt_port.c ****     CMM_PARAM_CHK((YT_JUMBO_SIZE_MAX < size || size < YT_JUMBO_SIZE_MIN), CMM_ERR_EXCEED_RANGE);
 8276              		.loc 1 825 5 is_stmt 0 discriminator 5 view .LVU2377
 8277 00a2 0F4B     		ldr	r3, .L823+20
 8278 00a4 9968     		ldr	r1, [r3, #8]
 8279              	.LVL1129:
 825:../switch_sdk/core/yt/yt_port.c ****     CMM_PARAM_CHK((YT_JUMBO_SIZE_MAX < size || size < YT_JUMBO_SIZE_MIN), CMM_ERR_EXCEED_RANGE);
 8280              		.loc 1 825 5 discriminator 5 view .LVU2378
 8281 00a6 0F48     		ldr	r0, .L823+24
 8282 00a8 FFF7FEFF 		bl	osal_printf
 8283              	.LVL1130:
 8284 00ac F5E7     		b	.L810
 8285              	.LVL1131:
 8286              	.L817:
 825:../switch_sdk/core/yt/yt_port.c ****     CMM_PARAM_CHK((YT_JUMBO_SIZE_MAX < size || size < YT_JUMBO_SIZE_MIN), CMM_ERR_EXCEED_RANGE);
 8287              		.loc 1 825 5 discriminator 5 view .LVU2379
 8288              	.LBE162:
 826:../switch_sdk/core/yt/yt_port.c **** 
 8289              		.loc 1 826 5 is_stmt 1 discriminator 1 view .LVU2380
 826:../switch_sdk/core/yt/yt_port.c **** 
 8290              		.loc 1 826 5 discriminator 1 view .LVU2381
 8291 00ae 0A4B     		ldr	r3, .L823+12
 8292 00b0 1B78     		ldrb	r3, [r3]	@ zero_extendqisi2
 8293 00b2 012B     		cmp	r3, #1
 8294 00b4 01D8     		bhi	.L822
 8295              	.LVL1132:
 8296              	.L812:
 826:../switch_sdk/core/yt/yt_port.c **** 
 8297              		.loc 1 826 5 discriminator 5 view .LVU2382
 826:../switch_sdk/core/yt/yt_port.c **** 
 8298              		.loc 1 826 5 discriminator 5 view .LVU2383
 826:../switch_sdk/core/yt/yt_port.c **** 
 8299              		.loc 1 826 5 discriminator 5 view .LVU2384
 8300 00b6 1120     		movs	r0, #17
 8301 00b8 C0E7     		b	.L800
 8302              	.LVL1133:
 8303              	.L822:
 826:../switch_sdk/core/yt/yt_port.c **** 
 8304              		.loc 1 826 5 discriminator 3 view .LVU2385
 8305              	.LBB163:
 826:../switch_sdk/core/yt/yt_port.c **** 
 8306              		.loc 1 826 5 discriminator 3 view .LVU2386
 8307 00ba 084B     		ldr	r3, .L823+16
 8308 00bc 5A6C     		ldr	r2, [r3, #68]
 8309              	.LVL1134:
 826:../switch_sdk/core/yt/yt_port.c **** 
 8310              		.loc 1 826 5 is_stmt 0 discriminator 3 view .LVU2387
 8311 00be 084B     		ldr	r3, .L823+20
 8312 00c0 9968     		ldr	r1, [r3, #8]
 8313              	.LVL1135:
 826:../switch_sdk/core/yt/yt_port.c **** 
 8314              		.loc 1 826 5 discriminator 3 view .LVU2388
 8315 00c2 0848     		ldr	r0, .L823+24
 8316 00c4 FFF7FEFF 		bl	osal_printf
 8317              	.LVL1136:
 826:../switch_sdk/core/yt/yt_port.c **** 
 8318              		.loc 1 826 5 discriminator 3 view .LVU2389
 8319 00c8 F5E7     		b	.L812
 8320              	.L824:
 8321 00ca 00BF     		.align	2
 8322              	.L823:
 8323 00cc 00000000 		.word	gpfal_dispatch
 8324 00d0 00000000 		.word	gcal_inited
 8325 00d4 00000000 		.word	gpSwitchUnit
 8326 00d8 00000000 		.word	yt_debug_level
 8327 00dc 00000000 		.word	_yt_errmsg
 8328 00e0 00000000 		.word	_yt_prompt_msg
 8329 00e4 00000000 		.word	.LC0
 8330              	.LBE163:
 8331              		.cfi_endproc
 8332              	.LFE37:
 8334              		.section	.text.yt_port_jumbo_size_get,"ax",%progbits
 8335              		.align	1
 8336              		.global	yt_port_jumbo_size_get
 8337              		.syntax unified
 8338              		.thumb
 8339              		.thumb_func
 8341              	yt_port_jumbo_size_get:
 8342              	.LVL1137:
 8343              	.LFB38:
 830:../switch_sdk/core/yt/yt_port.c **** 
 831:../switch_sdk/core/yt/yt_port.c **** /**
 832:../switch_sdk/core/yt/yt_port.c ****  * @internal      yt_port_jumbo_size_get
 833:../switch_sdk/core/yt/yt_port.c ****  * @endinternal
 834:../switch_sdk/core/yt/yt_port.c ****  *
 835:../switch_sdk/core/yt/yt_port.c ****  * @brief         Description
 836:../switch_sdk/core/yt/yt_port.c ****  * @note          APPLICABLE DEVICES  -Tiger
 837:../switch_sdk/core/yt/yt_port.c ****  * @param[in]     unit                -unit id
 838:../switch_sdk/core/yt/yt_port.c ****  * @param[in]     port                -port num
 839:../switch_sdk/core/yt/yt_port.c ****  * @param[out]    pSize             -jumbo frame size
 840:../switch_sdk/core/yt/yt_port.c ****  * @retval        CMM_ERR_OK          -on success
 841:../switch_sdk/core/yt/yt_port.c ****  * @retval        CMM_ERR_FAIL        -on fail
 842:../switch_sdk/core/yt/yt_port.c ****  */
 843:../switch_sdk/core/yt/yt_port.c **** yt_ret_t yt_port_jumbo_size_get(yt_unit_t unit, yt_port_t port, uint32_t *pSize)
 844:../switch_sdk/core/yt/yt_port.c **** {
 8344              		.loc 1 844 1 is_stmt 1 view -0
 8345              		.cfi_startproc
 8346              		@ args = 0, pretend = 0, frame = 0
 8347              		@ frame_needed = 0, uses_anonymous_args = 0
 8348              		.loc 1 844 1 is_stmt 0 view .LVU2391
 8349 0000 08B5     		push	{r3, lr}
 8350              		.cfi_def_cfa_offset 8
 8351              		.cfi_offset 3, -8
 8352              		.cfi_offset 14, -4
 845:../switch_sdk/core/yt/yt_port.c ****     CMM_PARAM_CHK((YT_UNIT_NUM <= unit), CMM_ERR_INPUT);
 8353              		.loc 1 845 5 is_stmt 1 view .LVU2392
 8354              		.loc 1 845 5 view .LVU2393
 8355 0002 C0B9     		cbnz	r0, .L839
 8356 0004 8446     		mov	ip, r0
 8357              		.loc 1 845 5 discriminator 2 view .LVU2394
 846:../switch_sdk/core/yt/yt_port.c ****     CMM_PARAM_CHK(NULL == YT_DISPATCH(unit), CMM_ERR_NOT_INIT);
 8358              		.loc 1 846 5 discriminator 2 view .LVU2395
 8359              		.loc 1 846 5 discriminator 2 view .LVU2396
 8360 0006 2F4B     		ldr	r3, .L848
 8361 0008 53F82030 		ldr	r3, [r3, r0, lsl #2]
 8362 000c 0BB3     		cbz	r3, .L840
 8363              		.loc 1 846 5 discriminator 2 view .LVU2397
 847:../switch_sdk/core/yt/yt_port.c ****     CMM_PARAM_CHK((!(YT_DISPATCH(unit)->is_inited)), CMM_ERR_NOT_INIT);
 8364              		.loc 1 847 5 discriminator 2 view .LVU2398
 8365              		.loc 1 847 5 discriminator 2 view .LVU2399
 8366 000e 1878     		ldrb	r0, [r3]	@ zero_extendqisi2
 8367              	.LVL1138:
 8368              		.loc 1 847 5 is_stmt 0 discriminator 2 view .LVU2400
 8369 0010 0028     		cmp	r0, #0
 8370 0012 2CD0     		beq	.L841
 8371              		.loc 1 847 5 is_stmt 1 discriminator 2 view .LVU2401
 848:../switch_sdk/core/yt/yt_port.c ****     CMM_PARAM_CHK((!(CMM_PORT_VALID(unit, port))), CMM_ERR_PORT);
 8372              		.loc 1 848 5 discriminator 2 view .LVU2402
 8373              		.loc 1 848 5 discriminator 2 view .LVU2403
 8374 0014 2C48     		ldr	r0, .L848+4
 8375 0016 0078     		ldrb	r0, [r0]	@ zero_extendqisi2
 8376 0018 0028     		cmp	r0, #0
 8377 001a 36D0     		beq	.L833
 8378 001c 2B48     		ldr	r0, .L848+8
 8379 001e 50F82C00 		ldr	r0, [r0, ip, lsl #2]
 8380 0022 007D     		ldrb	r0, [r0, #20]	@ zero_extendqisi2
 8381 0024 8842     		cmp	r0, r1
 8382 0026 30D9     		bls	.L833
 8383              		.loc 1 848 5 discriminator 4 view .LVU2404
 849:../switch_sdk/core/yt/yt_port.c ****     CMM_PARAM_CHK((NULL == pSize), CMM_ERR_NULL_POINT);
 8384              		.loc 1 849 5 discriminator 4 view .LVU2405
 8385              		.loc 1 849 5 discriminator 4 view .LVU2406
 8386 0028 002A     		cmp	r2, #0
 8387 002a 3CD0     		beq	.L842
 8388              		.loc 1 849 5 discriminator 2 view .LVU2407
 850:../switch_sdk/core/yt/yt_port.c **** 
 851:../switch_sdk/core/yt/yt_port.c ****     return YT_DISPATCH(unit)->port_jumbo_size_get(unit, port, pSize);
 8389              		.loc 1 851 5 discriminator 2 view .LVU2408
 8390              		.loc 1 851 29 is_stmt 0 discriminator 2 view .LVU2409
 8391 002c D3F8E435 		ldr	r3, [r3, #1508]
 8392              		.loc 1 851 12 discriminator 2 view .LVU2410
 8393 0030 6046     		mov	r0, ip
 8394 0032 9847     		blx	r3
 8395              	.LVL1139:
 8396              	.L825:
 852:../switch_sdk/core/yt/yt_port.c **** }
 8397              		.loc 1 852 1 view .LVU2411
 8398 0034 08BD     		pop	{r3, pc}
 8399              	.LVL1140:
 8400              	.L839:
 845:../switch_sdk/core/yt/yt_port.c ****     CMM_PARAM_CHK(NULL == YT_DISPATCH(unit), CMM_ERR_NOT_INIT);
 8401              		.loc 1 845 5 is_stmt 1 discriminator 1 view .LVU2412
 845:../switch_sdk/core/yt/yt_port.c ****     CMM_PARAM_CHK(NULL == YT_DISPATCH(unit), CMM_ERR_NOT_INIT);
 8402              		.loc 1 845 5 discriminator 1 view .LVU2413
 8403 0036 264B     		ldr	r3, .L848+12
 8404 0038 1B78     		ldrb	r3, [r3]	@ zero_extendqisi2
 8405 003a 012B     		cmp	r3, #1
 8406 003c 01D8     		bhi	.L843
 8407              	.LVL1141:
 8408              	.L827:
 845:../switch_sdk/core/yt/yt_port.c ****     CMM_PARAM_CHK(NULL == YT_DISPATCH(unit), CMM_ERR_NOT_INIT);
 8409              		.loc 1 845 5 discriminator 5 view .LVU2414
 845:../switch_sdk/core/yt/yt_port.c ****     CMM_PARAM_CHK(NULL == YT_DISPATCH(unit), CMM_ERR_NOT_INIT);
 8410              		.loc 1 845 5 discriminator 5 view .LVU2415
 845:../switch_sdk/core/yt/yt_port.c ****     CMM_PARAM_CHK(NULL == YT_DISPATCH(unit), CMM_ERR_NOT_INIT);
 8411              		.loc 1 845 5 discriminator 5 view .LVU2416
 8412 003e 0520     		movs	r0, #5
 8413 0040 F8E7     		b	.L825
 8414              	.LVL1142:
 8415              	.L843:
 845:../switch_sdk/core/yt/yt_port.c ****     CMM_PARAM_CHK(NULL == YT_DISPATCH(unit), CMM_ERR_NOT_INIT);
 8416              		.loc 1 845 5 discriminator 3 view .LVU2417
 8417              	.LBB164:
 845:../switch_sdk/core/yt/yt_port.c ****     CMM_PARAM_CHK(NULL == YT_DISPATCH(unit), CMM_ERR_NOT_INIT);
 8418              		.loc 1 845 5 discriminator 3 view .LVU2418
 8419 0042 244B     		ldr	r3, .L848+16
 8420 0044 5A69     		ldr	r2, [r3, #20]
 8421              	.LVL1143:
 845:../switch_sdk/core/yt/yt_port.c ****     CMM_PARAM_CHK(NULL == YT_DISPATCH(unit), CMM_ERR_NOT_INIT);
 8422              		.loc 1 845 5 is_stmt 0 discriminator 3 view .LVU2419
 8423 0046 244B     		ldr	r3, .L848+20
 8424 0048 9968     		ldr	r1, [r3, #8]
 8425              	.LVL1144:
 845:../switch_sdk/core/yt/yt_port.c ****     CMM_PARAM_CHK(NULL == YT_DISPATCH(unit), CMM_ERR_NOT_INIT);
 8426              		.loc 1 845 5 discriminator 3 view .LVU2420
 8427 004a 2448     		ldr	r0, .L848+24
 8428              	.LVL1145:
 845:../switch_sdk/core/yt/yt_port.c ****     CMM_PARAM_CHK(NULL == YT_DISPATCH(unit), CMM_ERR_NOT_INIT);
 8429              		.loc 1 845 5 discriminator 3 view .LVU2421
 8430 004c FFF7FEFF 		bl	osal_printf
 8431              	.LVL1146:
 8432 0050 F5E7     		b	.L827
 8433              	.LVL1147:
 8434              	.L840:
 845:../switch_sdk/core/yt/yt_port.c ****     CMM_PARAM_CHK(NULL == YT_DISPATCH(unit), CMM_ERR_NOT_INIT);
 8435              		.loc 1 845 5 discriminator 3 view .LVU2422
 8436              	.LBE164:
 846:../switch_sdk/core/yt/yt_port.c ****     CMM_PARAM_CHK((!(YT_DISPATCH(unit)->is_inited)), CMM_ERR_NOT_INIT);
 8437              		.loc 1 846 5 is_stmt 1 discriminator 1 view .LVU2423
 846:../switch_sdk/core/yt/yt_port.c ****     CMM_PARAM_CHK((!(YT_DISPATCH(unit)->is_inited)), CMM_ERR_NOT_INIT);
 8438              		.loc 1 846 5 discriminator 1 view .LVU2424
 8439 0052 1F4B     		ldr	r3, .L848+12
 8440 0054 1B78     		ldrb	r3, [r3]	@ zero_extendqisi2
 8441 0056 012B     		cmp	r3, #1
 8442 0058 01D8     		bhi	.L844
 8443              	.LVL1148:
 8444              	.L830:
 846:../switch_sdk/core/yt/yt_port.c ****     CMM_PARAM_CHK((!(YT_DISPATCH(unit)->is_inited)), CMM_ERR_NOT_INIT);
 8445              		.loc 1 846 5 discriminator 5 view .LVU2425
 846:../switch_sdk/core/yt/yt_port.c ****     CMM_PARAM_CHK((!(YT_DISPATCH(unit)->is_inited)), CMM_ERR_NOT_INIT);
 8446              		.loc 1 846 5 discriminator 5 view .LVU2426
 846:../switch_sdk/core/yt/yt_port.c ****     CMM_PARAM_CHK((!(YT_DISPATCH(unit)->is_inited)), CMM_ERR_NOT_INIT);
 8447              		.loc 1 846 5 discriminator 5 view .LVU2427
 8448 005a 0420     		movs	r0, #4
 8449 005c EAE7     		b	.L825
 8450              	.LVL1149:
 8451              	.L844:
 846:../switch_sdk/core/yt/yt_port.c ****     CMM_PARAM_CHK((!(YT_DISPATCH(unit)->is_inited)), CMM_ERR_NOT_INIT);
 8452              		.loc 1 846 5 discriminator 3 view .LVU2428
 8453              	.LBB165:
 846:../switch_sdk/core/yt/yt_port.c ****     CMM_PARAM_CHK((!(YT_DISPATCH(unit)->is_inited)), CMM_ERR_NOT_INIT);
 8454              		.loc 1 846 5 discriminator 3 view .LVU2429
 8455 005e 1D4B     		ldr	r3, .L848+16
 8456 0060 1A69     		ldr	r2, [r3, #16]
 8457              	.LVL1150:
 846:../switch_sdk/core/yt/yt_port.c ****     CMM_PARAM_CHK((!(YT_DISPATCH(unit)->is_inited)), CMM_ERR_NOT_INIT);
 8458              		.loc 1 846 5 is_stmt 0 discriminator 3 view .LVU2430
 8459 0062 1D4B     		ldr	r3, .L848+20
 8460 0064 9968     		ldr	r1, [r3, #8]
 8461              	.LVL1151:
 846:../switch_sdk/core/yt/yt_port.c ****     CMM_PARAM_CHK((!(YT_DISPATCH(unit)->is_inited)), CMM_ERR_NOT_INIT);
 8462              		.loc 1 846 5 discriminator 3 view .LVU2431
 8463 0066 1D48     		ldr	r0, .L848+24
 8464              	.LVL1152:
 846:../switch_sdk/core/yt/yt_port.c ****     CMM_PARAM_CHK((!(YT_DISPATCH(unit)->is_inited)), CMM_ERR_NOT_INIT);
 8465              		.loc 1 846 5 discriminator 3 view .LVU2432
 8466 0068 FFF7FEFF 		bl	osal_printf
 8467              	.LVL1153:
 8468 006c F5E7     		b	.L830
 8469              	.LVL1154:
 8470              	.L841:
 846:../switch_sdk/core/yt/yt_port.c ****     CMM_PARAM_CHK((!(YT_DISPATCH(unit)->is_inited)), CMM_ERR_NOT_INIT);
 8471              		.loc 1 846 5 discriminator 3 view .LVU2433
 8472              	.LBE165:
 847:../switch_sdk/core/yt/yt_port.c ****     CMM_PARAM_CHK((!(CMM_PORT_VALID(unit, port))), CMM_ERR_PORT);
 8473              		.loc 1 847 5 is_stmt 1 discriminator 1 view .LVU2434
 847:../switch_sdk/core/yt/yt_port.c ****     CMM_PARAM_CHK((!(CMM_PORT_VALID(unit, port))), CMM_ERR_PORT);
 8474              		.loc 1 847 5 discriminator 1 view .LVU2435
 8475 006e 184B     		ldr	r3, .L848+12
 8476 0070 1B78     		ldrb	r3, [r3]	@ zero_extendqisi2
 8477 0072 012B     		cmp	r3, #1
 8478 0074 01D8     		bhi	.L845
 8479              	.LVL1155:
 8480              	.L832:
 847:../switch_sdk/core/yt/yt_port.c ****     CMM_PARAM_CHK((!(CMM_PORT_VALID(unit, port))), CMM_ERR_PORT);
 8481              		.loc 1 847 5 discriminator 5 view .LVU2436
 847:../switch_sdk/core/yt/yt_port.c ****     CMM_PARAM_CHK((!(CMM_PORT_VALID(unit, port))), CMM_ERR_PORT);
 8482              		.loc 1 847 5 discriminator 5 view .LVU2437
 847:../switch_sdk/core/yt/yt_port.c ****     CMM_PARAM_CHK((!(CMM_PORT_VALID(unit, port))), CMM_ERR_PORT);
 8483              		.loc 1 847 5 discriminator 5 view .LVU2438
 8484 0076 0420     		movs	r0, #4
 8485 0078 DCE7     		b	.L825
 8486              	.LVL1156:
 8487              	.L845:
 847:../switch_sdk/core/yt/yt_port.c ****     CMM_PARAM_CHK((!(CMM_PORT_VALID(unit, port))), CMM_ERR_PORT);
 8488              		.loc 1 847 5 discriminator 3 view .LVU2439
 8489              	.LBB166:
 847:../switch_sdk/core/yt/yt_port.c ****     CMM_PARAM_CHK((!(CMM_PORT_VALID(unit, port))), CMM_ERR_PORT);
 8490              		.loc 1 847 5 discriminator 3 view .LVU2440
 8491 007a 164B     		ldr	r3, .L848+16
 8492 007c 1A69     		ldr	r2, [r3, #16]
 8493              	.LVL1157:
 847:../switch_sdk/core/yt/yt_port.c ****     CMM_PARAM_CHK((!(CMM_PORT_VALID(unit, port))), CMM_ERR_PORT);
 8494              		.loc 1 847 5 is_stmt 0 discriminator 3 view .LVU2441
 8495 007e 164B     		ldr	r3, .L848+20
 8496 0080 9968     		ldr	r1, [r3, #8]
 8497              	.LVL1158:
 847:../switch_sdk/core/yt/yt_port.c ****     CMM_PARAM_CHK((!(CMM_PORT_VALID(unit, port))), CMM_ERR_PORT);
 8498              		.loc 1 847 5 discriminator 3 view .LVU2442
 8499 0082 1648     		ldr	r0, .L848+24
 8500 0084 FFF7FEFF 		bl	osal_printf
 8501              	.LVL1159:
 8502 0088 F5E7     		b	.L832
 8503              	.LVL1160:
 8504              	.L833:
 847:../switch_sdk/core/yt/yt_port.c ****     CMM_PARAM_CHK((!(CMM_PORT_VALID(unit, port))), CMM_ERR_PORT);
 8505              		.loc 1 847 5 discriminator 3 view .LVU2443
 8506              	.LBE166:
 848:../switch_sdk/core/yt/yt_port.c ****     CMM_PARAM_CHK((NULL == pSize), CMM_ERR_NULL_POINT);
 8507              		.loc 1 848 5 is_stmt 1 discriminator 3 view .LVU2444
 848:../switch_sdk/core/yt/yt_port.c ****     CMM_PARAM_CHK((NULL == pSize), CMM_ERR_NULL_POINT);
 8508              		.loc 1 848 5 discriminator 3 view .LVU2445
 8509 008a 114B     		ldr	r3, .L848+12
 8510 008c 1B78     		ldrb	r3, [r3]	@ zero_extendqisi2
 8511 008e 012B     		cmp	r3, #1
 8512 0090 01D8     		bhi	.L846
 8513              	.LVL1161:
 8514              	.L835:
 848:../switch_sdk/core/yt/yt_port.c ****     CMM_PARAM_CHK((NULL == pSize), CMM_ERR_NULL_POINT);
 8515              		.loc 1 848 5 discriminator 7 view .LVU2446
 848:../switch_sdk/core/yt/yt_port.c ****     CMM_PARAM_CHK((NULL == pSize), CMM_ERR_NULL_POINT);
 8516              		.loc 1 848 5 discriminator 7 view .LVU2447
 848:../switch_sdk/core/yt/yt_port.c ****     CMM_PARAM_CHK((NULL == pSize), CMM_ERR_NULL_POINT);
 8517              		.loc 1 848 5 discriminator 7 view .LVU2448
 8518 0092 0E20     		movs	r0, #14
 8519 0094 CEE7     		b	.L825
 8520              	.LVL1162:
 8521              	.L846:
 848:../switch_sdk/core/yt/yt_port.c ****     CMM_PARAM_CHK((NULL == pSize), CMM_ERR_NULL_POINT);
 8522              		.loc 1 848 5 discriminator 5 view .LVU2449
 8523              	.LBB167:
 848:../switch_sdk/core/yt/yt_port.c ****     CMM_PARAM_CHK((NULL == pSize), CMM_ERR_NULL_POINT);
 8524              		.loc 1 848 5 discriminator 5 view .LVU2450
 8525 0096 0F4B     		ldr	r3, .L848+16
 8526 0098 9A6B     		ldr	r2, [r3, #56]
 8527              	.LVL1163:
 848:../switch_sdk/core/yt/yt_port.c ****     CMM_PARAM_CHK((NULL == pSize), CMM_ERR_NULL_POINT);
 8528              		.loc 1 848 5 is_stmt 0 discriminator 5 view .LVU2451
 8529 009a 0F4B     		ldr	r3, .L848+20
 8530 009c 9968     		ldr	r1, [r3, #8]
 8531              	.LVL1164:
 848:../switch_sdk/core/yt/yt_port.c ****     CMM_PARAM_CHK((NULL == pSize), CMM_ERR_NULL_POINT);
 8532              		.loc 1 848 5 discriminator 5 view .LVU2452
 8533 009e 0F48     		ldr	r0, .L848+24
 8534 00a0 FFF7FEFF 		bl	osal_printf
 8535              	.LVL1165:
 8536 00a4 F5E7     		b	.L835
 8537              	.LVL1166:
 8538              	.L842:
 848:../switch_sdk/core/yt/yt_port.c ****     CMM_PARAM_CHK((NULL == pSize), CMM_ERR_NULL_POINT);
 8539              		.loc 1 848 5 discriminator 5 view .LVU2453
 8540              	.LBE167:
 849:../switch_sdk/core/yt/yt_port.c **** 
 8541              		.loc 1 849 5 is_stmt 1 discriminator 1 view .LVU2454
 849:../switch_sdk/core/yt/yt_port.c **** 
 8542              		.loc 1 849 5 discriminator 1 view .LVU2455
 8543 00a6 0A4B     		ldr	r3, .L848+12
 8544 00a8 1B78     		ldrb	r3, [r3]	@ zero_extendqisi2
 8545 00aa 012B     		cmp	r3, #1
 8546 00ac 01D8     		bhi	.L847
 8547              	.LVL1167:
 8548              	.L837:
 849:../switch_sdk/core/yt/yt_port.c **** 
 8549              		.loc 1 849 5 discriminator 5 view .LVU2456
 849:../switch_sdk/core/yt/yt_port.c **** 
 8550              		.loc 1 849 5 discriminator 5 view .LVU2457
 849:../switch_sdk/core/yt/yt_port.c **** 
 8551              		.loc 1 849 5 discriminator 5 view .LVU2458
 8552 00ae 0220     		movs	r0, #2
 8553 00b0 C0E7     		b	.L825
 8554              	.LVL1168:
 8555              	.L847:
 849:../switch_sdk/core/yt/yt_port.c **** 
 8556              		.loc 1 849 5 discriminator 3 view .LVU2459
 8557              	.LBB168:
 849:../switch_sdk/core/yt/yt_port.c **** 
 8558              		.loc 1 849 5 discriminator 3 view .LVU2460
 8559 00b2 084B     		ldr	r3, .L848+16
 8560 00b4 9A68     		ldr	r2, [r3, #8]
 8561              	.LVL1169:
 849:../switch_sdk/core/yt/yt_port.c **** 
 8562              		.loc 1 849 5 is_stmt 0 discriminator 3 view .LVU2461
 8563 00b6 084B     		ldr	r3, .L848+20
 8564 00b8 9968     		ldr	r1, [r3, #8]
 8565              	.LVL1170:
 849:../switch_sdk/core/yt/yt_port.c **** 
 8566              		.loc 1 849 5 discriminator 3 view .LVU2462
 8567 00ba 0848     		ldr	r0, .L848+24
 8568 00bc FFF7FEFF 		bl	osal_printf
 8569              	.LVL1171:
 8570 00c0 F5E7     		b	.L837
 8571              	.L849:
 8572 00c2 00BF     		.align	2
 8573              	.L848:
 8574 00c4 00000000 		.word	gpfal_dispatch
 8575 00c8 00000000 		.word	gcal_inited
 8576 00cc 00000000 		.word	gpSwitchUnit
 8577 00d0 00000000 		.word	yt_debug_level
 8578 00d4 00000000 		.word	_yt_errmsg
 8579 00d8 00000000 		.word	_yt_prompt_msg
 8580 00dc 00000000 		.word	.LC0
 8581              	.LBE168:
 8582              		.cfi_endproc
 8583              	.LFE38:
 8585              		.section	.text.yt_port_cable_diag,"ax",%progbits
 8586              		.align	1
 8587              		.global	yt_port_cable_diag
 8588              		.syntax unified
 8589              		.thumb
 8590              		.thumb_func
 8592              	yt_port_cable_diag:
 8593              	.LVL1172:
 8594              	.LFB39:
 853:../switch_sdk/core/yt/yt_port.c **** 
 854:../switch_sdk/core/yt/yt_port.c **** /**
 855:../switch_sdk/core/yt/yt_port.c ****  * @internal      yt_port_cable_diag
 856:../switch_sdk/core/yt/yt_port.c ****  * @endinternal
 857:../switch_sdk/core/yt/yt_port.c ****  *
 858:../switch_sdk/core/yt/yt_port.c ****  * @brief         Description
 859:../switch_sdk/core/yt/yt_port.c ****  * @note          APPLICABLE DEVICES  -Tiger
 860:../switch_sdk/core/yt/yt_port.c ****  * @param[in]     unit                -unit id
 861:../switch_sdk/core/yt/yt_port.c ****  * @param[in]     port                -port num
 862:../switch_sdk/core/yt/yt_port.c ****  * @param[out]    pCableStatus        -x
 863:../switch_sdk/core/yt/yt_port.c ****  * @retval        CMM_ERR_OK          -on success
 864:../switch_sdk/core/yt/yt_port.c ****  * @retval        CMM_ERR_FAIL        -on fail
 865:../switch_sdk/core/yt/yt_port.c ****  */
 866:../switch_sdk/core/yt/yt_port.c **** yt_ret_t yt_port_cable_diag(yt_unit_t unit, yt_port_t port, yt_port_cableDiag_t *pCableStatus)
 867:../switch_sdk/core/yt/yt_port.c **** {
 8595              		.loc 1 867 1 is_stmt 1 view -0
 8596              		.cfi_startproc
 8597              		@ args = 0, pretend = 0, frame = 0
 8598              		@ frame_needed = 0, uses_anonymous_args = 0
 8599              		.loc 1 867 1 is_stmt 0 view .LVU2464
 8600 0000 08B5     		push	{r3, lr}
 8601              		.cfi_def_cfa_offset 8
 8602              		.cfi_offset 3, -8
 8603              		.cfi_offset 14, -4
 868:../switch_sdk/core/yt/yt_port.c ****     CMM_PARAM_CHK((YT_UNIT_NUM <= unit), CMM_ERR_INPUT);
 8604              		.loc 1 868 5 is_stmt 1 view .LVU2465
 8605              		.loc 1 868 5 view .LVU2466
 8606 0002 C0B9     		cbnz	r0, .L864
 8607 0004 8446     		mov	ip, r0
 8608              		.loc 1 868 5 discriminator 2 view .LVU2467
 869:../switch_sdk/core/yt/yt_port.c ****     CMM_PARAM_CHK(NULL == YT_DISPATCH(unit), CMM_ERR_NOT_INIT);
 8609              		.loc 1 869 5 discriminator 2 view .LVU2468
 8610              		.loc 1 869 5 discriminator 2 view .LVU2469
 8611 0006 2F4B     		ldr	r3, .L873
 8612 0008 53F82030 		ldr	r3, [r3, r0, lsl #2]
 8613 000c 0BB3     		cbz	r3, .L865
 8614              		.loc 1 869 5 discriminator 2 view .LVU2470
 870:../switch_sdk/core/yt/yt_port.c ****     CMM_PARAM_CHK((!(YT_DISPATCH(unit)->is_inited)), CMM_ERR_NOT_INIT);
 8615              		.loc 1 870 5 discriminator 2 view .LVU2471
 8616              		.loc 1 870 5 discriminator 2 view .LVU2472
 8617 000e 1878     		ldrb	r0, [r3]	@ zero_extendqisi2
 8618              	.LVL1173:
 8619              		.loc 1 870 5 is_stmt 0 discriminator 2 view .LVU2473
 8620 0010 0028     		cmp	r0, #0
 8621 0012 2CD0     		beq	.L866
 8622              		.loc 1 870 5 is_stmt 1 discriminator 2 view .LVU2474
 871:../switch_sdk/core/yt/yt_port.c ****     CMM_PARAM_CHK((!(CMM_PORT_VALID(unit, port))), CMM_ERR_PORT);
 8623              		.loc 1 871 5 discriminator 2 view .LVU2475
 8624              		.loc 1 871 5 discriminator 2 view .LVU2476
 8625 0014 2C48     		ldr	r0, .L873+4
 8626 0016 0078     		ldrb	r0, [r0]	@ zero_extendqisi2
 8627 0018 0028     		cmp	r0, #0
 8628 001a 36D0     		beq	.L858
 8629 001c 2B48     		ldr	r0, .L873+8
 8630 001e 50F82C00 		ldr	r0, [r0, ip, lsl #2]
 8631 0022 007D     		ldrb	r0, [r0, #20]	@ zero_extendqisi2
 8632 0024 8842     		cmp	r0, r1
 8633 0026 30D9     		bls	.L858
 8634              		.loc 1 871 5 discriminator 4 view .LVU2477
 872:../switch_sdk/core/yt/yt_port.c ****     CMM_PARAM_CHK((NULL == pCableStatus), CMM_ERR_NULL_POINT);
 8635              		.loc 1 872 5 discriminator 4 view .LVU2478
 8636              		.loc 1 872 5 discriminator 4 view .LVU2479
 8637 0028 002A     		cmp	r2, #0
 8638 002a 3CD0     		beq	.L867
 8639              		.loc 1 872 5 discriminator 2 view .LVU2480
 873:../switch_sdk/core/yt/yt_port.c **** 
 874:../switch_sdk/core/yt/yt_port.c ****     return YT_DISPATCH(unit)->port_cable_diag(unit, port, pCableStatus);
 8640              		.loc 1 874 5 discriminator 2 view .LVU2481
 8641              		.loc 1 874 29 is_stmt 0 discriminator 2 view .LVU2482
 8642 002c D3F8E835 		ldr	r3, [r3, #1512]
 8643              		.loc 1 874 12 discriminator 2 view .LVU2483
 8644 0030 6046     		mov	r0, ip
 8645 0032 9847     		blx	r3
 8646              	.LVL1174:
 8647              	.L850:
 875:../switch_sdk/core/yt/yt_port.c **** }
 8648              		.loc 1 875 1 view .LVU2484
 8649 0034 08BD     		pop	{r3, pc}
 8650              	.LVL1175:
 8651              	.L864:
 868:../switch_sdk/core/yt/yt_port.c ****     CMM_PARAM_CHK(NULL == YT_DISPATCH(unit), CMM_ERR_NOT_INIT);
 8652              		.loc 1 868 5 is_stmt 1 discriminator 1 view .LVU2485
 868:../switch_sdk/core/yt/yt_port.c ****     CMM_PARAM_CHK(NULL == YT_DISPATCH(unit), CMM_ERR_NOT_INIT);
 8653              		.loc 1 868 5 discriminator 1 view .LVU2486
 8654 0036 264B     		ldr	r3, .L873+12
 8655 0038 1B78     		ldrb	r3, [r3]	@ zero_extendqisi2
 8656 003a 012B     		cmp	r3, #1
 8657 003c 01D8     		bhi	.L868
 8658              	.LVL1176:
 8659              	.L852:
 868:../switch_sdk/core/yt/yt_port.c ****     CMM_PARAM_CHK(NULL == YT_DISPATCH(unit), CMM_ERR_NOT_INIT);
 8660              		.loc 1 868 5 discriminator 5 view .LVU2487
 868:../switch_sdk/core/yt/yt_port.c ****     CMM_PARAM_CHK(NULL == YT_DISPATCH(unit), CMM_ERR_NOT_INIT);
 8661              		.loc 1 868 5 discriminator 5 view .LVU2488
 868:../switch_sdk/core/yt/yt_port.c ****     CMM_PARAM_CHK(NULL == YT_DISPATCH(unit), CMM_ERR_NOT_INIT);
 8662              		.loc 1 868 5 discriminator 5 view .LVU2489
 8663 003e 0520     		movs	r0, #5
 8664 0040 F8E7     		b	.L850
 8665              	.LVL1177:
 8666              	.L868:
 868:../switch_sdk/core/yt/yt_port.c ****     CMM_PARAM_CHK(NULL == YT_DISPATCH(unit), CMM_ERR_NOT_INIT);
 8667              		.loc 1 868 5 discriminator 3 view .LVU2490
 8668              	.LBB169:
 868:../switch_sdk/core/yt/yt_port.c ****     CMM_PARAM_CHK(NULL == YT_DISPATCH(unit), CMM_ERR_NOT_INIT);
 8669              		.loc 1 868 5 discriminator 3 view .LVU2491
 8670 0042 244B     		ldr	r3, .L873+16
 8671 0044 5A69     		ldr	r2, [r3, #20]
 8672              	.LVL1178:
 868:../switch_sdk/core/yt/yt_port.c ****     CMM_PARAM_CHK(NULL == YT_DISPATCH(unit), CMM_ERR_NOT_INIT);
 8673              		.loc 1 868 5 is_stmt 0 discriminator 3 view .LVU2492
 8674 0046 244B     		ldr	r3, .L873+20
 8675 0048 9968     		ldr	r1, [r3, #8]
 8676              	.LVL1179:
 868:../switch_sdk/core/yt/yt_port.c ****     CMM_PARAM_CHK(NULL == YT_DISPATCH(unit), CMM_ERR_NOT_INIT);
 8677              		.loc 1 868 5 discriminator 3 view .LVU2493
 8678 004a 2448     		ldr	r0, .L873+24
 8679              	.LVL1180:
 868:../switch_sdk/core/yt/yt_port.c ****     CMM_PARAM_CHK(NULL == YT_DISPATCH(unit), CMM_ERR_NOT_INIT);
 8680              		.loc 1 868 5 discriminator 3 view .LVU2494
 8681 004c FFF7FEFF 		bl	osal_printf
 8682              	.LVL1181:
 8683 0050 F5E7     		b	.L852
 8684              	.LVL1182:
 8685              	.L865:
 868:../switch_sdk/core/yt/yt_port.c ****     CMM_PARAM_CHK(NULL == YT_DISPATCH(unit), CMM_ERR_NOT_INIT);
 8686              		.loc 1 868 5 discriminator 3 view .LVU2495
 8687              	.LBE169:
 869:../switch_sdk/core/yt/yt_port.c ****     CMM_PARAM_CHK((!(YT_DISPATCH(unit)->is_inited)), CMM_ERR_NOT_INIT);
 8688              		.loc 1 869 5 is_stmt 1 discriminator 1 view .LVU2496
 869:../switch_sdk/core/yt/yt_port.c ****     CMM_PARAM_CHK((!(YT_DISPATCH(unit)->is_inited)), CMM_ERR_NOT_INIT);
 8689              		.loc 1 869 5 discriminator 1 view .LVU2497
 8690 0052 1F4B     		ldr	r3, .L873+12
 8691 0054 1B78     		ldrb	r3, [r3]	@ zero_extendqisi2
 8692 0056 012B     		cmp	r3, #1
 8693 0058 01D8     		bhi	.L869
 8694              	.LVL1183:
 8695              	.L855:
 869:../switch_sdk/core/yt/yt_port.c ****     CMM_PARAM_CHK((!(YT_DISPATCH(unit)->is_inited)), CMM_ERR_NOT_INIT);
 8696              		.loc 1 869 5 discriminator 5 view .LVU2498
 869:../switch_sdk/core/yt/yt_port.c ****     CMM_PARAM_CHK((!(YT_DISPATCH(unit)->is_inited)), CMM_ERR_NOT_INIT);
 8697              		.loc 1 869 5 discriminator 5 view .LVU2499
 869:../switch_sdk/core/yt/yt_port.c ****     CMM_PARAM_CHK((!(YT_DISPATCH(unit)->is_inited)), CMM_ERR_NOT_INIT);
 8698              		.loc 1 869 5 discriminator 5 view .LVU2500
 8699 005a 0420     		movs	r0, #4
 8700 005c EAE7     		b	.L850
 8701              	.LVL1184:
 8702              	.L869:
 869:../switch_sdk/core/yt/yt_port.c ****     CMM_PARAM_CHK((!(YT_DISPATCH(unit)->is_inited)), CMM_ERR_NOT_INIT);
 8703              		.loc 1 869 5 discriminator 3 view .LVU2501
 8704              	.LBB170:
 869:../switch_sdk/core/yt/yt_port.c ****     CMM_PARAM_CHK((!(YT_DISPATCH(unit)->is_inited)), CMM_ERR_NOT_INIT);
 8705              		.loc 1 869 5 discriminator 3 view .LVU2502
 8706 005e 1D4B     		ldr	r3, .L873+16
 8707 0060 1A69     		ldr	r2, [r3, #16]
 8708              	.LVL1185:
 869:../switch_sdk/core/yt/yt_port.c ****     CMM_PARAM_CHK((!(YT_DISPATCH(unit)->is_inited)), CMM_ERR_NOT_INIT);
 8709              		.loc 1 869 5 is_stmt 0 discriminator 3 view .LVU2503
 8710 0062 1D4B     		ldr	r3, .L873+20
 8711 0064 9968     		ldr	r1, [r3, #8]
 8712              	.LVL1186:
 869:../switch_sdk/core/yt/yt_port.c ****     CMM_PARAM_CHK((!(YT_DISPATCH(unit)->is_inited)), CMM_ERR_NOT_INIT);
 8713              		.loc 1 869 5 discriminator 3 view .LVU2504
 8714 0066 1D48     		ldr	r0, .L873+24
 8715              	.LVL1187:
 869:../switch_sdk/core/yt/yt_port.c ****     CMM_PARAM_CHK((!(YT_DISPATCH(unit)->is_inited)), CMM_ERR_NOT_INIT);
 8716              		.loc 1 869 5 discriminator 3 view .LVU2505
 8717 0068 FFF7FEFF 		bl	osal_printf
 8718              	.LVL1188:
 8719 006c F5E7     		b	.L855
 8720              	.LVL1189:
 8721              	.L866:
 869:../switch_sdk/core/yt/yt_port.c ****     CMM_PARAM_CHK((!(YT_DISPATCH(unit)->is_inited)), CMM_ERR_NOT_INIT);
 8722              		.loc 1 869 5 discriminator 3 view .LVU2506
 8723              	.LBE170:
 870:../switch_sdk/core/yt/yt_port.c ****     CMM_PARAM_CHK((!(CMM_PORT_VALID(unit, port))), CMM_ERR_PORT);
 8724              		.loc 1 870 5 is_stmt 1 discriminator 1 view .LVU2507
 870:../switch_sdk/core/yt/yt_port.c ****     CMM_PARAM_CHK((!(CMM_PORT_VALID(unit, port))), CMM_ERR_PORT);
 8725              		.loc 1 870 5 discriminator 1 view .LVU2508
 8726 006e 184B     		ldr	r3, .L873+12
 8727 0070 1B78     		ldrb	r3, [r3]	@ zero_extendqisi2
 8728 0072 012B     		cmp	r3, #1
 8729 0074 01D8     		bhi	.L870
 8730              	.LVL1190:
 8731              	.L857:
 870:../switch_sdk/core/yt/yt_port.c ****     CMM_PARAM_CHK((!(CMM_PORT_VALID(unit, port))), CMM_ERR_PORT);
 8732              		.loc 1 870 5 discriminator 5 view .LVU2509
 870:../switch_sdk/core/yt/yt_port.c ****     CMM_PARAM_CHK((!(CMM_PORT_VALID(unit, port))), CMM_ERR_PORT);
 8733              		.loc 1 870 5 discriminator 5 view .LVU2510
 870:../switch_sdk/core/yt/yt_port.c ****     CMM_PARAM_CHK((!(CMM_PORT_VALID(unit, port))), CMM_ERR_PORT);
 8734              		.loc 1 870 5 discriminator 5 view .LVU2511
 8735 0076 0420     		movs	r0, #4
 8736 0078 DCE7     		b	.L850
 8737              	.LVL1191:
 8738              	.L870:
 870:../switch_sdk/core/yt/yt_port.c ****     CMM_PARAM_CHK((!(CMM_PORT_VALID(unit, port))), CMM_ERR_PORT);
 8739              		.loc 1 870 5 discriminator 3 view .LVU2512
 8740              	.LBB171:
 870:../switch_sdk/core/yt/yt_port.c ****     CMM_PARAM_CHK((!(CMM_PORT_VALID(unit, port))), CMM_ERR_PORT);
 8741              		.loc 1 870 5 discriminator 3 view .LVU2513
 8742 007a 164B     		ldr	r3, .L873+16
 8743 007c 1A69     		ldr	r2, [r3, #16]
 8744              	.LVL1192:
 870:../switch_sdk/core/yt/yt_port.c ****     CMM_PARAM_CHK((!(CMM_PORT_VALID(unit, port))), CMM_ERR_PORT);
 8745              		.loc 1 870 5 is_stmt 0 discriminator 3 view .LVU2514
 8746 007e 164B     		ldr	r3, .L873+20
 8747 0080 9968     		ldr	r1, [r3, #8]
 8748              	.LVL1193:
 870:../switch_sdk/core/yt/yt_port.c ****     CMM_PARAM_CHK((!(CMM_PORT_VALID(unit, port))), CMM_ERR_PORT);
 8749              		.loc 1 870 5 discriminator 3 view .LVU2515
 8750 0082 1648     		ldr	r0, .L873+24
 8751 0084 FFF7FEFF 		bl	osal_printf
 8752              	.LVL1194:
 8753 0088 F5E7     		b	.L857
 8754              	.LVL1195:
 8755              	.L858:
 870:../switch_sdk/core/yt/yt_port.c ****     CMM_PARAM_CHK((!(CMM_PORT_VALID(unit, port))), CMM_ERR_PORT);
 8756              		.loc 1 870 5 discriminator 3 view .LVU2516
 8757              	.LBE171:
 871:../switch_sdk/core/yt/yt_port.c ****     CMM_PARAM_CHK((NULL == pCableStatus), CMM_ERR_NULL_POINT);
 8758              		.loc 1 871 5 is_stmt 1 discriminator 3 view .LVU2517
 871:../switch_sdk/core/yt/yt_port.c ****     CMM_PARAM_CHK((NULL == pCableStatus), CMM_ERR_NULL_POINT);
 8759              		.loc 1 871 5 discriminator 3 view .LVU2518
 8760 008a 114B     		ldr	r3, .L873+12
 8761 008c 1B78     		ldrb	r3, [r3]	@ zero_extendqisi2
 8762 008e 012B     		cmp	r3, #1
 8763 0090 01D8     		bhi	.L871
 8764              	.LVL1196:
 8765              	.L860:
 871:../switch_sdk/core/yt/yt_port.c ****     CMM_PARAM_CHK((NULL == pCableStatus), CMM_ERR_NULL_POINT);
 8766              		.loc 1 871 5 discriminator 7 view .LVU2519
 871:../switch_sdk/core/yt/yt_port.c ****     CMM_PARAM_CHK((NULL == pCableStatus), CMM_ERR_NULL_POINT);
 8767              		.loc 1 871 5 discriminator 7 view .LVU2520
 871:../switch_sdk/core/yt/yt_port.c ****     CMM_PARAM_CHK((NULL == pCableStatus), CMM_ERR_NULL_POINT);
 8768              		.loc 1 871 5 discriminator 7 view .LVU2521
 8769 0092 0E20     		movs	r0, #14
 8770 0094 CEE7     		b	.L850
 8771              	.LVL1197:
 8772              	.L871:
 871:../switch_sdk/core/yt/yt_port.c ****     CMM_PARAM_CHK((NULL == pCableStatus), CMM_ERR_NULL_POINT);
 8773              		.loc 1 871 5 discriminator 5 view .LVU2522
 8774              	.LBB172:
 871:../switch_sdk/core/yt/yt_port.c ****     CMM_PARAM_CHK((NULL == pCableStatus), CMM_ERR_NULL_POINT);
 8775              		.loc 1 871 5 discriminator 5 view .LVU2523
 8776 0096 0F4B     		ldr	r3, .L873+16
 8777 0098 9A6B     		ldr	r2, [r3, #56]
 8778              	.LVL1198:
 871:../switch_sdk/core/yt/yt_port.c ****     CMM_PARAM_CHK((NULL == pCableStatus), CMM_ERR_NULL_POINT);
 8779              		.loc 1 871 5 is_stmt 0 discriminator 5 view .LVU2524
 8780 009a 0F4B     		ldr	r3, .L873+20
 8781 009c 9968     		ldr	r1, [r3, #8]
 8782              	.LVL1199:
 871:../switch_sdk/core/yt/yt_port.c ****     CMM_PARAM_CHK((NULL == pCableStatus), CMM_ERR_NULL_POINT);
 8783              		.loc 1 871 5 discriminator 5 view .LVU2525
 8784 009e 0F48     		ldr	r0, .L873+24
 8785 00a0 FFF7FEFF 		bl	osal_printf
 8786              	.LVL1200:
 8787 00a4 F5E7     		b	.L860
 8788              	.LVL1201:
 8789              	.L867:
 871:../switch_sdk/core/yt/yt_port.c ****     CMM_PARAM_CHK((NULL == pCableStatus), CMM_ERR_NULL_POINT);
 8790              		.loc 1 871 5 discriminator 5 view .LVU2526
 8791              	.LBE172:
 872:../switch_sdk/core/yt/yt_port.c **** 
 8792              		.loc 1 872 5 is_stmt 1 discriminator 1 view .LVU2527
 872:../switch_sdk/core/yt/yt_port.c **** 
 8793              		.loc 1 872 5 discriminator 1 view .LVU2528
 8794 00a6 0A4B     		ldr	r3, .L873+12
 8795 00a8 1B78     		ldrb	r3, [r3]	@ zero_extendqisi2
 8796 00aa 012B     		cmp	r3, #1
 8797 00ac 01D8     		bhi	.L872
 8798              	.LVL1202:
 8799              	.L862:
 872:../switch_sdk/core/yt/yt_port.c **** 
 8800              		.loc 1 872 5 discriminator 5 view .LVU2529
 872:../switch_sdk/core/yt/yt_port.c **** 
 8801              		.loc 1 872 5 discriminator 5 view .LVU2530
 872:../switch_sdk/core/yt/yt_port.c **** 
 8802              		.loc 1 872 5 discriminator 5 view .LVU2531
 8803 00ae 0220     		movs	r0, #2
 8804 00b0 C0E7     		b	.L850
 8805              	.LVL1203:
 8806              	.L872:
 872:../switch_sdk/core/yt/yt_port.c **** 
 8807              		.loc 1 872 5 discriminator 3 view .LVU2532
 8808              	.LBB173:
 872:../switch_sdk/core/yt/yt_port.c **** 
 8809              		.loc 1 872 5 discriminator 3 view .LVU2533
 8810 00b2 084B     		ldr	r3, .L873+16
 8811 00b4 9A68     		ldr	r2, [r3, #8]
 8812              	.LVL1204:
 872:../switch_sdk/core/yt/yt_port.c **** 
 8813              		.loc 1 872 5 is_stmt 0 discriminator 3 view .LVU2534
 8814 00b6 084B     		ldr	r3, .L873+20
 8815 00b8 9968     		ldr	r1, [r3, #8]
 8816              	.LVL1205:
 872:../switch_sdk/core/yt/yt_port.c **** 
 8817              		.loc 1 872 5 discriminator 3 view .LVU2535
 8818 00ba 0848     		ldr	r0, .L873+24
 8819 00bc FFF7FEFF 		bl	osal_printf
 8820              	.LVL1206:
 8821 00c0 F5E7     		b	.L862
 8822              	.L874:
 8823 00c2 00BF     		.align	2
 8824              	.L873:
 8825 00c4 00000000 		.word	gpfal_dispatch
 8826 00c8 00000000 		.word	gcal_inited
 8827 00cc 00000000 		.word	gpSwitchUnit
 8828 00d0 00000000 		.word	yt_debug_level
 8829 00d4 00000000 		.word	_yt_errmsg
 8830 00d8 00000000 		.word	_yt_prompt_msg
 8831 00dc 00000000 		.word	.LC0
 8832              	.LBE173:
 8833              		.cfi_endproc
 8834              	.LFE39:
 8836              		.section	.text.yt_port_phyCrossover_mode_set,"ax",%progbits
 8837              		.align	1
 8838              		.global	yt_port_phyCrossover_mode_set
 8839              		.syntax unified
 8840              		.thumb
 8841              		.thumb_func
 8843              	yt_port_phyCrossover_mode_set:
 8844              	.LVL1207:
 8845              	.LFB40:
 876:../switch_sdk/core/yt/yt_port.c **** 
 877:../switch_sdk/core/yt/yt_port.c **** /**
 878:../switch_sdk/core/yt/yt_port.c ****  * @internal      yt_port_phyCrossover_mode_set
 879:../switch_sdk/core/yt/yt_port.c ****  * @endinternal
 880:../switch_sdk/core/yt/yt_port.c ****  *
 881:../switch_sdk/core/yt/yt_port.c ****  * @brief         Description
 882:../switch_sdk/core/yt/yt_port.c ****  * @note          APPLICABLE DEVICES  -Tiger
 883:../switch_sdk/core/yt/yt_port.c ****  * @param[in]     unit                -unit id
 884:../switch_sdk/core/yt/yt_port.c ****  * @param[in]     port                -port num
 885:../switch_sdk/core/yt/yt_port.c ****  * @param[in]     mode                -x
 886:../switch_sdk/core/yt/yt_port.c ****  * @retval        CMM_ERR_OK          -on success
 887:../switch_sdk/core/yt/yt_port.c ****  * @retval        CMM_ERR_FAIL        -on fail
 888:../switch_sdk/core/yt/yt_port.c ****  */
 889:../switch_sdk/core/yt/yt_port.c **** yt_ret_t yt_port_phyCrossover_mode_set(yt_unit_t unit, yt_port_t port, yt_utp_crossover_mode_t mode
 890:../switch_sdk/core/yt/yt_port.c **** {
 8846              		.loc 1 890 1 is_stmt 1 view -0
 8847              		.cfi_startproc
 8848              		@ args = 0, pretend = 0, frame = 0
 8849              		@ frame_needed = 0, uses_anonymous_args = 0
 8850              		.loc 1 890 1 is_stmt 0 view .LVU2537
 8851 0000 08B5     		push	{r3, lr}
 8852              		.cfi_def_cfa_offset 8
 8853              		.cfi_offset 3, -8
 8854              		.cfi_offset 14, -4
 891:../switch_sdk/core/yt/yt_port.c ****     CMM_PARAM_CHK((YT_UNIT_NUM <= unit), CMM_ERR_INPUT);
 8855              		.loc 1 891 5 is_stmt 1 view .LVU2538
 8856              		.loc 1 891 5 view .LVU2539
 8857 0002 A8B9     		cbnz	r0, .L887
 8858 0004 8446     		mov	ip, r0
 8859              		.loc 1 891 5 discriminator 2 view .LVU2540
 892:../switch_sdk/core/yt/yt_port.c ****     CMM_PARAM_CHK(NULL == YT_DISPATCH(unit), CMM_ERR_NOT_INIT);
 8860              		.loc 1 892 5 discriminator 2 view .LVU2541
 8861              		.loc 1 892 5 discriminator 2 view .LVU2542
 8862 0006 264B     		ldr	r3, .L894
 8863 0008 53F82030 		ldr	r3, [r3, r0, lsl #2]
 8864 000c F3B1     		cbz	r3, .L888
 8865              		.loc 1 892 5 discriminator 2 view .LVU2543
 893:../switch_sdk/core/yt/yt_port.c ****     CMM_PARAM_CHK((!(YT_DISPATCH(unit)->is_inited)), CMM_ERR_NOT_INIT);
 8866              		.loc 1 893 5 discriminator 2 view .LVU2544
 8867              		.loc 1 893 5 discriminator 2 view .LVU2545
 8868 000e 1878     		ldrb	r0, [r3]	@ zero_extendqisi2
 8869              	.LVL1208:
 8870              		.loc 1 893 5 is_stmt 0 discriminator 2 view .LVU2546
 8871 0010 50B3     		cbz	r0, .L889
 8872              		.loc 1 893 5 is_stmt 1 discriminator 2 view .LVU2547
 894:../switch_sdk/core/yt/yt_port.c ****     CMM_PARAM_CHK((!(CMM_PORT_VALID(unit, port))), CMM_ERR_PORT);
 8873              		.loc 1 894 5 discriminator 2 view .LVU2548
 8874              		.loc 1 894 5 discriminator 2 view .LVU2549
 8875 0012 2448     		ldr	r0, .L894+4
 8876 0014 0078     		ldrb	r0, [r0]	@ zero_extendqisi2
 8877 0016 0028     		cmp	r0, #0
 8878 0018 34D0     		beq	.L883
 8879 001a 2348     		ldr	r0, .L894+8
 8880 001c 50F82C00 		ldr	r0, [r0, ip, lsl #2]
 8881 0020 007D     		ldrb	r0, [r0, #20]	@ zero_extendqisi2
 8882 0022 8842     		cmp	r0, r1
 8883 0024 2ED9     		bls	.L883
 8884              		.loc 1 894 5 discriminator 4 view .LVU2550
 895:../switch_sdk/core/yt/yt_port.c **** 
 896:../switch_sdk/core/yt/yt_port.c ****     return YT_DISPATCH(unit)->port_phyCrossover_mode_set(unit, port, mode);
 8885              		.loc 1 896 5 discriminator 4 view .LVU2551
 8886              		.loc 1 896 29 is_stmt 0 discriminator 4 view .LVU2552
 8887 0026 D3F8EC35 		ldr	r3, [r3, #1516]
 8888              		.loc 1 896 12 discriminator 4 view .LVU2553
 8889 002a 6046     		mov	r0, ip
 8890 002c 9847     		blx	r3
 8891              	.LVL1209:
 8892              	.L875:
 897:../switch_sdk/core/yt/yt_port.c **** }
 8893              		.loc 1 897 1 view .LVU2554
 8894 002e 08BD     		pop	{r3, pc}
 8895              	.LVL1210:
 8896              	.L887:
 891:../switch_sdk/core/yt/yt_port.c ****     CMM_PARAM_CHK(NULL == YT_DISPATCH(unit), CMM_ERR_NOT_INIT);
 8897              		.loc 1 891 5 is_stmt 1 discriminator 1 view .LVU2555
 891:../switch_sdk/core/yt/yt_port.c ****     CMM_PARAM_CHK(NULL == YT_DISPATCH(unit), CMM_ERR_NOT_INIT);
 8898              		.loc 1 891 5 discriminator 1 view .LVU2556
 8899 0030 1E4B     		ldr	r3, .L894+12
 8900 0032 1B78     		ldrb	r3, [r3]	@ zero_extendqisi2
 8901 0034 012B     		cmp	r3, #1
 8902 0036 01D8     		bhi	.L890
 8903              	.LVL1211:
 8904              	.L877:
 891:../switch_sdk/core/yt/yt_port.c ****     CMM_PARAM_CHK(NULL == YT_DISPATCH(unit), CMM_ERR_NOT_INIT);
 8905              		.loc 1 891 5 discriminator 5 view .LVU2557
 891:../switch_sdk/core/yt/yt_port.c ****     CMM_PARAM_CHK(NULL == YT_DISPATCH(unit), CMM_ERR_NOT_INIT);
 8906              		.loc 1 891 5 discriminator 5 view .LVU2558
 891:../switch_sdk/core/yt/yt_port.c ****     CMM_PARAM_CHK(NULL == YT_DISPATCH(unit), CMM_ERR_NOT_INIT);
 8907              		.loc 1 891 5 discriminator 5 view .LVU2559
 8908 0038 0520     		movs	r0, #5
 8909 003a F8E7     		b	.L875
 8910              	.LVL1212:
 8911              	.L890:
 891:../switch_sdk/core/yt/yt_port.c ****     CMM_PARAM_CHK(NULL == YT_DISPATCH(unit), CMM_ERR_NOT_INIT);
 8912              		.loc 1 891 5 discriminator 3 view .LVU2560
 8913              	.LBB174:
 891:../switch_sdk/core/yt/yt_port.c ****     CMM_PARAM_CHK(NULL == YT_DISPATCH(unit), CMM_ERR_NOT_INIT);
 8914              		.loc 1 891 5 discriminator 3 view .LVU2561
 8915 003c 1C4B     		ldr	r3, .L894+16
 8916 003e 5A69     		ldr	r2, [r3, #20]
 8917              	.LVL1213:
 891:../switch_sdk/core/yt/yt_port.c ****     CMM_PARAM_CHK(NULL == YT_DISPATCH(unit), CMM_ERR_NOT_INIT);
 8918              		.loc 1 891 5 is_stmt 0 discriminator 3 view .LVU2562
 8919 0040 1C4B     		ldr	r3, .L894+20
 8920 0042 9968     		ldr	r1, [r3, #8]
 8921              	.LVL1214:
 891:../switch_sdk/core/yt/yt_port.c ****     CMM_PARAM_CHK(NULL == YT_DISPATCH(unit), CMM_ERR_NOT_INIT);
 8922              		.loc 1 891 5 discriminator 3 view .LVU2563
 8923 0044 1C48     		ldr	r0, .L894+24
 8924              	.LVL1215:
 891:../switch_sdk/core/yt/yt_port.c ****     CMM_PARAM_CHK(NULL == YT_DISPATCH(unit), CMM_ERR_NOT_INIT);
 8925              		.loc 1 891 5 discriminator 3 view .LVU2564
 8926 0046 FFF7FEFF 		bl	osal_printf
 8927              	.LVL1216:
 8928 004a F5E7     		b	.L877
 8929              	.LVL1217:
 8930              	.L888:
 891:../switch_sdk/core/yt/yt_port.c ****     CMM_PARAM_CHK(NULL == YT_DISPATCH(unit), CMM_ERR_NOT_INIT);
 8931              		.loc 1 891 5 discriminator 3 view .LVU2565
 8932              	.LBE174:
 892:../switch_sdk/core/yt/yt_port.c ****     CMM_PARAM_CHK((!(YT_DISPATCH(unit)->is_inited)), CMM_ERR_NOT_INIT);
 8933              		.loc 1 892 5 is_stmt 1 discriminator 1 view .LVU2566
 892:../switch_sdk/core/yt/yt_port.c ****     CMM_PARAM_CHK((!(YT_DISPATCH(unit)->is_inited)), CMM_ERR_NOT_INIT);
 8934              		.loc 1 892 5 discriminator 1 view .LVU2567
 8935 004c 174B     		ldr	r3, .L894+12
 8936 004e 1B78     		ldrb	r3, [r3]	@ zero_extendqisi2
 8937 0050 012B     		cmp	r3, #1
 8938 0052 01D8     		bhi	.L891
 8939              	.LVL1218:
 8940              	.L880:
 892:../switch_sdk/core/yt/yt_port.c ****     CMM_PARAM_CHK((!(YT_DISPATCH(unit)->is_inited)), CMM_ERR_NOT_INIT);
 8941              		.loc 1 892 5 discriminator 5 view .LVU2568
 892:../switch_sdk/core/yt/yt_port.c ****     CMM_PARAM_CHK((!(YT_DISPATCH(unit)->is_inited)), CMM_ERR_NOT_INIT);
 8942              		.loc 1 892 5 discriminator 5 view .LVU2569
 892:../switch_sdk/core/yt/yt_port.c ****     CMM_PARAM_CHK((!(YT_DISPATCH(unit)->is_inited)), CMM_ERR_NOT_INIT);
 8943              		.loc 1 892 5 discriminator 5 view .LVU2570
 8944 0054 0420     		movs	r0, #4
 8945 0056 EAE7     		b	.L875
 8946              	.LVL1219:
 8947              	.L891:
 892:../switch_sdk/core/yt/yt_port.c ****     CMM_PARAM_CHK((!(YT_DISPATCH(unit)->is_inited)), CMM_ERR_NOT_INIT);
 8948              		.loc 1 892 5 discriminator 3 view .LVU2571
 8949              	.LBB175:
 892:../switch_sdk/core/yt/yt_port.c ****     CMM_PARAM_CHK((!(YT_DISPATCH(unit)->is_inited)), CMM_ERR_NOT_INIT);
 8950              		.loc 1 892 5 discriminator 3 view .LVU2572
 8951 0058 154B     		ldr	r3, .L894+16
 8952 005a 1A69     		ldr	r2, [r3, #16]
 8953              	.LVL1220:
 892:../switch_sdk/core/yt/yt_port.c ****     CMM_PARAM_CHK((!(YT_DISPATCH(unit)->is_inited)), CMM_ERR_NOT_INIT);
 8954              		.loc 1 892 5 is_stmt 0 discriminator 3 view .LVU2573
 8955 005c 154B     		ldr	r3, .L894+20
 8956 005e 9968     		ldr	r1, [r3, #8]
 8957              	.LVL1221:
 892:../switch_sdk/core/yt/yt_port.c ****     CMM_PARAM_CHK((!(YT_DISPATCH(unit)->is_inited)), CMM_ERR_NOT_INIT);
 8958              		.loc 1 892 5 discriminator 3 view .LVU2574
 8959 0060 1548     		ldr	r0, .L894+24
 8960              	.LVL1222:
 892:../switch_sdk/core/yt/yt_port.c ****     CMM_PARAM_CHK((!(YT_DISPATCH(unit)->is_inited)), CMM_ERR_NOT_INIT);
 8961              		.loc 1 892 5 discriminator 3 view .LVU2575
 8962 0062 FFF7FEFF 		bl	osal_printf
 8963              	.LVL1223:
 8964 0066 F5E7     		b	.L880
 8965              	.LVL1224:
 8966              	.L889:
 892:../switch_sdk/core/yt/yt_port.c ****     CMM_PARAM_CHK((!(YT_DISPATCH(unit)->is_inited)), CMM_ERR_NOT_INIT);
 8967              		.loc 1 892 5 discriminator 3 view .LVU2576
 8968              	.LBE175:
 893:../switch_sdk/core/yt/yt_port.c ****     CMM_PARAM_CHK((!(CMM_PORT_VALID(unit, port))), CMM_ERR_PORT);
 8969              		.loc 1 893 5 is_stmt 1 discriminator 1 view .LVU2577
 893:../switch_sdk/core/yt/yt_port.c ****     CMM_PARAM_CHK((!(CMM_PORT_VALID(unit, port))), CMM_ERR_PORT);
 8970              		.loc 1 893 5 discriminator 1 view .LVU2578
 8971 0068 104B     		ldr	r3, .L894+12
 8972 006a 1B78     		ldrb	r3, [r3]	@ zero_extendqisi2
 8973 006c 012B     		cmp	r3, #1
 8974 006e 01D8     		bhi	.L892
 8975              	.LVL1225:
 8976              	.L882:
 893:../switch_sdk/core/yt/yt_port.c ****     CMM_PARAM_CHK((!(CMM_PORT_VALID(unit, port))), CMM_ERR_PORT);
 8977              		.loc 1 893 5 discriminator 5 view .LVU2579
 893:../switch_sdk/core/yt/yt_port.c ****     CMM_PARAM_CHK((!(CMM_PORT_VALID(unit, port))), CMM_ERR_PORT);
 8978              		.loc 1 893 5 discriminator 5 view .LVU2580
 893:../switch_sdk/core/yt/yt_port.c ****     CMM_PARAM_CHK((!(CMM_PORT_VALID(unit, port))), CMM_ERR_PORT);
 8979              		.loc 1 893 5 discriminator 5 view .LVU2581
 8980 0070 0420     		movs	r0, #4
 8981 0072 DCE7     		b	.L875
 8982              	.LVL1226:
 8983              	.L892:
 893:../switch_sdk/core/yt/yt_port.c ****     CMM_PARAM_CHK((!(CMM_PORT_VALID(unit, port))), CMM_ERR_PORT);
 8984              		.loc 1 893 5 discriminator 3 view .LVU2582
 8985              	.LBB176:
 893:../switch_sdk/core/yt/yt_port.c ****     CMM_PARAM_CHK((!(CMM_PORT_VALID(unit, port))), CMM_ERR_PORT);
 8986              		.loc 1 893 5 discriminator 3 view .LVU2583
 8987 0074 0E4B     		ldr	r3, .L894+16
 8988 0076 1A69     		ldr	r2, [r3, #16]
 8989              	.LVL1227:
 893:../switch_sdk/core/yt/yt_port.c ****     CMM_PARAM_CHK((!(CMM_PORT_VALID(unit, port))), CMM_ERR_PORT);
 8990              		.loc 1 893 5 is_stmt 0 discriminator 3 view .LVU2584
 8991 0078 0E4B     		ldr	r3, .L894+20
 8992 007a 9968     		ldr	r1, [r3, #8]
 8993              	.LVL1228:
 893:../switch_sdk/core/yt/yt_port.c ****     CMM_PARAM_CHK((!(CMM_PORT_VALID(unit, port))), CMM_ERR_PORT);
 8994              		.loc 1 893 5 discriminator 3 view .LVU2585
 8995 007c 0E48     		ldr	r0, .L894+24
 8996 007e FFF7FEFF 		bl	osal_printf
 8997              	.LVL1229:
 8998 0082 F5E7     		b	.L882
 8999              	.LVL1230:
 9000              	.L883:
 893:../switch_sdk/core/yt/yt_port.c ****     CMM_PARAM_CHK((!(CMM_PORT_VALID(unit, port))), CMM_ERR_PORT);
 9001              		.loc 1 893 5 discriminator 3 view .LVU2586
 9002              	.LBE176:
 894:../switch_sdk/core/yt/yt_port.c **** 
 9003              		.loc 1 894 5 is_stmt 1 discriminator 3 view .LVU2587
 894:../switch_sdk/core/yt/yt_port.c **** 
 9004              		.loc 1 894 5 discriminator 3 view .LVU2588
 9005 0084 094B     		ldr	r3, .L894+12
 9006 0086 1B78     		ldrb	r3, [r3]	@ zero_extendqisi2
 9007 0088 012B     		cmp	r3, #1
 9008 008a 01D8     		bhi	.L893
 9009              	.LVL1231:
 9010              	.L885:
 894:../switch_sdk/core/yt/yt_port.c **** 
 9011              		.loc 1 894 5 discriminator 7 view .LVU2589
 894:../switch_sdk/core/yt/yt_port.c **** 
 9012              		.loc 1 894 5 discriminator 7 view .LVU2590
 894:../switch_sdk/core/yt/yt_port.c **** 
 9013              		.loc 1 894 5 discriminator 7 view .LVU2591
 9014 008c 0E20     		movs	r0, #14
 9015 008e CEE7     		b	.L875
 9016              	.LVL1232:
 9017              	.L893:
 894:../switch_sdk/core/yt/yt_port.c **** 
 9018              		.loc 1 894 5 discriminator 5 view .LVU2592
 9019              	.LBB177:
 894:../switch_sdk/core/yt/yt_port.c **** 
 9020              		.loc 1 894 5 discriminator 5 view .LVU2593
 9021 0090 074B     		ldr	r3, .L894+16
 9022 0092 9A6B     		ldr	r2, [r3, #56]
 9023              	.LVL1233:
 894:../switch_sdk/core/yt/yt_port.c **** 
 9024              		.loc 1 894 5 is_stmt 0 discriminator 5 view .LVU2594
 9025 0094 074B     		ldr	r3, .L894+20
 9026 0096 9968     		ldr	r1, [r3, #8]
 9027              	.LVL1234:
 894:../switch_sdk/core/yt/yt_port.c **** 
 9028              		.loc 1 894 5 discriminator 5 view .LVU2595
 9029 0098 0748     		ldr	r0, .L894+24
 9030 009a FFF7FEFF 		bl	osal_printf
 9031              	.LVL1235:
 9032 009e F5E7     		b	.L885
 9033              	.L895:
 9034              		.align	2
 9035              	.L894:
 9036 00a0 00000000 		.word	gpfal_dispatch
 9037 00a4 00000000 		.word	gcal_inited
 9038 00a8 00000000 		.word	gpSwitchUnit
 9039 00ac 00000000 		.word	yt_debug_level
 9040 00b0 00000000 		.word	_yt_errmsg
 9041 00b4 00000000 		.word	_yt_prompt_msg
 9042 00b8 00000000 		.word	.LC0
 9043              	.LBE177:
 9044              		.cfi_endproc
 9045              	.LFE40:
 9047              		.section	.text.yt_port_phyCrossover_mode_get,"ax",%progbits
 9048              		.align	1
 9049              		.global	yt_port_phyCrossover_mode_get
 9050              		.syntax unified
 9051              		.thumb
 9052              		.thumb_func
 9054              	yt_port_phyCrossover_mode_get:
 9055              	.LVL1236:
 9056              	.LFB41:
 898:../switch_sdk/core/yt/yt_port.c **** 
 899:../switch_sdk/core/yt/yt_port.c **** /**
 900:../switch_sdk/core/yt/yt_port.c ****  * @internal      yt_port_phyCrossover_mode_get
 901:../switch_sdk/core/yt/yt_port.c ****  * @endinternal
 902:../switch_sdk/core/yt/yt_port.c ****  *
 903:../switch_sdk/core/yt/yt_port.c ****  * @brief         Description
 904:../switch_sdk/core/yt/yt_port.c ****  * @note          APPLICABLE DEVICES  -Tiger
 905:../switch_sdk/core/yt/yt_port.c ****  * @param[in]     unit                -unit id
 906:../switch_sdk/core/yt/yt_port.c ****  * @param[in]     port                -port num
 907:../switch_sdk/core/yt/yt_port.c ****  * @param[out]    pMode               -x
 908:../switch_sdk/core/yt/yt_port.c ****  * @retval        CMM_ERR_OK          -on success
 909:../switch_sdk/core/yt/yt_port.c ****  * @retval        CMM_ERR_FAIL        -on fail
 910:../switch_sdk/core/yt/yt_port.c ****  */
 911:../switch_sdk/core/yt/yt_port.c **** yt_ret_t yt_port_phyCrossover_mode_get(yt_unit_t unit, yt_port_t port, yt_utp_crossover_mode_t *pMo
 912:../switch_sdk/core/yt/yt_port.c **** {
 9057              		.loc 1 912 1 is_stmt 1 view -0
 9058              		.cfi_startproc
 9059              		@ args = 0, pretend = 0, frame = 0
 9060              		@ frame_needed = 0, uses_anonymous_args = 0
 9061              		.loc 1 912 1 is_stmt 0 view .LVU2597
 9062 0000 08B5     		push	{r3, lr}
 9063              		.cfi_def_cfa_offset 8
 9064              		.cfi_offset 3, -8
 9065              		.cfi_offset 14, -4
 913:../switch_sdk/core/yt/yt_port.c ****     CMM_PARAM_CHK((YT_UNIT_NUM <= unit), CMM_ERR_INPUT);
 9066              		.loc 1 913 5 is_stmt 1 view .LVU2598
 9067              		.loc 1 913 5 view .LVU2599
 9068 0002 C0B9     		cbnz	r0, .L910
 9069 0004 8446     		mov	ip, r0
 9070              		.loc 1 913 5 discriminator 2 view .LVU2600
 914:../switch_sdk/core/yt/yt_port.c ****     CMM_PARAM_CHK(NULL == YT_DISPATCH(unit), CMM_ERR_NOT_INIT);
 9071              		.loc 1 914 5 discriminator 2 view .LVU2601
 9072              		.loc 1 914 5 discriminator 2 view .LVU2602
 9073 0006 2F4B     		ldr	r3, .L919
 9074 0008 53F82030 		ldr	r3, [r3, r0, lsl #2]
 9075 000c 0BB3     		cbz	r3, .L911
 9076              		.loc 1 914 5 discriminator 2 view .LVU2603
 915:../switch_sdk/core/yt/yt_port.c ****     CMM_PARAM_CHK((!(YT_DISPATCH(unit)->is_inited)), CMM_ERR_NOT_INIT);
 9077              		.loc 1 915 5 discriminator 2 view .LVU2604
 9078              		.loc 1 915 5 discriminator 2 view .LVU2605
 9079 000e 1878     		ldrb	r0, [r3]	@ zero_extendqisi2
 9080              	.LVL1237:
 9081              		.loc 1 915 5 is_stmt 0 discriminator 2 view .LVU2606
 9082 0010 0028     		cmp	r0, #0
 9083 0012 2CD0     		beq	.L912
 9084              		.loc 1 915 5 is_stmt 1 discriminator 2 view .LVU2607
 916:../switch_sdk/core/yt/yt_port.c ****     CMM_PARAM_CHK((!(CMM_PORT_VALID(unit, port))), CMM_ERR_PORT);
 9085              		.loc 1 916 5 discriminator 2 view .LVU2608
 9086              		.loc 1 916 5 discriminator 2 view .LVU2609
 9087 0014 2C48     		ldr	r0, .L919+4
 9088 0016 0078     		ldrb	r0, [r0]	@ zero_extendqisi2
 9089 0018 0028     		cmp	r0, #0
 9090 001a 36D0     		beq	.L904
 9091 001c 2B48     		ldr	r0, .L919+8
 9092 001e 50F82C00 		ldr	r0, [r0, ip, lsl #2]
 9093 0022 007D     		ldrb	r0, [r0, #20]	@ zero_extendqisi2
 9094 0024 8842     		cmp	r0, r1
 9095 0026 30D9     		bls	.L904
 9096              		.loc 1 916 5 discriminator 4 view .LVU2610
 917:../switch_sdk/core/yt/yt_port.c ****     CMM_PARAM_CHK((NULL == pMode), CMM_ERR_NULL_POINT);
 9097              		.loc 1 917 5 discriminator 4 view .LVU2611
 9098              		.loc 1 917 5 discriminator 4 view .LVU2612
 9099 0028 002A     		cmp	r2, #0
 9100 002a 3CD0     		beq	.L913
 9101              		.loc 1 917 5 discriminator 2 view .LVU2613
 918:../switch_sdk/core/yt/yt_port.c **** 
 919:../switch_sdk/core/yt/yt_port.c ****     return YT_DISPATCH(unit)->port_phyCrossover_mode_get(unit, port, pMode);
 9102              		.loc 1 919 5 discriminator 2 view .LVU2614
 9103              		.loc 1 919 29 is_stmt 0 discriminator 2 view .LVU2615
 9104 002c D3F8F035 		ldr	r3, [r3, #1520]
 9105              		.loc 1 919 12 discriminator 2 view .LVU2616
 9106 0030 6046     		mov	r0, ip
 9107 0032 9847     		blx	r3
 9108              	.LVL1238:
 9109              	.L896:
 920:../switch_sdk/core/yt/yt_port.c **** }
 9110              		.loc 1 920 1 view .LVU2617
 9111 0034 08BD     		pop	{r3, pc}
 9112              	.LVL1239:
 9113              	.L910:
 913:../switch_sdk/core/yt/yt_port.c ****     CMM_PARAM_CHK(NULL == YT_DISPATCH(unit), CMM_ERR_NOT_INIT);
 9114              		.loc 1 913 5 is_stmt 1 discriminator 1 view .LVU2618
 913:../switch_sdk/core/yt/yt_port.c ****     CMM_PARAM_CHK(NULL == YT_DISPATCH(unit), CMM_ERR_NOT_INIT);
 9115              		.loc 1 913 5 discriminator 1 view .LVU2619
 9116 0036 264B     		ldr	r3, .L919+12
 9117 0038 1B78     		ldrb	r3, [r3]	@ zero_extendqisi2
 9118 003a 012B     		cmp	r3, #1
 9119 003c 01D8     		bhi	.L914
 9120              	.LVL1240:
 9121              	.L898:
 913:../switch_sdk/core/yt/yt_port.c ****     CMM_PARAM_CHK(NULL == YT_DISPATCH(unit), CMM_ERR_NOT_INIT);
 9122              		.loc 1 913 5 discriminator 5 view .LVU2620
 913:../switch_sdk/core/yt/yt_port.c ****     CMM_PARAM_CHK(NULL == YT_DISPATCH(unit), CMM_ERR_NOT_INIT);
 9123              		.loc 1 913 5 discriminator 5 view .LVU2621
 913:../switch_sdk/core/yt/yt_port.c ****     CMM_PARAM_CHK(NULL == YT_DISPATCH(unit), CMM_ERR_NOT_INIT);
 9124              		.loc 1 913 5 discriminator 5 view .LVU2622
 9125 003e 0520     		movs	r0, #5
 9126 0040 F8E7     		b	.L896
 9127              	.LVL1241:
 9128              	.L914:
 913:../switch_sdk/core/yt/yt_port.c ****     CMM_PARAM_CHK(NULL == YT_DISPATCH(unit), CMM_ERR_NOT_INIT);
 9129              		.loc 1 913 5 discriminator 3 view .LVU2623
 9130              	.LBB178:
 913:../switch_sdk/core/yt/yt_port.c ****     CMM_PARAM_CHK(NULL == YT_DISPATCH(unit), CMM_ERR_NOT_INIT);
 9131              		.loc 1 913 5 discriminator 3 view .LVU2624
 9132 0042 244B     		ldr	r3, .L919+16
 9133 0044 5A69     		ldr	r2, [r3, #20]
 9134              	.LVL1242:
 913:../switch_sdk/core/yt/yt_port.c ****     CMM_PARAM_CHK(NULL == YT_DISPATCH(unit), CMM_ERR_NOT_INIT);
 9135              		.loc 1 913 5 is_stmt 0 discriminator 3 view .LVU2625
 9136 0046 244B     		ldr	r3, .L919+20
 9137 0048 9968     		ldr	r1, [r3, #8]
 9138              	.LVL1243:
 913:../switch_sdk/core/yt/yt_port.c ****     CMM_PARAM_CHK(NULL == YT_DISPATCH(unit), CMM_ERR_NOT_INIT);
 9139              		.loc 1 913 5 discriminator 3 view .LVU2626
 9140 004a 2448     		ldr	r0, .L919+24
 9141              	.LVL1244:
 913:../switch_sdk/core/yt/yt_port.c ****     CMM_PARAM_CHK(NULL == YT_DISPATCH(unit), CMM_ERR_NOT_INIT);
 9142              		.loc 1 913 5 discriminator 3 view .LVU2627
 9143 004c FFF7FEFF 		bl	osal_printf
 9144              	.LVL1245:
 9145 0050 F5E7     		b	.L898
 9146              	.LVL1246:
 9147              	.L911:
 913:../switch_sdk/core/yt/yt_port.c ****     CMM_PARAM_CHK(NULL == YT_DISPATCH(unit), CMM_ERR_NOT_INIT);
 9148              		.loc 1 913 5 discriminator 3 view .LVU2628
 9149              	.LBE178:
 914:../switch_sdk/core/yt/yt_port.c ****     CMM_PARAM_CHK((!(YT_DISPATCH(unit)->is_inited)), CMM_ERR_NOT_INIT);
 9150              		.loc 1 914 5 is_stmt 1 discriminator 1 view .LVU2629
 914:../switch_sdk/core/yt/yt_port.c ****     CMM_PARAM_CHK((!(YT_DISPATCH(unit)->is_inited)), CMM_ERR_NOT_INIT);
 9151              		.loc 1 914 5 discriminator 1 view .LVU2630
 9152 0052 1F4B     		ldr	r3, .L919+12
 9153 0054 1B78     		ldrb	r3, [r3]	@ zero_extendqisi2
 9154 0056 012B     		cmp	r3, #1
 9155 0058 01D8     		bhi	.L915
 9156              	.LVL1247:
 9157              	.L901:
 914:../switch_sdk/core/yt/yt_port.c ****     CMM_PARAM_CHK((!(YT_DISPATCH(unit)->is_inited)), CMM_ERR_NOT_INIT);
 9158              		.loc 1 914 5 discriminator 5 view .LVU2631
 914:../switch_sdk/core/yt/yt_port.c ****     CMM_PARAM_CHK((!(YT_DISPATCH(unit)->is_inited)), CMM_ERR_NOT_INIT);
 9159              		.loc 1 914 5 discriminator 5 view .LVU2632
 914:../switch_sdk/core/yt/yt_port.c ****     CMM_PARAM_CHK((!(YT_DISPATCH(unit)->is_inited)), CMM_ERR_NOT_INIT);
 9160              		.loc 1 914 5 discriminator 5 view .LVU2633
 9161 005a 0420     		movs	r0, #4
 9162 005c EAE7     		b	.L896
 9163              	.LVL1248:
 9164              	.L915:
 914:../switch_sdk/core/yt/yt_port.c ****     CMM_PARAM_CHK((!(YT_DISPATCH(unit)->is_inited)), CMM_ERR_NOT_INIT);
 9165              		.loc 1 914 5 discriminator 3 view .LVU2634
 9166              	.LBB179:
 914:../switch_sdk/core/yt/yt_port.c ****     CMM_PARAM_CHK((!(YT_DISPATCH(unit)->is_inited)), CMM_ERR_NOT_INIT);
 9167              		.loc 1 914 5 discriminator 3 view .LVU2635
 9168 005e 1D4B     		ldr	r3, .L919+16
 9169 0060 1A69     		ldr	r2, [r3, #16]
 9170              	.LVL1249:
 914:../switch_sdk/core/yt/yt_port.c ****     CMM_PARAM_CHK((!(YT_DISPATCH(unit)->is_inited)), CMM_ERR_NOT_INIT);
 9171              		.loc 1 914 5 is_stmt 0 discriminator 3 view .LVU2636
 9172 0062 1D4B     		ldr	r3, .L919+20
 9173 0064 9968     		ldr	r1, [r3, #8]
 9174              	.LVL1250:
 914:../switch_sdk/core/yt/yt_port.c ****     CMM_PARAM_CHK((!(YT_DISPATCH(unit)->is_inited)), CMM_ERR_NOT_INIT);
 9175              		.loc 1 914 5 discriminator 3 view .LVU2637
 9176 0066 1D48     		ldr	r0, .L919+24
 9177              	.LVL1251:
 914:../switch_sdk/core/yt/yt_port.c ****     CMM_PARAM_CHK((!(YT_DISPATCH(unit)->is_inited)), CMM_ERR_NOT_INIT);
 9178              		.loc 1 914 5 discriminator 3 view .LVU2638
 9179 0068 FFF7FEFF 		bl	osal_printf
 9180              	.LVL1252:
 9181 006c F5E7     		b	.L901
 9182              	.LVL1253:
 9183              	.L912:
 914:../switch_sdk/core/yt/yt_port.c ****     CMM_PARAM_CHK((!(YT_DISPATCH(unit)->is_inited)), CMM_ERR_NOT_INIT);
 9184              		.loc 1 914 5 discriminator 3 view .LVU2639
 9185              	.LBE179:
 915:../switch_sdk/core/yt/yt_port.c ****     CMM_PARAM_CHK((!(CMM_PORT_VALID(unit, port))), CMM_ERR_PORT);
 9186              		.loc 1 915 5 is_stmt 1 discriminator 1 view .LVU2640
 915:../switch_sdk/core/yt/yt_port.c ****     CMM_PARAM_CHK((!(CMM_PORT_VALID(unit, port))), CMM_ERR_PORT);
 9187              		.loc 1 915 5 discriminator 1 view .LVU2641
 9188 006e 184B     		ldr	r3, .L919+12
 9189 0070 1B78     		ldrb	r3, [r3]	@ zero_extendqisi2
 9190 0072 012B     		cmp	r3, #1
 9191 0074 01D8     		bhi	.L916
 9192              	.LVL1254:
 9193              	.L903:
 915:../switch_sdk/core/yt/yt_port.c ****     CMM_PARAM_CHK((!(CMM_PORT_VALID(unit, port))), CMM_ERR_PORT);
 9194              		.loc 1 915 5 discriminator 5 view .LVU2642
 915:../switch_sdk/core/yt/yt_port.c ****     CMM_PARAM_CHK((!(CMM_PORT_VALID(unit, port))), CMM_ERR_PORT);
 9195              		.loc 1 915 5 discriminator 5 view .LVU2643
 915:../switch_sdk/core/yt/yt_port.c ****     CMM_PARAM_CHK((!(CMM_PORT_VALID(unit, port))), CMM_ERR_PORT);
 9196              		.loc 1 915 5 discriminator 5 view .LVU2644
 9197 0076 0420     		movs	r0, #4
 9198 0078 DCE7     		b	.L896
 9199              	.LVL1255:
 9200              	.L916:
 915:../switch_sdk/core/yt/yt_port.c ****     CMM_PARAM_CHK((!(CMM_PORT_VALID(unit, port))), CMM_ERR_PORT);
 9201              		.loc 1 915 5 discriminator 3 view .LVU2645
 9202              	.LBB180:
 915:../switch_sdk/core/yt/yt_port.c ****     CMM_PARAM_CHK((!(CMM_PORT_VALID(unit, port))), CMM_ERR_PORT);
 9203              		.loc 1 915 5 discriminator 3 view .LVU2646
 9204 007a 164B     		ldr	r3, .L919+16
 9205 007c 1A69     		ldr	r2, [r3, #16]
 9206              	.LVL1256:
 915:../switch_sdk/core/yt/yt_port.c ****     CMM_PARAM_CHK((!(CMM_PORT_VALID(unit, port))), CMM_ERR_PORT);
 9207              		.loc 1 915 5 is_stmt 0 discriminator 3 view .LVU2647
 9208 007e 164B     		ldr	r3, .L919+20
 9209 0080 9968     		ldr	r1, [r3, #8]
 9210              	.LVL1257:
 915:../switch_sdk/core/yt/yt_port.c ****     CMM_PARAM_CHK((!(CMM_PORT_VALID(unit, port))), CMM_ERR_PORT);
 9211              		.loc 1 915 5 discriminator 3 view .LVU2648
 9212 0082 1648     		ldr	r0, .L919+24
 9213 0084 FFF7FEFF 		bl	osal_printf
 9214              	.LVL1258:
 9215 0088 F5E7     		b	.L903
 9216              	.LVL1259:
 9217              	.L904:
 915:../switch_sdk/core/yt/yt_port.c ****     CMM_PARAM_CHK((!(CMM_PORT_VALID(unit, port))), CMM_ERR_PORT);
 9218              		.loc 1 915 5 discriminator 3 view .LVU2649
 9219              	.LBE180:
 916:../switch_sdk/core/yt/yt_port.c ****     CMM_PARAM_CHK((NULL == pMode), CMM_ERR_NULL_POINT);
 9220              		.loc 1 916 5 is_stmt 1 discriminator 3 view .LVU2650
 916:../switch_sdk/core/yt/yt_port.c ****     CMM_PARAM_CHK((NULL == pMode), CMM_ERR_NULL_POINT);
 9221              		.loc 1 916 5 discriminator 3 view .LVU2651
 9222 008a 114B     		ldr	r3, .L919+12
 9223 008c 1B78     		ldrb	r3, [r3]	@ zero_extendqisi2
 9224 008e 012B     		cmp	r3, #1
 9225 0090 01D8     		bhi	.L917
 9226              	.LVL1260:
 9227              	.L906:
 916:../switch_sdk/core/yt/yt_port.c ****     CMM_PARAM_CHK((NULL == pMode), CMM_ERR_NULL_POINT);
 9228              		.loc 1 916 5 discriminator 7 view .LVU2652
 916:../switch_sdk/core/yt/yt_port.c ****     CMM_PARAM_CHK((NULL == pMode), CMM_ERR_NULL_POINT);
 9229              		.loc 1 916 5 discriminator 7 view .LVU2653
 916:../switch_sdk/core/yt/yt_port.c ****     CMM_PARAM_CHK((NULL == pMode), CMM_ERR_NULL_POINT);
 9230              		.loc 1 916 5 discriminator 7 view .LVU2654
 9231 0092 0E20     		movs	r0, #14
 9232 0094 CEE7     		b	.L896
 9233              	.LVL1261:
 9234              	.L917:
 916:../switch_sdk/core/yt/yt_port.c ****     CMM_PARAM_CHK((NULL == pMode), CMM_ERR_NULL_POINT);
 9235              		.loc 1 916 5 discriminator 5 view .LVU2655
 9236              	.LBB181:
 916:../switch_sdk/core/yt/yt_port.c ****     CMM_PARAM_CHK((NULL == pMode), CMM_ERR_NULL_POINT);
 9237              		.loc 1 916 5 discriminator 5 view .LVU2656
 9238 0096 0F4B     		ldr	r3, .L919+16
 9239 0098 9A6B     		ldr	r2, [r3, #56]
 9240              	.LVL1262:
 916:../switch_sdk/core/yt/yt_port.c ****     CMM_PARAM_CHK((NULL == pMode), CMM_ERR_NULL_POINT);
 9241              		.loc 1 916 5 is_stmt 0 discriminator 5 view .LVU2657
 9242 009a 0F4B     		ldr	r3, .L919+20
 9243 009c 9968     		ldr	r1, [r3, #8]
 9244              	.LVL1263:
 916:../switch_sdk/core/yt/yt_port.c ****     CMM_PARAM_CHK((NULL == pMode), CMM_ERR_NULL_POINT);
 9245              		.loc 1 916 5 discriminator 5 view .LVU2658
 9246 009e 0F48     		ldr	r0, .L919+24
 9247 00a0 FFF7FEFF 		bl	osal_printf
 9248              	.LVL1264:
 9249 00a4 F5E7     		b	.L906
 9250              	.LVL1265:
 9251              	.L913:
 916:../switch_sdk/core/yt/yt_port.c ****     CMM_PARAM_CHK((NULL == pMode), CMM_ERR_NULL_POINT);
 9252              		.loc 1 916 5 discriminator 5 view .LVU2659
 9253              	.LBE181:
 917:../switch_sdk/core/yt/yt_port.c **** 
 9254              		.loc 1 917 5 is_stmt 1 discriminator 1 view .LVU2660
 917:../switch_sdk/core/yt/yt_port.c **** 
 9255              		.loc 1 917 5 discriminator 1 view .LVU2661
 9256 00a6 0A4B     		ldr	r3, .L919+12
 9257 00a8 1B78     		ldrb	r3, [r3]	@ zero_extendqisi2
 9258 00aa 012B     		cmp	r3, #1
 9259 00ac 01D8     		bhi	.L918
 9260              	.LVL1266:
 9261              	.L908:
 917:../switch_sdk/core/yt/yt_port.c **** 
 9262              		.loc 1 917 5 discriminator 5 view .LVU2662
 917:../switch_sdk/core/yt/yt_port.c **** 
 9263              		.loc 1 917 5 discriminator 5 view .LVU2663
 917:../switch_sdk/core/yt/yt_port.c **** 
 9264              		.loc 1 917 5 discriminator 5 view .LVU2664
 9265 00ae 0220     		movs	r0, #2
 9266 00b0 C0E7     		b	.L896
 9267              	.LVL1267:
 9268              	.L918:
 917:../switch_sdk/core/yt/yt_port.c **** 
 9269              		.loc 1 917 5 discriminator 3 view .LVU2665
 9270              	.LBB182:
 917:../switch_sdk/core/yt/yt_port.c **** 
 9271              		.loc 1 917 5 discriminator 3 view .LVU2666
 9272 00b2 084B     		ldr	r3, .L919+16
 9273 00b4 9A68     		ldr	r2, [r3, #8]
 9274              	.LVL1268:
 917:../switch_sdk/core/yt/yt_port.c **** 
 9275              		.loc 1 917 5 is_stmt 0 discriminator 3 view .LVU2667
 9276 00b6 084B     		ldr	r3, .L919+20
 9277 00b8 9968     		ldr	r1, [r3, #8]
 9278              	.LVL1269:
 917:../switch_sdk/core/yt/yt_port.c **** 
 9279              		.loc 1 917 5 discriminator 3 view .LVU2668
 9280 00ba 0848     		ldr	r0, .L919+24
 9281 00bc FFF7FEFF 		bl	osal_printf
 9282              	.LVL1270:
 9283 00c0 F5E7     		b	.L908
 9284              	.L920:
 9285 00c2 00BF     		.align	2
 9286              	.L919:
 9287 00c4 00000000 		.word	gpfal_dispatch
 9288 00c8 00000000 		.word	gcal_inited
 9289 00cc 00000000 		.word	gpSwitchUnit
 9290 00d0 00000000 		.word	yt_debug_level
 9291 00d4 00000000 		.word	_yt_errmsg
 9292 00d8 00000000 		.word	_yt_prompt_msg
 9293 00dc 00000000 		.word	.LC0
 9294              	.LBE182:
 9295              		.cfi_endproc
 9296              	.LFE41:
 9298              		.section	.text.yt_port_phyCrossover_status_get,"ax",%progbits
 9299              		.align	1
 9300              		.global	yt_port_phyCrossover_status_get
 9301              		.syntax unified
 9302              		.thumb
 9303              		.thumb_func
 9305              	yt_port_phyCrossover_status_get:
 9306              	.LVL1271:
 9307              	.LFB42:
 921:../switch_sdk/core/yt/yt_port.c **** 
 922:../switch_sdk/core/yt/yt_port.c **** /**
 923:../switch_sdk/core/yt/yt_port.c ****  * @internal      yt_port_phyCrossover_status_get
 924:../switch_sdk/core/yt/yt_port.c ****  * @endinternal
 925:../switch_sdk/core/yt/yt_port.c ****  *
 926:../switch_sdk/core/yt/yt_port.c ****  * @brief         Description
 927:../switch_sdk/core/yt/yt_port.c ****  * @note          APPLICABLE DEVICES  -Tiger
 928:../switch_sdk/core/yt/yt_port.c ****  * @param[in]     unit                -unit id
 929:../switch_sdk/core/yt/yt_port.c ****  * @param[in]     port                -port num
 930:../switch_sdk/core/yt/yt_port.c ****  * @param[out]    pStatus             -x
 931:../switch_sdk/core/yt/yt_port.c ****  * @retval        CMM_ERR_OK          -on success
 932:../switch_sdk/core/yt/yt_port.c ****  * @retval        CMM_ERR_FAIL        -on fail
 933:../switch_sdk/core/yt/yt_port.c ****  */
 934:../switch_sdk/core/yt/yt_port.c **** yt_ret_t yt_port_phyCrossover_status_get(yt_unit_t unit, yt_port_t port, yt_utp_crossover_status_t 
 935:../switch_sdk/core/yt/yt_port.c **** {
 9308              		.loc 1 935 1 is_stmt 1 view -0
 9309              		.cfi_startproc
 9310              		@ args = 0, pretend = 0, frame = 0
 9311              		@ frame_needed = 0, uses_anonymous_args = 0
 9312              		.loc 1 935 1 is_stmt 0 view .LVU2670
 9313 0000 08B5     		push	{r3, lr}
 9314              		.cfi_def_cfa_offset 8
 9315              		.cfi_offset 3, -8
 9316              		.cfi_offset 14, -4
 936:../switch_sdk/core/yt/yt_port.c ****     CMM_PARAM_CHK((YT_UNIT_NUM <= unit), CMM_ERR_INPUT);
 9317              		.loc 1 936 5 is_stmt 1 view .LVU2671
 9318              		.loc 1 936 5 view .LVU2672
 9319 0002 C0B9     		cbnz	r0, .L935
 9320 0004 8446     		mov	ip, r0
 9321              		.loc 1 936 5 discriminator 2 view .LVU2673
 937:../switch_sdk/core/yt/yt_port.c ****     CMM_PARAM_CHK(NULL == YT_DISPATCH(unit), CMM_ERR_NOT_INIT);
 9322              		.loc 1 937 5 discriminator 2 view .LVU2674
 9323              		.loc 1 937 5 discriminator 2 view .LVU2675
 9324 0006 2F4B     		ldr	r3, .L944
 9325 0008 53F82030 		ldr	r3, [r3, r0, lsl #2]
 9326 000c 0BB3     		cbz	r3, .L936
 9327              		.loc 1 937 5 discriminator 2 view .LVU2676
 938:../switch_sdk/core/yt/yt_port.c ****     CMM_PARAM_CHK((!(YT_DISPATCH(unit)->is_inited)), CMM_ERR_NOT_INIT);
 9328              		.loc 1 938 5 discriminator 2 view .LVU2677
 9329              		.loc 1 938 5 discriminator 2 view .LVU2678
 9330 000e 1878     		ldrb	r0, [r3]	@ zero_extendqisi2
 9331              	.LVL1272:
 9332              		.loc 1 938 5 is_stmt 0 discriminator 2 view .LVU2679
 9333 0010 0028     		cmp	r0, #0
 9334 0012 2CD0     		beq	.L937
 9335              		.loc 1 938 5 is_stmt 1 discriminator 2 view .LVU2680
 939:../switch_sdk/core/yt/yt_port.c ****     CMM_PARAM_CHK((!(CMM_PORT_VALID(unit, port))), CMM_ERR_PORT);
 9336              		.loc 1 939 5 discriminator 2 view .LVU2681
 9337              		.loc 1 939 5 discriminator 2 view .LVU2682
 9338 0014 2C48     		ldr	r0, .L944+4
 9339 0016 0078     		ldrb	r0, [r0]	@ zero_extendqisi2
 9340 0018 0028     		cmp	r0, #0
 9341 001a 36D0     		beq	.L929
 9342 001c 2B48     		ldr	r0, .L944+8
 9343 001e 50F82C00 		ldr	r0, [r0, ip, lsl #2]
 9344 0022 007D     		ldrb	r0, [r0, #20]	@ zero_extendqisi2
 9345 0024 8842     		cmp	r0, r1
 9346 0026 30D9     		bls	.L929
 9347              		.loc 1 939 5 discriminator 4 view .LVU2683
 940:../switch_sdk/core/yt/yt_port.c ****     CMM_PARAM_CHK((NULL == pStatus), CMM_ERR_NULL_POINT);
 9348              		.loc 1 940 5 discriminator 4 view .LVU2684
 9349              		.loc 1 940 5 discriminator 4 view .LVU2685
 9350 0028 002A     		cmp	r2, #0
 9351 002a 3CD0     		beq	.L938
 9352              		.loc 1 940 5 discriminator 2 view .LVU2686
 941:../switch_sdk/core/yt/yt_port.c **** 
 942:../switch_sdk/core/yt/yt_port.c ****     return YT_DISPATCH(unit)->port_phyCrossover_status_get(unit, port, pStatus);
 9353              		.loc 1 942 5 discriminator 2 view .LVU2687
 9354              		.loc 1 942 29 is_stmt 0 discriminator 2 view .LVU2688
 9355 002c D3F8F435 		ldr	r3, [r3, #1524]
 9356              		.loc 1 942 12 discriminator 2 view .LVU2689
 9357 0030 6046     		mov	r0, ip
 9358 0032 9847     		blx	r3
 9359              	.LVL1273:
 9360              	.L921:
 943:../switch_sdk/core/yt/yt_port.c **** }
 9361              		.loc 1 943 1 view .LVU2690
 9362 0034 08BD     		pop	{r3, pc}
 9363              	.LVL1274:
 9364              	.L935:
 936:../switch_sdk/core/yt/yt_port.c ****     CMM_PARAM_CHK(NULL == YT_DISPATCH(unit), CMM_ERR_NOT_INIT);
 9365              		.loc 1 936 5 is_stmt 1 discriminator 1 view .LVU2691
 936:../switch_sdk/core/yt/yt_port.c ****     CMM_PARAM_CHK(NULL == YT_DISPATCH(unit), CMM_ERR_NOT_INIT);
 9366              		.loc 1 936 5 discriminator 1 view .LVU2692
 9367 0036 264B     		ldr	r3, .L944+12
 9368 0038 1B78     		ldrb	r3, [r3]	@ zero_extendqisi2
 9369 003a 012B     		cmp	r3, #1
 9370 003c 01D8     		bhi	.L939
 9371              	.LVL1275:
 9372              	.L923:
 936:../switch_sdk/core/yt/yt_port.c ****     CMM_PARAM_CHK(NULL == YT_DISPATCH(unit), CMM_ERR_NOT_INIT);
 9373              		.loc 1 936 5 discriminator 5 view .LVU2693
 936:../switch_sdk/core/yt/yt_port.c ****     CMM_PARAM_CHK(NULL == YT_DISPATCH(unit), CMM_ERR_NOT_INIT);
 9374              		.loc 1 936 5 discriminator 5 view .LVU2694
 936:../switch_sdk/core/yt/yt_port.c ****     CMM_PARAM_CHK(NULL == YT_DISPATCH(unit), CMM_ERR_NOT_INIT);
 9375              		.loc 1 936 5 discriminator 5 view .LVU2695
 9376 003e 0520     		movs	r0, #5
 9377 0040 F8E7     		b	.L921
 9378              	.LVL1276:
 9379              	.L939:
 936:../switch_sdk/core/yt/yt_port.c ****     CMM_PARAM_CHK(NULL == YT_DISPATCH(unit), CMM_ERR_NOT_INIT);
 9380              		.loc 1 936 5 discriminator 3 view .LVU2696
 9381              	.LBB183:
 936:../switch_sdk/core/yt/yt_port.c ****     CMM_PARAM_CHK(NULL == YT_DISPATCH(unit), CMM_ERR_NOT_INIT);
 9382              		.loc 1 936 5 discriminator 3 view .LVU2697
 9383 0042 244B     		ldr	r3, .L944+16
 9384 0044 5A69     		ldr	r2, [r3, #20]
 9385              	.LVL1277:
 936:../switch_sdk/core/yt/yt_port.c ****     CMM_PARAM_CHK(NULL == YT_DISPATCH(unit), CMM_ERR_NOT_INIT);
 9386              		.loc 1 936 5 is_stmt 0 discriminator 3 view .LVU2698
 9387 0046 244B     		ldr	r3, .L944+20
 9388 0048 9968     		ldr	r1, [r3, #8]
 9389              	.LVL1278:
 936:../switch_sdk/core/yt/yt_port.c ****     CMM_PARAM_CHK(NULL == YT_DISPATCH(unit), CMM_ERR_NOT_INIT);
 9390              		.loc 1 936 5 discriminator 3 view .LVU2699
 9391 004a 2448     		ldr	r0, .L944+24
 9392              	.LVL1279:
 936:../switch_sdk/core/yt/yt_port.c ****     CMM_PARAM_CHK(NULL == YT_DISPATCH(unit), CMM_ERR_NOT_INIT);
 9393              		.loc 1 936 5 discriminator 3 view .LVU2700
 9394 004c FFF7FEFF 		bl	osal_printf
 9395              	.LVL1280:
 9396 0050 F5E7     		b	.L923
 9397              	.LVL1281:
 9398              	.L936:
 936:../switch_sdk/core/yt/yt_port.c ****     CMM_PARAM_CHK(NULL == YT_DISPATCH(unit), CMM_ERR_NOT_INIT);
 9399              		.loc 1 936 5 discriminator 3 view .LVU2701
 9400              	.LBE183:
 937:../switch_sdk/core/yt/yt_port.c ****     CMM_PARAM_CHK((!(YT_DISPATCH(unit)->is_inited)), CMM_ERR_NOT_INIT);
 9401              		.loc 1 937 5 is_stmt 1 discriminator 1 view .LVU2702
 937:../switch_sdk/core/yt/yt_port.c ****     CMM_PARAM_CHK((!(YT_DISPATCH(unit)->is_inited)), CMM_ERR_NOT_INIT);
 9402              		.loc 1 937 5 discriminator 1 view .LVU2703
 9403 0052 1F4B     		ldr	r3, .L944+12
 9404 0054 1B78     		ldrb	r3, [r3]	@ zero_extendqisi2
 9405 0056 012B     		cmp	r3, #1
 9406 0058 01D8     		bhi	.L940
 9407              	.LVL1282:
 9408              	.L926:
 937:../switch_sdk/core/yt/yt_port.c ****     CMM_PARAM_CHK((!(YT_DISPATCH(unit)->is_inited)), CMM_ERR_NOT_INIT);
 9409              		.loc 1 937 5 discriminator 5 view .LVU2704
 937:../switch_sdk/core/yt/yt_port.c ****     CMM_PARAM_CHK((!(YT_DISPATCH(unit)->is_inited)), CMM_ERR_NOT_INIT);
 9410              		.loc 1 937 5 discriminator 5 view .LVU2705
 937:../switch_sdk/core/yt/yt_port.c ****     CMM_PARAM_CHK((!(YT_DISPATCH(unit)->is_inited)), CMM_ERR_NOT_INIT);
 9411              		.loc 1 937 5 discriminator 5 view .LVU2706
 9412 005a 0420     		movs	r0, #4
 9413 005c EAE7     		b	.L921
 9414              	.LVL1283:
 9415              	.L940:
 937:../switch_sdk/core/yt/yt_port.c ****     CMM_PARAM_CHK((!(YT_DISPATCH(unit)->is_inited)), CMM_ERR_NOT_INIT);
 9416              		.loc 1 937 5 discriminator 3 view .LVU2707
 9417              	.LBB184:
 937:../switch_sdk/core/yt/yt_port.c ****     CMM_PARAM_CHK((!(YT_DISPATCH(unit)->is_inited)), CMM_ERR_NOT_INIT);
 9418              		.loc 1 937 5 discriminator 3 view .LVU2708
 9419 005e 1D4B     		ldr	r3, .L944+16
 9420 0060 1A69     		ldr	r2, [r3, #16]
 9421              	.LVL1284:
 937:../switch_sdk/core/yt/yt_port.c ****     CMM_PARAM_CHK((!(YT_DISPATCH(unit)->is_inited)), CMM_ERR_NOT_INIT);
 9422              		.loc 1 937 5 is_stmt 0 discriminator 3 view .LVU2709
 9423 0062 1D4B     		ldr	r3, .L944+20
 9424 0064 9968     		ldr	r1, [r3, #8]
 9425              	.LVL1285:
 937:../switch_sdk/core/yt/yt_port.c ****     CMM_PARAM_CHK((!(YT_DISPATCH(unit)->is_inited)), CMM_ERR_NOT_INIT);
 9426              		.loc 1 937 5 discriminator 3 view .LVU2710
 9427 0066 1D48     		ldr	r0, .L944+24
 9428              	.LVL1286:
 937:../switch_sdk/core/yt/yt_port.c ****     CMM_PARAM_CHK((!(YT_DISPATCH(unit)->is_inited)), CMM_ERR_NOT_INIT);
 9429              		.loc 1 937 5 discriminator 3 view .LVU2711
 9430 0068 FFF7FEFF 		bl	osal_printf
 9431              	.LVL1287:
 9432 006c F5E7     		b	.L926
 9433              	.LVL1288:
 9434              	.L937:
 937:../switch_sdk/core/yt/yt_port.c ****     CMM_PARAM_CHK((!(YT_DISPATCH(unit)->is_inited)), CMM_ERR_NOT_INIT);
 9435              		.loc 1 937 5 discriminator 3 view .LVU2712
 9436              	.LBE184:
 938:../switch_sdk/core/yt/yt_port.c ****     CMM_PARAM_CHK((!(CMM_PORT_VALID(unit, port))), CMM_ERR_PORT);
 9437              		.loc 1 938 5 is_stmt 1 discriminator 1 view .LVU2713
 938:../switch_sdk/core/yt/yt_port.c ****     CMM_PARAM_CHK((!(CMM_PORT_VALID(unit, port))), CMM_ERR_PORT);
 9438              		.loc 1 938 5 discriminator 1 view .LVU2714
 9439 006e 184B     		ldr	r3, .L944+12
 9440 0070 1B78     		ldrb	r3, [r3]	@ zero_extendqisi2
 9441 0072 012B     		cmp	r3, #1
 9442 0074 01D8     		bhi	.L941
 9443              	.LVL1289:
 9444              	.L928:
 938:../switch_sdk/core/yt/yt_port.c ****     CMM_PARAM_CHK((!(CMM_PORT_VALID(unit, port))), CMM_ERR_PORT);
 9445              		.loc 1 938 5 discriminator 5 view .LVU2715
 938:../switch_sdk/core/yt/yt_port.c ****     CMM_PARAM_CHK((!(CMM_PORT_VALID(unit, port))), CMM_ERR_PORT);
 9446              		.loc 1 938 5 discriminator 5 view .LVU2716
 938:../switch_sdk/core/yt/yt_port.c ****     CMM_PARAM_CHK((!(CMM_PORT_VALID(unit, port))), CMM_ERR_PORT);
 9447              		.loc 1 938 5 discriminator 5 view .LVU2717
 9448 0076 0420     		movs	r0, #4
 9449 0078 DCE7     		b	.L921
 9450              	.LVL1290:
 9451              	.L941:
 938:../switch_sdk/core/yt/yt_port.c ****     CMM_PARAM_CHK((!(CMM_PORT_VALID(unit, port))), CMM_ERR_PORT);
 9452              		.loc 1 938 5 discriminator 3 view .LVU2718
 9453              	.LBB185:
 938:../switch_sdk/core/yt/yt_port.c ****     CMM_PARAM_CHK((!(CMM_PORT_VALID(unit, port))), CMM_ERR_PORT);
 9454              		.loc 1 938 5 discriminator 3 view .LVU2719
 9455 007a 164B     		ldr	r3, .L944+16
 9456 007c 1A69     		ldr	r2, [r3, #16]
 9457              	.LVL1291:
 938:../switch_sdk/core/yt/yt_port.c ****     CMM_PARAM_CHK((!(CMM_PORT_VALID(unit, port))), CMM_ERR_PORT);
 9458              		.loc 1 938 5 is_stmt 0 discriminator 3 view .LVU2720
 9459 007e 164B     		ldr	r3, .L944+20
 9460 0080 9968     		ldr	r1, [r3, #8]
 9461              	.LVL1292:
 938:../switch_sdk/core/yt/yt_port.c ****     CMM_PARAM_CHK((!(CMM_PORT_VALID(unit, port))), CMM_ERR_PORT);
 9462              		.loc 1 938 5 discriminator 3 view .LVU2721
 9463 0082 1648     		ldr	r0, .L944+24
 9464 0084 FFF7FEFF 		bl	osal_printf
 9465              	.LVL1293:
 9466 0088 F5E7     		b	.L928
 9467              	.LVL1294:
 9468              	.L929:
 938:../switch_sdk/core/yt/yt_port.c ****     CMM_PARAM_CHK((!(CMM_PORT_VALID(unit, port))), CMM_ERR_PORT);
 9469              		.loc 1 938 5 discriminator 3 view .LVU2722
 9470              	.LBE185:
 939:../switch_sdk/core/yt/yt_port.c ****     CMM_PARAM_CHK((NULL == pStatus), CMM_ERR_NULL_POINT);
 9471              		.loc 1 939 5 is_stmt 1 discriminator 3 view .LVU2723
 939:../switch_sdk/core/yt/yt_port.c ****     CMM_PARAM_CHK((NULL == pStatus), CMM_ERR_NULL_POINT);
 9472              		.loc 1 939 5 discriminator 3 view .LVU2724
 9473 008a 114B     		ldr	r3, .L944+12
 9474 008c 1B78     		ldrb	r3, [r3]	@ zero_extendqisi2
 9475 008e 012B     		cmp	r3, #1
 9476 0090 01D8     		bhi	.L942
 9477              	.LVL1295:
 9478              	.L931:
 939:../switch_sdk/core/yt/yt_port.c ****     CMM_PARAM_CHK((NULL == pStatus), CMM_ERR_NULL_POINT);
 9479              		.loc 1 939 5 discriminator 7 view .LVU2725
 939:../switch_sdk/core/yt/yt_port.c ****     CMM_PARAM_CHK((NULL == pStatus), CMM_ERR_NULL_POINT);
 9480              		.loc 1 939 5 discriminator 7 view .LVU2726
 939:../switch_sdk/core/yt/yt_port.c ****     CMM_PARAM_CHK((NULL == pStatus), CMM_ERR_NULL_POINT);
 9481              		.loc 1 939 5 discriminator 7 view .LVU2727
 9482 0092 0E20     		movs	r0, #14
 9483 0094 CEE7     		b	.L921
 9484              	.LVL1296:
 9485              	.L942:
 939:../switch_sdk/core/yt/yt_port.c ****     CMM_PARAM_CHK((NULL == pStatus), CMM_ERR_NULL_POINT);
 9486              		.loc 1 939 5 discriminator 5 view .LVU2728
 9487              	.LBB186:
 939:../switch_sdk/core/yt/yt_port.c ****     CMM_PARAM_CHK((NULL == pStatus), CMM_ERR_NULL_POINT);
 9488              		.loc 1 939 5 discriminator 5 view .LVU2729
 9489 0096 0F4B     		ldr	r3, .L944+16
 9490 0098 9A6B     		ldr	r2, [r3, #56]
 9491              	.LVL1297:
 939:../switch_sdk/core/yt/yt_port.c ****     CMM_PARAM_CHK((NULL == pStatus), CMM_ERR_NULL_POINT);
 9492              		.loc 1 939 5 is_stmt 0 discriminator 5 view .LVU2730
 9493 009a 0F4B     		ldr	r3, .L944+20
 9494 009c 9968     		ldr	r1, [r3, #8]
 9495              	.LVL1298:
 939:../switch_sdk/core/yt/yt_port.c ****     CMM_PARAM_CHK((NULL == pStatus), CMM_ERR_NULL_POINT);
 9496              		.loc 1 939 5 discriminator 5 view .LVU2731
 9497 009e 0F48     		ldr	r0, .L944+24
 9498 00a0 FFF7FEFF 		bl	osal_printf
 9499              	.LVL1299:
 9500 00a4 F5E7     		b	.L931
 9501              	.LVL1300:
 9502              	.L938:
 939:../switch_sdk/core/yt/yt_port.c ****     CMM_PARAM_CHK((NULL == pStatus), CMM_ERR_NULL_POINT);
 9503              		.loc 1 939 5 discriminator 5 view .LVU2732
 9504              	.LBE186:
 940:../switch_sdk/core/yt/yt_port.c **** 
 9505              		.loc 1 940 5 is_stmt 1 discriminator 1 view .LVU2733
 940:../switch_sdk/core/yt/yt_port.c **** 
 9506              		.loc 1 940 5 discriminator 1 view .LVU2734
 9507 00a6 0A4B     		ldr	r3, .L944+12
 9508 00a8 1B78     		ldrb	r3, [r3]	@ zero_extendqisi2
 9509 00aa 012B     		cmp	r3, #1
 9510 00ac 01D8     		bhi	.L943
 9511              	.LVL1301:
 9512              	.L933:
 940:../switch_sdk/core/yt/yt_port.c **** 
 9513              		.loc 1 940 5 discriminator 5 view .LVU2735
 940:../switch_sdk/core/yt/yt_port.c **** 
 9514              		.loc 1 940 5 discriminator 5 view .LVU2736
 940:../switch_sdk/core/yt/yt_port.c **** 
 9515              		.loc 1 940 5 discriminator 5 view .LVU2737
 9516 00ae 0220     		movs	r0, #2
 9517 00b0 C0E7     		b	.L921
 9518              	.LVL1302:
 9519              	.L943:
 940:../switch_sdk/core/yt/yt_port.c **** 
 9520              		.loc 1 940 5 discriminator 3 view .LVU2738
 9521              	.LBB187:
 940:../switch_sdk/core/yt/yt_port.c **** 
 9522              		.loc 1 940 5 discriminator 3 view .LVU2739
 9523 00b2 084B     		ldr	r3, .L944+16
 9524 00b4 9A68     		ldr	r2, [r3, #8]
 9525              	.LVL1303:
 940:../switch_sdk/core/yt/yt_port.c **** 
 9526              		.loc 1 940 5 is_stmt 0 discriminator 3 view .LVU2740
 9527 00b6 084B     		ldr	r3, .L944+20
 9528 00b8 9968     		ldr	r1, [r3, #8]
 9529              	.LVL1304:
 940:../switch_sdk/core/yt/yt_port.c **** 
 9530              		.loc 1 940 5 discriminator 3 view .LVU2741
 9531 00ba 0848     		ldr	r0, .L944+24
 9532 00bc FFF7FEFF 		bl	osal_printf
 9533              	.LVL1305:
 9534 00c0 F5E7     		b	.L933
 9535              	.L945:
 9536 00c2 00BF     		.align	2
 9537              	.L944:
 9538 00c4 00000000 		.word	gpfal_dispatch
 9539 00c8 00000000 		.word	gcal_inited
 9540 00cc 00000000 		.word	gpSwitchUnit
 9541 00d0 00000000 		.word	yt_debug_level
 9542 00d4 00000000 		.word	_yt_errmsg
 9543 00d8 00000000 		.word	_yt_prompt_msg
 9544 00dc 00000000 		.word	.LC0
 9545              	.LBE187:
 9546              		.cfi_endproc
 9547              	.LFE42:
 9549              		.section	.text.yt_port_phy_green_enable_set,"ax",%progbits
 9550              		.align	1
 9551              		.global	yt_port_phy_green_enable_set
 9552              		.syntax unified
 9553              		.thumb
 9554              		.thumb_func
 9556              	yt_port_phy_green_enable_set:
 9557              	.LVL1306:
 9558              	.LFB43:
 944:../switch_sdk/core/yt/yt_port.c **** 
 945:../switch_sdk/core/yt/yt_port.c **** /**
 946:../switch_sdk/core/yt/yt_port.c ****  * @internal      yt_port_phy_green_enable_set
 947:../switch_sdk/core/yt/yt_port.c ****  * @endinternal
 948:../switch_sdk/core/yt/yt_port.c ****  *
 949:../switch_sdk/core/yt/yt_port.c ****  * @brief         Enable/Disable phy green function
 950:../switch_sdk/core/yt/yt_port.c ****  * @note          APPLICABLE DEVICES  -Tiger
 951:../switch_sdk/core/yt/yt_port.c ****  * @param[in]     unit                -unit id
 952:../switch_sdk/core/yt/yt_port.c ****  * @param[in]     port                -port num
 953:../switch_sdk/core/yt/yt_port.c ****  * @param[in]     enable              -YT_ENABLE/YT_DISABLE
 954:../switch_sdk/core/yt/yt_port.c ****  * @retval        CMM_ERR_OK          -on success
 955:../switch_sdk/core/yt/yt_port.c ****  * @retval        CMM_ERR_FAIL        -on fail
 956:../switch_sdk/core/yt/yt_port.c ****  */
 957:../switch_sdk/core/yt/yt_port.c **** yt_ret_t yt_port_phy_green_enable_set(yt_unit_t unit, yt_port_t port, yt_enable_t enable)
 958:../switch_sdk/core/yt/yt_port.c **** {
 9559              		.loc 1 958 1 is_stmt 1 view -0
 9560              		.cfi_startproc
 9561              		@ args = 0, pretend = 0, frame = 0
 9562              		@ frame_needed = 0, uses_anonymous_args = 0
 9563              		.loc 1 958 1 is_stmt 0 view .LVU2743
 9564 0000 08B5     		push	{r3, lr}
 9565              		.cfi_def_cfa_offset 8
 9566              		.cfi_offset 3, -8
 9567              		.cfi_offset 14, -4
 959:../switch_sdk/core/yt/yt_port.c ****     CMM_PARAM_CHK((YT_UNIT_NUM <= unit), CMM_ERR_INPUT);
 9568              		.loc 1 959 5 is_stmt 1 view .LVU2744
 9569              		.loc 1 959 5 view .LVU2745
 9570 0002 C0B9     		cbnz	r0, .L960
 9571 0004 8446     		mov	ip, r0
 9572              		.loc 1 959 5 discriminator 2 view .LVU2746
 960:../switch_sdk/core/yt/yt_port.c ****     CMM_PARAM_CHK(NULL == YT_DISPATCH(unit), CMM_ERR_NOT_INIT);
 9573              		.loc 1 960 5 discriminator 2 view .LVU2747
 9574              		.loc 1 960 5 discriminator 2 view .LVU2748
 9575 0006 2F4B     		ldr	r3, .L969
 9576 0008 53F82030 		ldr	r3, [r3, r0, lsl #2]
 9577 000c 0BB3     		cbz	r3, .L961
 9578              		.loc 1 960 5 discriminator 2 view .LVU2749
 961:../switch_sdk/core/yt/yt_port.c ****     CMM_PARAM_CHK((!(YT_DISPATCH(unit)->is_inited)), CMM_ERR_NOT_INIT);
 9579              		.loc 1 961 5 discriminator 2 view .LVU2750
 9580              		.loc 1 961 5 discriminator 2 view .LVU2751
 9581 000e 1878     		ldrb	r0, [r3]	@ zero_extendqisi2
 9582              	.LVL1307:
 9583              		.loc 1 961 5 is_stmt 0 discriminator 2 view .LVU2752
 9584 0010 0028     		cmp	r0, #0
 9585 0012 2CD0     		beq	.L962
 9586              		.loc 1 961 5 is_stmt 1 discriminator 2 view .LVU2753
 962:../switch_sdk/core/yt/yt_port.c ****     CMM_PARAM_CHK((!(CMM_PORT_VALID(unit, port))), CMM_ERR_PORT);
 9587              		.loc 1 962 5 discriminator 2 view .LVU2754
 9588              		.loc 1 962 5 discriminator 2 view .LVU2755
 9589 0014 2C48     		ldr	r0, .L969+4
 9590 0016 0078     		ldrb	r0, [r0]	@ zero_extendqisi2
 9591 0018 0028     		cmp	r0, #0
 9592 001a 36D0     		beq	.L954
 9593 001c 2B48     		ldr	r0, .L969+8
 9594 001e 50F82C00 		ldr	r0, [r0, ip, lsl #2]
 9595 0022 007D     		ldrb	r0, [r0, #20]	@ zero_extendqisi2
 9596 0024 8842     		cmp	r0, r1
 9597 0026 30D9     		bls	.L954
 9598              		.loc 1 962 5 discriminator 4 view .LVU2756
 963:../switch_sdk/core/yt/yt_port.c ****     CMM_PARAM_CHK((YT_ENABLE < enable || YT_DISABLE > enable), CMM_ERR_INPUT);
 9599              		.loc 1 963 5 discriminator 4 view .LVU2757
 9600              		.loc 1 963 5 discriminator 4 view .LVU2758
 9601 0028 012A     		cmp	r2, #1
 9602 002a 3CD8     		bhi	.L963
 9603              		.loc 1 963 5 discriminator 2 view .LVU2759
 964:../switch_sdk/core/yt/yt_port.c **** 
 965:../switch_sdk/core/yt/yt_port.c ****      return YT_DISPATCH(unit)->port_phy_green_enable_set(unit, port, enable);
 9604              		.loc 1 965 6 discriminator 2 view .LVU2760
 9605              		.loc 1 965 30 is_stmt 0 discriminator 2 view .LVU2761
 9606 002c D3F8F835 		ldr	r3, [r3, #1528]
 9607              		.loc 1 965 13 discriminator 2 view .LVU2762
 9608 0030 6046     		mov	r0, ip
 9609 0032 9847     		blx	r3
 9610              	.LVL1308:
 9611              	.L946:
 966:../switch_sdk/core/yt/yt_port.c **** }
 9612              		.loc 1 966 1 view .LVU2763
 9613 0034 08BD     		pop	{r3, pc}
 9614              	.LVL1309:
 9615              	.L960:
 959:../switch_sdk/core/yt/yt_port.c ****     CMM_PARAM_CHK(NULL == YT_DISPATCH(unit), CMM_ERR_NOT_INIT);
 9616              		.loc 1 959 5 is_stmt 1 discriminator 1 view .LVU2764
 959:../switch_sdk/core/yt/yt_port.c ****     CMM_PARAM_CHK(NULL == YT_DISPATCH(unit), CMM_ERR_NOT_INIT);
 9617              		.loc 1 959 5 discriminator 1 view .LVU2765
 9618 0036 264B     		ldr	r3, .L969+12
 9619 0038 1B78     		ldrb	r3, [r3]	@ zero_extendqisi2
 9620 003a 012B     		cmp	r3, #1
 9621 003c 01D8     		bhi	.L964
 9622              	.LVL1310:
 9623              	.L948:
 959:../switch_sdk/core/yt/yt_port.c ****     CMM_PARAM_CHK(NULL == YT_DISPATCH(unit), CMM_ERR_NOT_INIT);
 9624              		.loc 1 959 5 discriminator 5 view .LVU2766
 959:../switch_sdk/core/yt/yt_port.c ****     CMM_PARAM_CHK(NULL == YT_DISPATCH(unit), CMM_ERR_NOT_INIT);
 9625              		.loc 1 959 5 discriminator 5 view .LVU2767
 959:../switch_sdk/core/yt/yt_port.c ****     CMM_PARAM_CHK(NULL == YT_DISPATCH(unit), CMM_ERR_NOT_INIT);
 9626              		.loc 1 959 5 discriminator 5 view .LVU2768
 9627 003e 0520     		movs	r0, #5
 9628 0040 F8E7     		b	.L946
 9629              	.LVL1311:
 9630              	.L964:
 959:../switch_sdk/core/yt/yt_port.c ****     CMM_PARAM_CHK(NULL == YT_DISPATCH(unit), CMM_ERR_NOT_INIT);
 9631              		.loc 1 959 5 discriminator 3 view .LVU2769
 9632              	.LBB188:
 959:../switch_sdk/core/yt/yt_port.c ****     CMM_PARAM_CHK(NULL == YT_DISPATCH(unit), CMM_ERR_NOT_INIT);
 9633              		.loc 1 959 5 discriminator 3 view .LVU2770
 9634 0042 244B     		ldr	r3, .L969+16
 9635 0044 5A69     		ldr	r2, [r3, #20]
 9636              	.LVL1312:
 959:../switch_sdk/core/yt/yt_port.c ****     CMM_PARAM_CHK(NULL == YT_DISPATCH(unit), CMM_ERR_NOT_INIT);
 9637              		.loc 1 959 5 is_stmt 0 discriminator 3 view .LVU2771
 9638 0046 244B     		ldr	r3, .L969+20
 9639 0048 9968     		ldr	r1, [r3, #8]
 9640              	.LVL1313:
 959:../switch_sdk/core/yt/yt_port.c ****     CMM_PARAM_CHK(NULL == YT_DISPATCH(unit), CMM_ERR_NOT_INIT);
 9641              		.loc 1 959 5 discriminator 3 view .LVU2772
 9642 004a 2448     		ldr	r0, .L969+24
 9643              	.LVL1314:
 959:../switch_sdk/core/yt/yt_port.c ****     CMM_PARAM_CHK(NULL == YT_DISPATCH(unit), CMM_ERR_NOT_INIT);
 9644              		.loc 1 959 5 discriminator 3 view .LVU2773
 9645 004c FFF7FEFF 		bl	osal_printf
 9646              	.LVL1315:
 9647 0050 F5E7     		b	.L948
 9648              	.LVL1316:
 9649              	.L961:
 959:../switch_sdk/core/yt/yt_port.c ****     CMM_PARAM_CHK(NULL == YT_DISPATCH(unit), CMM_ERR_NOT_INIT);
 9650              		.loc 1 959 5 discriminator 3 view .LVU2774
 9651              	.LBE188:
 960:../switch_sdk/core/yt/yt_port.c ****     CMM_PARAM_CHK((!(YT_DISPATCH(unit)->is_inited)), CMM_ERR_NOT_INIT);
 9652              		.loc 1 960 5 is_stmt 1 discriminator 1 view .LVU2775
 960:../switch_sdk/core/yt/yt_port.c ****     CMM_PARAM_CHK((!(YT_DISPATCH(unit)->is_inited)), CMM_ERR_NOT_INIT);
 9653              		.loc 1 960 5 discriminator 1 view .LVU2776
 9654 0052 1F4B     		ldr	r3, .L969+12
 9655 0054 1B78     		ldrb	r3, [r3]	@ zero_extendqisi2
 9656 0056 012B     		cmp	r3, #1
 9657 0058 01D8     		bhi	.L965
 9658              	.LVL1317:
 9659              	.L951:
 960:../switch_sdk/core/yt/yt_port.c ****     CMM_PARAM_CHK((!(YT_DISPATCH(unit)->is_inited)), CMM_ERR_NOT_INIT);
 9660              		.loc 1 960 5 discriminator 5 view .LVU2777
 960:../switch_sdk/core/yt/yt_port.c ****     CMM_PARAM_CHK((!(YT_DISPATCH(unit)->is_inited)), CMM_ERR_NOT_INIT);
 9661              		.loc 1 960 5 discriminator 5 view .LVU2778
 960:../switch_sdk/core/yt/yt_port.c ****     CMM_PARAM_CHK((!(YT_DISPATCH(unit)->is_inited)), CMM_ERR_NOT_INIT);
 9662              		.loc 1 960 5 discriminator 5 view .LVU2779
 9663 005a 0420     		movs	r0, #4
 9664 005c EAE7     		b	.L946
 9665              	.LVL1318:
 9666              	.L965:
 960:../switch_sdk/core/yt/yt_port.c ****     CMM_PARAM_CHK((!(YT_DISPATCH(unit)->is_inited)), CMM_ERR_NOT_INIT);
 9667              		.loc 1 960 5 discriminator 3 view .LVU2780
 9668              	.LBB189:
 960:../switch_sdk/core/yt/yt_port.c ****     CMM_PARAM_CHK((!(YT_DISPATCH(unit)->is_inited)), CMM_ERR_NOT_INIT);
 9669              		.loc 1 960 5 discriminator 3 view .LVU2781
 9670 005e 1D4B     		ldr	r3, .L969+16
 9671 0060 1A69     		ldr	r2, [r3, #16]
 9672              	.LVL1319:
 960:../switch_sdk/core/yt/yt_port.c ****     CMM_PARAM_CHK((!(YT_DISPATCH(unit)->is_inited)), CMM_ERR_NOT_INIT);
 9673              		.loc 1 960 5 is_stmt 0 discriminator 3 view .LVU2782
 9674 0062 1D4B     		ldr	r3, .L969+20
 9675 0064 9968     		ldr	r1, [r3, #8]
 9676              	.LVL1320:
 960:../switch_sdk/core/yt/yt_port.c ****     CMM_PARAM_CHK((!(YT_DISPATCH(unit)->is_inited)), CMM_ERR_NOT_INIT);
 9677              		.loc 1 960 5 discriminator 3 view .LVU2783
 9678 0066 1D48     		ldr	r0, .L969+24
 9679              	.LVL1321:
 960:../switch_sdk/core/yt/yt_port.c ****     CMM_PARAM_CHK((!(YT_DISPATCH(unit)->is_inited)), CMM_ERR_NOT_INIT);
 9680              		.loc 1 960 5 discriminator 3 view .LVU2784
 9681 0068 FFF7FEFF 		bl	osal_printf
 9682              	.LVL1322:
 9683 006c F5E7     		b	.L951
 9684              	.LVL1323:
 9685              	.L962:
 960:../switch_sdk/core/yt/yt_port.c ****     CMM_PARAM_CHK((!(YT_DISPATCH(unit)->is_inited)), CMM_ERR_NOT_INIT);
 9686              		.loc 1 960 5 discriminator 3 view .LVU2785
 9687              	.LBE189:
 961:../switch_sdk/core/yt/yt_port.c ****     CMM_PARAM_CHK((!(CMM_PORT_VALID(unit, port))), CMM_ERR_PORT);
 9688              		.loc 1 961 5 is_stmt 1 discriminator 1 view .LVU2786
 961:../switch_sdk/core/yt/yt_port.c ****     CMM_PARAM_CHK((!(CMM_PORT_VALID(unit, port))), CMM_ERR_PORT);
 9689              		.loc 1 961 5 discriminator 1 view .LVU2787
 9690 006e 184B     		ldr	r3, .L969+12
 9691 0070 1B78     		ldrb	r3, [r3]	@ zero_extendqisi2
 9692 0072 012B     		cmp	r3, #1
 9693 0074 01D8     		bhi	.L966
 9694              	.LVL1324:
 9695              	.L953:
 961:../switch_sdk/core/yt/yt_port.c ****     CMM_PARAM_CHK((!(CMM_PORT_VALID(unit, port))), CMM_ERR_PORT);
 9696              		.loc 1 961 5 discriminator 5 view .LVU2788
 961:../switch_sdk/core/yt/yt_port.c ****     CMM_PARAM_CHK((!(CMM_PORT_VALID(unit, port))), CMM_ERR_PORT);
 9697              		.loc 1 961 5 discriminator 5 view .LVU2789
 961:../switch_sdk/core/yt/yt_port.c ****     CMM_PARAM_CHK((!(CMM_PORT_VALID(unit, port))), CMM_ERR_PORT);
 9698              		.loc 1 961 5 discriminator 5 view .LVU2790
 9699 0076 0420     		movs	r0, #4
 9700 0078 DCE7     		b	.L946
 9701              	.LVL1325:
 9702              	.L966:
 961:../switch_sdk/core/yt/yt_port.c ****     CMM_PARAM_CHK((!(CMM_PORT_VALID(unit, port))), CMM_ERR_PORT);
 9703              		.loc 1 961 5 discriminator 3 view .LVU2791
 9704              	.LBB190:
 961:../switch_sdk/core/yt/yt_port.c ****     CMM_PARAM_CHK((!(CMM_PORT_VALID(unit, port))), CMM_ERR_PORT);
 9705              		.loc 1 961 5 discriminator 3 view .LVU2792
 9706 007a 164B     		ldr	r3, .L969+16
 9707 007c 1A69     		ldr	r2, [r3, #16]
 9708              	.LVL1326:
 961:../switch_sdk/core/yt/yt_port.c ****     CMM_PARAM_CHK((!(CMM_PORT_VALID(unit, port))), CMM_ERR_PORT);
 9709              		.loc 1 961 5 is_stmt 0 discriminator 3 view .LVU2793
 9710 007e 164B     		ldr	r3, .L969+20
 9711 0080 9968     		ldr	r1, [r3, #8]
 9712              	.LVL1327:
 961:../switch_sdk/core/yt/yt_port.c ****     CMM_PARAM_CHK((!(CMM_PORT_VALID(unit, port))), CMM_ERR_PORT);
 9713              		.loc 1 961 5 discriminator 3 view .LVU2794
 9714 0082 1648     		ldr	r0, .L969+24
 9715 0084 FFF7FEFF 		bl	osal_printf
 9716              	.LVL1328:
 9717 0088 F5E7     		b	.L953
 9718              	.LVL1329:
 9719              	.L954:
 961:../switch_sdk/core/yt/yt_port.c ****     CMM_PARAM_CHK((!(CMM_PORT_VALID(unit, port))), CMM_ERR_PORT);
 9720              		.loc 1 961 5 discriminator 3 view .LVU2795
 9721              	.LBE190:
 962:../switch_sdk/core/yt/yt_port.c ****     CMM_PARAM_CHK((YT_ENABLE < enable || YT_DISABLE > enable), CMM_ERR_INPUT);
 9722              		.loc 1 962 5 is_stmt 1 discriminator 3 view .LVU2796
 962:../switch_sdk/core/yt/yt_port.c ****     CMM_PARAM_CHK((YT_ENABLE < enable || YT_DISABLE > enable), CMM_ERR_INPUT);
 9723              		.loc 1 962 5 discriminator 3 view .LVU2797
 9724 008a 114B     		ldr	r3, .L969+12
 9725 008c 1B78     		ldrb	r3, [r3]	@ zero_extendqisi2
 9726 008e 012B     		cmp	r3, #1
 9727 0090 01D8     		bhi	.L967
 9728              	.LVL1330:
 9729              	.L956:
 962:../switch_sdk/core/yt/yt_port.c ****     CMM_PARAM_CHK((YT_ENABLE < enable || YT_DISABLE > enable), CMM_ERR_INPUT);
 9730              		.loc 1 962 5 discriminator 7 view .LVU2798
 962:../switch_sdk/core/yt/yt_port.c ****     CMM_PARAM_CHK((YT_ENABLE < enable || YT_DISABLE > enable), CMM_ERR_INPUT);
 9731              		.loc 1 962 5 discriminator 7 view .LVU2799
 962:../switch_sdk/core/yt/yt_port.c ****     CMM_PARAM_CHK((YT_ENABLE < enable || YT_DISABLE > enable), CMM_ERR_INPUT);
 9732              		.loc 1 962 5 discriminator 7 view .LVU2800
 9733 0092 0E20     		movs	r0, #14
 9734 0094 CEE7     		b	.L946
 9735              	.LVL1331:
 9736              	.L967:
 962:../switch_sdk/core/yt/yt_port.c ****     CMM_PARAM_CHK((YT_ENABLE < enable || YT_DISABLE > enable), CMM_ERR_INPUT);
 9737              		.loc 1 962 5 discriminator 5 view .LVU2801
 9738              	.LBB191:
 962:../switch_sdk/core/yt/yt_port.c ****     CMM_PARAM_CHK((YT_ENABLE < enable || YT_DISABLE > enable), CMM_ERR_INPUT);
 9739              		.loc 1 962 5 discriminator 5 view .LVU2802
 9740 0096 0F4B     		ldr	r3, .L969+16
 9741 0098 9A6B     		ldr	r2, [r3, #56]
 9742              	.LVL1332:
 962:../switch_sdk/core/yt/yt_port.c ****     CMM_PARAM_CHK((YT_ENABLE < enable || YT_DISABLE > enable), CMM_ERR_INPUT);
 9743              		.loc 1 962 5 is_stmt 0 discriminator 5 view .LVU2803
 9744 009a 0F4B     		ldr	r3, .L969+20
 9745 009c 9968     		ldr	r1, [r3, #8]
 9746              	.LVL1333:
 962:../switch_sdk/core/yt/yt_port.c ****     CMM_PARAM_CHK((YT_ENABLE < enable || YT_DISABLE > enable), CMM_ERR_INPUT);
 9747              		.loc 1 962 5 discriminator 5 view .LVU2804
 9748 009e 0F48     		ldr	r0, .L969+24
 9749 00a0 FFF7FEFF 		bl	osal_printf
 9750              	.LVL1334:
 9751 00a4 F5E7     		b	.L956
 9752              	.LVL1335:
 9753              	.L963:
 962:../switch_sdk/core/yt/yt_port.c ****     CMM_PARAM_CHK((YT_ENABLE < enable || YT_DISABLE > enable), CMM_ERR_INPUT);
 9754              		.loc 1 962 5 discriminator 5 view .LVU2805
 9755              	.LBE191:
 963:../switch_sdk/core/yt/yt_port.c **** 
 9756              		.loc 1 963 5 is_stmt 1 discriminator 1 view .LVU2806
 963:../switch_sdk/core/yt/yt_port.c **** 
 9757              		.loc 1 963 5 discriminator 1 view .LVU2807
 9758 00a6 0A4B     		ldr	r3, .L969+12
 9759 00a8 1B78     		ldrb	r3, [r3]	@ zero_extendqisi2
 9760 00aa 012B     		cmp	r3, #1
 9761 00ac 01D8     		bhi	.L968
 9762              	.LVL1336:
 9763              	.L958:
 963:../switch_sdk/core/yt/yt_port.c **** 
 9764              		.loc 1 963 5 discriminator 5 view .LVU2808
 963:../switch_sdk/core/yt/yt_port.c **** 
 9765              		.loc 1 963 5 discriminator 5 view .LVU2809
 963:../switch_sdk/core/yt/yt_port.c **** 
 9766              		.loc 1 963 5 discriminator 5 view .LVU2810
 9767 00ae 0520     		movs	r0, #5
 9768 00b0 C0E7     		b	.L946
 9769              	.LVL1337:
 9770              	.L968:
 963:../switch_sdk/core/yt/yt_port.c **** 
 9771              		.loc 1 963 5 discriminator 3 view .LVU2811
 9772              	.LBB192:
 963:../switch_sdk/core/yt/yt_port.c **** 
 9773              		.loc 1 963 5 discriminator 3 view .LVU2812
 9774 00b2 084B     		ldr	r3, .L969+16
 9775 00b4 5A69     		ldr	r2, [r3, #20]
 9776              	.LVL1338:
 963:../switch_sdk/core/yt/yt_port.c **** 
 9777              		.loc 1 963 5 is_stmt 0 discriminator 3 view .LVU2813
 9778 00b6 084B     		ldr	r3, .L969+20
 9779 00b8 9968     		ldr	r1, [r3, #8]
 9780              	.LVL1339:
 963:../switch_sdk/core/yt/yt_port.c **** 
 9781              		.loc 1 963 5 discriminator 3 view .LVU2814
 9782 00ba 0848     		ldr	r0, .L969+24
 9783 00bc FFF7FEFF 		bl	osal_printf
 9784              	.LVL1340:
 9785 00c0 F5E7     		b	.L958
 9786              	.L970:
 9787 00c2 00BF     		.align	2
 9788              	.L969:
 9789 00c4 00000000 		.word	gpfal_dispatch
 9790 00c8 00000000 		.word	gcal_inited
 9791 00cc 00000000 		.word	gpSwitchUnit
 9792 00d0 00000000 		.word	yt_debug_level
 9793 00d4 00000000 		.word	_yt_errmsg
 9794 00d8 00000000 		.word	_yt_prompt_msg
 9795 00dc 00000000 		.word	.LC0
 9796              	.LBE192:
 9797              		.cfi_endproc
 9798              	.LFE43:
 9800              		.section	.text.yt_port_phy_green_enable_get,"ax",%progbits
 9801              		.align	1
 9802              		.global	yt_port_phy_green_enable_get
 9803              		.syntax unified
 9804              		.thumb
 9805              		.thumb_func
 9807              	yt_port_phy_green_enable_get:
 9808              	.LVL1341:
 9809              	.LFB44:
 967:../switch_sdk/core/yt/yt_port.c **** 
 968:../switch_sdk/core/yt/yt_port.c **** /**
 969:../switch_sdk/core/yt/yt_port.c ****  * @internal      yt_port_phy_green_enable_get
 970:../switch_sdk/core/yt/yt_port.c ****  * @endinternal
 971:../switch_sdk/core/yt/yt_port.c ****  *
 972:../switch_sdk/core/yt/yt_port.c ****  * @brief         get phy green status
 973:../switch_sdk/core/yt/yt_port.c ****  * @note          APPLICABLE DEVICES  -Tiger
 974:../switch_sdk/core/yt/yt_port.c ****  * @param[in]     unit                -unit id
 975:../switch_sdk/core/yt/yt_port.c ****  * @param[in]     port                -port num
 976:../switch_sdk/core/yt/yt_port.c ****  * @param[out]    pStatus             -x
 977:../switch_sdk/core/yt/yt_port.c ****  * @retval        CMM_ERR_OK          -on success
 978:../switch_sdk/core/yt/yt_port.c ****  * @retval        CMM_ERR_FAIL        -on fail
 979:../switch_sdk/core/yt/yt_port.c ****  */
 980:../switch_sdk/core/yt/yt_port.c ****  yt_ret_t yt_port_phy_green_enable_get(yt_unit_t unit, yt_port_t port, yt_enable_t *pStatus)
 981:../switch_sdk/core/yt/yt_port.c **** {
 9810              		.loc 1 981 1 is_stmt 1 view -0
 9811              		.cfi_startproc
 9812              		@ args = 0, pretend = 0, frame = 0
 9813              		@ frame_needed = 0, uses_anonymous_args = 0
 9814              		.loc 1 981 1 is_stmt 0 view .LVU2816
 9815 0000 08B5     		push	{r3, lr}
 9816              		.cfi_def_cfa_offset 8
 9817              		.cfi_offset 3, -8
 9818              		.cfi_offset 14, -4
 982:../switch_sdk/core/yt/yt_port.c ****     CMM_PARAM_CHK((YT_UNIT_NUM <= unit), CMM_ERR_INPUT);
 9819              		.loc 1 982 5 is_stmt 1 view .LVU2817
 9820              		.loc 1 982 5 view .LVU2818
 9821 0002 C0B9     		cbnz	r0, .L985
 9822 0004 8446     		mov	ip, r0
 9823              		.loc 1 982 5 discriminator 2 view .LVU2819
 983:../switch_sdk/core/yt/yt_port.c ****     CMM_PARAM_CHK(NULL == YT_DISPATCH(unit), CMM_ERR_NOT_INIT);
 9824              		.loc 1 983 5 discriminator 2 view .LVU2820
 9825              		.loc 1 983 5 discriminator 2 view .LVU2821
 9826 0006 2F4B     		ldr	r3, .L994
 9827 0008 53F82030 		ldr	r3, [r3, r0, lsl #2]
 9828 000c 0BB3     		cbz	r3, .L986
 9829              		.loc 1 983 5 discriminator 2 view .LVU2822
 984:../switch_sdk/core/yt/yt_port.c ****     CMM_PARAM_CHK((!(YT_DISPATCH(unit)->is_inited)), CMM_ERR_NOT_INIT);
 9830              		.loc 1 984 5 discriminator 2 view .LVU2823
 9831              		.loc 1 984 5 discriminator 2 view .LVU2824
 9832 000e 1878     		ldrb	r0, [r3]	@ zero_extendqisi2
 9833              	.LVL1342:
 9834              		.loc 1 984 5 is_stmt 0 discriminator 2 view .LVU2825
 9835 0010 0028     		cmp	r0, #0
 9836 0012 2CD0     		beq	.L987
 9837              		.loc 1 984 5 is_stmt 1 discriminator 2 view .LVU2826
 985:../switch_sdk/core/yt/yt_port.c ****     CMM_PARAM_CHK((!(CMM_PORT_VALID(unit, port))), CMM_ERR_PORT);
 9838              		.loc 1 985 5 discriminator 2 view .LVU2827
 9839              		.loc 1 985 5 discriminator 2 view .LVU2828
 9840 0014 2C48     		ldr	r0, .L994+4
 9841 0016 0078     		ldrb	r0, [r0]	@ zero_extendqisi2
 9842 0018 0028     		cmp	r0, #0
 9843 001a 36D0     		beq	.L979
 9844 001c 2B48     		ldr	r0, .L994+8
 9845 001e 50F82C00 		ldr	r0, [r0, ip, lsl #2]
 9846 0022 007D     		ldrb	r0, [r0, #20]	@ zero_extendqisi2
 9847 0024 8842     		cmp	r0, r1
 9848 0026 30D9     		bls	.L979
 9849              		.loc 1 985 5 discriminator 4 view .LVU2829
 986:../switch_sdk/core/yt/yt_port.c ****     CMM_PARAM_CHK((NULL == pStatus), CMM_ERR_NULL_POINT);
 9850              		.loc 1 986 5 discriminator 4 view .LVU2830
 9851              		.loc 1 986 5 discriminator 4 view .LVU2831
 9852 0028 002A     		cmp	r2, #0
 9853 002a 3CD0     		beq	.L988
 9854              		.loc 1 986 5 discriminator 2 view .LVU2832
 987:../switch_sdk/core/yt/yt_port.c **** 
 988:../switch_sdk/core/yt/yt_port.c ****      return YT_DISPATCH(unit)->port_phy_green_enable_get(unit, port, pStatus);
 9855              		.loc 1 988 6 discriminator 2 view .LVU2833
 9856              		.loc 1 988 30 is_stmt 0 discriminator 2 view .LVU2834
 9857 002c D3F8FC35 		ldr	r3, [r3, #1532]
 9858              		.loc 1 988 13 discriminator 2 view .LVU2835
 9859 0030 6046     		mov	r0, ip
 9860 0032 9847     		blx	r3
 9861              	.LVL1343:
 9862              	.L971:
 989:../switch_sdk/core/yt/yt_port.c **** }
 9863              		.loc 1 989 1 view .LVU2836
 9864 0034 08BD     		pop	{r3, pc}
 9865              	.LVL1344:
 9866              	.L985:
 982:../switch_sdk/core/yt/yt_port.c ****     CMM_PARAM_CHK(NULL == YT_DISPATCH(unit), CMM_ERR_NOT_INIT);
 9867              		.loc 1 982 5 is_stmt 1 discriminator 1 view .LVU2837
 982:../switch_sdk/core/yt/yt_port.c ****     CMM_PARAM_CHK(NULL == YT_DISPATCH(unit), CMM_ERR_NOT_INIT);
 9868              		.loc 1 982 5 discriminator 1 view .LVU2838
 9869 0036 264B     		ldr	r3, .L994+12
 9870 0038 1B78     		ldrb	r3, [r3]	@ zero_extendqisi2
 9871 003a 012B     		cmp	r3, #1
 9872 003c 01D8     		bhi	.L989
 9873              	.LVL1345:
 9874              	.L973:
 982:../switch_sdk/core/yt/yt_port.c ****     CMM_PARAM_CHK(NULL == YT_DISPATCH(unit), CMM_ERR_NOT_INIT);
 9875              		.loc 1 982 5 discriminator 5 view .LVU2839
 982:../switch_sdk/core/yt/yt_port.c ****     CMM_PARAM_CHK(NULL == YT_DISPATCH(unit), CMM_ERR_NOT_INIT);
 9876              		.loc 1 982 5 discriminator 5 view .LVU2840
 982:../switch_sdk/core/yt/yt_port.c ****     CMM_PARAM_CHK(NULL == YT_DISPATCH(unit), CMM_ERR_NOT_INIT);
 9877              		.loc 1 982 5 discriminator 5 view .LVU2841
 9878 003e 0520     		movs	r0, #5
 9879 0040 F8E7     		b	.L971
 9880              	.LVL1346:
 9881              	.L989:
 982:../switch_sdk/core/yt/yt_port.c ****     CMM_PARAM_CHK(NULL == YT_DISPATCH(unit), CMM_ERR_NOT_INIT);
 9882              		.loc 1 982 5 discriminator 3 view .LVU2842
 9883              	.LBB193:
 982:../switch_sdk/core/yt/yt_port.c ****     CMM_PARAM_CHK(NULL == YT_DISPATCH(unit), CMM_ERR_NOT_INIT);
 9884              		.loc 1 982 5 discriminator 3 view .LVU2843
 9885 0042 244B     		ldr	r3, .L994+16
 9886 0044 5A69     		ldr	r2, [r3, #20]
 9887              	.LVL1347:
 982:../switch_sdk/core/yt/yt_port.c ****     CMM_PARAM_CHK(NULL == YT_DISPATCH(unit), CMM_ERR_NOT_INIT);
 9888              		.loc 1 982 5 is_stmt 0 discriminator 3 view .LVU2844
 9889 0046 244B     		ldr	r3, .L994+20
 9890 0048 9968     		ldr	r1, [r3, #8]
 9891              	.LVL1348:
 982:../switch_sdk/core/yt/yt_port.c ****     CMM_PARAM_CHK(NULL == YT_DISPATCH(unit), CMM_ERR_NOT_INIT);
 9892              		.loc 1 982 5 discriminator 3 view .LVU2845
 9893 004a 2448     		ldr	r0, .L994+24
 9894              	.LVL1349:
 982:../switch_sdk/core/yt/yt_port.c ****     CMM_PARAM_CHK(NULL == YT_DISPATCH(unit), CMM_ERR_NOT_INIT);
 9895              		.loc 1 982 5 discriminator 3 view .LVU2846
 9896 004c FFF7FEFF 		bl	osal_printf
 9897              	.LVL1350:
 9898 0050 F5E7     		b	.L973
 9899              	.LVL1351:
 9900              	.L986:
 982:../switch_sdk/core/yt/yt_port.c ****     CMM_PARAM_CHK(NULL == YT_DISPATCH(unit), CMM_ERR_NOT_INIT);
 9901              		.loc 1 982 5 discriminator 3 view .LVU2847
 9902              	.LBE193:
 983:../switch_sdk/core/yt/yt_port.c ****     CMM_PARAM_CHK((!(YT_DISPATCH(unit)->is_inited)), CMM_ERR_NOT_INIT);
 9903              		.loc 1 983 5 is_stmt 1 discriminator 1 view .LVU2848
 983:../switch_sdk/core/yt/yt_port.c ****     CMM_PARAM_CHK((!(YT_DISPATCH(unit)->is_inited)), CMM_ERR_NOT_INIT);
 9904              		.loc 1 983 5 discriminator 1 view .LVU2849
 9905 0052 1F4B     		ldr	r3, .L994+12
 9906 0054 1B78     		ldrb	r3, [r3]	@ zero_extendqisi2
 9907 0056 012B     		cmp	r3, #1
 9908 0058 01D8     		bhi	.L990
 9909              	.LVL1352:
 9910              	.L976:
 983:../switch_sdk/core/yt/yt_port.c ****     CMM_PARAM_CHK((!(YT_DISPATCH(unit)->is_inited)), CMM_ERR_NOT_INIT);
 9911              		.loc 1 983 5 discriminator 5 view .LVU2850
 983:../switch_sdk/core/yt/yt_port.c ****     CMM_PARAM_CHK((!(YT_DISPATCH(unit)->is_inited)), CMM_ERR_NOT_INIT);
 9912              		.loc 1 983 5 discriminator 5 view .LVU2851
 983:../switch_sdk/core/yt/yt_port.c ****     CMM_PARAM_CHK((!(YT_DISPATCH(unit)->is_inited)), CMM_ERR_NOT_INIT);
 9913              		.loc 1 983 5 discriminator 5 view .LVU2852
 9914 005a 0420     		movs	r0, #4
 9915 005c EAE7     		b	.L971
 9916              	.LVL1353:
 9917              	.L990:
 983:../switch_sdk/core/yt/yt_port.c ****     CMM_PARAM_CHK((!(YT_DISPATCH(unit)->is_inited)), CMM_ERR_NOT_INIT);
 9918              		.loc 1 983 5 discriminator 3 view .LVU2853
 9919              	.LBB194:
 983:../switch_sdk/core/yt/yt_port.c ****     CMM_PARAM_CHK((!(YT_DISPATCH(unit)->is_inited)), CMM_ERR_NOT_INIT);
 9920              		.loc 1 983 5 discriminator 3 view .LVU2854
 9921 005e 1D4B     		ldr	r3, .L994+16
 9922 0060 1A69     		ldr	r2, [r3, #16]
 9923              	.LVL1354:
 983:../switch_sdk/core/yt/yt_port.c ****     CMM_PARAM_CHK((!(YT_DISPATCH(unit)->is_inited)), CMM_ERR_NOT_INIT);
 9924              		.loc 1 983 5 is_stmt 0 discriminator 3 view .LVU2855
 9925 0062 1D4B     		ldr	r3, .L994+20
 9926 0064 9968     		ldr	r1, [r3, #8]
 9927              	.LVL1355:
 983:../switch_sdk/core/yt/yt_port.c ****     CMM_PARAM_CHK((!(YT_DISPATCH(unit)->is_inited)), CMM_ERR_NOT_INIT);
 9928              		.loc 1 983 5 discriminator 3 view .LVU2856
 9929 0066 1D48     		ldr	r0, .L994+24
 9930              	.LVL1356:
 983:../switch_sdk/core/yt/yt_port.c ****     CMM_PARAM_CHK((!(YT_DISPATCH(unit)->is_inited)), CMM_ERR_NOT_INIT);
 9931              		.loc 1 983 5 discriminator 3 view .LVU2857
 9932 0068 FFF7FEFF 		bl	osal_printf
 9933              	.LVL1357:
 9934 006c F5E7     		b	.L976
 9935              	.LVL1358:
 9936              	.L987:
 983:../switch_sdk/core/yt/yt_port.c ****     CMM_PARAM_CHK((!(YT_DISPATCH(unit)->is_inited)), CMM_ERR_NOT_INIT);
 9937              		.loc 1 983 5 discriminator 3 view .LVU2858
 9938              	.LBE194:
 984:../switch_sdk/core/yt/yt_port.c ****     CMM_PARAM_CHK((!(CMM_PORT_VALID(unit, port))), CMM_ERR_PORT);
 9939              		.loc 1 984 5 is_stmt 1 discriminator 1 view .LVU2859
 984:../switch_sdk/core/yt/yt_port.c ****     CMM_PARAM_CHK((!(CMM_PORT_VALID(unit, port))), CMM_ERR_PORT);
 9940              		.loc 1 984 5 discriminator 1 view .LVU2860
 9941 006e 184B     		ldr	r3, .L994+12
 9942 0070 1B78     		ldrb	r3, [r3]	@ zero_extendqisi2
 9943 0072 012B     		cmp	r3, #1
 9944 0074 01D8     		bhi	.L991
 9945              	.LVL1359:
 9946              	.L978:
 984:../switch_sdk/core/yt/yt_port.c ****     CMM_PARAM_CHK((!(CMM_PORT_VALID(unit, port))), CMM_ERR_PORT);
 9947              		.loc 1 984 5 discriminator 5 view .LVU2861
 984:../switch_sdk/core/yt/yt_port.c ****     CMM_PARAM_CHK((!(CMM_PORT_VALID(unit, port))), CMM_ERR_PORT);
 9948              		.loc 1 984 5 discriminator 5 view .LVU2862
 984:../switch_sdk/core/yt/yt_port.c ****     CMM_PARAM_CHK((!(CMM_PORT_VALID(unit, port))), CMM_ERR_PORT);
 9949              		.loc 1 984 5 discriminator 5 view .LVU2863
 9950 0076 0420     		movs	r0, #4
 9951 0078 DCE7     		b	.L971
 9952              	.LVL1360:
 9953              	.L991:
 984:../switch_sdk/core/yt/yt_port.c ****     CMM_PARAM_CHK((!(CMM_PORT_VALID(unit, port))), CMM_ERR_PORT);
 9954              		.loc 1 984 5 discriminator 3 view .LVU2864
 9955              	.LBB195:
 984:../switch_sdk/core/yt/yt_port.c ****     CMM_PARAM_CHK((!(CMM_PORT_VALID(unit, port))), CMM_ERR_PORT);
 9956              		.loc 1 984 5 discriminator 3 view .LVU2865
 9957 007a 164B     		ldr	r3, .L994+16
 9958 007c 1A69     		ldr	r2, [r3, #16]
 9959              	.LVL1361:
 984:../switch_sdk/core/yt/yt_port.c ****     CMM_PARAM_CHK((!(CMM_PORT_VALID(unit, port))), CMM_ERR_PORT);
 9960              		.loc 1 984 5 is_stmt 0 discriminator 3 view .LVU2866
 9961 007e 164B     		ldr	r3, .L994+20
 9962 0080 9968     		ldr	r1, [r3, #8]
 9963              	.LVL1362:
 984:../switch_sdk/core/yt/yt_port.c ****     CMM_PARAM_CHK((!(CMM_PORT_VALID(unit, port))), CMM_ERR_PORT);
 9964              		.loc 1 984 5 discriminator 3 view .LVU2867
 9965 0082 1648     		ldr	r0, .L994+24
 9966 0084 FFF7FEFF 		bl	osal_printf
 9967              	.LVL1363:
 9968 0088 F5E7     		b	.L978
 9969              	.LVL1364:
 9970              	.L979:
 984:../switch_sdk/core/yt/yt_port.c ****     CMM_PARAM_CHK((!(CMM_PORT_VALID(unit, port))), CMM_ERR_PORT);
 9971              		.loc 1 984 5 discriminator 3 view .LVU2868
 9972              	.LBE195:
 985:../switch_sdk/core/yt/yt_port.c ****     CMM_PARAM_CHK((NULL == pStatus), CMM_ERR_NULL_POINT);
 9973              		.loc 1 985 5 is_stmt 1 discriminator 3 view .LVU2869
 985:../switch_sdk/core/yt/yt_port.c ****     CMM_PARAM_CHK((NULL == pStatus), CMM_ERR_NULL_POINT);
 9974              		.loc 1 985 5 discriminator 3 view .LVU2870
 9975 008a 114B     		ldr	r3, .L994+12
 9976 008c 1B78     		ldrb	r3, [r3]	@ zero_extendqisi2
 9977 008e 012B     		cmp	r3, #1
 9978 0090 01D8     		bhi	.L992
 9979              	.LVL1365:
 9980              	.L981:
 985:../switch_sdk/core/yt/yt_port.c ****     CMM_PARAM_CHK((NULL == pStatus), CMM_ERR_NULL_POINT);
 9981              		.loc 1 985 5 discriminator 7 view .LVU2871
 985:../switch_sdk/core/yt/yt_port.c ****     CMM_PARAM_CHK((NULL == pStatus), CMM_ERR_NULL_POINT);
 9982              		.loc 1 985 5 discriminator 7 view .LVU2872
 985:../switch_sdk/core/yt/yt_port.c ****     CMM_PARAM_CHK((NULL == pStatus), CMM_ERR_NULL_POINT);
 9983              		.loc 1 985 5 discriminator 7 view .LVU2873
 9984 0092 0E20     		movs	r0, #14
 9985 0094 CEE7     		b	.L971
 9986              	.LVL1366:
 9987              	.L992:
 985:../switch_sdk/core/yt/yt_port.c ****     CMM_PARAM_CHK((NULL == pStatus), CMM_ERR_NULL_POINT);
 9988              		.loc 1 985 5 discriminator 5 view .LVU2874
 9989              	.LBB196:
 985:../switch_sdk/core/yt/yt_port.c ****     CMM_PARAM_CHK((NULL == pStatus), CMM_ERR_NULL_POINT);
 9990              		.loc 1 985 5 discriminator 5 view .LVU2875
 9991 0096 0F4B     		ldr	r3, .L994+16
 9992 0098 9A6B     		ldr	r2, [r3, #56]
 9993              	.LVL1367:
 985:../switch_sdk/core/yt/yt_port.c ****     CMM_PARAM_CHK((NULL == pStatus), CMM_ERR_NULL_POINT);
 9994              		.loc 1 985 5 is_stmt 0 discriminator 5 view .LVU2876
 9995 009a 0F4B     		ldr	r3, .L994+20
 9996 009c 9968     		ldr	r1, [r3, #8]
 9997              	.LVL1368:
 985:../switch_sdk/core/yt/yt_port.c ****     CMM_PARAM_CHK((NULL == pStatus), CMM_ERR_NULL_POINT);
 9998              		.loc 1 985 5 discriminator 5 view .LVU2877
 9999 009e 0F48     		ldr	r0, .L994+24
 10000 00a0 FFF7FEFF 		bl	osal_printf
 10001              	.LVL1369:
 10002 00a4 F5E7     		b	.L981
 10003              	.LVL1370:
 10004              	.L988:
 985:../switch_sdk/core/yt/yt_port.c ****     CMM_PARAM_CHK((NULL == pStatus), CMM_ERR_NULL_POINT);
 10005              		.loc 1 985 5 discriminator 5 view .LVU2878
 10006              	.LBE196:
 986:../switch_sdk/core/yt/yt_port.c **** 
 10007              		.loc 1 986 5 is_stmt 1 discriminator 1 view .LVU2879
 986:../switch_sdk/core/yt/yt_port.c **** 
 10008              		.loc 1 986 5 discriminator 1 view .LVU2880
 10009 00a6 0A4B     		ldr	r3, .L994+12
 10010 00a8 1B78     		ldrb	r3, [r3]	@ zero_extendqisi2
 10011 00aa 012B     		cmp	r3, #1
 10012 00ac 01D8     		bhi	.L993
 10013              	.LVL1371:
 10014              	.L983:
 986:../switch_sdk/core/yt/yt_port.c **** 
 10015              		.loc 1 986 5 discriminator 5 view .LVU2881
 986:../switch_sdk/core/yt/yt_port.c **** 
 10016              		.loc 1 986 5 discriminator 5 view .LVU2882
 986:../switch_sdk/core/yt/yt_port.c **** 
 10017              		.loc 1 986 5 discriminator 5 view .LVU2883
 10018 00ae 0220     		movs	r0, #2
 10019 00b0 C0E7     		b	.L971
 10020              	.LVL1372:
 10021              	.L993:
 986:../switch_sdk/core/yt/yt_port.c **** 
 10022              		.loc 1 986 5 discriminator 3 view .LVU2884
 10023              	.LBB197:
 986:../switch_sdk/core/yt/yt_port.c **** 
 10024              		.loc 1 986 5 discriminator 3 view .LVU2885
 10025 00b2 084B     		ldr	r3, .L994+16
 10026 00b4 9A68     		ldr	r2, [r3, #8]
 10027              	.LVL1373:
 986:../switch_sdk/core/yt/yt_port.c **** 
 10028              		.loc 1 986 5 is_stmt 0 discriminator 3 view .LVU2886
 10029 00b6 084B     		ldr	r3, .L994+20
 10030 00b8 9968     		ldr	r1, [r3, #8]
 10031              	.LVL1374:
 986:../switch_sdk/core/yt/yt_port.c **** 
 10032              		.loc 1 986 5 discriminator 3 view .LVU2887
 10033 00ba 0848     		ldr	r0, .L994+24
 10034 00bc FFF7FEFF 		bl	osal_printf
 10035              	.LVL1375:
 10036 00c0 F5E7     		b	.L983
 10037              	.L995:
 10038 00c2 00BF     		.align	2
 10039              	.L994:
 10040 00c4 00000000 		.word	gpfal_dispatch
 10041 00c8 00000000 		.word	gcal_inited
 10042 00cc 00000000 		.word	gpSwitchUnit
 10043 00d0 00000000 		.word	yt_debug_level
 10044 00d4 00000000 		.word	_yt_errmsg
 10045 00d8 00000000 		.word	_yt_prompt_msg
 10046 00dc 00000000 		.word	.LC0
 10047              	.LBE197:
 10048              		.cfi_endproc
 10049              	.LFE44:
 10051              		.section	.text.yt_port_extif_xmiiClk_invert_set,"ax",%progbits
 10052              		.align	1
 10053              		.global	yt_port_extif_xmiiClk_invert_set
 10054              		.syntax unified
 10055              		.thumb
 10056              		.thumb_func
 10058              	yt_port_extif_xmiiClk_invert_set:
 10059              	.LVL1376:
 10060              	.LFB45:
 990:../switch_sdk/core/yt/yt_port.c **** 
 991:../switch_sdk/core/yt/yt_port.c **** /**
 992:../switch_sdk/core/yt/yt_port.c ****  * @internal      yt_port_extif_xmiiClk_invert_set
 993:../switch_sdk/core/yt/yt_port.c ****  * @endinternal
 994:../switch_sdk/core/yt/yt_port.c ****  *
 995:../switch_sdk/core/yt/yt_port.c ****  * @brief         set extif xmii clk revert state
 996:../switch_sdk/core/yt/yt_port.c ****  * @note          APPLICABLE DEVICES  -Tiger
 997:../switch_sdk/core/yt/yt_port.c ****  * @param[in]     unit                -unit id
 998:../switch_sdk/core/yt/yt_port.c ****  * @param[in]     port                -port num
 999:../switch_sdk/core/yt/yt_port.c ****  * @param[out]    state             -invert state enable/disable
1000:../switch_sdk/core/yt/yt_port.c ****  * @retval        CMM_ERR_OK          -on success
1001:../switch_sdk/core/yt/yt_port.c ****  * @retval        CMM_ERR_FAIL        -on fail
1002:../switch_sdk/core/yt/yt_port.c ****  */
1003:../switch_sdk/core/yt/yt_port.c **** yt_ret_t yt_port_extif_xmiiClk_invert_set(yt_unit_t unit, yt_port_t port, yt_enable_t state)
1004:../switch_sdk/core/yt/yt_port.c **** {
 10061              		.loc 1 1004 1 is_stmt 1 view -0
 10062              		.cfi_startproc
 10063              		@ args = 0, pretend = 0, frame = 0
 10064              		@ frame_needed = 0, uses_anonymous_args = 0
 10065              		.loc 1 1004 1 is_stmt 0 view .LVU2889
 10066 0000 08B5     		push	{r3, lr}
 10067              		.cfi_def_cfa_offset 8
 10068              		.cfi_offset 3, -8
 10069              		.cfi_offset 14, -4
1005:../switch_sdk/core/yt/yt_port.c ****     CMM_PARAM_CHK((YT_UNIT_NUM <= unit), CMM_ERR_INPUT);
 10070              		.loc 1 1005 5 is_stmt 1 view .LVU2890
 10071              		.loc 1 1005 5 view .LVU2891
 10072 0002 C0B9     		cbnz	r0, .L1010
 10073 0004 8446     		mov	ip, r0
 10074              		.loc 1 1005 5 discriminator 2 view .LVU2892
1006:../switch_sdk/core/yt/yt_port.c ****     CMM_PARAM_CHK(NULL == YT_DISPATCH(unit), CMM_ERR_NOT_INIT);
 10075              		.loc 1 1006 5 discriminator 2 view .LVU2893
 10076              		.loc 1 1006 5 discriminator 2 view .LVU2894
 10077 0006 2F4B     		ldr	r3, .L1019
 10078 0008 53F82030 		ldr	r3, [r3, r0, lsl #2]
 10079 000c 0BB3     		cbz	r3, .L1011
 10080              		.loc 1 1006 5 discriminator 2 view .LVU2895
1007:../switch_sdk/core/yt/yt_port.c ****     CMM_PARAM_CHK((!(YT_DISPATCH(unit)->is_inited)), CMM_ERR_NOT_INIT);
 10081              		.loc 1 1007 5 discriminator 2 view .LVU2896
 10082              		.loc 1 1007 5 discriminator 2 view .LVU2897
 10083 000e 1878     		ldrb	r0, [r3]	@ zero_extendqisi2
 10084              	.LVL1377:
 10085              		.loc 1 1007 5 is_stmt 0 discriminator 2 view .LVU2898
 10086 0010 0028     		cmp	r0, #0
 10087 0012 2CD0     		beq	.L1012
 10088              		.loc 1 1007 5 is_stmt 1 discriminator 2 view .LVU2899
1008:../switch_sdk/core/yt/yt_port.c ****     CMM_PARAM_CHK((!(CMM_PORT_VALID(unit, port))), CMM_ERR_PORT);
 10089              		.loc 1 1008 5 discriminator 2 view .LVU2900
 10090              		.loc 1 1008 5 discriminator 2 view .LVU2901
 10091 0014 2C48     		ldr	r0, .L1019+4
 10092 0016 0078     		ldrb	r0, [r0]	@ zero_extendqisi2
 10093 0018 0028     		cmp	r0, #0
 10094 001a 36D0     		beq	.L1004
 10095 001c 2B48     		ldr	r0, .L1019+8
 10096 001e 50F82C00 		ldr	r0, [r0, ip, lsl #2]
 10097 0022 007D     		ldrb	r0, [r0, #20]	@ zero_extendqisi2
 10098 0024 8842     		cmp	r0, r1
 10099 0026 30D9     		bls	.L1004
 10100              		.loc 1 1008 5 discriminator 4 view .LVU2902
1009:../switch_sdk/core/yt/yt_port.c ****     CMM_PARAM_CHK((YT_ENABLE < state || YT_DISABLE > state), CMM_ERR_INPUT);
 10101              		.loc 1 1009 5 discriminator 4 view .LVU2903
 10102              		.loc 1 1009 5 discriminator 4 view .LVU2904
 10103 0028 012A     		cmp	r2, #1
 10104 002a 3CD8     		bhi	.L1013
 10105              		.loc 1 1009 5 discriminator 2 view .LVU2905
1010:../switch_sdk/core/yt/yt_port.c **** 
1011:../switch_sdk/core/yt/yt_port.c ****      return YT_DISPATCH(unit)->port_extif_xmiiClk_invert_set(unit, port, state);
 10106              		.loc 1 1011 6 discriminator 2 view .LVU2906
 10107              		.loc 1 1011 30 is_stmt 0 discriminator 2 view .LVU2907
 10108 002c D3F80036 		ldr	r3, [r3, #1536]
 10109              		.loc 1 1011 13 discriminator 2 view .LVU2908
 10110 0030 6046     		mov	r0, ip
 10111 0032 9847     		blx	r3
 10112              	.LVL1378:
 10113              	.L996:
1012:../switch_sdk/core/yt/yt_port.c **** }
 10114              		.loc 1 1012 1 view .LVU2909
 10115 0034 08BD     		pop	{r3, pc}
 10116              	.LVL1379:
 10117              	.L1010:
1005:../switch_sdk/core/yt/yt_port.c ****     CMM_PARAM_CHK(NULL == YT_DISPATCH(unit), CMM_ERR_NOT_INIT);
 10118              		.loc 1 1005 5 is_stmt 1 discriminator 1 view .LVU2910
1005:../switch_sdk/core/yt/yt_port.c ****     CMM_PARAM_CHK(NULL == YT_DISPATCH(unit), CMM_ERR_NOT_INIT);
 10119              		.loc 1 1005 5 discriminator 1 view .LVU2911
 10120 0036 264B     		ldr	r3, .L1019+12
 10121 0038 1B78     		ldrb	r3, [r3]	@ zero_extendqisi2
 10122 003a 012B     		cmp	r3, #1
 10123 003c 01D8     		bhi	.L1014
 10124              	.LVL1380:
 10125              	.L998:
1005:../switch_sdk/core/yt/yt_port.c ****     CMM_PARAM_CHK(NULL == YT_DISPATCH(unit), CMM_ERR_NOT_INIT);
 10126              		.loc 1 1005 5 discriminator 5 view .LVU2912
1005:../switch_sdk/core/yt/yt_port.c ****     CMM_PARAM_CHK(NULL == YT_DISPATCH(unit), CMM_ERR_NOT_INIT);
 10127              		.loc 1 1005 5 discriminator 5 view .LVU2913
1005:../switch_sdk/core/yt/yt_port.c ****     CMM_PARAM_CHK(NULL == YT_DISPATCH(unit), CMM_ERR_NOT_INIT);
 10128              		.loc 1 1005 5 discriminator 5 view .LVU2914
 10129 003e 0520     		movs	r0, #5
 10130 0040 F8E7     		b	.L996
 10131              	.LVL1381:
 10132              	.L1014:
1005:../switch_sdk/core/yt/yt_port.c ****     CMM_PARAM_CHK(NULL == YT_DISPATCH(unit), CMM_ERR_NOT_INIT);
 10133              		.loc 1 1005 5 discriminator 3 view .LVU2915
 10134              	.LBB198:
1005:../switch_sdk/core/yt/yt_port.c ****     CMM_PARAM_CHK(NULL == YT_DISPATCH(unit), CMM_ERR_NOT_INIT);
 10135              		.loc 1 1005 5 discriminator 3 view .LVU2916
 10136 0042 244B     		ldr	r3, .L1019+16
 10137 0044 5A69     		ldr	r2, [r3, #20]
 10138              	.LVL1382:
1005:../switch_sdk/core/yt/yt_port.c ****     CMM_PARAM_CHK(NULL == YT_DISPATCH(unit), CMM_ERR_NOT_INIT);
 10139              		.loc 1 1005 5 is_stmt 0 discriminator 3 view .LVU2917
 10140 0046 244B     		ldr	r3, .L1019+20
 10141 0048 9968     		ldr	r1, [r3, #8]
 10142              	.LVL1383:
1005:../switch_sdk/core/yt/yt_port.c ****     CMM_PARAM_CHK(NULL == YT_DISPATCH(unit), CMM_ERR_NOT_INIT);
 10143              		.loc 1 1005 5 discriminator 3 view .LVU2918
 10144 004a 2448     		ldr	r0, .L1019+24
 10145              	.LVL1384:
1005:../switch_sdk/core/yt/yt_port.c ****     CMM_PARAM_CHK(NULL == YT_DISPATCH(unit), CMM_ERR_NOT_INIT);
 10146              		.loc 1 1005 5 discriminator 3 view .LVU2919
 10147 004c FFF7FEFF 		bl	osal_printf
 10148              	.LVL1385:
 10149 0050 F5E7     		b	.L998
 10150              	.LVL1386:
 10151              	.L1011:
1005:../switch_sdk/core/yt/yt_port.c ****     CMM_PARAM_CHK(NULL == YT_DISPATCH(unit), CMM_ERR_NOT_INIT);
 10152              		.loc 1 1005 5 discriminator 3 view .LVU2920
 10153              	.LBE198:
1006:../switch_sdk/core/yt/yt_port.c ****     CMM_PARAM_CHK((!(YT_DISPATCH(unit)->is_inited)), CMM_ERR_NOT_INIT);
 10154              		.loc 1 1006 5 is_stmt 1 discriminator 1 view .LVU2921
1006:../switch_sdk/core/yt/yt_port.c ****     CMM_PARAM_CHK((!(YT_DISPATCH(unit)->is_inited)), CMM_ERR_NOT_INIT);
 10155              		.loc 1 1006 5 discriminator 1 view .LVU2922
 10156 0052 1F4B     		ldr	r3, .L1019+12
 10157 0054 1B78     		ldrb	r3, [r3]	@ zero_extendqisi2
 10158 0056 012B     		cmp	r3, #1
 10159 0058 01D8     		bhi	.L1015
 10160              	.LVL1387:
 10161              	.L1001:
1006:../switch_sdk/core/yt/yt_port.c ****     CMM_PARAM_CHK((!(YT_DISPATCH(unit)->is_inited)), CMM_ERR_NOT_INIT);
 10162              		.loc 1 1006 5 discriminator 5 view .LVU2923
1006:../switch_sdk/core/yt/yt_port.c ****     CMM_PARAM_CHK((!(YT_DISPATCH(unit)->is_inited)), CMM_ERR_NOT_INIT);
 10163              		.loc 1 1006 5 discriminator 5 view .LVU2924
1006:../switch_sdk/core/yt/yt_port.c ****     CMM_PARAM_CHK((!(YT_DISPATCH(unit)->is_inited)), CMM_ERR_NOT_INIT);
 10164              		.loc 1 1006 5 discriminator 5 view .LVU2925
 10165 005a 0420     		movs	r0, #4
 10166 005c EAE7     		b	.L996
 10167              	.LVL1388:
 10168              	.L1015:
1006:../switch_sdk/core/yt/yt_port.c ****     CMM_PARAM_CHK((!(YT_DISPATCH(unit)->is_inited)), CMM_ERR_NOT_INIT);
 10169              		.loc 1 1006 5 discriminator 3 view .LVU2926
 10170              	.LBB199:
1006:../switch_sdk/core/yt/yt_port.c ****     CMM_PARAM_CHK((!(YT_DISPATCH(unit)->is_inited)), CMM_ERR_NOT_INIT);
 10171              		.loc 1 1006 5 discriminator 3 view .LVU2927
 10172 005e 1D4B     		ldr	r3, .L1019+16
 10173 0060 1A69     		ldr	r2, [r3, #16]
 10174              	.LVL1389:
1006:../switch_sdk/core/yt/yt_port.c ****     CMM_PARAM_CHK((!(YT_DISPATCH(unit)->is_inited)), CMM_ERR_NOT_INIT);
 10175              		.loc 1 1006 5 is_stmt 0 discriminator 3 view .LVU2928
 10176 0062 1D4B     		ldr	r3, .L1019+20
 10177 0064 9968     		ldr	r1, [r3, #8]
 10178              	.LVL1390:
1006:../switch_sdk/core/yt/yt_port.c ****     CMM_PARAM_CHK((!(YT_DISPATCH(unit)->is_inited)), CMM_ERR_NOT_INIT);
 10179              		.loc 1 1006 5 discriminator 3 view .LVU2929
 10180 0066 1D48     		ldr	r0, .L1019+24
 10181              	.LVL1391:
1006:../switch_sdk/core/yt/yt_port.c ****     CMM_PARAM_CHK((!(YT_DISPATCH(unit)->is_inited)), CMM_ERR_NOT_INIT);
 10182              		.loc 1 1006 5 discriminator 3 view .LVU2930
 10183 0068 FFF7FEFF 		bl	osal_printf
 10184              	.LVL1392:
 10185 006c F5E7     		b	.L1001
 10186              	.LVL1393:
 10187              	.L1012:
1006:../switch_sdk/core/yt/yt_port.c ****     CMM_PARAM_CHK((!(YT_DISPATCH(unit)->is_inited)), CMM_ERR_NOT_INIT);
 10188              		.loc 1 1006 5 discriminator 3 view .LVU2931
 10189              	.LBE199:
1007:../switch_sdk/core/yt/yt_port.c ****     CMM_PARAM_CHK((!(CMM_PORT_VALID(unit, port))), CMM_ERR_PORT);
 10190              		.loc 1 1007 5 is_stmt 1 discriminator 1 view .LVU2932
1007:../switch_sdk/core/yt/yt_port.c ****     CMM_PARAM_CHK((!(CMM_PORT_VALID(unit, port))), CMM_ERR_PORT);
 10191              		.loc 1 1007 5 discriminator 1 view .LVU2933
 10192 006e 184B     		ldr	r3, .L1019+12
 10193 0070 1B78     		ldrb	r3, [r3]	@ zero_extendqisi2
 10194 0072 012B     		cmp	r3, #1
 10195 0074 01D8     		bhi	.L1016
 10196              	.LVL1394:
 10197              	.L1003:
1007:../switch_sdk/core/yt/yt_port.c ****     CMM_PARAM_CHK((!(CMM_PORT_VALID(unit, port))), CMM_ERR_PORT);
 10198              		.loc 1 1007 5 discriminator 5 view .LVU2934
1007:../switch_sdk/core/yt/yt_port.c ****     CMM_PARAM_CHK((!(CMM_PORT_VALID(unit, port))), CMM_ERR_PORT);
 10199              		.loc 1 1007 5 discriminator 5 view .LVU2935
1007:../switch_sdk/core/yt/yt_port.c ****     CMM_PARAM_CHK((!(CMM_PORT_VALID(unit, port))), CMM_ERR_PORT);
 10200              		.loc 1 1007 5 discriminator 5 view .LVU2936
 10201 0076 0420     		movs	r0, #4
 10202 0078 DCE7     		b	.L996
 10203              	.LVL1395:
 10204              	.L1016:
1007:../switch_sdk/core/yt/yt_port.c ****     CMM_PARAM_CHK((!(CMM_PORT_VALID(unit, port))), CMM_ERR_PORT);
 10205              		.loc 1 1007 5 discriminator 3 view .LVU2937
 10206              	.LBB200:
1007:../switch_sdk/core/yt/yt_port.c ****     CMM_PARAM_CHK((!(CMM_PORT_VALID(unit, port))), CMM_ERR_PORT);
 10207              		.loc 1 1007 5 discriminator 3 view .LVU2938
 10208 007a 164B     		ldr	r3, .L1019+16
 10209 007c 1A69     		ldr	r2, [r3, #16]
 10210              	.LVL1396:
1007:../switch_sdk/core/yt/yt_port.c ****     CMM_PARAM_CHK((!(CMM_PORT_VALID(unit, port))), CMM_ERR_PORT);
 10211              		.loc 1 1007 5 is_stmt 0 discriminator 3 view .LVU2939
 10212 007e 164B     		ldr	r3, .L1019+20
 10213 0080 9968     		ldr	r1, [r3, #8]
 10214              	.LVL1397:
1007:../switch_sdk/core/yt/yt_port.c ****     CMM_PARAM_CHK((!(CMM_PORT_VALID(unit, port))), CMM_ERR_PORT);
 10215              		.loc 1 1007 5 discriminator 3 view .LVU2940
 10216 0082 1648     		ldr	r0, .L1019+24
 10217 0084 FFF7FEFF 		bl	osal_printf
 10218              	.LVL1398:
 10219 0088 F5E7     		b	.L1003
 10220              	.LVL1399:
 10221              	.L1004:
1007:../switch_sdk/core/yt/yt_port.c ****     CMM_PARAM_CHK((!(CMM_PORT_VALID(unit, port))), CMM_ERR_PORT);
 10222              		.loc 1 1007 5 discriminator 3 view .LVU2941
 10223              	.LBE200:
1008:../switch_sdk/core/yt/yt_port.c ****     CMM_PARAM_CHK((YT_ENABLE < state || YT_DISABLE > state), CMM_ERR_INPUT);
 10224              		.loc 1 1008 5 is_stmt 1 discriminator 3 view .LVU2942
1008:../switch_sdk/core/yt/yt_port.c ****     CMM_PARAM_CHK((YT_ENABLE < state || YT_DISABLE > state), CMM_ERR_INPUT);
 10225              		.loc 1 1008 5 discriminator 3 view .LVU2943
 10226 008a 114B     		ldr	r3, .L1019+12
 10227 008c 1B78     		ldrb	r3, [r3]	@ zero_extendqisi2
 10228 008e 012B     		cmp	r3, #1
 10229 0090 01D8     		bhi	.L1017
 10230              	.LVL1400:
 10231              	.L1006:
1008:../switch_sdk/core/yt/yt_port.c ****     CMM_PARAM_CHK((YT_ENABLE < state || YT_DISABLE > state), CMM_ERR_INPUT);
 10232              		.loc 1 1008 5 discriminator 7 view .LVU2944
1008:../switch_sdk/core/yt/yt_port.c ****     CMM_PARAM_CHK((YT_ENABLE < state || YT_DISABLE > state), CMM_ERR_INPUT);
 10233              		.loc 1 1008 5 discriminator 7 view .LVU2945
1008:../switch_sdk/core/yt/yt_port.c ****     CMM_PARAM_CHK((YT_ENABLE < state || YT_DISABLE > state), CMM_ERR_INPUT);
 10234              		.loc 1 1008 5 discriminator 7 view .LVU2946
 10235 0092 0E20     		movs	r0, #14
 10236 0094 CEE7     		b	.L996
 10237              	.LVL1401:
 10238              	.L1017:
1008:../switch_sdk/core/yt/yt_port.c ****     CMM_PARAM_CHK((YT_ENABLE < state || YT_DISABLE > state), CMM_ERR_INPUT);
 10239              		.loc 1 1008 5 discriminator 5 view .LVU2947
 10240              	.LBB201:
1008:../switch_sdk/core/yt/yt_port.c ****     CMM_PARAM_CHK((YT_ENABLE < state || YT_DISABLE > state), CMM_ERR_INPUT);
 10241              		.loc 1 1008 5 discriminator 5 view .LVU2948
 10242 0096 0F4B     		ldr	r3, .L1019+16
 10243 0098 9A6B     		ldr	r2, [r3, #56]
 10244              	.LVL1402:
1008:../switch_sdk/core/yt/yt_port.c ****     CMM_PARAM_CHK((YT_ENABLE < state || YT_DISABLE > state), CMM_ERR_INPUT);
 10245              		.loc 1 1008 5 is_stmt 0 discriminator 5 view .LVU2949
 10246 009a 0F4B     		ldr	r3, .L1019+20
 10247 009c 9968     		ldr	r1, [r3, #8]
 10248              	.LVL1403:
1008:../switch_sdk/core/yt/yt_port.c ****     CMM_PARAM_CHK((YT_ENABLE < state || YT_DISABLE > state), CMM_ERR_INPUT);
 10249              		.loc 1 1008 5 discriminator 5 view .LVU2950
 10250 009e 0F48     		ldr	r0, .L1019+24
 10251 00a0 FFF7FEFF 		bl	osal_printf
 10252              	.LVL1404:
 10253 00a4 F5E7     		b	.L1006
 10254              	.LVL1405:
 10255              	.L1013:
1008:../switch_sdk/core/yt/yt_port.c ****     CMM_PARAM_CHK((YT_ENABLE < state || YT_DISABLE > state), CMM_ERR_INPUT);
 10256              		.loc 1 1008 5 discriminator 5 view .LVU2951
 10257              	.LBE201:
1009:../switch_sdk/core/yt/yt_port.c **** 
 10258              		.loc 1 1009 5 is_stmt 1 discriminator 1 view .LVU2952
1009:../switch_sdk/core/yt/yt_port.c **** 
 10259              		.loc 1 1009 5 discriminator 1 view .LVU2953
 10260 00a6 0A4B     		ldr	r3, .L1019+12
 10261 00a8 1B78     		ldrb	r3, [r3]	@ zero_extendqisi2
 10262 00aa 012B     		cmp	r3, #1
 10263 00ac 01D8     		bhi	.L1018
 10264              	.LVL1406:
 10265              	.L1008:
1009:../switch_sdk/core/yt/yt_port.c **** 
 10266              		.loc 1 1009 5 discriminator 5 view .LVU2954
1009:../switch_sdk/core/yt/yt_port.c **** 
 10267              		.loc 1 1009 5 discriminator 5 view .LVU2955
1009:../switch_sdk/core/yt/yt_port.c **** 
 10268              		.loc 1 1009 5 discriminator 5 view .LVU2956
 10269 00ae 0520     		movs	r0, #5
 10270 00b0 C0E7     		b	.L996
 10271              	.LVL1407:
 10272              	.L1018:
1009:../switch_sdk/core/yt/yt_port.c **** 
 10273              		.loc 1 1009 5 discriminator 3 view .LVU2957
 10274              	.LBB202:
1009:../switch_sdk/core/yt/yt_port.c **** 
 10275              		.loc 1 1009 5 discriminator 3 view .LVU2958
 10276 00b2 084B     		ldr	r3, .L1019+16
 10277 00b4 5A69     		ldr	r2, [r3, #20]
 10278              	.LVL1408:
1009:../switch_sdk/core/yt/yt_port.c **** 
 10279              		.loc 1 1009 5 is_stmt 0 discriminator 3 view .LVU2959
 10280 00b6 084B     		ldr	r3, .L1019+20
 10281 00b8 9968     		ldr	r1, [r3, #8]
 10282              	.LVL1409:
1009:../switch_sdk/core/yt/yt_port.c **** 
 10283              		.loc 1 1009 5 discriminator 3 view .LVU2960
 10284 00ba 0848     		ldr	r0, .L1019+24
 10285 00bc FFF7FEFF 		bl	osal_printf
 10286              	.LVL1410:
 10287 00c0 F5E7     		b	.L1008
 10288              	.L1020:
 10289 00c2 00BF     		.align	2
 10290              	.L1019:
 10291 00c4 00000000 		.word	gpfal_dispatch
 10292 00c8 00000000 		.word	gcal_inited
 10293 00cc 00000000 		.word	gpSwitchUnit
 10294 00d0 00000000 		.word	yt_debug_level
 10295 00d4 00000000 		.word	_yt_errmsg
 10296 00d8 00000000 		.word	_yt_prompt_msg
 10297 00dc 00000000 		.word	.LC0
 10298              	.LBE202:
 10299              		.cfi_endproc
 10300              	.LFE45:
 10302              		.section	.text.yt_port_extif_xmiiClk_invert_get,"ax",%progbits
 10303              		.align	1
 10304              		.global	yt_port_extif_xmiiClk_invert_get
 10305              		.syntax unified
 10306              		.thumb
 10307              		.thumb_func
 10309              	yt_port_extif_xmiiClk_invert_get:
 10310              	.LVL1411:
 10311              	.LFB46:
1013:../switch_sdk/core/yt/yt_port.c **** 
1014:../switch_sdk/core/yt/yt_port.c **** 
1015:../switch_sdk/core/yt/yt_port.c **** /**
1016:../switch_sdk/core/yt/yt_port.c ****  * @internal      yt_port_extif_xmiiClk_invert_get
1017:../switch_sdk/core/yt/yt_port.c ****  * @endinternal
1018:../switch_sdk/core/yt/yt_port.c ****  *
1019:../switch_sdk/core/yt/yt_port.c ****  * @brief         get extif xmii clk revert state
1020:../switch_sdk/core/yt/yt_port.c ****  * @note          APPLICABLE DEVICES  -Tiger
1021:../switch_sdk/core/yt/yt_port.c ****  * @param[in]     unit                -unit id
1022:../switch_sdk/core/yt/yt_port.c ****  * @param[in]     port                -port num
1023:../switch_sdk/core/yt/yt_port.c ****  * @param[out]    pState             -invert state enable/disable
1024:../switch_sdk/core/yt/yt_port.c ****  * @retval        CMM_ERR_OK          -on success
1025:../switch_sdk/core/yt/yt_port.c ****  * @retval        CMM_ERR_FAIL        -on fail
1026:../switch_sdk/core/yt/yt_port.c ****  */
1027:../switch_sdk/core/yt/yt_port.c **** yt_ret_t yt_port_extif_xmiiClk_invert_get(yt_unit_t unit, yt_port_t port, yt_enable_t *pState)
1028:../switch_sdk/core/yt/yt_port.c **** {
 10312              		.loc 1 1028 1 is_stmt 1 view -0
 10313              		.cfi_startproc
 10314              		@ args = 0, pretend = 0, frame = 0
 10315              		@ frame_needed = 0, uses_anonymous_args = 0
 10316              		.loc 1 1028 1 is_stmt 0 view .LVU2962
 10317 0000 08B5     		push	{r3, lr}
 10318              		.cfi_def_cfa_offset 8
 10319              		.cfi_offset 3, -8
 10320              		.cfi_offset 14, -4
1029:../switch_sdk/core/yt/yt_port.c ****     CMM_PARAM_CHK((YT_UNIT_NUM <= unit), CMM_ERR_INPUT);
 10321              		.loc 1 1029 5 is_stmt 1 view .LVU2963
 10322              		.loc 1 1029 5 view .LVU2964
 10323 0002 C0B9     		cbnz	r0, .L1035
 10324 0004 8446     		mov	ip, r0
 10325              		.loc 1 1029 5 discriminator 2 view .LVU2965
1030:../switch_sdk/core/yt/yt_port.c ****     CMM_PARAM_CHK(NULL == YT_DISPATCH(unit), CMM_ERR_NOT_INIT);
 10326              		.loc 1 1030 5 discriminator 2 view .LVU2966
 10327              		.loc 1 1030 5 discriminator 2 view .LVU2967
 10328 0006 2F4B     		ldr	r3, .L1044
 10329 0008 53F82030 		ldr	r3, [r3, r0, lsl #2]
 10330 000c 0BB3     		cbz	r3, .L1036
 10331              		.loc 1 1030 5 discriminator 2 view .LVU2968
1031:../switch_sdk/core/yt/yt_port.c ****     CMM_PARAM_CHK((!(YT_DISPATCH(unit)->is_inited)), CMM_ERR_NOT_INIT);
 10332              		.loc 1 1031 5 discriminator 2 view .LVU2969
 10333              		.loc 1 1031 5 discriminator 2 view .LVU2970
 10334 000e 1878     		ldrb	r0, [r3]	@ zero_extendqisi2
 10335              	.LVL1412:
 10336              		.loc 1 1031 5 is_stmt 0 discriminator 2 view .LVU2971
 10337 0010 0028     		cmp	r0, #0
 10338 0012 2CD0     		beq	.L1037
 10339              		.loc 1 1031 5 is_stmt 1 discriminator 2 view .LVU2972
1032:../switch_sdk/core/yt/yt_port.c ****     CMM_PARAM_CHK((!(CMM_PORT_VALID(unit, port))), CMM_ERR_PORT);
 10340              		.loc 1 1032 5 discriminator 2 view .LVU2973
 10341              		.loc 1 1032 5 discriminator 2 view .LVU2974
 10342 0014 2C48     		ldr	r0, .L1044+4
 10343 0016 0078     		ldrb	r0, [r0]	@ zero_extendqisi2
 10344 0018 0028     		cmp	r0, #0
 10345 001a 36D0     		beq	.L1029
 10346 001c 2B48     		ldr	r0, .L1044+8
 10347 001e 50F82C00 		ldr	r0, [r0, ip, lsl #2]
 10348 0022 007D     		ldrb	r0, [r0, #20]	@ zero_extendqisi2
 10349 0024 8842     		cmp	r0, r1
 10350 0026 30D9     		bls	.L1029
 10351              		.loc 1 1032 5 discriminator 4 view .LVU2975
1033:../switch_sdk/core/yt/yt_port.c ****     CMM_PARAM_CHK((NULL == pState), CMM_ERR_NULL_POINT);
 10352              		.loc 1 1033 5 discriminator 4 view .LVU2976
 10353              		.loc 1 1033 5 discriminator 4 view .LVU2977
 10354 0028 002A     		cmp	r2, #0
 10355 002a 3CD0     		beq	.L1038
 10356              		.loc 1 1033 5 discriminator 2 view .LVU2978
1034:../switch_sdk/core/yt/yt_port.c **** 
1035:../switch_sdk/core/yt/yt_port.c ****      return YT_DISPATCH(unit)->port_extif_xmiiClk_invert_get(unit, port, pState);
 10357              		.loc 1 1035 6 discriminator 2 view .LVU2979
 10358              		.loc 1 1035 30 is_stmt 0 discriminator 2 view .LVU2980
 10359 002c D3F80436 		ldr	r3, [r3, #1540]
 10360              		.loc 1 1035 13 discriminator 2 view .LVU2981
 10361 0030 6046     		mov	r0, ip
 10362 0032 9847     		blx	r3
 10363              	.LVL1413:
 10364              	.L1021:
1036:../switch_sdk/core/yt/yt_port.c **** }
 10365              		.loc 1 1036 1 view .LVU2982
 10366 0034 08BD     		pop	{r3, pc}
 10367              	.LVL1414:
 10368              	.L1035:
1029:../switch_sdk/core/yt/yt_port.c ****     CMM_PARAM_CHK(NULL == YT_DISPATCH(unit), CMM_ERR_NOT_INIT);
 10369              		.loc 1 1029 5 is_stmt 1 discriminator 1 view .LVU2983
1029:../switch_sdk/core/yt/yt_port.c ****     CMM_PARAM_CHK(NULL == YT_DISPATCH(unit), CMM_ERR_NOT_INIT);
 10370              		.loc 1 1029 5 discriminator 1 view .LVU2984
 10371 0036 264B     		ldr	r3, .L1044+12
 10372 0038 1B78     		ldrb	r3, [r3]	@ zero_extendqisi2
 10373 003a 012B     		cmp	r3, #1
 10374 003c 01D8     		bhi	.L1039
 10375              	.LVL1415:
 10376              	.L1023:
1029:../switch_sdk/core/yt/yt_port.c ****     CMM_PARAM_CHK(NULL == YT_DISPATCH(unit), CMM_ERR_NOT_INIT);
 10377              		.loc 1 1029 5 discriminator 5 view .LVU2985
1029:../switch_sdk/core/yt/yt_port.c ****     CMM_PARAM_CHK(NULL == YT_DISPATCH(unit), CMM_ERR_NOT_INIT);
 10378              		.loc 1 1029 5 discriminator 5 view .LVU2986
1029:../switch_sdk/core/yt/yt_port.c ****     CMM_PARAM_CHK(NULL == YT_DISPATCH(unit), CMM_ERR_NOT_INIT);
 10379              		.loc 1 1029 5 discriminator 5 view .LVU2987
 10380 003e 0520     		movs	r0, #5
 10381 0040 F8E7     		b	.L1021
 10382              	.LVL1416:
 10383              	.L1039:
1029:../switch_sdk/core/yt/yt_port.c ****     CMM_PARAM_CHK(NULL == YT_DISPATCH(unit), CMM_ERR_NOT_INIT);
 10384              		.loc 1 1029 5 discriminator 3 view .LVU2988
 10385              	.LBB203:
1029:../switch_sdk/core/yt/yt_port.c ****     CMM_PARAM_CHK(NULL == YT_DISPATCH(unit), CMM_ERR_NOT_INIT);
 10386              		.loc 1 1029 5 discriminator 3 view .LVU2989
 10387 0042 244B     		ldr	r3, .L1044+16
 10388 0044 5A69     		ldr	r2, [r3, #20]
 10389              	.LVL1417:
1029:../switch_sdk/core/yt/yt_port.c ****     CMM_PARAM_CHK(NULL == YT_DISPATCH(unit), CMM_ERR_NOT_INIT);
 10390              		.loc 1 1029 5 is_stmt 0 discriminator 3 view .LVU2990
 10391 0046 244B     		ldr	r3, .L1044+20
 10392 0048 9968     		ldr	r1, [r3, #8]
 10393              	.LVL1418:
1029:../switch_sdk/core/yt/yt_port.c ****     CMM_PARAM_CHK(NULL == YT_DISPATCH(unit), CMM_ERR_NOT_INIT);
 10394              		.loc 1 1029 5 discriminator 3 view .LVU2991
 10395 004a 2448     		ldr	r0, .L1044+24
 10396              	.LVL1419:
1029:../switch_sdk/core/yt/yt_port.c ****     CMM_PARAM_CHK(NULL == YT_DISPATCH(unit), CMM_ERR_NOT_INIT);
 10397              		.loc 1 1029 5 discriminator 3 view .LVU2992
 10398 004c FFF7FEFF 		bl	osal_printf
 10399              	.LVL1420:
 10400 0050 F5E7     		b	.L1023
 10401              	.LVL1421:
 10402              	.L1036:
1029:../switch_sdk/core/yt/yt_port.c ****     CMM_PARAM_CHK(NULL == YT_DISPATCH(unit), CMM_ERR_NOT_INIT);
 10403              		.loc 1 1029 5 discriminator 3 view .LVU2993
 10404              	.LBE203:
1030:../switch_sdk/core/yt/yt_port.c ****     CMM_PARAM_CHK((!(YT_DISPATCH(unit)->is_inited)), CMM_ERR_NOT_INIT);
 10405              		.loc 1 1030 5 is_stmt 1 discriminator 1 view .LVU2994
1030:../switch_sdk/core/yt/yt_port.c ****     CMM_PARAM_CHK((!(YT_DISPATCH(unit)->is_inited)), CMM_ERR_NOT_INIT);
 10406              		.loc 1 1030 5 discriminator 1 view .LVU2995
 10407 0052 1F4B     		ldr	r3, .L1044+12
 10408 0054 1B78     		ldrb	r3, [r3]	@ zero_extendqisi2
 10409 0056 012B     		cmp	r3, #1
 10410 0058 01D8     		bhi	.L1040
 10411              	.LVL1422:
 10412              	.L1026:
1030:../switch_sdk/core/yt/yt_port.c ****     CMM_PARAM_CHK((!(YT_DISPATCH(unit)->is_inited)), CMM_ERR_NOT_INIT);
 10413              		.loc 1 1030 5 discriminator 5 view .LVU2996
1030:../switch_sdk/core/yt/yt_port.c ****     CMM_PARAM_CHK((!(YT_DISPATCH(unit)->is_inited)), CMM_ERR_NOT_INIT);
 10414              		.loc 1 1030 5 discriminator 5 view .LVU2997
1030:../switch_sdk/core/yt/yt_port.c ****     CMM_PARAM_CHK((!(YT_DISPATCH(unit)->is_inited)), CMM_ERR_NOT_INIT);
 10415              		.loc 1 1030 5 discriminator 5 view .LVU2998
 10416 005a 0420     		movs	r0, #4
 10417 005c EAE7     		b	.L1021
 10418              	.LVL1423:
 10419              	.L1040:
1030:../switch_sdk/core/yt/yt_port.c ****     CMM_PARAM_CHK((!(YT_DISPATCH(unit)->is_inited)), CMM_ERR_NOT_INIT);
 10420              		.loc 1 1030 5 discriminator 3 view .LVU2999
 10421              	.LBB204:
1030:../switch_sdk/core/yt/yt_port.c ****     CMM_PARAM_CHK((!(YT_DISPATCH(unit)->is_inited)), CMM_ERR_NOT_INIT);
 10422              		.loc 1 1030 5 discriminator 3 view .LVU3000
 10423 005e 1D4B     		ldr	r3, .L1044+16
 10424 0060 1A69     		ldr	r2, [r3, #16]
 10425              	.LVL1424:
1030:../switch_sdk/core/yt/yt_port.c ****     CMM_PARAM_CHK((!(YT_DISPATCH(unit)->is_inited)), CMM_ERR_NOT_INIT);
 10426              		.loc 1 1030 5 is_stmt 0 discriminator 3 view .LVU3001
 10427 0062 1D4B     		ldr	r3, .L1044+20
 10428 0064 9968     		ldr	r1, [r3, #8]
 10429              	.LVL1425:
1030:../switch_sdk/core/yt/yt_port.c ****     CMM_PARAM_CHK((!(YT_DISPATCH(unit)->is_inited)), CMM_ERR_NOT_INIT);
 10430              		.loc 1 1030 5 discriminator 3 view .LVU3002
 10431 0066 1D48     		ldr	r0, .L1044+24
 10432              	.LVL1426:
1030:../switch_sdk/core/yt/yt_port.c ****     CMM_PARAM_CHK((!(YT_DISPATCH(unit)->is_inited)), CMM_ERR_NOT_INIT);
 10433              		.loc 1 1030 5 discriminator 3 view .LVU3003
 10434 0068 FFF7FEFF 		bl	osal_printf
 10435              	.LVL1427:
 10436 006c F5E7     		b	.L1026
 10437              	.LVL1428:
 10438              	.L1037:
1030:../switch_sdk/core/yt/yt_port.c ****     CMM_PARAM_CHK((!(YT_DISPATCH(unit)->is_inited)), CMM_ERR_NOT_INIT);
 10439              		.loc 1 1030 5 discriminator 3 view .LVU3004
 10440              	.LBE204:
1031:../switch_sdk/core/yt/yt_port.c ****     CMM_PARAM_CHK((!(CMM_PORT_VALID(unit, port))), CMM_ERR_PORT);
 10441              		.loc 1 1031 5 is_stmt 1 discriminator 1 view .LVU3005
1031:../switch_sdk/core/yt/yt_port.c ****     CMM_PARAM_CHK((!(CMM_PORT_VALID(unit, port))), CMM_ERR_PORT);
 10442              		.loc 1 1031 5 discriminator 1 view .LVU3006
 10443 006e 184B     		ldr	r3, .L1044+12
 10444 0070 1B78     		ldrb	r3, [r3]	@ zero_extendqisi2
 10445 0072 012B     		cmp	r3, #1
 10446 0074 01D8     		bhi	.L1041
 10447              	.LVL1429:
 10448              	.L1028:
1031:../switch_sdk/core/yt/yt_port.c ****     CMM_PARAM_CHK((!(CMM_PORT_VALID(unit, port))), CMM_ERR_PORT);
 10449              		.loc 1 1031 5 discriminator 5 view .LVU3007
1031:../switch_sdk/core/yt/yt_port.c ****     CMM_PARAM_CHK((!(CMM_PORT_VALID(unit, port))), CMM_ERR_PORT);
 10450              		.loc 1 1031 5 discriminator 5 view .LVU3008
1031:../switch_sdk/core/yt/yt_port.c ****     CMM_PARAM_CHK((!(CMM_PORT_VALID(unit, port))), CMM_ERR_PORT);
 10451              		.loc 1 1031 5 discriminator 5 view .LVU3009
 10452 0076 0420     		movs	r0, #4
 10453 0078 DCE7     		b	.L1021
 10454              	.LVL1430:
 10455              	.L1041:
1031:../switch_sdk/core/yt/yt_port.c ****     CMM_PARAM_CHK((!(CMM_PORT_VALID(unit, port))), CMM_ERR_PORT);
 10456              		.loc 1 1031 5 discriminator 3 view .LVU3010
 10457              	.LBB205:
1031:../switch_sdk/core/yt/yt_port.c ****     CMM_PARAM_CHK((!(CMM_PORT_VALID(unit, port))), CMM_ERR_PORT);
 10458              		.loc 1 1031 5 discriminator 3 view .LVU3011
 10459 007a 164B     		ldr	r3, .L1044+16
 10460 007c 1A69     		ldr	r2, [r3, #16]
 10461              	.LVL1431:
1031:../switch_sdk/core/yt/yt_port.c ****     CMM_PARAM_CHK((!(CMM_PORT_VALID(unit, port))), CMM_ERR_PORT);
 10462              		.loc 1 1031 5 is_stmt 0 discriminator 3 view .LVU3012
 10463 007e 164B     		ldr	r3, .L1044+20
 10464 0080 9968     		ldr	r1, [r3, #8]
 10465              	.LVL1432:
1031:../switch_sdk/core/yt/yt_port.c ****     CMM_PARAM_CHK((!(CMM_PORT_VALID(unit, port))), CMM_ERR_PORT);
 10466              		.loc 1 1031 5 discriminator 3 view .LVU3013
 10467 0082 1648     		ldr	r0, .L1044+24
 10468 0084 FFF7FEFF 		bl	osal_printf
 10469              	.LVL1433:
 10470 0088 F5E7     		b	.L1028
 10471              	.LVL1434:
 10472              	.L1029:
1031:../switch_sdk/core/yt/yt_port.c ****     CMM_PARAM_CHK((!(CMM_PORT_VALID(unit, port))), CMM_ERR_PORT);
 10473              		.loc 1 1031 5 discriminator 3 view .LVU3014
 10474              	.LBE205:
1032:../switch_sdk/core/yt/yt_port.c ****     CMM_PARAM_CHK((NULL == pState), CMM_ERR_NULL_POINT);
 10475              		.loc 1 1032 5 is_stmt 1 discriminator 3 view .LVU3015
1032:../switch_sdk/core/yt/yt_port.c ****     CMM_PARAM_CHK((NULL == pState), CMM_ERR_NULL_POINT);
 10476              		.loc 1 1032 5 discriminator 3 view .LVU3016
 10477 008a 114B     		ldr	r3, .L1044+12
 10478 008c 1B78     		ldrb	r3, [r3]	@ zero_extendqisi2
 10479 008e 012B     		cmp	r3, #1
 10480 0090 01D8     		bhi	.L1042
 10481              	.LVL1435:
 10482              	.L1031:
1032:../switch_sdk/core/yt/yt_port.c ****     CMM_PARAM_CHK((NULL == pState), CMM_ERR_NULL_POINT);
 10483              		.loc 1 1032 5 discriminator 7 view .LVU3017
1032:../switch_sdk/core/yt/yt_port.c ****     CMM_PARAM_CHK((NULL == pState), CMM_ERR_NULL_POINT);
 10484              		.loc 1 1032 5 discriminator 7 view .LVU3018
1032:../switch_sdk/core/yt/yt_port.c ****     CMM_PARAM_CHK((NULL == pState), CMM_ERR_NULL_POINT);
 10485              		.loc 1 1032 5 discriminator 7 view .LVU3019
 10486 0092 0E20     		movs	r0, #14
 10487 0094 CEE7     		b	.L1021
 10488              	.LVL1436:
 10489              	.L1042:
1032:../switch_sdk/core/yt/yt_port.c ****     CMM_PARAM_CHK((NULL == pState), CMM_ERR_NULL_POINT);
 10490              		.loc 1 1032 5 discriminator 5 view .LVU3020
 10491              	.LBB206:
1032:../switch_sdk/core/yt/yt_port.c ****     CMM_PARAM_CHK((NULL == pState), CMM_ERR_NULL_POINT);
 10492              		.loc 1 1032 5 discriminator 5 view .LVU3021
 10493 0096 0F4B     		ldr	r3, .L1044+16
 10494 0098 9A6B     		ldr	r2, [r3, #56]
 10495              	.LVL1437:
1032:../switch_sdk/core/yt/yt_port.c ****     CMM_PARAM_CHK((NULL == pState), CMM_ERR_NULL_POINT);
 10496              		.loc 1 1032 5 is_stmt 0 discriminator 5 view .LVU3022
 10497 009a 0F4B     		ldr	r3, .L1044+20
 10498 009c 9968     		ldr	r1, [r3, #8]
 10499              	.LVL1438:
1032:../switch_sdk/core/yt/yt_port.c ****     CMM_PARAM_CHK((NULL == pState), CMM_ERR_NULL_POINT);
 10500              		.loc 1 1032 5 discriminator 5 view .LVU3023
 10501 009e 0F48     		ldr	r0, .L1044+24
 10502 00a0 FFF7FEFF 		bl	osal_printf
 10503              	.LVL1439:
 10504 00a4 F5E7     		b	.L1031
 10505              	.LVL1440:
 10506              	.L1038:
1032:../switch_sdk/core/yt/yt_port.c ****     CMM_PARAM_CHK((NULL == pState), CMM_ERR_NULL_POINT);
 10507              		.loc 1 1032 5 discriminator 5 view .LVU3024
 10508              	.LBE206:
1033:../switch_sdk/core/yt/yt_port.c **** 
 10509              		.loc 1 1033 5 is_stmt 1 discriminator 1 view .LVU3025
1033:../switch_sdk/core/yt/yt_port.c **** 
 10510              		.loc 1 1033 5 discriminator 1 view .LVU3026
 10511 00a6 0A4B     		ldr	r3, .L1044+12
 10512 00a8 1B78     		ldrb	r3, [r3]	@ zero_extendqisi2
 10513 00aa 012B     		cmp	r3, #1
 10514 00ac 01D8     		bhi	.L1043
 10515              	.LVL1441:
 10516              	.L1033:
1033:../switch_sdk/core/yt/yt_port.c **** 
 10517              		.loc 1 1033 5 discriminator 5 view .LVU3027
1033:../switch_sdk/core/yt/yt_port.c **** 
 10518              		.loc 1 1033 5 discriminator 5 view .LVU3028
1033:../switch_sdk/core/yt/yt_port.c **** 
 10519              		.loc 1 1033 5 discriminator 5 view .LVU3029
 10520 00ae 0220     		movs	r0, #2
 10521 00b0 C0E7     		b	.L1021
 10522              	.LVL1442:
 10523              	.L1043:
1033:../switch_sdk/core/yt/yt_port.c **** 
 10524              		.loc 1 1033 5 discriminator 3 view .LVU3030
 10525              	.LBB207:
1033:../switch_sdk/core/yt/yt_port.c **** 
 10526              		.loc 1 1033 5 discriminator 3 view .LVU3031
 10527 00b2 084B     		ldr	r3, .L1044+16
 10528 00b4 9A68     		ldr	r2, [r3, #8]
 10529              	.LVL1443:
1033:../switch_sdk/core/yt/yt_port.c **** 
 10530              		.loc 1 1033 5 is_stmt 0 discriminator 3 view .LVU3032
 10531 00b6 084B     		ldr	r3, .L1044+20
 10532 00b8 9968     		ldr	r1, [r3, #8]
 10533              	.LVL1444:
1033:../switch_sdk/core/yt/yt_port.c **** 
 10534              		.loc 1 1033 5 discriminator 3 view .LVU3033
 10535 00ba 0848     		ldr	r0, .L1044+24
 10536 00bc FFF7FEFF 		bl	osal_printf
 10537              	.LVL1445:
 10538 00c0 F5E7     		b	.L1033
 10539              	.L1045:
 10540 00c2 00BF     		.align	2
 10541              	.L1044:
 10542 00c4 00000000 		.word	gpfal_dispatch
 10543 00c8 00000000 		.word	gcal_inited
 10544 00cc 00000000 		.word	gpSwitchUnit
 10545 00d0 00000000 		.word	yt_debug_level
 10546 00d4 00000000 		.word	_yt_errmsg
 10547 00d8 00000000 		.word	_yt_prompt_msg
 10548 00dc 00000000 		.word	.LC0
 10549              	.LBE207:
 10550              		.cfi_endproc
 10551              	.LFE46:
 10553              		.section	.text.yt_port_parallel_detection_set,"ax",%progbits
 10554              		.align	1
 10555              		.global	yt_port_parallel_detection_set
 10556              		.syntax unified
 10557              		.thumb
 10558              		.thumb_func
 10560              	yt_port_parallel_detection_set:
 10561              	.LVL1446:
 10562              	.LFB47:
1037:../switch_sdk/core/yt/yt_port.c **** 
1038:../switch_sdk/core/yt/yt_port.c **** /**
1039:../switch_sdk/core/yt/yt_port.c ****  * @internal      yt_port_parallel_detection_set
1040:../switch_sdk/core/yt/yt_port.c ****  * @endinternal
1041:../switch_sdk/core/yt/yt_port.c ****  *
1042:../switch_sdk/core/yt/yt_port.c ****  * @brief         set serdes parallel detection state
1043:../switch_sdk/core/yt/yt_port.c ****  * @note          APPLICABLE DEVICES  -Tiger
1044:../switch_sdk/core/yt/yt_port.c ****  * @param[in]     unit                -unit id
1045:../switch_sdk/core/yt/yt_port.c ****  * @param[in]     port                -port num
1046:../switch_sdk/core/yt/yt_port.c ****  * @param[out]    state             -parallel detection state enable/disable
1047:../switch_sdk/core/yt/yt_port.c ****  * @retval        CMM_ERR_OK          -on success
1048:../switch_sdk/core/yt/yt_port.c ****  * @retval        CMM_ERR_FAIL        -on fail
1049:../switch_sdk/core/yt/yt_port.c ****  */
1050:../switch_sdk/core/yt/yt_port.c **** yt_ret_t yt_port_parallel_detection_set(yt_unit_t unit, yt_port_t port, yt_enable_t state)
1051:../switch_sdk/core/yt/yt_port.c **** {
 10563              		.loc 1 1051 1 is_stmt 1 view -0
 10564              		.cfi_startproc
 10565              		@ args = 0, pretend = 0, frame = 0
 10566              		@ frame_needed = 0, uses_anonymous_args = 0
 10567              		.loc 1 1051 1 is_stmt 0 view .LVU3035
 10568 0000 08B5     		push	{r3, lr}
 10569              		.cfi_def_cfa_offset 8
 10570              		.cfi_offset 3, -8
 10571              		.cfi_offset 14, -4
1052:../switch_sdk/core/yt/yt_port.c ****     CMM_PARAM_CHK((YT_UNIT_NUM <= unit), CMM_ERR_INPUT);
 10572              		.loc 1 1052 5 is_stmt 1 view .LVU3036
 10573              		.loc 1 1052 5 view .LVU3037
 10574 0002 C0B9     		cbnz	r0, .L1060
 10575 0004 8446     		mov	ip, r0
 10576              		.loc 1 1052 5 discriminator 2 view .LVU3038
1053:../switch_sdk/core/yt/yt_port.c ****     CMM_PARAM_CHK(NULL == YT_DISPATCH(unit), CMM_ERR_NOT_INIT);
 10577              		.loc 1 1053 5 discriminator 2 view .LVU3039
 10578              		.loc 1 1053 5 discriminator 2 view .LVU3040
 10579 0006 2F4B     		ldr	r3, .L1069
 10580 0008 53F82030 		ldr	r3, [r3, r0, lsl #2]
 10581 000c 0BB3     		cbz	r3, .L1061
 10582              		.loc 1 1053 5 discriminator 2 view .LVU3041
1054:../switch_sdk/core/yt/yt_port.c ****     CMM_PARAM_CHK((!(YT_DISPATCH(unit)->is_inited)), CMM_ERR_NOT_INIT);
 10583              		.loc 1 1054 5 discriminator 2 view .LVU3042
 10584              		.loc 1 1054 5 discriminator 2 view .LVU3043
 10585 000e 1878     		ldrb	r0, [r3]	@ zero_extendqisi2
 10586              	.LVL1447:
 10587              		.loc 1 1054 5 is_stmt 0 discriminator 2 view .LVU3044
 10588 0010 0028     		cmp	r0, #0
 10589 0012 2CD0     		beq	.L1062
 10590              		.loc 1 1054 5 is_stmt 1 discriminator 2 view .LVU3045
1055:../switch_sdk/core/yt/yt_port.c ****     CMM_PARAM_CHK((!(CMM_PORT_VALID(unit, port))), CMM_ERR_PORT);
 10591              		.loc 1 1055 5 discriminator 2 view .LVU3046
 10592              		.loc 1 1055 5 discriminator 2 view .LVU3047
 10593 0014 2C48     		ldr	r0, .L1069+4
 10594 0016 0078     		ldrb	r0, [r0]	@ zero_extendqisi2
 10595 0018 0028     		cmp	r0, #0
 10596 001a 36D0     		beq	.L1054
 10597 001c 2B48     		ldr	r0, .L1069+8
 10598 001e 50F82C00 		ldr	r0, [r0, ip, lsl #2]
 10599 0022 007D     		ldrb	r0, [r0, #20]	@ zero_extendqisi2
 10600 0024 8842     		cmp	r0, r1
 10601 0026 30D9     		bls	.L1054
 10602              		.loc 1 1055 5 discriminator 4 view .LVU3048
1056:../switch_sdk/core/yt/yt_port.c ****     CMM_PARAM_CHK((YT_ENABLE < state || YT_DISABLE > state), CMM_ERR_INPUT);
 10603              		.loc 1 1056 5 discriminator 4 view .LVU3049
 10604              		.loc 1 1056 5 discriminator 4 view .LVU3050
 10605 0028 012A     		cmp	r2, #1
 10606 002a 3CD8     		bhi	.L1063
 10607              		.loc 1 1056 5 discriminator 2 view .LVU3051
1057:../switch_sdk/core/yt/yt_port.c **** 
1058:../switch_sdk/core/yt/yt_port.c ****     return YT_DISPATCH(unit)->port_parallel_detection_set(unit, port, state);
 10608              		.loc 1 1058 5 discriminator 2 view .LVU3052
 10609              		.loc 1 1058 29 is_stmt 0 discriminator 2 view .LVU3053
 10610 002c D3F80836 		ldr	r3, [r3, #1544]
 10611              		.loc 1 1058 12 discriminator 2 view .LVU3054
 10612 0030 6046     		mov	r0, ip
 10613 0032 9847     		blx	r3
 10614              	.LVL1448:
 10615              	.L1046:
1059:../switch_sdk/core/yt/yt_port.c **** }
 10616              		.loc 1 1059 1 view .LVU3055
 10617 0034 08BD     		pop	{r3, pc}
 10618              	.LVL1449:
 10619              	.L1060:
1052:../switch_sdk/core/yt/yt_port.c ****     CMM_PARAM_CHK(NULL == YT_DISPATCH(unit), CMM_ERR_NOT_INIT);
 10620              		.loc 1 1052 5 is_stmt 1 discriminator 1 view .LVU3056
1052:../switch_sdk/core/yt/yt_port.c ****     CMM_PARAM_CHK(NULL == YT_DISPATCH(unit), CMM_ERR_NOT_INIT);
 10621              		.loc 1 1052 5 discriminator 1 view .LVU3057
 10622 0036 264B     		ldr	r3, .L1069+12
 10623 0038 1B78     		ldrb	r3, [r3]	@ zero_extendqisi2
 10624 003a 012B     		cmp	r3, #1
 10625 003c 01D8     		bhi	.L1064
 10626              	.LVL1450:
 10627              	.L1048:
1052:../switch_sdk/core/yt/yt_port.c ****     CMM_PARAM_CHK(NULL == YT_DISPATCH(unit), CMM_ERR_NOT_INIT);
 10628              		.loc 1 1052 5 discriminator 5 view .LVU3058
1052:../switch_sdk/core/yt/yt_port.c ****     CMM_PARAM_CHK(NULL == YT_DISPATCH(unit), CMM_ERR_NOT_INIT);
 10629              		.loc 1 1052 5 discriminator 5 view .LVU3059
1052:../switch_sdk/core/yt/yt_port.c ****     CMM_PARAM_CHK(NULL == YT_DISPATCH(unit), CMM_ERR_NOT_INIT);
 10630              		.loc 1 1052 5 discriminator 5 view .LVU3060
 10631 003e 0520     		movs	r0, #5
 10632 0040 F8E7     		b	.L1046
 10633              	.LVL1451:
 10634              	.L1064:
1052:../switch_sdk/core/yt/yt_port.c ****     CMM_PARAM_CHK(NULL == YT_DISPATCH(unit), CMM_ERR_NOT_INIT);
 10635              		.loc 1 1052 5 discriminator 3 view .LVU3061
 10636              	.LBB208:
1052:../switch_sdk/core/yt/yt_port.c ****     CMM_PARAM_CHK(NULL == YT_DISPATCH(unit), CMM_ERR_NOT_INIT);
 10637              		.loc 1 1052 5 discriminator 3 view .LVU3062
 10638 0042 244B     		ldr	r3, .L1069+16
 10639 0044 5A69     		ldr	r2, [r3, #20]
 10640              	.LVL1452:
1052:../switch_sdk/core/yt/yt_port.c ****     CMM_PARAM_CHK(NULL == YT_DISPATCH(unit), CMM_ERR_NOT_INIT);
 10641              		.loc 1 1052 5 is_stmt 0 discriminator 3 view .LVU3063
 10642 0046 244B     		ldr	r3, .L1069+20
 10643 0048 9968     		ldr	r1, [r3, #8]
 10644              	.LVL1453:
1052:../switch_sdk/core/yt/yt_port.c ****     CMM_PARAM_CHK(NULL == YT_DISPATCH(unit), CMM_ERR_NOT_INIT);
 10645              		.loc 1 1052 5 discriminator 3 view .LVU3064
 10646 004a 2448     		ldr	r0, .L1069+24
 10647              	.LVL1454:
1052:../switch_sdk/core/yt/yt_port.c ****     CMM_PARAM_CHK(NULL == YT_DISPATCH(unit), CMM_ERR_NOT_INIT);
 10648              		.loc 1 1052 5 discriminator 3 view .LVU3065
 10649 004c FFF7FEFF 		bl	osal_printf
 10650              	.LVL1455:
 10651 0050 F5E7     		b	.L1048
 10652              	.LVL1456:
 10653              	.L1061:
1052:../switch_sdk/core/yt/yt_port.c ****     CMM_PARAM_CHK(NULL == YT_DISPATCH(unit), CMM_ERR_NOT_INIT);
 10654              		.loc 1 1052 5 discriminator 3 view .LVU3066
 10655              	.LBE208:
1053:../switch_sdk/core/yt/yt_port.c ****     CMM_PARAM_CHK((!(YT_DISPATCH(unit)->is_inited)), CMM_ERR_NOT_INIT);
 10656              		.loc 1 1053 5 is_stmt 1 discriminator 1 view .LVU3067
1053:../switch_sdk/core/yt/yt_port.c ****     CMM_PARAM_CHK((!(YT_DISPATCH(unit)->is_inited)), CMM_ERR_NOT_INIT);
 10657              		.loc 1 1053 5 discriminator 1 view .LVU3068
 10658 0052 1F4B     		ldr	r3, .L1069+12
 10659 0054 1B78     		ldrb	r3, [r3]	@ zero_extendqisi2
 10660 0056 012B     		cmp	r3, #1
 10661 0058 01D8     		bhi	.L1065
 10662              	.LVL1457:
 10663              	.L1051:
1053:../switch_sdk/core/yt/yt_port.c ****     CMM_PARAM_CHK((!(YT_DISPATCH(unit)->is_inited)), CMM_ERR_NOT_INIT);
 10664              		.loc 1 1053 5 discriminator 5 view .LVU3069
1053:../switch_sdk/core/yt/yt_port.c ****     CMM_PARAM_CHK((!(YT_DISPATCH(unit)->is_inited)), CMM_ERR_NOT_INIT);
 10665              		.loc 1 1053 5 discriminator 5 view .LVU3070
1053:../switch_sdk/core/yt/yt_port.c ****     CMM_PARAM_CHK((!(YT_DISPATCH(unit)->is_inited)), CMM_ERR_NOT_INIT);
 10666              		.loc 1 1053 5 discriminator 5 view .LVU3071
 10667 005a 0420     		movs	r0, #4
 10668 005c EAE7     		b	.L1046
 10669              	.LVL1458:
 10670              	.L1065:
1053:../switch_sdk/core/yt/yt_port.c ****     CMM_PARAM_CHK((!(YT_DISPATCH(unit)->is_inited)), CMM_ERR_NOT_INIT);
 10671              		.loc 1 1053 5 discriminator 3 view .LVU3072
 10672              	.LBB209:
1053:../switch_sdk/core/yt/yt_port.c ****     CMM_PARAM_CHK((!(YT_DISPATCH(unit)->is_inited)), CMM_ERR_NOT_INIT);
 10673              		.loc 1 1053 5 discriminator 3 view .LVU3073
 10674 005e 1D4B     		ldr	r3, .L1069+16
 10675 0060 1A69     		ldr	r2, [r3, #16]
 10676              	.LVL1459:
1053:../switch_sdk/core/yt/yt_port.c ****     CMM_PARAM_CHK((!(YT_DISPATCH(unit)->is_inited)), CMM_ERR_NOT_INIT);
 10677              		.loc 1 1053 5 is_stmt 0 discriminator 3 view .LVU3074
 10678 0062 1D4B     		ldr	r3, .L1069+20
 10679 0064 9968     		ldr	r1, [r3, #8]
 10680              	.LVL1460:
1053:../switch_sdk/core/yt/yt_port.c ****     CMM_PARAM_CHK((!(YT_DISPATCH(unit)->is_inited)), CMM_ERR_NOT_INIT);
 10681              		.loc 1 1053 5 discriminator 3 view .LVU3075
 10682 0066 1D48     		ldr	r0, .L1069+24
 10683              	.LVL1461:
1053:../switch_sdk/core/yt/yt_port.c ****     CMM_PARAM_CHK((!(YT_DISPATCH(unit)->is_inited)), CMM_ERR_NOT_INIT);
 10684              		.loc 1 1053 5 discriminator 3 view .LVU3076
 10685 0068 FFF7FEFF 		bl	osal_printf
 10686              	.LVL1462:
 10687 006c F5E7     		b	.L1051
 10688              	.LVL1463:
 10689              	.L1062:
1053:../switch_sdk/core/yt/yt_port.c ****     CMM_PARAM_CHK((!(YT_DISPATCH(unit)->is_inited)), CMM_ERR_NOT_INIT);
 10690              		.loc 1 1053 5 discriminator 3 view .LVU3077
 10691              	.LBE209:
1054:../switch_sdk/core/yt/yt_port.c ****     CMM_PARAM_CHK((!(CMM_PORT_VALID(unit, port))), CMM_ERR_PORT);
 10692              		.loc 1 1054 5 is_stmt 1 discriminator 1 view .LVU3078
1054:../switch_sdk/core/yt/yt_port.c ****     CMM_PARAM_CHK((!(CMM_PORT_VALID(unit, port))), CMM_ERR_PORT);
 10693              		.loc 1 1054 5 discriminator 1 view .LVU3079
 10694 006e 184B     		ldr	r3, .L1069+12
 10695 0070 1B78     		ldrb	r3, [r3]	@ zero_extendqisi2
 10696 0072 012B     		cmp	r3, #1
 10697 0074 01D8     		bhi	.L1066
 10698              	.LVL1464:
 10699              	.L1053:
1054:../switch_sdk/core/yt/yt_port.c ****     CMM_PARAM_CHK((!(CMM_PORT_VALID(unit, port))), CMM_ERR_PORT);
 10700              		.loc 1 1054 5 discriminator 5 view .LVU3080
1054:../switch_sdk/core/yt/yt_port.c ****     CMM_PARAM_CHK((!(CMM_PORT_VALID(unit, port))), CMM_ERR_PORT);
 10701              		.loc 1 1054 5 discriminator 5 view .LVU3081
1054:../switch_sdk/core/yt/yt_port.c ****     CMM_PARAM_CHK((!(CMM_PORT_VALID(unit, port))), CMM_ERR_PORT);
 10702              		.loc 1 1054 5 discriminator 5 view .LVU3082
 10703 0076 0420     		movs	r0, #4
 10704 0078 DCE7     		b	.L1046
 10705              	.LVL1465:
 10706              	.L1066:
1054:../switch_sdk/core/yt/yt_port.c ****     CMM_PARAM_CHK((!(CMM_PORT_VALID(unit, port))), CMM_ERR_PORT);
 10707              		.loc 1 1054 5 discriminator 3 view .LVU3083
 10708              	.LBB210:
1054:../switch_sdk/core/yt/yt_port.c ****     CMM_PARAM_CHK((!(CMM_PORT_VALID(unit, port))), CMM_ERR_PORT);
 10709              		.loc 1 1054 5 discriminator 3 view .LVU3084
 10710 007a 164B     		ldr	r3, .L1069+16
 10711 007c 1A69     		ldr	r2, [r3, #16]
 10712              	.LVL1466:
1054:../switch_sdk/core/yt/yt_port.c ****     CMM_PARAM_CHK((!(CMM_PORT_VALID(unit, port))), CMM_ERR_PORT);
 10713              		.loc 1 1054 5 is_stmt 0 discriminator 3 view .LVU3085
 10714 007e 164B     		ldr	r3, .L1069+20
 10715 0080 9968     		ldr	r1, [r3, #8]
 10716              	.LVL1467:
1054:../switch_sdk/core/yt/yt_port.c ****     CMM_PARAM_CHK((!(CMM_PORT_VALID(unit, port))), CMM_ERR_PORT);
 10717              		.loc 1 1054 5 discriminator 3 view .LVU3086
 10718 0082 1648     		ldr	r0, .L1069+24
 10719 0084 FFF7FEFF 		bl	osal_printf
 10720              	.LVL1468:
 10721 0088 F5E7     		b	.L1053
 10722              	.LVL1469:
 10723              	.L1054:
1054:../switch_sdk/core/yt/yt_port.c ****     CMM_PARAM_CHK((!(CMM_PORT_VALID(unit, port))), CMM_ERR_PORT);
 10724              		.loc 1 1054 5 discriminator 3 view .LVU3087
 10725              	.LBE210:
1055:../switch_sdk/core/yt/yt_port.c ****     CMM_PARAM_CHK((YT_ENABLE < state || YT_DISABLE > state), CMM_ERR_INPUT);
 10726              		.loc 1 1055 5 is_stmt 1 discriminator 3 view .LVU3088
1055:../switch_sdk/core/yt/yt_port.c ****     CMM_PARAM_CHK((YT_ENABLE < state || YT_DISABLE > state), CMM_ERR_INPUT);
 10727              		.loc 1 1055 5 discriminator 3 view .LVU3089
 10728 008a 114B     		ldr	r3, .L1069+12
 10729 008c 1B78     		ldrb	r3, [r3]	@ zero_extendqisi2
 10730 008e 012B     		cmp	r3, #1
 10731 0090 01D8     		bhi	.L1067
 10732              	.LVL1470:
 10733              	.L1056:
1055:../switch_sdk/core/yt/yt_port.c ****     CMM_PARAM_CHK((YT_ENABLE < state || YT_DISABLE > state), CMM_ERR_INPUT);
 10734              		.loc 1 1055 5 discriminator 7 view .LVU3090
1055:../switch_sdk/core/yt/yt_port.c ****     CMM_PARAM_CHK((YT_ENABLE < state || YT_DISABLE > state), CMM_ERR_INPUT);
 10735              		.loc 1 1055 5 discriminator 7 view .LVU3091
1055:../switch_sdk/core/yt/yt_port.c ****     CMM_PARAM_CHK((YT_ENABLE < state || YT_DISABLE > state), CMM_ERR_INPUT);
 10736              		.loc 1 1055 5 discriminator 7 view .LVU3092
 10737 0092 0E20     		movs	r0, #14
 10738 0094 CEE7     		b	.L1046
 10739              	.LVL1471:
 10740              	.L1067:
1055:../switch_sdk/core/yt/yt_port.c ****     CMM_PARAM_CHK((YT_ENABLE < state || YT_DISABLE > state), CMM_ERR_INPUT);
 10741              		.loc 1 1055 5 discriminator 5 view .LVU3093
 10742              	.LBB211:
1055:../switch_sdk/core/yt/yt_port.c ****     CMM_PARAM_CHK((YT_ENABLE < state || YT_DISABLE > state), CMM_ERR_INPUT);
 10743              		.loc 1 1055 5 discriminator 5 view .LVU3094
 10744 0096 0F4B     		ldr	r3, .L1069+16
 10745 0098 9A6B     		ldr	r2, [r3, #56]
 10746              	.LVL1472:
1055:../switch_sdk/core/yt/yt_port.c ****     CMM_PARAM_CHK((YT_ENABLE < state || YT_DISABLE > state), CMM_ERR_INPUT);
 10747              		.loc 1 1055 5 is_stmt 0 discriminator 5 view .LVU3095
 10748 009a 0F4B     		ldr	r3, .L1069+20
 10749 009c 9968     		ldr	r1, [r3, #8]
 10750              	.LVL1473:
1055:../switch_sdk/core/yt/yt_port.c ****     CMM_PARAM_CHK((YT_ENABLE < state || YT_DISABLE > state), CMM_ERR_INPUT);
 10751              		.loc 1 1055 5 discriminator 5 view .LVU3096
 10752 009e 0F48     		ldr	r0, .L1069+24
 10753 00a0 FFF7FEFF 		bl	osal_printf
 10754              	.LVL1474:
 10755 00a4 F5E7     		b	.L1056
 10756              	.LVL1475:
 10757              	.L1063:
1055:../switch_sdk/core/yt/yt_port.c ****     CMM_PARAM_CHK((YT_ENABLE < state || YT_DISABLE > state), CMM_ERR_INPUT);
 10758              		.loc 1 1055 5 discriminator 5 view .LVU3097
 10759              	.LBE211:
1056:../switch_sdk/core/yt/yt_port.c **** 
 10760              		.loc 1 1056 5 is_stmt 1 discriminator 1 view .LVU3098
1056:../switch_sdk/core/yt/yt_port.c **** 
 10761              		.loc 1 1056 5 discriminator 1 view .LVU3099
 10762 00a6 0A4B     		ldr	r3, .L1069+12
 10763 00a8 1B78     		ldrb	r3, [r3]	@ zero_extendqisi2
 10764 00aa 012B     		cmp	r3, #1
 10765 00ac 01D8     		bhi	.L1068
 10766              	.LVL1476:
 10767              	.L1058:
1056:../switch_sdk/core/yt/yt_port.c **** 
 10768              		.loc 1 1056 5 discriminator 5 view .LVU3100
1056:../switch_sdk/core/yt/yt_port.c **** 
 10769              		.loc 1 1056 5 discriminator 5 view .LVU3101
1056:../switch_sdk/core/yt/yt_port.c **** 
 10770              		.loc 1 1056 5 discriminator 5 view .LVU3102
 10771 00ae 0520     		movs	r0, #5
 10772 00b0 C0E7     		b	.L1046
 10773              	.LVL1477:
 10774              	.L1068:
1056:../switch_sdk/core/yt/yt_port.c **** 
 10775              		.loc 1 1056 5 discriminator 3 view .LVU3103
 10776              	.LBB212:
1056:../switch_sdk/core/yt/yt_port.c **** 
 10777              		.loc 1 1056 5 discriminator 3 view .LVU3104
 10778 00b2 084B     		ldr	r3, .L1069+16
 10779 00b4 5A69     		ldr	r2, [r3, #20]
 10780              	.LVL1478:
1056:../switch_sdk/core/yt/yt_port.c **** 
 10781              		.loc 1 1056 5 is_stmt 0 discriminator 3 view .LVU3105
 10782 00b6 084B     		ldr	r3, .L1069+20
 10783 00b8 9968     		ldr	r1, [r3, #8]
 10784              	.LVL1479:
1056:../switch_sdk/core/yt/yt_port.c **** 
 10785              		.loc 1 1056 5 discriminator 3 view .LVU3106
 10786 00ba 0848     		ldr	r0, .L1069+24
 10787 00bc FFF7FEFF 		bl	osal_printf
 10788              	.LVL1480:
 10789 00c0 F5E7     		b	.L1058
 10790              	.L1070:
 10791 00c2 00BF     		.align	2
 10792              	.L1069:
 10793 00c4 00000000 		.word	gpfal_dispatch
 10794 00c8 00000000 		.word	gcal_inited
 10795 00cc 00000000 		.word	gpSwitchUnit
 10796 00d0 00000000 		.word	yt_debug_level
 10797 00d4 00000000 		.word	_yt_errmsg
 10798 00d8 00000000 		.word	_yt_prompt_msg
 10799 00dc 00000000 		.word	.LC0
 10800              	.LBE212:
 10801              		.cfi_endproc
 10802              	.LFE47:
 10804              		.section	.text.yt_port_parallel_detection_get,"ax",%progbits
 10805              		.align	1
 10806              		.global	yt_port_parallel_detection_get
 10807              		.syntax unified
 10808              		.thumb
 10809              		.thumb_func
 10811              	yt_port_parallel_detection_get:
 10812              	.LVL1481:
 10813              	.LFB48:
1060:../switch_sdk/core/yt/yt_port.c **** 
1061:../switch_sdk/core/yt/yt_port.c **** /**
1062:../switch_sdk/core/yt/yt_port.c ****  * @internal      yt_port_parallel_detection_get
1063:../switch_sdk/core/yt/yt_port.c ****  * @endinternal
1064:../switch_sdk/core/yt/yt_port.c ****  *
1065:../switch_sdk/core/yt/yt_port.c ****  * @brief         get serdes parallel detection state
1066:../switch_sdk/core/yt/yt_port.c ****  * @note          APPLICABLE DEVICES  -Tiger
1067:../switch_sdk/core/yt/yt_port.c ****  * @param[in]     unit                -unit id
1068:../switch_sdk/core/yt/yt_port.c ****  * @param[in]     port                -port num
1069:../switch_sdk/core/yt/yt_port.c ****  * @param[out]    pState             -parallel detection state enable/disable
1070:../switch_sdk/core/yt/yt_port.c ****  * @retval        CMM_ERR_OK          -on success
1071:../switch_sdk/core/yt/yt_port.c ****  * @retval        CMM_ERR_FAIL        -on fail
1072:../switch_sdk/core/yt/yt_port.c ****  */
1073:../switch_sdk/core/yt/yt_port.c **** yt_ret_t yt_port_parallel_detection_get(yt_unit_t unit, yt_port_t port, yt_enable_t *pState)
1074:../switch_sdk/core/yt/yt_port.c **** {
 10814              		.loc 1 1074 1 is_stmt 1 view -0
 10815              		.cfi_startproc
 10816              		@ args = 0, pretend = 0, frame = 0
 10817              		@ frame_needed = 0, uses_anonymous_args = 0
 10818              		.loc 1 1074 1 is_stmt 0 view .LVU3108
 10819 0000 08B5     		push	{r3, lr}
 10820              		.cfi_def_cfa_offset 8
 10821              		.cfi_offset 3, -8
 10822              		.cfi_offset 14, -4
1075:../switch_sdk/core/yt/yt_port.c ****     CMM_PARAM_CHK((YT_UNIT_NUM <= unit), CMM_ERR_INPUT);
 10823              		.loc 1 1075 5 is_stmt 1 view .LVU3109
 10824              		.loc 1 1075 5 view .LVU3110
 10825 0002 C0B9     		cbnz	r0, .L1085
 10826 0004 8446     		mov	ip, r0
 10827              		.loc 1 1075 5 discriminator 2 view .LVU3111
1076:../switch_sdk/core/yt/yt_port.c ****     CMM_PARAM_CHK(NULL == YT_DISPATCH(unit), CMM_ERR_NOT_INIT);
 10828              		.loc 1 1076 5 discriminator 2 view .LVU3112
 10829              		.loc 1 1076 5 discriminator 2 view .LVU3113
 10830 0006 2F4B     		ldr	r3, .L1094
 10831 0008 53F82030 		ldr	r3, [r3, r0, lsl #2]
 10832 000c 0BB3     		cbz	r3, .L1086
 10833              		.loc 1 1076 5 discriminator 2 view .LVU3114
1077:../switch_sdk/core/yt/yt_port.c ****     CMM_PARAM_CHK((!(YT_DISPATCH(unit)->is_inited)), CMM_ERR_NOT_INIT);
 10834              		.loc 1 1077 5 discriminator 2 view .LVU3115
 10835              		.loc 1 1077 5 discriminator 2 view .LVU3116
 10836 000e 1878     		ldrb	r0, [r3]	@ zero_extendqisi2
 10837              	.LVL1482:
 10838              		.loc 1 1077 5 is_stmt 0 discriminator 2 view .LVU3117
 10839 0010 0028     		cmp	r0, #0
 10840 0012 2CD0     		beq	.L1087
 10841              		.loc 1 1077 5 is_stmt 1 discriminator 2 view .LVU3118
1078:../switch_sdk/core/yt/yt_port.c ****     CMM_PARAM_CHK((!(CMM_PORT_VALID(unit, port))), CMM_ERR_PORT);
 10842              		.loc 1 1078 5 discriminator 2 view .LVU3119
 10843              		.loc 1 1078 5 discriminator 2 view .LVU3120
 10844 0014 2C48     		ldr	r0, .L1094+4
 10845 0016 0078     		ldrb	r0, [r0]	@ zero_extendqisi2
 10846 0018 0028     		cmp	r0, #0
 10847 001a 36D0     		beq	.L1079
 10848 001c 2B48     		ldr	r0, .L1094+8
 10849 001e 50F82C00 		ldr	r0, [r0, ip, lsl #2]
 10850 0022 007D     		ldrb	r0, [r0, #20]	@ zero_extendqisi2
 10851 0024 8842     		cmp	r0, r1
 10852 0026 30D9     		bls	.L1079
 10853              		.loc 1 1078 5 discriminator 4 view .LVU3121
1079:../switch_sdk/core/yt/yt_port.c ****     CMM_PARAM_CHK((NULL == pState), CMM_ERR_NULL_POINT);
 10854              		.loc 1 1079 5 discriminator 4 view .LVU3122
 10855              		.loc 1 1079 5 discriminator 4 view .LVU3123
 10856 0028 002A     		cmp	r2, #0
 10857 002a 3CD0     		beq	.L1088
 10858              		.loc 1 1079 5 discriminator 2 view .LVU3124
1080:../switch_sdk/core/yt/yt_port.c **** 
1081:../switch_sdk/core/yt/yt_port.c ****     return YT_DISPATCH(unit)->port_parallel_detection_get(unit, port, pState);
 10859              		.loc 1 1081 5 discriminator 2 view .LVU3125
 10860              		.loc 1 1081 29 is_stmt 0 discriminator 2 view .LVU3126
 10861 002c D3F80C36 		ldr	r3, [r3, #1548]
 10862              		.loc 1 1081 12 discriminator 2 view .LVU3127
 10863 0030 6046     		mov	r0, ip
 10864 0032 9847     		blx	r3
 10865              	.LVL1483:
 10866              	.L1071:
1082:../switch_sdk/core/yt/yt_port.c **** }
 10867              		.loc 1 1082 1 view .LVU3128
 10868 0034 08BD     		pop	{r3, pc}
 10869              	.LVL1484:
 10870              	.L1085:
1075:../switch_sdk/core/yt/yt_port.c ****     CMM_PARAM_CHK(NULL == YT_DISPATCH(unit), CMM_ERR_NOT_INIT);
 10871              		.loc 1 1075 5 is_stmt 1 discriminator 1 view .LVU3129
1075:../switch_sdk/core/yt/yt_port.c ****     CMM_PARAM_CHK(NULL == YT_DISPATCH(unit), CMM_ERR_NOT_INIT);
 10872              		.loc 1 1075 5 discriminator 1 view .LVU3130
 10873 0036 264B     		ldr	r3, .L1094+12
 10874 0038 1B78     		ldrb	r3, [r3]	@ zero_extendqisi2
 10875 003a 012B     		cmp	r3, #1
 10876 003c 01D8     		bhi	.L1089
 10877              	.LVL1485:
 10878              	.L1073:
1075:../switch_sdk/core/yt/yt_port.c ****     CMM_PARAM_CHK(NULL == YT_DISPATCH(unit), CMM_ERR_NOT_INIT);
 10879              		.loc 1 1075 5 discriminator 5 view .LVU3131
1075:../switch_sdk/core/yt/yt_port.c ****     CMM_PARAM_CHK(NULL == YT_DISPATCH(unit), CMM_ERR_NOT_INIT);
 10880              		.loc 1 1075 5 discriminator 5 view .LVU3132
1075:../switch_sdk/core/yt/yt_port.c ****     CMM_PARAM_CHK(NULL == YT_DISPATCH(unit), CMM_ERR_NOT_INIT);
 10881              		.loc 1 1075 5 discriminator 5 view .LVU3133
 10882 003e 0520     		movs	r0, #5
 10883 0040 F8E7     		b	.L1071
 10884              	.LVL1486:
 10885              	.L1089:
1075:../switch_sdk/core/yt/yt_port.c ****     CMM_PARAM_CHK(NULL == YT_DISPATCH(unit), CMM_ERR_NOT_INIT);
 10886              		.loc 1 1075 5 discriminator 3 view .LVU3134
 10887              	.LBB213:
1075:../switch_sdk/core/yt/yt_port.c ****     CMM_PARAM_CHK(NULL == YT_DISPATCH(unit), CMM_ERR_NOT_INIT);
 10888              		.loc 1 1075 5 discriminator 3 view .LVU3135
 10889 0042 244B     		ldr	r3, .L1094+16
 10890 0044 5A69     		ldr	r2, [r3, #20]
 10891              	.LVL1487:
1075:../switch_sdk/core/yt/yt_port.c ****     CMM_PARAM_CHK(NULL == YT_DISPATCH(unit), CMM_ERR_NOT_INIT);
 10892              		.loc 1 1075 5 is_stmt 0 discriminator 3 view .LVU3136
 10893 0046 244B     		ldr	r3, .L1094+20
 10894 0048 9968     		ldr	r1, [r3, #8]
 10895              	.LVL1488:
1075:../switch_sdk/core/yt/yt_port.c ****     CMM_PARAM_CHK(NULL == YT_DISPATCH(unit), CMM_ERR_NOT_INIT);
 10896              		.loc 1 1075 5 discriminator 3 view .LVU3137
 10897 004a 2448     		ldr	r0, .L1094+24
 10898              	.LVL1489:
1075:../switch_sdk/core/yt/yt_port.c ****     CMM_PARAM_CHK(NULL == YT_DISPATCH(unit), CMM_ERR_NOT_INIT);
 10899              		.loc 1 1075 5 discriminator 3 view .LVU3138
 10900 004c FFF7FEFF 		bl	osal_printf
 10901              	.LVL1490:
 10902 0050 F5E7     		b	.L1073
 10903              	.LVL1491:
 10904              	.L1086:
1075:../switch_sdk/core/yt/yt_port.c ****     CMM_PARAM_CHK(NULL == YT_DISPATCH(unit), CMM_ERR_NOT_INIT);
 10905              		.loc 1 1075 5 discriminator 3 view .LVU3139
 10906              	.LBE213:
1076:../switch_sdk/core/yt/yt_port.c ****     CMM_PARAM_CHK((!(YT_DISPATCH(unit)->is_inited)), CMM_ERR_NOT_INIT);
 10907              		.loc 1 1076 5 is_stmt 1 discriminator 1 view .LVU3140
1076:../switch_sdk/core/yt/yt_port.c ****     CMM_PARAM_CHK((!(YT_DISPATCH(unit)->is_inited)), CMM_ERR_NOT_INIT);
 10908              		.loc 1 1076 5 discriminator 1 view .LVU3141
 10909 0052 1F4B     		ldr	r3, .L1094+12
 10910 0054 1B78     		ldrb	r3, [r3]	@ zero_extendqisi2
 10911 0056 012B     		cmp	r3, #1
 10912 0058 01D8     		bhi	.L1090
 10913              	.LVL1492:
 10914              	.L1076:
1076:../switch_sdk/core/yt/yt_port.c ****     CMM_PARAM_CHK((!(YT_DISPATCH(unit)->is_inited)), CMM_ERR_NOT_INIT);
 10915              		.loc 1 1076 5 discriminator 5 view .LVU3142
1076:../switch_sdk/core/yt/yt_port.c ****     CMM_PARAM_CHK((!(YT_DISPATCH(unit)->is_inited)), CMM_ERR_NOT_INIT);
 10916              		.loc 1 1076 5 discriminator 5 view .LVU3143
1076:../switch_sdk/core/yt/yt_port.c ****     CMM_PARAM_CHK((!(YT_DISPATCH(unit)->is_inited)), CMM_ERR_NOT_INIT);
 10917              		.loc 1 1076 5 discriminator 5 view .LVU3144
 10918 005a 0420     		movs	r0, #4
 10919 005c EAE7     		b	.L1071
 10920              	.LVL1493:
 10921              	.L1090:
1076:../switch_sdk/core/yt/yt_port.c ****     CMM_PARAM_CHK((!(YT_DISPATCH(unit)->is_inited)), CMM_ERR_NOT_INIT);
 10922              		.loc 1 1076 5 discriminator 3 view .LVU3145
 10923              	.LBB214:
1076:../switch_sdk/core/yt/yt_port.c ****     CMM_PARAM_CHK((!(YT_DISPATCH(unit)->is_inited)), CMM_ERR_NOT_INIT);
 10924              		.loc 1 1076 5 discriminator 3 view .LVU3146
 10925 005e 1D4B     		ldr	r3, .L1094+16
 10926 0060 1A69     		ldr	r2, [r3, #16]
 10927              	.LVL1494:
1076:../switch_sdk/core/yt/yt_port.c ****     CMM_PARAM_CHK((!(YT_DISPATCH(unit)->is_inited)), CMM_ERR_NOT_INIT);
 10928              		.loc 1 1076 5 is_stmt 0 discriminator 3 view .LVU3147
 10929 0062 1D4B     		ldr	r3, .L1094+20
 10930 0064 9968     		ldr	r1, [r3, #8]
 10931              	.LVL1495:
1076:../switch_sdk/core/yt/yt_port.c ****     CMM_PARAM_CHK((!(YT_DISPATCH(unit)->is_inited)), CMM_ERR_NOT_INIT);
 10932              		.loc 1 1076 5 discriminator 3 view .LVU3148
 10933 0066 1D48     		ldr	r0, .L1094+24
 10934              	.LVL1496:
1076:../switch_sdk/core/yt/yt_port.c ****     CMM_PARAM_CHK((!(YT_DISPATCH(unit)->is_inited)), CMM_ERR_NOT_INIT);
 10935              		.loc 1 1076 5 discriminator 3 view .LVU3149
 10936 0068 FFF7FEFF 		bl	osal_printf
 10937              	.LVL1497:
 10938 006c F5E7     		b	.L1076
 10939              	.LVL1498:
 10940              	.L1087:
1076:../switch_sdk/core/yt/yt_port.c ****     CMM_PARAM_CHK((!(YT_DISPATCH(unit)->is_inited)), CMM_ERR_NOT_INIT);
 10941              		.loc 1 1076 5 discriminator 3 view .LVU3150
 10942              	.LBE214:
1077:../switch_sdk/core/yt/yt_port.c ****     CMM_PARAM_CHK((!(CMM_PORT_VALID(unit, port))), CMM_ERR_PORT);
 10943              		.loc 1 1077 5 is_stmt 1 discriminator 1 view .LVU3151
1077:../switch_sdk/core/yt/yt_port.c ****     CMM_PARAM_CHK((!(CMM_PORT_VALID(unit, port))), CMM_ERR_PORT);
 10944              		.loc 1 1077 5 discriminator 1 view .LVU3152
 10945 006e 184B     		ldr	r3, .L1094+12
 10946 0070 1B78     		ldrb	r3, [r3]	@ zero_extendqisi2
 10947 0072 012B     		cmp	r3, #1
 10948 0074 01D8     		bhi	.L1091
 10949              	.LVL1499:
 10950              	.L1078:
1077:../switch_sdk/core/yt/yt_port.c ****     CMM_PARAM_CHK((!(CMM_PORT_VALID(unit, port))), CMM_ERR_PORT);
 10951              		.loc 1 1077 5 discriminator 5 view .LVU3153
1077:../switch_sdk/core/yt/yt_port.c ****     CMM_PARAM_CHK((!(CMM_PORT_VALID(unit, port))), CMM_ERR_PORT);
 10952              		.loc 1 1077 5 discriminator 5 view .LVU3154
1077:../switch_sdk/core/yt/yt_port.c ****     CMM_PARAM_CHK((!(CMM_PORT_VALID(unit, port))), CMM_ERR_PORT);
 10953              		.loc 1 1077 5 discriminator 5 view .LVU3155
 10954 0076 0420     		movs	r0, #4
 10955 0078 DCE7     		b	.L1071
 10956              	.LVL1500:
 10957              	.L1091:
1077:../switch_sdk/core/yt/yt_port.c ****     CMM_PARAM_CHK((!(CMM_PORT_VALID(unit, port))), CMM_ERR_PORT);
 10958              		.loc 1 1077 5 discriminator 3 view .LVU3156
 10959              	.LBB215:
1077:../switch_sdk/core/yt/yt_port.c ****     CMM_PARAM_CHK((!(CMM_PORT_VALID(unit, port))), CMM_ERR_PORT);
 10960              		.loc 1 1077 5 discriminator 3 view .LVU3157
 10961 007a 164B     		ldr	r3, .L1094+16
 10962 007c 1A69     		ldr	r2, [r3, #16]
 10963              	.LVL1501:
1077:../switch_sdk/core/yt/yt_port.c ****     CMM_PARAM_CHK((!(CMM_PORT_VALID(unit, port))), CMM_ERR_PORT);
 10964              		.loc 1 1077 5 is_stmt 0 discriminator 3 view .LVU3158
 10965 007e 164B     		ldr	r3, .L1094+20
 10966 0080 9968     		ldr	r1, [r3, #8]
 10967              	.LVL1502:
1077:../switch_sdk/core/yt/yt_port.c ****     CMM_PARAM_CHK((!(CMM_PORT_VALID(unit, port))), CMM_ERR_PORT);
 10968              		.loc 1 1077 5 discriminator 3 view .LVU3159
 10969 0082 1648     		ldr	r0, .L1094+24
 10970 0084 FFF7FEFF 		bl	osal_printf
 10971              	.LVL1503:
 10972 0088 F5E7     		b	.L1078
 10973              	.LVL1504:
 10974              	.L1079:
1077:../switch_sdk/core/yt/yt_port.c ****     CMM_PARAM_CHK((!(CMM_PORT_VALID(unit, port))), CMM_ERR_PORT);
 10975              		.loc 1 1077 5 discriminator 3 view .LVU3160
 10976              	.LBE215:
1078:../switch_sdk/core/yt/yt_port.c ****     CMM_PARAM_CHK((NULL == pState), CMM_ERR_NULL_POINT);
 10977              		.loc 1 1078 5 is_stmt 1 discriminator 3 view .LVU3161
1078:../switch_sdk/core/yt/yt_port.c ****     CMM_PARAM_CHK((NULL == pState), CMM_ERR_NULL_POINT);
 10978              		.loc 1 1078 5 discriminator 3 view .LVU3162
 10979 008a 114B     		ldr	r3, .L1094+12
 10980 008c 1B78     		ldrb	r3, [r3]	@ zero_extendqisi2
 10981 008e 012B     		cmp	r3, #1
 10982 0090 01D8     		bhi	.L1092
 10983              	.LVL1505:
 10984              	.L1081:
1078:../switch_sdk/core/yt/yt_port.c ****     CMM_PARAM_CHK((NULL == pState), CMM_ERR_NULL_POINT);
 10985              		.loc 1 1078 5 discriminator 7 view .LVU3163
1078:../switch_sdk/core/yt/yt_port.c ****     CMM_PARAM_CHK((NULL == pState), CMM_ERR_NULL_POINT);
 10986              		.loc 1 1078 5 discriminator 7 view .LVU3164
1078:../switch_sdk/core/yt/yt_port.c ****     CMM_PARAM_CHK((NULL == pState), CMM_ERR_NULL_POINT);
 10987              		.loc 1 1078 5 discriminator 7 view .LVU3165
 10988 0092 0E20     		movs	r0, #14
 10989 0094 CEE7     		b	.L1071
 10990              	.LVL1506:
 10991              	.L1092:
1078:../switch_sdk/core/yt/yt_port.c ****     CMM_PARAM_CHK((NULL == pState), CMM_ERR_NULL_POINT);
 10992              		.loc 1 1078 5 discriminator 5 view .LVU3166
 10993              	.LBB216:
1078:../switch_sdk/core/yt/yt_port.c ****     CMM_PARAM_CHK((NULL == pState), CMM_ERR_NULL_POINT);
 10994              		.loc 1 1078 5 discriminator 5 view .LVU3167
 10995 0096 0F4B     		ldr	r3, .L1094+16
 10996 0098 9A6B     		ldr	r2, [r3, #56]
 10997              	.LVL1507:
1078:../switch_sdk/core/yt/yt_port.c ****     CMM_PARAM_CHK((NULL == pState), CMM_ERR_NULL_POINT);
 10998              		.loc 1 1078 5 is_stmt 0 discriminator 5 view .LVU3168
 10999 009a 0F4B     		ldr	r3, .L1094+20
 11000 009c 9968     		ldr	r1, [r3, #8]
 11001              	.LVL1508:
1078:../switch_sdk/core/yt/yt_port.c ****     CMM_PARAM_CHK((NULL == pState), CMM_ERR_NULL_POINT);
 11002              		.loc 1 1078 5 discriminator 5 view .LVU3169
 11003 009e 0F48     		ldr	r0, .L1094+24
 11004 00a0 FFF7FEFF 		bl	osal_printf
 11005              	.LVL1509:
 11006 00a4 F5E7     		b	.L1081
 11007              	.LVL1510:
 11008              	.L1088:
1078:../switch_sdk/core/yt/yt_port.c ****     CMM_PARAM_CHK((NULL == pState), CMM_ERR_NULL_POINT);
 11009              		.loc 1 1078 5 discriminator 5 view .LVU3170
 11010              	.LBE216:
1079:../switch_sdk/core/yt/yt_port.c **** 
 11011              		.loc 1 1079 5 is_stmt 1 discriminator 1 view .LVU3171
1079:../switch_sdk/core/yt/yt_port.c **** 
 11012              		.loc 1 1079 5 discriminator 1 view .LVU3172
 11013 00a6 0A4B     		ldr	r3, .L1094+12
 11014 00a8 1B78     		ldrb	r3, [r3]	@ zero_extendqisi2
 11015 00aa 012B     		cmp	r3, #1
 11016 00ac 01D8     		bhi	.L1093
 11017              	.LVL1511:
 11018              	.L1083:
1079:../switch_sdk/core/yt/yt_port.c **** 
 11019              		.loc 1 1079 5 discriminator 5 view .LVU3173
1079:../switch_sdk/core/yt/yt_port.c **** 
 11020              		.loc 1 1079 5 discriminator 5 view .LVU3174
1079:../switch_sdk/core/yt/yt_port.c **** 
 11021              		.loc 1 1079 5 discriminator 5 view .LVU3175
 11022 00ae 0220     		movs	r0, #2
 11023 00b0 C0E7     		b	.L1071
 11024              	.LVL1512:
 11025              	.L1093:
1079:../switch_sdk/core/yt/yt_port.c **** 
 11026              		.loc 1 1079 5 discriminator 3 view .LVU3176
 11027              	.LBB217:
1079:../switch_sdk/core/yt/yt_port.c **** 
 11028              		.loc 1 1079 5 discriminator 3 view .LVU3177
 11029 00b2 084B     		ldr	r3, .L1094+16
 11030 00b4 9A68     		ldr	r2, [r3, #8]
 11031              	.LVL1513:
1079:../switch_sdk/core/yt/yt_port.c **** 
 11032              		.loc 1 1079 5 is_stmt 0 discriminator 3 view .LVU3178
 11033 00b6 084B     		ldr	r3, .L1094+20
 11034 00b8 9968     		ldr	r1, [r3, #8]
 11035              	.LVL1514:
1079:../switch_sdk/core/yt/yt_port.c **** 
 11036              		.loc 1 1079 5 discriminator 3 view .LVU3179
 11037 00ba 0848     		ldr	r0, .L1094+24
 11038 00bc FFF7FEFF 		bl	osal_printf
 11039              	.LVL1515:
 11040 00c0 F5E7     		b	.L1083
 11041              	.L1095:
 11042 00c2 00BF     		.align	2
 11043              	.L1094:
 11044 00c4 00000000 		.word	gpfal_dispatch
 11045 00c8 00000000 		.word	gcal_inited
 11046 00cc 00000000 		.word	gpSwitchUnit
 11047 00d0 00000000 		.word	yt_debug_level
 11048 00d4 00000000 		.word	_yt_errmsg
 11049 00d8 00000000 		.word	_yt_prompt_msg
 11050 00dc 00000000 		.word	.LC0
 11051              	.LBE217:
 11052              		.cfi_endproc
 11053              	.LFE48:
 11055              		.section	.text.yt_port_dvddio_power_level_set,"ax",%progbits
 11056              		.align	1
 11057              		.global	yt_port_dvddio_power_level_set
 11058              		.syntax unified
 11059              		.thumb
 11060              		.thumb_func
 11062              	yt_port_dvddio_power_level_set:
 11063              	.LVL1516:
 11064              	.LFB49:
1083:../switch_sdk/core/yt/yt_port.c **** 
1084:../switch_sdk/core/yt/yt_port.c **** /**
1085:../switch_sdk/core/yt/yt_port.c ****  * @internal      yt_port_dvddio_power_level_set
1086:../switch_sdk/core/yt/yt_port.c ****  * @endinternal
1087:../switch_sdk/core/yt/yt_port.c ****  *
1088:../switch_sdk/core/yt/yt_port.c ****  * @brief         set dvddio power level
1089:../switch_sdk/core/yt/yt_port.c ****  * @note          APPLICABLE DEVICES  -Tiger
1090:../switch_sdk/core/yt/yt_port.c ****  * @param[in]     unit                -unit id
1091:../switch_sdk/core/yt/yt_port.c ****  * @param[in]     powePad                -powerpad
1092:../switch_sdk/core/yt/yt_port.c ****  * @param[out]    powerLevel             -1.8v,2.5v,3.3v
1093:../switch_sdk/core/yt/yt_port.c ****  * @retval        CMM_ERR_OK          -on success
1094:../switch_sdk/core/yt/yt_port.c ****  * @retval        CMM_ERR_FAIL        -on fail
1095:../switch_sdk/core/yt/yt_port.c ****  */
1096:../switch_sdk/core/yt/yt_port.c **** yt_ret_t yt_port_dvddio_power_level_set(yt_unit_t unit, yt_dvddio_power_pad_t powePad, yt_dvddio_po
1097:../switch_sdk/core/yt/yt_port.c **** {
 11065              		.loc 1 1097 1 is_stmt 1 view -0
 11066              		.cfi_startproc
 11067              		@ args = 0, pretend = 0, frame = 0
 11068              		@ frame_needed = 0, uses_anonymous_args = 0
 11069              		.loc 1 1097 1 is_stmt 0 view .LVU3181
 11070 0000 08B5     		push	{r3, lr}
 11071              		.cfi_def_cfa_offset 8
 11072              		.cfi_offset 3, -8
 11073              		.cfi_offset 14, -4
1098:../switch_sdk/core/yt/yt_port.c ****     CMM_PARAM_CHK((YT_UNIT_NUM <= unit), CMM_ERR_INPUT);
 11074              		.loc 1 1098 5 is_stmt 1 view .LVU3182
 11075              		.loc 1 1098 5 view .LVU3183
 11076 0002 78B9     		cbnz	r0, .L1109
 11077 0004 8446     		mov	ip, r0
 11078              		.loc 1 1098 5 discriminator 2 view .LVU3184
1099:../switch_sdk/core/yt/yt_port.c ****     CMM_PARAM_CHK(NULL == YT_DISPATCH(unit), CMM_ERR_NOT_INIT);
 11079              		.loc 1 1099 5 discriminator 2 view .LVU3185
 11080              		.loc 1 1099 5 discriminator 2 view .LVU3186
 11081 0006 2A4B     		ldr	r3, .L1119
 11082 0008 53F82030 		ldr	r3, [r3, r0, lsl #2]
 11083 000c C3B1     		cbz	r3, .L1110
 11084              		.loc 1 1099 5 discriminator 2 view .LVU3187
1100:../switch_sdk/core/yt/yt_port.c ****     CMM_PARAM_CHK((!(YT_DISPATCH(unit)->is_inited)), CMM_ERR_NOT_INIT);
 11085              		.loc 1 1100 5 discriminator 2 view .LVU3188
 11086              		.loc 1 1100 5 discriminator 2 view .LVU3189
 11087 000e 1878     		ldrb	r0, [r3]	@ zero_extendqisi2
 11088              	.LVL1517:
 11089              		.loc 1 1100 5 is_stmt 0 discriminator 2 view .LVU3190
 11090 0010 20B3     		cbz	r0, .L1111
 11091              		.loc 1 1100 5 is_stmt 1 discriminator 2 view .LVU3191
1101:../switch_sdk/core/yt/yt_port.c ****     CMM_PARAM_CHK((2 < powePad), CMM_ERR_INPUT);
 11092              		.loc 1 1101 5 discriminator 2 view .LVU3192
 11093              		.loc 1 1101 5 discriminator 2 view .LVU3193
 11094 0012 0229     		cmp	r1, #2
 11095 0014 30D8     		bhi	.L1112
 11096              		.loc 1 1101 5 discriminator 2 view .LVU3194
1102:../switch_sdk/core/yt/yt_port.c ****     CMM_PARAM_CHK((POWER33V < powerLevel || POWER18V > powerLevel), CMM_ERR_INPUT);
 11097              		.loc 1 1102 5 discriminator 2 view .LVU3195
 11098              		.loc 1 1102 5 discriminator 2 view .LVU3196
 11099 0016 022A     		cmp	r2, #2
 11100 0018 3CD8     		bhi	.L1113
 11101              		.loc 1 1102 5 discriminator 2 view .LVU3197
1103:../switch_sdk/core/yt/yt_port.c **** 
1104:../switch_sdk/core/yt/yt_port.c ****     return YT_DISPATCH(unit)->port_dvddio_power_level_set(unit, powePad, powerLevel);
 11102              		.loc 1 1104 5 discriminator 2 view .LVU3198
 11103              		.loc 1 1104 29 is_stmt 0 discriminator 2 view .LVU3199
 11104 001a D3F81036 		ldr	r3, [r3, #1552]
 11105              		.loc 1 1104 12 discriminator 2 view .LVU3200
 11106 001e 6046     		mov	r0, ip
 11107 0020 9847     		blx	r3
 11108              	.LVL1518:
 11109              	.L1096:
1105:../switch_sdk/core/yt/yt_port.c **** }
 11110              		.loc 1 1105 1 view .LVU3201
 11111 0022 08BD     		pop	{r3, pc}
 11112              	.LVL1519:
 11113              	.L1109:
1098:../switch_sdk/core/yt/yt_port.c ****     CMM_PARAM_CHK(NULL == YT_DISPATCH(unit), CMM_ERR_NOT_INIT);
 11114              		.loc 1 1098 5 is_stmt 1 discriminator 1 view .LVU3202
1098:../switch_sdk/core/yt/yt_port.c ****     CMM_PARAM_CHK(NULL == YT_DISPATCH(unit), CMM_ERR_NOT_INIT);
 11115              		.loc 1 1098 5 discriminator 1 view .LVU3203
 11116 0024 234B     		ldr	r3, .L1119+4
 11117 0026 1B78     		ldrb	r3, [r3]	@ zero_extendqisi2
 11118 0028 012B     		cmp	r3, #1
 11119 002a 01D8     		bhi	.L1114
 11120              	.LVL1520:
 11121              	.L1098:
1098:../switch_sdk/core/yt/yt_port.c ****     CMM_PARAM_CHK(NULL == YT_DISPATCH(unit), CMM_ERR_NOT_INIT);
 11122              		.loc 1 1098 5 discriminator 5 view .LVU3204
1098:../switch_sdk/core/yt/yt_port.c ****     CMM_PARAM_CHK(NULL == YT_DISPATCH(unit), CMM_ERR_NOT_INIT);
 11123              		.loc 1 1098 5 discriminator 5 view .LVU3205
1098:../switch_sdk/core/yt/yt_port.c ****     CMM_PARAM_CHK(NULL == YT_DISPATCH(unit), CMM_ERR_NOT_INIT);
 11124              		.loc 1 1098 5 discriminator 5 view .LVU3206
 11125 002c 0520     		movs	r0, #5
 11126 002e F8E7     		b	.L1096
 11127              	.LVL1521:
 11128              	.L1114:
1098:../switch_sdk/core/yt/yt_port.c ****     CMM_PARAM_CHK(NULL == YT_DISPATCH(unit), CMM_ERR_NOT_INIT);
 11129              		.loc 1 1098 5 discriminator 3 view .LVU3207
 11130              	.LBB218:
1098:../switch_sdk/core/yt/yt_port.c ****     CMM_PARAM_CHK(NULL == YT_DISPATCH(unit), CMM_ERR_NOT_INIT);
 11131              		.loc 1 1098 5 discriminator 3 view .LVU3208
 11132 0030 214B     		ldr	r3, .L1119+8
 11133 0032 5A69     		ldr	r2, [r3, #20]
 11134              	.LVL1522:
1098:../switch_sdk/core/yt/yt_port.c ****     CMM_PARAM_CHK(NULL == YT_DISPATCH(unit), CMM_ERR_NOT_INIT);
 11135              		.loc 1 1098 5 is_stmt 0 discriminator 3 view .LVU3209
 11136 0034 214B     		ldr	r3, .L1119+12
 11137 0036 9968     		ldr	r1, [r3, #8]
 11138              	.LVL1523:
1098:../switch_sdk/core/yt/yt_port.c ****     CMM_PARAM_CHK(NULL == YT_DISPATCH(unit), CMM_ERR_NOT_INIT);
 11139              		.loc 1 1098 5 discriminator 3 view .LVU3210
 11140 0038 2148     		ldr	r0, .L1119+16
 11141              	.LVL1524:
1098:../switch_sdk/core/yt/yt_port.c ****     CMM_PARAM_CHK(NULL == YT_DISPATCH(unit), CMM_ERR_NOT_INIT);
 11142              		.loc 1 1098 5 discriminator 3 view .LVU3211
 11143 003a FFF7FEFF 		bl	osal_printf
 11144              	.LVL1525:
 11145 003e F5E7     		b	.L1098
 11146              	.LVL1526:
 11147              	.L1110:
1098:../switch_sdk/core/yt/yt_port.c ****     CMM_PARAM_CHK(NULL == YT_DISPATCH(unit), CMM_ERR_NOT_INIT);
 11148              		.loc 1 1098 5 discriminator 3 view .LVU3212
 11149              	.LBE218:
1099:../switch_sdk/core/yt/yt_port.c ****     CMM_PARAM_CHK((!(YT_DISPATCH(unit)->is_inited)), CMM_ERR_NOT_INIT);
 11150              		.loc 1 1099 5 is_stmt 1 discriminator 1 view .LVU3213
1099:../switch_sdk/core/yt/yt_port.c ****     CMM_PARAM_CHK((!(YT_DISPATCH(unit)->is_inited)), CMM_ERR_NOT_INIT);
 11151              		.loc 1 1099 5 discriminator 1 view .LVU3214
 11152 0040 1C4B     		ldr	r3, .L1119+4
 11153 0042 1B78     		ldrb	r3, [r3]	@ zero_extendqisi2
 11154 0044 012B     		cmp	r3, #1
 11155 0046 01D8     		bhi	.L1115
 11156              	.LVL1527:
 11157              	.L1101:
1099:../switch_sdk/core/yt/yt_port.c ****     CMM_PARAM_CHK((!(YT_DISPATCH(unit)->is_inited)), CMM_ERR_NOT_INIT);
 11158              		.loc 1 1099 5 discriminator 5 view .LVU3215
1099:../switch_sdk/core/yt/yt_port.c ****     CMM_PARAM_CHK((!(YT_DISPATCH(unit)->is_inited)), CMM_ERR_NOT_INIT);
 11159              		.loc 1 1099 5 discriminator 5 view .LVU3216
1099:../switch_sdk/core/yt/yt_port.c ****     CMM_PARAM_CHK((!(YT_DISPATCH(unit)->is_inited)), CMM_ERR_NOT_INIT);
 11160              		.loc 1 1099 5 discriminator 5 view .LVU3217
 11161 0048 0420     		movs	r0, #4
 11162 004a EAE7     		b	.L1096
 11163              	.LVL1528:
 11164              	.L1115:
1099:../switch_sdk/core/yt/yt_port.c ****     CMM_PARAM_CHK((!(YT_DISPATCH(unit)->is_inited)), CMM_ERR_NOT_INIT);
 11165              		.loc 1 1099 5 discriminator 3 view .LVU3218
 11166              	.LBB219:
1099:../switch_sdk/core/yt/yt_port.c ****     CMM_PARAM_CHK((!(YT_DISPATCH(unit)->is_inited)), CMM_ERR_NOT_INIT);
 11167              		.loc 1 1099 5 discriminator 3 view .LVU3219
 11168 004c 1A4B     		ldr	r3, .L1119+8
 11169 004e 1A69     		ldr	r2, [r3, #16]
 11170              	.LVL1529:
1099:../switch_sdk/core/yt/yt_port.c ****     CMM_PARAM_CHK((!(YT_DISPATCH(unit)->is_inited)), CMM_ERR_NOT_INIT);
 11171              		.loc 1 1099 5 is_stmt 0 discriminator 3 view .LVU3220
 11172 0050 1A4B     		ldr	r3, .L1119+12
 11173 0052 9968     		ldr	r1, [r3, #8]
 11174              	.LVL1530:
1099:../switch_sdk/core/yt/yt_port.c ****     CMM_PARAM_CHK((!(YT_DISPATCH(unit)->is_inited)), CMM_ERR_NOT_INIT);
 11175              		.loc 1 1099 5 discriminator 3 view .LVU3221
 11176 0054 1A48     		ldr	r0, .L1119+16
 11177              	.LVL1531:
1099:../switch_sdk/core/yt/yt_port.c ****     CMM_PARAM_CHK((!(YT_DISPATCH(unit)->is_inited)), CMM_ERR_NOT_INIT);
 11178              		.loc 1 1099 5 discriminator 3 view .LVU3222
 11179 0056 FFF7FEFF 		bl	osal_printf
 11180              	.LVL1532:
 11181 005a F5E7     		b	.L1101
 11182              	.LVL1533:
 11183              	.L1111:
1099:../switch_sdk/core/yt/yt_port.c ****     CMM_PARAM_CHK((!(YT_DISPATCH(unit)->is_inited)), CMM_ERR_NOT_INIT);
 11184              		.loc 1 1099 5 discriminator 3 view .LVU3223
 11185              	.LBE219:
1100:../switch_sdk/core/yt/yt_port.c ****     CMM_PARAM_CHK((2 < powePad), CMM_ERR_INPUT);
 11186              		.loc 1 1100 5 is_stmt 1 discriminator 1 view .LVU3224
1100:../switch_sdk/core/yt/yt_port.c ****     CMM_PARAM_CHK((2 < powePad), CMM_ERR_INPUT);
 11187              		.loc 1 1100 5 discriminator 1 view .LVU3225
 11188 005c 154B     		ldr	r3, .L1119+4
 11189 005e 1B78     		ldrb	r3, [r3]	@ zero_extendqisi2
 11190 0060 012B     		cmp	r3, #1
 11191 0062 01D8     		bhi	.L1116
 11192              	.LVL1534:
 11193              	.L1103:
1100:../switch_sdk/core/yt/yt_port.c ****     CMM_PARAM_CHK((2 < powePad), CMM_ERR_INPUT);
 11194              		.loc 1 1100 5 discriminator 5 view .LVU3226
1100:../switch_sdk/core/yt/yt_port.c ****     CMM_PARAM_CHK((2 < powePad), CMM_ERR_INPUT);
 11195              		.loc 1 1100 5 discriminator 5 view .LVU3227
1100:../switch_sdk/core/yt/yt_port.c ****     CMM_PARAM_CHK((2 < powePad), CMM_ERR_INPUT);
 11196              		.loc 1 1100 5 discriminator 5 view .LVU3228
 11197 0064 0420     		movs	r0, #4
 11198 0066 DCE7     		b	.L1096
 11199              	.LVL1535:
 11200              	.L1116:
1100:../switch_sdk/core/yt/yt_port.c ****     CMM_PARAM_CHK((2 < powePad), CMM_ERR_INPUT);
 11201              		.loc 1 1100 5 discriminator 3 view .LVU3229
 11202              	.LBB220:
1100:../switch_sdk/core/yt/yt_port.c ****     CMM_PARAM_CHK((2 < powePad), CMM_ERR_INPUT);
 11203              		.loc 1 1100 5 discriminator 3 view .LVU3230
 11204 0068 134B     		ldr	r3, .L1119+8
 11205 006a 1A69     		ldr	r2, [r3, #16]
 11206              	.LVL1536:
1100:../switch_sdk/core/yt/yt_port.c ****     CMM_PARAM_CHK((2 < powePad), CMM_ERR_INPUT);
 11207              		.loc 1 1100 5 is_stmt 0 discriminator 3 view .LVU3231
 11208 006c 134B     		ldr	r3, .L1119+12
 11209 006e 9968     		ldr	r1, [r3, #8]
 11210              	.LVL1537:
1100:../switch_sdk/core/yt/yt_port.c ****     CMM_PARAM_CHK((2 < powePad), CMM_ERR_INPUT);
 11211              		.loc 1 1100 5 discriminator 3 view .LVU3232
 11212 0070 1348     		ldr	r0, .L1119+16
 11213 0072 FFF7FEFF 		bl	osal_printf
 11214              	.LVL1538:
 11215 0076 F5E7     		b	.L1103
 11216              	.LVL1539:
 11217              	.L1112:
1100:../switch_sdk/core/yt/yt_port.c ****     CMM_PARAM_CHK((2 < powePad), CMM_ERR_INPUT);
 11218              		.loc 1 1100 5 discriminator 3 view .LVU3233
 11219              	.LBE220:
1101:../switch_sdk/core/yt/yt_port.c ****     CMM_PARAM_CHK((POWER33V < powerLevel || POWER18V > powerLevel), CMM_ERR_INPUT);
 11220              		.loc 1 1101 5 is_stmt 1 discriminator 1 view .LVU3234
1101:../switch_sdk/core/yt/yt_port.c ****     CMM_PARAM_CHK((POWER33V < powerLevel || POWER18V > powerLevel), CMM_ERR_INPUT);
 11221              		.loc 1 1101 5 discriminator 1 view .LVU3235
 11222 0078 0E4B     		ldr	r3, .L1119+4
 11223 007a 1B78     		ldrb	r3, [r3]	@ zero_extendqisi2
 11224 007c 012B     		cmp	r3, #1
 11225 007e 01D8     		bhi	.L1117
 11226              	.LVL1540:
 11227              	.L1105:
1101:../switch_sdk/core/yt/yt_port.c ****     CMM_PARAM_CHK((POWER33V < powerLevel || POWER18V > powerLevel), CMM_ERR_INPUT);
 11228              		.loc 1 1101 5 discriminator 5 view .LVU3236
1101:../switch_sdk/core/yt/yt_port.c ****     CMM_PARAM_CHK((POWER33V < powerLevel || POWER18V > powerLevel), CMM_ERR_INPUT);
 11229              		.loc 1 1101 5 discriminator 5 view .LVU3237
1101:../switch_sdk/core/yt/yt_port.c ****     CMM_PARAM_CHK((POWER33V < powerLevel || POWER18V > powerLevel), CMM_ERR_INPUT);
 11230              		.loc 1 1101 5 discriminator 5 view .LVU3238
 11231 0080 0520     		movs	r0, #5
 11232 0082 CEE7     		b	.L1096
 11233              	.LVL1541:
 11234              	.L1117:
1101:../switch_sdk/core/yt/yt_port.c ****     CMM_PARAM_CHK((POWER33V < powerLevel || POWER18V > powerLevel), CMM_ERR_INPUT);
 11235              		.loc 1 1101 5 discriminator 3 view .LVU3239
 11236              	.LBB221:
1101:../switch_sdk/core/yt/yt_port.c ****     CMM_PARAM_CHK((POWER33V < powerLevel || POWER18V > powerLevel), CMM_ERR_INPUT);
 11237              		.loc 1 1101 5 discriminator 3 view .LVU3240
 11238 0084 0C4B     		ldr	r3, .L1119+8
 11239 0086 5A69     		ldr	r2, [r3, #20]
 11240              	.LVL1542:
1101:../switch_sdk/core/yt/yt_port.c ****     CMM_PARAM_CHK((POWER33V < powerLevel || POWER18V > powerLevel), CMM_ERR_INPUT);
 11241              		.loc 1 1101 5 is_stmt 0 discriminator 3 view .LVU3241
 11242 0088 0C4B     		ldr	r3, .L1119+12
 11243 008a 9968     		ldr	r1, [r3, #8]
 11244              	.LVL1543:
1101:../switch_sdk/core/yt/yt_port.c ****     CMM_PARAM_CHK((POWER33V < powerLevel || POWER18V > powerLevel), CMM_ERR_INPUT);
 11245              		.loc 1 1101 5 discriminator 3 view .LVU3242
 11246 008c 0C48     		ldr	r0, .L1119+16
 11247 008e FFF7FEFF 		bl	osal_printf
 11248              	.LVL1544:
 11249 0092 F5E7     		b	.L1105
 11250              	.LVL1545:
 11251              	.L1113:
1101:../switch_sdk/core/yt/yt_port.c ****     CMM_PARAM_CHK((POWER33V < powerLevel || POWER18V > powerLevel), CMM_ERR_INPUT);
 11252              		.loc 1 1101 5 discriminator 3 view .LVU3243
 11253              	.LBE221:
1102:../switch_sdk/core/yt/yt_port.c **** 
 11254              		.loc 1 1102 5 is_stmt 1 discriminator 1 view .LVU3244
1102:../switch_sdk/core/yt/yt_port.c **** 
 11255              		.loc 1 1102 5 discriminator 1 view .LVU3245
 11256 0094 074B     		ldr	r3, .L1119+4
 11257 0096 1B78     		ldrb	r3, [r3]	@ zero_extendqisi2
 11258 0098 012B     		cmp	r3, #1
 11259 009a 01D8     		bhi	.L1118
 11260              	.LVL1546:
 11261              	.L1107:
1102:../switch_sdk/core/yt/yt_port.c **** 
 11262              		.loc 1 1102 5 discriminator 5 view .LVU3246
1102:../switch_sdk/core/yt/yt_port.c **** 
 11263              		.loc 1 1102 5 discriminator 5 view .LVU3247
1102:../switch_sdk/core/yt/yt_port.c **** 
 11264              		.loc 1 1102 5 discriminator 5 view .LVU3248
 11265 009c 0520     		movs	r0, #5
 11266 009e C0E7     		b	.L1096
 11267              	.LVL1547:
 11268              	.L1118:
1102:../switch_sdk/core/yt/yt_port.c **** 
 11269              		.loc 1 1102 5 discriminator 3 view .LVU3249
 11270              	.LBB222:
1102:../switch_sdk/core/yt/yt_port.c **** 
 11271              		.loc 1 1102 5 discriminator 3 view .LVU3250
 11272 00a0 054B     		ldr	r3, .L1119+8
 11273 00a2 5A69     		ldr	r2, [r3, #20]
 11274              	.LVL1548:
1102:../switch_sdk/core/yt/yt_port.c **** 
 11275              		.loc 1 1102 5 is_stmt 0 discriminator 3 view .LVU3251
 11276 00a4 054B     		ldr	r3, .L1119+12
 11277 00a6 9968     		ldr	r1, [r3, #8]
 11278              	.LVL1549:
1102:../switch_sdk/core/yt/yt_port.c **** 
 11279              		.loc 1 1102 5 discriminator 3 view .LVU3252
 11280 00a8 0548     		ldr	r0, .L1119+16
 11281 00aa FFF7FEFF 		bl	osal_printf
 11282              	.LVL1550:
 11283 00ae F5E7     		b	.L1107
 11284              	.L1120:
 11285              		.align	2
 11286              	.L1119:
 11287 00b0 00000000 		.word	gpfal_dispatch
 11288 00b4 00000000 		.word	yt_debug_level
 11289 00b8 00000000 		.word	_yt_errmsg
 11290 00bc 00000000 		.word	_yt_prompt_msg
 11291 00c0 00000000 		.word	.LC0
 11292              	.LBE222:
 11293              		.cfi_endproc
 11294              	.LFE49:
 11296              		.section	.text.yt_port_dvddio_power_level_get,"ax",%progbits
 11297              		.align	1
 11298              		.global	yt_port_dvddio_power_level_get
 11299              		.syntax unified
 11300              		.thumb
 11301              		.thumb_func
 11303              	yt_port_dvddio_power_level_get:
 11304              	.LVL1551:
 11305              	.LFB50:
1106:../switch_sdk/core/yt/yt_port.c **** 
1107:../switch_sdk/core/yt/yt_port.c **** 
1108:../switch_sdk/core/yt/yt_port.c **** /**
1109:../switch_sdk/core/yt/yt_port.c ****  * @internal      yt_port_dvddio_power_level_get
1110:../switch_sdk/core/yt/yt_port.c ****  * @endinternal
1111:../switch_sdk/core/yt/yt_port.c ****  *
1112:../switch_sdk/core/yt/yt_port.c ****  * @brief         get dvddio power level
1113:../switch_sdk/core/yt/yt_port.c ****  * @note          APPLICABLE DEVICES  -Tiger
1114:../switch_sdk/core/yt/yt_port.c ****  * @param[in]     unit                -unit id
1115:../switch_sdk/core/yt/yt_port.c ****  * @param[in]     powePad                -powerpad
1116:../switch_sdk/core/yt/yt_port.c ****  * @param[out]    pPowerLevel             -1.8v,2.5v,3.3v
1117:../switch_sdk/core/yt/yt_port.c ****  * @retval        CMM_ERR_OK          -on success
1118:../switch_sdk/core/yt/yt_port.c ****  * @retval        CMM_ERR_FAIL        -on fail
1119:../switch_sdk/core/yt/yt_port.c ****  */
1120:../switch_sdk/core/yt/yt_port.c **** yt_ret_t yt_port_dvddio_power_level_get(yt_unit_t unit, yt_dvddio_power_pad_t powePad, yt_dvddio_po
1121:../switch_sdk/core/yt/yt_port.c **** {
 11306              		.loc 1 1121 1 is_stmt 1 view -0
 11307              		.cfi_startproc
 11308              		@ args = 0, pretend = 0, frame = 0
 11309              		@ frame_needed = 0, uses_anonymous_args = 0
 11310              		.loc 1 1121 1 is_stmt 0 view .LVU3254
 11311 0000 08B5     		push	{r3, lr}
 11312              		.cfi_def_cfa_offset 8
 11313              		.cfi_offset 3, -8
 11314              		.cfi_offset 14, -4
1122:../switch_sdk/core/yt/yt_port.c ****     CMM_PARAM_CHK((YT_UNIT_NUM <= unit), CMM_ERR_INPUT);
 11315              		.loc 1 1122 5 is_stmt 1 view .LVU3255
 11316              		.loc 1 1122 5 view .LVU3256
 11317 0002 78B9     		cbnz	r0, .L1134
 11318 0004 8446     		mov	ip, r0
 11319              		.loc 1 1122 5 discriminator 2 view .LVU3257
1123:../switch_sdk/core/yt/yt_port.c ****     CMM_PARAM_CHK(NULL == YT_DISPATCH(unit), CMM_ERR_NOT_INIT);
 11320              		.loc 1 1123 5 discriminator 2 view .LVU3258
 11321              		.loc 1 1123 5 discriminator 2 view .LVU3259
 11322 0006 2A4B     		ldr	r3, .L1144
 11323 0008 53F82030 		ldr	r3, [r3, r0, lsl #2]
 11324 000c C3B1     		cbz	r3, .L1135
 11325              		.loc 1 1123 5 discriminator 2 view .LVU3260
1124:../switch_sdk/core/yt/yt_port.c ****     CMM_PARAM_CHK((!(YT_DISPATCH(unit)->is_inited)), CMM_ERR_NOT_INIT);
 11326              		.loc 1 1124 5 discriminator 2 view .LVU3261
 11327              		.loc 1 1124 5 discriminator 2 view .LVU3262
 11328 000e 1878     		ldrb	r0, [r3]	@ zero_extendqisi2
 11329              	.LVL1552:
 11330              		.loc 1 1124 5 is_stmt 0 discriminator 2 view .LVU3263
 11331 0010 20B3     		cbz	r0, .L1136
 11332              		.loc 1 1124 5 is_stmt 1 discriminator 2 view .LVU3264
1125:../switch_sdk/core/yt/yt_port.c ****     CMM_PARAM_CHK((2 < powePad), CMM_ERR_INPUT);
 11333              		.loc 1 1125 5 discriminator 2 view .LVU3265
 11334              		.loc 1 1125 5 discriminator 2 view .LVU3266
 11335 0012 0229     		cmp	r1, #2
 11336 0014 30D8     		bhi	.L1137
 11337              		.loc 1 1125 5 discriminator 2 view .LVU3267
1126:../switch_sdk/core/yt/yt_port.c ****     CMM_PARAM_CHK((NULL == pPowerLevel), CMM_ERR_NULL_POINT);
 11338              		.loc 1 1126 5 discriminator 2 view .LVU3268
 11339              		.loc 1 1126 5 discriminator 2 view .LVU3269
 11340 0016 002A     		cmp	r2, #0
 11341 0018 3CD0     		beq	.L1138
 11342              		.loc 1 1126 5 discriminator 2 view .LVU3270
1127:../switch_sdk/core/yt/yt_port.c **** 
1128:../switch_sdk/core/yt/yt_port.c ****     return YT_DISPATCH(unit)->port_dvddio_power_level_get(unit, powePad, pPowerLevel);
 11343              		.loc 1 1128 5 discriminator 2 view .LVU3271
 11344              		.loc 1 1128 29 is_stmt 0 discriminator 2 view .LVU3272
 11345 001a D3F81436 		ldr	r3, [r3, #1556]
 11346              		.loc 1 1128 12 discriminator 2 view .LVU3273
 11347 001e 6046     		mov	r0, ip
 11348 0020 9847     		blx	r3
 11349              	.LVL1553:
 11350              	.L1121:
1129:../switch_sdk/core/yt/yt_port.c **** }
 11351              		.loc 1 1129 1 view .LVU3274
 11352 0022 08BD     		pop	{r3, pc}
 11353              	.LVL1554:
 11354              	.L1134:
1122:../switch_sdk/core/yt/yt_port.c ****     CMM_PARAM_CHK(NULL == YT_DISPATCH(unit), CMM_ERR_NOT_INIT);
 11355              		.loc 1 1122 5 is_stmt 1 discriminator 1 view .LVU3275
1122:../switch_sdk/core/yt/yt_port.c ****     CMM_PARAM_CHK(NULL == YT_DISPATCH(unit), CMM_ERR_NOT_INIT);
 11356              		.loc 1 1122 5 discriminator 1 view .LVU3276
 11357 0024 234B     		ldr	r3, .L1144+4
 11358 0026 1B78     		ldrb	r3, [r3]	@ zero_extendqisi2
 11359 0028 012B     		cmp	r3, #1
 11360 002a 01D8     		bhi	.L1139
 11361              	.LVL1555:
 11362              	.L1123:
1122:../switch_sdk/core/yt/yt_port.c ****     CMM_PARAM_CHK(NULL == YT_DISPATCH(unit), CMM_ERR_NOT_INIT);
 11363              		.loc 1 1122 5 discriminator 5 view .LVU3277
1122:../switch_sdk/core/yt/yt_port.c ****     CMM_PARAM_CHK(NULL == YT_DISPATCH(unit), CMM_ERR_NOT_INIT);
 11364              		.loc 1 1122 5 discriminator 5 view .LVU3278
1122:../switch_sdk/core/yt/yt_port.c ****     CMM_PARAM_CHK(NULL == YT_DISPATCH(unit), CMM_ERR_NOT_INIT);
 11365              		.loc 1 1122 5 discriminator 5 view .LVU3279
 11366 002c 0520     		movs	r0, #5
 11367 002e F8E7     		b	.L1121
 11368              	.LVL1556:
 11369              	.L1139:
1122:../switch_sdk/core/yt/yt_port.c ****     CMM_PARAM_CHK(NULL == YT_DISPATCH(unit), CMM_ERR_NOT_INIT);
 11370              		.loc 1 1122 5 discriminator 3 view .LVU3280
 11371              	.LBB223:
1122:../switch_sdk/core/yt/yt_port.c ****     CMM_PARAM_CHK(NULL == YT_DISPATCH(unit), CMM_ERR_NOT_INIT);
 11372              		.loc 1 1122 5 discriminator 3 view .LVU3281
 11373 0030 214B     		ldr	r3, .L1144+8
 11374 0032 5A69     		ldr	r2, [r3, #20]
 11375              	.LVL1557:
1122:../switch_sdk/core/yt/yt_port.c ****     CMM_PARAM_CHK(NULL == YT_DISPATCH(unit), CMM_ERR_NOT_INIT);
 11376              		.loc 1 1122 5 is_stmt 0 discriminator 3 view .LVU3282
 11377 0034 214B     		ldr	r3, .L1144+12
 11378 0036 9968     		ldr	r1, [r3, #8]
 11379              	.LVL1558:
1122:../switch_sdk/core/yt/yt_port.c ****     CMM_PARAM_CHK(NULL == YT_DISPATCH(unit), CMM_ERR_NOT_INIT);
 11380              		.loc 1 1122 5 discriminator 3 view .LVU3283
 11381 0038 2148     		ldr	r0, .L1144+16
 11382              	.LVL1559:
1122:../switch_sdk/core/yt/yt_port.c ****     CMM_PARAM_CHK(NULL == YT_DISPATCH(unit), CMM_ERR_NOT_INIT);
 11383              		.loc 1 1122 5 discriminator 3 view .LVU3284
 11384 003a FFF7FEFF 		bl	osal_printf
 11385              	.LVL1560:
 11386 003e F5E7     		b	.L1123
 11387              	.LVL1561:
 11388              	.L1135:
1122:../switch_sdk/core/yt/yt_port.c ****     CMM_PARAM_CHK(NULL == YT_DISPATCH(unit), CMM_ERR_NOT_INIT);
 11389              		.loc 1 1122 5 discriminator 3 view .LVU3285
 11390              	.LBE223:
1123:../switch_sdk/core/yt/yt_port.c ****     CMM_PARAM_CHK((!(YT_DISPATCH(unit)->is_inited)), CMM_ERR_NOT_INIT);
 11391              		.loc 1 1123 5 is_stmt 1 discriminator 1 view .LVU3286
1123:../switch_sdk/core/yt/yt_port.c ****     CMM_PARAM_CHK((!(YT_DISPATCH(unit)->is_inited)), CMM_ERR_NOT_INIT);
 11392              		.loc 1 1123 5 discriminator 1 view .LVU3287
 11393 0040 1C4B     		ldr	r3, .L1144+4
 11394 0042 1B78     		ldrb	r3, [r3]	@ zero_extendqisi2
 11395 0044 012B     		cmp	r3, #1
 11396 0046 01D8     		bhi	.L1140
 11397              	.LVL1562:
 11398              	.L1126:
1123:../switch_sdk/core/yt/yt_port.c ****     CMM_PARAM_CHK((!(YT_DISPATCH(unit)->is_inited)), CMM_ERR_NOT_INIT);
 11399              		.loc 1 1123 5 discriminator 5 view .LVU3288
1123:../switch_sdk/core/yt/yt_port.c ****     CMM_PARAM_CHK((!(YT_DISPATCH(unit)->is_inited)), CMM_ERR_NOT_INIT);
 11400              		.loc 1 1123 5 discriminator 5 view .LVU3289
1123:../switch_sdk/core/yt/yt_port.c ****     CMM_PARAM_CHK((!(YT_DISPATCH(unit)->is_inited)), CMM_ERR_NOT_INIT);
 11401              		.loc 1 1123 5 discriminator 5 view .LVU3290
 11402 0048 0420     		movs	r0, #4
 11403 004a EAE7     		b	.L1121
 11404              	.LVL1563:
 11405              	.L1140:
1123:../switch_sdk/core/yt/yt_port.c ****     CMM_PARAM_CHK((!(YT_DISPATCH(unit)->is_inited)), CMM_ERR_NOT_INIT);
 11406              		.loc 1 1123 5 discriminator 3 view .LVU3291
 11407              	.LBB224:
1123:../switch_sdk/core/yt/yt_port.c ****     CMM_PARAM_CHK((!(YT_DISPATCH(unit)->is_inited)), CMM_ERR_NOT_INIT);
 11408              		.loc 1 1123 5 discriminator 3 view .LVU3292
 11409 004c 1A4B     		ldr	r3, .L1144+8
 11410 004e 1A69     		ldr	r2, [r3, #16]
 11411              	.LVL1564:
1123:../switch_sdk/core/yt/yt_port.c ****     CMM_PARAM_CHK((!(YT_DISPATCH(unit)->is_inited)), CMM_ERR_NOT_INIT);
 11412              		.loc 1 1123 5 is_stmt 0 discriminator 3 view .LVU3293
 11413 0050 1A4B     		ldr	r3, .L1144+12
 11414 0052 9968     		ldr	r1, [r3, #8]
 11415              	.LVL1565:
1123:../switch_sdk/core/yt/yt_port.c ****     CMM_PARAM_CHK((!(YT_DISPATCH(unit)->is_inited)), CMM_ERR_NOT_INIT);
 11416              		.loc 1 1123 5 discriminator 3 view .LVU3294
 11417 0054 1A48     		ldr	r0, .L1144+16
 11418              	.LVL1566:
1123:../switch_sdk/core/yt/yt_port.c ****     CMM_PARAM_CHK((!(YT_DISPATCH(unit)->is_inited)), CMM_ERR_NOT_INIT);
 11419              		.loc 1 1123 5 discriminator 3 view .LVU3295
 11420 0056 FFF7FEFF 		bl	osal_printf
 11421              	.LVL1567:
 11422 005a F5E7     		b	.L1126
 11423              	.LVL1568:
 11424              	.L1136:
1123:../switch_sdk/core/yt/yt_port.c ****     CMM_PARAM_CHK((!(YT_DISPATCH(unit)->is_inited)), CMM_ERR_NOT_INIT);
 11425              		.loc 1 1123 5 discriminator 3 view .LVU3296
 11426              	.LBE224:
1124:../switch_sdk/core/yt/yt_port.c ****     CMM_PARAM_CHK((2 < powePad), CMM_ERR_INPUT);
 11427              		.loc 1 1124 5 is_stmt 1 discriminator 1 view .LVU3297
1124:../switch_sdk/core/yt/yt_port.c ****     CMM_PARAM_CHK((2 < powePad), CMM_ERR_INPUT);
 11428              		.loc 1 1124 5 discriminator 1 view .LVU3298
 11429 005c 154B     		ldr	r3, .L1144+4
 11430 005e 1B78     		ldrb	r3, [r3]	@ zero_extendqisi2
 11431 0060 012B     		cmp	r3, #1
 11432 0062 01D8     		bhi	.L1141
 11433              	.LVL1569:
 11434              	.L1128:
1124:../switch_sdk/core/yt/yt_port.c ****     CMM_PARAM_CHK((2 < powePad), CMM_ERR_INPUT);
 11435              		.loc 1 1124 5 discriminator 5 view .LVU3299
1124:../switch_sdk/core/yt/yt_port.c ****     CMM_PARAM_CHK((2 < powePad), CMM_ERR_INPUT);
 11436              		.loc 1 1124 5 discriminator 5 view .LVU3300
1124:../switch_sdk/core/yt/yt_port.c ****     CMM_PARAM_CHK((2 < powePad), CMM_ERR_INPUT);
 11437              		.loc 1 1124 5 discriminator 5 view .LVU3301
 11438 0064 0420     		movs	r0, #4
 11439 0066 DCE7     		b	.L1121
 11440              	.LVL1570:
 11441              	.L1141:
1124:../switch_sdk/core/yt/yt_port.c ****     CMM_PARAM_CHK((2 < powePad), CMM_ERR_INPUT);
 11442              		.loc 1 1124 5 discriminator 3 view .LVU3302
 11443              	.LBB225:
1124:../switch_sdk/core/yt/yt_port.c ****     CMM_PARAM_CHK((2 < powePad), CMM_ERR_INPUT);
 11444              		.loc 1 1124 5 discriminator 3 view .LVU3303
 11445 0068 134B     		ldr	r3, .L1144+8
 11446 006a 1A69     		ldr	r2, [r3, #16]
 11447              	.LVL1571:
1124:../switch_sdk/core/yt/yt_port.c ****     CMM_PARAM_CHK((2 < powePad), CMM_ERR_INPUT);
 11448              		.loc 1 1124 5 is_stmt 0 discriminator 3 view .LVU3304
 11449 006c 134B     		ldr	r3, .L1144+12
 11450 006e 9968     		ldr	r1, [r3, #8]
 11451              	.LVL1572:
1124:../switch_sdk/core/yt/yt_port.c ****     CMM_PARAM_CHK((2 < powePad), CMM_ERR_INPUT);
 11452              		.loc 1 1124 5 discriminator 3 view .LVU3305
 11453 0070 1348     		ldr	r0, .L1144+16
 11454 0072 FFF7FEFF 		bl	osal_printf
 11455              	.LVL1573:
 11456 0076 F5E7     		b	.L1128
 11457              	.LVL1574:
 11458              	.L1137:
1124:../switch_sdk/core/yt/yt_port.c ****     CMM_PARAM_CHK((2 < powePad), CMM_ERR_INPUT);
 11459              		.loc 1 1124 5 discriminator 3 view .LVU3306
 11460              	.LBE225:
1125:../switch_sdk/core/yt/yt_port.c ****     CMM_PARAM_CHK((NULL == pPowerLevel), CMM_ERR_NULL_POINT);
 11461              		.loc 1 1125 5 is_stmt 1 discriminator 1 view .LVU3307
1125:../switch_sdk/core/yt/yt_port.c ****     CMM_PARAM_CHK((NULL == pPowerLevel), CMM_ERR_NULL_POINT);
 11462              		.loc 1 1125 5 discriminator 1 view .LVU3308
 11463 0078 0E4B     		ldr	r3, .L1144+4
 11464 007a 1B78     		ldrb	r3, [r3]	@ zero_extendqisi2
 11465 007c 012B     		cmp	r3, #1
 11466 007e 01D8     		bhi	.L1142
 11467              	.LVL1575:
 11468              	.L1130:
1125:../switch_sdk/core/yt/yt_port.c ****     CMM_PARAM_CHK((NULL == pPowerLevel), CMM_ERR_NULL_POINT);
 11469              		.loc 1 1125 5 discriminator 5 view .LVU3309
1125:../switch_sdk/core/yt/yt_port.c ****     CMM_PARAM_CHK((NULL == pPowerLevel), CMM_ERR_NULL_POINT);
 11470              		.loc 1 1125 5 discriminator 5 view .LVU3310
1125:../switch_sdk/core/yt/yt_port.c ****     CMM_PARAM_CHK((NULL == pPowerLevel), CMM_ERR_NULL_POINT);
 11471              		.loc 1 1125 5 discriminator 5 view .LVU3311
 11472 0080 0520     		movs	r0, #5
 11473 0082 CEE7     		b	.L1121
 11474              	.LVL1576:
 11475              	.L1142:
1125:../switch_sdk/core/yt/yt_port.c ****     CMM_PARAM_CHK((NULL == pPowerLevel), CMM_ERR_NULL_POINT);
 11476              		.loc 1 1125 5 discriminator 3 view .LVU3312
 11477              	.LBB226:
1125:../switch_sdk/core/yt/yt_port.c ****     CMM_PARAM_CHK((NULL == pPowerLevel), CMM_ERR_NULL_POINT);
 11478              		.loc 1 1125 5 discriminator 3 view .LVU3313
 11479 0084 0C4B     		ldr	r3, .L1144+8
 11480 0086 5A69     		ldr	r2, [r3, #20]
 11481              	.LVL1577:
1125:../switch_sdk/core/yt/yt_port.c ****     CMM_PARAM_CHK((NULL == pPowerLevel), CMM_ERR_NULL_POINT);
 11482              		.loc 1 1125 5 is_stmt 0 discriminator 3 view .LVU3314
 11483 0088 0C4B     		ldr	r3, .L1144+12
 11484 008a 9968     		ldr	r1, [r3, #8]
 11485              	.LVL1578:
1125:../switch_sdk/core/yt/yt_port.c ****     CMM_PARAM_CHK((NULL == pPowerLevel), CMM_ERR_NULL_POINT);
 11486              		.loc 1 1125 5 discriminator 3 view .LVU3315
 11487 008c 0C48     		ldr	r0, .L1144+16
 11488 008e FFF7FEFF 		bl	osal_printf
 11489              	.LVL1579:
 11490 0092 F5E7     		b	.L1130
 11491              	.LVL1580:
 11492              	.L1138:
1125:../switch_sdk/core/yt/yt_port.c ****     CMM_PARAM_CHK((NULL == pPowerLevel), CMM_ERR_NULL_POINT);
 11493              		.loc 1 1125 5 discriminator 3 view .LVU3316
 11494              	.LBE226:
1126:../switch_sdk/core/yt/yt_port.c **** 
 11495              		.loc 1 1126 5 is_stmt 1 discriminator 1 view .LVU3317
1126:../switch_sdk/core/yt/yt_port.c **** 
 11496              		.loc 1 1126 5 discriminator 1 view .LVU3318
 11497 0094 074B     		ldr	r3, .L1144+4
 11498 0096 1B78     		ldrb	r3, [r3]	@ zero_extendqisi2
 11499 0098 012B     		cmp	r3, #1
 11500 009a 01D8     		bhi	.L1143
 11501              	.LVL1581:
 11502              	.L1132:
1126:../switch_sdk/core/yt/yt_port.c **** 
 11503              		.loc 1 1126 5 discriminator 5 view .LVU3319
1126:../switch_sdk/core/yt/yt_port.c **** 
 11504              		.loc 1 1126 5 discriminator 5 view .LVU3320
1126:../switch_sdk/core/yt/yt_port.c **** 
 11505              		.loc 1 1126 5 discriminator 5 view .LVU3321
 11506 009c 0220     		movs	r0, #2
 11507 009e C0E7     		b	.L1121
 11508              	.LVL1582:
 11509              	.L1143:
1126:../switch_sdk/core/yt/yt_port.c **** 
 11510              		.loc 1 1126 5 discriminator 3 view .LVU3322
 11511              	.LBB227:
1126:../switch_sdk/core/yt/yt_port.c **** 
 11512              		.loc 1 1126 5 discriminator 3 view .LVU3323
 11513 00a0 054B     		ldr	r3, .L1144+8
 11514 00a2 9A68     		ldr	r2, [r3, #8]
 11515              	.LVL1583:
1126:../switch_sdk/core/yt/yt_port.c **** 
 11516              		.loc 1 1126 5 is_stmt 0 discriminator 3 view .LVU3324
 11517 00a4 054B     		ldr	r3, .L1144+12
 11518 00a6 9968     		ldr	r1, [r3, #8]
 11519              	.LVL1584:
1126:../switch_sdk/core/yt/yt_port.c **** 
 11520              		.loc 1 1126 5 discriminator 3 view .LVU3325
 11521 00a8 0548     		ldr	r0, .L1144+16
 11522 00aa FFF7FEFF 		bl	osal_printf
 11523              	.LVL1585:
 11524 00ae F5E7     		b	.L1132
 11525              	.L1145:
 11526              		.align	2
 11527              	.L1144:
 11528 00b0 00000000 		.word	gpfal_dispatch
 11529 00b4 00000000 		.word	yt_debug_level
 11530 00b8 00000000 		.word	_yt_errmsg
 11531 00bc 00000000 		.word	_yt_prompt_msg
 11532 00c0 00000000 		.word	.LC0
 11533              	.LBE227:
 11534              		.cfi_endproc
 11535              	.LFE50:
 11537              		.text
 11538              	.Letext0:
 11539              		.file 2 "C:\\Users\\Dmitriy\\Desktop\\GD32F10x\\switch_sdk\\common\\include/yt_types.h"
 11540              		.file 3 "C:\\Users\\Dmitriy\\Desktop\\GD32F10x\\switch_sdk\\common\\include/yt_error.h"
 11541              		.file 4 "C:\\Users\\Dmitriy\\Desktop\\GD32F10x\\switch_sdk\\core\\fal\\chipdef/chipdef.h"
 11542              		.file 5 "C:\\Users\\Dmitriy\\Desktop\\GD32F10x\\switch_sdk\\core\\cal/cal_bprofile.h"
 11543              		.file 6 "C:\\Users\\Dmitriy\\Desktop\\GD32F10x\\switch_sdk\\core\\cal/cal_mgm.h"
 11544              		.file 7 "C:\\Users\\Dmitriy\\Desktop\\GD32F10x\\switch_sdk\\include/yt_cmm.h"
 11545              		.file 8 "C:\\Users\\Dmitriy\\Desktop\\GD32F10x\\switch_sdk\\include/yt_port.h"
 11546              		.file 9 "C:\\Users\\Dmitriy\\Desktop\\GD32F10x\\switch_sdk\\include/yt_vlan.h"
 11547              		.file 10 "C:\\Users\\Dmitriy\\Desktop\\GD32F10x\\switch_sdk\\include/yt_vlan_translate.h"
 11548              		.file 11 "C:\\Users\\Dmitriy\\Desktop\\GD32F10x\\switch_sdk\\include/yt_acl.h"
 11549              		.file 12 "C:\\Users\\Dmitriy\\Desktop\\GD32F10x\\switch_sdk\\include/yt_qos.h"
 11550              		.file 13 "C:\\Users\\Dmitriy\\Desktop\\GD32F10x\\switch_sdk\\include/yt_rate.h"
 11551              		.file 14 "C:\\Users\\Dmitriy\\Desktop\\GD32F10x\\switch_sdk\\include/yt_dos.h"
 11552              		.file 15 "C:\\Users\\Dmitriy\\Desktop\\GD32F10x\\switch_sdk\\include/yt_nic.h"
 11553              		.file 16 "C:\\Users\\Dmitriy\\Desktop\\GD32F10x\\switch_sdk\\include/yt_stp.h"
 11554              		.file 17 "C:\\Users\\Dmitriy\\Desktop\\GD32F10x\\switch_sdk\\include/yt_l2.h"
 11555              		.file 18 "C:\\Users\\Dmitriy\\Desktop\\GD32F10x\\switch_sdk\\include/yt_loopdetect.h"
 11556              		.file 19 "C:\\Users\\Dmitriy\\Desktop\\GD32F10x\\switch_sdk\\include/yt_multicast.h"
 11557              		.file 20 "C:\\Users\\Dmitriy\\Desktop\\GD32F10x\\switch_sdk\\include/yt_rma.h"
 11558              		.file 21 "C:\\Users\\Dmitriy\\Desktop\\GD32F10x\\switch_sdk\\include/yt_oam.h"
 11559              		.file 22 "C:\\Users\\Dmitriy\\Desktop\\GD32F10x\\switch_sdk\\include/yt_storm_ctrl.h"
 11560              		.file 23 "C:\\Users\\Dmitriy\\Desktop\\GD32F10x\\switch_sdk\\include/yt_dot1x.h"
 11561              		.file 24 "C:\\Users\\Dmitriy\\Desktop\\GD32F10x\\switch_sdk\\include/yt_ctrlpkt.h"
 11562              		.file 25 "C:\\Users\\Dmitriy\\Desktop\\GD32F10x\\switch_sdk\\include/yt_stat.h"
 11563              		.file 26 "C:\\Users\\Dmitriy\\Desktop\\GD32F10x\\switch_sdk\\include/yt_interrupt.h"
 11564              		.file 27 "C:\\Users\\Dmitriy\\Desktop\\GD32F10x\\switch_sdk\\include/yt_led.h"
 11565              		.file 28 "C:\\Users\\Dmitriy\\Desktop\\GD32F10x\\switch_sdk\\include/yt_sys.h"
 11566              		.file 29 "C:\\Users\\Dmitriy\\Desktop\\GD32F10x\\switch_sdk\\include/yt_debug.h"
 11567              		.file 30 "C:\\Users\\Dmitriy\\Desktop\\GD32F10x\\switch_sdk\\core\\fal/fal_dispatch.h"
DEFINED SYMBOLS
                            *ABS*:00000000 yt_port.c
C:\Users\Dmitriy\AppData\Local\Temp\ccza1Bsq.s:19     .rodata.yt_port_init.str1.4:00000000 $d
C:\Users\Dmitriy\AppData\Local\Temp\ccza1Bsq.s:23     .text.yt_port_init:00000000 $t
C:\Users\Dmitriy\AppData\Local\Temp\ccza1Bsq.s:29     .text.yt_port_init:00000000 yt_port_init
C:\Users\Dmitriy\AppData\Local\Temp\ccza1Bsq.s:162    .text.yt_port_init:0000006c $d
C:\Users\Dmitriy\AppData\Local\Temp\ccza1Bsq.s:172    .text.yt_port_enable_set:00000000 $t
C:\Users\Dmitriy\AppData\Local\Temp\ccza1Bsq.s:178    .text.yt_port_enable_set:00000000 yt_port_enable_set
C:\Users\Dmitriy\AppData\Local\Temp\ccza1Bsq.s:204    .text.yt_port_enable_set:00000010 $d
C:\Users\Dmitriy\AppData\Local\Temp\ccza1Bsq.s:209    .text.yt_port_enable_get:00000000 $t
C:\Users\Dmitriy\AppData\Local\Temp\ccza1Bsq.s:215    .text.yt_port_enable_get:00000000 yt_port_enable_get
C:\Users\Dmitriy\AppData\Local\Temp\ccza1Bsq.s:448    .text.yt_port_enable_get:000000c4 $d
C:\Users\Dmitriy\AppData\Local\Temp\ccza1Bsq.s:460    .text.yt_port_link_status_get:00000000 $t
C:\Users\Dmitriy\AppData\Local\Temp\ccza1Bsq.s:466    .text.yt_port_link_status_get:00000000 yt_port_link_status_get
C:\Users\Dmitriy\AppData\Local\Temp\ccza1Bsq.s:699    .text.yt_port_link_status_get:000000c4 $d
C:\Users\Dmitriy\AppData\Local\Temp\ccza1Bsq.s:711    .text.yt_port_link_status_all_get:00000000 $t
C:\Users\Dmitriy\AppData\Local\Temp\ccza1Bsq.s:717    .text.yt_port_link_status_all_get:00000000 yt_port_link_status_all_get
C:\Users\Dmitriy\AppData\Local\Temp\ccza1Bsq.s:950    .text.yt_port_link_status_all_get:000000c4 $d
C:\Users\Dmitriy\AppData\Local\Temp\ccza1Bsq.s:962    .text.yt_port_backpress_enable_set:00000000 $t
C:\Users\Dmitriy\AppData\Local\Temp\ccza1Bsq.s:968    .text.yt_port_backpress_enable_set:00000000 yt_port_backpress_enable_set
C:\Users\Dmitriy\AppData\Local\Temp\ccza1Bsq.s:1201   .text.yt_port_backpress_enable_set:000000c4 $d
C:\Users\Dmitriy\AppData\Local\Temp\ccza1Bsq.s:1213   .text.yt_port_backpress_enable_get:00000000 $t
C:\Users\Dmitriy\AppData\Local\Temp\ccza1Bsq.s:1219   .text.yt_port_backpress_enable_get:00000000 yt_port_backpress_enable_get
C:\Users\Dmitriy\AppData\Local\Temp\ccza1Bsq.s:1452   .text.yt_port_backpress_enable_get:000000c4 $d
C:\Users\Dmitriy\AppData\Local\Temp\ccza1Bsq.s:1464   .text.yt_port_cascade_set:00000000 $t
C:\Users\Dmitriy\AppData\Local\Temp\ccza1Bsq.s:1470   .text.yt_port_cascade_set:00000000 yt_port_cascade_set
C:\Users\Dmitriy\AppData\Local\Temp\ccza1Bsq.s:1733   .text.yt_port_cascade_set:00000104 $d
C:\Users\Dmitriy\AppData\Local\Temp\ccza1Bsq.s:1744   .text.yt_port_cascade_get:00000000 $t
C:\Users\Dmitriy\AppData\Local\Temp\ccza1Bsq.s:1750   .text.yt_port_cascade_get:00000000 yt_port_cascade_get
C:\Users\Dmitriy\AppData\Local\Temp\ccza1Bsq.s:1928   .text.yt_port_cascade_get:00000090 $d
C:\Users\Dmitriy\AppData\Local\Temp\ccza1Bsq.s:1938   .text.yt_port_pkt_gap_set:00000000 $t
C:\Users\Dmitriy\AppData\Local\Temp\ccza1Bsq.s:1944   .text.yt_port_pkt_gap_set:00000000 yt_port_pkt_gap_set
C:\Users\Dmitriy\AppData\Local\Temp\ccza1Bsq.s:2137   .text.yt_port_pkt_gap_set:000000a0 $d
C:\Users\Dmitriy\AppData\Local\Temp\ccza1Bsq.s:2149   .text.yt_port_pkt_gap_get:00000000 $t
C:\Users\Dmitriy\AppData\Local\Temp\ccza1Bsq.s:2155   .text.yt_port_pkt_gap_get:00000000 yt_port_pkt_gap_get
C:\Users\Dmitriy\AppData\Local\Temp\ccza1Bsq.s:2388   .text.yt_port_pkt_gap_get:000000c4 $d
C:\Users\Dmitriy\AppData\Local\Temp\ccza1Bsq.s:2400   .text.yt_port_macAutoNeg_enable_set:00000000 $t
C:\Users\Dmitriy\AppData\Local\Temp\ccza1Bsq.s:2406   .text.yt_port_macAutoNeg_enable_set:00000000 yt_port_macAutoNeg_enable_set
C:\Users\Dmitriy\AppData\Local\Temp\ccza1Bsq.s:2639   .text.yt_port_macAutoNeg_enable_set:000000c4 $d
C:\Users\Dmitriy\AppData\Local\Temp\ccza1Bsq.s:2651   .text.yt_port_macAutoNeg_enable_get:00000000 $t
C:\Users\Dmitriy\AppData\Local\Temp\ccza1Bsq.s:2657   .text.yt_port_macAutoNeg_enable_get:00000000 yt_port_macAutoNeg_enable_get
C:\Users\Dmitriy\AppData\Local\Temp\ccza1Bsq.s:2890   .text.yt_port_macAutoNeg_enable_get:000000c4 $d
C:\Users\Dmitriy\AppData\Local\Temp\ccza1Bsq.s:2902   .text.yt_port_mac_force_set:00000000 $t
C:\Users\Dmitriy\AppData\Local\Temp\ccza1Bsq.s:2908   .text.yt_port_mac_force_set:00000000 yt_port_mac_force_set
C:\Users\Dmitriy\AppData\Local\Temp\ccza1Bsq.s:3102   .text.yt_port_mac_force_set:000000a8 $d
C:\Users\Dmitriy\AppData\Local\Temp\ccza1Bsq.s:3114   .text.yt_port_mac_force_get:00000000 $t
C:\Users\Dmitriy\AppData\Local\Temp\ccza1Bsq.s:3120   .text.yt_port_mac_force_get:00000000 yt_port_mac_force_get
C:\Users\Dmitriy\AppData\Local\Temp\ccza1Bsq.s:3353   .text.yt_port_mac_force_get:000000c4 $d
C:\Users\Dmitriy\AppData\Local\Temp\ccza1Bsq.s:3365   .text.yt_port_mac_fc_set:00000000 $t
C:\Users\Dmitriy\AppData\Local\Temp\ccza1Bsq.s:3371   .text.yt_port_mac_fc_set:00000000 yt_port_mac_fc_set
C:\Users\Dmitriy\AppData\Local\Temp\ccza1Bsq.s:3604   .text.yt_port_mac_fc_set:000000c4 $d
C:\Users\Dmitriy\AppData\Local\Temp\ccza1Bsq.s:3616   .text.yt_port_mac_fc_get:00000000 $t
C:\Users\Dmitriy\AppData\Local\Temp\ccza1Bsq.s:3622   .text.yt_port_mac_fc_get:00000000 yt_port_mac_fc_get
C:\Users\Dmitriy\AppData\Local\Temp\ccza1Bsq.s:3855   .text.yt_port_mac_fc_get:000000c4 $d
C:\Users\Dmitriy\AppData\Local\Temp\ccza1Bsq.s:3867   .text.yt_port_extif_mode_set:00000000 $t
C:\Users\Dmitriy\AppData\Local\Temp\ccza1Bsq.s:3873   .text.yt_port_extif_mode_set:00000000 yt_port_extif_mode_set
C:\Users\Dmitriy\AppData\Local\Temp\ccza1Bsq.s:3899   .text.yt_port_extif_mode_set:00000010 $d
C:\Users\Dmitriy\AppData\Local\Temp\ccza1Bsq.s:3904   .text.yt_port_extif_mode_get:00000000 $t
C:\Users\Dmitriy\AppData\Local\Temp\ccza1Bsq.s:3910   .text.yt_port_extif_mode_get:00000000 yt_port_extif_mode_get
C:\Users\Dmitriy\AppData\Local\Temp\ccza1Bsq.s:4143   .text.yt_port_extif_mode_get:000000c4 $d
C:\Users\Dmitriy\AppData\Local\Temp\ccza1Bsq.s:4155   .text.yt_port_extif_rgmii_delay_set:00000000 $t
C:\Users\Dmitriy\AppData\Local\Temp\ccza1Bsq.s:4161   .text.yt_port_extif_rgmii_delay_set:00000000 yt_port_extif_rgmii_delay_set
C:\Users\Dmitriy\AppData\Local\Temp\ccza1Bsq.s:4412   .text.yt_port_extif_rgmii_delay_set:000000cc $d
C:\Users\Dmitriy\AppData\Local\Temp\ccza1Bsq.s:4424   .text.yt_port_extif_rgmii_delay_get:00000000 $t
C:\Users\Dmitriy\AppData\Local\Temp\ccza1Bsq.s:4430   .text.yt_port_extif_rgmii_delay_get:00000000 yt_port_extif_rgmii_delay_get
C:\Users\Dmitriy\AppData\Local\Temp\ccza1Bsq.s:4764   .text.yt_port_extif_rgmii_delay_get:00000110 $d
C:\Users\Dmitriy\AppData\Local\Temp\ccza1Bsq.s:4776   .text.yt_port_phyAutoNeg_enable_set:00000000 $t
C:\Users\Dmitriy\AppData\Local\Temp\ccza1Bsq.s:4782   .text.yt_port_phyAutoNeg_enable_set:00000000 yt_port_phyAutoNeg_enable_set
C:\Users\Dmitriy\AppData\Local\Temp\ccza1Bsq.s:5015   .text.yt_port_phyAutoNeg_enable_set:000000c4 $d
C:\Users\Dmitriy\AppData\Local\Temp\ccza1Bsq.s:5027   .text.yt_port_phyAutoNeg_enable_get:00000000 $t
C:\Users\Dmitriy\AppData\Local\Temp\ccza1Bsq.s:5033   .text.yt_port_phyAutoNeg_enable_get:00000000 yt_port_phyAutoNeg_enable_get
C:\Users\Dmitriy\AppData\Local\Temp\ccza1Bsq.s:5266   .text.yt_port_phyAutoNeg_enable_get:000000c4 $d
C:\Users\Dmitriy\AppData\Local\Temp\ccza1Bsq.s:5278   .text.yt_port_phyAutoNeg_ability_set:00000000 $t
C:\Users\Dmitriy\AppData\Local\Temp\ccza1Bsq.s:5284   .text.yt_port_phyAutoNeg_ability_set:00000000 yt_port_phyAutoNeg_ability_set
C:\Users\Dmitriy\AppData\Local\Temp\ccza1Bsq.s:5481   .text.yt_port_phyAutoNeg_ability_set:000000b0 $d
C:\Users\Dmitriy\AppData\Local\Temp\ccza1Bsq.s:5493   .text.yt_port_phyAutoNeg_ability_get:00000000 $t
C:\Users\Dmitriy\AppData\Local\Temp\ccza1Bsq.s:5499   .text.yt_port_phyAutoNeg_ability_get:00000000 yt_port_phyAutoNeg_ability_get
C:\Users\Dmitriy\AppData\Local\Temp\ccza1Bsq.s:5732   .text.yt_port_phyAutoNeg_ability_get:000000c4 $d
C:\Users\Dmitriy\AppData\Local\Temp\ccza1Bsq.s:5744   .text.yt_port_phy_force_set:00000000 $t
C:\Users\Dmitriy\AppData\Local\Temp\ccza1Bsq.s:5750   .text.yt_port_phy_force_set:00000000 yt_port_phy_force_set
C:\Users\Dmitriy\AppData\Local\Temp\ccza1Bsq.s:5983   .text.yt_port_phy_force_set:000000c4 $d
C:\Users\Dmitriy\AppData\Local\Temp\ccza1Bsq.s:5995   .text.yt_port_phy_force_get:00000000 $t
C:\Users\Dmitriy\AppData\Local\Temp\ccza1Bsq.s:6001   .text.yt_port_phy_force_get:00000000 yt_port_phy_force_get
C:\Users\Dmitriy\AppData\Local\Temp\ccza1Bsq.s:6234   .text.yt_port_phy_force_get:000000c4 $d
C:\Users\Dmitriy\AppData\Local\Temp\ccza1Bsq.s:6246   .text.yt_port_phy_linkstatus_get:00000000 $t
C:\Users\Dmitriy\AppData\Local\Temp\ccza1Bsq.s:6252   .text.yt_port_phy_linkstatus_get:00000000 yt_port_phy_linkstatus_get
C:\Users\Dmitriy\AppData\Local\Temp\ccza1Bsq.s:6485   .text.yt_port_phy_linkstatus_get:000000c4 $d
C:\Users\Dmitriy\AppData\Local\Temp\ccza1Bsq.s:6497   .text.yt_port_phy_reg_set:00000000 $t
C:\Users\Dmitriy\AppData\Local\Temp\ccza1Bsq.s:6503   .text.yt_port_phy_reg_set:00000000 yt_port_phy_reg_set
C:\Users\Dmitriy\AppData\Local\Temp\ccza1Bsq.s:6754   .text.yt_port_phy_reg_set:000000cc $d
C:\Users\Dmitriy\AppData\Local\Temp\ccza1Bsq.s:6766   .text.yt_port_phy_reg_get:00000000 $t
C:\Users\Dmitriy\AppData\Local\Temp\ccza1Bsq.s:6772   .text.yt_port_phy_reg_get:00000000 yt_port_phy_reg_get
C:\Users\Dmitriy\AppData\Local\Temp\ccza1Bsq.s:7065   .text.yt_port_phy_reg_get:000000ec $d
C:\Users\Dmitriy\AppData\Local\Temp\ccza1Bsq.s:7077   .text.yt_port_eee_enable_set:00000000 $t
C:\Users\Dmitriy\AppData\Local\Temp\ccza1Bsq.s:7083   .text.yt_port_eee_enable_set:00000000 yt_port_eee_enable_set
C:\Users\Dmitriy\AppData\Local\Temp\ccza1Bsq.s:7316   .text.yt_port_eee_enable_set:000000c4 $d
C:\Users\Dmitriy\AppData\Local\Temp\ccza1Bsq.s:7328   .text.yt_port_eee_enable_get:00000000 $t
C:\Users\Dmitriy\AppData\Local\Temp\ccza1Bsq.s:7334   .text.yt_port_eee_enable_get:00000000 yt_port_eee_enable_get
C:\Users\Dmitriy\AppData\Local\Temp\ccza1Bsq.s:7567   .text.yt_port_eee_enable_get:000000c4 $d
C:\Users\Dmitriy\AppData\Local\Temp\ccza1Bsq.s:7579   .text.yt_port_jumbo_enable_set:00000000 $t
C:\Users\Dmitriy\AppData\Local\Temp\ccza1Bsq.s:7585   .text.yt_port_jumbo_enable_set:00000000 yt_port_jumbo_enable_set
C:\Users\Dmitriy\AppData\Local\Temp\ccza1Bsq.s:7818   .text.yt_port_jumbo_enable_set:000000c4 $d
C:\Users\Dmitriy\AppData\Local\Temp\ccza1Bsq.s:7830   .text.yt_port_jumbo_enable_get:00000000 $t
C:\Users\Dmitriy\AppData\Local\Temp\ccza1Bsq.s:7836   .text.yt_port_jumbo_enable_get:00000000 yt_port_jumbo_enable_get
C:\Users\Dmitriy\AppData\Local\Temp\ccza1Bsq.s:8069   .text.yt_port_jumbo_enable_get:000000c4 $d
C:\Users\Dmitriy\AppData\Local\Temp\ccza1Bsq.s:8081   .text.yt_port_jumbo_size_set:00000000 $t
C:\Users\Dmitriy\AppData\Local\Temp\ccza1Bsq.s:8087   .text.yt_port_jumbo_size_set:00000000 yt_port_jumbo_size_set
C:\Users\Dmitriy\AppData\Local\Temp\ccza1Bsq.s:8323   .text.yt_port_jumbo_size_set:000000cc $d
C:\Users\Dmitriy\AppData\Local\Temp\ccza1Bsq.s:8335   .text.yt_port_jumbo_size_get:00000000 $t
C:\Users\Dmitriy\AppData\Local\Temp\ccza1Bsq.s:8341   .text.yt_port_jumbo_size_get:00000000 yt_port_jumbo_size_get
C:\Users\Dmitriy\AppData\Local\Temp\ccza1Bsq.s:8574   .text.yt_port_jumbo_size_get:000000c4 $d
C:\Users\Dmitriy\AppData\Local\Temp\ccza1Bsq.s:8586   .text.yt_port_cable_diag:00000000 $t
C:\Users\Dmitriy\AppData\Local\Temp\ccza1Bsq.s:8592   .text.yt_port_cable_diag:00000000 yt_port_cable_diag
C:\Users\Dmitriy\AppData\Local\Temp\ccza1Bsq.s:8825   .text.yt_port_cable_diag:000000c4 $d
C:\Users\Dmitriy\AppData\Local\Temp\ccza1Bsq.s:8837   .text.yt_port_phyCrossover_mode_set:00000000 $t
C:\Users\Dmitriy\AppData\Local\Temp\ccza1Bsq.s:8843   .text.yt_port_phyCrossover_mode_set:00000000 yt_port_phyCrossover_mode_set
C:\Users\Dmitriy\AppData\Local\Temp\ccza1Bsq.s:9036   .text.yt_port_phyCrossover_mode_set:000000a0 $d
C:\Users\Dmitriy\AppData\Local\Temp\ccza1Bsq.s:9048   .text.yt_port_phyCrossover_mode_get:00000000 $t
C:\Users\Dmitriy\AppData\Local\Temp\ccza1Bsq.s:9054   .text.yt_port_phyCrossover_mode_get:00000000 yt_port_phyCrossover_mode_get
C:\Users\Dmitriy\AppData\Local\Temp\ccza1Bsq.s:9287   .text.yt_port_phyCrossover_mode_get:000000c4 $d
C:\Users\Dmitriy\AppData\Local\Temp\ccza1Bsq.s:9299   .text.yt_port_phyCrossover_status_get:00000000 $t
C:\Users\Dmitriy\AppData\Local\Temp\ccza1Bsq.s:9305   .text.yt_port_phyCrossover_status_get:00000000 yt_port_phyCrossover_status_get
C:\Users\Dmitriy\AppData\Local\Temp\ccza1Bsq.s:9538   .text.yt_port_phyCrossover_status_get:000000c4 $d
C:\Users\Dmitriy\AppData\Local\Temp\ccza1Bsq.s:9550   .text.yt_port_phy_green_enable_set:00000000 $t
C:\Users\Dmitriy\AppData\Local\Temp\ccza1Bsq.s:9556   .text.yt_port_phy_green_enable_set:00000000 yt_port_phy_green_enable_set
C:\Users\Dmitriy\AppData\Local\Temp\ccza1Bsq.s:9789   .text.yt_port_phy_green_enable_set:000000c4 $d
C:\Users\Dmitriy\AppData\Local\Temp\ccza1Bsq.s:9801   .text.yt_port_phy_green_enable_get:00000000 $t
C:\Users\Dmitriy\AppData\Local\Temp\ccza1Bsq.s:9807   .text.yt_port_phy_green_enable_get:00000000 yt_port_phy_green_enable_get
C:\Users\Dmitriy\AppData\Local\Temp\ccza1Bsq.s:10040  .text.yt_port_phy_green_enable_get:000000c4 $d
C:\Users\Dmitriy\AppData\Local\Temp\ccza1Bsq.s:10052  .text.yt_port_extif_xmiiClk_invert_set:00000000 $t
C:\Users\Dmitriy\AppData\Local\Temp\ccza1Bsq.s:10058  .text.yt_port_extif_xmiiClk_invert_set:00000000 yt_port_extif_xmiiClk_invert_set
C:\Users\Dmitriy\AppData\Local\Temp\ccza1Bsq.s:10291  .text.yt_port_extif_xmiiClk_invert_set:000000c4 $d
C:\Users\Dmitriy\AppData\Local\Temp\ccza1Bsq.s:10303  .text.yt_port_extif_xmiiClk_invert_get:00000000 $t
C:\Users\Dmitriy\AppData\Local\Temp\ccza1Bsq.s:10309  .text.yt_port_extif_xmiiClk_invert_get:00000000 yt_port_extif_xmiiClk_invert_get
C:\Users\Dmitriy\AppData\Local\Temp\ccza1Bsq.s:10542  .text.yt_port_extif_xmiiClk_invert_get:000000c4 $d
C:\Users\Dmitriy\AppData\Local\Temp\ccza1Bsq.s:10554  .text.yt_port_parallel_detection_set:00000000 $t
C:\Users\Dmitriy\AppData\Local\Temp\ccza1Bsq.s:10560  .text.yt_port_parallel_detection_set:00000000 yt_port_parallel_detection_set
C:\Users\Dmitriy\AppData\Local\Temp\ccza1Bsq.s:10793  .text.yt_port_parallel_detection_set:000000c4 $d
C:\Users\Dmitriy\AppData\Local\Temp\ccza1Bsq.s:10805  .text.yt_port_parallel_detection_get:00000000 $t
C:\Users\Dmitriy\AppData\Local\Temp\ccza1Bsq.s:10811  .text.yt_port_parallel_detection_get:00000000 yt_port_parallel_detection_get
C:\Users\Dmitriy\AppData\Local\Temp\ccza1Bsq.s:11044  .text.yt_port_parallel_detection_get:000000c4 $d
C:\Users\Dmitriy\AppData\Local\Temp\ccza1Bsq.s:11056  .text.yt_port_dvddio_power_level_set:00000000 $t
C:\Users\Dmitriy\AppData\Local\Temp\ccza1Bsq.s:11062  .text.yt_port_dvddio_power_level_set:00000000 yt_port_dvddio_power_level_set
C:\Users\Dmitriy\AppData\Local\Temp\ccza1Bsq.s:11287  .text.yt_port_dvddio_power_level_set:000000b0 $d
C:\Users\Dmitriy\AppData\Local\Temp\ccza1Bsq.s:11297  .text.yt_port_dvddio_power_level_get:00000000 $t
C:\Users\Dmitriy\AppData\Local\Temp\ccza1Bsq.s:11303  .text.yt_port_dvddio_power_level_get:00000000 yt_port_dvddio_power_level_get
C:\Users\Dmitriy\AppData\Local\Temp\ccza1Bsq.s:11528  .text.yt_port_dvddio_power_level_get:000000b0 $d
                           .group:00000000 wm4.0.3ac34e011645c1b8d95761511e5c0518
                           .group:00000000 wm4._newlib_version.h.4.6d111ab2e95434b664b53815e5c8ccba
                           .group:00000000 wm4.newlib.h.27.d4bf77c18f14f545101dac22f0b54118
                           .group:00000000 wm4.ieeefp.h.77.0ee3146e9d892bb10bc0066c30189af1
                           .group:00000000 wm4.features.h.22.7877b139107948f7dadcf3660cc79cfd
                           .group:00000000 wm4.config.h.224.10ee1ad185d877c6e334e6581faab44d
                           .group:00000000 wm4._ansi.h.31.de524f58584151836e90d8620a16f8e8
                           .group:00000000 wm4.stdio.h.31.7c0e28c411445f3f9c5b11accf882760
                           .group:00000000 wm4._default_types.h.6.959254cf5f09734ea7516c89e8bb21bd
                           .group:00000000 wm4.stddef.h.185.cbb642e1ccd385e8aa504b15cb7fb086
                           .group:00000000 wm4.cdefs.h.49.f93868eb904b9ca05b5c0257d31128ca
                           .group:00000000 wm4.stddef.h.39.0e5f0dabba1c666ccadf0408e0d47322
                           .group:00000000 wm4.stdarg.h.34.3a23a216c0c293b3d2ea2e89281481e6
                           .group:00000000 wm4._types.h.20.dd0d04dca3800a0d2a6129b87f3adbb2
                           .group:00000000 wm4.stddef.h.158.5f30652bb2ea05b142c1bbee9108c999
                           .group:00000000 wm4._types.h.127.3bdfe3ff8ea2d0985b03d9cbe93480e3
                           .group:00000000 wm4.reent.h.17.e292bf8b0bec6c96e131a54347145a30
                           .group:00000000 wm4.lock.h.2.1461d1fff82dffe8bfddc23307f6484f
                           .group:00000000 wm4.reent.h.77.89f7dde66c62b1f1dee32bdb6ab2d544
                           .group:00000000 wm4.stdio.h.67.0cf8a9c281ab0b348aef5c02e7e48825
                           .group:00000000 wm4.stdio.h.2.4aa87247282eca6c8f36f9de33d8df1a
                           .group:00000000 wm4.stdio.h.87.a1e20d2651f9bfb66e51bfbe849db00a
                           .group:00000000 wm4.string.h.8.c4b8571ce60dff2817f43fec8b86aecd
                           .group:00000000 wm4.stddef.h.158.bfed30416c9480cd13bc4a25427d538f
                           .group:00000000 wm4.stdbool.h.29.4a1c88fe569adb8d03217dd16982ca34
                           .group:00000000 wm4.malloc.h.4.62bd13b8107d5245f60bd92bb5994838
                           .group:00000000 wm4.malloc.h.152.f5d1d9a9aabeac59da0ef41ede16d2b0
                           .group:00000000 wm4.yt_types.h.31.64aa050cf4c68d28514ce99f5dc2ddb9
                           .group:00000000 wm4.yt_util.h.17.08ae57e3898b218a2bbe57b2147a81bd
                           .group:00000000 wm4.yt_lock.h.9.ec67e8f6d308980d310512269a06d32b
                           .group:00000000 wm4.yt_error.h.38.7d21fcd141776eb0b18825b154fad62e
                           .group:00000000 wm4.chipdef_tiger.h.10.ae557adb3508daebcdc97f8fb0dc9e1a
                           .group:00000000 wm4.phy_chipdef.h.9.9a1a2dbb46f5503e32a84083ab1dbc9f
                           .group:00000000 wm4.cal_bprofile.h.23.d6ecfc2230abc149b4da600a40b20e5b
                           .group:00000000 wm4.bprofile_YT9215_default_demo.h.15.13aa65ba4a73c41dc1ffa3c5f8dcfda3
                           .group:00000000 wm4.cal_cmm.h.46.d022146a9e55e93d62d578a666b2c2f5
                           .group:00000000 wm4.yt_cmm.h.12.5273de39c1b049d4c73c2c31caf670b1
                           .group:00000000 wm4.yt_port.h.26.cd095c4f9e5cbf044bc6839a51827ee8
                           .group:00000000 wm4.yt_vlan.h.17.4dbe63e648ff65010c51c5f8a737ac2d
                           .group:00000000 wm4.yt_acl.h.25.ad9531373d966dccc96222e31e0234b5
                           .group:00000000 wm4.yt_nic.h.17.4e5ceed38d9cfbd9b5db2d4b069b6961
                           .group:00000000 wm4.yt_loopdetect.h.17.4739c2e436a8e779d4d8c89037b81aea
                           .group:00000000 wm4.yt_multicast.h.17.9c1d51b153e5e1785468d9c0ad6414a4
                           .group:00000000 wm4.yt_stat.h.17.f87caec2ee71e59f920ea3778bda3fad

UNDEFINED SYMBOLS
osal_printf
gpfal_dispatch
yt_debug_level
_yt_errmsg
_yt_prompt_msg
gcal_inited
gpSwitchUnit
