   1              		.cpu cortex-m3
   2              		.arch armv7-m
   3              		.fpu softvfp
   4              		.eabi_attribute 20, 1
   5              		.eabi_attribute 21, 1
   6              		.eabi_attribute 23, 3
   7              		.eabi_attribute 24, 1
   8              		.eabi_attribute 25, 1
   9              		.eabi_attribute 26, 1
  10              		.eabi_attribute 30, 1
  11              		.eabi_attribute 34, 1
  12              		.eabi_attribute 18, 4
  13              		.file	"yt_port.c"
  14              		.text
  15              	.Ltext0:
  16              		.cfi_sections	.debug_frame
  17              		.file 1 "../switch_sdk/core/yt/yt_port.c"
  18              		.section	.rodata.yt_port_init.str1.4,"aMS",%progbits,1
  19              		.align	2
  20              	.LC0:
  21 0000 25732573 		.ascii	"%s%s\015\012\000"
  21      0D0A00
  22              		.section	.text.yt_port_init,"ax",%progbits
  23              		.align	1
  24              		.global	yt_port_init
  25              		.syntax unified
  26              		.thumb
  27              		.thumb_func
  29              	yt_port_init:
  30              	.LVL0:
  31              	.LFB3:
   1:../switch_sdk/core/yt/yt_port.c **** /*******************************************************************************
   2:../switch_sdk/core/yt/yt_port.c **** *                                                                              *
   3:../switch_sdk/core/yt/yt_port.c **** *  Copyright (c), 2022, Motorcomm Electronic Technology Co.,Ltd.               *
   4:../switch_sdk/core/yt/yt_port.c **** *  Motorcomm Confidential and Proprietary.                                     *
   5:../switch_sdk/core/yt/yt_port.c **** *                                                                              *
   6:../switch_sdk/core/yt/yt_port.c **** ********************************************************************************
   7:../switch_sdk/core/yt/yt_port.c **** */
   8:../switch_sdk/core/yt/yt_port.c **** /**
   9:../switch_sdk/core/yt/yt_port.c **** ********************************************************************************
  10:../switch_sdk/core/yt/yt_port.c **** * @file yt_port.c
  11:../switch_sdk/core/yt/yt_port.c **** *
  12:../switch_sdk/core/yt/yt_port.c **** * @brief x
  13:../switch_sdk/core/yt/yt_port.c **** *
  14:../switch_sdk/core/yt/yt_port.c **** ********************************************************************************
  15:../switch_sdk/core/yt/yt_port.c **** */
  16:../switch_sdk/core/yt/yt_port.c **** #include "yt_port.h"
  17:../switch_sdk/core/yt/yt_port.c **** #include "fal_dispatch.h"
  18:../switch_sdk/core/yt/yt_port.c **** 
  19:../switch_sdk/core/yt/yt_port.c **** 
  20:../switch_sdk/core/yt/yt_port.c **** /**
  21:../switch_sdk/core/yt/yt_port.c ****  * @internal      yt_port_init
  22:../switch_sdk/core/yt/yt_port.c ****  * @endinternal
  23:../switch_sdk/core/yt/yt_port.c ****  *
  24:../switch_sdk/core/yt/yt_port.c ****  * @brief         Description
  25:../switch_sdk/core/yt/yt_port.c ****  * @note          APPLICABLE DEVICES  -Tiger
  26:../switch_sdk/core/yt/yt_port.c ****  * @param[in]     unit                -unit id
  27:../switch_sdk/core/yt/yt_port.c ****  * @retval        CMM_ERR_OK          -on success
  28:../switch_sdk/core/yt/yt_port.c ****  * @retval        CMM_ERR_FAIL        -on fail
  29:../switch_sdk/core/yt/yt_port.c ****  */
  30:../switch_sdk/core/yt/yt_port.c **** yt_ret_t yt_port_init(yt_unit_t unit)
  31:../switch_sdk/core/yt/yt_port.c **** {
  32              		.loc 1 31 1 view -0
  33              		.cfi_startproc
  34              		@ args = 0, pretend = 0, frame = 0
  35              		@ frame_needed = 0, uses_anonymous_args = 0
  36              		.loc 1 31 1 is_stmt 0 view .LVU1
  37 0000 08B5     		push	{r3, lr}
  38              		.cfi_def_cfa_offset 8
  39              		.cfi_offset 3, -8
  40              		.cfi_offset 14, -4
  32:../switch_sdk/core/yt/yt_port.c ****     CMM_PARAM_CHK((YT_UNIT_NUM <= unit), CMM_ERR_INPUT);
  41              		.loc 1 32 5 is_stmt 1 view .LVU2
  42              		.loc 1 32 5 view .LVU3
  43 0002 48B9     		cbnz	r0, .L10
  44              		.loc 1 32 5 discriminator 2 view .LVU4
  33:../switch_sdk/core/yt/yt_port.c ****     CMM_PARAM_CHK(NULL == YT_DISPATCH(unit), CMM_ERR_NOT_INIT);
  45              		.loc 1 33 5 discriminator 2 view .LVU5
  46              		.loc 1 33 5 discriminator 2 view .LVU6
  47 0004 194B     		ldr	r3, .L16
  48 0006 53F82030 		ldr	r3, [r3, r0, lsl #2]
  49 000a 9BB1     		cbz	r3, .L11
  50              		.loc 1 33 5 discriminator 2 view .LVU7
  34:../switch_sdk/core/yt/yt_port.c ****     CMM_PARAM_CHK((!(YT_DISPATCH(unit)->is_inited)), CMM_ERR_NOT_INIT);
  51              		.loc 1 34 5 discriminator 2 view .LVU8
  52              		.loc 1 34 5 discriminator 2 view .LVU9
  53 000c 1978     		ldrb	r1, [r3]	@ zero_extendqisi2
  54 000e F9B1     		cbz	r1, .L12
  55              		.loc 1 34 5 discriminator 2 view .LVU10
  35:../switch_sdk/core/yt/yt_port.c **** 
  36:../switch_sdk/core/yt/yt_port.c ****     return YT_DISPATCH(unit)->port_init(unit);
  56              		.loc 1 36 5 discriminator 2 view .LVU11
  57              		.loc 1 36 29 is_stmt 0 discriminator 2 view .LVU12
  58 0010 D3F85035 		ldr	r3, [r3, #1360]
  59              		.loc 1 36 12 discriminator 2 view .LVU13
  60 0014 9847     		blx	r3
  61              	.LVL1:
  62              	.L1:
  37:../switch_sdk/core/yt/yt_port.c **** }
  63              		.loc 1 37 1 view .LVU14
  64 0016 08BD     		pop	{r3, pc}
  65              	.LVL2:
  66              	.L10:
  32:../switch_sdk/core/yt/yt_port.c ****     CMM_PARAM_CHK(NULL == YT_DISPATCH(unit), CMM_ERR_NOT_INIT);
  67              		.loc 1 32 5 is_stmt 1 discriminator 1 view .LVU15
  32:../switch_sdk/core/yt/yt_port.c ****     CMM_PARAM_CHK(NULL == YT_DISPATCH(unit), CMM_ERR_NOT_INIT);
  68              		.loc 1 32 5 discriminator 1 view .LVU16
  69 0018 154B     		ldr	r3, .L16+4
  70 001a 1B78     		ldrb	r3, [r3]	@ zero_extendqisi2
  71 001c 012B     		cmp	r3, #1
  72 001e 01D8     		bhi	.L13
  73              	.LVL3:
  74              	.L3:
  32:../switch_sdk/core/yt/yt_port.c ****     CMM_PARAM_CHK(NULL == YT_DISPATCH(unit), CMM_ERR_NOT_INIT);
  75              		.loc 1 32 5 discriminator 5 view .LVU17
  32:../switch_sdk/core/yt/yt_port.c ****     CMM_PARAM_CHK(NULL == YT_DISPATCH(unit), CMM_ERR_NOT_INIT);
  76              		.loc 1 32 5 discriminator 5 view .LVU18
  32:../switch_sdk/core/yt/yt_port.c ****     CMM_PARAM_CHK(NULL == YT_DISPATCH(unit), CMM_ERR_NOT_INIT);
  77              		.loc 1 32 5 discriminator 5 view .LVU19
  78 0020 0520     		movs	r0, #5
  79 0022 F8E7     		b	.L1
  80              	.LVL4:
  81              	.L13:
  32:../switch_sdk/core/yt/yt_port.c ****     CMM_PARAM_CHK(NULL == YT_DISPATCH(unit), CMM_ERR_NOT_INIT);
  82              		.loc 1 32 5 discriminator 3 view .LVU20
  83              	.LBB2:
  32:../switch_sdk/core/yt/yt_port.c ****     CMM_PARAM_CHK(NULL == YT_DISPATCH(unit), CMM_ERR_NOT_INIT);
  84              		.loc 1 32 5 discriminator 3 view .LVU21
  85 0024 134B     		ldr	r3, .L16+8
  86 0026 5A69     		ldr	r2, [r3, #20]
  87 0028 134B     		ldr	r3, .L16+12
  88 002a 9968     		ldr	r1, [r3, #8]
  89 002c 1348     		ldr	r0, .L16+16
  90              	.LVL5:
  32:../switch_sdk/core/yt/yt_port.c ****     CMM_PARAM_CHK(NULL == YT_DISPATCH(unit), CMM_ERR_NOT_INIT);
  91              		.loc 1 32 5 is_stmt 0 discriminator 3 view .LVU22
  92 002e FFF7FEFF 		bl	osal_printf
  93              	.LVL6:
  94 0032 F5E7     		b	.L3
  95              	.LVL7:
  96              	.L11:
  32:../switch_sdk/core/yt/yt_port.c ****     CMM_PARAM_CHK(NULL == YT_DISPATCH(unit), CMM_ERR_NOT_INIT);
  97              		.loc 1 32 5 discriminator 3 view .LVU23
  98              	.LBE2:
  33:../switch_sdk/core/yt/yt_port.c ****     CMM_PARAM_CHK((!(YT_DISPATCH(unit)->is_inited)), CMM_ERR_NOT_INIT);
  99              		.loc 1 33 5 is_stmt 1 discriminator 1 view .LVU24
  33:../switch_sdk/core/yt/yt_port.c ****     CMM_PARAM_CHK((!(YT_DISPATCH(unit)->is_inited)), CMM_ERR_NOT_INIT);
 100              		.loc 1 33 5 discriminator 1 view .LVU25
 101 0034 0E4B     		ldr	r3, .L16+4
 102 0036 1B78     		ldrb	r3, [r3]	@ zero_extendqisi2
 103 0038 012B     		cmp	r3, #1
 104 003a 01D8     		bhi	.L14
 105              	.LVL8:
 106              	.L6:
  33:../switch_sdk/core/yt/yt_port.c ****     CMM_PARAM_CHK((!(YT_DISPATCH(unit)->is_inited)), CMM_ERR_NOT_INIT);
 107              		.loc 1 33 5 discriminator 5 view .LVU26
  33:../switch_sdk/core/yt/yt_port.c ****     CMM_PARAM_CHK((!(YT_DISPATCH(unit)->is_inited)), CMM_ERR_NOT_INIT);
 108              		.loc 1 33 5 discriminator 5 view .LVU27
  33:../switch_sdk/core/yt/yt_port.c ****     CMM_PARAM_CHK((!(YT_DISPATCH(unit)->is_inited)), CMM_ERR_NOT_INIT);
 109              		.loc 1 33 5 discriminator 5 view .LVU28
 110 003c 0420     		movs	r0, #4
 111 003e EAE7     		b	.L1
 112              	.LVL9:
 113              	.L14:
  33:../switch_sdk/core/yt/yt_port.c ****     CMM_PARAM_CHK((!(YT_DISPATCH(unit)->is_inited)), CMM_ERR_NOT_INIT);
 114              		.loc 1 33 5 discriminator 3 view .LVU29
 115              	.LBB3:
  33:../switch_sdk/core/yt/yt_port.c ****     CMM_PARAM_CHK((!(YT_DISPATCH(unit)->is_inited)), CMM_ERR_NOT_INIT);
 116              		.loc 1 33 5 discriminator 3 view .LVU30
 117 0040 0C4B     		ldr	r3, .L16+8
 118 0042 1A69     		ldr	r2, [r3, #16]
 119 0044 0C4B     		ldr	r3, .L16+12
 120 0046 9968     		ldr	r1, [r3, #8]
 121 0048 0C48     		ldr	r0, .L16+16
 122              	.LVL10:
  33:../switch_sdk/core/yt/yt_port.c ****     CMM_PARAM_CHK((!(YT_DISPATCH(unit)->is_inited)), CMM_ERR_NOT_INIT);
 123              		.loc 1 33 5 is_stmt 0 discriminator 3 view .LVU31
 124 004a FFF7FEFF 		bl	osal_printf
 125              	.LVL11:
 126 004e F5E7     		b	.L6
 127              	.LVL12:
 128              	.L12:
  33:../switch_sdk/core/yt/yt_port.c ****     CMM_PARAM_CHK((!(YT_DISPATCH(unit)->is_inited)), CMM_ERR_NOT_INIT);
 129              		.loc 1 33 5 discriminator 3 view .LVU32
 130              	.LBE3:
  34:../switch_sdk/core/yt/yt_port.c **** 
 131              		.loc 1 34 5 is_stmt 1 discriminator 1 view .LVU33
  34:../switch_sdk/core/yt/yt_port.c **** 
 132              		.loc 1 34 5 discriminator 1 view .LVU34
 133 0050 074B     		ldr	r3, .L16+4
 134 0052 1B78     		ldrb	r3, [r3]	@ zero_extendqisi2
 135 0054 012B     		cmp	r3, #1
 136 0056 01D8     		bhi	.L15
 137              	.LVL13:
 138              	.L8:
  34:../switch_sdk/core/yt/yt_port.c **** 
 139              		.loc 1 34 5 discriminator 5 view .LVU35
  34:../switch_sdk/core/yt/yt_port.c **** 
 140              		.loc 1 34 5 discriminator 5 view .LVU36
  34:../switch_sdk/core/yt/yt_port.c **** 
 141              		.loc 1 34 5 discriminator 5 view .LVU37
 142 0058 0420     		movs	r0, #4
 143 005a DCE7     		b	.L1
 144              	.LVL14:
 145              	.L15:
  34:../switch_sdk/core/yt/yt_port.c **** 
 146              		.loc 1 34 5 discriminator 3 view .LVU38
 147              	.LBB4:
  34:../switch_sdk/core/yt/yt_port.c **** 
 148              		.loc 1 34 5 discriminator 3 view .LVU39
 149 005c 054B     		ldr	r3, .L16+8
 150 005e 1A69     		ldr	r2, [r3, #16]
 151 0060 054B     		ldr	r3, .L16+12
 152 0062 9968     		ldr	r1, [r3, #8]
 153 0064 0548     		ldr	r0, .L16+16
 154              	.LVL15:
  34:../switch_sdk/core/yt/yt_port.c **** 
 155              		.loc 1 34 5 is_stmt 0 discriminator 3 view .LVU40
 156 0066 FFF7FEFF 		bl	osal_printf
 157              	.LVL16:
 158 006a F5E7     		b	.L8
 159              	.L17:
 160              		.align	2
 161              	.L16:
 162 006c 00000000 		.word	gpfal_dispatch
 163 0070 00000000 		.word	yt_debug_level
 164 0074 00000000 		.word	_yt_errmsg
 165 0078 00000000 		.word	_yt_prompt_msg
 166 007c 00000000 		.word	.LC0
 167              	.LBE4:
 168              		.cfi_endproc
 169              	.LFE3:
 171              		.section	.text.yt_port_enable_set,"ax",%progbits
 172              		.align	1
 173              		.global	yt_port_enable_set
 174              		.syntax unified
 175              		.thumb
 176              		.thumb_func
 178              	yt_port_enable_set:
 179              	.LVL17:
 180              	.LFB4:
  38:../switch_sdk/core/yt/yt_port.c **** 
  39:../switch_sdk/core/yt/yt_port.c **** /**
  40:../switch_sdk/core/yt/yt_port.c ****  * @internal      yt_port_enable_set
  41:../switch_sdk/core/yt/yt_port.c ****  * @endinternal
  42:../switch_sdk/core/yt/yt_port.c ****  *
  43:../switch_sdk/core/yt/yt_port.c ****  * @brief         Description
  44:../switch_sdk/core/yt/yt_port.c ****  * @note          APPLICABLE DEVICES  -Tiger
  45:../switch_sdk/core/yt/yt_port.c ****  * @param[in]     unit                -unit id
  46:../switch_sdk/core/yt/yt_port.c ****  * @param[in]     port                -port num
  47:../switch_sdk/core/yt/yt_port.c ****  * @param[in]     enable              -enable or disable
  48:../switch_sdk/core/yt/yt_port.c ****  * @retval        CMM_ERR_OK          -on success
  49:../switch_sdk/core/yt/yt_port.c ****  * @retval        CMM_ERR_FAIL        -on fail
  50:../switch_sdk/core/yt/yt_port.c ****  */
  51:../switch_sdk/core/yt/yt_port.c **** yt_ret_t yt_port_enable_set(yt_unit_t unit, yt_port_t port, yt_enable_t enable)
  52:../switch_sdk/core/yt/yt_port.c **** {
 181              		.loc 1 52 1 is_stmt 1 view -0
 182              		.cfi_startproc
 183              		@ args = 0, pretend = 0, frame = 0
 184              		@ frame_needed = 0, uses_anonymous_args = 0
 185              		.loc 1 52 1 is_stmt 0 view .LVU42
 186 0000 08B5     		push	{r3, lr}
 187              		.cfi_def_cfa_offset 8
 188              		.cfi_offset 3, -8
 189              		.cfi_offset 14, -4
  53:../switch_sdk/core/yt/yt_port.c **** //    CMM_PARAM_CHK((YT_UNIT_NUM <= unit), CMM_ERR_INPUT);
  54:../switch_sdk/core/yt/yt_port.c **** //    CMM_PARAM_CHK(NULL == YT_DISPATCH(unit), CMM_ERR_NOT_INIT);
  55:../switch_sdk/core/yt/yt_port.c **** //    CMM_PARAM_CHK((!(YT_DISPATCH(unit)->is_inited)), CMM_ERR_NOT_INIT);
  56:../switch_sdk/core/yt/yt_port.c **** //    CMM_PARAM_CHK((!(CMM_PORT_VALID(unit, port))), CMM_ERR_PORT);
  57:../switch_sdk/core/yt/yt_port.c **** //    CMM_PARAM_CHK((YT_ENABLE < enable || YT_DISABLE > enable), CMM_ERR_INPUT);
  58:../switch_sdk/core/yt/yt_port.c **** 
  59:../switch_sdk/core/yt/yt_port.c ****     return YT_DISPATCH(unit)->port_enable_set(unit, port, enable);
 190              		.loc 1 59 5 is_stmt 1 view .LVU43
 191              		.loc 1 59 12 is_stmt 0 view .LVU44
 192 0002 034B     		ldr	r3, .L20
 193 0004 53F82030 		ldr	r3, [r3, r0, lsl #2]
 194              		.loc 1 59 29 view .LVU45
 195 0008 D3F85435 		ldr	r3, [r3, #1364]
 196              		.loc 1 59 12 view .LVU46
 197 000c 9847     		blx	r3
 198              	.LVL18:
  60:../switch_sdk/core/yt/yt_port.c **** }
 199              		.loc 1 60 1 view .LVU47
 200 000e 08BD     		pop	{r3, pc}
 201              	.L21:
 202              		.align	2
 203              	.L20:
 204 0010 00000000 		.word	gpfal_dispatch
 205              		.cfi_endproc
 206              	.LFE4:
 208              		.section	.text.yt_port_enable_get,"ax",%progbits
 209              		.align	1
 210              		.global	yt_port_enable_get
 211              		.syntax unified
 212              		.thumb
 213              		.thumb_func
 215              	yt_port_enable_get:
 216              	.LVL19:
 217              	.LFB5:
  61:../switch_sdk/core/yt/yt_port.c **** 
  62:../switch_sdk/core/yt/yt_port.c **** /**
  63:../switch_sdk/core/yt/yt_port.c ****  * @internal      yt_port_enable_get
  64:../switch_sdk/core/yt/yt_port.c ****  * @endinternal
  65:../switch_sdk/core/yt/yt_port.c ****  *
  66:../switch_sdk/core/yt/yt_port.c ****  * @brief         Description
  67:../switch_sdk/core/yt/yt_port.c ****  * @note          APPLICABLE DEVICES  -Tiger
  68:../switch_sdk/core/yt/yt_port.c ****  * @param[in]     unit                -unit id
  69:../switch_sdk/core/yt/yt_port.c ****  * @param[in]     port                -port num
  70:../switch_sdk/core/yt/yt_port.c ****  * @param[out]    pEnable             -enable or disable
  71:../switch_sdk/core/yt/yt_port.c ****  * @retval        CMM_ERR_OK          -on success
  72:../switch_sdk/core/yt/yt_port.c ****  * @retval        CMM_ERR_FAIL        -on fail
  73:../switch_sdk/core/yt/yt_port.c ****  */
  74:../switch_sdk/core/yt/yt_port.c **** yt_ret_t yt_port_enable_get(yt_unit_t unit, yt_port_t port, yt_enable_t *pEnable)
  75:../switch_sdk/core/yt/yt_port.c **** {
 218              		.loc 1 75 1 is_stmt 1 view -0
 219              		.cfi_startproc
 220              		@ args = 0, pretend = 0, frame = 0
 221              		@ frame_needed = 0, uses_anonymous_args = 0
 222              		.loc 1 75 1 is_stmt 0 view .LVU49
 223 0000 08B5     		push	{r3, lr}
 224              		.cfi_def_cfa_offset 8
 225              		.cfi_offset 3, -8
 226              		.cfi_offset 14, -4
  76:../switch_sdk/core/yt/yt_port.c ****     CMM_PARAM_CHK((YT_UNIT_NUM <= unit), CMM_ERR_INPUT);
 227              		.loc 1 76 5 is_stmt 1 view .LVU50
 228              		.loc 1 76 5 view .LVU51
 229 0002 C0B9     		cbnz	r0, .L36
 230 0004 8446     		mov	ip, r0
 231              		.loc 1 76 5 discriminator 2 view .LVU52
  77:../switch_sdk/core/yt/yt_port.c ****     CMM_PARAM_CHK(NULL == YT_DISPATCH(unit), CMM_ERR_NOT_INIT);
 232              		.loc 1 77 5 discriminator 2 view .LVU53
 233              		.loc 1 77 5 discriminator 2 view .LVU54
 234 0006 2F4B     		ldr	r3, .L45
 235 0008 53F82030 		ldr	r3, [r3, r0, lsl #2]
 236 000c 0BB3     		cbz	r3, .L37
 237              		.loc 1 77 5 discriminator 2 view .LVU55
  78:../switch_sdk/core/yt/yt_port.c ****     CMM_PARAM_CHK((!(YT_DISPATCH(unit)->is_inited)), CMM_ERR_NOT_INIT);
 238              		.loc 1 78 5 discriminator 2 view .LVU56
 239              		.loc 1 78 5 discriminator 2 view .LVU57
 240 000e 1878     		ldrb	r0, [r3]	@ zero_extendqisi2
 241              	.LVL20:
 242              		.loc 1 78 5 is_stmt 0 discriminator 2 view .LVU58
 243 0010 0028     		cmp	r0, #0
 244 0012 2CD0     		beq	.L38
 245              		.loc 1 78 5 is_stmt 1 discriminator 2 view .LVU59
  79:../switch_sdk/core/yt/yt_port.c ****     CMM_PARAM_CHK((!(CMM_PORT_VALID(unit, port))), CMM_ERR_PORT);
 246              		.loc 1 79 5 discriminator 2 view .LVU60
 247              		.loc 1 79 5 discriminator 2 view .LVU61
 248 0014 2C48     		ldr	r0, .L45+4
 249 0016 0078     		ldrb	r0, [r0]	@ zero_extendqisi2
 250 0018 0028     		cmp	r0, #0
 251 001a 36D0     		beq	.L30
 252 001c 2B48     		ldr	r0, .L45+8
 253 001e 50F82C00 		ldr	r0, [r0, ip, lsl #2]
 254 0022 007D     		ldrb	r0, [r0, #20]	@ zero_extendqisi2
 255 0024 8842     		cmp	r0, r1
 256 0026 30D9     		bls	.L30
 257              		.loc 1 79 5 discriminator 4 view .LVU62
  80:../switch_sdk/core/yt/yt_port.c ****     CMM_PARAM_CHK((NULL == pEnable), CMM_ERR_NULL_POINT);
 258              		.loc 1 80 5 discriminator 4 view .LVU63
 259              		.loc 1 80 5 discriminator 4 view .LVU64
 260 0028 002A     		cmp	r2, #0
 261 002a 3CD0     		beq	.L39
 262              		.loc 1 80 5 discriminator 2 view .LVU65
  81:../switch_sdk/core/yt/yt_port.c **** 
  82:../switch_sdk/core/yt/yt_port.c ****     return YT_DISPATCH(unit)->port_enable_get(unit, port, pEnable);
 263              		.loc 1 82 5 discriminator 2 view .LVU66
 264              		.loc 1 82 29 is_stmt 0 discriminator 2 view .LVU67
 265 002c D3F85835 		ldr	r3, [r3, #1368]
 266              		.loc 1 82 12 discriminator 2 view .LVU68
 267 0030 6046     		mov	r0, ip
 268 0032 9847     		blx	r3
 269              	.LVL21:
 270              	.L22:
  83:../switch_sdk/core/yt/yt_port.c **** }
 271              		.loc 1 83 1 view .LVU69
 272 0034 08BD     		pop	{r3, pc}
 273              	.LVL22:
 274              	.L36:
  76:../switch_sdk/core/yt/yt_port.c ****     CMM_PARAM_CHK(NULL == YT_DISPATCH(unit), CMM_ERR_NOT_INIT);
 275              		.loc 1 76 5 is_stmt 1 discriminator 1 view .LVU70
  76:../switch_sdk/core/yt/yt_port.c ****     CMM_PARAM_CHK(NULL == YT_DISPATCH(unit), CMM_ERR_NOT_INIT);
 276              		.loc 1 76 5 discriminator 1 view .LVU71
 277 0036 264B     		ldr	r3, .L45+12
 278 0038 1B78     		ldrb	r3, [r3]	@ zero_extendqisi2
 279 003a 012B     		cmp	r3, #1
 280 003c 01D8     		bhi	.L40
 281              	.LVL23:
 282              	.L24:
  76:../switch_sdk/core/yt/yt_port.c ****     CMM_PARAM_CHK(NULL == YT_DISPATCH(unit), CMM_ERR_NOT_INIT);
 283              		.loc 1 76 5 discriminator 5 view .LVU72
  76:../switch_sdk/core/yt/yt_port.c ****     CMM_PARAM_CHK(NULL == YT_DISPATCH(unit), CMM_ERR_NOT_INIT);
 284              		.loc 1 76 5 discriminator 5 view .LVU73
  76:../switch_sdk/core/yt/yt_port.c ****     CMM_PARAM_CHK(NULL == YT_DISPATCH(unit), CMM_ERR_NOT_INIT);
 285              		.loc 1 76 5 discriminator 5 view .LVU74
 286 003e 0520     		movs	r0, #5
 287 0040 F8E7     		b	.L22
 288              	.LVL24:
 289              	.L40:
  76:../switch_sdk/core/yt/yt_port.c ****     CMM_PARAM_CHK(NULL == YT_DISPATCH(unit), CMM_ERR_NOT_INIT);
 290              		.loc 1 76 5 discriminator 3 view .LVU75
 291              	.LBB5:
  76:../switch_sdk/core/yt/yt_port.c ****     CMM_PARAM_CHK(NULL == YT_DISPATCH(unit), CMM_ERR_NOT_INIT);
 292              		.loc 1 76 5 discriminator 3 view .LVU76
 293 0042 244B     		ldr	r3, .L45+16
 294 0044 5A69     		ldr	r2, [r3, #20]
 295              	.LVL25:
  76:../switch_sdk/core/yt/yt_port.c ****     CMM_PARAM_CHK(NULL == YT_DISPATCH(unit), CMM_ERR_NOT_INIT);
 296              		.loc 1 76 5 is_stmt 0 discriminator 3 view .LVU77
 297 0046 244B     		ldr	r3, .L45+20
 298 0048 9968     		ldr	r1, [r3, #8]
 299              	.LVL26:
  76:../switch_sdk/core/yt/yt_port.c ****     CMM_PARAM_CHK(NULL == YT_DISPATCH(unit), CMM_ERR_NOT_INIT);
 300              		.loc 1 76 5 discriminator 3 view .LVU78
 301 004a 2448     		ldr	r0, .L45+24
 302              	.LVL27:
  76:../switch_sdk/core/yt/yt_port.c ****     CMM_PARAM_CHK(NULL == YT_DISPATCH(unit), CMM_ERR_NOT_INIT);
 303              		.loc 1 76 5 discriminator 3 view .LVU79
 304 004c FFF7FEFF 		bl	osal_printf
 305              	.LVL28:
 306 0050 F5E7     		b	.L24
 307              	.LVL29:
 308              	.L37:
  76:../switch_sdk/core/yt/yt_port.c ****     CMM_PARAM_CHK(NULL == YT_DISPATCH(unit), CMM_ERR_NOT_INIT);
 309              		.loc 1 76 5 discriminator 3 view .LVU80
 310              	.LBE5:
  77:../switch_sdk/core/yt/yt_port.c ****     CMM_PARAM_CHK((!(YT_DISPATCH(unit)->is_inited)), CMM_ERR_NOT_INIT);
 311              		.loc 1 77 5 is_stmt 1 discriminator 1 view .LVU81
  77:../switch_sdk/core/yt/yt_port.c ****     CMM_PARAM_CHK((!(YT_DISPATCH(unit)->is_inited)), CMM_ERR_NOT_INIT);
 312              		.loc 1 77 5 discriminator 1 view .LVU82
 313 0052 1F4B     		ldr	r3, .L45+12
 314 0054 1B78     		ldrb	r3, [r3]	@ zero_extendqisi2
 315 0056 012B     		cmp	r3, #1
 316 0058 01D8     		bhi	.L41
 317              	.LVL30:
 318              	.L27:
  77:../switch_sdk/core/yt/yt_port.c ****     CMM_PARAM_CHK((!(YT_DISPATCH(unit)->is_inited)), CMM_ERR_NOT_INIT);
 319              		.loc 1 77 5 discriminator 5 view .LVU83
  77:../switch_sdk/core/yt/yt_port.c ****     CMM_PARAM_CHK((!(YT_DISPATCH(unit)->is_inited)), CMM_ERR_NOT_INIT);
 320              		.loc 1 77 5 discriminator 5 view .LVU84
  77:../switch_sdk/core/yt/yt_port.c ****     CMM_PARAM_CHK((!(YT_DISPATCH(unit)->is_inited)), CMM_ERR_NOT_INIT);
 321              		.loc 1 77 5 discriminator 5 view .LVU85
 322 005a 0420     		movs	r0, #4
 323 005c EAE7     		b	.L22
 324              	.LVL31:
 325              	.L41:
  77:../switch_sdk/core/yt/yt_port.c ****     CMM_PARAM_CHK((!(YT_DISPATCH(unit)->is_inited)), CMM_ERR_NOT_INIT);
 326              		.loc 1 77 5 discriminator 3 view .LVU86
 327              	.LBB6:
  77:../switch_sdk/core/yt/yt_port.c ****     CMM_PARAM_CHK((!(YT_DISPATCH(unit)->is_inited)), CMM_ERR_NOT_INIT);
 328              		.loc 1 77 5 discriminator 3 view .LVU87
 329 005e 1D4B     		ldr	r3, .L45+16
 330 0060 1A69     		ldr	r2, [r3, #16]
 331              	.LVL32:
  77:../switch_sdk/core/yt/yt_port.c ****     CMM_PARAM_CHK((!(YT_DISPATCH(unit)->is_inited)), CMM_ERR_NOT_INIT);
 332              		.loc 1 77 5 is_stmt 0 discriminator 3 view .LVU88
 333 0062 1D4B     		ldr	r3, .L45+20
 334 0064 9968     		ldr	r1, [r3, #8]
 335              	.LVL33:
  77:../switch_sdk/core/yt/yt_port.c ****     CMM_PARAM_CHK((!(YT_DISPATCH(unit)->is_inited)), CMM_ERR_NOT_INIT);
 336              		.loc 1 77 5 discriminator 3 view .LVU89
 337 0066 1D48     		ldr	r0, .L45+24
 338              	.LVL34:
  77:../switch_sdk/core/yt/yt_port.c ****     CMM_PARAM_CHK((!(YT_DISPATCH(unit)->is_inited)), CMM_ERR_NOT_INIT);
 339              		.loc 1 77 5 discriminator 3 view .LVU90
 340 0068 FFF7FEFF 		bl	osal_printf
 341              	.LVL35:
 342 006c F5E7     		b	.L27
 343              	.LVL36:
 344              	.L38:
  77:../switch_sdk/core/yt/yt_port.c ****     CMM_PARAM_CHK((!(YT_DISPATCH(unit)->is_inited)), CMM_ERR_NOT_INIT);
 345              		.loc 1 77 5 discriminator 3 view .LVU91
 346              	.LBE6:
  78:../switch_sdk/core/yt/yt_port.c ****     CMM_PARAM_CHK((!(CMM_PORT_VALID(unit, port))), CMM_ERR_PORT);
 347              		.loc 1 78 5 is_stmt 1 discriminator 1 view .LVU92
  78:../switch_sdk/core/yt/yt_port.c ****     CMM_PARAM_CHK((!(CMM_PORT_VALID(unit, port))), CMM_ERR_PORT);
 348              		.loc 1 78 5 discriminator 1 view .LVU93
 349 006e 184B     		ldr	r3, .L45+12
 350 0070 1B78     		ldrb	r3, [r3]	@ zero_extendqisi2
 351 0072 012B     		cmp	r3, #1
 352 0074 01D8     		bhi	.L42
 353              	.LVL37:
 354              	.L29:
  78:../switch_sdk/core/yt/yt_port.c ****     CMM_PARAM_CHK((!(CMM_PORT_VALID(unit, port))), CMM_ERR_PORT);
 355              		.loc 1 78 5 discriminator 5 view .LVU94
  78:../switch_sdk/core/yt/yt_port.c ****     CMM_PARAM_CHK((!(CMM_PORT_VALID(unit, port))), CMM_ERR_PORT);
 356              		.loc 1 78 5 discriminator 5 view .LVU95
  78:../switch_sdk/core/yt/yt_port.c ****     CMM_PARAM_CHK((!(CMM_PORT_VALID(unit, port))), CMM_ERR_PORT);
 357              		.loc 1 78 5 discriminator 5 view .LVU96
 358 0076 0420     		movs	r0, #4
 359 0078 DCE7     		b	.L22
 360              	.LVL38:
 361              	.L42:
  78:../switch_sdk/core/yt/yt_port.c ****     CMM_PARAM_CHK((!(CMM_PORT_VALID(unit, port))), CMM_ERR_PORT);
 362              		.loc 1 78 5 discriminator 3 view .LVU97
 363              	.LBB7:
  78:../switch_sdk/core/yt/yt_port.c ****     CMM_PARAM_CHK((!(CMM_PORT_VALID(unit, port))), CMM_ERR_PORT);
 364              		.loc 1 78 5 discriminator 3 view .LVU98
 365 007a 164B     		ldr	r3, .L45+16
 366 007c 1A69     		ldr	r2, [r3, #16]
 367              	.LVL39:
  78:../switch_sdk/core/yt/yt_port.c ****     CMM_PARAM_CHK((!(CMM_PORT_VALID(unit, port))), CMM_ERR_PORT);
 368              		.loc 1 78 5 is_stmt 0 discriminator 3 view .LVU99
 369 007e 164B     		ldr	r3, .L45+20
 370 0080 9968     		ldr	r1, [r3, #8]
 371              	.LVL40:
  78:../switch_sdk/core/yt/yt_port.c ****     CMM_PARAM_CHK((!(CMM_PORT_VALID(unit, port))), CMM_ERR_PORT);
 372              		.loc 1 78 5 discriminator 3 view .LVU100
 373 0082 1648     		ldr	r0, .L45+24
 374 0084 FFF7FEFF 		bl	osal_printf
 375              	.LVL41:
 376 0088 F5E7     		b	.L29
 377              	.LVL42:
 378              	.L30:
  78:../switch_sdk/core/yt/yt_port.c ****     CMM_PARAM_CHK((!(CMM_PORT_VALID(unit, port))), CMM_ERR_PORT);
 379              		.loc 1 78 5 discriminator 3 view .LVU101
 380              	.LBE7:
  79:../switch_sdk/core/yt/yt_port.c ****     CMM_PARAM_CHK((NULL == pEnable), CMM_ERR_NULL_POINT);
 381              		.loc 1 79 5 is_stmt 1 discriminator 3 view .LVU102
  79:../switch_sdk/core/yt/yt_port.c ****     CMM_PARAM_CHK((NULL == pEnable), CMM_ERR_NULL_POINT);
 382              		.loc 1 79 5 discriminator 3 view .LVU103
 383 008a 114B     		ldr	r3, .L45+12
 384 008c 1B78     		ldrb	r3, [r3]	@ zero_extendqisi2
 385 008e 012B     		cmp	r3, #1
 386 0090 01D8     		bhi	.L43
 387              	.LVL43:
 388              	.L32:
  79:../switch_sdk/core/yt/yt_port.c ****     CMM_PARAM_CHK((NULL == pEnable), CMM_ERR_NULL_POINT);
 389              		.loc 1 79 5 discriminator 7 view .LVU104
  79:../switch_sdk/core/yt/yt_port.c ****     CMM_PARAM_CHK((NULL == pEnable), CMM_ERR_NULL_POINT);
 390              		.loc 1 79 5 discriminator 7 view .LVU105
  79:../switch_sdk/core/yt/yt_port.c ****     CMM_PARAM_CHK((NULL == pEnable), CMM_ERR_NULL_POINT);
 391              		.loc 1 79 5 discriminator 7 view .LVU106
 392 0092 0E20     		movs	r0, #14
 393 0094 CEE7     		b	.L22
 394              	.LVL44:
 395              	.L43:
  79:../switch_sdk/core/yt/yt_port.c ****     CMM_PARAM_CHK((NULL == pEnable), CMM_ERR_NULL_POINT);
 396              		.loc 1 79 5 discriminator 5 view .LVU107
 397              	.LBB8:
  79:../switch_sdk/core/yt/yt_port.c ****     CMM_PARAM_CHK((NULL == pEnable), CMM_ERR_NULL_POINT);
 398              		.loc 1 79 5 discriminator 5 view .LVU108
 399 0096 0F4B     		ldr	r3, .L45+16
 400 0098 9A6B     		ldr	r2, [r3, #56]
 401              	.LVL45:
  79:../switch_sdk/core/yt/yt_port.c ****     CMM_PARAM_CHK((NULL == pEnable), CMM_ERR_NULL_POINT);
 402              		.loc 1 79 5 is_stmt 0 discriminator 5 view .LVU109
 403 009a 0F4B     		ldr	r3, .L45+20
 404 009c 9968     		ldr	r1, [r3, #8]
 405              	.LVL46:
  79:../switch_sdk/core/yt/yt_port.c ****     CMM_PARAM_CHK((NULL == pEnable), CMM_ERR_NULL_POINT);
 406              		.loc 1 79 5 discriminator 5 view .LVU110
 407 009e 0F48     		ldr	r0, .L45+24
 408 00a0 FFF7FEFF 		bl	osal_printf
 409              	.LVL47:
 410 00a4 F5E7     		b	.L32
 411              	.LVL48:
 412              	.L39:
  79:../switch_sdk/core/yt/yt_port.c ****     CMM_PARAM_CHK((NULL == pEnable), CMM_ERR_NULL_POINT);
 413              		.loc 1 79 5 discriminator 5 view .LVU111
 414              	.LBE8:
  80:../switch_sdk/core/yt/yt_port.c **** 
 415              		.loc 1 80 5 is_stmt 1 discriminator 1 view .LVU112
  80:../switch_sdk/core/yt/yt_port.c **** 
 416              		.loc 1 80 5 discriminator 1 view .LVU113
 417 00a6 0A4B     		ldr	r3, .L45+12
 418 00a8 1B78     		ldrb	r3, [r3]	@ zero_extendqisi2
 419 00aa 012B     		cmp	r3, #1
 420 00ac 01D8     		bhi	.L44
 421              	.LVL49:
 422              	.L34:
  80:../switch_sdk/core/yt/yt_port.c **** 
 423              		.loc 1 80 5 discriminator 5 view .LVU114
  80:../switch_sdk/core/yt/yt_port.c **** 
 424              		.loc 1 80 5 discriminator 5 view .LVU115
  80:../switch_sdk/core/yt/yt_port.c **** 
 425              		.loc 1 80 5 discriminator 5 view .LVU116
 426 00ae 0220     		movs	r0, #2
 427 00b0 C0E7     		b	.L22
 428              	.LVL50:
 429              	.L44:
  80:../switch_sdk/core/yt/yt_port.c **** 
 430              		.loc 1 80 5 discriminator 3 view .LVU117
 431              	.LBB9:
  80:../switch_sdk/core/yt/yt_port.c **** 
 432              		.loc 1 80 5 discriminator 3 view .LVU118
 433 00b2 084B     		ldr	r3, .L45+16
 434 00b4 9A68     		ldr	r2, [r3, #8]
 435              	.LVL51:
  80:../switch_sdk/core/yt/yt_port.c **** 
 436              		.loc 1 80 5 is_stmt 0 discriminator 3 view .LVU119
 437 00b6 084B     		ldr	r3, .L45+20
 438 00b8 9968     		ldr	r1, [r3, #8]
 439              	.LVL52:
  80:../switch_sdk/core/yt/yt_port.c **** 
 440              		.loc 1 80 5 discriminator 3 view .LVU120
 441 00ba 0848     		ldr	r0, .L45+24
 442 00bc FFF7FEFF 		bl	osal_printf
 443              	.LVL53:
 444 00c0 F5E7     		b	.L34
 445              	.L46:
 446 00c2 00BF     		.align	2
 447              	.L45:
 448 00c4 00000000 		.word	gpfal_dispatch
 449 00c8 00000000 		.word	gcal_inited
 450 00cc 00000000 		.word	gpSwitchUnit
 451 00d0 00000000 		.word	yt_debug_level
 452 00d4 00000000 		.word	_yt_errmsg
 453 00d8 00000000 		.word	_yt_prompt_msg
 454 00dc 00000000 		.word	.LC0
 455              	.LBE9:
 456              		.cfi_endproc
 457              	.LFE5:
 459              		.section	.text.yt_port_link_status_get,"ax",%progbits
 460              		.align	1
 461              		.global	yt_port_link_status_get
 462              		.syntax unified
 463              		.thumb
 464              		.thumb_func
 466              	yt_port_link_status_get:
 467              	.LVL54:
 468              	.LFB6:
  84:../switch_sdk/core/yt/yt_port.c **** 
  85:../switch_sdk/core/yt/yt_port.c **** /**
  86:../switch_sdk/core/yt/yt_port.c ****  * @internal      yt_port_link_status_get
  87:../switch_sdk/core/yt/yt_port.c ****  * @endinternal
  88:../switch_sdk/core/yt/yt_port.c ****  *
  89:../switch_sdk/core/yt/yt_port.c ****  * @brief         Description
  90:../switch_sdk/core/yt/yt_port.c ****  * @note          APPLICABLE DEVICES  -Tiger
  91:../switch_sdk/core/yt/yt_port.c ****  * @param[in]     unit                -unit id
  92:../switch_sdk/core/yt/yt_port.c ****  * @param[in]     port                -port num
  93:../switch_sdk/core/yt/yt_port.c ****  * @param[out]    pLinkStatus         -x
  94:../switch_sdk/core/yt/yt_port.c ****  * @retval        CMM_ERR_OK          -on success
  95:../switch_sdk/core/yt/yt_port.c ****  * @retval        CMM_ERR_FAIL        -on fail
  96:../switch_sdk/core/yt/yt_port.c ****  */
  97:../switch_sdk/core/yt/yt_port.c **** yt_ret_t yt_port_link_status_get(yt_unit_t unit, yt_port_t port, yt_port_link_status_t *pLinkStatus
  98:../switch_sdk/core/yt/yt_port.c **** {
 469              		.loc 1 98 1 is_stmt 1 view -0
 470              		.cfi_startproc
 471              		@ args = 0, pretend = 0, frame = 0
 472              		@ frame_needed = 0, uses_anonymous_args = 0
 473              		.loc 1 98 1 is_stmt 0 view .LVU122
 474 0000 08B5     		push	{r3, lr}
 475              		.cfi_def_cfa_offset 8
 476              		.cfi_offset 3, -8
 477              		.cfi_offset 14, -4
  99:../switch_sdk/core/yt/yt_port.c ****     CMM_PARAM_CHK((YT_UNIT_NUM <= unit), CMM_ERR_INPUT);
 478              		.loc 1 99 5 is_stmt 1 view .LVU123
 479              		.loc 1 99 5 view .LVU124
 480 0002 C0B9     		cbnz	r0, .L61
 481 0004 8446     		mov	ip, r0
 482              		.loc 1 99 5 discriminator 2 view .LVU125
 100:../switch_sdk/core/yt/yt_port.c ****     CMM_PARAM_CHK(NULL == YT_DISPATCH(unit), CMM_ERR_NOT_INIT);
 483              		.loc 1 100 5 discriminator 2 view .LVU126
 484              		.loc 1 100 5 discriminator 2 view .LVU127
 485 0006 2F4B     		ldr	r3, .L70
 486 0008 53F82030 		ldr	r3, [r3, r0, lsl #2]
 487 000c 0BB3     		cbz	r3, .L62
 488              		.loc 1 100 5 discriminator 2 view .LVU128
 101:../switch_sdk/core/yt/yt_port.c ****     CMM_PARAM_CHK((!(YT_DISPATCH(unit)->is_inited)), CMM_ERR_NOT_INIT);
 489              		.loc 1 101 5 discriminator 2 view .LVU129
 490              		.loc 1 101 5 discriminator 2 view .LVU130
 491 000e 1878     		ldrb	r0, [r3]	@ zero_extendqisi2
 492              	.LVL55:
 493              		.loc 1 101 5 is_stmt 0 discriminator 2 view .LVU131
 494 0010 0028     		cmp	r0, #0
 495 0012 2CD0     		beq	.L63
 496              		.loc 1 101 5 is_stmt 1 discriminator 2 view .LVU132
 102:../switch_sdk/core/yt/yt_port.c ****     CMM_PARAM_CHK((!(CMM_PORT_VALID(unit, port))), CMM_ERR_PORT);
 497              		.loc 1 102 5 discriminator 2 view .LVU133
 498              		.loc 1 102 5 discriminator 2 view .LVU134
 499 0014 2C48     		ldr	r0, .L70+4
 500 0016 0078     		ldrb	r0, [r0]	@ zero_extendqisi2
 501 0018 0028     		cmp	r0, #0
 502 001a 36D0     		beq	.L55
 503 001c 2B48     		ldr	r0, .L70+8
 504 001e 50F82C00 		ldr	r0, [r0, ip, lsl #2]
 505 0022 007D     		ldrb	r0, [r0, #20]	@ zero_extendqisi2
 506 0024 8842     		cmp	r0, r1
 507 0026 30D9     		bls	.L55
 508              		.loc 1 102 5 discriminator 4 view .LVU135
 103:../switch_sdk/core/yt/yt_port.c ****     CMM_PARAM_CHK((NULL == pLinkStatus), CMM_ERR_NULL_POINT);
 509              		.loc 1 103 5 discriminator 4 view .LVU136
 510              		.loc 1 103 5 discriminator 4 view .LVU137
 511 0028 002A     		cmp	r2, #0
 512 002a 3CD0     		beq	.L64
 513              		.loc 1 103 5 discriminator 2 view .LVU138
 104:../switch_sdk/core/yt/yt_port.c **** 
 105:../switch_sdk/core/yt/yt_port.c ****     return YT_DISPATCH(unit)->port_link_status_get(unit, port, pLinkStatus);
 514              		.loc 1 105 5 discriminator 2 view .LVU139
 515              		.loc 1 105 29 is_stmt 0 discriminator 2 view .LVU140
 516 002c D3F85C35 		ldr	r3, [r3, #1372]
 517              		.loc 1 105 12 discriminator 2 view .LVU141
 518 0030 6046     		mov	r0, ip
 519 0032 9847     		blx	r3
 520              	.LVL56:
 521              	.L47:
 106:../switch_sdk/core/yt/yt_port.c **** }
 522              		.loc 1 106 1 view .LVU142
 523 0034 08BD     		pop	{r3, pc}
 524              	.LVL57:
 525              	.L61:
  99:../switch_sdk/core/yt/yt_port.c ****     CMM_PARAM_CHK(NULL == YT_DISPATCH(unit), CMM_ERR_NOT_INIT);
 526              		.loc 1 99 5 is_stmt 1 discriminator 1 view .LVU143
  99:../switch_sdk/core/yt/yt_port.c ****     CMM_PARAM_CHK(NULL == YT_DISPATCH(unit), CMM_ERR_NOT_INIT);
 527              		.loc 1 99 5 discriminator 1 view .LVU144
 528 0036 264B     		ldr	r3, .L70+12
 529 0038 1B78     		ldrb	r3, [r3]	@ zero_extendqisi2
 530 003a 012B     		cmp	r3, #1
 531 003c 01D8     		bhi	.L65
 532              	.LVL58:
 533              	.L49:
  99:../switch_sdk/core/yt/yt_port.c ****     CMM_PARAM_CHK(NULL == YT_DISPATCH(unit), CMM_ERR_NOT_INIT);
 534              		.loc 1 99 5 discriminator 5 view .LVU145
  99:../switch_sdk/core/yt/yt_port.c ****     CMM_PARAM_CHK(NULL == YT_DISPATCH(unit), CMM_ERR_NOT_INIT);
 535              		.loc 1 99 5 discriminator 5 view .LVU146
  99:../switch_sdk/core/yt/yt_port.c ****     CMM_PARAM_CHK(NULL == YT_DISPATCH(unit), CMM_ERR_NOT_INIT);
 536              		.loc 1 99 5 discriminator 5 view .LVU147
 537 003e 0520     		movs	r0, #5
 538 0040 F8E7     		b	.L47
 539              	.LVL59:
 540              	.L65:
  99:../switch_sdk/core/yt/yt_port.c ****     CMM_PARAM_CHK(NULL == YT_DISPATCH(unit), CMM_ERR_NOT_INIT);
 541              		.loc 1 99 5 discriminator 3 view .LVU148
 542              	.LBB10:
  99:../switch_sdk/core/yt/yt_port.c ****     CMM_PARAM_CHK(NULL == YT_DISPATCH(unit), CMM_ERR_NOT_INIT);
 543              		.loc 1 99 5 discriminator 3 view .LVU149
 544 0042 244B     		ldr	r3, .L70+16
 545 0044 5A69     		ldr	r2, [r3, #20]
 546              	.LVL60:
  99:../switch_sdk/core/yt/yt_port.c ****     CMM_PARAM_CHK(NULL == YT_DISPATCH(unit), CMM_ERR_NOT_INIT);
 547              		.loc 1 99 5 is_stmt 0 discriminator 3 view .LVU150
 548 0046 244B     		ldr	r3, .L70+20
 549 0048 9968     		ldr	r1, [r3, #8]
 550              	.LVL61:
  99:../switch_sdk/core/yt/yt_port.c ****     CMM_PARAM_CHK(NULL == YT_DISPATCH(unit), CMM_ERR_NOT_INIT);
 551              		.loc 1 99 5 discriminator 3 view .LVU151
 552 004a 2448     		ldr	r0, .L70+24
 553              	.LVL62:
  99:../switch_sdk/core/yt/yt_port.c ****     CMM_PARAM_CHK(NULL == YT_DISPATCH(unit), CMM_ERR_NOT_INIT);
 554              		.loc 1 99 5 discriminator 3 view .LVU152
 555 004c FFF7FEFF 		bl	osal_printf
 556              	.LVL63:
 557 0050 F5E7     		b	.L49
 558              	.LVL64:
 559              	.L62:
  99:../switch_sdk/core/yt/yt_port.c ****     CMM_PARAM_CHK(NULL == YT_DISPATCH(unit), CMM_ERR_NOT_INIT);
 560              		.loc 1 99 5 discriminator 3 view .LVU153
 561              	.LBE10:
 100:../switch_sdk/core/yt/yt_port.c ****     CMM_PARAM_CHK((!(YT_DISPATCH(unit)->is_inited)), CMM_ERR_NOT_INIT);
 562              		.loc 1 100 5 is_stmt 1 discriminator 1 view .LVU154
 100:../switch_sdk/core/yt/yt_port.c ****     CMM_PARAM_CHK((!(YT_DISPATCH(unit)->is_inited)), CMM_ERR_NOT_INIT);
 563              		.loc 1 100 5 discriminator 1 view .LVU155
 564 0052 1F4B     		ldr	r3, .L70+12
 565 0054 1B78     		ldrb	r3, [r3]	@ zero_extendqisi2
 566 0056 012B     		cmp	r3, #1
 567 0058 01D8     		bhi	.L66
 568              	.LVL65:
 569              	.L52:
 100:../switch_sdk/core/yt/yt_port.c ****     CMM_PARAM_CHK((!(YT_DISPATCH(unit)->is_inited)), CMM_ERR_NOT_INIT);
 570              		.loc 1 100 5 discriminator 5 view .LVU156
 100:../switch_sdk/core/yt/yt_port.c ****     CMM_PARAM_CHK((!(YT_DISPATCH(unit)->is_inited)), CMM_ERR_NOT_INIT);
 571              		.loc 1 100 5 discriminator 5 view .LVU157
 100:../switch_sdk/core/yt/yt_port.c ****     CMM_PARAM_CHK((!(YT_DISPATCH(unit)->is_inited)), CMM_ERR_NOT_INIT);
 572              		.loc 1 100 5 discriminator 5 view .LVU158
 573 005a 0420     		movs	r0, #4
 574 005c EAE7     		b	.L47
 575              	.LVL66:
 576              	.L66:
 100:../switch_sdk/core/yt/yt_port.c ****     CMM_PARAM_CHK((!(YT_DISPATCH(unit)->is_inited)), CMM_ERR_NOT_INIT);
 577              		.loc 1 100 5 discriminator 3 view .LVU159
 578              	.LBB11:
 100:../switch_sdk/core/yt/yt_port.c ****     CMM_PARAM_CHK((!(YT_DISPATCH(unit)->is_inited)), CMM_ERR_NOT_INIT);
 579              		.loc 1 100 5 discriminator 3 view .LVU160
 580 005e 1D4B     		ldr	r3, .L70+16
 581 0060 1A69     		ldr	r2, [r3, #16]
 582              	.LVL67:
 100:../switch_sdk/core/yt/yt_port.c ****     CMM_PARAM_CHK((!(YT_DISPATCH(unit)->is_inited)), CMM_ERR_NOT_INIT);
 583              		.loc 1 100 5 is_stmt 0 discriminator 3 view .LVU161
 584 0062 1D4B     		ldr	r3, .L70+20
 585 0064 9968     		ldr	r1, [r3, #8]
 586              	.LVL68:
 100:../switch_sdk/core/yt/yt_port.c ****     CMM_PARAM_CHK((!(YT_DISPATCH(unit)->is_inited)), CMM_ERR_NOT_INIT);
 587              		.loc 1 100 5 discriminator 3 view .LVU162
 588 0066 1D48     		ldr	r0, .L70+24
 589              	.LVL69:
 100:../switch_sdk/core/yt/yt_port.c ****     CMM_PARAM_CHK((!(YT_DISPATCH(unit)->is_inited)), CMM_ERR_NOT_INIT);
 590              		.loc 1 100 5 discriminator 3 view .LVU163
 591 0068 FFF7FEFF 		bl	osal_printf
 592              	.LVL70:
 593 006c F5E7     		b	.L52
 594              	.LVL71:
 595              	.L63:
 100:../switch_sdk/core/yt/yt_port.c ****     CMM_PARAM_CHK((!(YT_DISPATCH(unit)->is_inited)), CMM_ERR_NOT_INIT);
 596              		.loc 1 100 5 discriminator 3 view .LVU164
 597              	.LBE11:
 101:../switch_sdk/core/yt/yt_port.c ****     CMM_PARAM_CHK((!(CMM_PORT_VALID(unit, port))), CMM_ERR_PORT);
 598              		.loc 1 101 5 is_stmt 1 discriminator 1 view .LVU165
 101:../switch_sdk/core/yt/yt_port.c ****     CMM_PARAM_CHK((!(CMM_PORT_VALID(unit, port))), CMM_ERR_PORT);
 599              		.loc 1 101 5 discriminator 1 view .LVU166
 600 006e 184B     		ldr	r3, .L70+12
 601 0070 1B78     		ldrb	r3, [r3]	@ zero_extendqisi2
 602 0072 012B     		cmp	r3, #1
 603 0074 01D8     		bhi	.L67
 604              	.LVL72:
 605              	.L54:
 101:../switch_sdk/core/yt/yt_port.c ****     CMM_PARAM_CHK((!(CMM_PORT_VALID(unit, port))), CMM_ERR_PORT);
 606              		.loc 1 101 5 discriminator 5 view .LVU167
 101:../switch_sdk/core/yt/yt_port.c ****     CMM_PARAM_CHK((!(CMM_PORT_VALID(unit, port))), CMM_ERR_PORT);
 607              		.loc 1 101 5 discriminator 5 view .LVU168
 101:../switch_sdk/core/yt/yt_port.c ****     CMM_PARAM_CHK((!(CMM_PORT_VALID(unit, port))), CMM_ERR_PORT);
 608              		.loc 1 101 5 discriminator 5 view .LVU169
 609 0076 0420     		movs	r0, #4
 610 0078 DCE7     		b	.L47
 611              	.LVL73:
 612              	.L67:
 101:../switch_sdk/core/yt/yt_port.c ****     CMM_PARAM_CHK((!(CMM_PORT_VALID(unit, port))), CMM_ERR_PORT);
 613              		.loc 1 101 5 discriminator 3 view .LVU170
 614              	.LBB12:
 101:../switch_sdk/core/yt/yt_port.c ****     CMM_PARAM_CHK((!(CMM_PORT_VALID(unit, port))), CMM_ERR_PORT);
 615              		.loc 1 101 5 discriminator 3 view .LVU171
 616 007a 164B     		ldr	r3, .L70+16
 617 007c 1A69     		ldr	r2, [r3, #16]
 618              	.LVL74:
 101:../switch_sdk/core/yt/yt_port.c ****     CMM_PARAM_CHK((!(CMM_PORT_VALID(unit, port))), CMM_ERR_PORT);
 619              		.loc 1 101 5 is_stmt 0 discriminator 3 view .LVU172
 620 007e 164B     		ldr	r3, .L70+20
 621 0080 9968     		ldr	r1, [r3, #8]
 622              	.LVL75:
 101:../switch_sdk/core/yt/yt_port.c ****     CMM_PARAM_CHK((!(CMM_PORT_VALID(unit, port))), CMM_ERR_PORT);
 623              		.loc 1 101 5 discriminator 3 view .LVU173
 624 0082 1648     		ldr	r0, .L70+24
 625 0084 FFF7FEFF 		bl	osal_printf
 626              	.LVL76:
 627 0088 F5E7     		b	.L54
 628              	.LVL77:
 629              	.L55:
 101:../switch_sdk/core/yt/yt_port.c ****     CMM_PARAM_CHK((!(CMM_PORT_VALID(unit, port))), CMM_ERR_PORT);
 630              		.loc 1 101 5 discriminator 3 view .LVU174
 631              	.LBE12:
 102:../switch_sdk/core/yt/yt_port.c ****     CMM_PARAM_CHK((NULL == pLinkStatus), CMM_ERR_NULL_POINT);
 632              		.loc 1 102 5 is_stmt 1 discriminator 3 view .LVU175
 102:../switch_sdk/core/yt/yt_port.c ****     CMM_PARAM_CHK((NULL == pLinkStatus), CMM_ERR_NULL_POINT);
 633              		.loc 1 102 5 discriminator 3 view .LVU176
 634 008a 114B     		ldr	r3, .L70+12
 635 008c 1B78     		ldrb	r3, [r3]	@ zero_extendqisi2
 636 008e 012B     		cmp	r3, #1
 637 0090 01D8     		bhi	.L68
 638              	.LVL78:
 639              	.L57:
 102:../switch_sdk/core/yt/yt_port.c ****     CMM_PARAM_CHK((NULL == pLinkStatus), CMM_ERR_NULL_POINT);
 640              		.loc 1 102 5 discriminator 7 view .LVU177
 102:../switch_sdk/core/yt/yt_port.c ****     CMM_PARAM_CHK((NULL == pLinkStatus), CMM_ERR_NULL_POINT);
 641              		.loc 1 102 5 discriminator 7 view .LVU178
 102:../switch_sdk/core/yt/yt_port.c ****     CMM_PARAM_CHK((NULL == pLinkStatus), CMM_ERR_NULL_POINT);
 642              		.loc 1 102 5 discriminator 7 view .LVU179
 643 0092 0E20     		movs	r0, #14
 644 0094 CEE7     		b	.L47
 645              	.LVL79:
 646              	.L68:
 102:../switch_sdk/core/yt/yt_port.c ****     CMM_PARAM_CHK((NULL == pLinkStatus), CMM_ERR_NULL_POINT);
 647              		.loc 1 102 5 discriminator 5 view .LVU180
 648              	.LBB13:
 102:../switch_sdk/core/yt/yt_port.c ****     CMM_PARAM_CHK((NULL == pLinkStatus), CMM_ERR_NULL_POINT);
 649              		.loc 1 102 5 discriminator 5 view .LVU181
 650 0096 0F4B     		ldr	r3, .L70+16
 651 0098 9A6B     		ldr	r2, [r3, #56]
 652              	.LVL80:
 102:../switch_sdk/core/yt/yt_port.c ****     CMM_PARAM_CHK((NULL == pLinkStatus), CMM_ERR_NULL_POINT);
 653              		.loc 1 102 5 is_stmt 0 discriminator 5 view .LVU182
 654 009a 0F4B     		ldr	r3, .L70+20
 655 009c 9968     		ldr	r1, [r3, #8]
 656              	.LVL81:
 102:../switch_sdk/core/yt/yt_port.c ****     CMM_PARAM_CHK((NULL == pLinkStatus), CMM_ERR_NULL_POINT);
 657              		.loc 1 102 5 discriminator 5 view .LVU183
 658 009e 0F48     		ldr	r0, .L70+24
 659 00a0 FFF7FEFF 		bl	osal_printf
 660              	.LVL82:
 661 00a4 F5E7     		b	.L57
 662              	.LVL83:
 663              	.L64:
 102:../switch_sdk/core/yt/yt_port.c ****     CMM_PARAM_CHK((NULL == pLinkStatus), CMM_ERR_NULL_POINT);
 664              		.loc 1 102 5 discriminator 5 view .LVU184
 665              	.LBE13:
 103:../switch_sdk/core/yt/yt_port.c **** 
 666              		.loc 1 103 5 is_stmt 1 discriminator 1 view .LVU185
 103:../switch_sdk/core/yt/yt_port.c **** 
 667              		.loc 1 103 5 discriminator 1 view .LVU186
 668 00a6 0A4B     		ldr	r3, .L70+12
 669 00a8 1B78     		ldrb	r3, [r3]	@ zero_extendqisi2
 670 00aa 012B     		cmp	r3, #1
 671 00ac 01D8     		bhi	.L69
 672              	.LVL84:
 673              	.L59:
 103:../switch_sdk/core/yt/yt_port.c **** 
 674              		.loc 1 103 5 discriminator 5 view .LVU187
 103:../switch_sdk/core/yt/yt_port.c **** 
 675              		.loc 1 103 5 discriminator 5 view .LVU188
 103:../switch_sdk/core/yt/yt_port.c **** 
 676              		.loc 1 103 5 discriminator 5 view .LVU189
 677 00ae 0220     		movs	r0, #2
 678 00b0 C0E7     		b	.L47
 679              	.LVL85:
 680              	.L69:
 103:../switch_sdk/core/yt/yt_port.c **** 
 681              		.loc 1 103 5 discriminator 3 view .LVU190
 682              	.LBB14:
 103:../switch_sdk/core/yt/yt_port.c **** 
 683              		.loc 1 103 5 discriminator 3 view .LVU191
 684 00b2 084B     		ldr	r3, .L70+16
 685 00b4 9A68     		ldr	r2, [r3, #8]
 686              	.LVL86:
 103:../switch_sdk/core/yt/yt_port.c **** 
 687              		.loc 1 103 5 is_stmt 0 discriminator 3 view .LVU192
 688 00b6 084B     		ldr	r3, .L70+20
 689 00b8 9968     		ldr	r1, [r3, #8]
 690              	.LVL87:
 103:../switch_sdk/core/yt/yt_port.c **** 
 691              		.loc 1 103 5 discriminator 3 view .LVU193
 692 00ba 0848     		ldr	r0, .L70+24
 693 00bc FFF7FEFF 		bl	osal_printf
 694              	.LVL88:
 695 00c0 F5E7     		b	.L59
 696              	.L71:
 697 00c2 00BF     		.align	2
 698              	.L70:
 699 00c4 00000000 		.word	gpfal_dispatch
 700 00c8 00000000 		.word	gcal_inited
 701 00cc 00000000 		.word	gpSwitchUnit
 702 00d0 00000000 		.word	yt_debug_level
 703 00d4 00000000 		.word	_yt_errmsg
 704 00d8 00000000 		.word	_yt_prompt_msg
 705 00dc 00000000 		.word	.LC0
 706              	.LBE14:
 707              		.cfi_endproc
 708              	.LFE6:
 710              		.section	.text.yt_port_link_status_all_get,"ax",%progbits
 711              		.align	1
 712              		.global	yt_port_link_status_all_get
 713              		.syntax unified
 714              		.thumb
 715              		.thumb_func
 717              	yt_port_link_status_all_get:
 718              	.LVL89:
 719              	.LFB7:
 107:../switch_sdk/core/yt/yt_port.c **** 
 108:../switch_sdk/core/yt/yt_port.c **** /**
 109:../switch_sdk/core/yt/yt_port.c ****  * @internal      yt_port_link_status_all_get
 110:../switch_sdk/core/yt/yt_port.c ****  * @endinternal
 111:../switch_sdk/core/yt/yt_port.c ****  *
 112:../switch_sdk/core/yt/yt_port.c ****  * @brief         Description
 113:../switch_sdk/core/yt/yt_port.c ****  * @note          APPLICABLE DEVICES  -Tiger
 114:../switch_sdk/core/yt/yt_port.c ****  * @param[in]     unit                -unit id
 115:../switch_sdk/core/yt/yt_port.c ****  * @param[in]     port                -port num
 116:../switch_sdk/core/yt/yt_port.c ****  * @param[out]    pAllLinkStatus      -x
 117:../switch_sdk/core/yt/yt_port.c ****  * @retval        CMM_ERR_OK          -on success
 118:../switch_sdk/core/yt/yt_port.c ****  * @retval        CMM_ERR_FAIL        -on fail
 119:../switch_sdk/core/yt/yt_port.c ****  */
 120:../switch_sdk/core/yt/yt_port.c **** yt_ret_t yt_port_link_status_all_get(yt_unit_t unit, yt_port_t port, yt_port_linkStatus_all_t *pAll
 121:../switch_sdk/core/yt/yt_port.c **** {
 720              		.loc 1 121 1 is_stmt 1 view -0
 721              		.cfi_startproc
 722              		@ args = 0, pretend = 0, frame = 0
 723              		@ frame_needed = 0, uses_anonymous_args = 0
 724              		.loc 1 121 1 is_stmt 0 view .LVU195
 725 0000 08B5     		push	{r3, lr}
 726              		.cfi_def_cfa_offset 8
 727              		.cfi_offset 3, -8
 728              		.cfi_offset 14, -4
 122:../switch_sdk/core/yt/yt_port.c ****     CMM_PARAM_CHK((YT_UNIT_NUM <= unit), CMM_ERR_INPUT);
 729              		.loc 1 122 5 is_stmt 1 view .LVU196
 730              		.loc 1 122 5 view .LVU197
 731 0002 C0B9     		cbnz	r0, .L86
 732 0004 8446     		mov	ip, r0
 733              		.loc 1 122 5 discriminator 2 view .LVU198
 123:../switch_sdk/core/yt/yt_port.c ****     CMM_PARAM_CHK(NULL == YT_DISPATCH(unit), CMM_ERR_NOT_INIT);
 734              		.loc 1 123 5 discriminator 2 view .LVU199
 735              		.loc 1 123 5 discriminator 2 view .LVU200
 736 0006 2F4B     		ldr	r3, .L95
 737 0008 53F82030 		ldr	r3, [r3, r0, lsl #2]
 738 000c 0BB3     		cbz	r3, .L87
 739              		.loc 1 123 5 discriminator 2 view .LVU201
 124:../switch_sdk/core/yt/yt_port.c ****     CMM_PARAM_CHK((!(YT_DISPATCH(unit)->is_inited)), CMM_ERR_NOT_INIT);
 740              		.loc 1 124 5 discriminator 2 view .LVU202
 741              		.loc 1 124 5 discriminator 2 view .LVU203
 742 000e 1878     		ldrb	r0, [r3]	@ zero_extendqisi2
 743              	.LVL90:
 744              		.loc 1 124 5 is_stmt 0 discriminator 2 view .LVU204
 745 0010 0028     		cmp	r0, #0
 746 0012 2CD0     		beq	.L88
 747              		.loc 1 124 5 is_stmt 1 discriminator 2 view .LVU205
 125:../switch_sdk/core/yt/yt_port.c ****     CMM_PARAM_CHK((!(CMM_PORT_VALID(unit, port))), CMM_ERR_PORT);
 748              		.loc 1 125 5 discriminator 2 view .LVU206
 749              		.loc 1 125 5 discriminator 2 view .LVU207
 750 0014 2C48     		ldr	r0, .L95+4
 751 0016 0078     		ldrb	r0, [r0]	@ zero_extendqisi2
 752 0018 0028     		cmp	r0, #0
 753 001a 36D0     		beq	.L80
 754 001c 2B48     		ldr	r0, .L95+8
 755 001e 50F82C00 		ldr	r0, [r0, ip, lsl #2]
 756 0022 007D     		ldrb	r0, [r0, #20]	@ zero_extendqisi2
 757 0024 8842     		cmp	r0, r1
 758 0026 30D9     		bls	.L80
 759              		.loc 1 125 5 discriminator 4 view .LVU208
 126:../switch_sdk/core/yt/yt_port.c ****     CMM_PARAM_CHK((NULL == pAllLinkStatus), CMM_ERR_NULL_POINT);
 760              		.loc 1 126 5 discriminator 4 view .LVU209
 761              		.loc 1 126 5 discriminator 4 view .LVU210
 762 0028 002A     		cmp	r2, #0
 763 002a 3CD0     		beq	.L89
 764              		.loc 1 126 5 discriminator 2 view .LVU211
 127:../switch_sdk/core/yt/yt_port.c **** 
 128:../switch_sdk/core/yt/yt_port.c ****     return YT_DISPATCH(unit)->port_link_status_all_get(unit, port, pAllLinkStatus);
 765              		.loc 1 128 5 discriminator 2 view .LVU212
 766              		.loc 1 128 29 is_stmt 0 discriminator 2 view .LVU213
 767 002c D3F86035 		ldr	r3, [r3, #1376]
 768              		.loc 1 128 12 discriminator 2 view .LVU214
 769 0030 6046     		mov	r0, ip
 770 0032 9847     		blx	r3
 771              	.LVL91:
 772              	.L72:
 129:../switch_sdk/core/yt/yt_port.c **** }
 773              		.loc 1 129 1 view .LVU215
 774 0034 08BD     		pop	{r3, pc}
 775              	.LVL92:
 776              	.L86:
 122:../switch_sdk/core/yt/yt_port.c ****     CMM_PARAM_CHK(NULL == YT_DISPATCH(unit), CMM_ERR_NOT_INIT);
 777              		.loc 1 122 5 is_stmt 1 discriminator 1 view .LVU216
 122:../switch_sdk/core/yt/yt_port.c ****     CMM_PARAM_CHK(NULL == YT_DISPATCH(unit), CMM_ERR_NOT_INIT);
 778              		.loc 1 122 5 discriminator 1 view .LVU217
 779 0036 264B     		ldr	r3, .L95+12
 780 0038 1B78     		ldrb	r3, [r3]	@ zero_extendqisi2
 781 003a 012B     		cmp	r3, #1
 782 003c 01D8     		bhi	.L90
 783              	.LVL93:
 784              	.L74:
 122:../switch_sdk/core/yt/yt_port.c ****     CMM_PARAM_CHK(NULL == YT_DISPATCH(unit), CMM_ERR_NOT_INIT);
 785              		.loc 1 122 5 discriminator 5 view .LVU218
 122:../switch_sdk/core/yt/yt_port.c ****     CMM_PARAM_CHK(NULL == YT_DISPATCH(unit), CMM_ERR_NOT_INIT);
 786              		.loc 1 122 5 discriminator 5 view .LVU219
 122:../switch_sdk/core/yt/yt_port.c ****     CMM_PARAM_CHK(NULL == YT_DISPATCH(unit), CMM_ERR_NOT_INIT);
 787              		.loc 1 122 5 discriminator 5 view .LVU220
 788 003e 0520     		movs	r0, #5
 789 0040 F8E7     		b	.L72
 790              	.LVL94:
 791              	.L90:
 122:../switch_sdk/core/yt/yt_port.c ****     CMM_PARAM_CHK(NULL == YT_DISPATCH(unit), CMM_ERR_NOT_INIT);
 792              		.loc 1 122 5 discriminator 3 view .LVU221
 793              	.LBB15:
 122:../switch_sdk/core/yt/yt_port.c ****     CMM_PARAM_CHK(NULL == YT_DISPATCH(unit), CMM_ERR_NOT_INIT);
 794              		.loc 1 122 5 discriminator 3 view .LVU222
 795 0042 244B     		ldr	r3, .L95+16
 796 0044 5A69     		ldr	r2, [r3, #20]
 797              	.LVL95:
 122:../switch_sdk/core/yt/yt_port.c ****     CMM_PARAM_CHK(NULL == YT_DISPATCH(unit), CMM_ERR_NOT_INIT);
 798              		.loc 1 122 5 is_stmt 0 discriminator 3 view .LVU223
 799 0046 244B     		ldr	r3, .L95+20
 800 0048 9968     		ldr	r1, [r3, #8]
 801              	.LVL96:
 122:../switch_sdk/core/yt/yt_port.c ****     CMM_PARAM_CHK(NULL == YT_DISPATCH(unit), CMM_ERR_NOT_INIT);
 802              		.loc 1 122 5 discriminator 3 view .LVU224
 803 004a 2448     		ldr	r0, .L95+24
 804              	.LVL97:
 122:../switch_sdk/core/yt/yt_port.c ****     CMM_PARAM_CHK(NULL == YT_DISPATCH(unit), CMM_ERR_NOT_INIT);
 805              		.loc 1 122 5 discriminator 3 view .LVU225
 806 004c FFF7FEFF 		bl	osal_printf
 807              	.LVL98:
 808 0050 F5E7     		b	.L74
 809              	.LVL99:
 810              	.L87:
 122:../switch_sdk/core/yt/yt_port.c ****     CMM_PARAM_CHK(NULL == YT_DISPATCH(unit), CMM_ERR_NOT_INIT);
 811              		.loc 1 122 5 discriminator 3 view .LVU226
 812              	.LBE15:
 123:../switch_sdk/core/yt/yt_port.c ****     CMM_PARAM_CHK((!(YT_DISPATCH(unit)->is_inited)), CMM_ERR_NOT_INIT);
 813              		.loc 1 123 5 is_stmt 1 discriminator 1 view .LVU227
 123:../switch_sdk/core/yt/yt_port.c ****     CMM_PARAM_CHK((!(YT_DISPATCH(unit)->is_inited)), CMM_ERR_NOT_INIT);
 814              		.loc 1 123 5 discriminator 1 view .LVU228
 815 0052 1F4B     		ldr	r3, .L95+12
 816 0054 1B78     		ldrb	r3, [r3]	@ zero_extendqisi2
 817 0056 012B     		cmp	r3, #1
 818 0058 01D8     		bhi	.L91
 819              	.LVL100:
 820              	.L77:
 123:../switch_sdk/core/yt/yt_port.c ****     CMM_PARAM_CHK((!(YT_DISPATCH(unit)->is_inited)), CMM_ERR_NOT_INIT);
 821              		.loc 1 123 5 discriminator 5 view .LVU229
 123:../switch_sdk/core/yt/yt_port.c ****     CMM_PARAM_CHK((!(YT_DISPATCH(unit)->is_inited)), CMM_ERR_NOT_INIT);
 822              		.loc 1 123 5 discriminator 5 view .LVU230
 123:../switch_sdk/core/yt/yt_port.c ****     CMM_PARAM_CHK((!(YT_DISPATCH(unit)->is_inited)), CMM_ERR_NOT_INIT);
 823              		.loc 1 123 5 discriminator 5 view .LVU231
 824 005a 0420     		movs	r0, #4
 825 005c EAE7     		b	.L72
 826              	.LVL101:
 827              	.L91:
 123:../switch_sdk/core/yt/yt_port.c ****     CMM_PARAM_CHK((!(YT_DISPATCH(unit)->is_inited)), CMM_ERR_NOT_INIT);
 828              		.loc 1 123 5 discriminator 3 view .LVU232
 829              	.LBB16:
 123:../switch_sdk/core/yt/yt_port.c ****     CMM_PARAM_CHK((!(YT_DISPATCH(unit)->is_inited)), CMM_ERR_NOT_INIT);
 830              		.loc 1 123 5 discriminator 3 view .LVU233
 831 005e 1D4B     		ldr	r3, .L95+16
 832 0060 1A69     		ldr	r2, [r3, #16]
 833              	.LVL102:
 123:../switch_sdk/core/yt/yt_port.c ****     CMM_PARAM_CHK((!(YT_DISPATCH(unit)->is_inited)), CMM_ERR_NOT_INIT);
 834              		.loc 1 123 5 is_stmt 0 discriminator 3 view .LVU234
 835 0062 1D4B     		ldr	r3, .L95+20
 836 0064 9968     		ldr	r1, [r3, #8]
 837              	.LVL103:
 123:../switch_sdk/core/yt/yt_port.c ****     CMM_PARAM_CHK((!(YT_DISPATCH(unit)->is_inited)), CMM_ERR_NOT_INIT);
 838              		.loc 1 123 5 discriminator 3 view .LVU235
 839 0066 1D48     		ldr	r0, .L95+24
 840              	.LVL104:
 123:../switch_sdk/core/yt/yt_port.c ****     CMM_PARAM_CHK((!(YT_DISPATCH(unit)->is_inited)), CMM_ERR_NOT_INIT);
 841              		.loc 1 123 5 discriminator 3 view .LVU236
 842 0068 FFF7FEFF 		bl	osal_printf
 843              	.LVL105:
 844 006c F5E7     		b	.L77
 845              	.LVL106:
 846              	.L88:
 123:../switch_sdk/core/yt/yt_port.c ****     CMM_PARAM_CHK((!(YT_DISPATCH(unit)->is_inited)), CMM_ERR_NOT_INIT);
 847              		.loc 1 123 5 discriminator 3 view .LVU237
 848              	.LBE16:
 124:../switch_sdk/core/yt/yt_port.c ****     CMM_PARAM_CHK((!(CMM_PORT_VALID(unit, port))), CMM_ERR_PORT);
 849              		.loc 1 124 5 is_stmt 1 discriminator 1 view .LVU238
 124:../switch_sdk/core/yt/yt_port.c ****     CMM_PARAM_CHK((!(CMM_PORT_VALID(unit, port))), CMM_ERR_PORT);
 850              		.loc 1 124 5 discriminator 1 view .LVU239
 851 006e 184B     		ldr	r3, .L95+12
 852 0070 1B78     		ldrb	r3, [r3]	@ zero_extendqisi2
 853 0072 012B     		cmp	r3, #1
 854 0074 01D8     		bhi	.L92
 855              	.LVL107:
 856              	.L79:
 124:../switch_sdk/core/yt/yt_port.c ****     CMM_PARAM_CHK((!(CMM_PORT_VALID(unit, port))), CMM_ERR_PORT);
 857              		.loc 1 124 5 discriminator 5 view .LVU240
 124:../switch_sdk/core/yt/yt_port.c ****     CMM_PARAM_CHK((!(CMM_PORT_VALID(unit, port))), CMM_ERR_PORT);
 858              		.loc 1 124 5 discriminator 5 view .LVU241
 124:../switch_sdk/core/yt/yt_port.c ****     CMM_PARAM_CHK((!(CMM_PORT_VALID(unit, port))), CMM_ERR_PORT);
 859              		.loc 1 124 5 discriminator 5 view .LVU242
 860 0076 0420     		movs	r0, #4
 861 0078 DCE7     		b	.L72
 862              	.LVL108:
 863              	.L92:
 124:../switch_sdk/core/yt/yt_port.c ****     CMM_PARAM_CHK((!(CMM_PORT_VALID(unit, port))), CMM_ERR_PORT);
 864              		.loc 1 124 5 discriminator 3 view .LVU243
 865              	.LBB17:
 124:../switch_sdk/core/yt/yt_port.c ****     CMM_PARAM_CHK((!(CMM_PORT_VALID(unit, port))), CMM_ERR_PORT);
 866              		.loc 1 124 5 discriminator 3 view .LVU244
 867 007a 164B     		ldr	r3, .L95+16
 868 007c 1A69     		ldr	r2, [r3, #16]
 869              	.LVL109:
 124:../switch_sdk/core/yt/yt_port.c ****     CMM_PARAM_CHK((!(CMM_PORT_VALID(unit, port))), CMM_ERR_PORT);
 870              		.loc 1 124 5 is_stmt 0 discriminator 3 view .LVU245
 871 007e 164B     		ldr	r3, .L95+20
 872 0080 9968     		ldr	r1, [r3, #8]
 873              	.LVL110:
 124:../switch_sdk/core/yt/yt_port.c ****     CMM_PARAM_CHK((!(CMM_PORT_VALID(unit, port))), CMM_ERR_PORT);
 874              		.loc 1 124 5 discriminator 3 view .LVU246
 875 0082 1648     		ldr	r0, .L95+24
 876 0084 FFF7FEFF 		bl	osal_printf
 877              	.LVL111:
 878 0088 F5E7     		b	.L79
 879              	.LVL112:
 880              	.L80:
 124:../switch_sdk/core/yt/yt_port.c ****     CMM_PARAM_CHK((!(CMM_PORT_VALID(unit, port))), CMM_ERR_PORT);
 881              		.loc 1 124 5 discriminator 3 view .LVU247
 882              	.LBE17:
 125:../switch_sdk/core/yt/yt_port.c ****     CMM_PARAM_CHK((NULL == pAllLinkStatus), CMM_ERR_NULL_POINT);
 883              		.loc 1 125 5 is_stmt 1 discriminator 3 view .LVU248
 125:../switch_sdk/core/yt/yt_port.c ****     CMM_PARAM_CHK((NULL == pAllLinkStatus), CMM_ERR_NULL_POINT);
 884              		.loc 1 125 5 discriminator 3 view .LVU249
 885 008a 114B     		ldr	r3, .L95+12
 886 008c 1B78     		ldrb	r3, [r3]	@ zero_extendqisi2
 887 008e 012B     		cmp	r3, #1
 888 0090 01D8     		bhi	.L93
 889              	.LVL113:
 890              	.L82:
 125:../switch_sdk/core/yt/yt_port.c ****     CMM_PARAM_CHK((NULL == pAllLinkStatus), CMM_ERR_NULL_POINT);
 891              		.loc 1 125 5 discriminator 7 view .LVU250
 125:../switch_sdk/core/yt/yt_port.c ****     CMM_PARAM_CHK((NULL == pAllLinkStatus), CMM_ERR_NULL_POINT);
 892              		.loc 1 125 5 discriminator 7 view .LVU251
 125:../switch_sdk/core/yt/yt_port.c ****     CMM_PARAM_CHK((NULL == pAllLinkStatus), CMM_ERR_NULL_POINT);
 893              		.loc 1 125 5 discriminator 7 view .LVU252
 894 0092 0E20     		movs	r0, #14
 895 0094 CEE7     		b	.L72
 896              	.LVL114:
 897              	.L93:
 125:../switch_sdk/core/yt/yt_port.c ****     CMM_PARAM_CHK((NULL == pAllLinkStatus), CMM_ERR_NULL_POINT);
 898              		.loc 1 125 5 discriminator 5 view .LVU253
 899              	.LBB18:
 125:../switch_sdk/core/yt/yt_port.c ****     CMM_PARAM_CHK((NULL == pAllLinkStatus), CMM_ERR_NULL_POINT);
 900              		.loc 1 125 5 discriminator 5 view .LVU254
 901 0096 0F4B     		ldr	r3, .L95+16
 902 0098 9A6B     		ldr	r2, [r3, #56]
 903              	.LVL115:
 125:../switch_sdk/core/yt/yt_port.c ****     CMM_PARAM_CHK((NULL == pAllLinkStatus), CMM_ERR_NULL_POINT);
 904              		.loc 1 125 5 is_stmt 0 discriminator 5 view .LVU255
 905 009a 0F4B     		ldr	r3, .L95+20
 906 009c 9968     		ldr	r1, [r3, #8]
 907              	.LVL116:
 125:../switch_sdk/core/yt/yt_port.c ****     CMM_PARAM_CHK((NULL == pAllLinkStatus), CMM_ERR_NULL_POINT);
 908              		.loc 1 125 5 discriminator 5 view .LVU256
 909 009e 0F48     		ldr	r0, .L95+24
 910 00a0 FFF7FEFF 		bl	osal_printf
 911              	.LVL117:
 912 00a4 F5E7     		b	.L82
 913              	.LVL118:
 914              	.L89:
 125:../switch_sdk/core/yt/yt_port.c ****     CMM_PARAM_CHK((NULL == pAllLinkStatus), CMM_ERR_NULL_POINT);
 915              		.loc 1 125 5 discriminator 5 view .LVU257
 916              	.LBE18:
 126:../switch_sdk/core/yt/yt_port.c **** 
 917              		.loc 1 126 5 is_stmt 1 discriminator 1 view .LVU258
 126:../switch_sdk/core/yt/yt_port.c **** 
 918              		.loc 1 126 5 discriminator 1 view .LVU259
 919 00a6 0A4B     		ldr	r3, .L95+12
 920 00a8 1B78     		ldrb	r3, [r3]	@ zero_extendqisi2
 921 00aa 012B     		cmp	r3, #1
 922 00ac 01D8     		bhi	.L94
 923              	.LVL119:
 924              	.L84:
 126:../switch_sdk/core/yt/yt_port.c **** 
 925              		.loc 1 126 5 discriminator 5 view .LVU260
 126:../switch_sdk/core/yt/yt_port.c **** 
 926              		.loc 1 126 5 discriminator 5 view .LVU261
 126:../switch_sdk/core/yt/yt_port.c **** 
 927              		.loc 1 126 5 discriminator 5 view .LVU262
 928 00ae 0220     		movs	r0, #2
 929 00b0 C0E7     		b	.L72
 930              	.LVL120:
 931              	.L94:
 126:../switch_sdk/core/yt/yt_port.c **** 
 932              		.loc 1 126 5 discriminator 3 view .LVU263
 933              	.LBB19:
 126:../switch_sdk/core/yt/yt_port.c **** 
 934              		.loc 1 126 5 discriminator 3 view .LVU264
 935 00b2 084B     		ldr	r3, .L95+16
 936 00b4 9A68     		ldr	r2, [r3, #8]
 937              	.LVL121:
 126:../switch_sdk/core/yt/yt_port.c **** 
 938              		.loc 1 126 5 is_stmt 0 discriminator 3 view .LVU265
 939 00b6 084B     		ldr	r3, .L95+20
 940 00b8 9968     		ldr	r1, [r3, #8]
 941              	.LVL122:
 126:../switch_sdk/core/yt/yt_port.c **** 
 942              		.loc 1 126 5 discriminator 3 view .LVU266
 943 00ba 0848     		ldr	r0, .L95+24
 944 00bc FFF7FEFF 		bl	osal_printf
 945              	.LVL123:
 946 00c0 F5E7     		b	.L84
 947              	.L96:
 948 00c2 00BF     		.align	2
 949              	.L95:
 950 00c4 00000000 		.word	gpfal_dispatch
 951 00c8 00000000 		.word	gcal_inited
 952 00cc 00000000 		.word	gpSwitchUnit
 953 00d0 00000000 		.word	yt_debug_level
 954 00d4 00000000 		.word	_yt_errmsg
 955 00d8 00000000 		.word	_yt_prompt_msg
 956 00dc 00000000 		.word	.LC0
 957              	.LBE19:
 958              		.cfi_endproc
 959              	.LFE7:
 961              		.section	.text.yt_port_backpress_enable_set,"ax",%progbits
 962              		.align	1
 963              		.global	yt_port_backpress_enable_set
 964              		.syntax unified
 965              		.thumb
 966              		.thumb_func
 968              	yt_port_backpress_enable_set:
 969              	.LVL124:
 970              	.LFB8:
 130:../switch_sdk/core/yt/yt_port.c **** 
 131:../switch_sdk/core/yt/yt_port.c **** /**
 132:../switch_sdk/core/yt/yt_port.c ****  * @internal      yt_port_backpress_enable_set
 133:../switch_sdk/core/yt/yt_port.c ****  * @endinternal
 134:../switch_sdk/core/yt/yt_port.c ****  *
 135:../switch_sdk/core/yt/yt_port.c ****  * @brief         Description
 136:../switch_sdk/core/yt/yt_port.c ****  * @note          APPLICABLE DEVICES  -Tiger
 137:../switch_sdk/core/yt/yt_port.c ****  * @param[in]     unit                -unit id
 138:../switch_sdk/core/yt/yt_port.c ****  * @param[in]     port                -port num
 139:../switch_sdk/core/yt/yt_port.c ****  * @param[in]     enable              -enable or disable
 140:../switch_sdk/core/yt/yt_port.c ****  * @retval        CMM_ERR_OK          -on success
 141:../switch_sdk/core/yt/yt_port.c ****  * @retval        CMM_ERR_FAIL        -on fail
 142:../switch_sdk/core/yt/yt_port.c ****  */
 143:../switch_sdk/core/yt/yt_port.c **** yt_ret_t yt_port_backpress_enable_set(yt_unit_t unit, yt_port_t port, yt_enable_t enable)
 144:../switch_sdk/core/yt/yt_port.c **** {
 971              		.loc 1 144 1 is_stmt 1 view -0
 972              		.cfi_startproc
 973              		@ args = 0, pretend = 0, frame = 0
 974              		@ frame_needed = 0, uses_anonymous_args = 0
 975              		.loc 1 144 1 is_stmt 0 view .LVU268
 976 0000 08B5     		push	{r3, lr}
 977              		.cfi_def_cfa_offset 8
 978              		.cfi_offset 3, -8
 979              		.cfi_offset 14, -4
 145:../switch_sdk/core/yt/yt_port.c ****     CMM_PARAM_CHK((YT_UNIT_NUM <= unit), CMM_ERR_INPUT);
 980              		.loc 1 145 5 is_stmt 1 view .LVU269
 981              		.loc 1 145 5 view .LVU270
 982 0002 C0B9     		cbnz	r0, .L111
 983 0004 8446     		mov	ip, r0
 984              		.loc 1 145 5 discriminator 2 view .LVU271
 146:../switch_sdk/core/yt/yt_port.c ****     CMM_PARAM_CHK(NULL == YT_DISPATCH(unit), CMM_ERR_NOT_INIT);
 985              		.loc 1 146 5 discriminator 2 view .LVU272
 986              		.loc 1 146 5 discriminator 2 view .LVU273
 987 0006 2F4B     		ldr	r3, .L120
 988 0008 53F82030 		ldr	r3, [r3, r0, lsl #2]
 989 000c 0BB3     		cbz	r3, .L112
 990              		.loc 1 146 5 discriminator 2 view .LVU274
 147:../switch_sdk/core/yt/yt_port.c ****     CMM_PARAM_CHK((!(YT_DISPATCH(unit)->is_inited)), CMM_ERR_NOT_INIT);
 991              		.loc 1 147 5 discriminator 2 view .LVU275
 992              		.loc 1 147 5 discriminator 2 view .LVU276
 993 000e 1878     		ldrb	r0, [r3]	@ zero_extendqisi2
 994              	.LVL125:
 995              		.loc 1 147 5 is_stmt 0 discriminator 2 view .LVU277
 996 0010 0028     		cmp	r0, #0
 997 0012 2CD0     		beq	.L113
 998              		.loc 1 147 5 is_stmt 1 discriminator 2 view .LVU278
 148:../switch_sdk/core/yt/yt_port.c ****     CMM_PARAM_CHK((!(CMM_PORT_VALID(unit, port))), CMM_ERR_PORT);
 999              		.loc 1 148 5 discriminator 2 view .LVU279
 1000              		.loc 1 148 5 discriminator 2 view .LVU280
 1001 0014 2C48     		ldr	r0, .L120+4
 1002 0016 0078     		ldrb	r0, [r0]	@ zero_extendqisi2
 1003 0018 0028     		cmp	r0, #0
 1004 001a 36D0     		beq	.L105
 1005 001c 2B48     		ldr	r0, .L120+8
 1006 001e 50F82C00 		ldr	r0, [r0, ip, lsl #2]
 1007 0022 007D     		ldrb	r0, [r0, #20]	@ zero_extendqisi2
 1008 0024 8842     		cmp	r0, r1
 1009 0026 30D9     		bls	.L105
 1010              		.loc 1 148 5 discriminator 4 view .LVU281
 149:../switch_sdk/core/yt/yt_port.c ****     CMM_PARAM_CHK((YT_ENABLE < enable || YT_DISABLE > enable), CMM_ERR_INPUT);
 1011              		.loc 1 149 5 discriminator 4 view .LVU282
 1012              		.loc 1 149 5 discriminator 4 view .LVU283
 1013 0028 012A     		cmp	r2, #1
 1014 002a 3CD8     		bhi	.L114
 1015              		.loc 1 149 5 discriminator 2 view .LVU284
 150:../switch_sdk/core/yt/yt_port.c **** 
 151:../switch_sdk/core/yt/yt_port.c ****     return YT_DISPATCH(unit)->port_backpress_enable_set(unit, port, enable);
 1016              		.loc 1 151 5 discriminator 2 view .LVU285
 1017              		.loc 1 151 29 is_stmt 0 discriminator 2 view .LVU286
 1018 002c D3F86435 		ldr	r3, [r3, #1380]
 1019              		.loc 1 151 12 discriminator 2 view .LVU287
 1020 0030 6046     		mov	r0, ip
 1021 0032 9847     		blx	r3
 1022              	.LVL126:
 1023              	.L97:
 152:../switch_sdk/core/yt/yt_port.c **** }
 1024              		.loc 1 152 1 view .LVU288
 1025 0034 08BD     		pop	{r3, pc}
 1026              	.LVL127:
 1027              	.L111:
 145:../switch_sdk/core/yt/yt_port.c ****     CMM_PARAM_CHK(NULL == YT_DISPATCH(unit), CMM_ERR_NOT_INIT);
 1028              		.loc 1 145 5 is_stmt 1 discriminator 1 view .LVU289
 145:../switch_sdk/core/yt/yt_port.c ****     CMM_PARAM_CHK(NULL == YT_DISPATCH(unit), CMM_ERR_NOT_INIT);
 1029              		.loc 1 145 5 discriminator 1 view .LVU290
 1030 0036 264B     		ldr	r3, .L120+12
 1031 0038 1B78     		ldrb	r3, [r3]	@ zero_extendqisi2
 1032 003a 012B     		cmp	r3, #1
 1033 003c 01D8     		bhi	.L115
 1034              	.LVL128:
 1035              	.L99:
 145:../switch_sdk/core/yt/yt_port.c ****     CMM_PARAM_CHK(NULL == YT_DISPATCH(unit), CMM_ERR_NOT_INIT);
 1036              		.loc 1 145 5 discriminator 5 view .LVU291
 145:../switch_sdk/core/yt/yt_port.c ****     CMM_PARAM_CHK(NULL == YT_DISPATCH(unit), CMM_ERR_NOT_INIT);
 1037              		.loc 1 145 5 discriminator 5 view .LVU292
 145:../switch_sdk/core/yt/yt_port.c ****     CMM_PARAM_CHK(NULL == YT_DISPATCH(unit), CMM_ERR_NOT_INIT);
 1038              		.loc 1 145 5 discriminator 5 view .LVU293
 1039 003e 0520     		movs	r0, #5
 1040 0040 F8E7     		b	.L97
 1041              	.LVL129:
 1042              	.L115:
 145:../switch_sdk/core/yt/yt_port.c ****     CMM_PARAM_CHK(NULL == YT_DISPATCH(unit), CMM_ERR_NOT_INIT);
 1043              		.loc 1 145 5 discriminator 3 view .LVU294
 1044              	.LBB20:
 145:../switch_sdk/core/yt/yt_port.c ****     CMM_PARAM_CHK(NULL == YT_DISPATCH(unit), CMM_ERR_NOT_INIT);
 1045              		.loc 1 145 5 discriminator 3 view .LVU295
 1046 0042 244B     		ldr	r3, .L120+16
 1047 0044 5A69     		ldr	r2, [r3, #20]
 1048              	.LVL130:
 145:../switch_sdk/core/yt/yt_port.c ****     CMM_PARAM_CHK(NULL == YT_DISPATCH(unit), CMM_ERR_NOT_INIT);
 1049              		.loc 1 145 5 is_stmt 0 discriminator 3 view .LVU296
 1050 0046 244B     		ldr	r3, .L120+20
 1051 0048 9968     		ldr	r1, [r3, #8]
 1052              	.LVL131:
 145:../switch_sdk/core/yt/yt_port.c ****     CMM_PARAM_CHK(NULL == YT_DISPATCH(unit), CMM_ERR_NOT_INIT);
 1053              		.loc 1 145 5 discriminator 3 view .LVU297
 1054 004a 2448     		ldr	r0, .L120+24
 1055              	.LVL132:
 145:../switch_sdk/core/yt/yt_port.c ****     CMM_PARAM_CHK(NULL == YT_DISPATCH(unit), CMM_ERR_NOT_INIT);
 1056              		.loc 1 145 5 discriminator 3 view .LVU298
 1057 004c FFF7FEFF 		bl	osal_printf
 1058              	.LVL133:
 1059 0050 F5E7     		b	.L99
 1060              	.LVL134:
 1061              	.L112:
 145:../switch_sdk/core/yt/yt_port.c ****     CMM_PARAM_CHK(NULL == YT_DISPATCH(unit), CMM_ERR_NOT_INIT);
 1062              		.loc 1 145 5 discriminator 3 view .LVU299
 1063              	.LBE20:
 146:../switch_sdk/core/yt/yt_port.c ****     CMM_PARAM_CHK((!(YT_DISPATCH(unit)->is_inited)), CMM_ERR_NOT_INIT);
 1064              		.loc 1 146 5 is_stmt 1 discriminator 1 view .LVU300
 146:../switch_sdk/core/yt/yt_port.c ****     CMM_PARAM_CHK((!(YT_DISPATCH(unit)->is_inited)), CMM_ERR_NOT_INIT);
 1065              		.loc 1 146 5 discriminator 1 view .LVU301
 1066 0052 1F4B     		ldr	r3, .L120+12
 1067 0054 1B78     		ldrb	r3, [r3]	@ zero_extendqisi2
 1068 0056 012B     		cmp	r3, #1
 1069 0058 01D8     		bhi	.L116
 1070              	.LVL135:
 1071              	.L102:
 146:../switch_sdk/core/yt/yt_port.c ****     CMM_PARAM_CHK((!(YT_DISPATCH(unit)->is_inited)), CMM_ERR_NOT_INIT);
 1072              		.loc 1 146 5 discriminator 5 view .LVU302
 146:../switch_sdk/core/yt/yt_port.c ****     CMM_PARAM_CHK((!(YT_DISPATCH(unit)->is_inited)), CMM_ERR_NOT_INIT);
 1073              		.loc 1 146 5 discriminator 5 view .LVU303
 146:../switch_sdk/core/yt/yt_port.c ****     CMM_PARAM_CHK((!(YT_DISPATCH(unit)->is_inited)), CMM_ERR_NOT_INIT);
 1074              		.loc 1 146 5 discriminator 5 view .LVU304
 1075 005a 0420     		movs	r0, #4
 1076 005c EAE7     		b	.L97
 1077              	.LVL136:
 1078              	.L116:
 146:../switch_sdk/core/yt/yt_port.c ****     CMM_PARAM_CHK((!(YT_DISPATCH(unit)->is_inited)), CMM_ERR_NOT_INIT);
 1079              		.loc 1 146 5 discriminator 3 view .LVU305
 1080              	.LBB21:
 146:../switch_sdk/core/yt/yt_port.c ****     CMM_PARAM_CHK((!(YT_DISPATCH(unit)->is_inited)), CMM_ERR_NOT_INIT);
 1081              		.loc 1 146 5 discriminator 3 view .LVU306
 1082 005e 1D4B     		ldr	r3, .L120+16
 1083 0060 1A69     		ldr	r2, [r3, #16]
 1084              	.LVL137:
 146:../switch_sdk/core/yt/yt_port.c ****     CMM_PARAM_CHK((!(YT_DISPATCH(unit)->is_inited)), CMM_ERR_NOT_INIT);
 1085              		.loc 1 146 5 is_stmt 0 discriminator 3 view .LVU307
 1086 0062 1D4B     		ldr	r3, .L120+20
 1087 0064 9968     		ldr	r1, [r3, #8]
 1088              	.LVL138:
 146:../switch_sdk/core/yt/yt_port.c ****     CMM_PARAM_CHK((!(YT_DISPATCH(unit)->is_inited)), CMM_ERR_NOT_INIT);
 1089              		.loc 1 146 5 discriminator 3 view .LVU308
 1090 0066 1D48     		ldr	r0, .L120+24
 1091              	.LVL139:
 146:../switch_sdk/core/yt/yt_port.c ****     CMM_PARAM_CHK((!(YT_DISPATCH(unit)->is_inited)), CMM_ERR_NOT_INIT);
 1092              		.loc 1 146 5 discriminator 3 view .LVU309
 1093 0068 FFF7FEFF 		bl	osal_printf
 1094              	.LVL140:
 1095 006c F5E7     		b	.L102
 1096              	.LVL141:
 1097              	.L113:
 146:../switch_sdk/core/yt/yt_port.c ****     CMM_PARAM_CHK((!(YT_DISPATCH(unit)->is_inited)), CMM_ERR_NOT_INIT);
 1098              		.loc 1 146 5 discriminator 3 view .LVU310
 1099              	.LBE21:
 147:../switch_sdk/core/yt/yt_port.c ****     CMM_PARAM_CHK((!(CMM_PORT_VALID(unit, port))), CMM_ERR_PORT);
 1100              		.loc 1 147 5 is_stmt 1 discriminator 1 view .LVU311
 147:../switch_sdk/core/yt/yt_port.c ****     CMM_PARAM_CHK((!(CMM_PORT_VALID(unit, port))), CMM_ERR_PORT);
 1101              		.loc 1 147 5 discriminator 1 view .LVU312
 1102 006e 184B     		ldr	r3, .L120+12
 1103 0070 1B78     		ldrb	r3, [r3]	@ zero_extendqisi2
 1104 0072 012B     		cmp	r3, #1
 1105 0074 01D8     		bhi	.L117
 1106              	.LVL142:
 1107              	.L104:
 147:../switch_sdk/core/yt/yt_port.c ****     CMM_PARAM_CHK((!(CMM_PORT_VALID(unit, port))), CMM_ERR_PORT);
 1108              		.loc 1 147 5 discriminator 5 view .LVU313
 147:../switch_sdk/core/yt/yt_port.c ****     CMM_PARAM_CHK((!(CMM_PORT_VALID(unit, port))), CMM_ERR_PORT);
 1109              		.loc 1 147 5 discriminator 5 view .LVU314
 147:../switch_sdk/core/yt/yt_port.c ****     CMM_PARAM_CHK((!(CMM_PORT_VALID(unit, port))), CMM_ERR_PORT);
 1110              		.loc 1 147 5 discriminator 5 view .LVU315
 1111 0076 0420     		movs	r0, #4
 1112 0078 DCE7     		b	.L97
 1113              	.LVL143:
 1114              	.L117:
 147:../switch_sdk/core/yt/yt_port.c ****     CMM_PARAM_CHK((!(CMM_PORT_VALID(unit, port))), CMM_ERR_PORT);
 1115              		.loc 1 147 5 discriminator 3 view .LVU316
 1116              	.LBB22:
 147:../switch_sdk/core/yt/yt_port.c ****     CMM_PARAM_CHK((!(CMM_PORT_VALID(unit, port))), CMM_ERR_PORT);
 1117              		.loc 1 147 5 discriminator 3 view .LVU317
 1118 007a 164B     		ldr	r3, .L120+16
 1119 007c 1A69     		ldr	r2, [r3, #16]
 1120              	.LVL144:
 147:../switch_sdk/core/yt/yt_port.c ****     CMM_PARAM_CHK((!(CMM_PORT_VALID(unit, port))), CMM_ERR_PORT);
 1121              		.loc 1 147 5 is_stmt 0 discriminator 3 view .LVU318
 1122 007e 164B     		ldr	r3, .L120+20
 1123 0080 9968     		ldr	r1, [r3, #8]
 1124              	.LVL145:
 147:../switch_sdk/core/yt/yt_port.c ****     CMM_PARAM_CHK((!(CMM_PORT_VALID(unit, port))), CMM_ERR_PORT);
 1125              		.loc 1 147 5 discriminator 3 view .LVU319
 1126 0082 1648     		ldr	r0, .L120+24
 1127 0084 FFF7FEFF 		bl	osal_printf
 1128              	.LVL146:
 1129 0088 F5E7     		b	.L104
 1130              	.LVL147:
 1131              	.L105:
 147:../switch_sdk/core/yt/yt_port.c ****     CMM_PARAM_CHK((!(CMM_PORT_VALID(unit, port))), CMM_ERR_PORT);
 1132              		.loc 1 147 5 discriminator 3 view .LVU320
 1133              	.LBE22:
 148:../switch_sdk/core/yt/yt_port.c ****     CMM_PARAM_CHK((YT_ENABLE < enable || YT_DISABLE > enable), CMM_ERR_INPUT);
 1134              		.loc 1 148 5 is_stmt 1 discriminator 3 view .LVU321
 148:../switch_sdk/core/yt/yt_port.c ****     CMM_PARAM_CHK((YT_ENABLE < enable || YT_DISABLE > enable), CMM_ERR_INPUT);
 1135              		.loc 1 148 5 discriminator 3 view .LVU322
 1136 008a 114B     		ldr	r3, .L120+12
 1137 008c 1B78     		ldrb	r3, [r3]	@ zero_extendqisi2
 1138 008e 012B     		cmp	r3, #1
 1139 0090 01D8     		bhi	.L118
 1140              	.LVL148:
 1141              	.L107:
 148:../switch_sdk/core/yt/yt_port.c ****     CMM_PARAM_CHK((YT_ENABLE < enable || YT_DISABLE > enable), CMM_ERR_INPUT);
 1142              		.loc 1 148 5 discriminator 7 view .LVU323
 148:../switch_sdk/core/yt/yt_port.c ****     CMM_PARAM_CHK((YT_ENABLE < enable || YT_DISABLE > enable), CMM_ERR_INPUT);
 1143              		.loc 1 148 5 discriminator 7 view .LVU324
 148:../switch_sdk/core/yt/yt_port.c ****     CMM_PARAM_CHK((YT_ENABLE < enable || YT_DISABLE > enable), CMM_ERR_INPUT);
 1144              		.loc 1 148 5 discriminator 7 view .LVU325
 1145 0092 0E20     		movs	r0, #14
 1146 0094 CEE7     		b	.L97
 1147              	.LVL149:
 1148              	.L118:
 148:../switch_sdk/core/yt/yt_port.c ****     CMM_PARAM_CHK((YT_ENABLE < enable || YT_DISABLE > enable), CMM_ERR_INPUT);
 1149              		.loc 1 148 5 discriminator 5 view .LVU326
 1150              	.LBB23:
 148:../switch_sdk/core/yt/yt_port.c ****     CMM_PARAM_CHK((YT_ENABLE < enable || YT_DISABLE > enable), CMM_ERR_INPUT);
 1151              		.loc 1 148 5 discriminator 5 view .LVU327
 1152 0096 0F4B     		ldr	r3, .L120+16
 1153 0098 9A6B     		ldr	r2, [r3, #56]
 1154              	.LVL150:
 148:../switch_sdk/core/yt/yt_port.c ****     CMM_PARAM_CHK((YT_ENABLE < enable || YT_DISABLE > enable), CMM_ERR_INPUT);
 1155              		.loc 1 148 5 is_stmt 0 discriminator 5 view .LVU328
 1156 009a 0F4B     		ldr	r3, .L120+20
 1157 009c 9968     		ldr	r1, [r3, #8]
 1158              	.LVL151:
 148:../switch_sdk/core/yt/yt_port.c ****     CMM_PARAM_CHK((YT_ENABLE < enable || YT_DISABLE > enable), CMM_ERR_INPUT);
 1159              		.loc 1 148 5 discriminator 5 view .LVU329
 1160 009e 0F48     		ldr	r0, .L120+24
 1161 00a0 FFF7FEFF 		bl	osal_printf
 1162              	.LVL152:
 1163 00a4 F5E7     		b	.L107
 1164              	.LVL153:
 1165              	.L114:
 148:../switch_sdk/core/yt/yt_port.c ****     CMM_PARAM_CHK((YT_ENABLE < enable || YT_DISABLE > enable), CMM_ERR_INPUT);
 1166              		.loc 1 148 5 discriminator 5 view .LVU330
 1167              	.LBE23:
 149:../switch_sdk/core/yt/yt_port.c **** 
 1168              		.loc 1 149 5 is_stmt 1 discriminator 1 view .LVU331
 149:../switch_sdk/core/yt/yt_port.c **** 
 1169              		.loc 1 149 5 discriminator 1 view .LVU332
 1170 00a6 0A4B     		ldr	r3, .L120+12
 1171 00a8 1B78     		ldrb	r3, [r3]	@ zero_extendqisi2
 1172 00aa 012B     		cmp	r3, #1
 1173 00ac 01D8     		bhi	.L119
 1174              	.LVL154:
 1175              	.L109:
 149:../switch_sdk/core/yt/yt_port.c **** 
 1176              		.loc 1 149 5 discriminator 5 view .LVU333
 149:../switch_sdk/core/yt/yt_port.c **** 
 1177              		.loc 1 149 5 discriminator 5 view .LVU334
 149:../switch_sdk/core/yt/yt_port.c **** 
 1178              		.loc 1 149 5 discriminator 5 view .LVU335
 1179 00ae 0520     		movs	r0, #5
 1180 00b0 C0E7     		b	.L97
 1181              	.LVL155:
 1182              	.L119:
 149:../switch_sdk/core/yt/yt_port.c **** 
 1183              		.loc 1 149 5 discriminator 3 view .LVU336
 1184              	.LBB24:
 149:../switch_sdk/core/yt/yt_port.c **** 
 1185              		.loc 1 149 5 discriminator 3 view .LVU337
 1186 00b2 084B     		ldr	r3, .L120+16
 1187 00b4 5A69     		ldr	r2, [r3, #20]
 1188              	.LVL156:
 149:../switch_sdk/core/yt/yt_port.c **** 
 1189              		.loc 1 149 5 is_stmt 0 discriminator 3 view .LVU338
 1190 00b6 084B     		ldr	r3, .L120+20
 1191 00b8 9968     		ldr	r1, [r3, #8]
 1192              	.LVL157:
 149:../switch_sdk/core/yt/yt_port.c **** 
 1193              		.loc 1 149 5 discriminator 3 view .LVU339
 1194 00ba 0848     		ldr	r0, .L120+24
 1195 00bc FFF7FEFF 		bl	osal_printf
 1196              	.LVL158:
 1197 00c0 F5E7     		b	.L109
 1198              	.L121:
 1199 00c2 00BF     		.align	2
 1200              	.L120:
 1201 00c4 00000000 		.word	gpfal_dispatch
 1202 00c8 00000000 		.word	gcal_inited
 1203 00cc 00000000 		.word	gpSwitchUnit
 1204 00d0 00000000 		.word	yt_debug_level
 1205 00d4 00000000 		.word	_yt_errmsg
 1206 00d8 00000000 		.word	_yt_prompt_msg
 1207 00dc 00000000 		.word	.LC0
 1208              	.LBE24:
 1209              		.cfi_endproc
 1210              	.LFE8:
 1212              		.section	.text.yt_port_backpress_enable_get,"ax",%progbits
 1213              		.align	1
 1214              		.global	yt_port_backpress_enable_get
 1215              		.syntax unified
 1216              		.thumb
 1217              		.thumb_func
 1219              	yt_port_backpress_enable_get:
 1220              	.LVL159:
 1221              	.LFB9:
 153:../switch_sdk/core/yt/yt_port.c **** 
 154:../switch_sdk/core/yt/yt_port.c **** /**
 155:../switch_sdk/core/yt/yt_port.c ****  * @internal      yt_port_backpress_enable_get
 156:../switch_sdk/core/yt/yt_port.c ****  * @endinternal
 157:../switch_sdk/core/yt/yt_port.c ****  *
 158:../switch_sdk/core/yt/yt_port.c ****  * @brief         Description
 159:../switch_sdk/core/yt/yt_port.c ****  * @note          APPLICABLE DEVICES  -Tiger
 160:../switch_sdk/core/yt/yt_port.c ****  * @param[in]     unit                -unit id
 161:../switch_sdk/core/yt/yt_port.c ****  * @param[in]     port                -port num
 162:../switch_sdk/core/yt/yt_port.c ****  * @param[out]    pEnable             -enable or disable
 163:../switch_sdk/core/yt/yt_port.c ****  * @retval        CMM_ERR_OK          -on success
 164:../switch_sdk/core/yt/yt_port.c ****  * @retval        CMM_ERR_FAIL        -on fail
 165:../switch_sdk/core/yt/yt_port.c ****  */
 166:../switch_sdk/core/yt/yt_port.c **** yt_ret_t yt_port_backpress_enable_get(yt_unit_t unit, yt_port_t port, yt_enable_t *pEnable)
 167:../switch_sdk/core/yt/yt_port.c **** {
 1222              		.loc 1 167 1 is_stmt 1 view -0
 1223              		.cfi_startproc
 1224              		@ args = 0, pretend = 0, frame = 0
 1225              		@ frame_needed = 0, uses_anonymous_args = 0
 1226              		.loc 1 167 1 is_stmt 0 view .LVU341
 1227 0000 08B5     		push	{r3, lr}
 1228              		.cfi_def_cfa_offset 8
 1229              		.cfi_offset 3, -8
 1230              		.cfi_offset 14, -4
 168:../switch_sdk/core/yt/yt_port.c ****     CMM_PARAM_CHK((YT_UNIT_NUM <= unit), CMM_ERR_INPUT);
 1231              		.loc 1 168 5 is_stmt 1 view .LVU342
 1232              		.loc 1 168 5 view .LVU343
 1233 0002 C0B9     		cbnz	r0, .L136
 1234 0004 8446     		mov	ip, r0
 1235              		.loc 1 168 5 discriminator 2 view .LVU344
 169:../switch_sdk/core/yt/yt_port.c ****     CMM_PARAM_CHK(NULL == YT_DISPATCH(unit), CMM_ERR_NOT_INIT);
 1236              		.loc 1 169 5 discriminator 2 view .LVU345
 1237              		.loc 1 169 5 discriminator 2 view .LVU346
 1238 0006 2F4B     		ldr	r3, .L145
 1239 0008 53F82030 		ldr	r3, [r3, r0, lsl #2]
 1240 000c 0BB3     		cbz	r3, .L137
 1241              		.loc 1 169 5 discriminator 2 view .LVU347
 170:../switch_sdk/core/yt/yt_port.c ****     CMM_PARAM_CHK((!(YT_DISPATCH(unit)->is_inited)), CMM_ERR_NOT_INIT);
 1242              		.loc 1 170 5 discriminator 2 view .LVU348
 1243              		.loc 1 170 5 discriminator 2 view .LVU349
 1244 000e 1878     		ldrb	r0, [r3]	@ zero_extendqisi2
 1245              	.LVL160:
 1246              		.loc 1 170 5 is_stmt 0 discriminator 2 view .LVU350
 1247 0010 0028     		cmp	r0, #0
 1248 0012 2CD0     		beq	.L138
 1249              		.loc 1 170 5 is_stmt 1 discriminator 2 view .LVU351
 171:../switch_sdk/core/yt/yt_port.c ****     CMM_PARAM_CHK((!(CMM_PORT_VALID(unit, port))), CMM_ERR_PORT);
 1250              		.loc 1 171 5 discriminator 2 view .LVU352
 1251              		.loc 1 171 5 discriminator 2 view .LVU353
 1252 0014 2C48     		ldr	r0, .L145+4
 1253 0016 0078     		ldrb	r0, [r0]	@ zero_extendqisi2
 1254 0018 0028     		cmp	r0, #0
 1255 001a 36D0     		beq	.L130
 1256 001c 2B48     		ldr	r0, .L145+8
 1257 001e 50F82C00 		ldr	r0, [r0, ip, lsl #2]
 1258 0022 007D     		ldrb	r0, [r0, #20]	@ zero_extendqisi2
 1259 0024 8842     		cmp	r0, r1
 1260 0026 30D9     		bls	.L130
 1261              		.loc 1 171 5 discriminator 4 view .LVU354
 172:../switch_sdk/core/yt/yt_port.c ****     CMM_PARAM_CHK((NULL == pEnable), CMM_ERR_NULL_POINT);
 1262              		.loc 1 172 5 discriminator 4 view .LVU355
 1263              		.loc 1 172 5 discriminator 4 view .LVU356
 1264 0028 002A     		cmp	r2, #0
 1265 002a 3CD0     		beq	.L139
 1266              		.loc 1 172 5 discriminator 2 view .LVU357
 173:../switch_sdk/core/yt/yt_port.c **** 
 174:../switch_sdk/core/yt/yt_port.c ****     return YT_DISPATCH(unit)->port_backpress_enable_get(unit, port, pEnable);
 1267              		.loc 1 174 5 discriminator 2 view .LVU358
 1268              		.loc 1 174 29 is_stmt 0 discriminator 2 view .LVU359
 1269 002c D3F86835 		ldr	r3, [r3, #1384]
 1270              		.loc 1 174 12 discriminator 2 view .LVU360
 1271 0030 6046     		mov	r0, ip
 1272 0032 9847     		blx	r3
 1273              	.LVL161:
 1274              	.L122:
 175:../switch_sdk/core/yt/yt_port.c **** }
 1275              		.loc 1 175 1 view .LVU361
 1276 0034 08BD     		pop	{r3, pc}
 1277              	.LVL162:
 1278              	.L136:
 168:../switch_sdk/core/yt/yt_port.c ****     CMM_PARAM_CHK(NULL == YT_DISPATCH(unit), CMM_ERR_NOT_INIT);
 1279              		.loc 1 168 5 is_stmt 1 discriminator 1 view .LVU362
 168:../switch_sdk/core/yt/yt_port.c ****     CMM_PARAM_CHK(NULL == YT_DISPATCH(unit), CMM_ERR_NOT_INIT);
 1280              		.loc 1 168 5 discriminator 1 view .LVU363
 1281 0036 264B     		ldr	r3, .L145+12
 1282 0038 1B78     		ldrb	r3, [r3]	@ zero_extendqisi2
 1283 003a 012B     		cmp	r3, #1
 1284 003c 01D8     		bhi	.L140
 1285              	.LVL163:
 1286              	.L124:
 168:../switch_sdk/core/yt/yt_port.c ****     CMM_PARAM_CHK(NULL == YT_DISPATCH(unit), CMM_ERR_NOT_INIT);
 1287              		.loc 1 168 5 discriminator 5 view .LVU364
 168:../switch_sdk/core/yt/yt_port.c ****     CMM_PARAM_CHK(NULL == YT_DISPATCH(unit), CMM_ERR_NOT_INIT);
 1288              		.loc 1 168 5 discriminator 5 view .LVU365
 168:../switch_sdk/core/yt/yt_port.c ****     CMM_PARAM_CHK(NULL == YT_DISPATCH(unit), CMM_ERR_NOT_INIT);
 1289              		.loc 1 168 5 discriminator 5 view .LVU366
 1290 003e 0520     		movs	r0, #5
 1291 0040 F8E7     		b	.L122
 1292              	.LVL164:
 1293              	.L140:
 168:../switch_sdk/core/yt/yt_port.c ****     CMM_PARAM_CHK(NULL == YT_DISPATCH(unit), CMM_ERR_NOT_INIT);
 1294              		.loc 1 168 5 discriminator 3 view .LVU367
 1295              	.LBB25:
 168:../switch_sdk/core/yt/yt_port.c ****     CMM_PARAM_CHK(NULL == YT_DISPATCH(unit), CMM_ERR_NOT_INIT);
 1296              		.loc 1 168 5 discriminator 3 view .LVU368
 1297 0042 244B     		ldr	r3, .L145+16
 1298 0044 5A69     		ldr	r2, [r3, #20]
 1299              	.LVL165:
 168:../switch_sdk/core/yt/yt_port.c ****     CMM_PARAM_CHK(NULL == YT_DISPATCH(unit), CMM_ERR_NOT_INIT);
 1300              		.loc 1 168 5 is_stmt 0 discriminator 3 view .LVU369
 1301 0046 244B     		ldr	r3, .L145+20
 1302 0048 9968     		ldr	r1, [r3, #8]
 1303              	.LVL166:
 168:../switch_sdk/core/yt/yt_port.c ****     CMM_PARAM_CHK(NULL == YT_DISPATCH(unit), CMM_ERR_NOT_INIT);
 1304              		.loc 1 168 5 discriminator 3 view .LVU370
 1305 004a 2448     		ldr	r0, .L145+24
 1306              	.LVL167:
 168:../switch_sdk/core/yt/yt_port.c ****     CMM_PARAM_CHK(NULL == YT_DISPATCH(unit), CMM_ERR_NOT_INIT);
 1307              		.loc 1 168 5 discriminator 3 view .LVU371
 1308 004c FFF7FEFF 		bl	osal_printf
 1309              	.LVL168:
 1310 0050 F5E7     		b	.L124
 1311              	.LVL169:
 1312              	.L137:
 168:../switch_sdk/core/yt/yt_port.c ****     CMM_PARAM_CHK(NULL == YT_DISPATCH(unit), CMM_ERR_NOT_INIT);
 1313              		.loc 1 168 5 discriminator 3 view .LVU372
 1314              	.LBE25:
 169:../switch_sdk/core/yt/yt_port.c ****     CMM_PARAM_CHK((!(YT_DISPATCH(unit)->is_inited)), CMM_ERR_NOT_INIT);
 1315              		.loc 1 169 5 is_stmt 1 discriminator 1 view .LVU373
 169:../switch_sdk/core/yt/yt_port.c ****     CMM_PARAM_CHK((!(YT_DISPATCH(unit)->is_inited)), CMM_ERR_NOT_INIT);
 1316              		.loc 1 169 5 discriminator 1 view .LVU374
 1317 0052 1F4B     		ldr	r3, .L145+12
 1318 0054 1B78     		ldrb	r3, [r3]	@ zero_extendqisi2
 1319 0056 012B     		cmp	r3, #1
 1320 0058 01D8     		bhi	.L141
 1321              	.LVL170:
 1322              	.L127:
 169:../switch_sdk/core/yt/yt_port.c ****     CMM_PARAM_CHK((!(YT_DISPATCH(unit)->is_inited)), CMM_ERR_NOT_INIT);
 1323              		.loc 1 169 5 discriminator 5 view .LVU375
 169:../switch_sdk/core/yt/yt_port.c ****     CMM_PARAM_CHK((!(YT_DISPATCH(unit)->is_inited)), CMM_ERR_NOT_INIT);
 1324              		.loc 1 169 5 discriminator 5 view .LVU376
 169:../switch_sdk/core/yt/yt_port.c ****     CMM_PARAM_CHK((!(YT_DISPATCH(unit)->is_inited)), CMM_ERR_NOT_INIT);
 1325              		.loc 1 169 5 discriminator 5 view .LVU377
 1326 005a 0420     		movs	r0, #4
 1327 005c EAE7     		b	.L122
 1328              	.LVL171:
 1329              	.L141:
 169:../switch_sdk/core/yt/yt_port.c ****     CMM_PARAM_CHK((!(YT_DISPATCH(unit)->is_inited)), CMM_ERR_NOT_INIT);
 1330              		.loc 1 169 5 discriminator 3 view .LVU378
 1331              	.LBB26:
 169:../switch_sdk/core/yt/yt_port.c ****     CMM_PARAM_CHK((!(YT_DISPATCH(unit)->is_inited)), CMM_ERR_NOT_INIT);
 1332              		.loc 1 169 5 discriminator 3 view .LVU379
 1333 005e 1D4B     		ldr	r3, .L145+16
 1334 0060 1A69     		ldr	r2, [r3, #16]
 1335              	.LVL172:
 169:../switch_sdk/core/yt/yt_port.c ****     CMM_PARAM_CHK((!(YT_DISPATCH(unit)->is_inited)), CMM_ERR_NOT_INIT);
 1336              		.loc 1 169 5 is_stmt 0 discriminator 3 view .LVU380
 1337 0062 1D4B     		ldr	r3, .L145+20
 1338 0064 9968     		ldr	r1, [r3, #8]
 1339              	.LVL173:
 169:../switch_sdk/core/yt/yt_port.c ****     CMM_PARAM_CHK((!(YT_DISPATCH(unit)->is_inited)), CMM_ERR_NOT_INIT);
 1340              		.loc 1 169 5 discriminator 3 view .LVU381
 1341 0066 1D48     		ldr	r0, .L145+24
 1342              	.LVL174:
 169:../switch_sdk/core/yt/yt_port.c ****     CMM_PARAM_CHK((!(YT_DISPATCH(unit)->is_inited)), CMM_ERR_NOT_INIT);
 1343              		.loc 1 169 5 discriminator 3 view .LVU382
 1344 0068 FFF7FEFF 		bl	osal_printf
 1345              	.LVL175:
 1346 006c F5E7     		b	.L127
 1347              	.LVL176:
 1348              	.L138:
 169:../switch_sdk/core/yt/yt_port.c ****     CMM_PARAM_CHK((!(YT_DISPATCH(unit)->is_inited)), CMM_ERR_NOT_INIT);
 1349              		.loc 1 169 5 discriminator 3 view .LVU383
 1350              	.LBE26:
 170:../switch_sdk/core/yt/yt_port.c ****     CMM_PARAM_CHK((!(CMM_PORT_VALID(unit, port))), CMM_ERR_PORT);
 1351              		.loc 1 170 5 is_stmt 1 discriminator 1 view .LVU384
 170:../switch_sdk/core/yt/yt_port.c ****     CMM_PARAM_CHK((!(CMM_PORT_VALID(unit, port))), CMM_ERR_PORT);
 1352              		.loc 1 170 5 discriminator 1 view .LVU385
 1353 006e 184B     		ldr	r3, .L145+12
 1354 0070 1B78     		ldrb	r3, [r3]	@ zero_extendqisi2
 1355 0072 012B     		cmp	r3, #1
 1356 0074 01D8     		bhi	.L142
 1357              	.LVL177:
 1358              	.L129:
 170:../switch_sdk/core/yt/yt_port.c ****     CMM_PARAM_CHK((!(CMM_PORT_VALID(unit, port))), CMM_ERR_PORT);
 1359              		.loc 1 170 5 discriminator 5 view .LVU386
 170:../switch_sdk/core/yt/yt_port.c ****     CMM_PARAM_CHK((!(CMM_PORT_VALID(unit, port))), CMM_ERR_PORT);
 1360              		.loc 1 170 5 discriminator 5 view .LVU387
 170:../switch_sdk/core/yt/yt_port.c ****     CMM_PARAM_CHK((!(CMM_PORT_VALID(unit, port))), CMM_ERR_PORT);
 1361              		.loc 1 170 5 discriminator 5 view .LVU388
 1362 0076 0420     		movs	r0, #4
 1363 0078 DCE7     		b	.L122
 1364              	.LVL178:
 1365              	.L142:
 170:../switch_sdk/core/yt/yt_port.c ****     CMM_PARAM_CHK((!(CMM_PORT_VALID(unit, port))), CMM_ERR_PORT);
 1366              		.loc 1 170 5 discriminator 3 view .LVU389
 1367              	.LBB27:
 170:../switch_sdk/core/yt/yt_port.c ****     CMM_PARAM_CHK((!(CMM_PORT_VALID(unit, port))), CMM_ERR_PORT);
 1368              		.loc 1 170 5 discriminator 3 view .LVU390
 1369 007a 164B     		ldr	r3, .L145+16
 1370 007c 1A69     		ldr	r2, [r3, #16]
 1371              	.LVL179:
 170:../switch_sdk/core/yt/yt_port.c ****     CMM_PARAM_CHK((!(CMM_PORT_VALID(unit, port))), CMM_ERR_PORT);
 1372              		.loc 1 170 5 is_stmt 0 discriminator 3 view .LVU391
 1373 007e 164B     		ldr	r3, .L145+20
 1374 0080 9968     		ldr	r1, [r3, #8]
 1375              	.LVL180:
 170:../switch_sdk/core/yt/yt_port.c ****     CMM_PARAM_CHK((!(CMM_PORT_VALID(unit, port))), CMM_ERR_PORT);
 1376              		.loc 1 170 5 discriminator 3 view .LVU392
 1377 0082 1648     		ldr	r0, .L145+24
 1378 0084 FFF7FEFF 		bl	osal_printf
 1379              	.LVL181:
 1380 0088 F5E7     		b	.L129
 1381              	.LVL182:
 1382              	.L130:
 170:../switch_sdk/core/yt/yt_port.c ****     CMM_PARAM_CHK((!(CMM_PORT_VALID(unit, port))), CMM_ERR_PORT);
 1383              		.loc 1 170 5 discriminator 3 view .LVU393
 1384              	.LBE27:
 171:../switch_sdk/core/yt/yt_port.c ****     CMM_PARAM_CHK((NULL == pEnable), CMM_ERR_NULL_POINT);
 1385              		.loc 1 171 5 is_stmt 1 discriminator 3 view .LVU394
 171:../switch_sdk/core/yt/yt_port.c ****     CMM_PARAM_CHK((NULL == pEnable), CMM_ERR_NULL_POINT);
 1386              		.loc 1 171 5 discriminator 3 view .LVU395
 1387 008a 114B     		ldr	r3, .L145+12
 1388 008c 1B78     		ldrb	r3, [r3]	@ zero_extendqisi2
 1389 008e 012B     		cmp	r3, #1
 1390 0090 01D8     		bhi	.L143
 1391              	.LVL183:
 1392              	.L132:
 171:../switch_sdk/core/yt/yt_port.c ****     CMM_PARAM_CHK((NULL == pEnable), CMM_ERR_NULL_POINT);
 1393              		.loc 1 171 5 discriminator 7 view .LVU396
 171:../switch_sdk/core/yt/yt_port.c ****     CMM_PARAM_CHK((NULL == pEnable), CMM_ERR_NULL_POINT);
 1394              		.loc 1 171 5 discriminator 7 view .LVU397
 171:../switch_sdk/core/yt/yt_port.c ****     CMM_PARAM_CHK((NULL == pEnable), CMM_ERR_NULL_POINT);
 1395              		.loc 1 171 5 discriminator 7 view .LVU398
 1396 0092 0E20     		movs	r0, #14
 1397 0094 CEE7     		b	.L122
 1398              	.LVL184:
 1399              	.L143:
 171:../switch_sdk/core/yt/yt_port.c ****     CMM_PARAM_CHK((NULL == pEnable), CMM_ERR_NULL_POINT);
 1400              		.loc 1 171 5 discriminator 5 view .LVU399
 1401              	.LBB28:
 171:../switch_sdk/core/yt/yt_port.c ****     CMM_PARAM_CHK((NULL == pEnable), CMM_ERR_NULL_POINT);
 1402              		.loc 1 171 5 discriminator 5 view .LVU400
 1403 0096 0F4B     		ldr	r3, .L145+16
 1404 0098 9A6B     		ldr	r2, [r3, #56]
 1405              	.LVL185:
 171:../switch_sdk/core/yt/yt_port.c ****     CMM_PARAM_CHK((NULL == pEnable), CMM_ERR_NULL_POINT);
 1406              		.loc 1 171 5 is_stmt 0 discriminator 5 view .LVU401
 1407 009a 0F4B     		ldr	r3, .L145+20
 1408 009c 9968     		ldr	r1, [r3, #8]
 1409              	.LVL186:
 171:../switch_sdk/core/yt/yt_port.c ****     CMM_PARAM_CHK((NULL == pEnable), CMM_ERR_NULL_POINT);
 1410              		.loc 1 171 5 discriminator 5 view .LVU402
 1411 009e 0F48     		ldr	r0, .L145+24
 1412 00a0 FFF7FEFF 		bl	osal_printf
 1413              	.LVL187:
 1414 00a4 F5E7     		b	.L132
 1415              	.LVL188:
 1416              	.L139:
 171:../switch_sdk/core/yt/yt_port.c ****     CMM_PARAM_CHK((NULL == pEnable), CMM_ERR_NULL_POINT);
 1417              		.loc 1 171 5 discriminator 5 view .LVU403
 1418              	.LBE28:
 172:../switch_sdk/core/yt/yt_port.c **** 
 1419              		.loc 1 172 5 is_stmt 1 discriminator 1 view .LVU404
 172:../switch_sdk/core/yt/yt_port.c **** 
 1420              		.loc 1 172 5 discriminator 1 view .LVU405
 1421 00a6 0A4B     		ldr	r3, .L145+12
 1422 00a8 1B78     		ldrb	r3, [r3]	@ zero_extendqisi2
 1423 00aa 012B     		cmp	r3, #1
 1424 00ac 01D8     		bhi	.L144
 1425              	.LVL189:
 1426              	.L134:
 172:../switch_sdk/core/yt/yt_port.c **** 
 1427              		.loc 1 172 5 discriminator 5 view .LVU406
 172:../switch_sdk/core/yt/yt_port.c **** 
 1428              		.loc 1 172 5 discriminator 5 view .LVU407
 172:../switch_sdk/core/yt/yt_port.c **** 
 1429              		.loc 1 172 5 discriminator 5 view .LVU408
 1430 00ae 0220     		movs	r0, #2
 1431 00b0 C0E7     		b	.L122
 1432              	.LVL190:
 1433              	.L144:
 172:../switch_sdk/core/yt/yt_port.c **** 
 1434              		.loc 1 172 5 discriminator 3 view .LVU409
 1435              	.LBB29:
 172:../switch_sdk/core/yt/yt_port.c **** 
 1436              		.loc 1 172 5 discriminator 3 view .LVU410
 1437 00b2 084B     		ldr	r3, .L145+16
 1438 00b4 9A68     		ldr	r2, [r3, #8]
 1439              	.LVL191:
 172:../switch_sdk/core/yt/yt_port.c **** 
 1440              		.loc 1 172 5 is_stmt 0 discriminator 3 view .LVU411
 1441 00b6 084B     		ldr	r3, .L145+20
 1442 00b8 9968     		ldr	r1, [r3, #8]
 1443              	.LVL192:
 172:../switch_sdk/core/yt/yt_port.c **** 
 1444              		.loc 1 172 5 discriminator 3 view .LVU412
 1445 00ba 0848     		ldr	r0, .L145+24
 1446 00bc FFF7FEFF 		bl	osal_printf
 1447              	.LVL193:
 1448 00c0 F5E7     		b	.L134
 1449              	.L146:
 1450 00c2 00BF     		.align	2
 1451              	.L145:
 1452 00c4 00000000 		.word	gpfal_dispatch
 1453 00c8 00000000 		.word	gcal_inited
 1454 00cc 00000000 		.word	gpSwitchUnit
 1455 00d0 00000000 		.word	yt_debug_level
 1456 00d4 00000000 		.word	_yt_errmsg
 1457 00d8 00000000 		.word	_yt_prompt_msg
 1458 00dc 00000000 		.word	.LC0
 1459              	.LBE29:
 1460              		.cfi_endproc
 1461              	.LFE9:
 1463              		.section	.text.yt_port_cascade_set,"ax",%progbits
 1464              		.align	1
 1465              		.global	yt_port_cascade_set
 1466              		.syntax unified
 1467              		.thumb
 1468              		.thumb_func
 1470              	yt_port_cascade_set:
 1471              	.LVL194:
 1472              	.LFB10:
 176:../switch_sdk/core/yt/yt_port.c **** 
 177:../switch_sdk/core/yt/yt_port.c **** /**
 178:../switch_sdk/core/yt/yt_port.c ****  * @internal      yt_port_cascade_set
 179:../switch_sdk/core/yt/yt_port.c ****  * @endinternal
 180:../switch_sdk/core/yt/yt_port.c ****  *
 181:../switch_sdk/core/yt/yt_port.c ****  * @brief         Description
 182:../switch_sdk/core/yt/yt_port.c ****  * @note          APPLICABLE DEVICES  -Tiger
 183:../switch_sdk/core/yt/yt_port.c ****  * @param[in]     unit                -unit id
 184:../switch_sdk/core/yt/yt_port.c ****  * @param[in]     cascade_info        -cascade enable status and ports configure information
 185:../switch_sdk/core/yt/yt_port.c ****  * @retval        CMM_ERR_OK          -on success
 186:../switch_sdk/core/yt/yt_port.c ****  * @retval        CMM_ERR_FAIL        -on fail
 187:../switch_sdk/core/yt/yt_port.c ****  */
 188:../switch_sdk/core/yt/yt_port.c **** yt_ret_t yt_port_cascade_set(yt_unit_t unit, yt_cascade_info_t cascade_info)
 189:../switch_sdk/core/yt/yt_port.c **** {
 1473              		.loc 1 189 1 is_stmt 1 view -0
 1474              		.cfi_startproc
 1475              		@ args = 24, pretend = 16, frame = 0
 1476              		@ frame_needed = 0, uses_anonymous_args = 0
 1477              		.loc 1 189 1 is_stmt 0 view .LVU414
 1478 0000 84B0     		sub	sp, sp, #16
 1479              		.cfi_def_cfa_offset 16
 1480 0002 10B5     		push	{r4, lr}
 1481              		.cfi_def_cfa_offset 24
 1482              		.cfi_offset 4, -24
 1483              		.cfi_offset 14, -20
 1484 0004 82B0     		sub	sp, sp, #8
 1485              		.cfi_def_cfa_offset 32
 1486 0006 0DF1140C 		add	ip, sp, #20
 1487 000a 8CE80E00 		stm	ip, {r1, r2, r3}
 190:../switch_sdk/core/yt/yt_port.c ****     uint32_t i;
 1488              		.loc 1 190 5 is_stmt 1 view .LVU415
 191:../switch_sdk/core/yt/yt_port.c **** 
 192:../switch_sdk/core/yt/yt_port.c ****     CMM_PARAM_CHK((YT_UNIT_NUM <= unit), CMM_ERR_INPUT);
 1489              		.loc 1 192 5 view .LVU416
 1490              		.loc 1 192 5 view .LVU417
 1491 000e 60B9     		cbnz	r0, .L163
 1492 0010 8446     		mov	ip, r0
 1493              		.loc 1 192 5 discriminator 2 view .LVU418
 193:../switch_sdk/core/yt/yt_port.c ****     CMM_PARAM_CHK(NULL == YT_DISPATCH(unit), CMM_ERR_NOT_INIT);
 1494              		.loc 1 193 5 discriminator 2 view .LVU419
 1495              		.loc 1 193 5 discriminator 2 view .LVU420
 1496 0012 3C4B     		ldr	r3, .L173
 1497 0014 53F82020 		ldr	r2, [r3, r0, lsl #2]
 1498 0018 AAB1     		cbz	r2, .L164
 1499              		.loc 1 193 5 discriminator 2 view .LVU421
 194:../switch_sdk/core/yt/yt_port.c ****     CMM_PARAM_CHK((!(YT_DISPATCH(unit)->is_inited)), CMM_ERR_NOT_INIT);
 1500              		.loc 1 194 5 discriminator 2 view .LVU422
 1501              		.loc 1 194 5 discriminator 2 view .LVU423
 1502 001a 1378     		ldrb	r3, [r2]	@ zero_extendqisi2
 1503 001c 0BB3     		cbz	r3, .L165
 1504              		.loc 1 194 5 discriminator 2 view .LVU424
 195:../switch_sdk/core/yt/yt_port.c ****     CMM_PARAM_CHK((YT_ENABLE < cascade_info.en || YT_DISABLE > cascade_info.en), CMM_ERR_INPUT);
 1505              		.loc 1 195 5 discriminator 2 view .LVU425
 1506              		.loc 1 195 5 discriminator 2 view .LVU426
 1507 001e 9DF81430 		ldrb	r3, [sp, #20]	@ zero_extendqisi2
 1508 0022 012B     		cmp	r3, #1
 1509 0024 2BD8     		bhi	.L166
 196:../switch_sdk/core/yt/yt_port.c ****     for (i = 0; i < YT_MAX_CASCADE_PORT_NUM; i++)
 1510              		.loc 1 196 12 is_stmt 0 view .LVU427
 1511 0026 0023     		movs	r3, #0
 1512 0028 40E0     		b	.L155
 1513              	.L163:
 192:../switch_sdk/core/yt/yt_port.c ****     CMM_PARAM_CHK(NULL == YT_DISPATCH(unit), CMM_ERR_NOT_INIT);
 1514              		.loc 1 192 5 is_stmt 1 discriminator 1 view .LVU428
 192:../switch_sdk/core/yt/yt_port.c ****     CMM_PARAM_CHK(NULL == YT_DISPATCH(unit), CMM_ERR_NOT_INIT);
 1515              		.loc 1 192 5 discriminator 1 view .LVU429
 1516 002a 374B     		ldr	r3, .L173+4
 1517 002c 1B78     		ldrb	r3, [r3]	@ zero_extendqisi2
 1518 002e 012B     		cmp	r3, #1
 1519 0030 01D8     		bhi	.L167
 1520              	.LVL195:
 1521              	.L149:
 192:../switch_sdk/core/yt/yt_port.c ****     CMM_PARAM_CHK(NULL == YT_DISPATCH(unit), CMM_ERR_NOT_INIT);
 1522              		.loc 1 192 5 discriminator 5 view .LVU430
 192:../switch_sdk/core/yt/yt_port.c ****     CMM_PARAM_CHK(NULL == YT_DISPATCH(unit), CMM_ERR_NOT_INIT);
 1523              		.loc 1 192 5 discriminator 5 view .LVU431
 192:../switch_sdk/core/yt/yt_port.c ****     CMM_PARAM_CHK(NULL == YT_DISPATCH(unit), CMM_ERR_NOT_INIT);
 1524              		.loc 1 192 5 discriminator 5 view .LVU432
 1525 0032 0520     		movs	r0, #5
 1526 0034 60E0     		b	.L147
 1527              	.LVL196:
 1528              	.L167:
 192:../switch_sdk/core/yt/yt_port.c ****     CMM_PARAM_CHK(NULL == YT_DISPATCH(unit), CMM_ERR_NOT_INIT);
 1529              		.loc 1 192 5 discriminator 3 view .LVU433
 1530              	.LBB30:
 192:../switch_sdk/core/yt/yt_port.c ****     CMM_PARAM_CHK(NULL == YT_DISPATCH(unit), CMM_ERR_NOT_INIT);
 1531              		.loc 1 192 5 discriminator 3 view .LVU434
 1532 0036 354B     		ldr	r3, .L173+8
 1533 0038 5A69     		ldr	r2, [r3, #20]
 1534 003a 354B     		ldr	r3, .L173+12
 1535 003c 9968     		ldr	r1, [r3, #8]
 1536 003e 3548     		ldr	r0, .L173+16
 1537              	.LVL197:
 192:../switch_sdk/core/yt/yt_port.c ****     CMM_PARAM_CHK(NULL == YT_DISPATCH(unit), CMM_ERR_NOT_INIT);
 1538              		.loc 1 192 5 is_stmt 0 discriminator 3 view .LVU435
 1539 0040 FFF7FEFF 		bl	osal_printf
 1540              	.LVL198:
 1541 0044 F5E7     		b	.L149
 1542              	.LVL199:
 1543              	.L164:
 192:../switch_sdk/core/yt/yt_port.c ****     CMM_PARAM_CHK(NULL == YT_DISPATCH(unit), CMM_ERR_NOT_INIT);
 1544              		.loc 1 192 5 discriminator 3 view .LVU436
 1545              	.LBE30:
 193:../switch_sdk/core/yt/yt_port.c ****     CMM_PARAM_CHK((!(YT_DISPATCH(unit)->is_inited)), CMM_ERR_NOT_INIT);
 1546              		.loc 1 193 5 is_stmt 1 discriminator 1 view .LVU437
 193:../switch_sdk/core/yt/yt_port.c ****     CMM_PARAM_CHK((!(YT_DISPATCH(unit)->is_inited)), CMM_ERR_NOT_INIT);
 1547              		.loc 1 193 5 discriminator 1 view .LVU438
 1548 0046 304B     		ldr	r3, .L173+4
 1549 0048 1B78     		ldrb	r3, [r3]	@ zero_extendqisi2
 1550 004a 012B     		cmp	r3, #1
 1551 004c 01D8     		bhi	.L168
 1552              	.LVL200:
 1553              	.L152:
 193:../switch_sdk/core/yt/yt_port.c ****     CMM_PARAM_CHK((!(YT_DISPATCH(unit)->is_inited)), CMM_ERR_NOT_INIT);
 1554              		.loc 1 193 5 discriminator 5 view .LVU439
 193:../switch_sdk/core/yt/yt_port.c ****     CMM_PARAM_CHK((!(YT_DISPATCH(unit)->is_inited)), CMM_ERR_NOT_INIT);
 1555              		.loc 1 193 5 discriminator 5 view .LVU440
 193:../switch_sdk/core/yt/yt_port.c ****     CMM_PARAM_CHK((!(YT_DISPATCH(unit)->is_inited)), CMM_ERR_NOT_INIT);
 1556              		.loc 1 193 5 discriminator 5 view .LVU441
 1557 004e 0420     		movs	r0, #4
 1558 0050 52E0     		b	.L147
 1559              	.LVL201:
 1560              	.L168:
 193:../switch_sdk/core/yt/yt_port.c ****     CMM_PARAM_CHK((!(YT_DISPATCH(unit)->is_inited)), CMM_ERR_NOT_INIT);
 1561              		.loc 1 193 5 discriminator 3 view .LVU442
 1562              	.LBB31:
 193:../switch_sdk/core/yt/yt_port.c ****     CMM_PARAM_CHK((!(YT_DISPATCH(unit)->is_inited)), CMM_ERR_NOT_INIT);
 1563              		.loc 1 193 5 discriminator 3 view .LVU443
 1564 0052 2E4B     		ldr	r3, .L173+8
 1565 0054 1A69     		ldr	r2, [r3, #16]
 1566 0056 2E4B     		ldr	r3, .L173+12
 1567 0058 9968     		ldr	r1, [r3, #8]
 1568 005a 2E48     		ldr	r0, .L173+16
 1569              	.LVL202:
 193:../switch_sdk/core/yt/yt_port.c ****     CMM_PARAM_CHK((!(YT_DISPATCH(unit)->is_inited)), CMM_ERR_NOT_INIT);
 1570              		.loc 1 193 5 is_stmt 0 discriminator 3 view .LVU444
 1571 005c FFF7FEFF 		bl	osal_printf
 1572              	.LVL203:
 1573 0060 F5E7     		b	.L152
 1574              	.LVL204:
 1575              	.L165:
 193:../switch_sdk/core/yt/yt_port.c ****     CMM_PARAM_CHK((!(YT_DISPATCH(unit)->is_inited)), CMM_ERR_NOT_INIT);
 1576              		.loc 1 193 5 discriminator 3 view .LVU445
 1577              	.LBE31:
 194:../switch_sdk/core/yt/yt_port.c ****     CMM_PARAM_CHK((YT_ENABLE < cascade_info.en || YT_DISABLE > cascade_info.en), CMM_ERR_INPUT);
 1578              		.loc 1 194 5 is_stmt 1 discriminator 1 view .LVU446
 194:../switch_sdk/core/yt/yt_port.c ****     CMM_PARAM_CHK((YT_ENABLE < cascade_info.en || YT_DISABLE > cascade_info.en), CMM_ERR_INPUT);
 1579              		.loc 1 194 5 discriminator 1 view .LVU447
 1580 0062 294B     		ldr	r3, .L173+4
 1581 0064 1B78     		ldrb	r3, [r3]	@ zero_extendqisi2
 1582 0066 012B     		cmp	r3, #1
 1583 0068 01D8     		bhi	.L169
 1584              	.LVL205:
 1585              	.L154:
 194:../switch_sdk/core/yt/yt_port.c ****     CMM_PARAM_CHK((YT_ENABLE < cascade_info.en || YT_DISABLE > cascade_info.en), CMM_ERR_INPUT);
 1586              		.loc 1 194 5 discriminator 5 view .LVU448
 194:../switch_sdk/core/yt/yt_port.c ****     CMM_PARAM_CHK((YT_ENABLE < cascade_info.en || YT_DISABLE > cascade_info.en), CMM_ERR_INPUT);
 1587              		.loc 1 194 5 discriminator 5 view .LVU449
 194:../switch_sdk/core/yt/yt_port.c ****     CMM_PARAM_CHK((YT_ENABLE < cascade_info.en || YT_DISABLE > cascade_info.en), CMM_ERR_INPUT);
 1588              		.loc 1 194 5 discriminator 5 view .LVU450
 1589 006a 0420     		movs	r0, #4
 1590 006c 44E0     		b	.L147
 1591              	.LVL206:
 1592              	.L169:
 194:../switch_sdk/core/yt/yt_port.c ****     CMM_PARAM_CHK((YT_ENABLE < cascade_info.en || YT_DISABLE > cascade_info.en), CMM_ERR_INPUT);
 1593              		.loc 1 194 5 discriminator 3 view .LVU451
 1594              	.LBB32:
 194:../switch_sdk/core/yt/yt_port.c ****     CMM_PARAM_CHK((YT_ENABLE < cascade_info.en || YT_DISABLE > cascade_info.en), CMM_ERR_INPUT);
 1595              		.loc 1 194 5 discriminator 3 view .LVU452
 1596 006e 274B     		ldr	r3, .L173+8
 1597 0070 1A69     		ldr	r2, [r3, #16]
 1598 0072 274B     		ldr	r3, .L173+12
 1599 0074 9968     		ldr	r1, [r3, #8]
 1600 0076 2748     		ldr	r0, .L173+16
 1601              	.LVL207:
 194:../switch_sdk/core/yt/yt_port.c ****     CMM_PARAM_CHK((YT_ENABLE < cascade_info.en || YT_DISABLE > cascade_info.en), CMM_ERR_INPUT);
 1602              		.loc 1 194 5 is_stmt 0 discriminator 3 view .LVU453
 1603 0078 FFF7FEFF 		bl	osal_printf
 1604              	.LVL208:
 1605 007c F5E7     		b	.L154
 1606              	.LVL209:
 1607              	.L166:
 194:../switch_sdk/core/yt/yt_port.c ****     CMM_PARAM_CHK((YT_ENABLE < cascade_info.en || YT_DISABLE > cascade_info.en), CMM_ERR_INPUT);
 1608              		.loc 1 194 5 discriminator 3 view .LVU454
 1609              	.LBE32:
 195:../switch_sdk/core/yt/yt_port.c ****     for (i = 0; i < YT_MAX_CASCADE_PORT_NUM; i++)
 1610              		.loc 1 195 5 is_stmt 1 discriminator 1 view .LVU455
 195:../switch_sdk/core/yt/yt_port.c ****     for (i = 0; i < YT_MAX_CASCADE_PORT_NUM; i++)
 1611              		.loc 1 195 5 discriminator 1 view .LVU456
 1612 007e 224B     		ldr	r3, .L173+4
 1613 0080 1B78     		ldrb	r3, [r3]	@ zero_extendqisi2
 1614 0082 012B     		cmp	r3, #1
 1615 0084 01D8     		bhi	.L170
 1616              	.LVL210:
 1617              	.L156:
 195:../switch_sdk/core/yt/yt_port.c ****     for (i = 0; i < YT_MAX_CASCADE_PORT_NUM; i++)
 1618              		.loc 1 195 5 discriminator 5 view .LVU457
 195:../switch_sdk/core/yt/yt_port.c ****     for (i = 0; i < YT_MAX_CASCADE_PORT_NUM; i++)
 1619              		.loc 1 195 5 discriminator 5 view .LVU458
 195:../switch_sdk/core/yt/yt_port.c ****     for (i = 0; i < YT_MAX_CASCADE_PORT_NUM; i++)
 1620              		.loc 1 195 5 discriminator 5 view .LVU459
 1621 0086 0520     		movs	r0, #5
 1622 0088 36E0     		b	.L147
 1623              	.LVL211:
 1624              	.L170:
 195:../switch_sdk/core/yt/yt_port.c ****     for (i = 0; i < YT_MAX_CASCADE_PORT_NUM; i++)
 1625              		.loc 1 195 5 discriminator 3 view .LVU460
 1626              	.LBB33:
 195:../switch_sdk/core/yt/yt_port.c ****     for (i = 0; i < YT_MAX_CASCADE_PORT_NUM; i++)
 1627              		.loc 1 195 5 discriminator 3 view .LVU461
 1628 008a 204B     		ldr	r3, .L173+8
 1629 008c 5A69     		ldr	r2, [r3, #20]
 1630 008e 204B     		ldr	r3, .L173+12
 1631 0090 9968     		ldr	r1, [r3, #8]
 1632 0092 2048     		ldr	r0, .L173+16
 1633              	.LVL212:
 195:../switch_sdk/core/yt/yt_port.c ****     for (i = 0; i < YT_MAX_CASCADE_PORT_NUM; i++)
 1634              		.loc 1 195 5 is_stmt 0 discriminator 3 view .LVU462
 1635 0094 FFF7FEFF 		bl	osal_printf
 1636              	.LVL213:
 1637 0098 F5E7     		b	.L156
 1638              	.LVL214:
 1639              	.L172:
 195:../switch_sdk/core/yt/yt_port.c ****     for (i = 0; i < YT_MAX_CASCADE_PORT_NUM; i++)
 1640              		.loc 1 195 5 discriminator 3 view .LVU463
 1641              	.LBE33:
 197:../switch_sdk/core/yt/yt_port.c ****     {
 198:../switch_sdk/core/yt/yt_port.c ****         if (cascade_info.ports[i].valid)
 199:../switch_sdk/core/yt/yt_port.c ****             CMM_PARAM_CHK((!(CMM_PORT_VALID(unit, cascade_info.ports[i].port_num))), CMM_ERR_PORT);
 1642              		.loc 1 199 13 is_stmt 1 discriminator 5 view .LVU464
 1643              	.LBB34:
 1644              		.loc 1 199 13 discriminator 5 view .LVU465
 1645 009a 1C4B     		ldr	r3, .L173+8
 1646 009c 9A6B     		ldr	r2, [r3, #56]
 1647 009e 1C4B     		ldr	r3, .L173+12
 1648 00a0 9968     		ldr	r1, [r3, #8]
 1649 00a2 1C48     		ldr	r0, .L173+16
 1650 00a4 FFF7FEFF 		bl	osal_printf
 1651              	.LVL215:
 1652 00a8 19E0     		b	.L159
 1653              	.LVL216:
 1654              	.L157:
 1655              		.loc 1 199 13 is_stmt 0 discriminator 5 view .LVU466
 1656              	.LBE34:
 1657              		.loc 1 199 13 is_stmt 1 discriminator 4 view .LVU467
 196:../switch_sdk/core/yt/yt_port.c ****     {
 1658              		.loc 1 196 47 discriminator 4 view .LVU468
 1659 00aa 0133     		adds	r3, r3, #1
 1660              	.LVL217:
 1661              	.L155:
 196:../switch_sdk/core/yt/yt_port.c ****     {
 1662              		.loc 1 196 19 discriminator 2 view .LVU469
 1663 00ac 012B     		cmp	r3, #1
 1664 00ae 18D8     		bhi	.L171
 198:../switch_sdk/core/yt/yt_port.c ****             CMM_PARAM_CHK((!(CMM_PORT_VALID(unit, cascade_info.ports[i].port_num))), CMM_ERR_PORT);
 1665              		.loc 1 198 9 view .LVU470
 198:../switch_sdk/core/yt/yt_port.c ****             CMM_PARAM_CHK((!(CMM_PORT_VALID(unit, cascade_info.ports[i].port_num))), CMM_ERR_PORT);
 1666              		.loc 1 198 34 is_stmt 0 view .LVU471
 1667 00b0 04A9     		add	r1, sp, #16
 1668 00b2 01EBC301 		add	r1, r1, r3, lsl #3
 1669 00b6 097A     		ldrb	r1, [r1, #8]	@ zero_extendqisi2
 198:../switch_sdk/core/yt/yt_port.c ****             CMM_PARAM_CHK((!(CMM_PORT_VALID(unit, cascade_info.ports[i].port_num))), CMM_ERR_PORT);
 1670              		.loc 1 198 12 view .LVU472
 1671 00b8 0029     		cmp	r1, #0
 1672 00ba F6D0     		beq	.L157
 1673              		.loc 1 199 13 is_stmt 1 view .LVU473
 1674              		.loc 1 199 13 view .LVU474
 1675 00bc 1649     		ldr	r1, .L173+20
 1676 00be 0978     		ldrb	r1, [r1]	@ zero_extendqisi2
 1677 00c0 49B1     		cbz	r1, .L158
 1678              		.loc 1 199 13 is_stmt 0 discriminator 2 view .LVU475
 1679 00c2 04A9     		add	r1, sp, #16
 1680 00c4 01EBC301 		add	r1, r1, r3, lsl #3
 1681 00c8 C868     		ldr	r0, [r1, #12]
 1682 00ca 1449     		ldr	r1, .L173+24
 1683 00cc 51F82C10 		ldr	r1, [r1, ip, lsl #2]
 1684 00d0 097D     		ldrb	r1, [r1, #20]	@ zero_extendqisi2
 1685 00d2 8842     		cmp	r0, r1
 1686 00d4 E9D3     		bcc	.L157
 1687              	.L158:
 1688              		.loc 1 199 13 is_stmt 1 discriminator 3 view .LVU476
 1689              		.loc 1 199 13 discriminator 3 view .LVU477
 1690 00d6 0C4B     		ldr	r3, .L173+4
 1691              	.LVL218:
 1692              		.loc 1 199 13 is_stmt 0 discriminator 3 view .LVU478
 1693 00d8 1B78     		ldrb	r3, [r3]	@ zero_extendqisi2
 1694 00da 012B     		cmp	r3, #1
 1695 00dc DDD8     		bhi	.L172
 1696              	.L159:
 1697              		.loc 1 199 13 is_stmt 1 discriminator 7 view .LVU479
 1698              		.loc 1 199 13 discriminator 7 view .LVU480
 1699              		.loc 1 199 13 discriminator 7 view .LVU481
 1700 00de 0E20     		movs	r0, #14
 1701 00e0 0AE0     		b	.L147
 1702              	.LVL219:
 1703              	.L171:
 200:../switch_sdk/core/yt/yt_port.c ****     }
 201:../switch_sdk/core/yt/yt_port.c **** 
 202:../switch_sdk/core/yt/yt_port.c ****     return YT_DISPATCH(unit)->port_cascade_set(unit, cascade_info);
 1704              		.loc 1 202 5 view .LVU482
 1705              		.loc 1 202 29 is_stmt 0 view .LVU483
 1706 00e2 D2F86C45 		ldr	r4, [r2, #1388]
 1707              		.loc 1 202 12 view .LVU484
 1708 00e6 08AB     		add	r3, sp, #32
 1709              	.LVL220:
 1710              		.loc 1 202 12 view .LVU485
 1711 00e8 93E80300 		ldm	r3, {r0, r1}
 1712 00ec 8DE80300 		stm	sp, {r0, r1}
 1713 00f0 05AB     		add	r3, sp, #20
 1714 00f2 0ECB     		ldm	r3, {r1, r2, r3}
 1715 00f4 6046     		mov	r0, ip
 1716 00f6 A047     		blx	r4
 1717              	.LVL221:
 1718              	.L147:
 203:../switch_sdk/core/yt/yt_port.c **** }
 1719              		.loc 1 203 1 view .LVU486
 1720 00f8 02B0     		add	sp, sp, #8
 1721              		.cfi_def_cfa_offset 24
 1722              		@ sp needed
 1723 00fa BDE81040 		pop	{r4, lr}
 1724              		.cfi_restore 14
 1725              		.cfi_restore 4
 1726              		.cfi_def_cfa_offset 16
 1727 00fe 04B0     		add	sp, sp, #16
 1728              		.cfi_def_cfa_offset 0
 1729 0100 7047     		bx	lr
 1730              	.L174:
 1731 0102 00BF     		.align	2
 1732              	.L173:
 1733 0104 00000000 		.word	gpfal_dispatch
 1734 0108 00000000 		.word	yt_debug_level
 1735 010c 00000000 		.word	_yt_errmsg
 1736 0110 00000000 		.word	_yt_prompt_msg
 1737 0114 00000000 		.word	.LC0
 1738 0118 00000000 		.word	gcal_inited
 1739 011c 00000000 		.word	gpSwitchUnit
 1740              		.cfi_endproc
 1741              	.LFE10:
 1743              		.section	.text.yt_port_cascade_get,"ax",%progbits
 1744              		.align	1
 1745              		.global	yt_port_cascade_get
 1746              		.syntax unified
 1747              		.thumb
 1748              		.thumb_func
 1750              	yt_port_cascade_get:
 1751              	.LVL222:
 1752              	.LFB11:
 204:../switch_sdk/core/yt/yt_port.c **** 
 205:../switch_sdk/core/yt/yt_port.c **** /**
 206:../switch_sdk/core/yt/yt_port.c ****  * @internal      yt_port_cascade_get
 207:../switch_sdk/core/yt/yt_port.c ****  * @endinternal
 208:../switch_sdk/core/yt/yt_port.c ****  *
 209:../switch_sdk/core/yt/yt_port.c ****  * @brief         Description
 210:../switch_sdk/core/yt/yt_port.c ****  * @note          APPLICABLE DEVICES  -Tiger
 211:../switch_sdk/core/yt/yt_port.c ****  * @param[in]     unit                -unit id
 212:../switch_sdk/core/yt/yt_port.c ****  * @param[out]    pCascade_info       -cascade enable status and ports configure information
 213:../switch_sdk/core/yt/yt_port.c ****  * @retval        CMM_ERR_OK          -on success
 214:../switch_sdk/core/yt/yt_port.c ****  * @retval        CMM_ERR_FAIL        -on fail
 215:../switch_sdk/core/yt/yt_port.c ****  */
 216:../switch_sdk/core/yt/yt_port.c **** yt_ret_t yt_port_cascade_get(yt_unit_t unit, yt_cascade_info_t *pCascade_info)
 217:../switch_sdk/core/yt/yt_port.c **** {
 1753              		.loc 1 217 1 is_stmt 1 view -0
 1754              		.cfi_startproc
 1755              		@ args = 0, pretend = 0, frame = 0
 1756              		@ frame_needed = 0, uses_anonymous_args = 0
 1757              		.loc 1 217 1 is_stmt 0 view .LVU488
 1758 0000 08B5     		push	{r3, lr}
 1759              		.cfi_def_cfa_offset 8
 1760              		.cfi_offset 3, -8
 1761              		.cfi_offset 14, -4
 218:../switch_sdk/core/yt/yt_port.c ****     CMM_PARAM_CHK((YT_UNIT_NUM <= unit), CMM_ERR_INPUT);
 1762              		.loc 1 218 5 is_stmt 1 view .LVU489
 1763              		.loc 1 218 5 view .LVU490
 1764 0002 68B9     		cbnz	r0, .L186
 1765 0004 0246     		mov	r2, r0
 1766              		.loc 1 218 5 discriminator 2 view .LVU491
 219:../switch_sdk/core/yt/yt_port.c ****     CMM_PARAM_CHK(NULL == YT_DISPATCH(unit), CMM_ERR_NOT_INIT);
 1767              		.loc 1 219 5 discriminator 2 view .LVU492
 1768              		.loc 1 219 5 discriminator 2 view .LVU493
 1769 0006 224B     		ldr	r3, .L194
 1770 0008 53F82030 		ldr	r3, [r3, r0, lsl #2]
 1771 000c B3B1     		cbz	r3, .L187
 1772              		.loc 1 219 5 discriminator 2 view .LVU494
 220:../switch_sdk/core/yt/yt_port.c ****     CMM_PARAM_CHK((!(YT_DISPATCH(unit)->is_inited)), CMM_ERR_NOT_INIT);
 1773              		.loc 1 220 5 discriminator 2 view .LVU495
 1774              		.loc 1 220 5 discriminator 2 view .LVU496
 1775 000e 1878     		ldrb	r0, [r3]	@ zero_extendqisi2
 1776              	.LVL223:
 1777              		.loc 1 220 5 is_stmt 0 discriminator 2 view .LVU497
 1778 0010 10B3     		cbz	r0, .L188
 1779              		.loc 1 220 5 is_stmt 1 discriminator 2 view .LVU498
 221:../switch_sdk/core/yt/yt_port.c ****     CMM_PARAM_CHK((NULL == pCascade_info), CMM_ERR_NULL_POINT);
 1780              		.loc 1 221 5 discriminator 2 view .LVU499
 1781              		.loc 1 221 5 discriminator 2 view .LVU500
 1782 0012 0029     		cmp	r1, #0
 1783 0014 2ED0     		beq	.L189
 1784              		.loc 1 221 5 discriminator 2 view .LVU501
 222:../switch_sdk/core/yt/yt_port.c **** 
 223:../switch_sdk/core/yt/yt_port.c ****     return YT_DISPATCH(unit)->port_cascade_get(unit, pCascade_info);
 1785              		.loc 1 223 5 discriminator 2 view .LVU502
 1786              		.loc 1 223 29 is_stmt 0 discriminator 2 view .LVU503
 1787 0016 D3F87035 		ldr	r3, [r3, #1392]
 1788              		.loc 1 223 12 discriminator 2 view .LVU504
 1789 001a 1046     		mov	r0, r2
 1790 001c 9847     		blx	r3
 1791              	.LVL224:
 1792              	.L175:
 224:../switch_sdk/core/yt/yt_port.c **** }
 1793              		.loc 1 224 1 view .LVU505
 1794 001e 08BD     		pop	{r3, pc}
 1795              	.LVL225:
 1796              	.L186:
 218:../switch_sdk/core/yt/yt_port.c ****     CMM_PARAM_CHK(NULL == YT_DISPATCH(unit), CMM_ERR_NOT_INIT);
 1797              		.loc 1 218 5 is_stmt 1 discriminator 1 view .LVU506
 218:../switch_sdk/core/yt/yt_port.c ****     CMM_PARAM_CHK(NULL == YT_DISPATCH(unit), CMM_ERR_NOT_INIT);
 1798              		.loc 1 218 5 discriminator 1 view .LVU507
 1799 0020 1C4B     		ldr	r3, .L194+4
 1800 0022 1B78     		ldrb	r3, [r3]	@ zero_extendqisi2
 1801 0024 012B     		cmp	r3, #1
 1802 0026 01D8     		bhi	.L190
 1803              	.LVL226:
 1804              	.L177:
 218:../switch_sdk/core/yt/yt_port.c ****     CMM_PARAM_CHK(NULL == YT_DISPATCH(unit), CMM_ERR_NOT_INIT);
 1805              		.loc 1 218 5 discriminator 5 view .LVU508
 218:../switch_sdk/core/yt/yt_port.c ****     CMM_PARAM_CHK(NULL == YT_DISPATCH(unit), CMM_ERR_NOT_INIT);
 1806              		.loc 1 218 5 discriminator 5 view .LVU509
 218:../switch_sdk/core/yt/yt_port.c ****     CMM_PARAM_CHK(NULL == YT_DISPATCH(unit), CMM_ERR_NOT_INIT);
 1807              		.loc 1 218 5 discriminator 5 view .LVU510
 1808 0028 0520     		movs	r0, #5
 1809 002a F8E7     		b	.L175
 1810              	.LVL227:
 1811              	.L190:
 218:../switch_sdk/core/yt/yt_port.c ****     CMM_PARAM_CHK(NULL == YT_DISPATCH(unit), CMM_ERR_NOT_INIT);
 1812              		.loc 1 218 5 discriminator 3 view .LVU511
 1813              	.LBB35:
 218:../switch_sdk/core/yt/yt_port.c ****     CMM_PARAM_CHK(NULL == YT_DISPATCH(unit), CMM_ERR_NOT_INIT);
 1814              		.loc 1 218 5 discriminator 3 view .LVU512
 1815 002c 1A4B     		ldr	r3, .L194+8
 1816 002e 5A69     		ldr	r2, [r3, #20]
 1817 0030 1A4B     		ldr	r3, .L194+12
 1818 0032 9968     		ldr	r1, [r3, #8]
 1819              	.LVL228:
 218:../switch_sdk/core/yt/yt_port.c ****     CMM_PARAM_CHK(NULL == YT_DISPATCH(unit), CMM_ERR_NOT_INIT);
 1820              		.loc 1 218 5 is_stmt 0 discriminator 3 view .LVU513
 1821 0034 1A48     		ldr	r0, .L194+16
 1822              	.LVL229:
 218:../switch_sdk/core/yt/yt_port.c ****     CMM_PARAM_CHK(NULL == YT_DISPATCH(unit), CMM_ERR_NOT_INIT);
 1823              		.loc 1 218 5 discriminator 3 view .LVU514
 1824 0036 FFF7FEFF 		bl	osal_printf
 1825              	.LVL230:
 1826 003a F5E7     		b	.L177
 1827              	.LVL231:
 1828              	.L187:
 218:../switch_sdk/core/yt/yt_port.c ****     CMM_PARAM_CHK(NULL == YT_DISPATCH(unit), CMM_ERR_NOT_INIT);
 1829              		.loc 1 218 5 discriminator 3 view .LVU515
 1830              	.LBE35:
 219:../switch_sdk/core/yt/yt_port.c ****     CMM_PARAM_CHK((!(YT_DISPATCH(unit)->is_inited)), CMM_ERR_NOT_INIT);
 1831              		.loc 1 219 5 is_stmt 1 discriminator 1 view .LVU516
 219:../switch_sdk/core/yt/yt_port.c ****     CMM_PARAM_CHK((!(YT_DISPATCH(unit)->is_inited)), CMM_ERR_NOT_INIT);
 1832              		.loc 1 219 5 discriminator 1 view .LVU517
 1833 003c 154B     		ldr	r3, .L194+4
 1834 003e 1B78     		ldrb	r3, [r3]	@ zero_extendqisi2
 1835 0040 012B     		cmp	r3, #1
 1836 0042 01D8     		bhi	.L191
 1837              	.LVL232:
 1838              	.L180:
 219:../switch_sdk/core/yt/yt_port.c ****     CMM_PARAM_CHK((!(YT_DISPATCH(unit)->is_inited)), CMM_ERR_NOT_INIT);
 1839              		.loc 1 219 5 discriminator 5 view .LVU518
 219:../switch_sdk/core/yt/yt_port.c ****     CMM_PARAM_CHK((!(YT_DISPATCH(unit)->is_inited)), CMM_ERR_NOT_INIT);
 1840              		.loc 1 219 5 discriminator 5 view .LVU519
 219:../switch_sdk/core/yt/yt_port.c ****     CMM_PARAM_CHK((!(YT_DISPATCH(unit)->is_inited)), CMM_ERR_NOT_INIT);
 1841              		.loc 1 219 5 discriminator 5 view .LVU520
 1842 0044 0420     		movs	r0, #4
 1843 0046 EAE7     		b	.L175
 1844              	.LVL233:
 1845              	.L191:
 219:../switch_sdk/core/yt/yt_port.c ****     CMM_PARAM_CHK((!(YT_DISPATCH(unit)->is_inited)), CMM_ERR_NOT_INIT);
 1846              		.loc 1 219 5 discriminator 3 view .LVU521
 1847              	.LBB36:
 219:../switch_sdk/core/yt/yt_port.c ****     CMM_PARAM_CHK((!(YT_DISPATCH(unit)->is_inited)), CMM_ERR_NOT_INIT);
 1848              		.loc 1 219 5 discriminator 3 view .LVU522
 1849 0048 134B     		ldr	r3, .L194+8
 1850 004a 1A69     		ldr	r2, [r3, #16]
 1851 004c 134B     		ldr	r3, .L194+12
 1852 004e 9968     		ldr	r1, [r3, #8]
 1853              	.LVL234:
 219:../switch_sdk/core/yt/yt_port.c ****     CMM_PARAM_CHK((!(YT_DISPATCH(unit)->is_inited)), CMM_ERR_NOT_INIT);
 1854              		.loc 1 219 5 is_stmt 0 discriminator 3 view .LVU523
 1855 0050 1348     		ldr	r0, .L194+16
 1856              	.LVL235:
 219:../switch_sdk/core/yt/yt_port.c ****     CMM_PARAM_CHK((!(YT_DISPATCH(unit)->is_inited)), CMM_ERR_NOT_INIT);
 1857              		.loc 1 219 5 discriminator 3 view .LVU524
 1858 0052 FFF7FEFF 		bl	osal_printf
 1859              	.LVL236:
 1860 0056 F5E7     		b	.L180
 1861              	.LVL237:
 1862              	.L188:
 219:../switch_sdk/core/yt/yt_port.c ****     CMM_PARAM_CHK((!(YT_DISPATCH(unit)->is_inited)), CMM_ERR_NOT_INIT);
 1863              		.loc 1 219 5 discriminator 3 view .LVU525
 1864              	.LBE36:
 220:../switch_sdk/core/yt/yt_port.c ****     CMM_PARAM_CHK((NULL == pCascade_info), CMM_ERR_NULL_POINT);
 1865              		.loc 1 220 5 is_stmt 1 discriminator 1 view .LVU526
 220:../switch_sdk/core/yt/yt_port.c ****     CMM_PARAM_CHK((NULL == pCascade_info), CMM_ERR_NULL_POINT);
 1866              		.loc 1 220 5 discriminator 1 view .LVU527
 1867 0058 0E4B     		ldr	r3, .L194+4
 1868 005a 1B78     		ldrb	r3, [r3]	@ zero_extendqisi2
 1869 005c 012B     		cmp	r3, #1
 1870 005e 01D8     		bhi	.L192
 1871              	.LVL238:
 1872              	.L182:
 220:../switch_sdk/core/yt/yt_port.c ****     CMM_PARAM_CHK((NULL == pCascade_info), CMM_ERR_NULL_POINT);
 1873              		.loc 1 220 5 discriminator 5 view .LVU528
 220:../switch_sdk/core/yt/yt_port.c ****     CMM_PARAM_CHK((NULL == pCascade_info), CMM_ERR_NULL_POINT);
 1874              		.loc 1 220 5 discriminator 5 view .LVU529
 220:../switch_sdk/core/yt/yt_port.c ****     CMM_PARAM_CHK((NULL == pCascade_info), CMM_ERR_NULL_POINT);
 1875              		.loc 1 220 5 discriminator 5 view .LVU530
 1876 0060 0420     		movs	r0, #4
 1877 0062 DCE7     		b	.L175
 1878              	.LVL239:
 1879              	.L192:
 220:../switch_sdk/core/yt/yt_port.c ****     CMM_PARAM_CHK((NULL == pCascade_info), CMM_ERR_NULL_POINT);
 1880              		.loc 1 220 5 discriminator 3 view .LVU531
 1881              	.LBB37:
 220:../switch_sdk/core/yt/yt_port.c ****     CMM_PARAM_CHK((NULL == pCascade_info), CMM_ERR_NULL_POINT);
 1882              		.loc 1 220 5 discriminator 3 view .LVU532
 1883 0064 0C4B     		ldr	r3, .L194+8
 1884 0066 1A69     		ldr	r2, [r3, #16]
 1885 0068 0C4B     		ldr	r3, .L194+12
 1886 006a 9968     		ldr	r1, [r3, #8]
 1887              	.LVL240:
 220:../switch_sdk/core/yt/yt_port.c ****     CMM_PARAM_CHK((NULL == pCascade_info), CMM_ERR_NULL_POINT);
 1888              		.loc 1 220 5 is_stmt 0 discriminator 3 view .LVU533
 1889 006c 0C48     		ldr	r0, .L194+16
 1890 006e FFF7FEFF 		bl	osal_printf
 1891              	.LVL241:
 1892 0072 F5E7     		b	.L182
 1893              	.LVL242:
 1894              	.L189:
 220:../switch_sdk/core/yt/yt_port.c ****     CMM_PARAM_CHK((NULL == pCascade_info), CMM_ERR_NULL_POINT);
 1895              		.loc 1 220 5 discriminator 3 view .LVU534
 1896              	.LBE37:
 221:../switch_sdk/core/yt/yt_port.c **** 
 1897              		.loc 1 221 5 is_stmt 1 discriminator 1 view .LVU535
 221:../switch_sdk/core/yt/yt_port.c **** 
 1898              		.loc 1 221 5 discriminator 1 view .LVU536
 1899 0074 074B     		ldr	r3, .L194+4
 1900 0076 1B78     		ldrb	r3, [r3]	@ zero_extendqisi2
 1901 0078 012B     		cmp	r3, #1
 1902 007a 01D8     		bhi	.L193
 1903              	.LVL243:
 1904              	.L184:
 221:../switch_sdk/core/yt/yt_port.c **** 
 1905              		.loc 1 221 5 discriminator 5 view .LVU537
 221:../switch_sdk/core/yt/yt_port.c **** 
 1906              		.loc 1 221 5 discriminator 5 view .LVU538
 221:../switch_sdk/core/yt/yt_port.c **** 
 1907              		.loc 1 221 5 discriminator 5 view .LVU539
 1908 007c 0220     		movs	r0, #2
 1909 007e CEE7     		b	.L175
 1910              	.LVL244:
 1911              	.L193:
 221:../switch_sdk/core/yt/yt_port.c **** 
 1912              		.loc 1 221 5 discriminator 3 view .LVU540
 1913              	.LBB38:
 221:../switch_sdk/core/yt/yt_port.c **** 
 1914              		.loc 1 221 5 discriminator 3 view .LVU541
 1915 0080 054B     		ldr	r3, .L194+8
 1916 0082 9A68     		ldr	r2, [r3, #8]
 1917 0084 054B     		ldr	r3, .L194+12
 1918 0086 9968     		ldr	r1, [r3, #8]
 1919              	.LVL245:
 221:../switch_sdk/core/yt/yt_port.c **** 
 1920              		.loc 1 221 5 is_stmt 0 discriminator 3 view .LVU542
 1921 0088 0548     		ldr	r0, .L194+16
 1922 008a FFF7FEFF 		bl	osal_printf
 1923              	.LVL246:
 1924 008e F5E7     		b	.L184
 1925              	.L195:
 1926              		.align	2
 1927              	.L194:
 1928 0090 00000000 		.word	gpfal_dispatch
 1929 0094 00000000 		.word	yt_debug_level
 1930 0098 00000000 		.word	_yt_errmsg
 1931 009c 00000000 		.word	_yt_prompt_msg
 1932 00a0 00000000 		.word	.LC0
 1933              	.LBE38:
 1934              		.cfi_endproc
 1935              	.LFE11:
 1937              		.section	.text.yt_port_pkt_gap_set,"ax",%progbits
 1938              		.align	1
 1939              		.global	yt_port_pkt_gap_set
 1940              		.syntax unified
 1941              		.thumb
 1942              		.thumb_func
 1944              	yt_port_pkt_gap_set:
 1945              	.LVL247:
 1946              	.LFB12:
 225:../switch_sdk/core/yt/yt_port.c **** 
 226:../switch_sdk/core/yt/yt_port.c **** /**
 227:../switch_sdk/core/yt/yt_port.c ****  * @internal      yt_port_pkt_gap_set
 228:../switch_sdk/core/yt/yt_port.c ****  * @endinternal
 229:../switch_sdk/core/yt/yt_port.c ****  *
 230:../switch_sdk/core/yt/yt_port.c ****  * @brief         Description
 231:../switch_sdk/core/yt/yt_port.c ****  * @note          APPLICABLE DEVICES  -Tiger
 232:../switch_sdk/core/yt/yt_port.c ****  * @param[in]     unit                -unit id
 233:../switch_sdk/core/yt/yt_port.c ****  * @param[in]     port                -port num
 234:../switch_sdk/core/yt/yt_port.c ****  * @param[in]     gap                 -x
 235:../switch_sdk/core/yt/yt_port.c ****  * @retval        CMM_ERR_OK          -on success
 236:../switch_sdk/core/yt/yt_port.c ****  * @retval        CMM_ERR_FAIL        -on fail
 237:../switch_sdk/core/yt/yt_port.c ****  */
 238:../switch_sdk/core/yt/yt_port.c **** yt_ret_t yt_port_pkt_gap_set(yt_unit_t unit, yt_port_t port, uint8_t gap)
 239:../switch_sdk/core/yt/yt_port.c **** {
 1947              		.loc 1 239 1 is_stmt 1 view -0
 1948              		.cfi_startproc
 1949              		@ args = 0, pretend = 0, frame = 0
 1950              		@ frame_needed = 0, uses_anonymous_args = 0
 1951              		.loc 1 239 1 is_stmt 0 view .LVU544
 1952 0000 08B5     		push	{r3, lr}
 1953              		.cfi_def_cfa_offset 8
 1954              		.cfi_offset 3, -8
 1955              		.cfi_offset 14, -4
 240:../switch_sdk/core/yt/yt_port.c ****     CMM_PARAM_CHK((YT_UNIT_NUM <= unit), CMM_ERR_INPUT);
 1956              		.loc 1 240 5 is_stmt 1 view .LVU545
 1957              		.loc 1 240 5 view .LVU546
 1958 0002 A8B9     		cbnz	r0, .L208
 1959 0004 8446     		mov	ip, r0
 1960              		.loc 1 240 5 discriminator 2 view .LVU547
 241:../switch_sdk/core/yt/yt_port.c ****     CMM_PARAM_CHK(NULL == YT_DISPATCH(unit), CMM_ERR_NOT_INIT);
 1961              		.loc 1 241 5 discriminator 2 view .LVU548
 1962              		.loc 1 241 5 discriminator 2 view .LVU549
 1963 0006 264B     		ldr	r3, .L215
 1964 0008 53F82030 		ldr	r3, [r3, r0, lsl #2]
 1965 000c F3B1     		cbz	r3, .L209
 1966              		.loc 1 241 5 discriminator 2 view .LVU550
 242:../switch_sdk/core/yt/yt_port.c ****     CMM_PARAM_CHK((!(YT_DISPATCH(unit)->is_inited)), CMM_ERR_NOT_INIT);
 1967              		.loc 1 242 5 discriminator 2 view .LVU551
 1968              		.loc 1 242 5 discriminator 2 view .LVU552
 1969 000e 1878     		ldrb	r0, [r3]	@ zero_extendqisi2
 1970              	.LVL248:
 1971              		.loc 1 242 5 is_stmt 0 discriminator 2 view .LVU553
 1972 0010 50B3     		cbz	r0, .L210
 1973              		.loc 1 242 5 is_stmt 1 discriminator 2 view .LVU554
 243:../switch_sdk/core/yt/yt_port.c ****     CMM_PARAM_CHK((!(CMM_PORT_VALID(unit, port))), CMM_ERR_PORT);
 1974              		.loc 1 243 5 discriminator 2 view .LVU555
 1975              		.loc 1 243 5 discriminator 2 view .LVU556
 1976 0012 2448     		ldr	r0, .L215+4
 1977 0014 0078     		ldrb	r0, [r0]	@ zero_extendqisi2
 1978 0016 0028     		cmp	r0, #0
 1979 0018 34D0     		beq	.L204
 1980 001a 2348     		ldr	r0, .L215+8
 1981 001c 50F82C00 		ldr	r0, [r0, ip, lsl #2]
 1982 0020 007D     		ldrb	r0, [r0, #20]	@ zero_extendqisi2
 1983 0022 8842     		cmp	r0, r1
 1984 0024 2ED9     		bls	.L204
 1985              		.loc 1 243 5 discriminator 4 view .LVU557
 244:../switch_sdk/core/yt/yt_port.c **** 
 245:../switch_sdk/core/yt/yt_port.c ****     return YT_DISPATCH(unit)->port_pkt_gap_set(unit, port, gap);
 1986              		.loc 1 245 5 discriminator 4 view .LVU558
 1987              		.loc 1 245 29 is_stmt 0 discriminator 4 view .LVU559
 1988 0026 D3F87435 		ldr	r3, [r3, #1396]
 1989              		.loc 1 245 12 discriminator 4 view .LVU560
 1990 002a 6046     		mov	r0, ip
 1991 002c 9847     		blx	r3
 1992              	.LVL249:
 1993              	.L196:
 246:../switch_sdk/core/yt/yt_port.c **** }
 1994              		.loc 1 246 1 view .LVU561
 1995 002e 08BD     		pop	{r3, pc}
 1996              	.LVL250:
 1997              	.L208:
 240:../switch_sdk/core/yt/yt_port.c ****     CMM_PARAM_CHK(NULL == YT_DISPATCH(unit), CMM_ERR_NOT_INIT);
 1998              		.loc 1 240 5 is_stmt 1 discriminator 1 view .LVU562
 240:../switch_sdk/core/yt/yt_port.c ****     CMM_PARAM_CHK(NULL == YT_DISPATCH(unit), CMM_ERR_NOT_INIT);
 1999              		.loc 1 240 5 discriminator 1 view .LVU563
 2000 0030 1E4B     		ldr	r3, .L215+12
 2001 0032 1B78     		ldrb	r3, [r3]	@ zero_extendqisi2
 2002 0034 012B     		cmp	r3, #1
 2003 0036 01D8     		bhi	.L211
 2004              	.LVL251:
 2005              	.L198:
 240:../switch_sdk/core/yt/yt_port.c ****     CMM_PARAM_CHK(NULL == YT_DISPATCH(unit), CMM_ERR_NOT_INIT);
 2006              		.loc 1 240 5 discriminator 5 view .LVU564
 240:../switch_sdk/core/yt/yt_port.c ****     CMM_PARAM_CHK(NULL == YT_DISPATCH(unit), CMM_ERR_NOT_INIT);
 2007              		.loc 1 240 5 discriminator 5 view .LVU565
 240:../switch_sdk/core/yt/yt_port.c ****     CMM_PARAM_CHK(NULL == YT_DISPATCH(unit), CMM_ERR_NOT_INIT);
 2008              		.loc 1 240 5 discriminator 5 view .LVU566
 2009 0038 0520     		movs	r0, #5
 2010 003a F8E7     		b	.L196
 2011              	.LVL252:
 2012              	.L211:
 240:../switch_sdk/core/yt/yt_port.c ****     CMM_PARAM_CHK(NULL == YT_DISPATCH(unit), CMM_ERR_NOT_INIT);
 2013              		.loc 1 240 5 discriminator 3 view .LVU567
 2014              	.LBB39:
 240:../switch_sdk/core/yt/yt_port.c ****     CMM_PARAM_CHK(NULL == YT_DISPATCH(unit), CMM_ERR_NOT_INIT);
 2015              		.loc 1 240 5 discriminator 3 view .LVU568
 2016 003c 1C4B     		ldr	r3, .L215+16
 2017 003e 5A69     		ldr	r2, [r3, #20]
 2018              	.LVL253:
 240:../switch_sdk/core/yt/yt_port.c ****     CMM_PARAM_CHK(NULL == YT_DISPATCH(unit), CMM_ERR_NOT_INIT);
 2019              		.loc 1 240 5 is_stmt 0 discriminator 3 view .LVU569
 2020 0040 1C4B     		ldr	r3, .L215+20
 2021 0042 9968     		ldr	r1, [r3, #8]
 2022              	.LVL254:
 240:../switch_sdk/core/yt/yt_port.c ****     CMM_PARAM_CHK(NULL == YT_DISPATCH(unit), CMM_ERR_NOT_INIT);
 2023              		.loc 1 240 5 discriminator 3 view .LVU570
 2024 0044 1C48     		ldr	r0, .L215+24
 2025              	.LVL255:
 240:../switch_sdk/core/yt/yt_port.c ****     CMM_PARAM_CHK(NULL == YT_DISPATCH(unit), CMM_ERR_NOT_INIT);
 2026              		.loc 1 240 5 discriminator 3 view .LVU571
 2027 0046 FFF7FEFF 		bl	osal_printf
 2028              	.LVL256:
 2029 004a F5E7     		b	.L198
 2030              	.LVL257:
 2031              	.L209:
 240:../switch_sdk/core/yt/yt_port.c ****     CMM_PARAM_CHK(NULL == YT_DISPATCH(unit), CMM_ERR_NOT_INIT);
 2032              		.loc 1 240 5 discriminator 3 view .LVU572
 2033              	.LBE39:
 241:../switch_sdk/core/yt/yt_port.c ****     CMM_PARAM_CHK((!(YT_DISPATCH(unit)->is_inited)), CMM_ERR_NOT_INIT);
 2034              		.loc 1 241 5 is_stmt 1 discriminator 1 view .LVU573
 241:../switch_sdk/core/yt/yt_port.c ****     CMM_PARAM_CHK((!(YT_DISPATCH(unit)->is_inited)), CMM_ERR_NOT_INIT);
 2035              		.loc 1 241 5 discriminator 1 view .LVU574
 2036 004c 174B     		ldr	r3, .L215+12
 2037 004e 1B78     		ldrb	r3, [r3]	@ zero_extendqisi2
 2038 0050 012B     		cmp	r3, #1
 2039 0052 01D8     		bhi	.L212
 2040              	.LVL258:
 2041              	.L201:
 241:../switch_sdk/core/yt/yt_port.c ****     CMM_PARAM_CHK((!(YT_DISPATCH(unit)->is_inited)), CMM_ERR_NOT_INIT);
 2042              		.loc 1 241 5 discriminator 5 view .LVU575
 241:../switch_sdk/core/yt/yt_port.c ****     CMM_PARAM_CHK((!(YT_DISPATCH(unit)->is_inited)), CMM_ERR_NOT_INIT);
 2043              		.loc 1 241 5 discriminator 5 view .LVU576
 241:../switch_sdk/core/yt/yt_port.c ****     CMM_PARAM_CHK((!(YT_DISPATCH(unit)->is_inited)), CMM_ERR_NOT_INIT);
 2044              		.loc 1 241 5 discriminator 5 view .LVU577
 2045 0054 0420     		movs	r0, #4
 2046 0056 EAE7     		b	.L196
 2047              	.LVL259:
 2048              	.L212:
 241:../switch_sdk/core/yt/yt_port.c ****     CMM_PARAM_CHK((!(YT_DISPATCH(unit)->is_inited)), CMM_ERR_NOT_INIT);
 2049              		.loc 1 241 5 discriminator 3 view .LVU578
 2050              	.LBB40:
 241:../switch_sdk/core/yt/yt_port.c ****     CMM_PARAM_CHK((!(YT_DISPATCH(unit)->is_inited)), CMM_ERR_NOT_INIT);
 2051              		.loc 1 241 5 discriminator 3 view .LVU579
 2052 0058 154B     		ldr	r3, .L215+16
 2053 005a 1A69     		ldr	r2, [r3, #16]
 2054              	.LVL260:
 241:../switch_sdk/core/yt/yt_port.c ****     CMM_PARAM_CHK((!(YT_DISPATCH(unit)->is_inited)), CMM_ERR_NOT_INIT);
 2055              		.loc 1 241 5 is_stmt 0 discriminator 3 view .LVU580
 2056 005c 154B     		ldr	r3, .L215+20
 2057 005e 9968     		ldr	r1, [r3, #8]
 2058              	.LVL261:
 241:../switch_sdk/core/yt/yt_port.c ****     CMM_PARAM_CHK((!(YT_DISPATCH(unit)->is_inited)), CMM_ERR_NOT_INIT);
 2059              		.loc 1 241 5 discriminator 3 view .LVU581
 2060 0060 1548     		ldr	r0, .L215+24
 2061              	.LVL262:
 241:../switch_sdk/core/yt/yt_port.c ****     CMM_PARAM_CHK((!(YT_DISPATCH(unit)->is_inited)), CMM_ERR_NOT_INIT);
 2062              		.loc 1 241 5 discriminator 3 view .LVU582
 2063 0062 FFF7FEFF 		bl	osal_printf
 2064              	.LVL263:
 2065 0066 F5E7     		b	.L201
 2066              	.LVL264:
 2067              	.L210:
 241:../switch_sdk/core/yt/yt_port.c ****     CMM_PARAM_CHK((!(YT_DISPATCH(unit)->is_inited)), CMM_ERR_NOT_INIT);
 2068              		.loc 1 241 5 discriminator 3 view .LVU583
 2069              	.LBE40:
 242:../switch_sdk/core/yt/yt_port.c ****     CMM_PARAM_CHK((!(CMM_PORT_VALID(unit, port))), CMM_ERR_PORT);
 2070              		.loc 1 242 5 is_stmt 1 discriminator 1 view .LVU584
 242:../switch_sdk/core/yt/yt_port.c ****     CMM_PARAM_CHK((!(CMM_PORT_VALID(unit, port))), CMM_ERR_PORT);
 2071              		.loc 1 242 5 discriminator 1 view .LVU585
 2072 0068 104B     		ldr	r3, .L215+12
 2073 006a 1B78     		ldrb	r3, [r3]	@ zero_extendqisi2
 2074 006c 012B     		cmp	r3, #1
 2075 006e 01D8     		bhi	.L213
 2076              	.LVL265:
 2077              	.L203:
 242:../switch_sdk/core/yt/yt_port.c ****     CMM_PARAM_CHK((!(CMM_PORT_VALID(unit, port))), CMM_ERR_PORT);
 2078              		.loc 1 242 5 discriminator 5 view .LVU586
 242:../switch_sdk/core/yt/yt_port.c ****     CMM_PARAM_CHK((!(CMM_PORT_VALID(unit, port))), CMM_ERR_PORT);
 2079              		.loc 1 242 5 discriminator 5 view .LVU587
 242:../switch_sdk/core/yt/yt_port.c ****     CMM_PARAM_CHK((!(CMM_PORT_VALID(unit, port))), CMM_ERR_PORT);
 2080              		.loc 1 242 5 discriminator 5 view .LVU588
 2081 0070 0420     		movs	r0, #4
 2082 0072 DCE7     		b	.L196
 2083              	.LVL266:
 2084              	.L213:
 242:../switch_sdk/core/yt/yt_port.c ****     CMM_PARAM_CHK((!(CMM_PORT_VALID(unit, port))), CMM_ERR_PORT);
 2085              		.loc 1 242 5 discriminator 3 view .LVU589
 2086              	.LBB41:
 242:../switch_sdk/core/yt/yt_port.c ****     CMM_PARAM_CHK((!(CMM_PORT_VALID(unit, port))), CMM_ERR_PORT);
 2087              		.loc 1 242 5 discriminator 3 view .LVU590
 2088 0074 0E4B     		ldr	r3, .L215+16
 2089 0076 1A69     		ldr	r2, [r3, #16]
 2090              	.LVL267:
 242:../switch_sdk/core/yt/yt_port.c ****     CMM_PARAM_CHK((!(CMM_PORT_VALID(unit, port))), CMM_ERR_PORT);
 2091              		.loc 1 242 5 is_stmt 0 discriminator 3 view .LVU591
 2092 0078 0E4B     		ldr	r3, .L215+20
 2093 007a 9968     		ldr	r1, [r3, #8]
 2094              	.LVL268:
 242:../switch_sdk/core/yt/yt_port.c ****     CMM_PARAM_CHK((!(CMM_PORT_VALID(unit, port))), CMM_ERR_PORT);
 2095              		.loc 1 242 5 discriminator 3 view .LVU592
 2096 007c 0E48     		ldr	r0, .L215+24
 2097 007e FFF7FEFF 		bl	osal_printf
 2098              	.LVL269:
 2099 0082 F5E7     		b	.L203
 2100              	.LVL270:
 2101              	.L204:
 242:../switch_sdk/core/yt/yt_port.c ****     CMM_PARAM_CHK((!(CMM_PORT_VALID(unit, port))), CMM_ERR_PORT);
 2102              		.loc 1 242 5 discriminator 3 view .LVU593
 2103              	.LBE41:
 243:../switch_sdk/core/yt/yt_port.c **** 
 2104              		.loc 1 243 5 is_stmt 1 discriminator 3 view .LVU594
 243:../switch_sdk/core/yt/yt_port.c **** 
 2105              		.loc 1 243 5 discriminator 3 view .LVU595
 2106 0084 094B     		ldr	r3, .L215+12
 2107 0086 1B78     		ldrb	r3, [r3]	@ zero_extendqisi2
 2108 0088 012B     		cmp	r3, #1
 2109 008a 01D8     		bhi	.L214
 2110              	.LVL271:
 2111              	.L206:
 243:../switch_sdk/core/yt/yt_port.c **** 
 2112              		.loc 1 243 5 discriminator 7 view .LVU596
 243:../switch_sdk/core/yt/yt_port.c **** 
 2113              		.loc 1 243 5 discriminator 7 view .LVU597
 243:../switch_sdk/core/yt/yt_port.c **** 
 2114              		.loc 1 243 5 discriminator 7 view .LVU598
 2115 008c 0E20     		movs	r0, #14
 2116 008e CEE7     		b	.L196
 2117              	.LVL272:
 2118              	.L214:
 243:../switch_sdk/core/yt/yt_port.c **** 
 2119              		.loc 1 243 5 discriminator 5 view .LVU599
 2120              	.LBB42:
 243:../switch_sdk/core/yt/yt_port.c **** 
 2121              		.loc 1 243 5 discriminator 5 view .LVU600
 2122 0090 074B     		ldr	r3, .L215+16
 2123 0092 9A6B     		ldr	r2, [r3, #56]
 2124              	.LVL273:
 243:../switch_sdk/core/yt/yt_port.c **** 
 2125              		.loc 1 243 5 is_stmt 0 discriminator 5 view .LVU601
 2126 0094 074B     		ldr	r3, .L215+20
 2127 0096 9968     		ldr	r1, [r3, #8]
 2128              	.LVL274:
 243:../switch_sdk/core/yt/yt_port.c **** 
 2129              		.loc 1 243 5 discriminator 5 view .LVU602
 2130 0098 0748     		ldr	r0, .L215+24
 2131 009a FFF7FEFF 		bl	osal_printf
 2132              	.LVL275:
 2133 009e F5E7     		b	.L206
 2134              	.L216:
 2135              		.align	2
 2136              	.L215:
 2137 00a0 00000000 		.word	gpfal_dispatch
 2138 00a4 00000000 		.word	gcal_inited
 2139 00a8 00000000 		.word	gpSwitchUnit
 2140 00ac 00000000 		.word	yt_debug_level
 2141 00b0 00000000 		.word	_yt_errmsg
 2142 00b4 00000000 		.word	_yt_prompt_msg
 2143 00b8 00000000 		.word	.LC0
 2144              	.LBE42:
 2145              		.cfi_endproc
 2146              	.LFE12:
 2148              		.section	.text.yt_port_pkt_gap_get,"ax",%progbits
 2149              		.align	1
 2150              		.global	yt_port_pkt_gap_get
 2151              		.syntax unified
 2152              		.thumb
 2153              		.thumb_func
 2155              	yt_port_pkt_gap_get:
 2156              	.LVL276:
 2157              	.LFB13:
 247:../switch_sdk/core/yt/yt_port.c **** 
 248:../switch_sdk/core/yt/yt_port.c **** /**
 249:../switch_sdk/core/yt/yt_port.c ****  * @internal      yt_port_pkt_gap_get
 250:../switch_sdk/core/yt/yt_port.c ****  * @endinternal
 251:../switch_sdk/core/yt/yt_port.c ****  *
 252:../switch_sdk/core/yt/yt_port.c ****  * @brief         Description
 253:../switch_sdk/core/yt/yt_port.c ****  * @note          APPLICABLE DEVICES  -Tiger
 254:../switch_sdk/core/yt/yt_port.c ****  * @param[in]     unit                -unit id
 255:../switch_sdk/core/yt/yt_port.c ****  * @param[in]     port                -port num
 256:../switch_sdk/core/yt/yt_port.c ****  * @param[out]    pGap                -x
 257:../switch_sdk/core/yt/yt_port.c ****  * @retval        CMM_ERR_OK          -on success
 258:../switch_sdk/core/yt/yt_port.c ****  * @retval        CMM_ERR_FAIL        -on fail
 259:../switch_sdk/core/yt/yt_port.c ****  */
 260:../switch_sdk/core/yt/yt_port.c **** yt_ret_t yt_port_pkt_gap_get(yt_unit_t unit, yt_port_t port, uint8_t *pGap)
 261:../switch_sdk/core/yt/yt_port.c **** {
 2158              		.loc 1 261 1 is_stmt 1 view -0
 2159              		.cfi_startproc
 2160              		@ args = 0, pretend = 0, frame = 0
 2161              		@ frame_needed = 0, uses_anonymous_args = 0
 2162              		.loc 1 261 1 is_stmt 0 view .LVU604
 2163 0000 08B5     		push	{r3, lr}
 2164              		.cfi_def_cfa_offset 8
 2165              		.cfi_offset 3, -8
 2166              		.cfi_offset 14, -4
 262:../switch_sdk/core/yt/yt_port.c ****     CMM_PARAM_CHK((YT_UNIT_NUM <= unit), CMM_ERR_INPUT);
 2167              		.loc 1 262 5 is_stmt 1 view .LVU605
 2168              		.loc 1 262 5 view .LVU606
 2169 0002 C0B9     		cbnz	r0, .L231
 2170 0004 8446     		mov	ip, r0
 2171              		.loc 1 262 5 discriminator 2 view .LVU607
 263:../switch_sdk/core/yt/yt_port.c ****     CMM_PARAM_CHK(NULL == YT_DISPATCH(unit), CMM_ERR_NOT_INIT);
 2172              		.loc 1 263 5 discriminator 2 view .LVU608
 2173              		.loc 1 263 5 discriminator 2 view .LVU609
 2174 0006 2F4B     		ldr	r3, .L240
 2175 0008 53F82030 		ldr	r3, [r3, r0, lsl #2]
 2176 000c 0BB3     		cbz	r3, .L232
 2177              		.loc 1 263 5 discriminator 2 view .LVU610
 264:../switch_sdk/core/yt/yt_port.c ****     CMM_PARAM_CHK((!(YT_DISPATCH(unit)->is_inited)), CMM_ERR_NOT_INIT);
 2178              		.loc 1 264 5 discriminator 2 view .LVU611
 2179              		.loc 1 264 5 discriminator 2 view .LVU612
 2180 000e 1878     		ldrb	r0, [r3]	@ zero_extendqisi2
 2181              	.LVL277:
 2182              		.loc 1 264 5 is_stmt 0 discriminator 2 view .LVU613
 2183 0010 0028     		cmp	r0, #0
 2184 0012 2CD0     		beq	.L233
 2185              		.loc 1 264 5 is_stmt 1 discriminator 2 view .LVU614
 265:../switch_sdk/core/yt/yt_port.c ****     CMM_PARAM_CHK((!(CMM_PORT_VALID(unit, port))), CMM_ERR_PORT);
 2186              		.loc 1 265 5 discriminator 2 view .LVU615
 2187              		.loc 1 265 5 discriminator 2 view .LVU616
 2188 0014 2C48     		ldr	r0, .L240+4
 2189 0016 0078     		ldrb	r0, [r0]	@ zero_extendqisi2
 2190 0018 0028     		cmp	r0, #0
 2191 001a 36D0     		beq	.L225
 2192 001c 2B48     		ldr	r0, .L240+8
 2193 001e 50F82C00 		ldr	r0, [r0, ip, lsl #2]
 2194 0022 007D     		ldrb	r0, [r0, #20]	@ zero_extendqisi2
 2195 0024 8842     		cmp	r0, r1
 2196 0026 30D9     		bls	.L225
 2197              		.loc 1 265 5 discriminator 4 view .LVU617
 266:../switch_sdk/core/yt/yt_port.c ****     CMM_PARAM_CHK((NULL == pGap), CMM_ERR_NULL_POINT);
 2198              		.loc 1 266 5 discriminator 4 view .LVU618
 2199              		.loc 1 266 5 discriminator 4 view .LVU619
 2200 0028 002A     		cmp	r2, #0
 2201 002a 3CD0     		beq	.L234
 2202              		.loc 1 266 5 discriminator 2 view .LVU620
 267:../switch_sdk/core/yt/yt_port.c **** 
 268:../switch_sdk/core/yt/yt_port.c ****     return YT_DISPATCH(unit)->port_pkt_gap_get(unit, port, pGap);
 2203              		.loc 1 268 5 discriminator 2 view .LVU621
 2204              		.loc 1 268 29 is_stmt 0 discriminator 2 view .LVU622
 2205 002c D3F87835 		ldr	r3, [r3, #1400]
 2206              		.loc 1 268 12 discriminator 2 view .LVU623
 2207 0030 6046     		mov	r0, ip
 2208 0032 9847     		blx	r3
 2209              	.LVL278:
 2210              	.L217:
 269:../switch_sdk/core/yt/yt_port.c **** }
 2211              		.loc 1 269 1 view .LVU624
 2212 0034 08BD     		pop	{r3, pc}
 2213              	.LVL279:
 2214              	.L231:
 262:../switch_sdk/core/yt/yt_port.c ****     CMM_PARAM_CHK(NULL == YT_DISPATCH(unit), CMM_ERR_NOT_INIT);
 2215              		.loc 1 262 5 is_stmt 1 discriminator 1 view .LVU625
 262:../switch_sdk/core/yt/yt_port.c ****     CMM_PARAM_CHK(NULL == YT_DISPATCH(unit), CMM_ERR_NOT_INIT);
 2216              		.loc 1 262 5 discriminator 1 view .LVU626
 2217 0036 264B     		ldr	r3, .L240+12
 2218 0038 1B78     		ldrb	r3, [r3]	@ zero_extendqisi2
 2219 003a 012B     		cmp	r3, #1
 2220 003c 01D8     		bhi	.L235
 2221              	.LVL280:
 2222              	.L219:
 262:../switch_sdk/core/yt/yt_port.c ****     CMM_PARAM_CHK(NULL == YT_DISPATCH(unit), CMM_ERR_NOT_INIT);
 2223              		.loc 1 262 5 discriminator 5 view .LVU627
 262:../switch_sdk/core/yt/yt_port.c ****     CMM_PARAM_CHK(NULL == YT_DISPATCH(unit), CMM_ERR_NOT_INIT);
 2224              		.loc 1 262 5 discriminator 5 view .LVU628
 262:../switch_sdk/core/yt/yt_port.c ****     CMM_PARAM_CHK(NULL == YT_DISPATCH(unit), CMM_ERR_NOT_INIT);
 2225              		.loc 1 262 5 discriminator 5 view .LVU629
 2226 003e 0520     		movs	r0, #5
 2227 0040 F8E7     		b	.L217
 2228              	.LVL281:
 2229              	.L235:
 262:../switch_sdk/core/yt/yt_port.c ****     CMM_PARAM_CHK(NULL == YT_DISPATCH(unit), CMM_ERR_NOT_INIT);
 2230              		.loc 1 262 5 discriminator 3 view .LVU630
 2231              	.LBB43:
 262:../switch_sdk/core/yt/yt_port.c ****     CMM_PARAM_CHK(NULL == YT_DISPATCH(unit), CMM_ERR_NOT_INIT);
 2232              		.loc 1 262 5 discriminator 3 view .LVU631
 2233 0042 244B     		ldr	r3, .L240+16
 2234 0044 5A69     		ldr	r2, [r3, #20]
 2235              	.LVL282:
 262:../switch_sdk/core/yt/yt_port.c ****     CMM_PARAM_CHK(NULL == YT_DISPATCH(unit), CMM_ERR_NOT_INIT);
 2236              		.loc 1 262 5 is_stmt 0 discriminator 3 view .LVU632
 2237 0046 244B     		ldr	r3, .L240+20
 2238 0048 9968     		ldr	r1, [r3, #8]
 2239              	.LVL283:
 262:../switch_sdk/core/yt/yt_port.c ****     CMM_PARAM_CHK(NULL == YT_DISPATCH(unit), CMM_ERR_NOT_INIT);
 2240              		.loc 1 262 5 discriminator 3 view .LVU633
 2241 004a 2448     		ldr	r0, .L240+24
 2242              	.LVL284:
 262:../switch_sdk/core/yt/yt_port.c ****     CMM_PARAM_CHK(NULL == YT_DISPATCH(unit), CMM_ERR_NOT_INIT);
 2243              		.loc 1 262 5 discriminator 3 view .LVU634
 2244 004c FFF7FEFF 		bl	osal_printf
 2245              	.LVL285:
 2246 0050 F5E7     		b	.L219
 2247              	.LVL286:
 2248              	.L232:
 262:../switch_sdk/core/yt/yt_port.c ****     CMM_PARAM_CHK(NULL == YT_DISPATCH(unit), CMM_ERR_NOT_INIT);
 2249              		.loc 1 262 5 discriminator 3 view .LVU635
 2250              	.LBE43:
 263:../switch_sdk/core/yt/yt_port.c ****     CMM_PARAM_CHK((!(YT_DISPATCH(unit)->is_inited)), CMM_ERR_NOT_INIT);
 2251              		.loc 1 263 5 is_stmt 1 discriminator 1 view .LVU636
 263:../switch_sdk/core/yt/yt_port.c ****     CMM_PARAM_CHK((!(YT_DISPATCH(unit)->is_inited)), CMM_ERR_NOT_INIT);
 2252              		.loc 1 263 5 discriminator 1 view .LVU637
 2253 0052 1F4B     		ldr	r3, .L240+12
 2254 0054 1B78     		ldrb	r3, [r3]	@ zero_extendqisi2
 2255 0056 012B     		cmp	r3, #1
 2256 0058 01D8     		bhi	.L236
 2257              	.LVL287:
 2258              	.L222:
 263:../switch_sdk/core/yt/yt_port.c ****     CMM_PARAM_CHK((!(YT_DISPATCH(unit)->is_inited)), CMM_ERR_NOT_INIT);
 2259              		.loc 1 263 5 discriminator 5 view .LVU638
 263:../switch_sdk/core/yt/yt_port.c ****     CMM_PARAM_CHK((!(YT_DISPATCH(unit)->is_inited)), CMM_ERR_NOT_INIT);
 2260              		.loc 1 263 5 discriminator 5 view .LVU639
 263:../switch_sdk/core/yt/yt_port.c ****     CMM_PARAM_CHK((!(YT_DISPATCH(unit)->is_inited)), CMM_ERR_NOT_INIT);
 2261              		.loc 1 263 5 discriminator 5 view .LVU640
 2262 005a 0420     		movs	r0, #4
 2263 005c EAE7     		b	.L217
 2264              	.LVL288:
 2265              	.L236:
 263:../switch_sdk/core/yt/yt_port.c ****     CMM_PARAM_CHK((!(YT_DISPATCH(unit)->is_inited)), CMM_ERR_NOT_INIT);
 2266              		.loc 1 263 5 discriminator 3 view .LVU641
 2267              	.LBB44:
 263:../switch_sdk/core/yt/yt_port.c ****     CMM_PARAM_CHK((!(YT_DISPATCH(unit)->is_inited)), CMM_ERR_NOT_INIT);
 2268              		.loc 1 263 5 discriminator 3 view .LVU642
 2269 005e 1D4B     		ldr	r3, .L240+16
 2270 0060 1A69     		ldr	r2, [r3, #16]
 2271              	.LVL289:
 263:../switch_sdk/core/yt/yt_port.c ****     CMM_PARAM_CHK((!(YT_DISPATCH(unit)->is_inited)), CMM_ERR_NOT_INIT);
 2272              		.loc 1 263 5 is_stmt 0 discriminator 3 view .LVU643
 2273 0062 1D4B     		ldr	r3, .L240+20
 2274 0064 9968     		ldr	r1, [r3, #8]
 2275              	.LVL290:
 263:../switch_sdk/core/yt/yt_port.c ****     CMM_PARAM_CHK((!(YT_DISPATCH(unit)->is_inited)), CMM_ERR_NOT_INIT);
 2276              		.loc 1 263 5 discriminator 3 view .LVU644
 2277 0066 1D48     		ldr	r0, .L240+24
 2278              	.LVL291:
 263:../switch_sdk/core/yt/yt_port.c ****     CMM_PARAM_CHK((!(YT_DISPATCH(unit)->is_inited)), CMM_ERR_NOT_INIT);
 2279              		.loc 1 263 5 discriminator 3 view .LVU645
 2280 0068 FFF7FEFF 		bl	osal_printf
 2281              	.LVL292:
 2282 006c F5E7     		b	.L222
 2283              	.LVL293:
 2284              	.L233:
 263:../switch_sdk/core/yt/yt_port.c ****     CMM_PARAM_CHK((!(YT_DISPATCH(unit)->is_inited)), CMM_ERR_NOT_INIT);
 2285              		.loc 1 263 5 discriminator 3 view .LVU646
 2286              	.LBE44:
 264:../switch_sdk/core/yt/yt_port.c ****     CMM_PARAM_CHK((!(CMM_PORT_VALID(unit, port))), CMM_ERR_PORT);
 2287              		.loc 1 264 5 is_stmt 1 discriminator 1 view .LVU647
 264:../switch_sdk/core/yt/yt_port.c ****     CMM_PARAM_CHK((!(CMM_PORT_VALID(unit, port))), CMM_ERR_PORT);
 2288              		.loc 1 264 5 discriminator 1 view .LVU648
 2289 006e 184B     		ldr	r3, .L240+12
 2290 0070 1B78     		ldrb	r3, [r3]	@ zero_extendqisi2
 2291 0072 012B     		cmp	r3, #1
 2292 0074 01D8     		bhi	.L237
 2293              	.LVL294:
 2294              	.L224:
 264:../switch_sdk/core/yt/yt_port.c ****     CMM_PARAM_CHK((!(CMM_PORT_VALID(unit, port))), CMM_ERR_PORT);
 2295              		.loc 1 264 5 discriminator 5 view .LVU649
 264:../switch_sdk/core/yt/yt_port.c ****     CMM_PARAM_CHK((!(CMM_PORT_VALID(unit, port))), CMM_ERR_PORT);
 2296              		.loc 1 264 5 discriminator 5 view .LVU650
 264:../switch_sdk/core/yt/yt_port.c ****     CMM_PARAM_CHK((!(CMM_PORT_VALID(unit, port))), CMM_ERR_PORT);
 2297              		.loc 1 264 5 discriminator 5 view .LVU651
 2298 0076 0420     		movs	r0, #4
 2299 0078 DCE7     		b	.L217
 2300              	.LVL295:
 2301              	.L237:
 264:../switch_sdk/core/yt/yt_port.c ****     CMM_PARAM_CHK((!(CMM_PORT_VALID(unit, port))), CMM_ERR_PORT);
 2302              		.loc 1 264 5 discriminator 3 view .LVU652
 2303              	.LBB45:
 264:../switch_sdk/core/yt/yt_port.c ****     CMM_PARAM_CHK((!(CMM_PORT_VALID(unit, port))), CMM_ERR_PORT);
 2304              		.loc 1 264 5 discriminator 3 view .LVU653
 2305 007a 164B     		ldr	r3, .L240+16
 2306 007c 1A69     		ldr	r2, [r3, #16]
 2307              	.LVL296:
 264:../switch_sdk/core/yt/yt_port.c ****     CMM_PARAM_CHK((!(CMM_PORT_VALID(unit, port))), CMM_ERR_PORT);
 2308              		.loc 1 264 5 is_stmt 0 discriminator 3 view .LVU654
 2309 007e 164B     		ldr	r3, .L240+20
 2310 0080 9968     		ldr	r1, [r3, #8]
 2311              	.LVL297:
 264:../switch_sdk/core/yt/yt_port.c ****     CMM_PARAM_CHK((!(CMM_PORT_VALID(unit, port))), CMM_ERR_PORT);
 2312              		.loc 1 264 5 discriminator 3 view .LVU655
 2313 0082 1648     		ldr	r0, .L240+24
 2314 0084 FFF7FEFF 		bl	osal_printf
 2315              	.LVL298:
 2316 0088 F5E7     		b	.L224
 2317              	.LVL299:
 2318              	.L225:
 264:../switch_sdk/core/yt/yt_port.c ****     CMM_PARAM_CHK((!(CMM_PORT_VALID(unit, port))), CMM_ERR_PORT);
 2319              		.loc 1 264 5 discriminator 3 view .LVU656
 2320              	.LBE45:
 265:../switch_sdk/core/yt/yt_port.c ****     CMM_PARAM_CHK((NULL == pGap), CMM_ERR_NULL_POINT);
 2321              		.loc 1 265 5 is_stmt 1 discriminator 3 view .LVU657
 265:../switch_sdk/core/yt/yt_port.c ****     CMM_PARAM_CHK((NULL == pGap), CMM_ERR_NULL_POINT);
 2322              		.loc 1 265 5 discriminator 3 view .LVU658
 2323 008a 114B     		ldr	r3, .L240+12
 2324 008c 1B78     		ldrb	r3, [r3]	@ zero_extendqisi2
 2325 008e 012B     		cmp	r3, #1
 2326 0090 01D8     		bhi	.L238
 2327              	.LVL300:
 2328              	.L227:
 265:../switch_sdk/core/yt/yt_port.c ****     CMM_PARAM_CHK((NULL == pGap), CMM_ERR_NULL_POINT);
 2329              		.loc 1 265 5 discriminator 7 view .LVU659
 265:../switch_sdk/core/yt/yt_port.c ****     CMM_PARAM_CHK((NULL == pGap), CMM_ERR_NULL_POINT);
 2330              		.loc 1 265 5 discriminator 7 view .LVU660
 265:../switch_sdk/core/yt/yt_port.c ****     CMM_PARAM_CHK((NULL == pGap), CMM_ERR_NULL_POINT);
 2331              		.loc 1 265 5 discriminator 7 view .LVU661
 2332 0092 0E20     		movs	r0, #14
 2333 0094 CEE7     		b	.L217
 2334              	.LVL301:
 2335              	.L238:
 265:../switch_sdk/core/yt/yt_port.c ****     CMM_PARAM_CHK((NULL == pGap), CMM_ERR_NULL_POINT);
 2336              		.loc 1 265 5 discriminator 5 view .LVU662
 2337              	.LBB46:
 265:../switch_sdk/core/yt/yt_port.c ****     CMM_PARAM_CHK((NULL == pGap), CMM_ERR_NULL_POINT);
 2338              		.loc 1 265 5 discriminator 5 view .LVU663
 2339 0096 0F4B     		ldr	r3, .L240+16
 2340 0098 9A6B     		ldr	r2, [r3, #56]
 2341              	.LVL302:
 265:../switch_sdk/core/yt/yt_port.c ****     CMM_PARAM_CHK((NULL == pGap), CMM_ERR_NULL_POINT);
 2342              		.loc 1 265 5 is_stmt 0 discriminator 5 view .LVU664
 2343 009a 0F4B     		ldr	r3, .L240+20
 2344 009c 9968     		ldr	r1, [r3, #8]
 2345              	.LVL303:
 265:../switch_sdk/core/yt/yt_port.c ****     CMM_PARAM_CHK((NULL == pGap), CMM_ERR_NULL_POINT);
 2346              		.loc 1 265 5 discriminator 5 view .LVU665
 2347 009e 0F48     		ldr	r0, .L240+24
 2348 00a0 FFF7FEFF 		bl	osal_printf
 2349              	.LVL304:
 2350 00a4 F5E7     		b	.L227
 2351              	.LVL305:
 2352              	.L234:
 265:../switch_sdk/core/yt/yt_port.c ****     CMM_PARAM_CHK((NULL == pGap), CMM_ERR_NULL_POINT);
 2353              		.loc 1 265 5 discriminator 5 view .LVU666
 2354              	.LBE46:
 266:../switch_sdk/core/yt/yt_port.c **** 
 2355              		.loc 1 266 5 is_stmt 1 discriminator 1 view .LVU667
 266:../switch_sdk/core/yt/yt_port.c **** 
 2356              		.loc 1 266 5 discriminator 1 view .LVU668
 2357 00a6 0A4B     		ldr	r3, .L240+12
 2358 00a8 1B78     		ldrb	r3, [r3]	@ zero_extendqisi2
 2359 00aa 012B     		cmp	r3, #1
 2360 00ac 01D8     		bhi	.L239
 2361              	.LVL306:
 2362              	.L229:
 266:../switch_sdk/core/yt/yt_port.c **** 
 2363              		.loc 1 266 5 discriminator 5 view .LVU669
 266:../switch_sdk/core/yt/yt_port.c **** 
 2364              		.loc 1 266 5 discriminator 5 view .LVU670
 266:../switch_sdk/core/yt/yt_port.c **** 
 2365              		.loc 1 266 5 discriminator 5 view .LVU671
 2366 00ae 0220     		movs	r0, #2
 2367 00b0 C0E7     		b	.L217
 2368              	.LVL307:
 2369              	.L239:
 266:../switch_sdk/core/yt/yt_port.c **** 
 2370              		.loc 1 266 5 discriminator 3 view .LVU672
 2371              	.LBB47:
 266:../switch_sdk/core/yt/yt_port.c **** 
 2372              		.loc 1 266 5 discriminator 3 view .LVU673
 2373 00b2 084B     		ldr	r3, .L240+16
 2374 00b4 9A68     		ldr	r2, [r3, #8]
 2375              	.LVL308:
 266:../switch_sdk/core/yt/yt_port.c **** 
 2376              		.loc 1 266 5 is_stmt 0 discriminator 3 view .LVU674
 2377 00b6 084B     		ldr	r3, .L240+20
 2378 00b8 9968     		ldr	r1, [r3, #8]
 2379              	.LVL309:
 266:../switch_sdk/core/yt/yt_port.c **** 
 2380              		.loc 1 266 5 discriminator 3 view .LVU675
 2381 00ba 0848     		ldr	r0, .L240+24
 2382 00bc FFF7FEFF 		bl	osal_printf
 2383              	.LVL310:
 2384 00c0 F5E7     		b	.L229
 2385              	.L241:
 2386 00c2 00BF     		.align	2
 2387              	.L240:
 2388 00c4 00000000 		.word	gpfal_dispatch
 2389 00c8 00000000 		.word	gcal_inited
 2390 00cc 00000000 		.word	gpSwitchUnit
 2391 00d0 00000000 		.word	yt_debug_level
 2392 00d4 00000000 		.word	_yt_errmsg
 2393 00d8 00000000 		.word	_yt_prompt_msg
 2394 00dc 00000000 		.word	.LC0
 2395              	.LBE47:
 2396              		.cfi_endproc
 2397              	.LFE13:
 2399              		.section	.text.yt_port_macAutoNeg_enable_set,"ax",%progbits
 2400              		.align	1
 2401              		.global	yt_port_macAutoNeg_enable_set
 2402              		.syntax unified
 2403              		.thumb
 2404              		.thumb_func
 2406              	yt_port_macAutoNeg_enable_set:
 2407              	.LVL311:
 2408              	.LFB14:
 270:../switch_sdk/core/yt/yt_port.c **** 
 271:../switch_sdk/core/yt/yt_port.c **** /**
 272:../switch_sdk/core/yt/yt_port.c ****  * @internal      yt_port_macAutoNeg_enable_set
 273:../switch_sdk/core/yt/yt_port.c ****  * @endinternal
 274:../switch_sdk/core/yt/yt_port.c ****  *
 275:../switch_sdk/core/yt/yt_port.c ****  * @brief         Description
 276:../switch_sdk/core/yt/yt_port.c ****  * @note          APPLICABLE DEVICES  -Tiger
 277:../switch_sdk/core/yt/yt_port.c ****  * @param[in]     unit                -unit id
 278:../switch_sdk/core/yt/yt_port.c ****  * @param[in]     port                -port num
 279:../switch_sdk/core/yt/yt_port.c ****  * @param[in]     enable              -enable or disable
 280:../switch_sdk/core/yt/yt_port.c ****  * @retval        CMM_ERR_OK          -on success
 281:../switch_sdk/core/yt/yt_port.c ****  * @retval        CMM_ERR_FAIL        -on fail
 282:../switch_sdk/core/yt/yt_port.c ****  */
 283:../switch_sdk/core/yt/yt_port.c **** yt_ret_t yt_port_macAutoNeg_enable_set(yt_unit_t unit, yt_port_t port, yt_enable_t enable)
 284:../switch_sdk/core/yt/yt_port.c **** {
 2409              		.loc 1 284 1 is_stmt 1 view -0
 2410              		.cfi_startproc
 2411              		@ args = 0, pretend = 0, frame = 0
 2412              		@ frame_needed = 0, uses_anonymous_args = 0
 2413              		.loc 1 284 1 is_stmt 0 view .LVU677
 2414 0000 08B5     		push	{r3, lr}
 2415              		.cfi_def_cfa_offset 8
 2416              		.cfi_offset 3, -8
 2417              		.cfi_offset 14, -4
 285:../switch_sdk/core/yt/yt_port.c ****     CMM_PARAM_CHK((YT_UNIT_NUM <= unit), CMM_ERR_INPUT);
 2418              		.loc 1 285 5 is_stmt 1 view .LVU678
 2419              		.loc 1 285 5 view .LVU679
 2420 0002 C0B9     		cbnz	r0, .L256
 2421 0004 8446     		mov	ip, r0
 2422              		.loc 1 285 5 discriminator 2 view .LVU680
 286:../switch_sdk/core/yt/yt_port.c ****     CMM_PARAM_CHK(NULL == YT_DISPATCH(unit), CMM_ERR_NOT_INIT);
 2423              		.loc 1 286 5 discriminator 2 view .LVU681
 2424              		.loc 1 286 5 discriminator 2 view .LVU682
 2425 0006 2F4B     		ldr	r3, .L265
 2426 0008 53F82030 		ldr	r3, [r3, r0, lsl #2]
 2427 000c 0BB3     		cbz	r3, .L257
 2428              		.loc 1 286 5 discriminator 2 view .LVU683
 287:../switch_sdk/core/yt/yt_port.c ****     CMM_PARAM_CHK((!(YT_DISPATCH(unit)->is_inited)), CMM_ERR_NOT_INIT);
 2429              		.loc 1 287 5 discriminator 2 view .LVU684
 2430              		.loc 1 287 5 discriminator 2 view .LVU685
 2431 000e 1878     		ldrb	r0, [r3]	@ zero_extendqisi2
 2432              	.LVL312:
 2433              		.loc 1 287 5 is_stmt 0 discriminator 2 view .LVU686
 2434 0010 0028     		cmp	r0, #0
 2435 0012 2CD0     		beq	.L258
 2436              		.loc 1 287 5 is_stmt 1 discriminator 2 view .LVU687
 288:../switch_sdk/core/yt/yt_port.c ****     CMM_PARAM_CHK((!(CMM_PORT_VALID(unit, port))), CMM_ERR_PORT);
 2437              		.loc 1 288 5 discriminator 2 view .LVU688
 2438              		.loc 1 288 5 discriminator 2 view .LVU689
 2439 0014 2C48     		ldr	r0, .L265+4
 2440 0016 0078     		ldrb	r0, [r0]	@ zero_extendqisi2
 2441 0018 0028     		cmp	r0, #0
 2442 001a 36D0     		beq	.L250
 2443 001c 2B48     		ldr	r0, .L265+8
 2444 001e 50F82C00 		ldr	r0, [r0, ip, lsl #2]
 2445 0022 007D     		ldrb	r0, [r0, #20]	@ zero_extendqisi2
 2446 0024 8842     		cmp	r0, r1
 2447 0026 30D9     		bls	.L250
 2448              		.loc 1 288 5 discriminator 4 view .LVU690
 289:../switch_sdk/core/yt/yt_port.c ****     CMM_PARAM_CHK((YT_ENABLE < enable || YT_DISABLE > enable), CMM_ERR_INPUT);
 2449              		.loc 1 289 5 discriminator 4 view .LVU691
 2450              		.loc 1 289 5 discriminator 4 view .LVU692
 2451 0028 012A     		cmp	r2, #1
 2452 002a 3CD8     		bhi	.L259
 2453              		.loc 1 289 5 discriminator 2 view .LVU693
 290:../switch_sdk/core/yt/yt_port.c **** 
 291:../switch_sdk/core/yt/yt_port.c ****     return YT_DISPATCH(unit)->port_macAutoNeg_enable_set(unit, port, enable);
 2454              		.loc 1 291 5 discriminator 2 view .LVU694
 2455              		.loc 1 291 29 is_stmt 0 discriminator 2 view .LVU695
 2456 002c D3F87C35 		ldr	r3, [r3, #1404]
 2457              		.loc 1 291 12 discriminator 2 view .LVU696
 2458 0030 6046     		mov	r0, ip
 2459 0032 9847     		blx	r3
 2460              	.LVL313:
 2461              	.L242:
 292:../switch_sdk/core/yt/yt_port.c **** }
 2462              		.loc 1 292 1 view .LVU697
 2463 0034 08BD     		pop	{r3, pc}
 2464              	.LVL314:
 2465              	.L256:
 285:../switch_sdk/core/yt/yt_port.c ****     CMM_PARAM_CHK(NULL == YT_DISPATCH(unit), CMM_ERR_NOT_INIT);
 2466              		.loc 1 285 5 is_stmt 1 discriminator 1 view .LVU698
 285:../switch_sdk/core/yt/yt_port.c ****     CMM_PARAM_CHK(NULL == YT_DISPATCH(unit), CMM_ERR_NOT_INIT);
 2467              		.loc 1 285 5 discriminator 1 view .LVU699
 2468 0036 264B     		ldr	r3, .L265+12
 2469 0038 1B78     		ldrb	r3, [r3]	@ zero_extendqisi2
 2470 003a 012B     		cmp	r3, #1
 2471 003c 01D8     		bhi	.L260
 2472              	.LVL315:
 2473              	.L244:
 285:../switch_sdk/core/yt/yt_port.c ****     CMM_PARAM_CHK(NULL == YT_DISPATCH(unit), CMM_ERR_NOT_INIT);
 2474              		.loc 1 285 5 discriminator 5 view .LVU700
 285:../switch_sdk/core/yt/yt_port.c ****     CMM_PARAM_CHK(NULL == YT_DISPATCH(unit), CMM_ERR_NOT_INIT);
 2475              		.loc 1 285 5 discriminator 5 view .LVU701
 285:../switch_sdk/core/yt/yt_port.c ****     CMM_PARAM_CHK(NULL == YT_DISPATCH(unit), CMM_ERR_NOT_INIT);
 2476              		.loc 1 285 5 discriminator 5 view .LVU702
 2477 003e 0520     		movs	r0, #5
 2478 0040 F8E7     		b	.L242
 2479              	.LVL316:
 2480              	.L260:
 285:../switch_sdk/core/yt/yt_port.c ****     CMM_PARAM_CHK(NULL == YT_DISPATCH(unit), CMM_ERR_NOT_INIT);
 2481              		.loc 1 285 5 discriminator 3 view .LVU703
 2482              	.LBB48:
 285:../switch_sdk/core/yt/yt_port.c ****     CMM_PARAM_CHK(NULL == YT_DISPATCH(unit), CMM_ERR_NOT_INIT);
 2483              		.loc 1 285 5 discriminator 3 view .LVU704
 2484 0042 244B     		ldr	r3, .L265+16
 2485 0044 5A69     		ldr	r2, [r3, #20]
 2486              	.LVL317:
 285:../switch_sdk/core/yt/yt_port.c ****     CMM_PARAM_CHK(NULL == YT_DISPATCH(unit), CMM_ERR_NOT_INIT);
 2487              		.loc 1 285 5 is_stmt 0 discriminator 3 view .LVU705
 2488 0046 244B     		ldr	r3, .L265+20
 2489 0048 9968     		ldr	r1, [r3, #8]
 2490              	.LVL318:
 285:../switch_sdk/core/yt/yt_port.c ****     CMM_PARAM_CHK(NULL == YT_DISPATCH(unit), CMM_ERR_NOT_INIT);
 2491              		.loc 1 285 5 discriminator 3 view .LVU706
 2492 004a 2448     		ldr	r0, .L265+24
 2493              	.LVL319:
 285:../switch_sdk/core/yt/yt_port.c ****     CMM_PARAM_CHK(NULL == YT_DISPATCH(unit), CMM_ERR_NOT_INIT);
 2494              		.loc 1 285 5 discriminator 3 view .LVU707
 2495 004c FFF7FEFF 		bl	osal_printf
 2496              	.LVL320:
 2497 0050 F5E7     		b	.L244
 2498              	.LVL321:
 2499              	.L257:
 285:../switch_sdk/core/yt/yt_port.c ****     CMM_PARAM_CHK(NULL == YT_DISPATCH(unit), CMM_ERR_NOT_INIT);
 2500              		.loc 1 285 5 discriminator 3 view .LVU708
 2501              	.LBE48:
 286:../switch_sdk/core/yt/yt_port.c ****     CMM_PARAM_CHK((!(YT_DISPATCH(unit)->is_inited)), CMM_ERR_NOT_INIT);
 2502              		.loc 1 286 5 is_stmt 1 discriminator 1 view .LVU709
 286:../switch_sdk/core/yt/yt_port.c ****     CMM_PARAM_CHK((!(YT_DISPATCH(unit)->is_inited)), CMM_ERR_NOT_INIT);
 2503              		.loc 1 286 5 discriminator 1 view .LVU710
 2504 0052 1F4B     		ldr	r3, .L265+12
 2505 0054 1B78     		ldrb	r3, [r3]	@ zero_extendqisi2
 2506 0056 012B     		cmp	r3, #1
 2507 0058 01D8     		bhi	.L261
 2508              	.LVL322:
 2509              	.L247:
 286:../switch_sdk/core/yt/yt_port.c ****     CMM_PARAM_CHK((!(YT_DISPATCH(unit)->is_inited)), CMM_ERR_NOT_INIT);
 2510              		.loc 1 286 5 discriminator 5 view .LVU711
 286:../switch_sdk/core/yt/yt_port.c ****     CMM_PARAM_CHK((!(YT_DISPATCH(unit)->is_inited)), CMM_ERR_NOT_INIT);
 2511              		.loc 1 286 5 discriminator 5 view .LVU712
 286:../switch_sdk/core/yt/yt_port.c ****     CMM_PARAM_CHK((!(YT_DISPATCH(unit)->is_inited)), CMM_ERR_NOT_INIT);
 2512              		.loc 1 286 5 discriminator 5 view .LVU713
 2513 005a 0420     		movs	r0, #4
 2514 005c EAE7     		b	.L242
 2515              	.LVL323:
 2516              	.L261:
 286:../switch_sdk/core/yt/yt_port.c ****     CMM_PARAM_CHK((!(YT_DISPATCH(unit)->is_inited)), CMM_ERR_NOT_INIT);
 2517              		.loc 1 286 5 discriminator 3 view .LVU714
 2518              	.LBB49:
 286:../switch_sdk/core/yt/yt_port.c ****     CMM_PARAM_CHK((!(YT_DISPATCH(unit)->is_inited)), CMM_ERR_NOT_INIT);
 2519              		.loc 1 286 5 discriminator 3 view .LVU715
 2520 005e 1D4B     		ldr	r3, .L265+16
 2521 0060 1A69     		ldr	r2, [r3, #16]
 2522              	.LVL324:
 286:../switch_sdk/core/yt/yt_port.c ****     CMM_PARAM_CHK((!(YT_DISPATCH(unit)->is_inited)), CMM_ERR_NOT_INIT);
 2523              		.loc 1 286 5 is_stmt 0 discriminator 3 view .LVU716
 2524 0062 1D4B     		ldr	r3, .L265+20
 2525 0064 9968     		ldr	r1, [r3, #8]
 2526              	.LVL325:
 286:../switch_sdk/core/yt/yt_port.c ****     CMM_PARAM_CHK((!(YT_DISPATCH(unit)->is_inited)), CMM_ERR_NOT_INIT);
 2527              		.loc 1 286 5 discriminator 3 view .LVU717
 2528 0066 1D48     		ldr	r0, .L265+24
 2529              	.LVL326:
 286:../switch_sdk/core/yt/yt_port.c ****     CMM_PARAM_CHK((!(YT_DISPATCH(unit)->is_inited)), CMM_ERR_NOT_INIT);
 2530              		.loc 1 286 5 discriminator 3 view .LVU718
 2531 0068 FFF7FEFF 		bl	osal_printf
 2532              	.LVL327:
 2533 006c F5E7     		b	.L247
 2534              	.LVL328:
 2535              	.L258:
 286:../switch_sdk/core/yt/yt_port.c ****     CMM_PARAM_CHK((!(YT_DISPATCH(unit)->is_inited)), CMM_ERR_NOT_INIT);
 2536              		.loc 1 286 5 discriminator 3 view .LVU719
 2537              	.LBE49:
 287:../switch_sdk/core/yt/yt_port.c ****     CMM_PARAM_CHK((!(CMM_PORT_VALID(unit, port))), CMM_ERR_PORT);
 2538              		.loc 1 287 5 is_stmt 1 discriminator 1 view .LVU720
 287:../switch_sdk/core/yt/yt_port.c ****     CMM_PARAM_CHK((!(CMM_PORT_VALID(unit, port))), CMM_ERR_PORT);
 2539              		.loc 1 287 5 discriminator 1 view .LVU721
 2540 006e 184B     		ldr	r3, .L265+12
 2541 0070 1B78     		ldrb	r3, [r3]	@ zero_extendqisi2
 2542 0072 012B     		cmp	r3, #1
 2543 0074 01D8     		bhi	.L262
 2544              	.LVL329:
 2545              	.L249:
 287:../switch_sdk/core/yt/yt_port.c ****     CMM_PARAM_CHK((!(CMM_PORT_VALID(unit, port))), CMM_ERR_PORT);
 2546              		.loc 1 287 5 discriminator 5 view .LVU722
 287:../switch_sdk/core/yt/yt_port.c ****     CMM_PARAM_CHK((!(CMM_PORT_VALID(unit, port))), CMM_ERR_PORT);
 2547              		.loc 1 287 5 discriminator 5 view .LVU723
 287:../switch_sdk/core/yt/yt_port.c ****     CMM_PARAM_CHK((!(CMM_PORT_VALID(unit, port))), CMM_ERR_PORT);
 2548              		.loc 1 287 5 discriminator 5 view .LVU724
 2549 0076 0420     		movs	r0, #4
 2550 0078 DCE7     		b	.L242
 2551              	.LVL330:
 2552              	.L262:
 287:../switch_sdk/core/yt/yt_port.c ****     CMM_PARAM_CHK((!(CMM_PORT_VALID(unit, port))), CMM_ERR_PORT);
 2553              		.loc 1 287 5 discriminator 3 view .LVU725
 2554              	.LBB50:
 287:../switch_sdk/core/yt/yt_port.c ****     CMM_PARAM_CHK((!(CMM_PORT_VALID(unit, port))), CMM_ERR_PORT);
 2555              		.loc 1 287 5 discriminator 3 view .LVU726
 2556 007a 164B     		ldr	r3, .L265+16
 2557 007c 1A69     		ldr	r2, [r3, #16]
 2558              	.LVL331:
 287:../switch_sdk/core/yt/yt_port.c ****     CMM_PARAM_CHK((!(CMM_PORT_VALID(unit, port))), CMM_ERR_PORT);
 2559              		.loc 1 287 5 is_stmt 0 discriminator 3 view .LVU727
 2560 007e 164B     		ldr	r3, .L265+20
 2561 0080 9968     		ldr	r1, [r3, #8]
 2562              	.LVL332:
 287:../switch_sdk/core/yt/yt_port.c ****     CMM_PARAM_CHK((!(CMM_PORT_VALID(unit, port))), CMM_ERR_PORT);
 2563              		.loc 1 287 5 discriminator 3 view .LVU728
 2564 0082 1648     		ldr	r0, .L265+24
 2565 0084 FFF7FEFF 		bl	osal_printf
 2566              	.LVL333:
 2567 0088 F5E7     		b	.L249
 2568              	.LVL334:
 2569              	.L250:
 287:../switch_sdk/core/yt/yt_port.c ****     CMM_PARAM_CHK((!(CMM_PORT_VALID(unit, port))), CMM_ERR_PORT);
 2570              		.loc 1 287 5 discriminator 3 view .LVU729
 2571              	.LBE50:
 288:../switch_sdk/core/yt/yt_port.c ****     CMM_PARAM_CHK((YT_ENABLE < enable || YT_DISABLE > enable), CMM_ERR_INPUT);
 2572              		.loc 1 288 5 is_stmt 1 discriminator 3 view .LVU730
 288:../switch_sdk/core/yt/yt_port.c ****     CMM_PARAM_CHK((YT_ENABLE < enable || YT_DISABLE > enable), CMM_ERR_INPUT);
 2573              		.loc 1 288 5 discriminator 3 view .LVU731
 2574 008a 114B     		ldr	r3, .L265+12
 2575 008c 1B78     		ldrb	r3, [r3]	@ zero_extendqisi2
 2576 008e 012B     		cmp	r3, #1
 2577 0090 01D8     		bhi	.L263
 2578              	.LVL335:
 2579              	.L252:
 288:../switch_sdk/core/yt/yt_port.c ****     CMM_PARAM_CHK((YT_ENABLE < enable || YT_DISABLE > enable), CMM_ERR_INPUT);
 2580              		.loc 1 288 5 discriminator 7 view .LVU732
 288:../switch_sdk/core/yt/yt_port.c ****     CMM_PARAM_CHK((YT_ENABLE < enable || YT_DISABLE > enable), CMM_ERR_INPUT);
 2581              		.loc 1 288 5 discriminator 7 view .LVU733
 288:../switch_sdk/core/yt/yt_port.c ****     CMM_PARAM_CHK((YT_ENABLE < enable || YT_DISABLE > enable), CMM_ERR_INPUT);
 2582              		.loc 1 288 5 discriminator 7 view .LVU734
 2583 0092 0E20     		movs	r0, #14
 2584 0094 CEE7     		b	.L242
 2585              	.LVL336:
 2586              	.L263:
 288:../switch_sdk/core/yt/yt_port.c ****     CMM_PARAM_CHK((YT_ENABLE < enable || YT_DISABLE > enable), CMM_ERR_INPUT);
 2587              		.loc 1 288 5 discriminator 5 view .LVU735
 2588              	.LBB51:
 288:../switch_sdk/core/yt/yt_port.c ****     CMM_PARAM_CHK((YT_ENABLE < enable || YT_DISABLE > enable), CMM_ERR_INPUT);
 2589              		.loc 1 288 5 discriminator 5 view .LVU736
 2590 0096 0F4B     		ldr	r3, .L265+16
 2591 0098 9A6B     		ldr	r2, [r3, #56]
 2592              	.LVL337:
 288:../switch_sdk/core/yt/yt_port.c ****     CMM_PARAM_CHK((YT_ENABLE < enable || YT_DISABLE > enable), CMM_ERR_INPUT);
 2593              		.loc 1 288 5 is_stmt 0 discriminator 5 view .LVU737
 2594 009a 0F4B     		ldr	r3, .L265+20
 2595 009c 9968     		ldr	r1, [r3, #8]
 2596              	.LVL338:
 288:../switch_sdk/core/yt/yt_port.c ****     CMM_PARAM_CHK((YT_ENABLE < enable || YT_DISABLE > enable), CMM_ERR_INPUT);
 2597              		.loc 1 288 5 discriminator 5 view .LVU738
 2598 009e 0F48     		ldr	r0, .L265+24
 2599 00a0 FFF7FEFF 		bl	osal_printf
 2600              	.LVL339:
 2601 00a4 F5E7     		b	.L252
 2602              	.LVL340:
 2603              	.L259:
 288:../switch_sdk/core/yt/yt_port.c ****     CMM_PARAM_CHK((YT_ENABLE < enable || YT_DISABLE > enable), CMM_ERR_INPUT);
 2604              		.loc 1 288 5 discriminator 5 view .LVU739
 2605              	.LBE51:
 289:../switch_sdk/core/yt/yt_port.c **** 
 2606              		.loc 1 289 5 is_stmt 1 discriminator 1 view .LVU740
 289:../switch_sdk/core/yt/yt_port.c **** 
 2607              		.loc 1 289 5 discriminator 1 view .LVU741
 2608 00a6 0A4B     		ldr	r3, .L265+12
 2609 00a8 1B78     		ldrb	r3, [r3]	@ zero_extendqisi2
 2610 00aa 012B     		cmp	r3, #1
 2611 00ac 01D8     		bhi	.L264
 2612              	.LVL341:
 2613              	.L254:
 289:../switch_sdk/core/yt/yt_port.c **** 
 2614              		.loc 1 289 5 discriminator 5 view .LVU742
 289:../switch_sdk/core/yt/yt_port.c **** 
 2615              		.loc 1 289 5 discriminator 5 view .LVU743
 289:../switch_sdk/core/yt/yt_port.c **** 
 2616              		.loc 1 289 5 discriminator 5 view .LVU744
 2617 00ae 0520     		movs	r0, #5
 2618 00b0 C0E7     		b	.L242
 2619              	.LVL342:
 2620              	.L264:
 289:../switch_sdk/core/yt/yt_port.c **** 
 2621              		.loc 1 289 5 discriminator 3 view .LVU745
 2622              	.LBB52:
 289:../switch_sdk/core/yt/yt_port.c **** 
 2623              		.loc 1 289 5 discriminator 3 view .LVU746
 2624 00b2 084B     		ldr	r3, .L265+16
 2625 00b4 5A69     		ldr	r2, [r3, #20]
 2626              	.LVL343:
 289:../switch_sdk/core/yt/yt_port.c **** 
 2627              		.loc 1 289 5 is_stmt 0 discriminator 3 view .LVU747
 2628 00b6 084B     		ldr	r3, .L265+20
 2629 00b8 9968     		ldr	r1, [r3, #8]
 2630              	.LVL344:
 289:../switch_sdk/core/yt/yt_port.c **** 
 2631              		.loc 1 289 5 discriminator 3 view .LVU748
 2632 00ba 0848     		ldr	r0, .L265+24
 2633 00bc FFF7FEFF 		bl	osal_printf
 2634              	.LVL345:
 2635 00c0 F5E7     		b	.L254
 2636              	.L266:
 2637 00c2 00BF     		.align	2
 2638              	.L265:
 2639 00c4 00000000 		.word	gpfal_dispatch
 2640 00c8 00000000 		.word	gcal_inited
 2641 00cc 00000000 		.word	gpSwitchUnit
 2642 00d0 00000000 		.word	yt_debug_level
 2643 00d4 00000000 		.word	_yt_errmsg
 2644 00d8 00000000 		.word	_yt_prompt_msg
 2645 00dc 00000000 		.word	.LC0
 2646              	.LBE52:
 2647              		.cfi_endproc
 2648              	.LFE14:
 2650              		.section	.text.yt_port_macAutoNeg_enable_get,"ax",%progbits
 2651              		.align	1
 2652              		.global	yt_port_macAutoNeg_enable_get
 2653              		.syntax unified
 2654              		.thumb
 2655              		.thumb_func
 2657              	yt_port_macAutoNeg_enable_get:
 2658              	.LVL346:
 2659              	.LFB15:
 293:../switch_sdk/core/yt/yt_port.c **** 
 294:../switch_sdk/core/yt/yt_port.c **** /**
 295:../switch_sdk/core/yt/yt_port.c ****  * @internal      yt_port_macAutoNeg_enable_get
 296:../switch_sdk/core/yt/yt_port.c ****  * @endinternal
 297:../switch_sdk/core/yt/yt_port.c ****  *
 298:../switch_sdk/core/yt/yt_port.c ****  * @brief         Description
 299:../switch_sdk/core/yt/yt_port.c ****  * @note          APPLICABLE DEVICES  -Tiger
 300:../switch_sdk/core/yt/yt_port.c ****  * @param[in]     unit                -unit id
 301:../switch_sdk/core/yt/yt_port.c ****  * @param[in]     port                -port num
 302:../switch_sdk/core/yt/yt_port.c ****  * @param[out]    pEnable             -enable or disable
 303:../switch_sdk/core/yt/yt_port.c ****  * @retval        CMM_ERR_OK          -on success
 304:../switch_sdk/core/yt/yt_port.c ****  * @retval        CMM_ERR_FAIL        -on fail
 305:../switch_sdk/core/yt/yt_port.c ****  */
 306:../switch_sdk/core/yt/yt_port.c **** yt_ret_t yt_port_macAutoNeg_enable_get(yt_unit_t unit, yt_port_t port, yt_enable_t *pEnable)
 307:../switch_sdk/core/yt/yt_port.c **** {
 2660              		.loc 1 307 1 is_stmt 1 view -0
 2661              		.cfi_startproc
 2662              		@ args = 0, pretend = 0, frame = 0
 2663              		@ frame_needed = 0, uses_anonymous_args = 0
 2664              		.loc 1 307 1 is_stmt 0 view .LVU750
 2665 0000 08B5     		push	{r3, lr}
 2666              		.cfi_def_cfa_offset 8
 2667              		.cfi_offset 3, -8
 2668              		.cfi_offset 14, -4
 308:../switch_sdk/core/yt/yt_port.c ****     CMM_PARAM_CHK((YT_UNIT_NUM <= unit), CMM_ERR_INPUT);
 2669              		.loc 1 308 5 is_stmt 1 view .LVU751
 2670              		.loc 1 308 5 view .LVU752
 2671 0002 C0B9     		cbnz	r0, .L281
 2672 0004 8446     		mov	ip, r0
 2673              		.loc 1 308 5 discriminator 2 view .LVU753
 309:../switch_sdk/core/yt/yt_port.c ****     CMM_PARAM_CHK(NULL == YT_DISPATCH(unit), CMM_ERR_NOT_INIT);
 2674              		.loc 1 309 5 discriminator 2 view .LVU754
 2675              		.loc 1 309 5 discriminator 2 view .LVU755
 2676 0006 2F4B     		ldr	r3, .L290
 2677 0008 53F82030 		ldr	r3, [r3, r0, lsl #2]
 2678 000c 0BB3     		cbz	r3, .L282
 2679              		.loc 1 309 5 discriminator 2 view .LVU756
 310:../switch_sdk/core/yt/yt_port.c ****     CMM_PARAM_CHK((!(YT_DISPATCH(unit)->is_inited)), CMM_ERR_NOT_INIT);
 2680              		.loc 1 310 5 discriminator 2 view .LVU757
 2681              		.loc 1 310 5 discriminator 2 view .LVU758
 2682 000e 1878     		ldrb	r0, [r3]	@ zero_extendqisi2
 2683              	.LVL347:
 2684              		.loc 1 310 5 is_stmt 0 discriminator 2 view .LVU759
 2685 0010 0028     		cmp	r0, #0
 2686 0012 2CD0     		beq	.L283
 2687              		.loc 1 310 5 is_stmt 1 discriminator 2 view .LVU760
 311:../switch_sdk/core/yt/yt_port.c ****     CMM_PARAM_CHK((!(CMM_PORT_VALID(unit, port))), CMM_ERR_PORT);
 2688              		.loc 1 311 5 discriminator 2 view .LVU761
 2689              		.loc 1 311 5 discriminator 2 view .LVU762
 2690 0014 2C48     		ldr	r0, .L290+4
 2691 0016 0078     		ldrb	r0, [r0]	@ zero_extendqisi2
 2692 0018 0028     		cmp	r0, #0
 2693 001a 36D0     		beq	.L275
 2694 001c 2B48     		ldr	r0, .L290+8
 2695 001e 50F82C00 		ldr	r0, [r0, ip, lsl #2]
 2696 0022 007D     		ldrb	r0, [r0, #20]	@ zero_extendqisi2
 2697 0024 8842     		cmp	r0, r1
 2698 0026 30D9     		bls	.L275
 2699              		.loc 1 311 5 discriminator 4 view .LVU763
 312:../switch_sdk/core/yt/yt_port.c ****     CMM_PARAM_CHK((NULL == pEnable), CMM_ERR_NULL_POINT);
 2700              		.loc 1 312 5 discriminator 4 view .LVU764
 2701              		.loc 1 312 5 discriminator 4 view .LVU765
 2702 0028 002A     		cmp	r2, #0
 2703 002a 3CD0     		beq	.L284
 2704              		.loc 1 312 5 discriminator 2 view .LVU766
 313:../switch_sdk/core/yt/yt_port.c **** 
 314:../switch_sdk/core/yt/yt_port.c ****     return YT_DISPATCH(unit)->port_macAutoNeg_enable_get(unit, port, pEnable);
 2705              		.loc 1 314 5 discriminator 2 view .LVU767
 2706              		.loc 1 314 29 is_stmt 0 discriminator 2 view .LVU768
 2707 002c D3F88035 		ldr	r3, [r3, #1408]
 2708              		.loc 1 314 12 discriminator 2 view .LVU769
 2709 0030 6046     		mov	r0, ip
 2710 0032 9847     		blx	r3
 2711              	.LVL348:
 2712              	.L267:
 315:../switch_sdk/core/yt/yt_port.c **** }
 2713              		.loc 1 315 1 view .LVU770
 2714 0034 08BD     		pop	{r3, pc}
 2715              	.LVL349:
 2716              	.L281:
 308:../switch_sdk/core/yt/yt_port.c ****     CMM_PARAM_CHK(NULL == YT_DISPATCH(unit), CMM_ERR_NOT_INIT);
 2717              		.loc 1 308 5 is_stmt 1 discriminator 1 view .LVU771
 308:../switch_sdk/core/yt/yt_port.c ****     CMM_PARAM_CHK(NULL == YT_DISPATCH(unit), CMM_ERR_NOT_INIT);
 2718              		.loc 1 308 5 discriminator 1 view .LVU772
 2719 0036 264B     		ldr	r3, .L290+12
 2720 0038 1B78     		ldrb	r3, [r3]	@ zero_extendqisi2
 2721 003a 012B     		cmp	r3, #1
 2722 003c 01D8     		bhi	.L285
 2723              	.LVL350:
 2724              	.L269:
 308:../switch_sdk/core/yt/yt_port.c ****     CMM_PARAM_CHK(NULL == YT_DISPATCH(unit), CMM_ERR_NOT_INIT);
 2725              		.loc 1 308 5 discriminator 5 view .LVU773
 308:../switch_sdk/core/yt/yt_port.c ****     CMM_PARAM_CHK(NULL == YT_DISPATCH(unit), CMM_ERR_NOT_INIT);
 2726              		.loc 1 308 5 discriminator 5 view .LVU774
 308:../switch_sdk/core/yt/yt_port.c ****     CMM_PARAM_CHK(NULL == YT_DISPATCH(unit), CMM_ERR_NOT_INIT);
 2727              		.loc 1 308 5 discriminator 5 view .LVU775
 2728 003e 0520     		movs	r0, #5
 2729 0040 F8E7     		b	.L267
 2730              	.LVL351:
 2731              	.L285:
 308:../switch_sdk/core/yt/yt_port.c ****     CMM_PARAM_CHK(NULL == YT_DISPATCH(unit), CMM_ERR_NOT_INIT);
 2732              		.loc 1 308 5 discriminator 3 view .LVU776
 2733              	.LBB53:
 308:../switch_sdk/core/yt/yt_port.c ****     CMM_PARAM_CHK(NULL == YT_DISPATCH(unit), CMM_ERR_NOT_INIT);
 2734              		.loc 1 308 5 discriminator 3 view .LVU777
 2735 0042 244B     		ldr	r3, .L290+16
 2736 0044 5A69     		ldr	r2, [r3, #20]
 2737              	.LVL352:
 308:../switch_sdk/core/yt/yt_port.c ****     CMM_PARAM_CHK(NULL == YT_DISPATCH(unit), CMM_ERR_NOT_INIT);
 2738              		.loc 1 308 5 is_stmt 0 discriminator 3 view .LVU778
 2739 0046 244B     		ldr	r3, .L290+20
 2740 0048 9968     		ldr	r1, [r3, #8]
 2741              	.LVL353:
 308:../switch_sdk/core/yt/yt_port.c ****     CMM_PARAM_CHK(NULL == YT_DISPATCH(unit), CMM_ERR_NOT_INIT);
 2742              		.loc 1 308 5 discriminator 3 view .LVU779
 2743 004a 2448     		ldr	r0, .L290+24
 2744              	.LVL354:
 308:../switch_sdk/core/yt/yt_port.c ****     CMM_PARAM_CHK(NULL == YT_DISPATCH(unit), CMM_ERR_NOT_INIT);
 2745              		.loc 1 308 5 discriminator 3 view .LVU780
 2746 004c FFF7FEFF 		bl	osal_printf
 2747              	.LVL355:
 2748 0050 F5E7     		b	.L269
 2749              	.LVL356:
 2750              	.L282:
 308:../switch_sdk/core/yt/yt_port.c ****     CMM_PARAM_CHK(NULL == YT_DISPATCH(unit), CMM_ERR_NOT_INIT);
 2751              		.loc 1 308 5 discriminator 3 view .LVU781
 2752              	.LBE53:
 309:../switch_sdk/core/yt/yt_port.c ****     CMM_PARAM_CHK((!(YT_DISPATCH(unit)->is_inited)), CMM_ERR_NOT_INIT);
 2753              		.loc 1 309 5 is_stmt 1 discriminator 1 view .LVU782
 309:../switch_sdk/core/yt/yt_port.c ****     CMM_PARAM_CHK((!(YT_DISPATCH(unit)->is_inited)), CMM_ERR_NOT_INIT);
 2754              		.loc 1 309 5 discriminator 1 view .LVU783
 2755 0052 1F4B     		ldr	r3, .L290+12
 2756 0054 1B78     		ldrb	r3, [r3]	@ zero_extendqisi2
 2757 0056 012B     		cmp	r3, #1
 2758 0058 01D8     		bhi	.L286
 2759              	.LVL357:
 2760              	.L272:
 309:../switch_sdk/core/yt/yt_port.c ****     CMM_PARAM_CHK((!(YT_DISPATCH(unit)->is_inited)), CMM_ERR_NOT_INIT);
 2761              		.loc 1 309 5 discriminator 5 view .LVU784
 309:../switch_sdk/core/yt/yt_port.c ****     CMM_PARAM_CHK((!(YT_DISPATCH(unit)->is_inited)), CMM_ERR_NOT_INIT);
 2762              		.loc 1 309 5 discriminator 5 view .LVU785
 309:../switch_sdk/core/yt/yt_port.c ****     CMM_PARAM_CHK((!(YT_DISPATCH(unit)->is_inited)), CMM_ERR_NOT_INIT);
 2763              		.loc 1 309 5 discriminator 5 view .LVU786
 2764 005a 0420     		movs	r0, #4
 2765 005c EAE7     		b	.L267
 2766              	.LVL358:
 2767              	.L286:
 309:../switch_sdk/core/yt/yt_port.c ****     CMM_PARAM_CHK((!(YT_DISPATCH(unit)->is_inited)), CMM_ERR_NOT_INIT);
 2768              		.loc 1 309 5 discriminator 3 view .LVU787
 2769              	.LBB54:
 309:../switch_sdk/core/yt/yt_port.c ****     CMM_PARAM_CHK((!(YT_DISPATCH(unit)->is_inited)), CMM_ERR_NOT_INIT);
 2770              		.loc 1 309 5 discriminator 3 view .LVU788
 2771 005e 1D4B     		ldr	r3, .L290+16
 2772 0060 1A69     		ldr	r2, [r3, #16]
 2773              	.LVL359:
 309:../switch_sdk/core/yt/yt_port.c ****     CMM_PARAM_CHK((!(YT_DISPATCH(unit)->is_inited)), CMM_ERR_NOT_INIT);
 2774              		.loc 1 309 5 is_stmt 0 discriminator 3 view .LVU789
 2775 0062 1D4B     		ldr	r3, .L290+20
 2776 0064 9968     		ldr	r1, [r3, #8]
 2777              	.LVL360:
 309:../switch_sdk/core/yt/yt_port.c ****     CMM_PARAM_CHK((!(YT_DISPATCH(unit)->is_inited)), CMM_ERR_NOT_INIT);
 2778              		.loc 1 309 5 discriminator 3 view .LVU790
 2779 0066 1D48     		ldr	r0, .L290+24
 2780              	.LVL361:
 309:../switch_sdk/core/yt/yt_port.c ****     CMM_PARAM_CHK((!(YT_DISPATCH(unit)->is_inited)), CMM_ERR_NOT_INIT);
 2781              		.loc 1 309 5 discriminator 3 view .LVU791
 2782 0068 FFF7FEFF 		bl	osal_printf
 2783              	.LVL362:
 2784 006c F5E7     		b	.L272
 2785              	.LVL363:
 2786              	.L283:
 309:../switch_sdk/core/yt/yt_port.c ****     CMM_PARAM_CHK((!(YT_DISPATCH(unit)->is_inited)), CMM_ERR_NOT_INIT);
 2787              		.loc 1 309 5 discriminator 3 view .LVU792
 2788              	.LBE54:
 310:../switch_sdk/core/yt/yt_port.c ****     CMM_PARAM_CHK((!(CMM_PORT_VALID(unit, port))), CMM_ERR_PORT);
 2789              		.loc 1 310 5 is_stmt 1 discriminator 1 view .LVU793
 310:../switch_sdk/core/yt/yt_port.c ****     CMM_PARAM_CHK((!(CMM_PORT_VALID(unit, port))), CMM_ERR_PORT);
 2790              		.loc 1 310 5 discriminator 1 view .LVU794
 2791 006e 184B     		ldr	r3, .L290+12
 2792 0070 1B78     		ldrb	r3, [r3]	@ zero_extendqisi2
 2793 0072 012B     		cmp	r3, #1
 2794 0074 01D8     		bhi	.L287
 2795              	.LVL364:
 2796              	.L274:
 310:../switch_sdk/core/yt/yt_port.c ****     CMM_PARAM_CHK((!(CMM_PORT_VALID(unit, port))), CMM_ERR_PORT);
 2797              		.loc 1 310 5 discriminator 5 view .LVU795
 310:../switch_sdk/core/yt/yt_port.c ****     CMM_PARAM_CHK((!(CMM_PORT_VALID(unit, port))), CMM_ERR_PORT);
 2798              		.loc 1 310 5 discriminator 5 view .LVU796
 310:../switch_sdk/core/yt/yt_port.c ****     CMM_PARAM_CHK((!(CMM_PORT_VALID(unit, port))), CMM_ERR_PORT);
 2799              		.loc 1 310 5 discriminator 5 view .LVU797
 2800 0076 0420     		movs	r0, #4
 2801 0078 DCE7     		b	.L267
 2802              	.LVL365:
 2803              	.L287:
 310:../switch_sdk/core/yt/yt_port.c ****     CMM_PARAM_CHK((!(CMM_PORT_VALID(unit, port))), CMM_ERR_PORT);
 2804              		.loc 1 310 5 discriminator 3 view .LVU798
 2805              	.LBB55:
 310:../switch_sdk/core/yt/yt_port.c ****     CMM_PARAM_CHK((!(CMM_PORT_VALID(unit, port))), CMM_ERR_PORT);
 2806              		.loc 1 310 5 discriminator 3 view .LVU799
 2807 007a 164B     		ldr	r3, .L290+16
 2808 007c 1A69     		ldr	r2, [r3, #16]
 2809              	.LVL366:
 310:../switch_sdk/core/yt/yt_port.c ****     CMM_PARAM_CHK((!(CMM_PORT_VALID(unit, port))), CMM_ERR_PORT);
 2810              		.loc 1 310 5 is_stmt 0 discriminator 3 view .LVU800
 2811 007e 164B     		ldr	r3, .L290+20
 2812 0080 9968     		ldr	r1, [r3, #8]
 2813              	.LVL367:
 310:../switch_sdk/core/yt/yt_port.c ****     CMM_PARAM_CHK((!(CMM_PORT_VALID(unit, port))), CMM_ERR_PORT);
 2814              		.loc 1 310 5 discriminator 3 view .LVU801
 2815 0082 1648     		ldr	r0, .L290+24
 2816 0084 FFF7FEFF 		bl	osal_printf
 2817              	.LVL368:
 2818 0088 F5E7     		b	.L274
 2819              	.LVL369:
 2820              	.L275:
 310:../switch_sdk/core/yt/yt_port.c ****     CMM_PARAM_CHK((!(CMM_PORT_VALID(unit, port))), CMM_ERR_PORT);
 2821              		.loc 1 310 5 discriminator 3 view .LVU802
 2822              	.LBE55:
 311:../switch_sdk/core/yt/yt_port.c ****     CMM_PARAM_CHK((NULL == pEnable), CMM_ERR_NULL_POINT);
 2823              		.loc 1 311 5 is_stmt 1 discriminator 3 view .LVU803
 311:../switch_sdk/core/yt/yt_port.c ****     CMM_PARAM_CHK((NULL == pEnable), CMM_ERR_NULL_POINT);
 2824              		.loc 1 311 5 discriminator 3 view .LVU804
 2825 008a 114B     		ldr	r3, .L290+12
 2826 008c 1B78     		ldrb	r3, [r3]	@ zero_extendqisi2
 2827 008e 012B     		cmp	r3, #1
 2828 0090 01D8     		bhi	.L288
 2829              	.LVL370:
 2830              	.L277:
 311:../switch_sdk/core/yt/yt_port.c ****     CMM_PARAM_CHK((NULL == pEnable), CMM_ERR_NULL_POINT);
 2831              		.loc 1 311 5 discriminator 7 view .LVU805
 311:../switch_sdk/core/yt/yt_port.c ****     CMM_PARAM_CHK((NULL == pEnable), CMM_ERR_NULL_POINT);
 2832              		.loc 1 311 5 discriminator 7 view .LVU806
 311:../switch_sdk/core/yt/yt_port.c ****     CMM_PARAM_CHK((NULL == pEnable), CMM_ERR_NULL_POINT);
 2833              		.loc 1 311 5 discriminator 7 view .LVU807
 2834 0092 0E20     		movs	r0, #14
 2835 0094 CEE7     		b	.L267
 2836              	.LVL371:
 2837              	.L288:
 311:../switch_sdk/core/yt/yt_port.c ****     CMM_PARAM_CHK((NULL == pEnable), CMM_ERR_NULL_POINT);
 2838              		.loc 1 311 5 discriminator 5 view .LVU808
 2839              	.LBB56:
 311:../switch_sdk/core/yt/yt_port.c ****     CMM_PARAM_CHK((NULL == pEnable), CMM_ERR_NULL_POINT);
 2840              		.loc 1 311 5 discriminator 5 view .LVU809
 2841 0096 0F4B     		ldr	r3, .L290+16
 2842 0098 9A6B     		ldr	r2, [r3, #56]
 2843              	.LVL372:
 311:../switch_sdk/core/yt/yt_port.c ****     CMM_PARAM_CHK((NULL == pEnable), CMM_ERR_NULL_POINT);
 2844              		.loc 1 311 5 is_stmt 0 discriminator 5 view .LVU810
 2845 009a 0F4B     		ldr	r3, .L290+20
 2846 009c 9968     		ldr	r1, [r3, #8]
 2847              	.LVL373:
 311:../switch_sdk/core/yt/yt_port.c ****     CMM_PARAM_CHK((NULL == pEnable), CMM_ERR_NULL_POINT);
 2848              		.loc 1 311 5 discriminator 5 view .LVU811
 2849 009e 0F48     		ldr	r0, .L290+24
 2850 00a0 FFF7FEFF 		bl	osal_printf
 2851              	.LVL374:
 2852 00a4 F5E7     		b	.L277
 2853              	.LVL375:
 2854              	.L284:
 311:../switch_sdk/core/yt/yt_port.c ****     CMM_PARAM_CHK((NULL == pEnable), CMM_ERR_NULL_POINT);
 2855              		.loc 1 311 5 discriminator 5 view .LVU812
 2856              	.LBE56:
 312:../switch_sdk/core/yt/yt_port.c **** 
 2857              		.loc 1 312 5 is_stmt 1 discriminator 1 view .LVU813
 312:../switch_sdk/core/yt/yt_port.c **** 
 2858              		.loc 1 312 5 discriminator 1 view .LVU814
 2859 00a6 0A4B     		ldr	r3, .L290+12
 2860 00a8 1B78     		ldrb	r3, [r3]	@ zero_extendqisi2
 2861 00aa 012B     		cmp	r3, #1
 2862 00ac 01D8     		bhi	.L289
 2863              	.LVL376:
 2864              	.L279:
 312:../switch_sdk/core/yt/yt_port.c **** 
 2865              		.loc 1 312 5 discriminator 5 view .LVU815
 312:../switch_sdk/core/yt/yt_port.c **** 
 2866              		.loc 1 312 5 discriminator 5 view .LVU816
 312:../switch_sdk/core/yt/yt_port.c **** 
 2867              		.loc 1 312 5 discriminator 5 view .LVU817
 2868 00ae 0220     		movs	r0, #2
 2869 00b0 C0E7     		b	.L267
 2870              	.LVL377:
 2871              	.L289:
 312:../switch_sdk/core/yt/yt_port.c **** 
 2872              		.loc 1 312 5 discriminator 3 view .LVU818
 2873              	.LBB57:
 312:../switch_sdk/core/yt/yt_port.c **** 
 2874              		.loc 1 312 5 discriminator 3 view .LVU819
 2875 00b2 084B     		ldr	r3, .L290+16
 2876 00b4 9A68     		ldr	r2, [r3, #8]
 2877              	.LVL378:
 312:../switch_sdk/core/yt/yt_port.c **** 
 2878              		.loc 1 312 5 is_stmt 0 discriminator 3 view .LVU820
 2879 00b6 084B     		ldr	r3, .L290+20
 2880 00b8 9968     		ldr	r1, [r3, #8]
 2881              	.LVL379:
 312:../switch_sdk/core/yt/yt_port.c **** 
 2882              		.loc 1 312 5 discriminator 3 view .LVU821
 2883 00ba 0848     		ldr	r0, .L290+24
 2884 00bc FFF7FEFF 		bl	osal_printf
 2885              	.LVL380:
 2886 00c0 F5E7     		b	.L279
 2887              	.L291:
 2888 00c2 00BF     		.align	2
 2889              	.L290:
 2890 00c4 00000000 		.word	gpfal_dispatch
 2891 00c8 00000000 		.word	gcal_inited
 2892 00cc 00000000 		.word	gpSwitchUnit
 2893 00d0 00000000 		.word	yt_debug_level
 2894 00d4 00000000 		.word	_yt_errmsg
 2895 00d8 00000000 		.word	_yt_prompt_msg
 2896 00dc 00000000 		.word	.LC0
 2897              	.LBE57:
 2898              		.cfi_endproc
 2899              	.LFE15:
 2901              		.section	.text.yt_port_mac_force_set,"ax",%progbits
 2902              		.align	1
 2903              		.global	yt_port_mac_force_set
 2904              		.syntax unified
 2905              		.thumb
 2906              		.thumb_func
 2908              	yt_port_mac_force_set:
 2909              	.LVL381:
 2910              	.LFB16:
 316:../switch_sdk/core/yt/yt_port.c **** 
 317:../switch_sdk/core/yt/yt_port.c **** /**
 318:../switch_sdk/core/yt/yt_port.c ****  * @internal      yt_port_mac_force_set
 319:../switch_sdk/core/yt/yt_port.c ****  * @endinternal
 320:../switch_sdk/core/yt/yt_port.c ****  *
 321:../switch_sdk/core/yt/yt_port.c ****  * @brief         Description
 322:../switch_sdk/core/yt/yt_port.c ****  * @note          APPLICABLE DEVICES  -Tiger
 323:../switch_sdk/core/yt/yt_port.c ****  * @param[in]     unit                -unit id
 324:../switch_sdk/core/yt/yt_port.c ****  * @param[in]     port                -port num
 325:../switch_sdk/core/yt/yt_port.c ****  * @param[in]     port_ctrl           -x
 326:../switch_sdk/core/yt/yt_port.c ****  * @retval        CMM_ERR_OK          -on success
 327:../switch_sdk/core/yt/yt_port.c ****  * @retval        CMM_ERR_FAIL        -on fail
 328:../switch_sdk/core/yt/yt_port.c ****  */
 329:../switch_sdk/core/yt/yt_port.c **** yt_ret_t yt_port_mac_force_set(yt_unit_t unit, yt_port_t port, yt_port_force_ctrl_t port_ctrl)
 330:../switch_sdk/core/yt/yt_port.c **** {
 2911              		.loc 1 330 1 is_stmt 1 view -0
 2912              		.cfi_startproc
 2913              		@ args = 0, pretend = 0, frame = 8
 2914              		@ frame_needed = 0, uses_anonymous_args = 0
 2915              		.loc 1 330 1 is_stmt 0 view .LVU823
 2916 0000 00B5     		push	{lr}
 2917              		.cfi_def_cfa_offset 4
 2918              		.cfi_offset 14, -4
 2919 0002 83B0     		sub	sp, sp, #12
 2920              		.cfi_def_cfa_offset 16
 2921 0004 0192     		str	r2, [sp, #4]
 331:../switch_sdk/core/yt/yt_port.c ****     CMM_PARAM_CHK((YT_UNIT_NUM <= unit), CMM_ERR_INPUT);
 2922              		.loc 1 331 5 is_stmt 1 view .LVU824
 2923              		.loc 1 331 5 view .LVU825
 2924 0006 B8B9     		cbnz	r0, .L304
 2925              		.loc 1 331 5 discriminator 2 view .LVU826
 332:../switch_sdk/core/yt/yt_port.c ****     CMM_PARAM_CHK(NULL == YT_DISPATCH(unit), CMM_ERR_NOT_INIT);
 2926              		.loc 1 332 5 discriminator 2 view .LVU827
 2927              		.loc 1 332 5 discriminator 2 view .LVU828
 2928 0008 274B     		ldr	r3, .L311
 2929 000a 53F82030 		ldr	r3, [r3, r0, lsl #2]
 2930 000e 0BB3     		cbz	r3, .L305
 2931              		.loc 1 332 5 discriminator 2 view .LVU829
 333:../switch_sdk/core/yt/yt_port.c ****     CMM_PARAM_CHK((!(YT_DISPATCH(unit)->is_inited)), CMM_ERR_NOT_INIT);
 2932              		.loc 1 333 5 discriminator 2 view .LVU830
 2933              		.loc 1 333 5 discriminator 2 view .LVU831
 2934 0010 1A78     		ldrb	r2, [r3]	@ zero_extendqisi2
 2935 0012 002A     		cmp	r2, #0
 2936 0014 2CD0     		beq	.L306
 2937              		.loc 1 333 5 discriminator 2 view .LVU832
 334:../switch_sdk/core/yt/yt_port.c ****     CMM_PARAM_CHK((!(CMM_PORT_VALID(unit, port))), CMM_ERR_PORT);
 2938              		.loc 1 334 5 discriminator 2 view .LVU833
 2939              		.loc 1 334 5 discriminator 2 view .LVU834
 2940 0016 254A     		ldr	r2, .L311+4
 2941 0018 1278     		ldrb	r2, [r2]	@ zero_extendqisi2
 2942 001a 002A     		cmp	r2, #0
 2943 001c 36D0     		beq	.L300
 2944 001e 244A     		ldr	r2, .L311+8
 2945 0020 52F82020 		ldr	r2, [r2, r0, lsl #2]
 2946 0024 127D     		ldrb	r2, [r2, #20]	@ zero_extendqisi2
 2947 0026 8A42     		cmp	r2, r1
 2948 0028 30D9     		bls	.L300
 2949              		.loc 1 334 5 discriminator 4 view .LVU835
 335:../switch_sdk/core/yt/yt_port.c **** 
 336:../switch_sdk/core/yt/yt_port.c ****     return YT_DISPATCH(unit)->port_mac_force_set(unit, port, port_ctrl);
 2950              		.loc 1 336 5 discriminator 4 view .LVU836
 2951              		.loc 1 336 29 is_stmt 0 discriminator 4 view .LVU837
 2952 002a D3F88435 		ldr	r3, [r3, #1412]
 2953              		.loc 1 336 12 discriminator 4 view .LVU838
 2954 002e 019A     		ldr	r2, [sp, #4]
 2955 0030 9847     		blx	r3
 2956              	.LVL382:
 2957              	.L292:
 337:../switch_sdk/core/yt/yt_port.c **** }
 2958              		.loc 1 337 1 view .LVU839
 2959 0032 03B0     		add	sp, sp, #12
 2960              		.cfi_remember_state
 2961              		.cfi_def_cfa_offset 4
 2962              		@ sp needed
 2963 0034 5DF804FB 		ldr	pc, [sp], #4
 2964              	.LVL383:
 2965              	.L304:
 2966              		.cfi_restore_state
 331:../switch_sdk/core/yt/yt_port.c ****     CMM_PARAM_CHK(NULL == YT_DISPATCH(unit), CMM_ERR_NOT_INIT);
 2967              		.loc 1 331 5 is_stmt 1 discriminator 1 view .LVU840
 331:../switch_sdk/core/yt/yt_port.c ****     CMM_PARAM_CHK(NULL == YT_DISPATCH(unit), CMM_ERR_NOT_INIT);
 2968              		.loc 1 331 5 discriminator 1 view .LVU841
 2969 0038 1E4B     		ldr	r3, .L311+12
 2970 003a 1B78     		ldrb	r3, [r3]	@ zero_extendqisi2
 2971 003c 012B     		cmp	r3, #1
 2972 003e 01D8     		bhi	.L307
 2973              	.LVL384:
 2974              	.L294:
 331:../switch_sdk/core/yt/yt_port.c ****     CMM_PARAM_CHK(NULL == YT_DISPATCH(unit), CMM_ERR_NOT_INIT);
 2975              		.loc 1 331 5 discriminator 5 view .LVU842
 331:../switch_sdk/core/yt/yt_port.c ****     CMM_PARAM_CHK(NULL == YT_DISPATCH(unit), CMM_ERR_NOT_INIT);
 2976              		.loc 1 331 5 discriminator 5 view .LVU843
 331:../switch_sdk/core/yt/yt_port.c ****     CMM_PARAM_CHK(NULL == YT_DISPATCH(unit), CMM_ERR_NOT_INIT);
 2977              		.loc 1 331 5 discriminator 5 view .LVU844
 2978 0040 0520     		movs	r0, #5
 2979 0042 F6E7     		b	.L292
 2980              	.LVL385:
 2981              	.L307:
 331:../switch_sdk/core/yt/yt_port.c ****     CMM_PARAM_CHK(NULL == YT_DISPATCH(unit), CMM_ERR_NOT_INIT);
 2982              		.loc 1 331 5 discriminator 3 view .LVU845
 2983              	.LBB58:
 331:../switch_sdk/core/yt/yt_port.c ****     CMM_PARAM_CHK(NULL == YT_DISPATCH(unit), CMM_ERR_NOT_INIT);
 2984              		.loc 1 331 5 discriminator 3 view .LVU846
 2985 0044 1C4B     		ldr	r3, .L311+16
 2986 0046 5A69     		ldr	r2, [r3, #20]
 2987 0048 1C4B     		ldr	r3, .L311+20
 2988 004a 9968     		ldr	r1, [r3, #8]
 2989              	.LVL386:
 331:../switch_sdk/core/yt/yt_port.c ****     CMM_PARAM_CHK(NULL == YT_DISPATCH(unit), CMM_ERR_NOT_INIT);
 2990              		.loc 1 331 5 is_stmt 0 discriminator 3 view .LVU847
 2991 004c 1C48     		ldr	r0, .L311+24
 2992              	.LVL387:
 331:../switch_sdk/core/yt/yt_port.c ****     CMM_PARAM_CHK(NULL == YT_DISPATCH(unit), CMM_ERR_NOT_INIT);
 2993              		.loc 1 331 5 discriminator 3 view .LVU848
 2994 004e FFF7FEFF 		bl	osal_printf
 2995              	.LVL388:
 2996 0052 F5E7     		b	.L294
 2997              	.LVL389:
 2998              	.L305:
 331:../switch_sdk/core/yt/yt_port.c ****     CMM_PARAM_CHK(NULL == YT_DISPATCH(unit), CMM_ERR_NOT_INIT);
 2999              		.loc 1 331 5 discriminator 3 view .LVU849
 3000              	.LBE58:
 332:../switch_sdk/core/yt/yt_port.c ****     CMM_PARAM_CHK((!(YT_DISPATCH(unit)->is_inited)), CMM_ERR_NOT_INIT);
 3001              		.loc 1 332 5 is_stmt 1 discriminator 1 view .LVU850
 332:../switch_sdk/core/yt/yt_port.c ****     CMM_PARAM_CHK((!(YT_DISPATCH(unit)->is_inited)), CMM_ERR_NOT_INIT);
 3002              		.loc 1 332 5 discriminator 1 view .LVU851
 3003 0054 174B     		ldr	r3, .L311+12
 3004 0056 1B78     		ldrb	r3, [r3]	@ zero_extendqisi2
 3005 0058 012B     		cmp	r3, #1
 3006 005a 01D8     		bhi	.L308
 3007              	.LVL390:
 3008              	.L297:
 332:../switch_sdk/core/yt/yt_port.c ****     CMM_PARAM_CHK((!(YT_DISPATCH(unit)->is_inited)), CMM_ERR_NOT_INIT);
 3009              		.loc 1 332 5 discriminator 5 view .LVU852
 332:../switch_sdk/core/yt/yt_port.c ****     CMM_PARAM_CHK((!(YT_DISPATCH(unit)->is_inited)), CMM_ERR_NOT_INIT);
 3010              		.loc 1 332 5 discriminator 5 view .LVU853
 332:../switch_sdk/core/yt/yt_port.c ****     CMM_PARAM_CHK((!(YT_DISPATCH(unit)->is_inited)), CMM_ERR_NOT_INIT);
 3011              		.loc 1 332 5 discriminator 5 view .LVU854
 3012 005c 0420     		movs	r0, #4
 3013 005e E8E7     		b	.L292
 3014              	.LVL391:
 3015              	.L308:
 332:../switch_sdk/core/yt/yt_port.c ****     CMM_PARAM_CHK((!(YT_DISPATCH(unit)->is_inited)), CMM_ERR_NOT_INIT);
 3016              		.loc 1 332 5 discriminator 3 view .LVU855
 3017              	.LBB59:
 332:../switch_sdk/core/yt/yt_port.c ****     CMM_PARAM_CHK((!(YT_DISPATCH(unit)->is_inited)), CMM_ERR_NOT_INIT);
 3018              		.loc 1 332 5 discriminator 3 view .LVU856
 3019 0060 154B     		ldr	r3, .L311+16
 3020 0062 1A69     		ldr	r2, [r3, #16]
 3021 0064 154B     		ldr	r3, .L311+20
 3022 0066 9968     		ldr	r1, [r3, #8]
 3023              	.LVL392:
 332:../switch_sdk/core/yt/yt_port.c ****     CMM_PARAM_CHK((!(YT_DISPATCH(unit)->is_inited)), CMM_ERR_NOT_INIT);
 3024              		.loc 1 332 5 is_stmt 0 discriminator 3 view .LVU857
 3025 0068 1548     		ldr	r0, .L311+24
 3026              	.LVL393:
 332:../switch_sdk/core/yt/yt_port.c ****     CMM_PARAM_CHK((!(YT_DISPATCH(unit)->is_inited)), CMM_ERR_NOT_INIT);
 3027              		.loc 1 332 5 discriminator 3 view .LVU858
 3028 006a FFF7FEFF 		bl	osal_printf
 3029              	.LVL394:
 3030 006e F5E7     		b	.L297
 3031              	.LVL395:
 3032              	.L306:
 332:../switch_sdk/core/yt/yt_port.c ****     CMM_PARAM_CHK((!(YT_DISPATCH(unit)->is_inited)), CMM_ERR_NOT_INIT);
 3033              		.loc 1 332 5 discriminator 3 view .LVU859
 3034              	.LBE59:
 333:../switch_sdk/core/yt/yt_port.c ****     CMM_PARAM_CHK((!(CMM_PORT_VALID(unit, port))), CMM_ERR_PORT);
 3035              		.loc 1 333 5 is_stmt 1 discriminator 1 view .LVU860
 333:../switch_sdk/core/yt/yt_port.c ****     CMM_PARAM_CHK((!(CMM_PORT_VALID(unit, port))), CMM_ERR_PORT);
 3036              		.loc 1 333 5 discriminator 1 view .LVU861
 3037 0070 104B     		ldr	r3, .L311+12
 3038 0072 1B78     		ldrb	r3, [r3]	@ zero_extendqisi2
 3039 0074 012B     		cmp	r3, #1
 3040 0076 01D8     		bhi	.L309
 3041              	.LVL396:
 3042              	.L299:
 333:../switch_sdk/core/yt/yt_port.c ****     CMM_PARAM_CHK((!(CMM_PORT_VALID(unit, port))), CMM_ERR_PORT);
 3043              		.loc 1 333 5 discriminator 5 view .LVU862
 333:../switch_sdk/core/yt/yt_port.c ****     CMM_PARAM_CHK((!(CMM_PORT_VALID(unit, port))), CMM_ERR_PORT);
 3044              		.loc 1 333 5 discriminator 5 view .LVU863
 333:../switch_sdk/core/yt/yt_port.c ****     CMM_PARAM_CHK((!(CMM_PORT_VALID(unit, port))), CMM_ERR_PORT);
 3045              		.loc 1 333 5 discriminator 5 view .LVU864
 3046 0078 0420     		movs	r0, #4
 3047 007a DAE7     		b	.L292
 3048              	.LVL397:
 3049              	.L309:
 333:../switch_sdk/core/yt/yt_port.c ****     CMM_PARAM_CHK((!(CMM_PORT_VALID(unit, port))), CMM_ERR_PORT);
 3050              		.loc 1 333 5 discriminator 3 view .LVU865
 3051              	.LBB60:
 333:../switch_sdk/core/yt/yt_port.c ****     CMM_PARAM_CHK((!(CMM_PORT_VALID(unit, port))), CMM_ERR_PORT);
 3052              		.loc 1 333 5 discriminator 3 view .LVU866
 3053 007c 0E4B     		ldr	r3, .L311+16
 3054 007e 1A69     		ldr	r2, [r3, #16]
 3055 0080 0E4B     		ldr	r3, .L311+20
 3056 0082 9968     		ldr	r1, [r3, #8]
 3057              	.LVL398:
 333:../switch_sdk/core/yt/yt_port.c ****     CMM_PARAM_CHK((!(CMM_PORT_VALID(unit, port))), CMM_ERR_PORT);
 3058              		.loc 1 333 5 is_stmt 0 discriminator 3 view .LVU867
 3059 0084 0E48     		ldr	r0, .L311+24
 3060              	.LVL399:
 333:../switch_sdk/core/yt/yt_port.c ****     CMM_PARAM_CHK((!(CMM_PORT_VALID(unit, port))), CMM_ERR_PORT);
 3061              		.loc 1 333 5 discriminator 3 view .LVU868
 3062 0086 FFF7FEFF 		bl	osal_printf
 3063              	.LVL400:
 3064 008a F5E7     		b	.L299
 3065              	.LVL401:
 3066              	.L300:
 333:../switch_sdk/core/yt/yt_port.c ****     CMM_PARAM_CHK((!(CMM_PORT_VALID(unit, port))), CMM_ERR_PORT);
 3067              		.loc 1 333 5 discriminator 3 view .LVU869
 3068              	.LBE60:
 334:../switch_sdk/core/yt/yt_port.c **** 
 3069              		.loc 1 334 5 is_stmt 1 discriminator 3 view .LVU870
 334:../switch_sdk/core/yt/yt_port.c **** 
 3070              		.loc 1 334 5 discriminator 3 view .LVU871
 3071 008c 094B     		ldr	r3, .L311+12
 3072 008e 1B78     		ldrb	r3, [r3]	@ zero_extendqisi2
 3073 0090 012B     		cmp	r3, #1
 3074 0092 01D8     		bhi	.L310
 3075              	.LVL402:
 3076              	.L302:
 334:../switch_sdk/core/yt/yt_port.c **** 
 3077              		.loc 1 334 5 discriminator 7 view .LVU872
 334:../switch_sdk/core/yt/yt_port.c **** 
 3078              		.loc 1 334 5 discriminator 7 view .LVU873
 334:../switch_sdk/core/yt/yt_port.c **** 
 3079              		.loc 1 334 5 discriminator 7 view .LVU874
 3080 0094 0E20     		movs	r0, #14
 3081 0096 CCE7     		b	.L292
 3082              	.LVL403:
 3083              	.L310:
 334:../switch_sdk/core/yt/yt_port.c **** 
 3084              		.loc 1 334 5 discriminator 5 view .LVU875
 3085              	.LBB61:
 334:../switch_sdk/core/yt/yt_port.c **** 
 3086              		.loc 1 334 5 discriminator 5 view .LVU876
 3087 0098 074B     		ldr	r3, .L311+16
 3088 009a 9A6B     		ldr	r2, [r3, #56]
 3089 009c 074B     		ldr	r3, .L311+20
 3090 009e 9968     		ldr	r1, [r3, #8]
 3091              	.LVL404:
 334:../switch_sdk/core/yt/yt_port.c **** 
 3092              		.loc 1 334 5 is_stmt 0 discriminator 5 view .LVU877
 3093 00a0 0748     		ldr	r0, .L311+24
 3094              	.LVL405:
 334:../switch_sdk/core/yt/yt_port.c **** 
 3095              		.loc 1 334 5 discriminator 5 view .LVU878
 3096 00a2 FFF7FEFF 		bl	osal_printf
 3097              	.LVL406:
 3098 00a6 F5E7     		b	.L302
 3099              	.L312:
 3100              		.align	2
 3101              	.L311:
 3102 00a8 00000000 		.word	gpfal_dispatch
 3103 00ac 00000000 		.word	gcal_inited
 3104 00b0 00000000 		.word	gpSwitchUnit
 3105 00b4 00000000 		.word	yt_debug_level
 3106 00b8 00000000 		.word	_yt_errmsg
 3107 00bc 00000000 		.word	_yt_prompt_msg
 3108 00c0 00000000 		.word	.LC0
 3109              	.LBE61:
 3110              		.cfi_endproc
 3111              	.LFE16:
 3113              		.section	.text.yt_port_mac_force_get,"ax",%progbits
 3114              		.align	1
 3115              		.global	yt_port_mac_force_get
 3116              		.syntax unified
 3117              		.thumb
 3118              		.thumb_func
 3120              	yt_port_mac_force_get:
 3121              	.LVL407:
 3122              	.LFB17:
 338:../switch_sdk/core/yt/yt_port.c **** 
 339:../switch_sdk/core/yt/yt_port.c **** /**
 340:../switch_sdk/core/yt/yt_port.c ****  * @internal      yt_port_mac_force_get
 341:../switch_sdk/core/yt/yt_port.c ****  * @endinternal
 342:../switch_sdk/core/yt/yt_port.c ****  *
 343:../switch_sdk/core/yt/yt_port.c ****  * @brief         Description
 344:../switch_sdk/core/yt/yt_port.c ****  * @note          APPLICABLE DEVICES  -Tiger
 345:../switch_sdk/core/yt/yt_port.c ****  * @param[in]     unit                -unit id
 346:../switch_sdk/core/yt/yt_port.c ****  * @param[in]     port                -port num
 347:../switch_sdk/core/yt/yt_port.c ****  * @param[out]    pPort_ctrl          -x
 348:../switch_sdk/core/yt/yt_port.c ****  * @retval        CMM_ERR_OK          -on success
 349:../switch_sdk/core/yt/yt_port.c ****  * @retval        CMM_ERR_FAIL        -on fail
 350:../switch_sdk/core/yt/yt_port.c ****  */
 351:../switch_sdk/core/yt/yt_port.c **** yt_ret_t yt_port_mac_force_get(yt_unit_t unit, yt_port_t port, yt_port_force_ctrl_t *pPort_ctrl)
 352:../switch_sdk/core/yt/yt_port.c **** {
 3123              		.loc 1 352 1 is_stmt 1 view -0
 3124              		.cfi_startproc
 3125              		@ args = 0, pretend = 0, frame = 0
 3126              		@ frame_needed = 0, uses_anonymous_args = 0
 3127              		.loc 1 352 1 is_stmt 0 view .LVU880
 3128 0000 08B5     		push	{r3, lr}
 3129              		.cfi_def_cfa_offset 8
 3130              		.cfi_offset 3, -8
 3131              		.cfi_offset 14, -4
 353:../switch_sdk/core/yt/yt_port.c ****     CMM_PARAM_CHK((YT_UNIT_NUM <= unit), CMM_ERR_INPUT);
 3132              		.loc 1 353 5 is_stmt 1 view .LVU881
 3133              		.loc 1 353 5 view .LVU882
 3134 0002 C0B9     		cbnz	r0, .L327
 3135 0004 8446     		mov	ip, r0
 3136              		.loc 1 353 5 discriminator 2 view .LVU883
 354:../switch_sdk/core/yt/yt_port.c ****     CMM_PARAM_CHK(NULL == YT_DISPATCH(unit), CMM_ERR_NOT_INIT);
 3137              		.loc 1 354 5 discriminator 2 view .LVU884
 3138              		.loc 1 354 5 discriminator 2 view .LVU885
 3139 0006 2F4B     		ldr	r3, .L336
 3140 0008 53F82030 		ldr	r3, [r3, r0, lsl #2]
 3141 000c 0BB3     		cbz	r3, .L328
 3142              		.loc 1 354 5 discriminator 2 view .LVU886
 355:../switch_sdk/core/yt/yt_port.c ****     CMM_PARAM_CHK((!(YT_DISPATCH(unit)->is_inited)), CMM_ERR_NOT_INIT);
 3143              		.loc 1 355 5 discriminator 2 view .LVU887
 3144              		.loc 1 355 5 discriminator 2 view .LVU888
 3145 000e 1878     		ldrb	r0, [r3]	@ zero_extendqisi2
 3146              	.LVL408:
 3147              		.loc 1 355 5 is_stmt 0 discriminator 2 view .LVU889
 3148 0010 0028     		cmp	r0, #0
 3149 0012 2CD0     		beq	.L329
 3150              		.loc 1 355 5 is_stmt 1 discriminator 2 view .LVU890
 356:../switch_sdk/core/yt/yt_port.c ****     CMM_PARAM_CHK((!(CMM_PORT_VALID(unit, port))), CMM_ERR_PORT);
 3151              		.loc 1 356 5 discriminator 2 view .LVU891
 3152              		.loc 1 356 5 discriminator 2 view .LVU892
 3153 0014 2C48     		ldr	r0, .L336+4
 3154 0016 0078     		ldrb	r0, [r0]	@ zero_extendqisi2
 3155 0018 0028     		cmp	r0, #0
 3156 001a 36D0     		beq	.L321
 3157 001c 2B48     		ldr	r0, .L336+8
 3158 001e 50F82C00 		ldr	r0, [r0, ip, lsl #2]
 3159 0022 007D     		ldrb	r0, [r0, #20]	@ zero_extendqisi2
 3160 0024 8842     		cmp	r0, r1
 3161 0026 30D9     		bls	.L321
 3162              		.loc 1 356 5 discriminator 4 view .LVU893
 357:../switch_sdk/core/yt/yt_port.c ****     CMM_PARAM_CHK((NULL == pPort_ctrl), CMM_ERR_NULL_POINT);
 3163              		.loc 1 357 5 discriminator 4 view .LVU894
 3164              		.loc 1 357 5 discriminator 4 view .LVU895
 3165 0028 002A     		cmp	r2, #0
 3166 002a 3CD0     		beq	.L330
 3167              		.loc 1 357 5 discriminator 2 view .LVU896
 358:../switch_sdk/core/yt/yt_port.c **** 
 359:../switch_sdk/core/yt/yt_port.c ****     return YT_DISPATCH(unit)->port_mac_force_get(unit, port, pPort_ctrl);
 3168              		.loc 1 359 5 discriminator 2 view .LVU897
 3169              		.loc 1 359 29 is_stmt 0 discriminator 2 view .LVU898
 3170 002c D3F88835 		ldr	r3, [r3, #1416]
 3171              		.loc 1 359 12 discriminator 2 view .LVU899
 3172 0030 6046     		mov	r0, ip
 3173 0032 9847     		blx	r3
 3174              	.LVL409:
 3175              	.L313:
 360:../switch_sdk/core/yt/yt_port.c **** }
 3176              		.loc 1 360 1 view .LVU900
 3177 0034 08BD     		pop	{r3, pc}
 3178              	.LVL410:
 3179              	.L327:
 353:../switch_sdk/core/yt/yt_port.c ****     CMM_PARAM_CHK(NULL == YT_DISPATCH(unit), CMM_ERR_NOT_INIT);
 3180              		.loc 1 353 5 is_stmt 1 discriminator 1 view .LVU901
 353:../switch_sdk/core/yt/yt_port.c ****     CMM_PARAM_CHK(NULL == YT_DISPATCH(unit), CMM_ERR_NOT_INIT);
 3181              		.loc 1 353 5 discriminator 1 view .LVU902
 3182 0036 264B     		ldr	r3, .L336+12
 3183 0038 1B78     		ldrb	r3, [r3]	@ zero_extendqisi2
 3184 003a 012B     		cmp	r3, #1
 3185 003c 01D8     		bhi	.L331
 3186              	.LVL411:
 3187              	.L315:
 353:../switch_sdk/core/yt/yt_port.c ****     CMM_PARAM_CHK(NULL == YT_DISPATCH(unit), CMM_ERR_NOT_INIT);
 3188              		.loc 1 353 5 discriminator 5 view .LVU903
 353:../switch_sdk/core/yt/yt_port.c ****     CMM_PARAM_CHK(NULL == YT_DISPATCH(unit), CMM_ERR_NOT_INIT);
 3189              		.loc 1 353 5 discriminator 5 view .LVU904
 353:../switch_sdk/core/yt/yt_port.c ****     CMM_PARAM_CHK(NULL == YT_DISPATCH(unit), CMM_ERR_NOT_INIT);
 3190              		.loc 1 353 5 discriminator 5 view .LVU905
 3191 003e 0520     		movs	r0, #5
 3192 0040 F8E7     		b	.L313
 3193              	.LVL412:
 3194              	.L331:
 353:../switch_sdk/core/yt/yt_port.c ****     CMM_PARAM_CHK(NULL == YT_DISPATCH(unit), CMM_ERR_NOT_INIT);
 3195              		.loc 1 353 5 discriminator 3 view .LVU906
 3196              	.LBB62:
 353:../switch_sdk/core/yt/yt_port.c ****     CMM_PARAM_CHK(NULL == YT_DISPATCH(unit), CMM_ERR_NOT_INIT);
 3197              		.loc 1 353 5 discriminator 3 view .LVU907
 3198 0042 244B     		ldr	r3, .L336+16
 3199 0044 5A69     		ldr	r2, [r3, #20]
 3200              	.LVL413:
 353:../switch_sdk/core/yt/yt_port.c ****     CMM_PARAM_CHK(NULL == YT_DISPATCH(unit), CMM_ERR_NOT_INIT);
 3201              		.loc 1 353 5 is_stmt 0 discriminator 3 view .LVU908
 3202 0046 244B     		ldr	r3, .L336+20
 3203 0048 9968     		ldr	r1, [r3, #8]
 3204              	.LVL414:
 353:../switch_sdk/core/yt/yt_port.c ****     CMM_PARAM_CHK(NULL == YT_DISPATCH(unit), CMM_ERR_NOT_INIT);
 3205              		.loc 1 353 5 discriminator 3 view .LVU909
 3206 004a 2448     		ldr	r0, .L336+24
 3207              	.LVL415:
 353:../switch_sdk/core/yt/yt_port.c ****     CMM_PARAM_CHK(NULL == YT_DISPATCH(unit), CMM_ERR_NOT_INIT);
 3208              		.loc 1 353 5 discriminator 3 view .LVU910
 3209 004c FFF7FEFF 		bl	osal_printf
 3210              	.LVL416:
 3211 0050 F5E7     		b	.L315
 3212              	.LVL417:
 3213              	.L328:
 353:../switch_sdk/core/yt/yt_port.c ****     CMM_PARAM_CHK(NULL == YT_DISPATCH(unit), CMM_ERR_NOT_INIT);
 3214              		.loc 1 353 5 discriminator 3 view .LVU911
 3215              	.LBE62:
 354:../switch_sdk/core/yt/yt_port.c ****     CMM_PARAM_CHK((!(YT_DISPATCH(unit)->is_inited)), CMM_ERR_NOT_INIT);
 3216              		.loc 1 354 5 is_stmt 1 discriminator 1 view .LVU912
 354:../switch_sdk/core/yt/yt_port.c ****     CMM_PARAM_CHK((!(YT_DISPATCH(unit)->is_inited)), CMM_ERR_NOT_INIT);
 3217              		.loc 1 354 5 discriminator 1 view .LVU913
 3218 0052 1F4B     		ldr	r3, .L336+12
 3219 0054 1B78     		ldrb	r3, [r3]	@ zero_extendqisi2
 3220 0056 012B     		cmp	r3, #1
 3221 0058 01D8     		bhi	.L332
 3222              	.LVL418:
 3223              	.L318:
 354:../switch_sdk/core/yt/yt_port.c ****     CMM_PARAM_CHK((!(YT_DISPATCH(unit)->is_inited)), CMM_ERR_NOT_INIT);
 3224              		.loc 1 354 5 discriminator 5 view .LVU914
 354:../switch_sdk/core/yt/yt_port.c ****     CMM_PARAM_CHK((!(YT_DISPATCH(unit)->is_inited)), CMM_ERR_NOT_INIT);
 3225              		.loc 1 354 5 discriminator 5 view .LVU915
 354:../switch_sdk/core/yt/yt_port.c ****     CMM_PARAM_CHK((!(YT_DISPATCH(unit)->is_inited)), CMM_ERR_NOT_INIT);
 3226              		.loc 1 354 5 discriminator 5 view .LVU916
 3227 005a 0420     		movs	r0, #4
 3228 005c EAE7     		b	.L313
 3229              	.LVL419:
 3230              	.L332:
 354:../switch_sdk/core/yt/yt_port.c ****     CMM_PARAM_CHK((!(YT_DISPATCH(unit)->is_inited)), CMM_ERR_NOT_INIT);
 3231              		.loc 1 354 5 discriminator 3 view .LVU917
 3232              	.LBB63:
 354:../switch_sdk/core/yt/yt_port.c ****     CMM_PARAM_CHK((!(YT_DISPATCH(unit)->is_inited)), CMM_ERR_NOT_INIT);
 3233              		.loc 1 354 5 discriminator 3 view .LVU918
 3234 005e 1D4B     		ldr	r3, .L336+16
 3235 0060 1A69     		ldr	r2, [r3, #16]
 3236              	.LVL420:
 354:../switch_sdk/core/yt/yt_port.c ****     CMM_PARAM_CHK((!(YT_DISPATCH(unit)->is_inited)), CMM_ERR_NOT_INIT);
 3237              		.loc 1 354 5 is_stmt 0 discriminator 3 view .LVU919
 3238 0062 1D4B     		ldr	r3, .L336+20
 3239 0064 9968     		ldr	r1, [r3, #8]
 3240              	.LVL421:
 354:../switch_sdk/core/yt/yt_port.c ****     CMM_PARAM_CHK((!(YT_DISPATCH(unit)->is_inited)), CMM_ERR_NOT_INIT);
 3241              		.loc 1 354 5 discriminator 3 view .LVU920
 3242 0066 1D48     		ldr	r0, .L336+24
 3243              	.LVL422:
 354:../switch_sdk/core/yt/yt_port.c ****     CMM_PARAM_CHK((!(YT_DISPATCH(unit)->is_inited)), CMM_ERR_NOT_INIT);
 3244              		.loc 1 354 5 discriminator 3 view .LVU921
 3245 0068 FFF7FEFF 		bl	osal_printf
 3246              	.LVL423:
 3247 006c F5E7     		b	.L318
 3248              	.LVL424:
 3249              	.L329:
 354:../switch_sdk/core/yt/yt_port.c ****     CMM_PARAM_CHK((!(YT_DISPATCH(unit)->is_inited)), CMM_ERR_NOT_INIT);
 3250              		.loc 1 354 5 discriminator 3 view .LVU922
 3251              	.LBE63:
 355:../switch_sdk/core/yt/yt_port.c ****     CMM_PARAM_CHK((!(CMM_PORT_VALID(unit, port))), CMM_ERR_PORT);
 3252              		.loc 1 355 5 is_stmt 1 discriminator 1 view .LVU923
 355:../switch_sdk/core/yt/yt_port.c ****     CMM_PARAM_CHK((!(CMM_PORT_VALID(unit, port))), CMM_ERR_PORT);
 3253              		.loc 1 355 5 discriminator 1 view .LVU924
 3254 006e 184B     		ldr	r3, .L336+12
 3255 0070 1B78     		ldrb	r3, [r3]	@ zero_extendqisi2
 3256 0072 012B     		cmp	r3, #1
 3257 0074 01D8     		bhi	.L333
 3258              	.LVL425:
 3259              	.L320:
 355:../switch_sdk/core/yt/yt_port.c ****     CMM_PARAM_CHK((!(CMM_PORT_VALID(unit, port))), CMM_ERR_PORT);
 3260              		.loc 1 355 5 discriminator 5 view .LVU925
 355:../switch_sdk/core/yt/yt_port.c ****     CMM_PARAM_CHK((!(CMM_PORT_VALID(unit, port))), CMM_ERR_PORT);
 3261              		.loc 1 355 5 discriminator 5 view .LVU926
 355:../switch_sdk/core/yt/yt_port.c ****     CMM_PARAM_CHK((!(CMM_PORT_VALID(unit, port))), CMM_ERR_PORT);
 3262              		.loc 1 355 5 discriminator 5 view .LVU927
 3263 0076 0420     		movs	r0, #4
 3264 0078 DCE7     		b	.L313
 3265              	.LVL426:
 3266              	.L333:
 355:../switch_sdk/core/yt/yt_port.c ****     CMM_PARAM_CHK((!(CMM_PORT_VALID(unit, port))), CMM_ERR_PORT);
 3267              		.loc 1 355 5 discriminator 3 view .LVU928
 3268              	.LBB64:
 355:../switch_sdk/core/yt/yt_port.c ****     CMM_PARAM_CHK((!(CMM_PORT_VALID(unit, port))), CMM_ERR_PORT);
 3269              		.loc 1 355 5 discriminator 3 view .LVU929
 3270 007a 164B     		ldr	r3, .L336+16
 3271 007c 1A69     		ldr	r2, [r3, #16]
 3272              	.LVL427:
 355:../switch_sdk/core/yt/yt_port.c ****     CMM_PARAM_CHK((!(CMM_PORT_VALID(unit, port))), CMM_ERR_PORT);
 3273              		.loc 1 355 5 is_stmt 0 discriminator 3 view .LVU930
 3274 007e 164B     		ldr	r3, .L336+20
 3275 0080 9968     		ldr	r1, [r3, #8]
 3276              	.LVL428:
 355:../switch_sdk/core/yt/yt_port.c ****     CMM_PARAM_CHK((!(CMM_PORT_VALID(unit, port))), CMM_ERR_PORT);
 3277              		.loc 1 355 5 discriminator 3 view .LVU931
 3278 0082 1648     		ldr	r0, .L336+24
 3279 0084 FFF7FEFF 		bl	osal_printf
 3280              	.LVL429:
 3281 0088 F5E7     		b	.L320
 3282              	.LVL430:
 3283              	.L321:
 355:../switch_sdk/core/yt/yt_port.c ****     CMM_PARAM_CHK((!(CMM_PORT_VALID(unit, port))), CMM_ERR_PORT);
 3284              		.loc 1 355 5 discriminator 3 view .LVU932
 3285              	.LBE64:
 356:../switch_sdk/core/yt/yt_port.c ****     CMM_PARAM_CHK((NULL == pPort_ctrl), CMM_ERR_NULL_POINT);
 3286              		.loc 1 356 5 is_stmt 1 discriminator 3 view .LVU933
 356:../switch_sdk/core/yt/yt_port.c ****     CMM_PARAM_CHK((NULL == pPort_ctrl), CMM_ERR_NULL_POINT);
 3287              		.loc 1 356 5 discriminator 3 view .LVU934
 3288 008a 114B     		ldr	r3, .L336+12
 3289 008c 1B78     		ldrb	r3, [r3]	@ zero_extendqisi2
 3290 008e 012B     		cmp	r3, #1
 3291 0090 01D8     		bhi	.L334
 3292              	.LVL431:
 3293              	.L323:
 356:../switch_sdk/core/yt/yt_port.c ****     CMM_PARAM_CHK((NULL == pPort_ctrl), CMM_ERR_NULL_POINT);
 3294              		.loc 1 356 5 discriminator 7 view .LVU935
 356:../switch_sdk/core/yt/yt_port.c ****     CMM_PARAM_CHK((NULL == pPort_ctrl), CMM_ERR_NULL_POINT);
 3295              		.loc 1 356 5 discriminator 7 view .LVU936
 356:../switch_sdk/core/yt/yt_port.c ****     CMM_PARAM_CHK((NULL == pPort_ctrl), CMM_ERR_NULL_POINT);
 3296              		.loc 1 356 5 discriminator 7 view .LVU937
 3297 0092 0E20     		movs	r0, #14
 3298 0094 CEE7     		b	.L313
 3299              	.LVL432:
 3300              	.L334:
 356:../switch_sdk/core/yt/yt_port.c ****     CMM_PARAM_CHK((NULL == pPort_ctrl), CMM_ERR_NULL_POINT);
 3301              		.loc 1 356 5 discriminator 5 view .LVU938
 3302              	.LBB65:
 356:../switch_sdk/core/yt/yt_port.c ****     CMM_PARAM_CHK((NULL == pPort_ctrl), CMM_ERR_NULL_POINT);
 3303              		.loc 1 356 5 discriminator 5 view .LVU939
 3304 0096 0F4B     		ldr	r3, .L336+16
 3305 0098 9A6B     		ldr	r2, [r3, #56]
 3306              	.LVL433:
 356:../switch_sdk/core/yt/yt_port.c ****     CMM_PARAM_CHK((NULL == pPort_ctrl), CMM_ERR_NULL_POINT);
 3307              		.loc 1 356 5 is_stmt 0 discriminator 5 view .LVU940
 3308 009a 0F4B     		ldr	r3, .L336+20
 3309 009c 9968     		ldr	r1, [r3, #8]
 3310              	.LVL434:
 356:../switch_sdk/core/yt/yt_port.c ****     CMM_PARAM_CHK((NULL == pPort_ctrl), CMM_ERR_NULL_POINT);
 3311              		.loc 1 356 5 discriminator 5 view .LVU941
 3312 009e 0F48     		ldr	r0, .L336+24
 3313 00a0 FFF7FEFF 		bl	osal_printf
 3314              	.LVL435:
 3315 00a4 F5E7     		b	.L323
 3316              	.LVL436:
 3317              	.L330:
 356:../switch_sdk/core/yt/yt_port.c ****     CMM_PARAM_CHK((NULL == pPort_ctrl), CMM_ERR_NULL_POINT);
 3318              		.loc 1 356 5 discriminator 5 view .LVU942
 3319              	.LBE65:
 357:../switch_sdk/core/yt/yt_port.c **** 
 3320              		.loc 1 357 5 is_stmt 1 discriminator 1 view .LVU943
 357:../switch_sdk/core/yt/yt_port.c **** 
 3321              		.loc 1 357 5 discriminator 1 view .LVU944
 3322 00a6 0A4B     		ldr	r3, .L336+12
 3323 00a8 1B78     		ldrb	r3, [r3]	@ zero_extendqisi2
 3324 00aa 012B     		cmp	r3, #1
 3325 00ac 01D8     		bhi	.L335
 3326              	.LVL437:
 3327              	.L325:
 357:../switch_sdk/core/yt/yt_port.c **** 
 3328              		.loc 1 357 5 discriminator 5 view .LVU945
 357:../switch_sdk/core/yt/yt_port.c **** 
 3329              		.loc 1 357 5 discriminator 5 view .LVU946
 357:../switch_sdk/core/yt/yt_port.c **** 
 3330              		.loc 1 357 5 discriminator 5 view .LVU947
 3331 00ae 0220     		movs	r0, #2
 3332 00b0 C0E7     		b	.L313
 3333              	.LVL438:
 3334              	.L335:
 357:../switch_sdk/core/yt/yt_port.c **** 
 3335              		.loc 1 357 5 discriminator 3 view .LVU948
 3336              	.LBB66:
 357:../switch_sdk/core/yt/yt_port.c **** 
 3337              		.loc 1 357 5 discriminator 3 view .LVU949
 3338 00b2 084B     		ldr	r3, .L336+16
 3339 00b4 9A68     		ldr	r2, [r3, #8]
 3340              	.LVL439:
 357:../switch_sdk/core/yt/yt_port.c **** 
 3341              		.loc 1 357 5 is_stmt 0 discriminator 3 view .LVU950
 3342 00b6 084B     		ldr	r3, .L336+20
 3343 00b8 9968     		ldr	r1, [r3, #8]
 3344              	.LVL440:
 357:../switch_sdk/core/yt/yt_port.c **** 
 3345              		.loc 1 357 5 discriminator 3 view .LVU951
 3346 00ba 0848     		ldr	r0, .L336+24
 3347 00bc FFF7FEFF 		bl	osal_printf
 3348              	.LVL441:
 3349 00c0 F5E7     		b	.L325
 3350              	.L337:
 3351 00c2 00BF     		.align	2
 3352              	.L336:
 3353 00c4 00000000 		.word	gpfal_dispatch
 3354 00c8 00000000 		.word	gcal_inited
 3355 00cc 00000000 		.word	gpSwitchUnit
 3356 00d0 00000000 		.word	yt_debug_level
 3357 00d4 00000000 		.word	_yt_errmsg
 3358 00d8 00000000 		.word	_yt_prompt_msg
 3359 00dc 00000000 		.word	.LC0
 3360              	.LBE66:
 3361              		.cfi_endproc
 3362              	.LFE17:
 3364              		.section	.text.yt_port_mac_fc_set,"ax",%progbits
 3365              		.align	1
 3366              		.global	yt_port_mac_fc_set
 3367              		.syntax unified
 3368              		.thumb
 3369              		.thumb_func
 3371              	yt_port_mac_fc_set:
 3372              	.LVL442:
 3373              	.LFB18:
 361:../switch_sdk/core/yt/yt_port.c **** 
 362:../switch_sdk/core/yt/yt_port.c **** /**
 363:../switch_sdk/core/yt/yt_port.c ****  * @internal      yt_port_mac_fc_set
 364:../switch_sdk/core/yt/yt_port.c ****  * @endinternal
 365:../switch_sdk/core/yt/yt_port.c ****  *
 366:../switch_sdk/core/yt/yt_port.c ****  * @brief         Description
 367:../switch_sdk/core/yt/yt_port.c ****  * @note          APPLICABLE DEVICES  -Tiger
 368:../switch_sdk/core/yt/yt_port.c ****  * @param[in]     unit                -unit id
 369:../switch_sdk/core/yt/yt_port.c ****  * @param[in]     port                -port num
 370:../switch_sdk/core/yt/yt_port.c ****  * @param[in]     enable              -enable or disable
 371:../switch_sdk/core/yt/yt_port.c ****  * @retval        CMM_ERR_OK          -on success
 372:../switch_sdk/core/yt/yt_port.c ****  * @retval        CMM_ERR_FAIL        -on fail
 373:../switch_sdk/core/yt/yt_port.c ****  */
 374:../switch_sdk/core/yt/yt_port.c **** yt_ret_t yt_port_mac_fc_set(yt_unit_t unit, yt_port_t port, yt_enable_t enable)
 375:../switch_sdk/core/yt/yt_port.c **** {
 3374              		.loc 1 375 1 is_stmt 1 view -0
 3375              		.cfi_startproc
 3376              		@ args = 0, pretend = 0, frame = 0
 3377              		@ frame_needed = 0, uses_anonymous_args = 0
 3378              		.loc 1 375 1 is_stmt 0 view .LVU953
 3379 0000 08B5     		push	{r3, lr}
 3380              		.cfi_def_cfa_offset 8
 3381              		.cfi_offset 3, -8
 3382              		.cfi_offset 14, -4
 376:../switch_sdk/core/yt/yt_port.c ****     CMM_PARAM_CHK((YT_UNIT_NUM <= unit), CMM_ERR_INPUT);
 3383              		.loc 1 376 5 is_stmt 1 view .LVU954
 3384              		.loc 1 376 5 view .LVU955
 3385 0002 C0B9     		cbnz	r0, .L352
 3386 0004 8446     		mov	ip, r0
 3387              		.loc 1 376 5 discriminator 2 view .LVU956
 377:../switch_sdk/core/yt/yt_port.c ****     CMM_PARAM_CHK(NULL == YT_DISPATCH(unit), CMM_ERR_NOT_INIT);
 3388              		.loc 1 377 5 discriminator 2 view .LVU957
 3389              		.loc 1 377 5 discriminator 2 view .LVU958
 3390 0006 2F4B     		ldr	r3, .L361
 3391 0008 53F82030 		ldr	r3, [r3, r0, lsl #2]
 3392 000c 0BB3     		cbz	r3, .L353
 3393              		.loc 1 377 5 discriminator 2 view .LVU959
 378:../switch_sdk/core/yt/yt_port.c ****     CMM_PARAM_CHK((!(YT_DISPATCH(unit)->is_inited)), CMM_ERR_NOT_INIT);
 3394              		.loc 1 378 5 discriminator 2 view .LVU960
 3395              		.loc 1 378 5 discriminator 2 view .LVU961
 3396 000e 1878     		ldrb	r0, [r3]	@ zero_extendqisi2
 3397              	.LVL443:
 3398              		.loc 1 378 5 is_stmt 0 discriminator 2 view .LVU962
 3399 0010 0028     		cmp	r0, #0
 3400 0012 2CD0     		beq	.L354
 3401              		.loc 1 378 5 is_stmt 1 discriminator 2 view .LVU963
 379:../switch_sdk/core/yt/yt_port.c ****     CMM_PARAM_CHK((!(CMM_PORT_VALID(unit, port))), CMM_ERR_PORT);
 3402              		.loc 1 379 5 discriminator 2 view .LVU964
 3403              		.loc 1 379 5 discriminator 2 view .LVU965
 3404 0014 2C48     		ldr	r0, .L361+4
 3405 0016 0078     		ldrb	r0, [r0]	@ zero_extendqisi2
 3406 0018 0028     		cmp	r0, #0
 3407 001a 36D0     		beq	.L346
 3408 001c 2B48     		ldr	r0, .L361+8
 3409 001e 50F82C00 		ldr	r0, [r0, ip, lsl #2]
 3410 0022 007D     		ldrb	r0, [r0, #20]	@ zero_extendqisi2
 3411 0024 8842     		cmp	r0, r1
 3412 0026 30D9     		bls	.L346
 3413              		.loc 1 379 5 discriminator 4 view .LVU966
 380:../switch_sdk/core/yt/yt_port.c ****     CMM_PARAM_CHK((YT_ENABLE < enable || YT_DISABLE > enable), CMM_ERR_INPUT);
 3414              		.loc 1 380 5 discriminator 4 view .LVU967
 3415              		.loc 1 380 5 discriminator 4 view .LVU968
 3416 0028 012A     		cmp	r2, #1
 3417 002a 3CD8     		bhi	.L355
 3418              		.loc 1 380 5 discriminator 2 view .LVU969
 381:../switch_sdk/core/yt/yt_port.c **** 
 382:../switch_sdk/core/yt/yt_port.c ****     return YT_DISPATCH(unit)->port_mac_fc_set(unit, port, enable);
 3419              		.loc 1 382 5 discriminator 2 view .LVU970
 3420              		.loc 1 382 29 is_stmt 0 discriminator 2 view .LVU971
 3421 002c D3F88C35 		ldr	r3, [r3, #1420]
 3422              		.loc 1 382 12 discriminator 2 view .LVU972
 3423 0030 6046     		mov	r0, ip
 3424 0032 9847     		blx	r3
 3425              	.LVL444:
 3426              	.L338:
 383:../switch_sdk/core/yt/yt_port.c **** }
 3427              		.loc 1 383 1 view .LVU973
 3428 0034 08BD     		pop	{r3, pc}
 3429              	.LVL445:
 3430              	.L352:
 376:../switch_sdk/core/yt/yt_port.c ****     CMM_PARAM_CHK(NULL == YT_DISPATCH(unit), CMM_ERR_NOT_INIT);
 3431              		.loc 1 376 5 is_stmt 1 discriminator 1 view .LVU974
 376:../switch_sdk/core/yt/yt_port.c ****     CMM_PARAM_CHK(NULL == YT_DISPATCH(unit), CMM_ERR_NOT_INIT);
 3432              		.loc 1 376 5 discriminator 1 view .LVU975
 3433 0036 264B     		ldr	r3, .L361+12
 3434 0038 1B78     		ldrb	r3, [r3]	@ zero_extendqisi2
 3435 003a 012B     		cmp	r3, #1
 3436 003c 01D8     		bhi	.L356
 3437              	.LVL446:
 3438              	.L340:
 376:../switch_sdk/core/yt/yt_port.c ****     CMM_PARAM_CHK(NULL == YT_DISPATCH(unit), CMM_ERR_NOT_INIT);
 3439              		.loc 1 376 5 discriminator 5 view .LVU976
 376:../switch_sdk/core/yt/yt_port.c ****     CMM_PARAM_CHK(NULL == YT_DISPATCH(unit), CMM_ERR_NOT_INIT);
 3440              		.loc 1 376 5 discriminator 5 view .LVU977
 376:../switch_sdk/core/yt/yt_port.c ****     CMM_PARAM_CHK(NULL == YT_DISPATCH(unit), CMM_ERR_NOT_INIT);
 3441              		.loc 1 376 5 discriminator 5 view .LVU978
 3442 003e 0520     		movs	r0, #5
 3443 0040 F8E7     		b	.L338
 3444              	.LVL447:
 3445              	.L356:
 376:../switch_sdk/core/yt/yt_port.c ****     CMM_PARAM_CHK(NULL == YT_DISPATCH(unit), CMM_ERR_NOT_INIT);
 3446              		.loc 1 376 5 discriminator 3 view .LVU979
 3447              	.LBB67:
 376:../switch_sdk/core/yt/yt_port.c ****     CMM_PARAM_CHK(NULL == YT_DISPATCH(unit), CMM_ERR_NOT_INIT);
 3448              		.loc 1 376 5 discriminator 3 view .LVU980
 3449 0042 244B     		ldr	r3, .L361+16
 3450 0044 5A69     		ldr	r2, [r3, #20]
 3451              	.LVL448:
 376:../switch_sdk/core/yt/yt_port.c ****     CMM_PARAM_CHK(NULL == YT_DISPATCH(unit), CMM_ERR_NOT_INIT);
 3452              		.loc 1 376 5 is_stmt 0 discriminator 3 view .LVU981
 3453 0046 244B     		ldr	r3, .L361+20
 3454 0048 9968     		ldr	r1, [r3, #8]
 3455              	.LVL449:
 376:../switch_sdk/core/yt/yt_port.c ****     CMM_PARAM_CHK(NULL == YT_DISPATCH(unit), CMM_ERR_NOT_INIT);
 3456              		.loc 1 376 5 discriminator 3 view .LVU982
 3457 004a 2448     		ldr	r0, .L361+24
 3458              	.LVL450:
 376:../switch_sdk/core/yt/yt_port.c ****     CMM_PARAM_CHK(NULL == YT_DISPATCH(unit), CMM_ERR_NOT_INIT);
 3459              		.loc 1 376 5 discriminator 3 view .LVU983
 3460 004c FFF7FEFF 		bl	osal_printf
 3461              	.LVL451:
 3462 0050 F5E7     		b	.L340
 3463              	.LVL452:
 3464              	.L353:
 376:../switch_sdk/core/yt/yt_port.c ****     CMM_PARAM_CHK(NULL == YT_DISPATCH(unit), CMM_ERR_NOT_INIT);
 3465              		.loc 1 376 5 discriminator 3 view .LVU984
 3466              	.LBE67:
 377:../switch_sdk/core/yt/yt_port.c ****     CMM_PARAM_CHK((!(YT_DISPATCH(unit)->is_inited)), CMM_ERR_NOT_INIT);
 3467              		.loc 1 377 5 is_stmt 1 discriminator 1 view .LVU985
 377:../switch_sdk/core/yt/yt_port.c ****     CMM_PARAM_CHK((!(YT_DISPATCH(unit)->is_inited)), CMM_ERR_NOT_INIT);
 3468              		.loc 1 377 5 discriminator 1 view .LVU986
 3469 0052 1F4B     		ldr	r3, .L361+12
 3470 0054 1B78     		ldrb	r3, [r3]	@ zero_extendqisi2
 3471 0056 012B     		cmp	r3, #1
 3472 0058 01D8     		bhi	.L357
 3473              	.LVL453:
 3474              	.L343:
 377:../switch_sdk/core/yt/yt_port.c ****     CMM_PARAM_CHK((!(YT_DISPATCH(unit)->is_inited)), CMM_ERR_NOT_INIT);
 3475              		.loc 1 377 5 discriminator 5 view .LVU987
 377:../switch_sdk/core/yt/yt_port.c ****     CMM_PARAM_CHK((!(YT_DISPATCH(unit)->is_inited)), CMM_ERR_NOT_INIT);
 3476              		.loc 1 377 5 discriminator 5 view .LVU988
 377:../switch_sdk/core/yt/yt_port.c ****     CMM_PARAM_CHK((!(YT_DISPATCH(unit)->is_inited)), CMM_ERR_NOT_INIT);
 3477              		.loc 1 377 5 discriminator 5 view .LVU989
 3478 005a 0420     		movs	r0, #4
 3479 005c EAE7     		b	.L338
 3480              	.LVL454:
 3481              	.L357:
 377:../switch_sdk/core/yt/yt_port.c ****     CMM_PARAM_CHK((!(YT_DISPATCH(unit)->is_inited)), CMM_ERR_NOT_INIT);
 3482              		.loc 1 377 5 discriminator 3 view .LVU990
 3483              	.LBB68:
 377:../switch_sdk/core/yt/yt_port.c ****     CMM_PARAM_CHK((!(YT_DISPATCH(unit)->is_inited)), CMM_ERR_NOT_INIT);
 3484              		.loc 1 377 5 discriminator 3 view .LVU991
 3485 005e 1D4B     		ldr	r3, .L361+16
 3486 0060 1A69     		ldr	r2, [r3, #16]
 3487              	.LVL455:
 377:../switch_sdk/core/yt/yt_port.c ****     CMM_PARAM_CHK((!(YT_DISPATCH(unit)->is_inited)), CMM_ERR_NOT_INIT);
 3488              		.loc 1 377 5 is_stmt 0 discriminator 3 view .LVU992
 3489 0062 1D4B     		ldr	r3, .L361+20
 3490 0064 9968     		ldr	r1, [r3, #8]
 3491              	.LVL456:
 377:../switch_sdk/core/yt/yt_port.c ****     CMM_PARAM_CHK((!(YT_DISPATCH(unit)->is_inited)), CMM_ERR_NOT_INIT);
 3492              		.loc 1 377 5 discriminator 3 view .LVU993
 3493 0066 1D48     		ldr	r0, .L361+24
 3494              	.LVL457:
 377:../switch_sdk/core/yt/yt_port.c ****     CMM_PARAM_CHK((!(YT_DISPATCH(unit)->is_inited)), CMM_ERR_NOT_INIT);
 3495              		.loc 1 377 5 discriminator 3 view .LVU994
 3496 0068 FFF7FEFF 		bl	osal_printf
 3497              	.LVL458:
 3498 006c F5E7     		b	.L343
 3499              	.LVL459:
 3500              	.L354:
 377:../switch_sdk/core/yt/yt_port.c ****     CMM_PARAM_CHK((!(YT_DISPATCH(unit)->is_inited)), CMM_ERR_NOT_INIT);
 3501              		.loc 1 377 5 discriminator 3 view .LVU995
 3502              	.LBE68:
 378:../switch_sdk/core/yt/yt_port.c ****     CMM_PARAM_CHK((!(CMM_PORT_VALID(unit, port))), CMM_ERR_PORT);
 3503              		.loc 1 378 5 is_stmt 1 discriminator 1 view .LVU996
 378:../switch_sdk/core/yt/yt_port.c ****     CMM_PARAM_CHK((!(CMM_PORT_VALID(unit, port))), CMM_ERR_PORT);
 3504              		.loc 1 378 5 discriminator 1 view .LVU997
 3505 006e 184B     		ldr	r3, .L361+12
 3506 0070 1B78     		ldrb	r3, [r3]	@ zero_extendqisi2
 3507 0072 012B     		cmp	r3, #1
 3508 0074 01D8     		bhi	.L358
 3509              	.LVL460:
 3510              	.L345:
 378:../switch_sdk/core/yt/yt_port.c ****     CMM_PARAM_CHK((!(CMM_PORT_VALID(unit, port))), CMM_ERR_PORT);
 3511              		.loc 1 378 5 discriminator 5 view .LVU998
 378:../switch_sdk/core/yt/yt_port.c ****     CMM_PARAM_CHK((!(CMM_PORT_VALID(unit, port))), CMM_ERR_PORT);
 3512              		.loc 1 378 5 discriminator 5 view .LVU999
 378:../switch_sdk/core/yt/yt_port.c ****     CMM_PARAM_CHK((!(CMM_PORT_VALID(unit, port))), CMM_ERR_PORT);
 3513              		.loc 1 378 5 discriminator 5 view .LVU1000
 3514 0076 0420     		movs	r0, #4
 3515 0078 DCE7     		b	.L338
 3516              	.LVL461:
 3517              	.L358:
 378:../switch_sdk/core/yt/yt_port.c ****     CMM_PARAM_CHK((!(CMM_PORT_VALID(unit, port))), CMM_ERR_PORT);
 3518              		.loc 1 378 5 discriminator 3 view .LVU1001
 3519              	.LBB69:
 378:../switch_sdk/core/yt/yt_port.c ****     CMM_PARAM_CHK((!(CMM_PORT_VALID(unit, port))), CMM_ERR_PORT);
 3520              		.loc 1 378 5 discriminator 3 view .LVU1002
 3521 007a 164B     		ldr	r3, .L361+16
 3522 007c 1A69     		ldr	r2, [r3, #16]
 3523              	.LVL462:
 378:../switch_sdk/core/yt/yt_port.c ****     CMM_PARAM_CHK((!(CMM_PORT_VALID(unit, port))), CMM_ERR_PORT);
 3524              		.loc 1 378 5 is_stmt 0 discriminator 3 view .LVU1003
 3525 007e 164B     		ldr	r3, .L361+20
 3526 0080 9968     		ldr	r1, [r3, #8]
 3527              	.LVL463:
 378:../switch_sdk/core/yt/yt_port.c ****     CMM_PARAM_CHK((!(CMM_PORT_VALID(unit, port))), CMM_ERR_PORT);
 3528              		.loc 1 378 5 discriminator 3 view .LVU1004
 3529 0082 1648     		ldr	r0, .L361+24
 3530 0084 FFF7FEFF 		bl	osal_printf
 3531              	.LVL464:
 3532 0088 F5E7     		b	.L345
 3533              	.LVL465:
 3534              	.L346:
 378:../switch_sdk/core/yt/yt_port.c ****     CMM_PARAM_CHK((!(CMM_PORT_VALID(unit, port))), CMM_ERR_PORT);
 3535              		.loc 1 378 5 discriminator 3 view .LVU1005
 3536              	.LBE69:
 379:../switch_sdk/core/yt/yt_port.c ****     CMM_PARAM_CHK((YT_ENABLE < enable || YT_DISABLE > enable), CMM_ERR_INPUT);
 3537              		.loc 1 379 5 is_stmt 1 discriminator 3 view .LVU1006
 379:../switch_sdk/core/yt/yt_port.c ****     CMM_PARAM_CHK((YT_ENABLE < enable || YT_DISABLE > enable), CMM_ERR_INPUT);
 3538              		.loc 1 379 5 discriminator 3 view .LVU1007
 3539 008a 114B     		ldr	r3, .L361+12
 3540 008c 1B78     		ldrb	r3, [r3]	@ zero_extendqisi2
 3541 008e 012B     		cmp	r3, #1
 3542 0090 01D8     		bhi	.L359
 3543              	.LVL466:
 3544              	.L348:
 379:../switch_sdk/core/yt/yt_port.c ****     CMM_PARAM_CHK((YT_ENABLE < enable || YT_DISABLE > enable), CMM_ERR_INPUT);
 3545              		.loc 1 379 5 discriminator 7 view .LVU1008
 379:../switch_sdk/core/yt/yt_port.c ****     CMM_PARAM_CHK((YT_ENABLE < enable || YT_DISABLE > enable), CMM_ERR_INPUT);
 3546              		.loc 1 379 5 discriminator 7 view .LVU1009
 379:../switch_sdk/core/yt/yt_port.c ****     CMM_PARAM_CHK((YT_ENABLE < enable || YT_DISABLE > enable), CMM_ERR_INPUT);
 3547              		.loc 1 379 5 discriminator 7 view .LVU1010
 3548 0092 0E20     		movs	r0, #14
 3549 0094 CEE7     		b	.L338
 3550              	.LVL467:
 3551              	.L359:
 379:../switch_sdk/core/yt/yt_port.c ****     CMM_PARAM_CHK((YT_ENABLE < enable || YT_DISABLE > enable), CMM_ERR_INPUT);
 3552              		.loc 1 379 5 discriminator 5 view .LVU1011
 3553              	.LBB70:
 379:../switch_sdk/core/yt/yt_port.c ****     CMM_PARAM_CHK((YT_ENABLE < enable || YT_DISABLE > enable), CMM_ERR_INPUT);
 3554              		.loc 1 379 5 discriminator 5 view .LVU1012
 3555 0096 0F4B     		ldr	r3, .L361+16
 3556 0098 9A6B     		ldr	r2, [r3, #56]
 3557              	.LVL468:
 379:../switch_sdk/core/yt/yt_port.c ****     CMM_PARAM_CHK((YT_ENABLE < enable || YT_DISABLE > enable), CMM_ERR_INPUT);
 3558              		.loc 1 379 5 is_stmt 0 discriminator 5 view .LVU1013
 3559 009a 0F4B     		ldr	r3, .L361+20
 3560 009c 9968     		ldr	r1, [r3, #8]
 3561              	.LVL469:
 379:../switch_sdk/core/yt/yt_port.c ****     CMM_PARAM_CHK((YT_ENABLE < enable || YT_DISABLE > enable), CMM_ERR_INPUT);
 3562              		.loc 1 379 5 discriminator 5 view .LVU1014
 3563 009e 0F48     		ldr	r0, .L361+24
 3564 00a0 FFF7FEFF 		bl	osal_printf
 3565              	.LVL470:
 3566 00a4 F5E7     		b	.L348
 3567              	.LVL471:
 3568              	.L355:
 379:../switch_sdk/core/yt/yt_port.c ****     CMM_PARAM_CHK((YT_ENABLE < enable || YT_DISABLE > enable), CMM_ERR_INPUT);
 3569              		.loc 1 379 5 discriminator 5 view .LVU1015
 3570              	.LBE70:
 380:../switch_sdk/core/yt/yt_port.c **** 
 3571              		.loc 1 380 5 is_stmt 1 discriminator 1 view .LVU1016
 380:../switch_sdk/core/yt/yt_port.c **** 
 3572              		.loc 1 380 5 discriminator 1 view .LVU1017
 3573 00a6 0A4B     		ldr	r3, .L361+12
 3574 00a8 1B78     		ldrb	r3, [r3]	@ zero_extendqisi2
 3575 00aa 012B     		cmp	r3, #1
 3576 00ac 01D8     		bhi	.L360
 3577              	.LVL472:
 3578              	.L350:
 380:../switch_sdk/core/yt/yt_port.c **** 
 3579              		.loc 1 380 5 discriminator 5 view .LVU1018
 380:../switch_sdk/core/yt/yt_port.c **** 
 3580              		.loc 1 380 5 discriminator 5 view .LVU1019
 380:../switch_sdk/core/yt/yt_port.c **** 
 3581              		.loc 1 380 5 discriminator 5 view .LVU1020
 3582 00ae 0520     		movs	r0, #5
 3583 00b0 C0E7     		b	.L338
 3584              	.LVL473:
 3585              	.L360:
