   1              		.cpu cortex-m3
   2              		.arch armv7-m
   3              		.fpu softvfp
   4              		.eabi_attribute 20, 1
   5              		.eabi_attribute 21, 1
   6              		.eabi_attribute 23, 3
   7              		.eabi_attribute 24, 1
   8              		.eabi_attribute 25, 1
   9              		.eabi_attribute 26, 1
  10              		.eabi_attribute 30, 1
  11              		.eabi_attribute 34, 1
  12              		.eabi_attribute 18, 4
  13              		.file	"yt_vlan_translate.c"
  14              		.text
  15              	.Ltext0:
  16              		.cfi_sections	.debug_frame
  17              		.file 1 "../switch_sdk/core/yt/yt_vlan_translate.c"
  18              		.section	.rodata.yt_vlan_trans_untagPvidIgnore_set.str1.4,"aMS",%progbits,1
  19              		.align	2
  20              	.LC0:
  21 0000 25732573 		.ascii	"%s%s\015\012\000"
  21      0D0A00
  22              		.section	.text.yt_vlan_trans_untagPvidIgnore_set,"ax",%progbits
  23              		.align	1
  24              		.global	yt_vlan_trans_untagPvidIgnore_set
  25              		.syntax unified
  26              		.thumb
  27              		.thumb_func
  29              	yt_vlan_trans_untagPvidIgnore_set:
  30              	.LVL0:
  31              	.LFB3:
   1:../switch_sdk/core/yt/yt_vlan_translate.c **** /*******************************************************************************
   2:../switch_sdk/core/yt/yt_vlan_translate.c **** *                                                                              *
   3:../switch_sdk/core/yt/yt_vlan_translate.c **** *  Copyright (c), 2022, Motorcomm Electronic Technology Co.,Ltd.               *
   4:../switch_sdk/core/yt/yt_vlan_translate.c **** *  Motorcomm Confidential and Proprietary.                                     *
   5:../switch_sdk/core/yt/yt_vlan_translate.c **** *                                                                              *
   6:../switch_sdk/core/yt/yt_vlan_translate.c **** ********************************************************************************
   7:../switch_sdk/core/yt/yt_vlan_translate.c **** */
   8:../switch_sdk/core/yt/yt_vlan_translate.c **** /**
   9:../switch_sdk/core/yt/yt_vlan_translate.c **** ********************************************************************************
  10:../switch_sdk/core/yt/yt_vlan_translate.c **** * @file yt_vlan_translate.c
  11:../switch_sdk/core/yt/yt_vlan_translate.c **** *
  12:../switch_sdk/core/yt/yt_vlan_translate.c **** * @brief x
  13:../switch_sdk/core/yt/yt_vlan_translate.c **** *
  14:../switch_sdk/core/yt/yt_vlan_translate.c **** ********************************************************************************
  15:../switch_sdk/core/yt/yt_vlan_translate.c **** */
  16:../switch_sdk/core/yt/yt_vlan_translate.c **** #include "yt_vlan_translate.h"
  17:../switch_sdk/core/yt/yt_vlan_translate.c **** #include "fal_dispatch.h"
  18:../switch_sdk/core/yt/yt_vlan_translate.c **** 
  19:../switch_sdk/core/yt/yt_vlan_translate.c **** 
  20:../switch_sdk/core/yt/yt_vlan_translate.c **** /**
  21:../switch_sdk/core/yt/yt_vlan_translate.c ****  * @internal      yt_vlan_trans_untagPvidIgnore_set
  22:../switch_sdk/core/yt/yt_vlan_translate.c ****  * @endinternal
  23:../switch_sdk/core/yt/yt_vlan_translate.c ****  *
  24:../switch_sdk/core/yt/yt_vlan_translate.c ****  * @brief         Description
  25:../switch_sdk/core/yt/yt_vlan_translate.c ****  * @note          APPLICABLE DEVICES  -Tiger
  26:../switch_sdk/core/yt/yt_vlan_translate.c ****  * @param[in]     unit                -unit id
  27:../switch_sdk/core/yt/yt_vlan_translate.c ****  * @param[in]     type                -VLAN_TYPE_CVLAN or VLAN_TYPE_SVLAN
  28:../switch_sdk/core/yt/yt_vlan_translate.c ****  * @param[in]     port                -port num
  29:../switch_sdk/core/yt/yt_vlan_translate.c ****  * @param[in]     enable              -enable or disable
  30:../switch_sdk/core/yt/yt_vlan_translate.c ****  * @retval        CMM_ERR_OK          -on success
  31:../switch_sdk/core/yt/yt_vlan_translate.c ****  * @retval        CMM_ERR_FAIL        -on fail
  32:../switch_sdk/core/yt/yt_vlan_translate.c ****  */
  33:../switch_sdk/core/yt/yt_vlan_translate.c **** yt_ret_t yt_vlan_trans_untagPvidIgnore_set(yt_unit_t unit, yt_vlan_type_t type,  yt_port_t  port,  
  34:../switch_sdk/core/yt/yt_vlan_translate.c **** {
  32              		.loc 1 34 1 view -0
  33              		.cfi_startproc
  34              		@ args = 0, pretend = 0, frame = 0
  35              		@ frame_needed = 0, uses_anonymous_args = 0
  36              		.loc 1 34 1 is_stmt 0 view .LVU1
  37 0000 10B5     		push	{r4, lr}
  38              		.cfi_def_cfa_offset 8
  39              		.cfi_offset 4, -8
  40              		.cfi_offset 14, -4
  35:../switch_sdk/core/yt/yt_vlan_translate.c ****     CMM_PARAM_CHK((YT_UNIT_NUM <= unit), CMM_ERR_INPUT);
  41              		.loc 1 35 5 is_stmt 1 view .LVU2
  42              		.loc 1 35 5 view .LVU3
  43 0002 D0B9     		cbnz	r0, .L17
  44 0004 8446     		mov	ip, r0
  45              		.loc 1 35 5 discriminator 2 view .LVU4
  36:../switch_sdk/core/yt/yt_vlan_translate.c ****     CMM_PARAM_CHK(NULL == YT_DISPATCH(unit), CMM_ERR_NOT_INIT);
  46              		.loc 1 36 5 discriminator 2 view .LVU5
  47              		.loc 1 36 5 discriminator 2 view .LVU6
  48 0006 3748     		ldr	r0, .L28
  49              	.LVL1:
  50              		.loc 1 36 5 is_stmt 0 discriminator 2 view .LVU7
  51 0008 50F82C40 		ldr	r4, [r0, ip, lsl #2]
  52 000c 1CB3     		cbz	r4, .L18
  53              		.loc 1 36 5 is_stmt 1 discriminator 2 view .LVU8
  37:../switch_sdk/core/yt/yt_vlan_translate.c ****     CMM_PARAM_CHK((!(YT_DISPATCH(unit)->is_inited)), CMM_ERR_NOT_INIT);
  54              		.loc 1 37 5 discriminator 2 view .LVU9
  55              		.loc 1 37 5 discriminator 2 view .LVU10
  56 000e 2078     		ldrb	r0, [r4]	@ zero_extendqisi2
  57 0010 0028     		cmp	r0, #0
  58 0012 2ED0     		beq	.L19
  59              		.loc 1 37 5 discriminator 2 view .LVU11
  38:../switch_sdk/core/yt/yt_vlan_translate.c ****     CMM_PARAM_CHK((!(CMM_PORT_VALID(unit, port))), CMM_ERR_PORT);
  60              		.loc 1 38 5 discriminator 2 view .LVU12
  61              		.loc 1 38 5 discriminator 2 view .LVU13
  62 0014 3448     		ldr	r0, .L28+4
  63 0016 0078     		ldrb	r0, [r0]	@ zero_extendqisi2
  64 0018 0028     		cmp	r0, #0
  65 001a 38D0     		beq	.L9
  66 001c 3348     		ldr	r0, .L28+8
  67 001e 50F82C00 		ldr	r0, [r0, ip, lsl #2]
  68 0022 007D     		ldrb	r0, [r0, #20]	@ zero_extendqisi2
  69 0024 9042     		cmp	r0, r2
  70 0026 32D9     		bls	.L9
  71              		.loc 1 38 5 discriminator 4 view .LVU14
  39:../switch_sdk/core/yt/yt_vlan_translate.c ****     CMM_PARAM_CHK((VLAN_TYPE_SVLAN < type || VLAN_TYPE_CVLAN > type), CMM_ERR_INPUT);
  72              		.loc 1 39 5 discriminator 4 view .LVU15
  73              		.loc 1 39 5 discriminator 4 view .LVU16
  74 0028 0129     		cmp	r1, #1
  75 002a 3ED8     		bhi	.L20
  76              		.loc 1 39 5 discriminator 2 view .LVU17
  40:../switch_sdk/core/yt/yt_vlan_translate.c ****     CMM_PARAM_CHK((YT_ENABLE < enable || YT_DISABLE > enable), CMM_ERR_INPUT);
  77              		.loc 1 40 5 discriminator 2 view .LVU18
  78              		.loc 1 40 5 discriminator 2 view .LVU19
  79 002c 012B     		cmp	r3, #1
  80 002e 4AD8     		bhi	.L21
  81              		.loc 1 40 5 discriminator 2 view .LVU20
  41:../switch_sdk/core/yt/yt_vlan_translate.c **** 
  42:../switch_sdk/core/yt/yt_vlan_translate.c ****     return YT_DISPATCH(unit)->vlan_trans_untagPvidIgnore_set(unit, type, port, enable);
  82              		.loc 1 42 5 discriminator 2 view .LVU21
  83              		.loc 1 42 29 is_stmt 0 discriminator 2 view .LVU22
  84 0030 D4F89C40 		ldr	r4, [r4, #156]
  85              		.loc 1 42 12 discriminator 2 view .LVU23
  86 0034 6046     		mov	r0, ip
  87 0036 A047     		blx	r4
  88              	.LVL2:
  89              		.loc 1 42 12 discriminator 2 view .LVU24
  90 0038 04E0     		b	.L1
  91              	.LVL3:
  92              	.L17:
  35:../switch_sdk/core/yt/yt_vlan_translate.c ****     CMM_PARAM_CHK(NULL == YT_DISPATCH(unit), CMM_ERR_NOT_INIT);
  93              		.loc 1 35 5 is_stmt 1 discriminator 1 view .LVU25
  35:../switch_sdk/core/yt/yt_vlan_translate.c ****     CMM_PARAM_CHK(NULL == YT_DISPATCH(unit), CMM_ERR_NOT_INIT);
  94              		.loc 1 35 5 discriminator 1 view .LVU26
  95 003a 2D4B     		ldr	r3, .L28+12
  96              	.LVL4:
  35:../switch_sdk/core/yt/yt_vlan_translate.c ****     CMM_PARAM_CHK(NULL == YT_DISPATCH(unit), CMM_ERR_NOT_INIT);
  97              		.loc 1 35 5 is_stmt 0 discriminator 1 view .LVU27
  98 003c 1B78     		ldrb	r3, [r3]	@ zero_extendqisi2
  99 003e 012B     		cmp	r3, #1
 100 0040 01D8     		bhi	.L22
 101              	.LVL5:
 102              	.L3:
  35:../switch_sdk/core/yt/yt_vlan_translate.c ****     CMM_PARAM_CHK(NULL == YT_DISPATCH(unit), CMM_ERR_NOT_INIT);
 103              		.loc 1 35 5 is_stmt 1 discriminator 5 view .LVU28
  35:../switch_sdk/core/yt/yt_vlan_translate.c ****     CMM_PARAM_CHK(NULL == YT_DISPATCH(unit), CMM_ERR_NOT_INIT);
 104              		.loc 1 35 5 discriminator 5 view .LVU29
  35:../switch_sdk/core/yt/yt_vlan_translate.c ****     CMM_PARAM_CHK(NULL == YT_DISPATCH(unit), CMM_ERR_NOT_INIT);
 105              		.loc 1 35 5 discriminator 5 view .LVU30
 106 0042 0520     		movs	r0, #5
 107              	.L1:
  43:../switch_sdk/core/yt/yt_vlan_translate.c **** }
 108              		.loc 1 43 1 is_stmt 0 view .LVU31
 109 0044 10BD     		pop	{r4, pc}
 110              	.LVL6:
 111              	.L22:
  35:../switch_sdk/core/yt/yt_vlan_translate.c ****     CMM_PARAM_CHK(NULL == YT_DISPATCH(unit), CMM_ERR_NOT_INIT);
 112              		.loc 1 35 5 is_stmt 1 discriminator 3 view .LVU32
 113              	.LBB2:
  35:../switch_sdk/core/yt/yt_vlan_translate.c ****     CMM_PARAM_CHK(NULL == YT_DISPATCH(unit), CMM_ERR_NOT_INIT);
 114              		.loc 1 35 5 discriminator 3 view .LVU33
 115 0046 2B4B     		ldr	r3, .L28+16
 116 0048 5A69     		ldr	r2, [r3, #20]
 117              	.LVL7:
  35:../switch_sdk/core/yt/yt_vlan_translate.c ****     CMM_PARAM_CHK(NULL == YT_DISPATCH(unit), CMM_ERR_NOT_INIT);
 118              		.loc 1 35 5 is_stmt 0 discriminator 3 view .LVU34
 119 004a 2B4B     		ldr	r3, .L28+20
 120 004c 9968     		ldr	r1, [r3, #8]
 121              	.LVL8:
  35:../switch_sdk/core/yt/yt_vlan_translate.c ****     CMM_PARAM_CHK(NULL == YT_DISPATCH(unit), CMM_ERR_NOT_INIT);
 122              		.loc 1 35 5 discriminator 3 view .LVU35
 123 004e 2B48     		ldr	r0, .L28+24
 124              	.LVL9:
  35:../switch_sdk/core/yt/yt_vlan_translate.c ****     CMM_PARAM_CHK(NULL == YT_DISPATCH(unit), CMM_ERR_NOT_INIT);
 125              		.loc 1 35 5 discriminator 3 view .LVU36
 126 0050 FFF7FEFF 		bl	osal_printf
 127              	.LVL10:
 128 0054 F5E7     		b	.L3
 129              	.LVL11:
 130              	.L18:
  35:../switch_sdk/core/yt/yt_vlan_translate.c ****     CMM_PARAM_CHK(NULL == YT_DISPATCH(unit), CMM_ERR_NOT_INIT);
 131              		.loc 1 35 5 discriminator 3 view .LVU37
 132              	.LBE2:
  36:../switch_sdk/core/yt/yt_vlan_translate.c ****     CMM_PARAM_CHK((!(YT_DISPATCH(unit)->is_inited)), CMM_ERR_NOT_INIT);
 133              		.loc 1 36 5 is_stmt 1 discriminator 1 view .LVU38
  36:../switch_sdk/core/yt/yt_vlan_translate.c ****     CMM_PARAM_CHK((!(YT_DISPATCH(unit)->is_inited)), CMM_ERR_NOT_INIT);
 134              		.loc 1 36 5 discriminator 1 view .LVU39
 135 0056 264B     		ldr	r3, .L28+12
 136              	.LVL12:
  36:../switch_sdk/core/yt/yt_vlan_translate.c ****     CMM_PARAM_CHK((!(YT_DISPATCH(unit)->is_inited)), CMM_ERR_NOT_INIT);
 137              		.loc 1 36 5 is_stmt 0 discriminator 1 view .LVU40
 138 0058 1B78     		ldrb	r3, [r3]	@ zero_extendqisi2
 139 005a 012B     		cmp	r3, #1
 140 005c 01D8     		bhi	.L23
 141              	.LVL13:
 142              	.L6:
  36:../switch_sdk/core/yt/yt_vlan_translate.c ****     CMM_PARAM_CHK((!(YT_DISPATCH(unit)->is_inited)), CMM_ERR_NOT_INIT);
 143              		.loc 1 36 5 is_stmt 1 discriminator 5 view .LVU41
  36:../switch_sdk/core/yt/yt_vlan_translate.c ****     CMM_PARAM_CHK((!(YT_DISPATCH(unit)->is_inited)), CMM_ERR_NOT_INIT);
 144              		.loc 1 36 5 discriminator 5 view .LVU42
  36:../switch_sdk/core/yt/yt_vlan_translate.c ****     CMM_PARAM_CHK((!(YT_DISPATCH(unit)->is_inited)), CMM_ERR_NOT_INIT);
 145              		.loc 1 36 5 discriminator 5 view .LVU43
 146 005e 0420     		movs	r0, #4
 147 0060 F0E7     		b	.L1
 148              	.LVL14:
 149              	.L23:
  36:../switch_sdk/core/yt/yt_vlan_translate.c ****     CMM_PARAM_CHK((!(YT_DISPATCH(unit)->is_inited)), CMM_ERR_NOT_INIT);
 150              		.loc 1 36 5 discriminator 3 view .LVU44
 151              	.LBB3:
  36:../switch_sdk/core/yt/yt_vlan_translate.c ****     CMM_PARAM_CHK((!(YT_DISPATCH(unit)->is_inited)), CMM_ERR_NOT_INIT);
 152              		.loc 1 36 5 discriminator 3 view .LVU45
 153 0062 244B     		ldr	r3, .L28+16
 154 0064 1A69     		ldr	r2, [r3, #16]
 155              	.LVL15:
  36:../switch_sdk/core/yt/yt_vlan_translate.c ****     CMM_PARAM_CHK((!(YT_DISPATCH(unit)->is_inited)), CMM_ERR_NOT_INIT);
 156              		.loc 1 36 5 is_stmt 0 discriminator 3 view .LVU46
 157 0066 244B     		ldr	r3, .L28+20
 158 0068 9968     		ldr	r1, [r3, #8]
 159              	.LVL16:
  36:../switch_sdk/core/yt/yt_vlan_translate.c ****     CMM_PARAM_CHK((!(YT_DISPATCH(unit)->is_inited)), CMM_ERR_NOT_INIT);
 160              		.loc 1 36 5 discriminator 3 view .LVU47
 161 006a 2448     		ldr	r0, .L28+24
 162 006c FFF7FEFF 		bl	osal_printf
 163              	.LVL17:
 164 0070 F5E7     		b	.L6
 165              	.LVL18:
 166              	.L19:
  36:../switch_sdk/core/yt/yt_vlan_translate.c ****     CMM_PARAM_CHK((!(YT_DISPATCH(unit)->is_inited)), CMM_ERR_NOT_INIT);
 167              		.loc 1 36 5 discriminator 3 view .LVU48
 168              	.LBE3:
  37:../switch_sdk/core/yt/yt_vlan_translate.c ****     CMM_PARAM_CHK((!(CMM_PORT_VALID(unit, port))), CMM_ERR_PORT);
 169              		.loc 1 37 5 is_stmt 1 discriminator 1 view .LVU49
  37:../switch_sdk/core/yt/yt_vlan_translate.c ****     CMM_PARAM_CHK((!(CMM_PORT_VALID(unit, port))), CMM_ERR_PORT);
 170              		.loc 1 37 5 discriminator 1 view .LVU50
 171 0072 1F4B     		ldr	r3, .L28+12
 172              	.LVL19:
  37:../switch_sdk/core/yt/yt_vlan_translate.c ****     CMM_PARAM_CHK((!(CMM_PORT_VALID(unit, port))), CMM_ERR_PORT);
 173              		.loc 1 37 5 is_stmt 0 discriminator 1 view .LVU51
 174 0074 1B78     		ldrb	r3, [r3]	@ zero_extendqisi2
 175 0076 012B     		cmp	r3, #1
 176 0078 01D8     		bhi	.L24
 177              	.LVL20:
 178              	.L8:
  37:../switch_sdk/core/yt/yt_vlan_translate.c ****     CMM_PARAM_CHK((!(CMM_PORT_VALID(unit, port))), CMM_ERR_PORT);
 179              		.loc 1 37 5 is_stmt 1 discriminator 5 view .LVU52
  37:../switch_sdk/core/yt/yt_vlan_translate.c ****     CMM_PARAM_CHK((!(CMM_PORT_VALID(unit, port))), CMM_ERR_PORT);
 180              		.loc 1 37 5 discriminator 5 view .LVU53
  37:../switch_sdk/core/yt/yt_vlan_translate.c ****     CMM_PARAM_CHK((!(CMM_PORT_VALID(unit, port))), CMM_ERR_PORT);
 181              		.loc 1 37 5 discriminator 5 view .LVU54
 182 007a 0420     		movs	r0, #4
 183 007c E2E7     		b	.L1
 184              	.LVL21:
 185              	.L24:
  37:../switch_sdk/core/yt/yt_vlan_translate.c ****     CMM_PARAM_CHK((!(CMM_PORT_VALID(unit, port))), CMM_ERR_PORT);
 186              		.loc 1 37 5 discriminator 3 view .LVU55
 187              	.LBB4:
  37:../switch_sdk/core/yt/yt_vlan_translate.c ****     CMM_PARAM_CHK((!(CMM_PORT_VALID(unit, port))), CMM_ERR_PORT);
 188              		.loc 1 37 5 discriminator 3 view .LVU56
 189 007e 1D4B     		ldr	r3, .L28+16
 190 0080 1A69     		ldr	r2, [r3, #16]
 191              	.LVL22:
  37:../switch_sdk/core/yt/yt_vlan_translate.c ****     CMM_PARAM_CHK((!(CMM_PORT_VALID(unit, port))), CMM_ERR_PORT);
 192              		.loc 1 37 5 is_stmt 0 discriminator 3 view .LVU57
 193 0082 1D4B     		ldr	r3, .L28+20
 194 0084 9968     		ldr	r1, [r3, #8]
 195              	.LVL23:
  37:../switch_sdk/core/yt/yt_vlan_translate.c ****     CMM_PARAM_CHK((!(CMM_PORT_VALID(unit, port))), CMM_ERR_PORT);
 196              		.loc 1 37 5 discriminator 3 view .LVU58
 197 0086 1D48     		ldr	r0, .L28+24
 198 0088 FFF7FEFF 		bl	osal_printf
 199              	.LVL24:
 200 008c F5E7     		b	.L8
 201              	.LVL25:
 202              	.L9:
  37:../switch_sdk/core/yt/yt_vlan_translate.c ****     CMM_PARAM_CHK((!(CMM_PORT_VALID(unit, port))), CMM_ERR_PORT);
 203              		.loc 1 37 5 discriminator 3 view .LVU59
 204              	.LBE4:
  38:../switch_sdk/core/yt/yt_vlan_translate.c ****     CMM_PARAM_CHK((VLAN_TYPE_SVLAN < type || VLAN_TYPE_CVLAN > type), CMM_ERR_INPUT);
 205              		.loc 1 38 5 is_stmt 1 discriminator 3 view .LVU60
  38:../switch_sdk/core/yt/yt_vlan_translate.c ****     CMM_PARAM_CHK((VLAN_TYPE_SVLAN < type || VLAN_TYPE_CVLAN > type), CMM_ERR_INPUT);
 206              		.loc 1 38 5 discriminator 3 view .LVU61
 207 008e 184B     		ldr	r3, .L28+12
 208              	.LVL26:
  38:../switch_sdk/core/yt/yt_vlan_translate.c ****     CMM_PARAM_CHK((VLAN_TYPE_SVLAN < type || VLAN_TYPE_CVLAN > type), CMM_ERR_INPUT);
 209              		.loc 1 38 5 is_stmt 0 discriminator 3 view .LVU62
 210 0090 1B78     		ldrb	r3, [r3]	@ zero_extendqisi2
 211 0092 012B     		cmp	r3, #1
 212 0094 01D8     		bhi	.L25
 213              	.LVL27:
 214              	.L11:
  38:../switch_sdk/core/yt/yt_vlan_translate.c ****     CMM_PARAM_CHK((VLAN_TYPE_SVLAN < type || VLAN_TYPE_CVLAN > type), CMM_ERR_INPUT);
 215              		.loc 1 38 5 is_stmt 1 discriminator 7 view .LVU63
  38:../switch_sdk/core/yt/yt_vlan_translate.c ****     CMM_PARAM_CHK((VLAN_TYPE_SVLAN < type || VLAN_TYPE_CVLAN > type), CMM_ERR_INPUT);
 216              		.loc 1 38 5 discriminator 7 view .LVU64
  38:../switch_sdk/core/yt/yt_vlan_translate.c ****     CMM_PARAM_CHK((VLAN_TYPE_SVLAN < type || VLAN_TYPE_CVLAN > type), CMM_ERR_INPUT);
 217              		.loc 1 38 5 discriminator 7 view .LVU65
 218 0096 0E20     		movs	r0, #14
 219 0098 D4E7     		b	.L1
 220              	.LVL28:
 221              	.L25:
  38:../switch_sdk/core/yt/yt_vlan_translate.c ****     CMM_PARAM_CHK((VLAN_TYPE_SVLAN < type || VLAN_TYPE_CVLAN > type), CMM_ERR_INPUT);
 222              		.loc 1 38 5 discriminator 5 view .LVU66
 223              	.LBB5:
  38:../switch_sdk/core/yt/yt_vlan_translate.c ****     CMM_PARAM_CHK((VLAN_TYPE_SVLAN < type || VLAN_TYPE_CVLAN > type), CMM_ERR_INPUT);
 224              		.loc 1 38 5 discriminator 5 view .LVU67
 225 009a 164B     		ldr	r3, .L28+16
 226 009c 9A6B     		ldr	r2, [r3, #56]
 227              	.LVL29:
  38:../switch_sdk/core/yt/yt_vlan_translate.c ****     CMM_PARAM_CHK((VLAN_TYPE_SVLAN < type || VLAN_TYPE_CVLAN > type), CMM_ERR_INPUT);
 228              		.loc 1 38 5 is_stmt 0 discriminator 5 view .LVU68
 229 009e 164B     		ldr	r3, .L28+20
 230 00a0 9968     		ldr	r1, [r3, #8]
 231              	.LVL30:
  38:../switch_sdk/core/yt/yt_vlan_translate.c ****     CMM_PARAM_CHK((VLAN_TYPE_SVLAN < type || VLAN_TYPE_CVLAN > type), CMM_ERR_INPUT);
 232              		.loc 1 38 5 discriminator 5 view .LVU69
 233 00a2 1648     		ldr	r0, .L28+24
 234 00a4 FFF7FEFF 		bl	osal_printf
 235              	.LVL31:
 236 00a8 F5E7     		b	.L11
 237              	.LVL32:
 238              	.L20:
  38:../switch_sdk/core/yt/yt_vlan_translate.c ****     CMM_PARAM_CHK((VLAN_TYPE_SVLAN < type || VLAN_TYPE_CVLAN > type), CMM_ERR_INPUT);
 239              		.loc 1 38 5 discriminator 5 view .LVU70
 240              	.LBE5:
  39:../switch_sdk/core/yt/yt_vlan_translate.c ****     CMM_PARAM_CHK((YT_ENABLE < enable || YT_DISABLE > enable), CMM_ERR_INPUT);
 241              		.loc 1 39 5 is_stmt 1 discriminator 1 view .LVU71
  39:../switch_sdk/core/yt/yt_vlan_translate.c ****     CMM_PARAM_CHK((YT_ENABLE < enable || YT_DISABLE > enable), CMM_ERR_INPUT);
 242              		.loc 1 39 5 discriminator 1 view .LVU72
 243 00aa 114B     		ldr	r3, .L28+12
 244              	.LVL33:
  39:../switch_sdk/core/yt/yt_vlan_translate.c ****     CMM_PARAM_CHK((YT_ENABLE < enable || YT_DISABLE > enable), CMM_ERR_INPUT);
 245              		.loc 1 39 5 is_stmt 0 discriminator 1 view .LVU73
 246 00ac 1B78     		ldrb	r3, [r3]	@ zero_extendqisi2
 247 00ae 012B     		cmp	r3, #1
 248 00b0 01D8     		bhi	.L26
 249              	.LVL34:
 250              	.L13:
  39:../switch_sdk/core/yt/yt_vlan_translate.c ****     CMM_PARAM_CHK((YT_ENABLE < enable || YT_DISABLE > enable), CMM_ERR_INPUT);
 251              		.loc 1 39 5 is_stmt 1 discriminator 5 view .LVU74
  39:../switch_sdk/core/yt/yt_vlan_translate.c ****     CMM_PARAM_CHK((YT_ENABLE < enable || YT_DISABLE > enable), CMM_ERR_INPUT);
 252              		.loc 1 39 5 discriminator 5 view .LVU75
  39:../switch_sdk/core/yt/yt_vlan_translate.c ****     CMM_PARAM_CHK((YT_ENABLE < enable || YT_DISABLE > enable), CMM_ERR_INPUT);
 253              		.loc 1 39 5 discriminator 5 view .LVU76
 254 00b2 0520     		movs	r0, #5
 255 00b4 C6E7     		b	.L1
 256              	.LVL35:
 257              	.L26:
  39:../switch_sdk/core/yt/yt_vlan_translate.c ****     CMM_PARAM_CHK((YT_ENABLE < enable || YT_DISABLE > enable), CMM_ERR_INPUT);
 258              		.loc 1 39 5 discriminator 3 view .LVU77
 259              	.LBB6:
  39:../switch_sdk/core/yt/yt_vlan_translate.c ****     CMM_PARAM_CHK((YT_ENABLE < enable || YT_DISABLE > enable), CMM_ERR_INPUT);
 260              		.loc 1 39 5 discriminator 3 view .LVU78
 261 00b6 0F4B     		ldr	r3, .L28+16
 262 00b8 5A69     		ldr	r2, [r3, #20]
 263              	.LVL36:
  39:../switch_sdk/core/yt/yt_vlan_translate.c ****     CMM_PARAM_CHK((YT_ENABLE < enable || YT_DISABLE > enable), CMM_ERR_INPUT);
 264              		.loc 1 39 5 is_stmt 0 discriminator 3 view .LVU79
 265 00ba 0F4B     		ldr	r3, .L28+20
 266 00bc 9968     		ldr	r1, [r3, #8]
 267              	.LVL37:
  39:../switch_sdk/core/yt/yt_vlan_translate.c ****     CMM_PARAM_CHK((YT_ENABLE < enable || YT_DISABLE > enable), CMM_ERR_INPUT);
 268              		.loc 1 39 5 discriminator 3 view .LVU80
 269 00be 0F48     		ldr	r0, .L28+24
 270 00c0 FFF7FEFF 		bl	osal_printf
 271              	.LVL38:
 272 00c4 F5E7     		b	.L13
 273              	.LVL39:
 274              	.L21:
  39:../switch_sdk/core/yt/yt_vlan_translate.c ****     CMM_PARAM_CHK((YT_ENABLE < enable || YT_DISABLE > enable), CMM_ERR_INPUT);
 275              		.loc 1 39 5 discriminator 3 view .LVU81
 276              	.LBE6:
  40:../switch_sdk/core/yt/yt_vlan_translate.c **** 
 277              		.loc 1 40 5 is_stmt 1 discriminator 1 view .LVU82
  40:../switch_sdk/core/yt/yt_vlan_translate.c **** 
 278              		.loc 1 40 5 discriminator 1 view .LVU83
 279 00c6 0A4B     		ldr	r3, .L28+12
 280              	.LVL40:
  40:../switch_sdk/core/yt/yt_vlan_translate.c **** 
 281              		.loc 1 40 5 is_stmt 0 discriminator 1 view .LVU84
 282 00c8 1B78     		ldrb	r3, [r3]	@ zero_extendqisi2
 283 00ca 012B     		cmp	r3, #1
 284 00cc 01D8     		bhi	.L27
 285              	.LVL41:
 286              	.L15:
  40:../switch_sdk/core/yt/yt_vlan_translate.c **** 
 287              		.loc 1 40 5 is_stmt 1 discriminator 5 view .LVU85
  40:../switch_sdk/core/yt/yt_vlan_translate.c **** 
 288              		.loc 1 40 5 discriminator 5 view .LVU86
  40:../switch_sdk/core/yt/yt_vlan_translate.c **** 
 289              		.loc 1 40 5 discriminator 5 view .LVU87
 290 00ce 0520     		movs	r0, #5
 291 00d0 B8E7     		b	.L1
 292              	.LVL42:
 293              	.L27:
  40:../switch_sdk/core/yt/yt_vlan_translate.c **** 
 294              		.loc 1 40 5 discriminator 3 view .LVU88
 295              	.LBB7:
  40:../switch_sdk/core/yt/yt_vlan_translate.c **** 
 296              		.loc 1 40 5 discriminator 3 view .LVU89
 297 00d2 084B     		ldr	r3, .L28+16
 298 00d4 5A69     		ldr	r2, [r3, #20]
 299              	.LVL43:
  40:../switch_sdk/core/yt/yt_vlan_translate.c **** 
 300              		.loc 1 40 5 is_stmt 0 discriminator 3 view .LVU90
 301 00d6 084B     		ldr	r3, .L28+20
 302 00d8 9968     		ldr	r1, [r3, #8]
 303              	.LVL44:
  40:../switch_sdk/core/yt/yt_vlan_translate.c **** 
 304              		.loc 1 40 5 discriminator 3 view .LVU91
 305 00da 0848     		ldr	r0, .L28+24
 306 00dc FFF7FEFF 		bl	osal_printf
 307              	.LVL45:
 308 00e0 F5E7     		b	.L15
 309              	.L29:
 310 00e2 00BF     		.align	2
 311              	.L28:
 312 00e4 00000000 		.word	gpfal_dispatch
 313 00e8 00000000 		.word	gcal_inited
 314 00ec 00000000 		.word	gpSwitchUnit
 315 00f0 00000000 		.word	yt_debug_level
 316 00f4 00000000 		.word	_yt_errmsg
 317 00f8 00000000 		.word	_yt_prompt_msg
 318 00fc 00000000 		.word	.LC0
 319              	.LBE7:
 320              		.cfi_endproc
 321              	.LFE3:
 323              		.section	.text.yt_vlan_trans_untagPvidIgnore_get,"ax",%progbits
 324              		.align	1
 325              		.global	yt_vlan_trans_untagPvidIgnore_get
 326              		.syntax unified
 327              		.thumb
 328              		.thumb_func
 330              	yt_vlan_trans_untagPvidIgnore_get:
 331              	.LVL46:
 332              	.LFB4:
  44:../switch_sdk/core/yt/yt_vlan_translate.c **** 
  45:../switch_sdk/core/yt/yt_vlan_translate.c **** /**
  46:../switch_sdk/core/yt/yt_vlan_translate.c ****  * @internal      yt_vlan_trans_untagPvidIgnore_get
  47:../switch_sdk/core/yt/yt_vlan_translate.c ****  * @endinternal
  48:../switch_sdk/core/yt/yt_vlan_translate.c ****  *
  49:../switch_sdk/core/yt/yt_vlan_translate.c ****  * @brief         Description
  50:../switch_sdk/core/yt/yt_vlan_translate.c ****  * @note          APPLICABLE DEVICES  -Tiger
  51:../switch_sdk/core/yt/yt_vlan_translate.c ****  * @param[in]     unit                -unit id
  52:../switch_sdk/core/yt/yt_vlan_translate.c ****  * @param[in]     type                -VLAN_TYPE_CVLAN or VLAN_TYPE_SVLAN
  53:../switch_sdk/core/yt/yt_vlan_translate.c ****  * @param[in]     port                -port num
  54:../switch_sdk/core/yt/yt_vlan_translate.c ****  * @param[out]    pEnable             -enable or disable
  55:../switch_sdk/core/yt/yt_vlan_translate.c ****  * @retval        CMM_ERR_OK          -on success
  56:../switch_sdk/core/yt/yt_vlan_translate.c ****  * @retval        CMM_ERR_FAIL        -on fail
  57:../switch_sdk/core/yt/yt_vlan_translate.c ****  */
  58:../switch_sdk/core/yt/yt_vlan_translate.c **** yt_ret_t yt_vlan_trans_untagPvidIgnore_get(yt_unit_t unit, yt_vlan_type_t  type,  yt_port_t  port, 
  59:../switch_sdk/core/yt/yt_vlan_translate.c **** {
 333              		.loc 1 59 1 is_stmt 1 view -0
 334              		.cfi_startproc
 335              		@ args = 0, pretend = 0, frame = 0
 336              		@ frame_needed = 0, uses_anonymous_args = 0
 337              		.loc 1 59 1 is_stmt 0 view .LVU93
 338 0000 10B5     		push	{r4, lr}
 339              		.cfi_def_cfa_offset 8
 340              		.cfi_offset 4, -8
 341              		.cfi_offset 14, -4
  60:../switch_sdk/core/yt/yt_vlan_translate.c ****     CMM_PARAM_CHK((YT_UNIT_NUM <= unit), CMM_ERR_INPUT);
 342              		.loc 1 60 5 is_stmt 1 view .LVU94
 343              		.loc 1 60 5 view .LVU95
 344 0002 D0B9     		cbnz	r0, .L46
 345 0004 8446     		mov	ip, r0
 346              		.loc 1 60 5 discriminator 2 view .LVU96
  61:../switch_sdk/core/yt/yt_vlan_translate.c ****     CMM_PARAM_CHK(NULL == YT_DISPATCH(unit), CMM_ERR_NOT_INIT);
 347              		.loc 1 61 5 discriminator 2 view .LVU97
 348              		.loc 1 61 5 discriminator 2 view .LVU98
 349 0006 3748     		ldr	r0, .L57
 350              	.LVL47:
 351              		.loc 1 61 5 is_stmt 0 discriminator 2 view .LVU99
 352 0008 50F82C40 		ldr	r4, [r0, ip, lsl #2]
 353 000c 1CB3     		cbz	r4, .L47
 354              		.loc 1 61 5 is_stmt 1 discriminator 2 view .LVU100
  62:../switch_sdk/core/yt/yt_vlan_translate.c ****     CMM_PARAM_CHK((!(YT_DISPATCH(unit)->is_inited)), CMM_ERR_NOT_INIT);
 355              		.loc 1 62 5 discriminator 2 view .LVU101
 356              		.loc 1 62 5 discriminator 2 view .LVU102
 357 000e 2078     		ldrb	r0, [r4]	@ zero_extendqisi2
 358 0010 0028     		cmp	r0, #0
 359 0012 2ED0     		beq	.L48
 360              		.loc 1 62 5 discriminator 2 view .LVU103
  63:../switch_sdk/core/yt/yt_vlan_translate.c ****     CMM_PARAM_CHK((!(CMM_PORT_VALID(unit, port))), CMM_ERR_PORT);
 361              		.loc 1 63 5 discriminator 2 view .LVU104
 362              		.loc 1 63 5 discriminator 2 view .LVU105
 363 0014 3448     		ldr	r0, .L57+4
 364 0016 0078     		ldrb	r0, [r0]	@ zero_extendqisi2
 365 0018 0028     		cmp	r0, #0
 366 001a 38D0     		beq	.L38
 367 001c 3348     		ldr	r0, .L57+8
 368 001e 50F82C00 		ldr	r0, [r0, ip, lsl #2]
 369 0022 007D     		ldrb	r0, [r0, #20]	@ zero_extendqisi2
 370 0024 9042     		cmp	r0, r2
 371 0026 32D9     		bls	.L38
 372              		.loc 1 63 5 discriminator 4 view .LVU106
  64:../switch_sdk/core/yt/yt_vlan_translate.c ****     CMM_PARAM_CHK((NULL == pEnable), CMM_ERR_NULL_POINT);
 373              		.loc 1 64 5 discriminator 4 view .LVU107
 374              		.loc 1 64 5 discriminator 4 view .LVU108
 375 0028 002B     		cmp	r3, #0
 376 002a 3ED0     		beq	.L49
 377              		.loc 1 64 5 discriminator 2 view .LVU109
  65:../switch_sdk/core/yt/yt_vlan_translate.c ****     CMM_PARAM_CHK((VLAN_TYPE_SVLAN < type || VLAN_TYPE_CVLAN > type), CMM_ERR_INPUT);
 378              		.loc 1 65 5 discriminator 2 view .LVU110
 379              		.loc 1 65 5 discriminator 2 view .LVU111
 380 002c 0129     		cmp	r1, #1
 381 002e 4AD8     		bhi	.L50
 382              		.loc 1 65 5 discriminator 2 view .LVU112
  66:../switch_sdk/core/yt/yt_vlan_translate.c **** 
  67:../switch_sdk/core/yt/yt_vlan_translate.c ****     return YT_DISPATCH(unit)->vlan_trans_untagPvidIgnore_get(unit, type, port, pEnable);
 383              		.loc 1 67 5 discriminator 2 view .LVU113
 384              		.loc 1 67 29 is_stmt 0 discriminator 2 view .LVU114
 385 0030 D4F8A040 		ldr	r4, [r4, #160]
 386              		.loc 1 67 12 discriminator 2 view .LVU115
 387 0034 6046     		mov	r0, ip
 388 0036 A047     		blx	r4
 389              	.LVL48:
 390              		.loc 1 67 12 discriminator 2 view .LVU116
 391 0038 04E0     		b	.L30
 392              	.LVL49:
 393              	.L46:
  60:../switch_sdk/core/yt/yt_vlan_translate.c ****     CMM_PARAM_CHK(NULL == YT_DISPATCH(unit), CMM_ERR_NOT_INIT);
 394              		.loc 1 60 5 is_stmt 1 discriminator 1 view .LVU117
  60:../switch_sdk/core/yt/yt_vlan_translate.c ****     CMM_PARAM_CHK(NULL == YT_DISPATCH(unit), CMM_ERR_NOT_INIT);
 395              		.loc 1 60 5 discriminator 1 view .LVU118
 396 003a 2D4B     		ldr	r3, .L57+12
 397              	.LVL50:
  60:../switch_sdk/core/yt/yt_vlan_translate.c ****     CMM_PARAM_CHK(NULL == YT_DISPATCH(unit), CMM_ERR_NOT_INIT);
 398              		.loc 1 60 5 is_stmt 0 discriminator 1 view .LVU119
 399 003c 1B78     		ldrb	r3, [r3]	@ zero_extendqisi2
 400 003e 012B     		cmp	r3, #1
 401 0040 01D8     		bhi	.L51
 402              	.LVL51:
 403              	.L32:
  60:../switch_sdk/core/yt/yt_vlan_translate.c ****     CMM_PARAM_CHK(NULL == YT_DISPATCH(unit), CMM_ERR_NOT_INIT);
 404              		.loc 1 60 5 is_stmt 1 discriminator 5 view .LVU120
  60:../switch_sdk/core/yt/yt_vlan_translate.c ****     CMM_PARAM_CHK(NULL == YT_DISPATCH(unit), CMM_ERR_NOT_INIT);
 405              		.loc 1 60 5 discriminator 5 view .LVU121
  60:../switch_sdk/core/yt/yt_vlan_translate.c ****     CMM_PARAM_CHK(NULL == YT_DISPATCH(unit), CMM_ERR_NOT_INIT);
 406              		.loc 1 60 5 discriminator 5 view .LVU122
 407 0042 0520     		movs	r0, #5
 408              	.L30:
  68:../switch_sdk/core/yt/yt_vlan_translate.c **** }
 409              		.loc 1 68 1 is_stmt 0 view .LVU123
 410 0044 10BD     		pop	{r4, pc}
 411              	.LVL52:
 412              	.L51:
  60:../switch_sdk/core/yt/yt_vlan_translate.c ****     CMM_PARAM_CHK(NULL == YT_DISPATCH(unit), CMM_ERR_NOT_INIT);
 413              		.loc 1 60 5 is_stmt 1 discriminator 3 view .LVU124
 414              	.LBB8:
  60:../switch_sdk/core/yt/yt_vlan_translate.c ****     CMM_PARAM_CHK(NULL == YT_DISPATCH(unit), CMM_ERR_NOT_INIT);
 415              		.loc 1 60 5 discriminator 3 view .LVU125
 416 0046 2B4B     		ldr	r3, .L57+16
 417 0048 5A69     		ldr	r2, [r3, #20]
 418              	.LVL53:
  60:../switch_sdk/core/yt/yt_vlan_translate.c ****     CMM_PARAM_CHK(NULL == YT_DISPATCH(unit), CMM_ERR_NOT_INIT);
 419              		.loc 1 60 5 is_stmt 0 discriminator 3 view .LVU126
 420 004a 2B4B     		ldr	r3, .L57+20
 421 004c 9968     		ldr	r1, [r3, #8]
 422              	.LVL54:
  60:../switch_sdk/core/yt/yt_vlan_translate.c ****     CMM_PARAM_CHK(NULL == YT_DISPATCH(unit), CMM_ERR_NOT_INIT);
 423              		.loc 1 60 5 discriminator 3 view .LVU127
 424 004e 2B48     		ldr	r0, .L57+24
 425              	.LVL55:
  60:../switch_sdk/core/yt/yt_vlan_translate.c ****     CMM_PARAM_CHK(NULL == YT_DISPATCH(unit), CMM_ERR_NOT_INIT);
 426              		.loc 1 60 5 discriminator 3 view .LVU128
 427 0050 FFF7FEFF 		bl	osal_printf
 428              	.LVL56:
 429 0054 F5E7     		b	.L32
 430              	.LVL57:
 431              	.L47:
  60:../switch_sdk/core/yt/yt_vlan_translate.c ****     CMM_PARAM_CHK(NULL == YT_DISPATCH(unit), CMM_ERR_NOT_INIT);
 432              		.loc 1 60 5 discriminator 3 view .LVU129
 433              	.LBE8:
  61:../switch_sdk/core/yt/yt_vlan_translate.c ****     CMM_PARAM_CHK((!(YT_DISPATCH(unit)->is_inited)), CMM_ERR_NOT_INIT);
 434              		.loc 1 61 5 is_stmt 1 discriminator 1 view .LVU130
  61:../switch_sdk/core/yt/yt_vlan_translate.c ****     CMM_PARAM_CHK((!(YT_DISPATCH(unit)->is_inited)), CMM_ERR_NOT_INIT);
 435              		.loc 1 61 5 discriminator 1 view .LVU131
 436 0056 264B     		ldr	r3, .L57+12
 437              	.LVL58:
  61:../switch_sdk/core/yt/yt_vlan_translate.c ****     CMM_PARAM_CHK((!(YT_DISPATCH(unit)->is_inited)), CMM_ERR_NOT_INIT);
 438              		.loc 1 61 5 is_stmt 0 discriminator 1 view .LVU132
 439 0058 1B78     		ldrb	r3, [r3]	@ zero_extendqisi2
 440 005a 012B     		cmp	r3, #1
 441 005c 01D8     		bhi	.L52
 442              	.LVL59:
 443              	.L35:
  61:../switch_sdk/core/yt/yt_vlan_translate.c ****     CMM_PARAM_CHK((!(YT_DISPATCH(unit)->is_inited)), CMM_ERR_NOT_INIT);
 444              		.loc 1 61 5 is_stmt 1 discriminator 5 view .LVU133
  61:../switch_sdk/core/yt/yt_vlan_translate.c ****     CMM_PARAM_CHK((!(YT_DISPATCH(unit)->is_inited)), CMM_ERR_NOT_INIT);
 445              		.loc 1 61 5 discriminator 5 view .LVU134
  61:../switch_sdk/core/yt/yt_vlan_translate.c ****     CMM_PARAM_CHK((!(YT_DISPATCH(unit)->is_inited)), CMM_ERR_NOT_INIT);
 446              		.loc 1 61 5 discriminator 5 view .LVU135
 447 005e 0420     		movs	r0, #4
 448 0060 F0E7     		b	.L30
 449              	.LVL60:
 450              	.L52:
  61:../switch_sdk/core/yt/yt_vlan_translate.c ****     CMM_PARAM_CHK((!(YT_DISPATCH(unit)->is_inited)), CMM_ERR_NOT_INIT);
 451              		.loc 1 61 5 discriminator 3 view .LVU136
 452              	.LBB9:
  61:../switch_sdk/core/yt/yt_vlan_translate.c ****     CMM_PARAM_CHK((!(YT_DISPATCH(unit)->is_inited)), CMM_ERR_NOT_INIT);
 453              		.loc 1 61 5 discriminator 3 view .LVU137
 454 0062 244B     		ldr	r3, .L57+16
 455 0064 1A69     		ldr	r2, [r3, #16]
 456              	.LVL61:
  61:../switch_sdk/core/yt/yt_vlan_translate.c ****     CMM_PARAM_CHK((!(YT_DISPATCH(unit)->is_inited)), CMM_ERR_NOT_INIT);
 457              		.loc 1 61 5 is_stmt 0 discriminator 3 view .LVU138
 458 0066 244B     		ldr	r3, .L57+20
 459 0068 9968     		ldr	r1, [r3, #8]
 460              	.LVL62:
  61:../switch_sdk/core/yt/yt_vlan_translate.c ****     CMM_PARAM_CHK((!(YT_DISPATCH(unit)->is_inited)), CMM_ERR_NOT_INIT);
 461              		.loc 1 61 5 discriminator 3 view .LVU139
 462 006a 2448     		ldr	r0, .L57+24
 463 006c FFF7FEFF 		bl	osal_printf
 464              	.LVL63:
 465 0070 F5E7     		b	.L35
 466              	.LVL64:
 467              	.L48:
  61:../switch_sdk/core/yt/yt_vlan_translate.c ****     CMM_PARAM_CHK((!(YT_DISPATCH(unit)->is_inited)), CMM_ERR_NOT_INIT);
 468              		.loc 1 61 5 discriminator 3 view .LVU140
 469              	.LBE9:
  62:../switch_sdk/core/yt/yt_vlan_translate.c ****     CMM_PARAM_CHK((!(CMM_PORT_VALID(unit, port))), CMM_ERR_PORT);
 470              		.loc 1 62 5 is_stmt 1 discriminator 1 view .LVU141
  62:../switch_sdk/core/yt/yt_vlan_translate.c ****     CMM_PARAM_CHK((!(CMM_PORT_VALID(unit, port))), CMM_ERR_PORT);
 471              		.loc 1 62 5 discriminator 1 view .LVU142
 472 0072 1F4B     		ldr	r3, .L57+12
 473              	.LVL65:
  62:../switch_sdk/core/yt/yt_vlan_translate.c ****     CMM_PARAM_CHK((!(CMM_PORT_VALID(unit, port))), CMM_ERR_PORT);
 474              		.loc 1 62 5 is_stmt 0 discriminator 1 view .LVU143
 475 0074 1B78     		ldrb	r3, [r3]	@ zero_extendqisi2
 476 0076 012B     		cmp	r3, #1
 477 0078 01D8     		bhi	.L53
 478              	.LVL66:
 479              	.L37:
  62:../switch_sdk/core/yt/yt_vlan_translate.c ****     CMM_PARAM_CHK((!(CMM_PORT_VALID(unit, port))), CMM_ERR_PORT);
 480              		.loc 1 62 5 is_stmt 1 discriminator 5 view .LVU144
  62:../switch_sdk/core/yt/yt_vlan_translate.c ****     CMM_PARAM_CHK((!(CMM_PORT_VALID(unit, port))), CMM_ERR_PORT);
 481              		.loc 1 62 5 discriminator 5 view .LVU145
  62:../switch_sdk/core/yt/yt_vlan_translate.c ****     CMM_PARAM_CHK((!(CMM_PORT_VALID(unit, port))), CMM_ERR_PORT);
 482              		.loc 1 62 5 discriminator 5 view .LVU146
 483 007a 0420     		movs	r0, #4
 484 007c E2E7     		b	.L30
 485              	.LVL67:
 486              	.L53:
  62:../switch_sdk/core/yt/yt_vlan_translate.c ****     CMM_PARAM_CHK((!(CMM_PORT_VALID(unit, port))), CMM_ERR_PORT);
 487              		.loc 1 62 5 discriminator 3 view .LVU147
 488              	.LBB10:
  62:../switch_sdk/core/yt/yt_vlan_translate.c ****     CMM_PARAM_CHK((!(CMM_PORT_VALID(unit, port))), CMM_ERR_PORT);
 489              		.loc 1 62 5 discriminator 3 view .LVU148
 490 007e 1D4B     		ldr	r3, .L57+16
 491 0080 1A69     		ldr	r2, [r3, #16]
 492              	.LVL68:
  62:../switch_sdk/core/yt/yt_vlan_translate.c ****     CMM_PARAM_CHK((!(CMM_PORT_VALID(unit, port))), CMM_ERR_PORT);
 493              		.loc 1 62 5 is_stmt 0 discriminator 3 view .LVU149
 494 0082 1D4B     		ldr	r3, .L57+20
 495 0084 9968     		ldr	r1, [r3, #8]
 496              	.LVL69:
  62:../switch_sdk/core/yt/yt_vlan_translate.c ****     CMM_PARAM_CHK((!(CMM_PORT_VALID(unit, port))), CMM_ERR_PORT);
 497              		.loc 1 62 5 discriminator 3 view .LVU150
 498 0086 1D48     		ldr	r0, .L57+24
 499 0088 FFF7FEFF 		bl	osal_printf
 500              	.LVL70:
 501 008c F5E7     		b	.L37
 502              	.LVL71:
 503              	.L38:
  62:../switch_sdk/core/yt/yt_vlan_translate.c ****     CMM_PARAM_CHK((!(CMM_PORT_VALID(unit, port))), CMM_ERR_PORT);
 504              		.loc 1 62 5 discriminator 3 view .LVU151
 505              	.LBE10:
  63:../switch_sdk/core/yt/yt_vlan_translate.c ****     CMM_PARAM_CHK((NULL == pEnable), CMM_ERR_NULL_POINT);
 506              		.loc 1 63 5 is_stmt 1 discriminator 3 view .LVU152
  63:../switch_sdk/core/yt/yt_vlan_translate.c ****     CMM_PARAM_CHK((NULL == pEnable), CMM_ERR_NULL_POINT);
 507              		.loc 1 63 5 discriminator 3 view .LVU153
 508 008e 184B     		ldr	r3, .L57+12
 509              	.LVL72:
  63:../switch_sdk/core/yt/yt_vlan_translate.c ****     CMM_PARAM_CHK((NULL == pEnable), CMM_ERR_NULL_POINT);
 510              		.loc 1 63 5 is_stmt 0 discriminator 3 view .LVU154
 511 0090 1B78     		ldrb	r3, [r3]	@ zero_extendqisi2
 512 0092 012B     		cmp	r3, #1
 513 0094 01D8     		bhi	.L54
 514              	.LVL73:
 515              	.L40:
  63:../switch_sdk/core/yt/yt_vlan_translate.c ****     CMM_PARAM_CHK((NULL == pEnable), CMM_ERR_NULL_POINT);
 516              		.loc 1 63 5 is_stmt 1 discriminator 7 view .LVU155
  63:../switch_sdk/core/yt/yt_vlan_translate.c ****     CMM_PARAM_CHK((NULL == pEnable), CMM_ERR_NULL_POINT);
 517              		.loc 1 63 5 discriminator 7 view .LVU156
  63:../switch_sdk/core/yt/yt_vlan_translate.c ****     CMM_PARAM_CHK((NULL == pEnable), CMM_ERR_NULL_POINT);
 518              		.loc 1 63 5 discriminator 7 view .LVU157
 519 0096 0E20     		movs	r0, #14
 520 0098 D4E7     		b	.L30
 521              	.LVL74:
 522              	.L54:
  63:../switch_sdk/core/yt/yt_vlan_translate.c ****     CMM_PARAM_CHK((NULL == pEnable), CMM_ERR_NULL_POINT);
 523              		.loc 1 63 5 discriminator 5 view .LVU158
 524              	.LBB11:
  63:../switch_sdk/core/yt/yt_vlan_translate.c ****     CMM_PARAM_CHK((NULL == pEnable), CMM_ERR_NULL_POINT);
 525              		.loc 1 63 5 discriminator 5 view .LVU159
 526 009a 164B     		ldr	r3, .L57+16
 527 009c 9A6B     		ldr	r2, [r3, #56]
 528              	.LVL75:
  63:../switch_sdk/core/yt/yt_vlan_translate.c ****     CMM_PARAM_CHK((NULL == pEnable), CMM_ERR_NULL_POINT);
 529              		.loc 1 63 5 is_stmt 0 discriminator 5 view .LVU160
 530 009e 164B     		ldr	r3, .L57+20
 531 00a0 9968     		ldr	r1, [r3, #8]
 532              	.LVL76:
  63:../switch_sdk/core/yt/yt_vlan_translate.c ****     CMM_PARAM_CHK((NULL == pEnable), CMM_ERR_NULL_POINT);
 533              		.loc 1 63 5 discriminator 5 view .LVU161
 534 00a2 1648     		ldr	r0, .L57+24
 535 00a4 FFF7FEFF 		bl	osal_printf
 536              	.LVL77:
 537 00a8 F5E7     		b	.L40
 538              	.LVL78:
 539              	.L49:
  63:../switch_sdk/core/yt/yt_vlan_translate.c ****     CMM_PARAM_CHK((NULL == pEnable), CMM_ERR_NULL_POINT);
 540              		.loc 1 63 5 discriminator 5 view .LVU162
 541              	.LBE11:
  64:../switch_sdk/core/yt/yt_vlan_translate.c ****     CMM_PARAM_CHK((VLAN_TYPE_SVLAN < type || VLAN_TYPE_CVLAN > type), CMM_ERR_INPUT);
 542              		.loc 1 64 5 is_stmt 1 discriminator 1 view .LVU163
  64:../switch_sdk/core/yt/yt_vlan_translate.c ****     CMM_PARAM_CHK((VLAN_TYPE_SVLAN < type || VLAN_TYPE_CVLAN > type), CMM_ERR_INPUT);
 543              		.loc 1 64 5 discriminator 1 view .LVU164
 544 00aa 114B     		ldr	r3, .L57+12
 545              	.LVL79:
  64:../switch_sdk/core/yt/yt_vlan_translate.c ****     CMM_PARAM_CHK((VLAN_TYPE_SVLAN < type || VLAN_TYPE_CVLAN > type), CMM_ERR_INPUT);
 546              		.loc 1 64 5 is_stmt 0 discriminator 1 view .LVU165
 547 00ac 1B78     		ldrb	r3, [r3]	@ zero_extendqisi2
 548 00ae 012B     		cmp	r3, #1
 549 00b0 01D8     		bhi	.L55
 550              	.LVL80:
 551              	.L42:
  64:../switch_sdk/core/yt/yt_vlan_translate.c ****     CMM_PARAM_CHK((VLAN_TYPE_SVLAN < type || VLAN_TYPE_CVLAN > type), CMM_ERR_INPUT);
 552              		.loc 1 64 5 is_stmt 1 discriminator 5 view .LVU166
  64:../switch_sdk/core/yt/yt_vlan_translate.c ****     CMM_PARAM_CHK((VLAN_TYPE_SVLAN < type || VLAN_TYPE_CVLAN > type), CMM_ERR_INPUT);
 553              		.loc 1 64 5 discriminator 5 view .LVU167
  64:../switch_sdk/core/yt/yt_vlan_translate.c ****     CMM_PARAM_CHK((VLAN_TYPE_SVLAN < type || VLAN_TYPE_CVLAN > type), CMM_ERR_INPUT);
 554              		.loc 1 64 5 discriminator 5 view .LVU168
 555 00b2 0220     		movs	r0, #2
 556 00b4 C6E7     		b	.L30
 557              	.LVL81:
 558              	.L55:
  64:../switch_sdk/core/yt/yt_vlan_translate.c ****     CMM_PARAM_CHK((VLAN_TYPE_SVLAN < type || VLAN_TYPE_CVLAN > type), CMM_ERR_INPUT);
 559              		.loc 1 64 5 discriminator 3 view .LVU169
 560              	.LBB12:
  64:../switch_sdk/core/yt/yt_vlan_translate.c ****     CMM_PARAM_CHK((VLAN_TYPE_SVLAN < type || VLAN_TYPE_CVLAN > type), CMM_ERR_INPUT);
 561              		.loc 1 64 5 discriminator 3 view .LVU170
 562 00b6 0F4B     		ldr	r3, .L57+16
 563 00b8 9A68     		ldr	r2, [r3, #8]
 564              	.LVL82:
  64:../switch_sdk/core/yt/yt_vlan_translate.c ****     CMM_PARAM_CHK((VLAN_TYPE_SVLAN < type || VLAN_TYPE_CVLAN > type), CMM_ERR_INPUT);
 565              		.loc 1 64 5 is_stmt 0 discriminator 3 view .LVU171
 566 00ba 0F4B     		ldr	r3, .L57+20
 567 00bc 9968     		ldr	r1, [r3, #8]
 568              	.LVL83:
  64:../switch_sdk/core/yt/yt_vlan_translate.c ****     CMM_PARAM_CHK((VLAN_TYPE_SVLAN < type || VLAN_TYPE_CVLAN > type), CMM_ERR_INPUT);
 569              		.loc 1 64 5 discriminator 3 view .LVU172
 570 00be 0F48     		ldr	r0, .L57+24
 571 00c0 FFF7FEFF 		bl	osal_printf
 572              	.LVL84:
 573 00c4 F5E7     		b	.L42
 574              	.LVL85:
 575              	.L50:
  64:../switch_sdk/core/yt/yt_vlan_translate.c ****     CMM_PARAM_CHK((VLAN_TYPE_SVLAN < type || VLAN_TYPE_CVLAN > type), CMM_ERR_INPUT);
 576              		.loc 1 64 5 discriminator 3 view .LVU173
 577              	.LBE12:
  65:../switch_sdk/core/yt/yt_vlan_translate.c **** 
 578              		.loc 1 65 5 is_stmt 1 discriminator 1 view .LVU174
  65:../switch_sdk/core/yt/yt_vlan_translate.c **** 
 579              		.loc 1 65 5 discriminator 1 view .LVU175
 580 00c6 0A4B     		ldr	r3, .L57+12
 581              	.LVL86:
  65:../switch_sdk/core/yt/yt_vlan_translate.c **** 
 582              		.loc 1 65 5 is_stmt 0 discriminator 1 view .LVU176
 583 00c8 1B78     		ldrb	r3, [r3]	@ zero_extendqisi2
 584 00ca 012B     		cmp	r3, #1
 585 00cc 01D8     		bhi	.L56
 586              	.LVL87:
 587              	.L44:
  65:../switch_sdk/core/yt/yt_vlan_translate.c **** 
 588              		.loc 1 65 5 is_stmt 1 discriminator 5 view .LVU177
  65:../switch_sdk/core/yt/yt_vlan_translate.c **** 
 589              		.loc 1 65 5 discriminator 5 view .LVU178
  65:../switch_sdk/core/yt/yt_vlan_translate.c **** 
 590              		.loc 1 65 5 discriminator 5 view .LVU179
 591 00ce 0520     		movs	r0, #5
 592 00d0 B8E7     		b	.L30
 593              	.LVL88:
 594              	.L56:
  65:../switch_sdk/core/yt/yt_vlan_translate.c **** 
 595              		.loc 1 65 5 discriminator 3 view .LVU180
 596              	.LBB13:
  65:../switch_sdk/core/yt/yt_vlan_translate.c **** 
 597              		.loc 1 65 5 discriminator 3 view .LVU181
 598 00d2 084B     		ldr	r3, .L57+16
 599 00d4 5A69     		ldr	r2, [r3, #20]
 600              	.LVL89:
  65:../switch_sdk/core/yt/yt_vlan_translate.c **** 
 601              		.loc 1 65 5 is_stmt 0 discriminator 3 view .LVU182
 602 00d6 084B     		ldr	r3, .L57+20
 603 00d8 9968     		ldr	r1, [r3, #8]
 604              	.LVL90:
  65:../switch_sdk/core/yt/yt_vlan_translate.c **** 
 605              		.loc 1 65 5 discriminator 3 view .LVU183
 606 00da 0848     		ldr	r0, .L57+24
 607 00dc FFF7FEFF 		bl	osal_printf
 608              	.LVL91:
 609 00e0 F5E7     		b	.L44
 610              	.L58:
 611 00e2 00BF     		.align	2
 612              	.L57:
 613 00e4 00000000 		.word	gpfal_dispatch
 614 00e8 00000000 		.word	gcal_inited
 615 00ec 00000000 		.word	gpSwitchUnit
 616 00f0 00000000 		.word	yt_debug_level
 617 00f4 00000000 		.word	_yt_errmsg
 618 00f8 00000000 		.word	_yt_prompt_msg
 619 00fc 00000000 		.word	.LC0
 620              	.LBE13:
 621              		.cfi_endproc
 622              	.LFE4:
 624              		.section	.text.yt_vlan_trans_rangeProfile_add,"ax",%progbits
 625              		.align	1
 626              		.global	yt_vlan_trans_rangeProfile_add
 627              		.syntax unified
 628              		.thumb
 629              		.thumb_func
 631              	yt_vlan_trans_rangeProfile_add:
 632              	.LVL92:
 633              	.LFB5:
  69:../switch_sdk/core/yt/yt_vlan_translate.c **** 
  70:../switch_sdk/core/yt/yt_vlan_translate.c **** /**
  71:../switch_sdk/core/yt/yt_vlan_translate.c ****  * @internal      yt_vlan_trans_rangeProfile_add
  72:../switch_sdk/core/yt/yt_vlan_translate.c ****  * @endinternal
  73:../switch_sdk/core/yt/yt_vlan_translate.c ****  *
  74:../switch_sdk/core/yt/yt_vlan_translate.c ****  * @brief         Add vlan translate range profile
  75:../switch_sdk/core/yt/yt_vlan_translate.c ****  * @note          APPLICABLE DEVICES  -Tiger
  76:../switch_sdk/core/yt/yt_vlan_translate.c ****  * @param[in]     unit                -unit id
  77:../switch_sdk/core/yt/yt_vlan_translate.c ****  * @param[in]     vlan_range          -ingress vlan translate profile group info, one of them shoul
  78:../switch_sdk/core/yt/yt_vlan_translate.c ****  * @param[out]     pProfile_id         -ingress vlan range profile index
  79:../switch_sdk/core/yt/yt_vlan_translate.c ****  * @retval        CMM_ERR_OK          -on success
  80:../switch_sdk/core/yt/yt_vlan_translate.c ****  * @retval        CMM_ERR_FAIL        -on fail
  81:../switch_sdk/core/yt/yt_vlan_translate.c ****  */
  82:../switch_sdk/core/yt/yt_vlan_translate.c **** yt_ret_t  yt_vlan_trans_rangeProfile_add(yt_unit_t unit, yt_vlan_range_group_t vlan_range, yt_profi
  83:../switch_sdk/core/yt/yt_vlan_translate.c **** {
 634              		.loc 1 83 1 is_stmt 1 view -0
 635              		.cfi_startproc
 636              		@ args = 24, pretend = 16, frame = 0
 637              		@ frame_needed = 0, uses_anonymous_args = 0
 638              		.loc 1 83 1 is_stmt 0 view .LVU185
 639 0000 84B0     		sub	sp, sp, #16
 640              		.cfi_def_cfa_offset 16
 641 0002 10B5     		push	{r4, lr}
 642              		.cfi_def_cfa_offset 24
 643              		.cfi_offset 4, -24
 644              		.cfi_offset 14, -20
 645 0004 82B0     		sub	sp, sp, #8
 646              		.cfi_def_cfa_offset 32
 647 0006 0DF1140C 		add	ip, sp, #20
 648 000a 8CE80E00 		stm	ip, {r1, r2, r3}
  84:../switch_sdk/core/yt/yt_vlan_translate.c ****     CMM_PARAM_CHK((YT_UNIT_NUM <= unit), CMM_ERR_INPUT);
 649              		.loc 1 84 5 is_stmt 1 view .LVU186
 650              		.loc 1 84 5 view .LVU187
 651 000e 0028     		cmp	r0, #0
 652 0010 36D1     		bne	.L76
 653 0012 8446     		mov	ip, r0
 654              		.loc 1 84 5 discriminator 2 view .LVU188
  85:../switch_sdk/core/yt/yt_vlan_translate.c ****     CMM_PARAM_CHK(NULL == YT_DISPATCH(unit), CMM_ERR_NOT_INIT);
 655              		.loc 1 85 5 discriminator 2 view .LVU189
 656              		.loc 1 85 5 discriminator 2 view .LVU190
 657 0014 464B     		ldr	r3, .L86
 658 0016 53F82030 		ldr	r3, [r3, r0, lsl #2]
 659 001a 002B     		cmp	r3, #0
 660 001c 3ED0     		beq	.L77
 661              		.loc 1 85 5 discriminator 2 view .LVU191
  86:../switch_sdk/core/yt/yt_vlan_translate.c ****     CMM_PARAM_CHK((!(YT_DISPATCH(unit)->is_inited)), CMM_ERR_NOT_INIT);
 662              		.loc 1 86 5 discriminator 2 view .LVU192
 663              		.loc 1 86 5 discriminator 2 view .LVU193
 664 001e 1A78     		ldrb	r2, [r3]	@ zero_extendqisi2
 665 0020 002A     		cmp	r2, #0
 666 0022 49D0     		beq	.L78
 667              		.loc 1 86 5 discriminator 2 view .LVU194
  87:../switch_sdk/core/yt/yt_vlan_translate.c ****     CMM_PARAM_CHK((NULL == pProfile_id), CMM_ERR_NULL_POINT);
 668              		.loc 1 87 5 discriminator 2 view .LVU195
 669              		.loc 1 87 5 discriminator 2 view .LVU196
 670 0024 099A     		ldr	r2, [sp, #36]
 671 0026 002A     		cmp	r2, #0
 672 0028 54D0     		beq	.L79
 673              		.loc 1 87 5 discriminator 2 view .LVU197
  88:../switch_sdk/core/yt/yt_vlan_translate.c ****     CMM_PARAM_CHK((YT_VLAN_ID_MAX < vlan_range.vid_range0_max ||
 674              		.loc 1 88 5 discriminator 2 view .LVU198
 675              		.loc 1 88 5 discriminator 2 view .LVU199
 676 002a BDF81620 		ldrh	r2, [sp, #22]
 677 002e B2F5805F 		cmp	r2, #4096
 678 0032 5DD2     		bcs	.L69
 679 0034 BDF81A20 		ldrh	r2, [sp, #26]
 680 0038 B2F5805F 		cmp	r2, #4096
 681 003c 58D2     		bcs	.L69
 682              		.loc 1 88 5 is_stmt 0 discriminator 4 view .LVU200
 683 003e BDF81E10 		ldrh	r1, [sp, #30]
 684 0042 B1F5805F 		cmp	r1, #4096
 685 0046 53D2     		bcs	.L69
 686              		.loc 1 88 5 discriminator 6 view .LVU201
 687 0048 BDF82200 		ldrh	r0, [sp, #34]
 688              	.LVL93:
 689              		.loc 1 88 5 discriminator 6 view .LVU202
 690 004c B0F5805F 		cmp	r0, #4096
 691 0050 4ED2     		bcs	.L69
 692              		.loc 1 88 5 is_stmt 1 discriminator 8 view .LVU203
  89:../switch_sdk/core/yt/yt_vlan_translate.c ****         YT_VLAN_ID_MAX < vlan_range.vid_range1_max ||
  90:../switch_sdk/core/yt/yt_vlan_translate.c ****         YT_VLAN_ID_MAX < vlan_range.vid_range2_max ||
  91:../switch_sdk/core/yt/yt_vlan_translate.c ****         YT_VLAN_ID_MAX < vlan_range.vid_range3_max), CMM_ERR_EXCEED_RANGE);
  92:../switch_sdk/core/yt/yt_vlan_translate.c ****     CMM_PARAM_CHK((vlan_range.vid_range0_max < vlan_range.vid_range0_max ||
 693              		.loc 1 92 5 discriminator 8 view .LVU204
 694              		.loc 1 92 5 discriminator 8 view .LVU205
 695 0052 BDF818E0 		ldrh	lr, [sp, #24]
 696 0056 7245     		cmp	r2, lr
 697 0058 5CD3     		bcc	.L72
 698              		.loc 1 92 5 is_stmt 0 discriminator 2 view .LVU206
 699 005a BDF81C20 		ldrh	r2, [sp, #28]
 700 005e 9142     		cmp	r1, r2
 701 0060 58D3     		bcc	.L72
 702              		.loc 1 92 5 discriminator 4 view .LVU207
 703 0062 BDF82020 		ldrh	r2, [sp, #32]
 704 0066 9042     		cmp	r0, r2
 705 0068 54D3     		bcc	.L72
 706              		.loc 1 92 5 is_stmt 1 discriminator 6 view .LVU208
  93:../switch_sdk/core/yt/yt_vlan_translate.c ****         vlan_range.vid_range1_max < vlan_range.vid_range1_min ||
  94:../switch_sdk/core/yt/yt_vlan_translate.c ****         vlan_range.vid_range2_max < vlan_range.vid_range2_min ||
  95:../switch_sdk/core/yt/yt_vlan_translate.c ****         vlan_range.vid_range3_max < vlan_range.vid_range3_min), CMM_ERR_INPUT);
  96:../switch_sdk/core/yt/yt_vlan_translate.c **** 
  97:../switch_sdk/core/yt/yt_vlan_translate.c ****     return YT_DISPATCH(unit)->vlan_trans_rangeProfile_add(unit, vlan_range, pProfile_id);
 707              		.loc 1 97 5 discriminator 6 view .LVU209
 708              		.loc 1 97 29 is_stmt 0 discriminator 6 view .LVU210
 709 006a D3F8A440 		ldr	r4, [r3, #164]
 710              		.loc 1 97 12 discriminator 6 view .LVU211
 711 006e 099B     		ldr	r3, [sp, #36]
 712 0070 0193     		str	r3, [sp, #4]
 713 0072 089B     		ldr	r3, [sp, #32]
 714 0074 0093     		str	r3, [sp]
 715 0076 05AB     		add	r3, sp, #20
 716 0078 0ECB     		ldm	r3, {r1, r2, r3}
 717 007a 6046     		mov	r0, ip
 718 007c A047     		blx	r4
 719              	.LVL94:
 720 007e 3CE0     		b	.L59
 721              	.LVL95:
 722              	.L76:
  84:../switch_sdk/core/yt/yt_vlan_translate.c ****     CMM_PARAM_CHK(NULL == YT_DISPATCH(unit), CMM_ERR_NOT_INIT);
 723              		.loc 1 84 5 is_stmt 1 discriminator 1 view .LVU212
  84:../switch_sdk/core/yt/yt_vlan_translate.c ****     CMM_PARAM_CHK(NULL == YT_DISPATCH(unit), CMM_ERR_NOT_INIT);
 724              		.loc 1 84 5 discriminator 1 view .LVU213
 725 0080 2C4B     		ldr	r3, .L86+4
 726 0082 1B78     		ldrb	r3, [r3]	@ zero_extendqisi2
 727 0084 012B     		cmp	r3, #1
 728 0086 01D8     		bhi	.L80
 729              	.LVL96:
 730              	.L61:
  84:../switch_sdk/core/yt/yt_vlan_translate.c ****     CMM_PARAM_CHK(NULL == YT_DISPATCH(unit), CMM_ERR_NOT_INIT);
 731              		.loc 1 84 5 discriminator 5 view .LVU214
  84:../switch_sdk/core/yt/yt_vlan_translate.c ****     CMM_PARAM_CHK(NULL == YT_DISPATCH(unit), CMM_ERR_NOT_INIT);
 732              		.loc 1 84 5 discriminator 5 view .LVU215
  84:../switch_sdk/core/yt/yt_vlan_translate.c ****     CMM_PARAM_CHK(NULL == YT_DISPATCH(unit), CMM_ERR_NOT_INIT);
 733              		.loc 1 84 5 discriminator 5 view .LVU216
 734 0088 0520     		movs	r0, #5
 735 008a 36E0     		b	.L59
 736              	.LVL97:
 737              	.L80:
  84:../switch_sdk/core/yt/yt_vlan_translate.c ****     CMM_PARAM_CHK(NULL == YT_DISPATCH(unit), CMM_ERR_NOT_INIT);
 738              		.loc 1 84 5 discriminator 3 view .LVU217
 739              	.LBB14:
  84:../switch_sdk/core/yt/yt_vlan_translate.c ****     CMM_PARAM_CHK(NULL == YT_DISPATCH(unit), CMM_ERR_NOT_INIT);
 740              		.loc 1 84 5 discriminator 3 view .LVU218
 741 008c 2A4B     		ldr	r3, .L86+8
 742 008e 5A69     		ldr	r2, [r3, #20]
 743 0090 2A4B     		ldr	r3, .L86+12
 744 0092 9968     		ldr	r1, [r3, #8]
 745 0094 2A48     		ldr	r0, .L86+16
 746              	.LVL98:
  84:../switch_sdk/core/yt/yt_vlan_translate.c ****     CMM_PARAM_CHK(NULL == YT_DISPATCH(unit), CMM_ERR_NOT_INIT);
 747              		.loc 1 84 5 is_stmt 0 discriminator 3 view .LVU219
 748 0096 FFF7FEFF 		bl	osal_printf
 749              	.LVL99:
 750 009a F5E7     		b	.L61
 751              	.LVL100:
 752              	.L77:
  84:../switch_sdk/core/yt/yt_vlan_translate.c ****     CMM_PARAM_CHK(NULL == YT_DISPATCH(unit), CMM_ERR_NOT_INIT);
 753              		.loc 1 84 5 discriminator 3 view .LVU220
 754              	.LBE14:
  85:../switch_sdk/core/yt/yt_vlan_translate.c ****     CMM_PARAM_CHK((!(YT_DISPATCH(unit)->is_inited)), CMM_ERR_NOT_INIT);
 755              		.loc 1 85 5 is_stmt 1 discriminator 1 view .LVU221
  85:../switch_sdk/core/yt/yt_vlan_translate.c ****     CMM_PARAM_CHK((!(YT_DISPATCH(unit)->is_inited)), CMM_ERR_NOT_INIT);
 756              		.loc 1 85 5 discriminator 1 view .LVU222
 757 009c 254B     		ldr	r3, .L86+4
 758 009e 1B78     		ldrb	r3, [r3]	@ zero_extendqisi2
 759 00a0 012B     		cmp	r3, #1
 760 00a2 01D8     		bhi	.L81
 761              	.LVL101:
 762              	.L64:
  85:../switch_sdk/core/yt/yt_vlan_translate.c ****     CMM_PARAM_CHK((!(YT_DISPATCH(unit)->is_inited)), CMM_ERR_NOT_INIT);
 763              		.loc 1 85 5 discriminator 5 view .LVU223
  85:../switch_sdk/core/yt/yt_vlan_translate.c ****     CMM_PARAM_CHK((!(YT_DISPATCH(unit)->is_inited)), CMM_ERR_NOT_INIT);
 764              		.loc 1 85 5 discriminator 5 view .LVU224
  85:../switch_sdk/core/yt/yt_vlan_translate.c ****     CMM_PARAM_CHK((!(YT_DISPATCH(unit)->is_inited)), CMM_ERR_NOT_INIT);
 765              		.loc 1 85 5 discriminator 5 view .LVU225
 766 00a4 0420     		movs	r0, #4
 767 00a6 28E0     		b	.L59
 768              	.LVL102:
 769              	.L81:
  85:../switch_sdk/core/yt/yt_vlan_translate.c ****     CMM_PARAM_CHK((!(YT_DISPATCH(unit)->is_inited)), CMM_ERR_NOT_INIT);
 770              		.loc 1 85 5 discriminator 3 view .LVU226
 771              	.LBB15:
  85:../switch_sdk/core/yt/yt_vlan_translate.c ****     CMM_PARAM_CHK((!(YT_DISPATCH(unit)->is_inited)), CMM_ERR_NOT_INIT);
 772              		.loc 1 85 5 discriminator 3 view .LVU227
 773 00a8 234B     		ldr	r3, .L86+8
 774 00aa 1A69     		ldr	r2, [r3, #16]
 775 00ac 234B     		ldr	r3, .L86+12
 776 00ae 9968     		ldr	r1, [r3, #8]
 777 00b0 2348     		ldr	r0, .L86+16
 778              	.LVL103:
  85:../switch_sdk/core/yt/yt_vlan_translate.c ****     CMM_PARAM_CHK((!(YT_DISPATCH(unit)->is_inited)), CMM_ERR_NOT_INIT);
 779              		.loc 1 85 5 is_stmt 0 discriminator 3 view .LVU228
 780 00b2 FFF7FEFF 		bl	osal_printf
 781              	.LVL104:
 782 00b6 F5E7     		b	.L64
 783              	.LVL105:
 784              	.L78:
  85:../switch_sdk/core/yt/yt_vlan_translate.c ****     CMM_PARAM_CHK((!(YT_DISPATCH(unit)->is_inited)), CMM_ERR_NOT_INIT);
 785              		.loc 1 85 5 discriminator 3 view .LVU229
 786              	.LBE15:
  86:../switch_sdk/core/yt/yt_vlan_translate.c ****     CMM_PARAM_CHK((NULL == pProfile_id), CMM_ERR_NULL_POINT);
 787              		.loc 1 86 5 is_stmt 1 discriminator 1 view .LVU230
  86:../switch_sdk/core/yt/yt_vlan_translate.c ****     CMM_PARAM_CHK((NULL == pProfile_id), CMM_ERR_NULL_POINT);
 788              		.loc 1 86 5 discriminator 1 view .LVU231
 789 00b8 1E4B     		ldr	r3, .L86+4
 790 00ba 1B78     		ldrb	r3, [r3]	@ zero_extendqisi2
 791 00bc 012B     		cmp	r3, #1
 792 00be 01D8     		bhi	.L82
 793              	.LVL106:
 794              	.L66:
  86:../switch_sdk/core/yt/yt_vlan_translate.c ****     CMM_PARAM_CHK((NULL == pProfile_id), CMM_ERR_NULL_POINT);
 795              		.loc 1 86 5 discriminator 5 view .LVU232
  86:../switch_sdk/core/yt/yt_vlan_translate.c ****     CMM_PARAM_CHK((NULL == pProfile_id), CMM_ERR_NULL_POINT);
 796              		.loc 1 86 5 discriminator 5 view .LVU233
  86:../switch_sdk/core/yt/yt_vlan_translate.c ****     CMM_PARAM_CHK((NULL == pProfile_id), CMM_ERR_NULL_POINT);
 797              		.loc 1 86 5 discriminator 5 view .LVU234
 798 00c0 0420     		movs	r0, #4
 799 00c2 1AE0     		b	.L59
 800              	.LVL107:
 801              	.L82:
  86:../switch_sdk/core/yt/yt_vlan_translate.c ****     CMM_PARAM_CHK((NULL == pProfile_id), CMM_ERR_NULL_POINT);
 802              		.loc 1 86 5 discriminator 3 view .LVU235
 803              	.LBB16:
  86:../switch_sdk/core/yt/yt_vlan_translate.c ****     CMM_PARAM_CHK((NULL == pProfile_id), CMM_ERR_NULL_POINT);
 804              		.loc 1 86 5 discriminator 3 view .LVU236
 805 00c4 1C4B     		ldr	r3, .L86+8
 806 00c6 1A69     		ldr	r2, [r3, #16]
 807 00c8 1C4B     		ldr	r3, .L86+12
 808 00ca 9968     		ldr	r1, [r3, #8]
 809 00cc 1C48     		ldr	r0, .L86+16
 810              	.LVL108:
  86:../switch_sdk/core/yt/yt_vlan_translate.c ****     CMM_PARAM_CHK((NULL == pProfile_id), CMM_ERR_NULL_POINT);
 811              		.loc 1 86 5 is_stmt 0 discriminator 3 view .LVU237
 812 00ce FFF7FEFF 		bl	osal_printf
 813              	.LVL109:
 814 00d2 F5E7     		b	.L66
 815              	.LVL110:
 816              	.L79:
  86:../switch_sdk/core/yt/yt_vlan_translate.c ****     CMM_PARAM_CHK((NULL == pProfile_id), CMM_ERR_NULL_POINT);
 817              		.loc 1 86 5 discriminator 3 view .LVU238
 818              	.LBE16:
  87:../switch_sdk/core/yt/yt_vlan_translate.c ****     CMM_PARAM_CHK((YT_VLAN_ID_MAX < vlan_range.vid_range0_max ||
 819              		.loc 1 87 5 is_stmt 1 discriminator 1 view .LVU239
  87:../switch_sdk/core/yt/yt_vlan_translate.c ****     CMM_PARAM_CHK((YT_VLAN_ID_MAX < vlan_range.vid_range0_max ||
 820              		.loc 1 87 5 discriminator 1 view .LVU240
 821 00d4 174B     		ldr	r3, .L86+4
 822 00d6 1B78     		ldrb	r3, [r3]	@ zero_extendqisi2
 823 00d8 012B     		cmp	r3, #1
 824 00da 01D8     		bhi	.L83
 825              	.LVL111:
 826              	.L68:
  87:../switch_sdk/core/yt/yt_vlan_translate.c ****     CMM_PARAM_CHK((YT_VLAN_ID_MAX < vlan_range.vid_range0_max ||
 827              		.loc 1 87 5 discriminator 5 view .LVU241
  87:../switch_sdk/core/yt/yt_vlan_translate.c ****     CMM_PARAM_CHK((YT_VLAN_ID_MAX < vlan_range.vid_range0_max ||
 828              		.loc 1 87 5 discriminator 5 view .LVU242
  87:../switch_sdk/core/yt/yt_vlan_translate.c ****     CMM_PARAM_CHK((YT_VLAN_ID_MAX < vlan_range.vid_range0_max ||
 829              		.loc 1 87 5 discriminator 5 view .LVU243
 830 00dc 0220     		movs	r0, #2
 831 00de 0CE0     		b	.L59
 832              	.LVL112:
 833              	.L83:
  87:../switch_sdk/core/yt/yt_vlan_translate.c ****     CMM_PARAM_CHK((YT_VLAN_ID_MAX < vlan_range.vid_range0_max ||
 834              		.loc 1 87 5 discriminator 3 view .LVU244
 835              	.LBB17:
  87:../switch_sdk/core/yt/yt_vlan_translate.c ****     CMM_PARAM_CHK((YT_VLAN_ID_MAX < vlan_range.vid_range0_max ||
 836              		.loc 1 87 5 discriminator 3 view .LVU245
 837 00e0 154B     		ldr	r3, .L86+8
 838 00e2 9A68     		ldr	r2, [r3, #8]
 839 00e4 154B     		ldr	r3, .L86+12
 840 00e6 9968     		ldr	r1, [r3, #8]
 841 00e8 1548     		ldr	r0, .L86+16
 842              	.LVL113:
  87:../switch_sdk/core/yt/yt_vlan_translate.c ****     CMM_PARAM_CHK((YT_VLAN_ID_MAX < vlan_range.vid_range0_max ||
 843              		.loc 1 87 5 is_stmt 0 discriminator 3 view .LVU246
 844 00ea FFF7FEFF 		bl	osal_printf
 845              	.LVL114:
 846 00ee F5E7     		b	.L68
 847              	.L69:
  87:../switch_sdk/core/yt/yt_vlan_translate.c ****     CMM_PARAM_CHK((YT_VLAN_ID_MAX < vlan_range.vid_range0_max ||
 848              		.loc 1 87 5 discriminator 3 view .LVU247
 849              	.LBE17:
  88:../switch_sdk/core/yt/yt_vlan_translate.c ****         YT_VLAN_ID_MAX < vlan_range.vid_range1_max ||
 850              		.loc 1 88 5 is_stmt 1 discriminator 7 view .LVU248
  88:../switch_sdk/core/yt/yt_vlan_translate.c ****         YT_VLAN_ID_MAX < vlan_range.vid_range1_max ||
 851              		.loc 1 88 5 discriminator 7 view .LVU249
 852 00f0 104B     		ldr	r3, .L86+4
 853 00f2 1B78     		ldrb	r3, [r3]	@ zero_extendqisi2
 854 00f4 012B     		cmp	r3, #1
 855 00f6 05D8     		bhi	.L84
 856              	.L71:
  88:../switch_sdk/core/yt/yt_vlan_translate.c ****         YT_VLAN_ID_MAX < vlan_range.vid_range1_max ||
 857              		.loc 1 88 5 discriminator 11 view .LVU250
  88:../switch_sdk/core/yt/yt_vlan_translate.c ****         YT_VLAN_ID_MAX < vlan_range.vid_range1_max ||
 858              		.loc 1 88 5 discriminator 11 view .LVU251
  88:../switch_sdk/core/yt/yt_vlan_translate.c ****         YT_VLAN_ID_MAX < vlan_range.vid_range1_max ||
 859              		.loc 1 88 5 discriminator 11 view .LVU252
 860 00f8 1120     		movs	r0, #17
 861              	.L59:
  98:../switch_sdk/core/yt/yt_vlan_translate.c **** }
 862              		.loc 1 98 1 is_stmt 0 view .LVU253
 863 00fa 02B0     		add	sp, sp, #8
 864              		.cfi_remember_state
 865              		.cfi_def_cfa_offset 24
 866              		@ sp needed
 867 00fc BDE81040 		pop	{r4, lr}
 868              		.cfi_restore 14
 869              		.cfi_restore 4
 870              		.cfi_def_cfa_offset 16
 871 0100 04B0     		add	sp, sp, #16
 872              		.cfi_def_cfa_offset 0
 873 0102 7047     		bx	lr
 874              	.L84:
 875              		.cfi_restore_state
  88:../switch_sdk/core/yt/yt_vlan_translate.c ****         YT_VLAN_ID_MAX < vlan_range.vid_range1_max ||
 876              		.loc 1 88 5 is_stmt 1 discriminator 9 view .LVU254
 877              	.LBB18:
  88:../switch_sdk/core/yt/yt_vlan_translate.c ****         YT_VLAN_ID_MAX < vlan_range.vid_range1_max ||
 878              		.loc 1 88 5 discriminator 9 view .LVU255
 879 0104 0C4B     		ldr	r3, .L86+8
 880 0106 5A6C     		ldr	r2, [r3, #68]
 881 0108 0C4B     		ldr	r3, .L86+12
 882 010a 9968     		ldr	r1, [r3, #8]
 883 010c 0C48     		ldr	r0, .L86+16
 884 010e FFF7FEFF 		bl	osal_printf
 885              	.LVL115:
 886 0112 F1E7     		b	.L71
 887              	.L72:
  88:../switch_sdk/core/yt/yt_vlan_translate.c ****         YT_VLAN_ID_MAX < vlan_range.vid_range1_max ||
 888              		.loc 1 88 5 is_stmt 0 discriminator 9 view .LVU256
 889              	.LBE18:
  92:../switch_sdk/core/yt/yt_vlan_translate.c ****         vlan_range.vid_range1_max < vlan_range.vid_range1_min ||
 890              		.loc 1 92 5 is_stmt 1 discriminator 5 view .LVU257
  92:../switch_sdk/core/yt/yt_vlan_translate.c ****         vlan_range.vid_range1_max < vlan_range.vid_range1_min ||
 891              		.loc 1 92 5 discriminator 5 view .LVU258
 892 0114 074B     		ldr	r3, .L86+4
 893 0116 1B78     		ldrb	r3, [r3]	@ zero_extendqisi2
 894 0118 012B     		cmp	r3, #1
 895 011a 01D8     		bhi	.L85
 896              	.L74:
  92:../switch_sdk/core/yt/yt_vlan_translate.c ****         vlan_range.vid_range1_max < vlan_range.vid_range1_min ||
 897              		.loc 1 92 5 discriminator 9 view .LVU259
  92:../switch_sdk/core/yt/yt_vlan_translate.c ****         vlan_range.vid_range1_max < vlan_range.vid_range1_min ||
 898              		.loc 1 92 5 discriminator 9 view .LVU260
  92:../switch_sdk/core/yt/yt_vlan_translate.c ****         vlan_range.vid_range1_max < vlan_range.vid_range1_min ||
 899              		.loc 1 92 5 discriminator 9 view .LVU261
 900 011c 0520     		movs	r0, #5
 901 011e ECE7     		b	.L59
 902              	.L85:
  92:../switch_sdk/core/yt/yt_vlan_translate.c ****         vlan_range.vid_range1_max < vlan_range.vid_range1_min ||
 903              		.loc 1 92 5 discriminator 7 view .LVU262
 904              	.LBB19:
  92:../switch_sdk/core/yt/yt_vlan_translate.c ****         vlan_range.vid_range1_max < vlan_range.vid_range1_min ||
 905              		.loc 1 92 5 discriminator 7 view .LVU263
 906 0120 054B     		ldr	r3, .L86+8
 907 0122 5A69     		ldr	r2, [r3, #20]
 908 0124 054B     		ldr	r3, .L86+12
 909 0126 9968     		ldr	r1, [r3, #8]
 910 0128 0548     		ldr	r0, .L86+16
 911 012a FFF7FEFF 		bl	osal_printf
 912              	.LVL116:
 913 012e F5E7     		b	.L74
 914              	.L87:
 915              		.align	2
 916              	.L86:
 917 0130 00000000 		.word	gpfal_dispatch
 918 0134 00000000 		.word	yt_debug_level
 919 0138 00000000 		.word	_yt_errmsg
 920 013c 00000000 		.word	_yt_prompt_msg
 921 0140 00000000 		.word	.LC0
 922              	.LBE19:
 923              		.cfi_endproc
 924              	.LFE5:
 926              		.section	.text.yt_vlan_trans_rangeProfile_get,"ax",%progbits
 927              		.align	1
 928              		.global	yt_vlan_trans_rangeProfile_get
 929              		.syntax unified
 930              		.thumb
 931              		.thumb_func
 933              	yt_vlan_trans_rangeProfile_get:
 934              	.LVL117:
 935              	.LFB6:
  99:../switch_sdk/core/yt/yt_vlan_translate.c **** 
 100:../switch_sdk/core/yt/yt_vlan_translate.c **** /**
 101:../switch_sdk/core/yt/yt_vlan_translate.c ****  * @internal      yt_vlan_trans_rangeProfile_get
 102:../switch_sdk/core/yt/yt_vlan_translate.c ****  * @endinternal
 103:../switch_sdk/core/yt/yt_vlan_translate.c ****  *
 104:../switch_sdk/core/yt/yt_vlan_translate.c ****  * @brief         Description
 105:../switch_sdk/core/yt/yt_vlan_translate.c ****  * @note          APPLICABLE DEVICES  -Tiger
 106:../switch_sdk/core/yt/yt_vlan_translate.c ****  * @param[in]     unit                -unit id
 107:../switch_sdk/core/yt/yt_vlan_translate.c ****  * @param[in]     profile_id          -ingress vlan profile index
 108:../switch_sdk/core/yt/yt_vlan_translate.c ****  * @param[out]    pVlan_range         -ingress vlan translate profile group info, one of them shoul
 109:../switch_sdk/core/yt/yt_vlan_translate.c ****  * @retval        CMM_ERR_OK          -on success
 110:../switch_sdk/core/yt/yt_vlan_translate.c ****  * @retval        CMM_ERR_FAIL        -on fail
 111:../switch_sdk/core/yt/yt_vlan_translate.c ****  */
 112:../switch_sdk/core/yt/yt_vlan_translate.c **** yt_ret_t  yt_vlan_trans_rangeProfile_get(yt_unit_t unit, yt_profile_id_t profile_id, yt_vlan_range_
 113:../switch_sdk/core/yt/yt_vlan_translate.c **** {
 936              		.loc 1 113 1 view -0
 937              		.cfi_startproc
 938              		@ args = 0, pretend = 0, frame = 0
 939              		@ frame_needed = 0, uses_anonymous_args = 0
 940              		.loc 1 113 1 is_stmt 0 view .LVU265
 941 0000 08B5     		push	{r3, lr}
 942              		.cfi_def_cfa_offset 8
 943              		.cfi_offset 3, -8
 944              		.cfi_offset 14, -4
 114:../switch_sdk/core/yt/yt_vlan_translate.c ****     CMM_PARAM_CHK((YT_UNIT_NUM <= unit), CMM_ERR_INPUT);
 945              		.loc 1 114 5 is_stmt 1 view .LVU266
 946              		.loc 1 114 5 view .LVU267
 947 0002 68B9     		cbnz	r0, .L99
 948 0004 8446     		mov	ip, r0
 949              		.loc 1 114 5 discriminator 2 view .LVU268
 115:../switch_sdk/core/yt/yt_vlan_translate.c ****     CMM_PARAM_CHK(NULL == YT_DISPATCH(unit), CMM_ERR_NOT_INIT);
 950              		.loc 1 115 5 discriminator 2 view .LVU269
 951              		.loc 1 115 5 discriminator 2 view .LVU270
 952 0006 224B     		ldr	r3, .L107
 953 0008 53F82030 		ldr	r3, [r3, r0, lsl #2]
 954 000c B3B1     		cbz	r3, .L100
 955              		.loc 1 115 5 discriminator 2 view .LVU271
 116:../switch_sdk/core/yt/yt_vlan_translate.c ****     CMM_PARAM_CHK((!(YT_DISPATCH(unit)->is_inited)), CMM_ERR_NOT_INIT);
 956              		.loc 1 116 5 discriminator 2 view .LVU272
 957              		.loc 1 116 5 discriminator 2 view .LVU273
 958 000e 1878     		ldrb	r0, [r3]	@ zero_extendqisi2
 959              	.LVL118:
 960              		.loc 1 116 5 is_stmt 0 discriminator 2 view .LVU274
 961 0010 10B3     		cbz	r0, .L101
 962              		.loc 1 116 5 is_stmt 1 discriminator 2 view .LVU275
 117:../switch_sdk/core/yt/yt_vlan_translate.c ****     CMM_PARAM_CHK((NULL == pVlan_range), CMM_ERR_NULL_POINT);
 963              		.loc 1 117 5 discriminator 2 view .LVU276
 964              		.loc 1 117 5 discriminator 2 view .LVU277
 965 0012 002A     		cmp	r2, #0
 966 0014 2ED0     		beq	.L102
 967              		.loc 1 117 5 discriminator 2 view .LVU278
 118:../switch_sdk/core/yt/yt_vlan_translate.c **** 
 119:../switch_sdk/core/yt/yt_vlan_translate.c ****     return YT_DISPATCH(unit)->vlan_trans_rangeProfile_get(unit, profile_id, pVlan_range);
 968              		.loc 1 119 5 discriminator 2 view .LVU279
 969              		.loc 1 119 29 is_stmt 0 discriminator 2 view .LVU280
 970 0016 D3F8A830 		ldr	r3, [r3, #168]
 971              		.loc 1 119 12 discriminator 2 view .LVU281
 972 001a 6046     		mov	r0, ip
 973 001c 9847     		blx	r3
 974              	.LVL119:
 975              	.L88:
 120:../switch_sdk/core/yt/yt_vlan_translate.c **** }
 976              		.loc 1 120 1 view .LVU282
 977 001e 08BD     		pop	{r3, pc}
 978              	.LVL120:
 979              	.L99:
 114:../switch_sdk/core/yt/yt_vlan_translate.c ****     CMM_PARAM_CHK(NULL == YT_DISPATCH(unit), CMM_ERR_NOT_INIT);
 980              		.loc 1 114 5 is_stmt 1 discriminator 1 view .LVU283
 114:../switch_sdk/core/yt/yt_vlan_translate.c ****     CMM_PARAM_CHK(NULL == YT_DISPATCH(unit), CMM_ERR_NOT_INIT);
 981              		.loc 1 114 5 discriminator 1 view .LVU284
 982 0020 1C4B     		ldr	r3, .L107+4
 983 0022 1B78     		ldrb	r3, [r3]	@ zero_extendqisi2
 984 0024 012B     		cmp	r3, #1
 985 0026 01D8     		bhi	.L103
 986              	.LVL121:
 987              	.L90:
 114:../switch_sdk/core/yt/yt_vlan_translate.c ****     CMM_PARAM_CHK(NULL == YT_DISPATCH(unit), CMM_ERR_NOT_INIT);
 988              		.loc 1 114 5 discriminator 5 view .LVU285
 114:../switch_sdk/core/yt/yt_vlan_translate.c ****     CMM_PARAM_CHK(NULL == YT_DISPATCH(unit), CMM_ERR_NOT_INIT);
 989              		.loc 1 114 5 discriminator 5 view .LVU286
 114:../switch_sdk/core/yt/yt_vlan_translate.c ****     CMM_PARAM_CHK(NULL == YT_DISPATCH(unit), CMM_ERR_NOT_INIT);
 990              		.loc 1 114 5 discriminator 5 view .LVU287
 991 0028 0520     		movs	r0, #5
 992 002a F8E7     		b	.L88
 993              	.LVL122:
 994              	.L103:
 114:../switch_sdk/core/yt/yt_vlan_translate.c ****     CMM_PARAM_CHK(NULL == YT_DISPATCH(unit), CMM_ERR_NOT_INIT);
 995              		.loc 1 114 5 discriminator 3 view .LVU288
 996              	.LBB20:
 114:../switch_sdk/core/yt/yt_vlan_translate.c ****     CMM_PARAM_CHK(NULL == YT_DISPATCH(unit), CMM_ERR_NOT_INIT);
 997              		.loc 1 114 5 discriminator 3 view .LVU289
 998 002c 1A4B     		ldr	r3, .L107+8
 999 002e 5A69     		ldr	r2, [r3, #20]
 1000              	.LVL123:
 114:../switch_sdk/core/yt/yt_vlan_translate.c ****     CMM_PARAM_CHK(NULL == YT_DISPATCH(unit), CMM_ERR_NOT_INIT);
 1001              		.loc 1 114 5 is_stmt 0 discriminator 3 view .LVU290
 1002 0030 1A4B     		ldr	r3, .L107+12
 1003 0032 9968     		ldr	r1, [r3, #8]
 1004              	.LVL124:
 114:../switch_sdk/core/yt/yt_vlan_translate.c ****     CMM_PARAM_CHK(NULL == YT_DISPATCH(unit), CMM_ERR_NOT_INIT);
 1005              		.loc 1 114 5 discriminator 3 view .LVU291
 1006 0034 1A48     		ldr	r0, .L107+16
 1007              	.LVL125:
 114:../switch_sdk/core/yt/yt_vlan_translate.c ****     CMM_PARAM_CHK(NULL == YT_DISPATCH(unit), CMM_ERR_NOT_INIT);
 1008              		.loc 1 114 5 discriminator 3 view .LVU292
 1009 0036 FFF7FEFF 		bl	osal_printf
 1010              	.LVL126:
 1011 003a F5E7     		b	.L90
 1012              	.LVL127:
 1013              	.L100:
 114:../switch_sdk/core/yt/yt_vlan_translate.c ****     CMM_PARAM_CHK(NULL == YT_DISPATCH(unit), CMM_ERR_NOT_INIT);
 1014              		.loc 1 114 5 discriminator 3 view .LVU293
 1015              	.LBE20:
 115:../switch_sdk/core/yt/yt_vlan_translate.c ****     CMM_PARAM_CHK((!(YT_DISPATCH(unit)->is_inited)), CMM_ERR_NOT_INIT);
 1016              		.loc 1 115 5 is_stmt 1 discriminator 1 view .LVU294
 115:../switch_sdk/core/yt/yt_vlan_translate.c ****     CMM_PARAM_CHK((!(YT_DISPATCH(unit)->is_inited)), CMM_ERR_NOT_INIT);
 1017              		.loc 1 115 5 discriminator 1 view .LVU295
 1018 003c 154B     		ldr	r3, .L107+4
 1019 003e 1B78     		ldrb	r3, [r3]	@ zero_extendqisi2
 1020 0040 012B     		cmp	r3, #1
 1021 0042 01D8     		bhi	.L104
 1022              	.LVL128:
 1023              	.L93:
 115:../switch_sdk/core/yt/yt_vlan_translate.c ****     CMM_PARAM_CHK((!(YT_DISPATCH(unit)->is_inited)), CMM_ERR_NOT_INIT);
 1024              		.loc 1 115 5 discriminator 5 view .LVU296
 115:../switch_sdk/core/yt/yt_vlan_translate.c ****     CMM_PARAM_CHK((!(YT_DISPATCH(unit)->is_inited)), CMM_ERR_NOT_INIT);
 1025              		.loc 1 115 5 discriminator 5 view .LVU297
 115:../switch_sdk/core/yt/yt_vlan_translate.c ****     CMM_PARAM_CHK((!(YT_DISPATCH(unit)->is_inited)), CMM_ERR_NOT_INIT);
 1026              		.loc 1 115 5 discriminator 5 view .LVU298
 1027 0044 0420     		movs	r0, #4
 1028 0046 EAE7     		b	.L88
 1029              	.LVL129:
 1030              	.L104:
 115:../switch_sdk/core/yt/yt_vlan_translate.c ****     CMM_PARAM_CHK((!(YT_DISPATCH(unit)->is_inited)), CMM_ERR_NOT_INIT);
 1031              		.loc 1 115 5 discriminator 3 view .LVU299
 1032              	.LBB21:
 115:../switch_sdk/core/yt/yt_vlan_translate.c ****     CMM_PARAM_CHK((!(YT_DISPATCH(unit)->is_inited)), CMM_ERR_NOT_INIT);
 1033              		.loc 1 115 5 discriminator 3 view .LVU300
 1034 0048 134B     		ldr	r3, .L107+8
 1035 004a 1A69     		ldr	r2, [r3, #16]
 1036              	.LVL130:
 115:../switch_sdk/core/yt/yt_vlan_translate.c ****     CMM_PARAM_CHK((!(YT_DISPATCH(unit)->is_inited)), CMM_ERR_NOT_INIT);
 1037              		.loc 1 115 5 is_stmt 0 discriminator 3 view .LVU301
 1038 004c 134B     		ldr	r3, .L107+12
 1039 004e 9968     		ldr	r1, [r3, #8]
 1040              	.LVL131:
 115:../switch_sdk/core/yt/yt_vlan_translate.c ****     CMM_PARAM_CHK((!(YT_DISPATCH(unit)->is_inited)), CMM_ERR_NOT_INIT);
 1041              		.loc 1 115 5 discriminator 3 view .LVU302
 1042 0050 1348     		ldr	r0, .L107+16
 1043              	.LVL132:
 115:../switch_sdk/core/yt/yt_vlan_translate.c ****     CMM_PARAM_CHK((!(YT_DISPATCH(unit)->is_inited)), CMM_ERR_NOT_INIT);
 1044              		.loc 1 115 5 discriminator 3 view .LVU303
 1045 0052 FFF7FEFF 		bl	osal_printf
 1046              	.LVL133:
 1047 0056 F5E7     		b	.L93
 1048              	.LVL134:
 1049              	.L101:
 115:../switch_sdk/core/yt/yt_vlan_translate.c ****     CMM_PARAM_CHK((!(YT_DISPATCH(unit)->is_inited)), CMM_ERR_NOT_INIT);
 1050              		.loc 1 115 5 discriminator 3 view .LVU304
 1051              	.LBE21:
 116:../switch_sdk/core/yt/yt_vlan_translate.c ****     CMM_PARAM_CHK((NULL == pVlan_range), CMM_ERR_NULL_POINT);
 1052              		.loc 1 116 5 is_stmt 1 discriminator 1 view .LVU305
 116:../switch_sdk/core/yt/yt_vlan_translate.c ****     CMM_PARAM_CHK((NULL == pVlan_range), CMM_ERR_NULL_POINT);
 1053              		.loc 1 116 5 discriminator 1 view .LVU306
 1054 0058 0E4B     		ldr	r3, .L107+4
 1055 005a 1B78     		ldrb	r3, [r3]	@ zero_extendqisi2
 1056 005c 012B     		cmp	r3, #1
 1057 005e 01D8     		bhi	.L105
 1058              	.LVL135:
 1059              	.L95:
 116:../switch_sdk/core/yt/yt_vlan_translate.c ****     CMM_PARAM_CHK((NULL == pVlan_range), CMM_ERR_NULL_POINT);
 1060              		.loc 1 116 5 discriminator 5 view .LVU307
 116:../switch_sdk/core/yt/yt_vlan_translate.c ****     CMM_PARAM_CHK((NULL == pVlan_range), CMM_ERR_NULL_POINT);
 1061              		.loc 1 116 5 discriminator 5 view .LVU308
 116:../switch_sdk/core/yt/yt_vlan_translate.c ****     CMM_PARAM_CHK((NULL == pVlan_range), CMM_ERR_NULL_POINT);
 1062              		.loc 1 116 5 discriminator 5 view .LVU309
 1063 0060 0420     		movs	r0, #4
 1064 0062 DCE7     		b	.L88
 1065              	.LVL136:
 1066              	.L105:
 116:../switch_sdk/core/yt/yt_vlan_translate.c ****     CMM_PARAM_CHK((NULL == pVlan_range), CMM_ERR_NULL_POINT);
 1067              		.loc 1 116 5 discriminator 3 view .LVU310
 1068              	.LBB22:
 116:../switch_sdk/core/yt/yt_vlan_translate.c ****     CMM_PARAM_CHK((NULL == pVlan_range), CMM_ERR_NULL_POINT);
 1069              		.loc 1 116 5 discriminator 3 view .LVU311
 1070 0064 0C4B     		ldr	r3, .L107+8
 1071 0066 1A69     		ldr	r2, [r3, #16]
 1072              	.LVL137:
 116:../switch_sdk/core/yt/yt_vlan_translate.c ****     CMM_PARAM_CHK((NULL == pVlan_range), CMM_ERR_NULL_POINT);
 1073              		.loc 1 116 5 is_stmt 0 discriminator 3 view .LVU312
 1074 0068 0C4B     		ldr	r3, .L107+12
 1075 006a 9968     		ldr	r1, [r3, #8]
 1076              	.LVL138:
 116:../switch_sdk/core/yt/yt_vlan_translate.c ****     CMM_PARAM_CHK((NULL == pVlan_range), CMM_ERR_NULL_POINT);
 1077              		.loc 1 116 5 discriminator 3 view .LVU313
 1078 006c 0C48     		ldr	r0, .L107+16
 1079 006e FFF7FEFF 		bl	osal_printf
 1080              	.LVL139:
 1081 0072 F5E7     		b	.L95
 1082              	.LVL140:
 1083              	.L102:
 116:../switch_sdk/core/yt/yt_vlan_translate.c ****     CMM_PARAM_CHK((NULL == pVlan_range), CMM_ERR_NULL_POINT);
 1084              		.loc 1 116 5 discriminator 3 view .LVU314
 1085              	.LBE22:
 117:../switch_sdk/core/yt/yt_vlan_translate.c **** 
 1086              		.loc 1 117 5 is_stmt 1 discriminator 1 view .LVU315
 117:../switch_sdk/core/yt/yt_vlan_translate.c **** 
 1087              		.loc 1 117 5 discriminator 1 view .LVU316
 1088 0074 074B     		ldr	r3, .L107+4
 1089 0076 1B78     		ldrb	r3, [r3]	@ zero_extendqisi2
 1090 0078 012B     		cmp	r3, #1
 1091 007a 01D8     		bhi	.L106
 1092              	.LVL141:
 1093              	.L97:
 117:../switch_sdk/core/yt/yt_vlan_translate.c **** 
 1094              		.loc 1 117 5 discriminator 5 view .LVU317
 117:../switch_sdk/core/yt/yt_vlan_translate.c **** 
 1095              		.loc 1 117 5 discriminator 5 view .LVU318
 117:../switch_sdk/core/yt/yt_vlan_translate.c **** 
 1096              		.loc 1 117 5 discriminator 5 view .LVU319
 1097 007c 0220     		movs	r0, #2
 1098 007e CEE7     		b	.L88
 1099              	.LVL142:
 1100              	.L106:
 117:../switch_sdk/core/yt/yt_vlan_translate.c **** 
 1101              		.loc 1 117 5 discriminator 3 view .LVU320
 1102              	.LBB23:
 117:../switch_sdk/core/yt/yt_vlan_translate.c **** 
 1103              		.loc 1 117 5 discriminator 3 view .LVU321
 1104 0080 054B     		ldr	r3, .L107+8
 1105 0082 9A68     		ldr	r2, [r3, #8]
 1106              	.LVL143:
 117:../switch_sdk/core/yt/yt_vlan_translate.c **** 
 1107              		.loc 1 117 5 is_stmt 0 discriminator 3 view .LVU322
 1108 0084 054B     		ldr	r3, .L107+12
 1109 0086 9968     		ldr	r1, [r3, #8]
 1110              	.LVL144:
 117:../switch_sdk/core/yt/yt_vlan_translate.c **** 
 1111              		.loc 1 117 5 discriminator 3 view .LVU323
 1112 0088 0548     		ldr	r0, .L107+16
 1113 008a FFF7FEFF 		bl	osal_printf
 1114              	.LVL145:
 1115 008e F5E7     		b	.L97
 1116              	.L108:
 1117              		.align	2
 1118              	.L107:
 1119 0090 00000000 		.word	gpfal_dispatch
 1120 0094 00000000 		.word	yt_debug_level
 1121 0098 00000000 		.word	_yt_errmsg
 1122 009c 00000000 		.word	_yt_prompt_msg
 1123 00a0 00000000 		.word	.LC0
 1124              	.LBE23:
 1125              		.cfi_endproc
 1126              	.LFE6:
 1128              		.section	.text.yt_vlan_trans_rangeProfile_del,"ax",%progbits
 1129              		.align	1
 1130              		.global	yt_vlan_trans_rangeProfile_del
 1131              		.syntax unified
 1132              		.thumb
 1133              		.thumb_func
 1135              	yt_vlan_trans_rangeProfile_del:
 1136              	.LVL146:
 1137              	.LFB7:
 121:../switch_sdk/core/yt/yt_vlan_translate.c **** 
 122:../switch_sdk/core/yt/yt_vlan_translate.c **** /**
 123:../switch_sdk/core/yt/yt_vlan_translate.c ****  * @internal      yt_vlan_trans_rangeProfile_del
 124:../switch_sdk/core/yt/yt_vlan_translate.c ****  * @endinternal
 125:../switch_sdk/core/yt/yt_vlan_translate.c ****  *
 126:../switch_sdk/core/yt/yt_vlan_translate.c ****  * @brief         Description
 127:../switch_sdk/core/yt/yt_vlan_translate.c ****  * @note          APPLICABLE DEVICES  -Tiger
 128:../switch_sdk/core/yt/yt_vlan_translate.c ****  * @param[in]     unit                -unit id
 129:../switch_sdk/core/yt/yt_vlan_translate.c ****  * @param[in]     profile_id          -ingress vlan profile index
 130:../switch_sdk/core/yt/yt_vlan_translate.c ****  * @retval        CMM_ERR_OK          -on success
 131:../switch_sdk/core/yt/yt_vlan_translate.c ****  * @retval        CMM_ERR_FAIL        -on fail
 132:../switch_sdk/core/yt/yt_vlan_translate.c ****  */
 133:../switch_sdk/core/yt/yt_vlan_translate.c **** yt_ret_t  yt_vlan_trans_rangeProfile_del(yt_unit_t unit, yt_profile_id_t profile_id)
 134:../switch_sdk/core/yt/yt_vlan_translate.c **** {
 1138              		.loc 1 134 1 is_stmt 1 view -0
 1139              		.cfi_startproc
 1140              		@ args = 0, pretend = 0, frame = 0
 1141              		@ frame_needed = 0, uses_anonymous_args = 0
 1142              		.loc 1 134 1 is_stmt 0 view .LVU325
 1143 0000 08B5     		push	{r3, lr}
 1144              		.cfi_def_cfa_offset 8
 1145              		.cfi_offset 3, -8
 1146              		.cfi_offset 14, -4
 135:../switch_sdk/core/yt/yt_vlan_translate.c ****     CMM_PARAM_CHK((YT_UNIT_NUM <= unit), CMM_ERR_INPUT);
 1147              		.loc 1 135 5 is_stmt 1 view .LVU326
 1148              		.loc 1 135 5 view .LVU327
 1149 0002 58B9     		cbnz	r0, .L118
 1150 0004 0246     		mov	r2, r0
 1151              		.loc 1 135 5 discriminator 2 view .LVU328
 136:../switch_sdk/core/yt/yt_vlan_translate.c ****     CMM_PARAM_CHK(NULL == YT_DISPATCH(unit), CMM_ERR_NOT_INIT);
 1152              		.loc 1 136 5 discriminator 2 view .LVU329
 1153              		.loc 1 136 5 discriminator 2 view .LVU330
 1154 0006 1A4B     		ldr	r3, .L124
 1155 0008 53F82030 		ldr	r3, [r3, r0, lsl #2]
 1156 000c A3B1     		cbz	r3, .L119
 1157              		.loc 1 136 5 discriminator 2 view .LVU331
 137:../switch_sdk/core/yt/yt_vlan_translate.c ****     CMM_PARAM_CHK((!(YT_DISPATCH(unit)->is_inited)), CMM_ERR_NOT_INIT);
 1158              		.loc 1 137 5 discriminator 2 view .LVU332
 1159              		.loc 1 137 5 discriminator 2 view .LVU333
 1160 000e 1878     		ldrb	r0, [r3]	@ zero_extendqisi2
 1161              	.LVL147:
 1162              		.loc 1 137 5 is_stmt 0 discriminator 2 view .LVU334
 1163 0010 00B3     		cbz	r0, .L120
 1164              		.loc 1 137 5 is_stmt 1 discriminator 2 view .LVU335
 138:../switch_sdk/core/yt/yt_vlan_translate.c **** 
 139:../switch_sdk/core/yt/yt_vlan_translate.c ****     return YT_DISPATCH(unit)->vlan_trans_rangeProfile_del(unit, profile_id);
 1165              		.loc 1 139 5 discriminator 2 view .LVU336
 1166              		.loc 1 139 29 is_stmt 0 discriminator 2 view .LVU337
 1167 0012 D3F8AC30 		ldr	r3, [r3, #172]
 1168              		.loc 1 139 12 discriminator 2 view .LVU338
 1169 0016 1046     		mov	r0, r2
 1170 0018 9847     		blx	r3
 1171              	.LVL148:
 1172              	.L109:
 140:../switch_sdk/core/yt/yt_vlan_translate.c **** }
 1173              		.loc 1 140 1 view .LVU339
 1174 001a 08BD     		pop	{r3, pc}
 1175              	.LVL149:
 1176              	.L118:
 135:../switch_sdk/core/yt/yt_vlan_translate.c ****     CMM_PARAM_CHK(NULL == YT_DISPATCH(unit), CMM_ERR_NOT_INIT);
 1177              		.loc 1 135 5 is_stmt 1 discriminator 1 view .LVU340
 135:../switch_sdk/core/yt/yt_vlan_translate.c ****     CMM_PARAM_CHK(NULL == YT_DISPATCH(unit), CMM_ERR_NOT_INIT);
 1178              		.loc 1 135 5 discriminator 1 view .LVU341
 1179 001c 154B     		ldr	r3, .L124+4
 1180 001e 1B78     		ldrb	r3, [r3]	@ zero_extendqisi2
 1181 0020 012B     		cmp	r3, #1
 1182 0022 01D8     		bhi	.L121
 1183              	.LVL150:
 1184              	.L111:
 135:../switch_sdk/core/yt/yt_vlan_translate.c ****     CMM_PARAM_CHK(NULL == YT_DISPATCH(unit), CMM_ERR_NOT_INIT);
 1185              		.loc 1 135 5 discriminator 5 view .LVU342
 135:../switch_sdk/core/yt/yt_vlan_translate.c ****     CMM_PARAM_CHK(NULL == YT_DISPATCH(unit), CMM_ERR_NOT_INIT);
 1186              		.loc 1 135 5 discriminator 5 view .LVU343
 135:../switch_sdk/core/yt/yt_vlan_translate.c ****     CMM_PARAM_CHK(NULL == YT_DISPATCH(unit), CMM_ERR_NOT_INIT);
 1187              		.loc 1 135 5 discriminator 5 view .LVU344
 1188 0024 0520     		movs	r0, #5
 1189 0026 F8E7     		b	.L109
 1190              	.LVL151:
 1191              	.L121:
 135:../switch_sdk/core/yt/yt_vlan_translate.c ****     CMM_PARAM_CHK(NULL == YT_DISPATCH(unit), CMM_ERR_NOT_INIT);
 1192              		.loc 1 135 5 discriminator 3 view .LVU345
 1193              	.LBB24:
 135:../switch_sdk/core/yt/yt_vlan_translate.c ****     CMM_PARAM_CHK(NULL == YT_DISPATCH(unit), CMM_ERR_NOT_INIT);
 1194              		.loc 1 135 5 discriminator 3 view .LVU346
 1195 0028 134B     		ldr	r3, .L124+8
 1196 002a 5A69     		ldr	r2, [r3, #20]
 1197 002c 134B     		ldr	r3, .L124+12
 1198 002e 9968     		ldr	r1, [r3, #8]
 1199              	.LVL152:
 135:../switch_sdk/core/yt/yt_vlan_translate.c ****     CMM_PARAM_CHK(NULL == YT_DISPATCH(unit), CMM_ERR_NOT_INIT);
 1200              		.loc 1 135 5 is_stmt 0 discriminator 3 view .LVU347
 1201 0030 1348     		ldr	r0, .L124+16
 1202              	.LVL153:
 135:../switch_sdk/core/yt/yt_vlan_translate.c ****     CMM_PARAM_CHK(NULL == YT_DISPATCH(unit), CMM_ERR_NOT_INIT);
 1203              		.loc 1 135 5 discriminator 3 view .LVU348
 1204 0032 FFF7FEFF 		bl	osal_printf
 1205              	.LVL154:
 1206 0036 F5E7     		b	.L111
 1207              	.LVL155:
 1208              	.L119:
 135:../switch_sdk/core/yt/yt_vlan_translate.c ****     CMM_PARAM_CHK(NULL == YT_DISPATCH(unit), CMM_ERR_NOT_INIT);
 1209              		.loc 1 135 5 discriminator 3 view .LVU349
 1210              	.LBE24:
 136:../switch_sdk/core/yt/yt_vlan_translate.c ****     CMM_PARAM_CHK((!(YT_DISPATCH(unit)->is_inited)), CMM_ERR_NOT_INIT);
 1211              		.loc 1 136 5 is_stmt 1 discriminator 1 view .LVU350
 136:../switch_sdk/core/yt/yt_vlan_translate.c ****     CMM_PARAM_CHK((!(YT_DISPATCH(unit)->is_inited)), CMM_ERR_NOT_INIT);
 1212              		.loc 1 136 5 discriminator 1 view .LVU351
 1213 0038 0E4B     		ldr	r3, .L124+4
 1214 003a 1B78     		ldrb	r3, [r3]	@ zero_extendqisi2
 1215 003c 012B     		cmp	r3, #1
 1216 003e 01D8     		bhi	.L122
 1217              	.LVL156:
 1218              	.L114:
 136:../switch_sdk/core/yt/yt_vlan_translate.c ****     CMM_PARAM_CHK((!(YT_DISPATCH(unit)->is_inited)), CMM_ERR_NOT_INIT);
 1219              		.loc 1 136 5 discriminator 5 view .LVU352
 136:../switch_sdk/core/yt/yt_vlan_translate.c ****     CMM_PARAM_CHK((!(YT_DISPATCH(unit)->is_inited)), CMM_ERR_NOT_INIT);
 1220              		.loc 1 136 5 discriminator 5 view .LVU353
 136:../switch_sdk/core/yt/yt_vlan_translate.c ****     CMM_PARAM_CHK((!(YT_DISPATCH(unit)->is_inited)), CMM_ERR_NOT_INIT);
 1221              		.loc 1 136 5 discriminator 5 view .LVU354
 1222 0040 0420     		movs	r0, #4
 1223 0042 EAE7     		b	.L109
 1224              	.LVL157:
 1225              	.L122:
 136:../switch_sdk/core/yt/yt_vlan_translate.c ****     CMM_PARAM_CHK((!(YT_DISPATCH(unit)->is_inited)), CMM_ERR_NOT_INIT);
 1226              		.loc 1 136 5 discriminator 3 view .LVU355
 1227              	.LBB25:
 136:../switch_sdk/core/yt/yt_vlan_translate.c ****     CMM_PARAM_CHK((!(YT_DISPATCH(unit)->is_inited)), CMM_ERR_NOT_INIT);
 1228              		.loc 1 136 5 discriminator 3 view .LVU356
 1229 0044 0C4B     		ldr	r3, .L124+8
 1230 0046 1A69     		ldr	r2, [r3, #16]
 1231 0048 0C4B     		ldr	r3, .L124+12
 1232 004a 9968     		ldr	r1, [r3, #8]
 1233              	.LVL158:
 136:../switch_sdk/core/yt/yt_vlan_translate.c ****     CMM_PARAM_CHK((!(YT_DISPATCH(unit)->is_inited)), CMM_ERR_NOT_INIT);
 1234              		.loc 1 136 5 is_stmt 0 discriminator 3 view .LVU357
 1235 004c 0C48     		ldr	r0, .L124+16
 1236              	.LVL159:
 136:../switch_sdk/core/yt/yt_vlan_translate.c ****     CMM_PARAM_CHK((!(YT_DISPATCH(unit)->is_inited)), CMM_ERR_NOT_INIT);
 1237              		.loc 1 136 5 discriminator 3 view .LVU358
 1238 004e FFF7FEFF 		bl	osal_printf
 1239              	.LVL160:
 1240 0052 F5E7     		b	.L114
 1241              	.LVL161:
 1242              	.L120:
 136:../switch_sdk/core/yt/yt_vlan_translate.c ****     CMM_PARAM_CHK((!(YT_DISPATCH(unit)->is_inited)), CMM_ERR_NOT_INIT);
 1243              		.loc 1 136 5 discriminator 3 view .LVU359
 1244              	.LBE25:
 137:../switch_sdk/core/yt/yt_vlan_translate.c **** 
 1245              		.loc 1 137 5 is_stmt 1 discriminator 1 view .LVU360
 137:../switch_sdk/core/yt/yt_vlan_translate.c **** 
 1246              		.loc 1 137 5 discriminator 1 view .LVU361
 1247 0054 074B     		ldr	r3, .L124+4
 1248 0056 1B78     		ldrb	r3, [r3]	@ zero_extendqisi2
 1249 0058 012B     		cmp	r3, #1
 1250 005a 01D8     		bhi	.L123
 1251              	.LVL162:
 1252              	.L116:
 137:../switch_sdk/core/yt/yt_vlan_translate.c **** 
 1253              		.loc 1 137 5 discriminator 5 view .LVU362
 137:../switch_sdk/core/yt/yt_vlan_translate.c **** 
 1254              		.loc 1 137 5 discriminator 5 view .LVU363
 137:../switch_sdk/core/yt/yt_vlan_translate.c **** 
 1255              		.loc 1 137 5 discriminator 5 view .LVU364
 1256 005c 0420     		movs	r0, #4
 1257 005e DCE7     		b	.L109
 1258              	.LVL163:
 1259              	.L123:
 137:../switch_sdk/core/yt/yt_vlan_translate.c **** 
 1260              		.loc 1 137 5 discriminator 3 view .LVU365
 1261              	.LBB26:
 137:../switch_sdk/core/yt/yt_vlan_translate.c **** 
 1262              		.loc 1 137 5 discriminator 3 view .LVU366
 1263 0060 054B     		ldr	r3, .L124+8
 1264 0062 1A69     		ldr	r2, [r3, #16]
 1265 0064 054B     		ldr	r3, .L124+12
 1266 0066 9968     		ldr	r1, [r3, #8]
 1267              	.LVL164:
 137:../switch_sdk/core/yt/yt_vlan_translate.c **** 
 1268              		.loc 1 137 5 is_stmt 0 discriminator 3 view .LVU367
 1269 0068 0548     		ldr	r0, .L124+16
 1270 006a FFF7FEFF 		bl	osal_printf
 1271              	.LVL165:
 1272 006e F5E7     		b	.L116
 1273              	.L125:
 1274              		.align	2
 1275              	.L124:
 1276 0070 00000000 		.word	gpfal_dispatch
 1277 0074 00000000 		.word	yt_debug_level
 1278 0078 00000000 		.word	_yt_errmsg
 1279 007c 00000000 		.word	_yt_prompt_msg
 1280 0080 00000000 		.word	.LC0
 1281              	.LBE26:
 1282              		.cfi_endproc
 1283              	.LFE7:
 1285              		.section	.text.yt_vlan_trans_port_rangeProfileSel_set,"ax",%progbits
 1286              		.align	1
 1287              		.global	yt_vlan_trans_port_rangeProfileSel_set
 1288              		.syntax unified
 1289              		.thumb
 1290              		.thumb_func
 1292              	yt_vlan_trans_port_rangeProfileSel_set:
 1293              	.LVL166:
 1294              	.LFB8:
 141:../switch_sdk/core/yt/yt_vlan_translate.c **** 
 142:../switch_sdk/core/yt/yt_vlan_translate.c **** /**
 143:../switch_sdk/core/yt/yt_vlan_translate.c ****  * @internal      yt_vlan_trans_port_rangeProfileSel_set
 144:../switch_sdk/core/yt/yt_vlan_translate.c ****  * @endinternal
 145:../switch_sdk/core/yt/yt_vlan_translate.c ****  *
 146:../switch_sdk/core/yt/yt_vlan_translate.c ****  * @brief         Description
 147:../switch_sdk/core/yt/yt_vlan_translate.c ****  * @note          APPLICABLE DEVICES  -Tiger
 148:../switch_sdk/core/yt/yt_vlan_translate.c ****  * @param[in]     unit                -unit id
 149:../switch_sdk/core/yt/yt_vlan_translate.c ****  * @param[in]     port                -port num
 150:../switch_sdk/core/yt/yt_vlan_translate.c ****  * @param[in]     profile_id          -ingress vlan profile index
 151:../switch_sdk/core/yt/yt_vlan_translate.c ****  * @retval        CMM_ERR_OK          -on success
 152:../switch_sdk/core/yt/yt_vlan_translate.c ****  * @retval        CMM_ERR_FAIL        -on fail
 153:../switch_sdk/core/yt/yt_vlan_translate.c ****  */
 154:../switch_sdk/core/yt/yt_vlan_translate.c **** yt_ret_t  yt_vlan_trans_port_rangeProfileSel_set(yt_unit_t unit, yt_port_t  port, yt_profile_id_t p
 155:../switch_sdk/core/yt/yt_vlan_translate.c **** {
 1295              		.loc 1 155 1 is_stmt 1 view -0
 1296              		.cfi_startproc
 1297              		@ args = 0, pretend = 0, frame = 0
 1298              		@ frame_needed = 0, uses_anonymous_args = 0
 1299              		.loc 1 155 1 is_stmt 0 view .LVU369
 1300 0000 08B5     		push	{r3, lr}
 1301              		.cfi_def_cfa_offset 8
 1302              		.cfi_offset 3, -8
 1303              		.cfi_offset 14, -4
 156:../switch_sdk/core/yt/yt_vlan_translate.c ****     CMM_PARAM_CHK((YT_UNIT_NUM <= unit), CMM_ERR_INPUT);
 1304              		.loc 1 156 5 is_stmt 1 view .LVU370
 1305              		.loc 1 156 5 view .LVU371
 1306 0002 A8B9     		cbnz	r0, .L138
 1307 0004 8446     		mov	ip, r0
 1308              		.loc 1 156 5 discriminator 2 view .LVU372
 157:../switch_sdk/core/yt/yt_vlan_translate.c ****     CMM_PARAM_CHK(NULL == YT_DISPATCH(unit), CMM_ERR_NOT_INIT);
 1309              		.loc 1 157 5 discriminator 2 view .LVU373
 1310              		.loc 1 157 5 discriminator 2 view .LVU374
 1311 0006 264B     		ldr	r3, .L145
 1312 0008 53F82030 		ldr	r3, [r3, r0, lsl #2]
 1313 000c F3B1     		cbz	r3, .L139
 1314              		.loc 1 157 5 discriminator 2 view .LVU375
 158:../switch_sdk/core/yt/yt_vlan_translate.c ****     CMM_PARAM_CHK((!(YT_DISPATCH(unit)->is_inited)), CMM_ERR_NOT_INIT);
 1315              		.loc 1 158 5 discriminator 2 view .LVU376
 1316              		.loc 1 158 5 discriminator 2 view .LVU377
 1317 000e 1878     		ldrb	r0, [r3]	@ zero_extendqisi2
 1318              	.LVL167:
 1319              		.loc 1 158 5 is_stmt 0 discriminator 2 view .LVU378
 1320 0010 50B3     		cbz	r0, .L140
 1321              		.loc 1 158 5 is_stmt 1 discriminator 2 view .LVU379
 159:../switch_sdk/core/yt/yt_vlan_translate.c ****     CMM_PARAM_CHK((!(CMM_PORT_VALID(unit, port))), CMM_ERR_PORT);
 1322              		.loc 1 159 5 discriminator 2 view .LVU380
 1323              		.loc 1 159 5 discriminator 2 view .LVU381
 1324 0012 2448     		ldr	r0, .L145+4
 1325 0014 0078     		ldrb	r0, [r0]	@ zero_extendqisi2
 1326 0016 0028     		cmp	r0, #0
 1327 0018 34D0     		beq	.L134
 1328 001a 2348     		ldr	r0, .L145+8
 1329 001c 50F82C00 		ldr	r0, [r0, ip, lsl #2]
 1330 0020 007D     		ldrb	r0, [r0, #20]	@ zero_extendqisi2
 1331 0022 8842     		cmp	r0, r1
 1332 0024 2ED9     		bls	.L134
 1333              		.loc 1 159 5 discriminator 4 view .LVU382
 160:../switch_sdk/core/yt/yt_vlan_translate.c **** 
 161:../switch_sdk/core/yt/yt_vlan_translate.c ****     return YT_DISPATCH(unit)->vlan_trans_port_rangeProfileSel_set(unit, port, profile_id);
 1334              		.loc 1 161 5 discriminator 4 view .LVU383
 1335              		.loc 1 161 29 is_stmt 0 discriminator 4 view .LVU384
 1336 0026 D3F8B030 		ldr	r3, [r3, #176]
 1337              		.loc 1 161 12 discriminator 4 view .LVU385
 1338 002a 6046     		mov	r0, ip
 1339 002c 9847     		blx	r3
 1340              	.LVL168:
 1341              	.L126:
 162:../switch_sdk/core/yt/yt_vlan_translate.c **** }
 1342              		.loc 1 162 1 view .LVU386
 1343 002e 08BD     		pop	{r3, pc}
 1344              	.LVL169:
 1345              	.L138:
 156:../switch_sdk/core/yt/yt_vlan_translate.c ****     CMM_PARAM_CHK(NULL == YT_DISPATCH(unit), CMM_ERR_NOT_INIT);
 1346              		.loc 1 156 5 is_stmt 1 discriminator 1 view .LVU387
 156:../switch_sdk/core/yt/yt_vlan_translate.c ****     CMM_PARAM_CHK(NULL == YT_DISPATCH(unit), CMM_ERR_NOT_INIT);
 1347              		.loc 1 156 5 discriminator 1 view .LVU388
 1348 0030 1E4B     		ldr	r3, .L145+12
 1349 0032 1B78     		ldrb	r3, [r3]	@ zero_extendqisi2
 1350 0034 012B     		cmp	r3, #1
 1351 0036 01D8     		bhi	.L141
 1352              	.LVL170:
 1353              	.L128:
 156:../switch_sdk/core/yt/yt_vlan_translate.c ****     CMM_PARAM_CHK(NULL == YT_DISPATCH(unit), CMM_ERR_NOT_INIT);
 1354              		.loc 1 156 5 discriminator 5 view .LVU389
 156:../switch_sdk/core/yt/yt_vlan_translate.c ****     CMM_PARAM_CHK(NULL == YT_DISPATCH(unit), CMM_ERR_NOT_INIT);
 1355              		.loc 1 156 5 discriminator 5 view .LVU390
 156:../switch_sdk/core/yt/yt_vlan_translate.c ****     CMM_PARAM_CHK(NULL == YT_DISPATCH(unit), CMM_ERR_NOT_INIT);
 1356              		.loc 1 156 5 discriminator 5 view .LVU391
 1357 0038 0520     		movs	r0, #5
 1358 003a F8E7     		b	.L126
 1359              	.LVL171:
 1360              	.L141:
 156:../switch_sdk/core/yt/yt_vlan_translate.c ****     CMM_PARAM_CHK(NULL == YT_DISPATCH(unit), CMM_ERR_NOT_INIT);
 1361              		.loc 1 156 5 discriminator 3 view .LVU392
 1362              	.LBB27:
 156:../switch_sdk/core/yt/yt_vlan_translate.c ****     CMM_PARAM_CHK(NULL == YT_DISPATCH(unit), CMM_ERR_NOT_INIT);
 1363              		.loc 1 156 5 discriminator 3 view .LVU393
 1364 003c 1C4B     		ldr	r3, .L145+16
 1365 003e 5A69     		ldr	r2, [r3, #20]
 1366              	.LVL172:
 156:../switch_sdk/core/yt/yt_vlan_translate.c ****     CMM_PARAM_CHK(NULL == YT_DISPATCH(unit), CMM_ERR_NOT_INIT);
 1367              		.loc 1 156 5 is_stmt 0 discriminator 3 view .LVU394
 1368 0040 1C4B     		ldr	r3, .L145+20
 1369 0042 9968     		ldr	r1, [r3, #8]
 1370              	.LVL173:
 156:../switch_sdk/core/yt/yt_vlan_translate.c ****     CMM_PARAM_CHK(NULL == YT_DISPATCH(unit), CMM_ERR_NOT_INIT);
 1371              		.loc 1 156 5 discriminator 3 view .LVU395
 1372 0044 1C48     		ldr	r0, .L145+24
 1373              	.LVL174:
 156:../switch_sdk/core/yt/yt_vlan_translate.c ****     CMM_PARAM_CHK(NULL == YT_DISPATCH(unit), CMM_ERR_NOT_INIT);
 1374              		.loc 1 156 5 discriminator 3 view .LVU396
 1375 0046 FFF7FEFF 		bl	osal_printf
 1376              	.LVL175:
 1377 004a F5E7     		b	.L128
 1378              	.LVL176:
 1379              	.L139:
 156:../switch_sdk/core/yt/yt_vlan_translate.c ****     CMM_PARAM_CHK(NULL == YT_DISPATCH(unit), CMM_ERR_NOT_INIT);
 1380              		.loc 1 156 5 discriminator 3 view .LVU397
 1381              	.LBE27:
 157:../switch_sdk/core/yt/yt_vlan_translate.c ****     CMM_PARAM_CHK((!(YT_DISPATCH(unit)->is_inited)), CMM_ERR_NOT_INIT);
 1382              		.loc 1 157 5 is_stmt 1 discriminator 1 view .LVU398
 157:../switch_sdk/core/yt/yt_vlan_translate.c ****     CMM_PARAM_CHK((!(YT_DISPATCH(unit)->is_inited)), CMM_ERR_NOT_INIT);
 1383              		.loc 1 157 5 discriminator 1 view .LVU399
 1384 004c 174B     		ldr	r3, .L145+12
 1385 004e 1B78     		ldrb	r3, [r3]	@ zero_extendqisi2
 1386 0050 012B     		cmp	r3, #1
 1387 0052 01D8     		bhi	.L142
 1388              	.LVL177:
 1389              	.L131:
 157:../switch_sdk/core/yt/yt_vlan_translate.c ****     CMM_PARAM_CHK((!(YT_DISPATCH(unit)->is_inited)), CMM_ERR_NOT_INIT);
 1390              		.loc 1 157 5 discriminator 5 view .LVU400
 157:../switch_sdk/core/yt/yt_vlan_translate.c ****     CMM_PARAM_CHK((!(YT_DISPATCH(unit)->is_inited)), CMM_ERR_NOT_INIT);
 1391              		.loc 1 157 5 discriminator 5 view .LVU401
 157:../switch_sdk/core/yt/yt_vlan_translate.c ****     CMM_PARAM_CHK((!(YT_DISPATCH(unit)->is_inited)), CMM_ERR_NOT_INIT);
 1392              		.loc 1 157 5 discriminator 5 view .LVU402
 1393 0054 0420     		movs	r0, #4
 1394 0056 EAE7     		b	.L126
 1395              	.LVL178:
 1396              	.L142:
 157:../switch_sdk/core/yt/yt_vlan_translate.c ****     CMM_PARAM_CHK((!(YT_DISPATCH(unit)->is_inited)), CMM_ERR_NOT_INIT);
 1397              		.loc 1 157 5 discriminator 3 view .LVU403
 1398              	.LBB28:
 157:../switch_sdk/core/yt/yt_vlan_translate.c ****     CMM_PARAM_CHK((!(YT_DISPATCH(unit)->is_inited)), CMM_ERR_NOT_INIT);
 1399              		.loc 1 157 5 discriminator 3 view .LVU404
 1400 0058 154B     		ldr	r3, .L145+16
 1401 005a 1A69     		ldr	r2, [r3, #16]
 1402              	.LVL179:
 157:../switch_sdk/core/yt/yt_vlan_translate.c ****     CMM_PARAM_CHK((!(YT_DISPATCH(unit)->is_inited)), CMM_ERR_NOT_INIT);
 1403              		.loc 1 157 5 is_stmt 0 discriminator 3 view .LVU405
 1404 005c 154B     		ldr	r3, .L145+20
 1405 005e 9968     		ldr	r1, [r3, #8]
 1406              	.LVL180:
 157:../switch_sdk/core/yt/yt_vlan_translate.c ****     CMM_PARAM_CHK((!(YT_DISPATCH(unit)->is_inited)), CMM_ERR_NOT_INIT);
 1407              		.loc 1 157 5 discriminator 3 view .LVU406
 1408 0060 1548     		ldr	r0, .L145+24
 1409              	.LVL181:
 157:../switch_sdk/core/yt/yt_vlan_translate.c ****     CMM_PARAM_CHK((!(YT_DISPATCH(unit)->is_inited)), CMM_ERR_NOT_INIT);
 1410              		.loc 1 157 5 discriminator 3 view .LVU407
 1411 0062 FFF7FEFF 		bl	osal_printf
 1412              	.LVL182:
 1413 0066 F5E7     		b	.L131
 1414              	.LVL183:
 1415              	.L140:
 157:../switch_sdk/core/yt/yt_vlan_translate.c ****     CMM_PARAM_CHK((!(YT_DISPATCH(unit)->is_inited)), CMM_ERR_NOT_INIT);
 1416              		.loc 1 157 5 discriminator 3 view .LVU408
 1417              	.LBE28:
 158:../switch_sdk/core/yt/yt_vlan_translate.c ****     CMM_PARAM_CHK((!(CMM_PORT_VALID(unit, port))), CMM_ERR_PORT);
 1418              		.loc 1 158 5 is_stmt 1 discriminator 1 view .LVU409
 158:../switch_sdk/core/yt/yt_vlan_translate.c ****     CMM_PARAM_CHK((!(CMM_PORT_VALID(unit, port))), CMM_ERR_PORT);
 1419              		.loc 1 158 5 discriminator 1 view .LVU410
 1420 0068 104B     		ldr	r3, .L145+12
 1421 006a 1B78     		ldrb	r3, [r3]	@ zero_extendqisi2
 1422 006c 012B     		cmp	r3, #1
 1423 006e 01D8     		bhi	.L143
 1424              	.LVL184:
 1425              	.L133:
 158:../switch_sdk/core/yt/yt_vlan_translate.c ****     CMM_PARAM_CHK((!(CMM_PORT_VALID(unit, port))), CMM_ERR_PORT);
 1426              		.loc 1 158 5 discriminator 5 view .LVU411
 158:../switch_sdk/core/yt/yt_vlan_translate.c ****     CMM_PARAM_CHK((!(CMM_PORT_VALID(unit, port))), CMM_ERR_PORT);
 1427              		.loc 1 158 5 discriminator 5 view .LVU412
 158:../switch_sdk/core/yt/yt_vlan_translate.c ****     CMM_PARAM_CHK((!(CMM_PORT_VALID(unit, port))), CMM_ERR_PORT);
 1428              		.loc 1 158 5 discriminator 5 view .LVU413
 1429 0070 0420     		movs	r0, #4
 1430 0072 DCE7     		b	.L126
 1431              	.LVL185:
 1432              	.L143:
 158:../switch_sdk/core/yt/yt_vlan_translate.c ****     CMM_PARAM_CHK((!(CMM_PORT_VALID(unit, port))), CMM_ERR_PORT);
 1433              		.loc 1 158 5 discriminator 3 view .LVU414
 1434              	.LBB29:
 158:../switch_sdk/core/yt/yt_vlan_translate.c ****     CMM_PARAM_CHK((!(CMM_PORT_VALID(unit, port))), CMM_ERR_PORT);
 1435              		.loc 1 158 5 discriminator 3 view .LVU415
 1436 0074 0E4B     		ldr	r3, .L145+16
 1437 0076 1A69     		ldr	r2, [r3, #16]
 1438              	.LVL186:
 158:../switch_sdk/core/yt/yt_vlan_translate.c ****     CMM_PARAM_CHK((!(CMM_PORT_VALID(unit, port))), CMM_ERR_PORT);
 1439              		.loc 1 158 5 is_stmt 0 discriminator 3 view .LVU416
 1440 0078 0E4B     		ldr	r3, .L145+20
 1441 007a 9968     		ldr	r1, [r3, #8]
 1442              	.LVL187:
 158:../switch_sdk/core/yt/yt_vlan_translate.c ****     CMM_PARAM_CHK((!(CMM_PORT_VALID(unit, port))), CMM_ERR_PORT);
 1443              		.loc 1 158 5 discriminator 3 view .LVU417
 1444 007c 0E48     		ldr	r0, .L145+24
 1445 007e FFF7FEFF 		bl	osal_printf
 1446              	.LVL188:
 1447 0082 F5E7     		b	.L133
 1448              	.LVL189:
 1449              	.L134:
 158:../switch_sdk/core/yt/yt_vlan_translate.c ****     CMM_PARAM_CHK((!(CMM_PORT_VALID(unit, port))), CMM_ERR_PORT);
 1450              		.loc 1 158 5 discriminator 3 view .LVU418
 1451              	.LBE29:
 159:../switch_sdk/core/yt/yt_vlan_translate.c **** 
 1452              		.loc 1 159 5 is_stmt 1 discriminator 3 view .LVU419
 159:../switch_sdk/core/yt/yt_vlan_translate.c **** 
 1453              		.loc 1 159 5 discriminator 3 view .LVU420
 1454 0084 094B     		ldr	r3, .L145+12
 1455 0086 1B78     		ldrb	r3, [r3]	@ zero_extendqisi2
 1456 0088 012B     		cmp	r3, #1
 1457 008a 01D8     		bhi	.L144
 1458              	.LVL190:
 1459              	.L136:
 159:../switch_sdk/core/yt/yt_vlan_translate.c **** 
 1460              		.loc 1 159 5 discriminator 7 view .LVU421
 159:../switch_sdk/core/yt/yt_vlan_translate.c **** 
 1461              		.loc 1 159 5 discriminator 7 view .LVU422
 159:../switch_sdk/core/yt/yt_vlan_translate.c **** 
 1462              		.loc 1 159 5 discriminator 7 view .LVU423
 1463 008c 0E20     		movs	r0, #14
 1464 008e CEE7     		b	.L126
 1465              	.LVL191:
 1466              	.L144:
 159:../switch_sdk/core/yt/yt_vlan_translate.c **** 
 1467              		.loc 1 159 5 discriminator 5 view .LVU424
 1468              	.LBB30:
 159:../switch_sdk/core/yt/yt_vlan_translate.c **** 
 1469              		.loc 1 159 5 discriminator 5 view .LVU425
 1470 0090 074B     		ldr	r3, .L145+16
 1471 0092 9A6B     		ldr	r2, [r3, #56]
 1472              	.LVL192:
 159:../switch_sdk/core/yt/yt_vlan_translate.c **** 
 1473              		.loc 1 159 5 is_stmt 0 discriminator 5 view .LVU426
 1474 0094 074B     		ldr	r3, .L145+20
 1475 0096 9968     		ldr	r1, [r3, #8]
 1476              	.LVL193:
 159:../switch_sdk/core/yt/yt_vlan_translate.c **** 
 1477              		.loc 1 159 5 discriminator 5 view .LVU427
 1478 0098 0748     		ldr	r0, .L145+24
 1479 009a FFF7FEFF 		bl	osal_printf
 1480              	.LVL194:
 1481 009e F5E7     		b	.L136
 1482              	.L146:
 1483              		.align	2
 1484              	.L145:
 1485 00a0 00000000 		.word	gpfal_dispatch
 1486 00a4 00000000 		.word	gcal_inited
 1487 00a8 00000000 		.word	gpSwitchUnit
 1488 00ac 00000000 		.word	yt_debug_level
 1489 00b0 00000000 		.word	_yt_errmsg
 1490 00b4 00000000 		.word	_yt_prompt_msg
 1491 00b8 00000000 		.word	.LC0
 1492              	.LBE30:
 1493              		.cfi_endproc
 1494              	.LFE8:
 1496              		.section	.text.yt_vlan_trans_port_rangeProfileSel_get,"ax",%progbits
 1497              		.align	1
 1498              		.global	yt_vlan_trans_port_rangeProfileSel_get
 1499              		.syntax unified
 1500              		.thumb
 1501              		.thumb_func
 1503              	yt_vlan_trans_port_rangeProfileSel_get:
 1504              	.LVL195:
 1505              	.LFB9:
 163:../switch_sdk/core/yt/yt_vlan_translate.c **** 
 164:../switch_sdk/core/yt/yt_vlan_translate.c **** /**
 165:../switch_sdk/core/yt/yt_vlan_translate.c ****  * @internal      yt_vlan_trans_port_rangeProfileSel_get
 166:../switch_sdk/core/yt/yt_vlan_translate.c ****  * @endinternal
 167:../switch_sdk/core/yt/yt_vlan_translate.c ****  *
 168:../switch_sdk/core/yt/yt_vlan_translate.c ****  * @brief         Description
 169:../switch_sdk/core/yt/yt_vlan_translate.c ****  * @note          APPLICABLE DEVICES  -Tiger
 170:../switch_sdk/core/yt/yt_vlan_translate.c ****  * @param[in]     unit                -unit id
 171:../switch_sdk/core/yt/yt_vlan_translate.c ****  * @param[in]     port                -port num
 172:../switch_sdk/core/yt/yt_vlan_translate.c ****  * @param[out]    pProfile_id         -ingress vlan profile index
 173:../switch_sdk/core/yt/yt_vlan_translate.c ****  * @retval        CMM_ERR_OK          -on success
 174:../switch_sdk/core/yt/yt_vlan_translate.c ****  * @retval        CMM_ERR_FAIL        -on fail
 175:../switch_sdk/core/yt/yt_vlan_translate.c ****  */
 176:../switch_sdk/core/yt/yt_vlan_translate.c **** yt_ret_t  yt_vlan_trans_port_rangeProfileSel_get(yt_unit_t unit, yt_port_t  port, yt_profile_id_t *
 177:../switch_sdk/core/yt/yt_vlan_translate.c **** {
 1506              		.loc 1 177 1 is_stmt 1 view -0
 1507              		.cfi_startproc
 1508              		@ args = 0, pretend = 0, frame = 0
 1509              		@ frame_needed = 0, uses_anonymous_args = 0
 1510              		.loc 1 177 1 is_stmt 0 view .LVU429
 1511 0000 08B5     		push	{r3, lr}
 1512              		.cfi_def_cfa_offset 8
 1513              		.cfi_offset 3, -8
 1514              		.cfi_offset 14, -4
 178:../switch_sdk/core/yt/yt_vlan_translate.c ****     CMM_PARAM_CHK((YT_UNIT_NUM <= unit), CMM_ERR_INPUT);
 1515              		.loc 1 178 5 is_stmt 1 view .LVU430
 1516              		.loc 1 178 5 view .LVU431
 1517 0002 C0B9     		cbnz	r0, .L161
 1518 0004 8446     		mov	ip, r0
 1519              		.loc 1 178 5 discriminator 2 view .LVU432
 179:../switch_sdk/core/yt/yt_vlan_translate.c ****     CMM_PARAM_CHK(NULL == YT_DISPATCH(unit), CMM_ERR_NOT_INIT);
 1520              		.loc 1 179 5 discriminator 2 view .LVU433
 1521              		.loc 1 179 5 discriminator 2 view .LVU434
 1522 0006 2F4B     		ldr	r3, .L170
 1523 0008 53F82030 		ldr	r3, [r3, r0, lsl #2]
 1524 000c 0BB3     		cbz	r3, .L162
 1525              		.loc 1 179 5 discriminator 2 view .LVU435
 180:../switch_sdk/core/yt/yt_vlan_translate.c ****     CMM_PARAM_CHK((!(YT_DISPATCH(unit)->is_inited)), CMM_ERR_NOT_INIT);
 1526              		.loc 1 180 5 discriminator 2 view .LVU436
 1527              		.loc 1 180 5 discriminator 2 view .LVU437
 1528 000e 1878     		ldrb	r0, [r3]	@ zero_extendqisi2
 1529              	.LVL196:
 1530              		.loc 1 180 5 is_stmt 0 discriminator 2 view .LVU438
 1531 0010 0028     		cmp	r0, #0
 1532 0012 2CD0     		beq	.L163
 1533              		.loc 1 180 5 is_stmt 1 discriminator 2 view .LVU439
 181:../switch_sdk/core/yt/yt_vlan_translate.c ****     CMM_PARAM_CHK((!(CMM_PORT_VALID(unit, port))), CMM_ERR_PORT);
 1534              		.loc 1 181 5 discriminator 2 view .LVU440
 1535              		.loc 1 181 5 discriminator 2 view .LVU441
 1536 0014 2C48     		ldr	r0, .L170+4
 1537 0016 0078     		ldrb	r0, [r0]	@ zero_extendqisi2
 1538 0018 0028     		cmp	r0, #0
 1539 001a 36D0     		beq	.L155
 1540 001c 2B48     		ldr	r0, .L170+8
 1541 001e 50F82C00 		ldr	r0, [r0, ip, lsl #2]
 1542 0022 007D     		ldrb	r0, [r0, #20]	@ zero_extendqisi2
 1543 0024 8842     		cmp	r0, r1
 1544 0026 30D9     		bls	.L155
 1545              		.loc 1 181 5 discriminator 4 view .LVU442
 182:../switch_sdk/core/yt/yt_vlan_translate.c ****     CMM_PARAM_CHK((NULL == pProfile_id), CMM_ERR_NULL_POINT);
 1546              		.loc 1 182 5 discriminator 4 view .LVU443
 1547              		.loc 1 182 5 discriminator 4 view .LVU444
 1548 0028 002A     		cmp	r2, #0
 1549 002a 3CD0     		beq	.L164
 1550              		.loc 1 182 5 discriminator 2 view .LVU445
 183:../switch_sdk/core/yt/yt_vlan_translate.c **** 
 184:../switch_sdk/core/yt/yt_vlan_translate.c ****     return YT_DISPATCH(unit)->vlan_trans_port_rangeProfileSel_get(unit, port, pProfile_id);
 1551              		.loc 1 184 5 discriminator 2 view .LVU446
 1552              		.loc 1 184 29 is_stmt 0 discriminator 2 view .LVU447
 1553 002c D3F8B430 		ldr	r3, [r3, #180]
 1554              		.loc 1 184 12 discriminator 2 view .LVU448
 1555 0030 6046     		mov	r0, ip
 1556 0032 9847     		blx	r3
 1557              	.LVL197:
 1558              	.L147:
 185:../switch_sdk/core/yt/yt_vlan_translate.c **** }
 1559              		.loc 1 185 1 view .LVU449
 1560 0034 08BD     		pop	{r3, pc}
 1561              	.LVL198:
 1562              	.L161:
 178:../switch_sdk/core/yt/yt_vlan_translate.c ****     CMM_PARAM_CHK(NULL == YT_DISPATCH(unit), CMM_ERR_NOT_INIT);
 1563              		.loc 1 178 5 is_stmt 1 discriminator 1 view .LVU450
 178:../switch_sdk/core/yt/yt_vlan_translate.c ****     CMM_PARAM_CHK(NULL == YT_DISPATCH(unit), CMM_ERR_NOT_INIT);
 1564              		.loc 1 178 5 discriminator 1 view .LVU451
 1565 0036 264B     		ldr	r3, .L170+12
 1566 0038 1B78     		ldrb	r3, [r3]	@ zero_extendqisi2
 1567 003a 012B     		cmp	r3, #1
 1568 003c 01D8     		bhi	.L165
 1569              	.LVL199:
 1570              	.L149:
 178:../switch_sdk/core/yt/yt_vlan_translate.c ****     CMM_PARAM_CHK(NULL == YT_DISPATCH(unit), CMM_ERR_NOT_INIT);
 1571              		.loc 1 178 5 discriminator 5 view .LVU452
 178:../switch_sdk/core/yt/yt_vlan_translate.c ****     CMM_PARAM_CHK(NULL == YT_DISPATCH(unit), CMM_ERR_NOT_INIT);
 1572              		.loc 1 178 5 discriminator 5 view .LVU453
 178:../switch_sdk/core/yt/yt_vlan_translate.c ****     CMM_PARAM_CHK(NULL == YT_DISPATCH(unit), CMM_ERR_NOT_INIT);
 1573              		.loc 1 178 5 discriminator 5 view .LVU454
 1574 003e 0520     		movs	r0, #5
 1575 0040 F8E7     		b	.L147
 1576              	.LVL200:
 1577              	.L165:
 178:../switch_sdk/core/yt/yt_vlan_translate.c ****     CMM_PARAM_CHK(NULL == YT_DISPATCH(unit), CMM_ERR_NOT_INIT);
 1578              		.loc 1 178 5 discriminator 3 view .LVU455
 1579              	.LBB31:
 178:../switch_sdk/core/yt/yt_vlan_translate.c ****     CMM_PARAM_CHK(NULL == YT_DISPATCH(unit), CMM_ERR_NOT_INIT);
 1580              		.loc 1 178 5 discriminator 3 view .LVU456
 1581 0042 244B     		ldr	r3, .L170+16
 1582 0044 5A69     		ldr	r2, [r3, #20]
 1583              	.LVL201:
 178:../switch_sdk/core/yt/yt_vlan_translate.c ****     CMM_PARAM_CHK(NULL == YT_DISPATCH(unit), CMM_ERR_NOT_INIT);
 1584              		.loc 1 178 5 is_stmt 0 discriminator 3 view .LVU457
 1585 0046 244B     		ldr	r3, .L170+20
 1586 0048 9968     		ldr	r1, [r3, #8]
 1587              	.LVL202:
 178:../switch_sdk/core/yt/yt_vlan_translate.c ****     CMM_PARAM_CHK(NULL == YT_DISPATCH(unit), CMM_ERR_NOT_INIT);
 1588              		.loc 1 178 5 discriminator 3 view .LVU458
 1589 004a 2448     		ldr	r0, .L170+24
 1590              	.LVL203:
 178:../switch_sdk/core/yt/yt_vlan_translate.c ****     CMM_PARAM_CHK(NULL == YT_DISPATCH(unit), CMM_ERR_NOT_INIT);
 1591              		.loc 1 178 5 discriminator 3 view .LVU459
 1592 004c FFF7FEFF 		bl	osal_printf
 1593              	.LVL204:
 1594 0050 F5E7     		b	.L149
 1595              	.LVL205:
 1596              	.L162:
 178:../switch_sdk/core/yt/yt_vlan_translate.c ****     CMM_PARAM_CHK(NULL == YT_DISPATCH(unit), CMM_ERR_NOT_INIT);
 1597              		.loc 1 178 5 discriminator 3 view .LVU460
 1598              	.LBE31:
 179:../switch_sdk/core/yt/yt_vlan_translate.c ****     CMM_PARAM_CHK((!(YT_DISPATCH(unit)->is_inited)), CMM_ERR_NOT_INIT);
 1599              		.loc 1 179 5 is_stmt 1 discriminator 1 view .LVU461
 179:../switch_sdk/core/yt/yt_vlan_translate.c ****     CMM_PARAM_CHK((!(YT_DISPATCH(unit)->is_inited)), CMM_ERR_NOT_INIT);
 1600              		.loc 1 179 5 discriminator 1 view .LVU462
 1601 0052 1F4B     		ldr	r3, .L170+12
 1602 0054 1B78     		ldrb	r3, [r3]	@ zero_extendqisi2
 1603 0056 012B     		cmp	r3, #1
 1604 0058 01D8     		bhi	.L166
 1605              	.LVL206:
 1606              	.L152:
 179:../switch_sdk/core/yt/yt_vlan_translate.c ****     CMM_PARAM_CHK((!(YT_DISPATCH(unit)->is_inited)), CMM_ERR_NOT_INIT);
 1607              		.loc 1 179 5 discriminator 5 view .LVU463
 179:../switch_sdk/core/yt/yt_vlan_translate.c ****     CMM_PARAM_CHK((!(YT_DISPATCH(unit)->is_inited)), CMM_ERR_NOT_INIT);
 1608              		.loc 1 179 5 discriminator 5 view .LVU464
 179:../switch_sdk/core/yt/yt_vlan_translate.c ****     CMM_PARAM_CHK((!(YT_DISPATCH(unit)->is_inited)), CMM_ERR_NOT_INIT);
 1609              		.loc 1 179 5 discriminator 5 view .LVU465
 1610 005a 0420     		movs	r0, #4
 1611 005c EAE7     		b	.L147
 1612              	.LVL207:
 1613              	.L166:
 179:../switch_sdk/core/yt/yt_vlan_translate.c ****     CMM_PARAM_CHK((!(YT_DISPATCH(unit)->is_inited)), CMM_ERR_NOT_INIT);
 1614              		.loc 1 179 5 discriminator 3 view .LVU466
 1615              	.LBB32:
 179:../switch_sdk/core/yt/yt_vlan_translate.c ****     CMM_PARAM_CHK((!(YT_DISPATCH(unit)->is_inited)), CMM_ERR_NOT_INIT);
 1616              		.loc 1 179 5 discriminator 3 view .LVU467
 1617 005e 1D4B     		ldr	r3, .L170+16
 1618 0060 1A69     		ldr	r2, [r3, #16]
 1619              	.LVL208:
 179:../switch_sdk/core/yt/yt_vlan_translate.c ****     CMM_PARAM_CHK((!(YT_DISPATCH(unit)->is_inited)), CMM_ERR_NOT_INIT);
 1620              		.loc 1 179 5 is_stmt 0 discriminator 3 view .LVU468
 1621 0062 1D4B     		ldr	r3, .L170+20
 1622 0064 9968     		ldr	r1, [r3, #8]
 1623              	.LVL209:
 179:../switch_sdk/core/yt/yt_vlan_translate.c ****     CMM_PARAM_CHK((!(YT_DISPATCH(unit)->is_inited)), CMM_ERR_NOT_INIT);
 1624              		.loc 1 179 5 discriminator 3 view .LVU469
 1625 0066 1D48     		ldr	r0, .L170+24
 1626              	.LVL210:
 179:../switch_sdk/core/yt/yt_vlan_translate.c ****     CMM_PARAM_CHK((!(YT_DISPATCH(unit)->is_inited)), CMM_ERR_NOT_INIT);
 1627              		.loc 1 179 5 discriminator 3 view .LVU470
 1628 0068 FFF7FEFF 		bl	osal_printf
 1629              	.LVL211:
 1630 006c F5E7     		b	.L152
 1631              	.LVL212:
 1632              	.L163:
 179:../switch_sdk/core/yt/yt_vlan_translate.c ****     CMM_PARAM_CHK((!(YT_DISPATCH(unit)->is_inited)), CMM_ERR_NOT_INIT);
 1633              		.loc 1 179 5 discriminator 3 view .LVU471
 1634              	.LBE32:
 180:../switch_sdk/core/yt/yt_vlan_translate.c ****     CMM_PARAM_CHK((!(CMM_PORT_VALID(unit, port))), CMM_ERR_PORT);
 1635              		.loc 1 180 5 is_stmt 1 discriminator 1 view .LVU472
 180:../switch_sdk/core/yt/yt_vlan_translate.c ****     CMM_PARAM_CHK((!(CMM_PORT_VALID(unit, port))), CMM_ERR_PORT);
 1636              		.loc 1 180 5 discriminator 1 view .LVU473
 1637 006e 184B     		ldr	r3, .L170+12
 1638 0070 1B78     		ldrb	r3, [r3]	@ zero_extendqisi2
 1639 0072 012B     		cmp	r3, #1
 1640 0074 01D8     		bhi	.L167
 1641              	.LVL213:
 1642              	.L154:
 180:../switch_sdk/core/yt/yt_vlan_translate.c ****     CMM_PARAM_CHK((!(CMM_PORT_VALID(unit, port))), CMM_ERR_PORT);
 1643              		.loc 1 180 5 discriminator 5 view .LVU474
 180:../switch_sdk/core/yt/yt_vlan_translate.c ****     CMM_PARAM_CHK((!(CMM_PORT_VALID(unit, port))), CMM_ERR_PORT);
 1644              		.loc 1 180 5 discriminator 5 view .LVU475
 180:../switch_sdk/core/yt/yt_vlan_translate.c ****     CMM_PARAM_CHK((!(CMM_PORT_VALID(unit, port))), CMM_ERR_PORT);
 1645              		.loc 1 180 5 discriminator 5 view .LVU476
 1646 0076 0420     		movs	r0, #4
 1647 0078 DCE7     		b	.L147
 1648              	.LVL214:
 1649              	.L167:
 180:../switch_sdk/core/yt/yt_vlan_translate.c ****     CMM_PARAM_CHK((!(CMM_PORT_VALID(unit, port))), CMM_ERR_PORT);
 1650              		.loc 1 180 5 discriminator 3 view .LVU477
 1651              	.LBB33:
 180:../switch_sdk/core/yt/yt_vlan_translate.c ****     CMM_PARAM_CHK((!(CMM_PORT_VALID(unit, port))), CMM_ERR_PORT);
 1652              		.loc 1 180 5 discriminator 3 view .LVU478
 1653 007a 164B     		ldr	r3, .L170+16
 1654 007c 1A69     		ldr	r2, [r3, #16]
 1655              	.LVL215:
 180:../switch_sdk/core/yt/yt_vlan_translate.c ****     CMM_PARAM_CHK((!(CMM_PORT_VALID(unit, port))), CMM_ERR_PORT);
 1656              		.loc 1 180 5 is_stmt 0 discriminator 3 view .LVU479
 1657 007e 164B     		ldr	r3, .L170+20
 1658 0080 9968     		ldr	r1, [r3, #8]
 1659              	.LVL216:
 180:../switch_sdk/core/yt/yt_vlan_translate.c ****     CMM_PARAM_CHK((!(CMM_PORT_VALID(unit, port))), CMM_ERR_PORT);
 1660              		.loc 1 180 5 discriminator 3 view .LVU480
 1661 0082 1648     		ldr	r0, .L170+24
 1662 0084 FFF7FEFF 		bl	osal_printf
 1663              	.LVL217:
 1664 0088 F5E7     		b	.L154
 1665              	.LVL218:
 1666              	.L155:
 180:../switch_sdk/core/yt/yt_vlan_translate.c ****     CMM_PARAM_CHK((!(CMM_PORT_VALID(unit, port))), CMM_ERR_PORT);
 1667              		.loc 1 180 5 discriminator 3 view .LVU481
 1668              	.LBE33:
 181:../switch_sdk/core/yt/yt_vlan_translate.c ****     CMM_PARAM_CHK((NULL == pProfile_id), CMM_ERR_NULL_POINT);
 1669              		.loc 1 181 5 is_stmt 1 discriminator 3 view .LVU482
 181:../switch_sdk/core/yt/yt_vlan_translate.c ****     CMM_PARAM_CHK((NULL == pProfile_id), CMM_ERR_NULL_POINT);
 1670              		.loc 1 181 5 discriminator 3 view .LVU483
 1671 008a 114B     		ldr	r3, .L170+12
 1672 008c 1B78     		ldrb	r3, [r3]	@ zero_extendqisi2
 1673 008e 012B     		cmp	r3, #1
 1674 0090 01D8     		bhi	.L168
 1675              	.LVL219:
 1676              	.L157:
 181:../switch_sdk/core/yt/yt_vlan_translate.c ****     CMM_PARAM_CHK((NULL == pProfile_id), CMM_ERR_NULL_POINT);
 1677              		.loc 1 181 5 discriminator 7 view .LVU484
 181:../switch_sdk/core/yt/yt_vlan_translate.c ****     CMM_PARAM_CHK((NULL == pProfile_id), CMM_ERR_NULL_POINT);
 1678              		.loc 1 181 5 discriminator 7 view .LVU485
 181:../switch_sdk/core/yt/yt_vlan_translate.c ****     CMM_PARAM_CHK((NULL == pProfile_id), CMM_ERR_NULL_POINT);
 1679              		.loc 1 181 5 discriminator 7 view .LVU486
 1680 0092 0E20     		movs	r0, #14
 1681 0094 CEE7     		b	.L147
 1682              	.LVL220:
 1683              	.L168:
 181:../switch_sdk/core/yt/yt_vlan_translate.c ****     CMM_PARAM_CHK((NULL == pProfile_id), CMM_ERR_NULL_POINT);
 1684              		.loc 1 181 5 discriminator 5 view .LVU487
 1685              	.LBB34:
 181:../switch_sdk/core/yt/yt_vlan_translate.c ****     CMM_PARAM_CHK((NULL == pProfile_id), CMM_ERR_NULL_POINT);
 1686              		.loc 1 181 5 discriminator 5 view .LVU488
 1687 0096 0F4B     		ldr	r3, .L170+16
 1688 0098 9A6B     		ldr	r2, [r3, #56]
 1689              	.LVL221:
 181:../switch_sdk/core/yt/yt_vlan_translate.c ****     CMM_PARAM_CHK((NULL == pProfile_id), CMM_ERR_NULL_POINT);
 1690              		.loc 1 181 5 is_stmt 0 discriminator 5 view .LVU489
 1691 009a 0F4B     		ldr	r3, .L170+20
 1692 009c 9968     		ldr	r1, [r3, #8]
 1693              	.LVL222:
 181:../switch_sdk/core/yt/yt_vlan_translate.c ****     CMM_PARAM_CHK((NULL == pProfile_id), CMM_ERR_NULL_POINT);
 1694              		.loc 1 181 5 discriminator 5 view .LVU490
 1695 009e 0F48     		ldr	r0, .L170+24
 1696 00a0 FFF7FEFF 		bl	osal_printf
 1697              	.LVL223:
 1698 00a4 F5E7     		b	.L157
 1699              	.LVL224:
 1700              	.L164:
 181:../switch_sdk/core/yt/yt_vlan_translate.c ****     CMM_PARAM_CHK((NULL == pProfile_id), CMM_ERR_NULL_POINT);
 1701              		.loc 1 181 5 discriminator 5 view .LVU491
 1702              	.LBE34:
 182:../switch_sdk/core/yt/yt_vlan_translate.c **** 
 1703              		.loc 1 182 5 is_stmt 1 discriminator 1 view .LVU492
 182:../switch_sdk/core/yt/yt_vlan_translate.c **** 
 1704              		.loc 1 182 5 discriminator 1 view .LVU493
 1705 00a6 0A4B     		ldr	r3, .L170+12
 1706 00a8 1B78     		ldrb	r3, [r3]	@ zero_extendqisi2
 1707 00aa 012B     		cmp	r3, #1
 1708 00ac 01D8     		bhi	.L169
 1709              	.LVL225:
 1710              	.L159:
 182:../switch_sdk/core/yt/yt_vlan_translate.c **** 
 1711              		.loc 1 182 5 discriminator 5 view .LVU494
 182:../switch_sdk/core/yt/yt_vlan_translate.c **** 
 1712              		.loc 1 182 5 discriminator 5 view .LVU495
 182:../switch_sdk/core/yt/yt_vlan_translate.c **** 
 1713              		.loc 1 182 5 discriminator 5 view .LVU496
 1714 00ae 0220     		movs	r0, #2
 1715 00b0 C0E7     		b	.L147
 1716              	.LVL226:
 1717              	.L169:
 182:../switch_sdk/core/yt/yt_vlan_translate.c **** 
 1718              		.loc 1 182 5 discriminator 3 view .LVU497
 1719              	.LBB35:
 182:../switch_sdk/core/yt/yt_vlan_translate.c **** 
 1720              		.loc 1 182 5 discriminator 3 view .LVU498
 1721 00b2 084B     		ldr	r3, .L170+16
 1722 00b4 9A68     		ldr	r2, [r3, #8]
 1723              	.LVL227:
 182:../switch_sdk/core/yt/yt_vlan_translate.c **** 
 1724              		.loc 1 182 5 is_stmt 0 discriminator 3 view .LVU499
 1725 00b6 084B     		ldr	r3, .L170+20
 1726 00b8 9968     		ldr	r1, [r3, #8]
 1727              	.LVL228:
 182:../switch_sdk/core/yt/yt_vlan_translate.c **** 
 1728              		.loc 1 182 5 discriminator 3 view .LVU500
 1729 00ba 0848     		ldr	r0, .L170+24
 1730 00bc FFF7FEFF 		bl	osal_printf
 1731              	.LVL229:
 1732 00c0 F5E7     		b	.L159
 1733              	.L171:
 1734 00c2 00BF     		.align	2
 1735              	.L170:
 1736 00c4 00000000 		.word	gpfal_dispatch
 1737 00c8 00000000 		.word	gcal_inited
 1738 00cc 00000000 		.word	gpSwitchUnit
 1739 00d0 00000000 		.word	yt_debug_level
 1740 00d4 00000000 		.word	_yt_errmsg
 1741 00d8 00000000 		.word	_yt_prompt_msg
 1742 00dc 00000000 		.word	.LC0
 1743              	.LBE35:
 1744              		.cfi_endproc
 1745              	.LFE9:
 1747              		.section	.text.yt_vlan_trans_mode_set,"ax",%progbits
 1748              		.align	1
 1749              		.global	yt_vlan_trans_mode_set
 1750              		.syntax unified
 1751              		.thumb
 1752              		.thumb_func
 1754              	yt_vlan_trans_mode_set:
 1755              	.LVL230:
 1756              	.LFB10:
 186:../switch_sdk/core/yt/yt_vlan_translate.c **** 
 187:../switch_sdk/core/yt/yt_vlan_translate.c **** /**
 188:../switch_sdk/core/yt/yt_vlan_translate.c ****  * @internal      yt_vlan_trans_mode_set
 189:../switch_sdk/core/yt/yt_vlan_translate.c ****  * @endinternal
 190:../switch_sdk/core/yt/yt_vlan_translate.c ****  *
 191:../switch_sdk/core/yt/yt_vlan_translate.c ****  * @brief         Description
 192:../switch_sdk/core/yt/yt_vlan_translate.c ****  * @note          APPLICABLE DEVICES  -Tiger
 193:../switch_sdk/core/yt/yt_vlan_translate.c ****  * @param[in]     unit                -unit id
 194:../switch_sdk/core/yt/yt_vlan_translate.c ****  * @param[in]     port                -port num
 195:../switch_sdk/core/yt/yt_vlan_translate.c ****  * @param[in]     rangeMode           -x
 196:../switch_sdk/core/yt/yt_vlan_translate.c ****  * @retval        CMM_ERR_OK          -on success
 197:../switch_sdk/core/yt/yt_vlan_translate.c ****  * @retval        CMM_ERR_FAIL        -on fail
 198:../switch_sdk/core/yt/yt_vlan_translate.c ****  */
 199:../switch_sdk/core/yt/yt_vlan_translate.c **** yt_ret_t  yt_vlan_trans_mode_set(yt_unit_t unit, yt_port_t  port, yt_vlan_range_trans_mode_t rangeM
 200:../switch_sdk/core/yt/yt_vlan_translate.c **** {
 1757              		.loc 1 200 1 is_stmt 1 view -0
 1758              		.cfi_startproc
 1759              		@ args = 0, pretend = 0, frame = 0
 1760              		@ frame_needed = 0, uses_anonymous_args = 0
 1761              		.loc 1 200 1 is_stmt 0 view .LVU502
 1762 0000 08B5     		push	{r3, lr}
 1763              		.cfi_def_cfa_offset 8
 1764              		.cfi_offset 3, -8
 1765              		.cfi_offset 14, -4
 201:../switch_sdk/core/yt/yt_vlan_translate.c ****     CMM_PARAM_CHK((YT_UNIT_NUM <= unit), CMM_ERR_INPUT);
 1766              		.loc 1 201 5 is_stmt 1 view .LVU503
 1767              		.loc 1 201 5 view .LVU504
 1768 0002 C0B9     		cbnz	r0, .L186
 1769 0004 8446     		mov	ip, r0
 1770              		.loc 1 201 5 discriminator 2 view .LVU505
 202:../switch_sdk/core/yt/yt_vlan_translate.c ****     CMM_PARAM_CHK(NULL == YT_DISPATCH(unit), CMM_ERR_NOT_INIT);
 1771              		.loc 1 202 5 discriminator 2 view .LVU506
 1772              		.loc 1 202 5 discriminator 2 view .LVU507
 1773 0006 2F4B     		ldr	r3, .L195
 1774 0008 53F82030 		ldr	r3, [r3, r0, lsl #2]
 1775 000c 0BB3     		cbz	r3, .L187
 1776              		.loc 1 202 5 discriminator 2 view .LVU508
 203:../switch_sdk/core/yt/yt_vlan_translate.c ****     CMM_PARAM_CHK((!(YT_DISPATCH(unit)->is_inited)), CMM_ERR_NOT_INIT);
 1777              		.loc 1 203 5 discriminator 2 view .LVU509
 1778              		.loc 1 203 5 discriminator 2 view .LVU510
 1779 000e 1878     		ldrb	r0, [r3]	@ zero_extendqisi2
 1780              	.LVL231:
 1781              		.loc 1 203 5 is_stmt 0 discriminator 2 view .LVU511
 1782 0010 0028     		cmp	r0, #0
 1783 0012 2CD0     		beq	.L188
 1784              		.loc 1 203 5 is_stmt 1 discriminator 2 view .LVU512
 204:../switch_sdk/core/yt/yt_vlan_translate.c ****     CMM_PARAM_CHK((!(CMM_PORT_VALID(unit, port))), CMM_ERR_PORT);
 1785              		.loc 1 204 5 discriminator 2 view .LVU513
 1786              		.loc 1 204 5 discriminator 2 view .LVU514
 1787 0014 2C48     		ldr	r0, .L195+4
 1788 0016 0078     		ldrb	r0, [r0]	@ zero_extendqisi2
 1789 0018 0028     		cmp	r0, #0
 1790 001a 36D0     		beq	.L180
 1791 001c 2B48     		ldr	r0, .L195+8
 1792 001e 50F82C00 		ldr	r0, [r0, ip, lsl #2]
 1793 0022 007D     		ldrb	r0, [r0, #20]	@ zero_extendqisi2
 1794 0024 8842     		cmp	r0, r1
 1795 0026 30D9     		bls	.L180
 1796              		.loc 1 204 5 discriminator 4 view .LVU515
 205:../switch_sdk/core/yt/yt_vlan_translate.c ****     CMM_PARAM_CHK((VLAN_RANGE_TRANS_MODE_SVLAN < rangeMode ||
 1797              		.loc 1 205 5 discriminator 4 view .LVU516
 1798              		.loc 1 205 5 discriminator 4 view .LVU517
 1799 0028 012A     		cmp	r2, #1
 1800 002a 3CD8     		bhi	.L189
 1801              		.loc 1 205 5 discriminator 2 view .LVU518
 206:../switch_sdk/core/yt/yt_vlan_translate.c ****         VLAN_RANGE_TRANS_MODE_CVLAN > rangeMode), CMM_ERR_INPUT);
 207:../switch_sdk/core/yt/yt_vlan_translate.c **** 
 208:../switch_sdk/core/yt/yt_vlan_translate.c ****     return YT_DISPATCH(unit)->vlan_trans_mode_set(unit, port, rangeMode);
 1802              		.loc 1 208 5 discriminator 2 view .LVU519
 1803              		.loc 1 208 29 is_stmt 0 discriminator 2 view .LVU520
 1804 002c D3F8B830 		ldr	r3, [r3, #184]
 1805              		.loc 1 208 12 discriminator 2 view .LVU521
 1806 0030 6046     		mov	r0, ip
 1807 0032 9847     		blx	r3
 1808              	.LVL232:
 1809              	.L172:
 209:../switch_sdk/core/yt/yt_vlan_translate.c **** }
 1810              		.loc 1 209 1 view .LVU522
 1811 0034 08BD     		pop	{r3, pc}
 1812              	.LVL233:
 1813              	.L186:
 201:../switch_sdk/core/yt/yt_vlan_translate.c ****     CMM_PARAM_CHK(NULL == YT_DISPATCH(unit), CMM_ERR_NOT_INIT);
 1814              		.loc 1 201 5 is_stmt 1 discriminator 1 view .LVU523
 201:../switch_sdk/core/yt/yt_vlan_translate.c ****     CMM_PARAM_CHK(NULL == YT_DISPATCH(unit), CMM_ERR_NOT_INIT);
 1815              		.loc 1 201 5 discriminator 1 view .LVU524
 1816 0036 264B     		ldr	r3, .L195+12
 1817 0038 1B78     		ldrb	r3, [r3]	@ zero_extendqisi2
 1818 003a 012B     		cmp	r3, #1
 1819 003c 01D8     		bhi	.L190
 1820              	.LVL234:
 1821              	.L174:
 201:../switch_sdk/core/yt/yt_vlan_translate.c ****     CMM_PARAM_CHK(NULL == YT_DISPATCH(unit), CMM_ERR_NOT_INIT);
 1822              		.loc 1 201 5 discriminator 5 view .LVU525
 201:../switch_sdk/core/yt/yt_vlan_translate.c ****     CMM_PARAM_CHK(NULL == YT_DISPATCH(unit), CMM_ERR_NOT_INIT);
 1823              		.loc 1 201 5 discriminator 5 view .LVU526
 201:../switch_sdk/core/yt/yt_vlan_translate.c ****     CMM_PARAM_CHK(NULL == YT_DISPATCH(unit), CMM_ERR_NOT_INIT);
 1824              		.loc 1 201 5 discriminator 5 view .LVU527
 1825 003e 0520     		movs	r0, #5
 1826 0040 F8E7     		b	.L172
 1827              	.LVL235:
 1828              	.L190:
 201:../switch_sdk/core/yt/yt_vlan_translate.c ****     CMM_PARAM_CHK(NULL == YT_DISPATCH(unit), CMM_ERR_NOT_INIT);
 1829              		.loc 1 201 5 discriminator 3 view .LVU528
 1830              	.LBB36:
 201:../switch_sdk/core/yt/yt_vlan_translate.c ****     CMM_PARAM_CHK(NULL == YT_DISPATCH(unit), CMM_ERR_NOT_INIT);
 1831              		.loc 1 201 5 discriminator 3 view .LVU529
 1832 0042 244B     		ldr	r3, .L195+16
 1833 0044 5A69     		ldr	r2, [r3, #20]
 1834              	.LVL236:
 201:../switch_sdk/core/yt/yt_vlan_translate.c ****     CMM_PARAM_CHK(NULL == YT_DISPATCH(unit), CMM_ERR_NOT_INIT);
 1835              		.loc 1 201 5 is_stmt 0 discriminator 3 view .LVU530
 1836 0046 244B     		ldr	r3, .L195+20
 1837 0048 9968     		ldr	r1, [r3, #8]
 1838              	.LVL237:
 201:../switch_sdk/core/yt/yt_vlan_translate.c ****     CMM_PARAM_CHK(NULL == YT_DISPATCH(unit), CMM_ERR_NOT_INIT);
 1839              		.loc 1 201 5 discriminator 3 view .LVU531
 1840 004a 2448     		ldr	r0, .L195+24
 1841              	.LVL238:
 201:../switch_sdk/core/yt/yt_vlan_translate.c ****     CMM_PARAM_CHK(NULL == YT_DISPATCH(unit), CMM_ERR_NOT_INIT);
 1842              		.loc 1 201 5 discriminator 3 view .LVU532
 1843 004c FFF7FEFF 		bl	osal_printf
 1844              	.LVL239:
 1845 0050 F5E7     		b	.L174
 1846              	.LVL240:
 1847              	.L187:
 201:../switch_sdk/core/yt/yt_vlan_translate.c ****     CMM_PARAM_CHK(NULL == YT_DISPATCH(unit), CMM_ERR_NOT_INIT);
 1848              		.loc 1 201 5 discriminator 3 view .LVU533
 1849              	.LBE36:
 202:../switch_sdk/core/yt/yt_vlan_translate.c ****     CMM_PARAM_CHK((!(YT_DISPATCH(unit)->is_inited)), CMM_ERR_NOT_INIT);
 1850              		.loc 1 202 5 is_stmt 1 discriminator 1 view .LVU534
 202:../switch_sdk/core/yt/yt_vlan_translate.c ****     CMM_PARAM_CHK((!(YT_DISPATCH(unit)->is_inited)), CMM_ERR_NOT_INIT);
 1851              		.loc 1 202 5 discriminator 1 view .LVU535
 1852 0052 1F4B     		ldr	r3, .L195+12
 1853 0054 1B78     		ldrb	r3, [r3]	@ zero_extendqisi2
 1854 0056 012B     		cmp	r3, #1
 1855 0058 01D8     		bhi	.L191
 1856              	.LVL241:
 1857              	.L177:
 202:../switch_sdk/core/yt/yt_vlan_translate.c ****     CMM_PARAM_CHK((!(YT_DISPATCH(unit)->is_inited)), CMM_ERR_NOT_INIT);
 1858              		.loc 1 202 5 discriminator 5 view .LVU536
 202:../switch_sdk/core/yt/yt_vlan_translate.c ****     CMM_PARAM_CHK((!(YT_DISPATCH(unit)->is_inited)), CMM_ERR_NOT_INIT);
 1859              		.loc 1 202 5 discriminator 5 view .LVU537
 202:../switch_sdk/core/yt/yt_vlan_translate.c ****     CMM_PARAM_CHK((!(YT_DISPATCH(unit)->is_inited)), CMM_ERR_NOT_INIT);
 1860              		.loc 1 202 5 discriminator 5 view .LVU538
 1861 005a 0420     		movs	r0, #4
 1862 005c EAE7     		b	.L172
 1863              	.LVL242:
 1864              	.L191:
 202:../switch_sdk/core/yt/yt_vlan_translate.c ****     CMM_PARAM_CHK((!(YT_DISPATCH(unit)->is_inited)), CMM_ERR_NOT_INIT);
 1865              		.loc 1 202 5 discriminator 3 view .LVU539
 1866              	.LBB37:
 202:../switch_sdk/core/yt/yt_vlan_translate.c ****     CMM_PARAM_CHK((!(YT_DISPATCH(unit)->is_inited)), CMM_ERR_NOT_INIT);
 1867              		.loc 1 202 5 discriminator 3 view .LVU540
 1868 005e 1D4B     		ldr	r3, .L195+16
 1869 0060 1A69     		ldr	r2, [r3, #16]
 1870              	.LVL243:
 202:../switch_sdk/core/yt/yt_vlan_translate.c ****     CMM_PARAM_CHK((!(YT_DISPATCH(unit)->is_inited)), CMM_ERR_NOT_INIT);
 1871              		.loc 1 202 5 is_stmt 0 discriminator 3 view .LVU541
 1872 0062 1D4B     		ldr	r3, .L195+20
 1873 0064 9968     		ldr	r1, [r3, #8]
 1874              	.LVL244:
 202:../switch_sdk/core/yt/yt_vlan_translate.c ****     CMM_PARAM_CHK((!(YT_DISPATCH(unit)->is_inited)), CMM_ERR_NOT_INIT);
 1875              		.loc 1 202 5 discriminator 3 view .LVU542
 1876 0066 1D48     		ldr	r0, .L195+24
 1877              	.LVL245:
 202:../switch_sdk/core/yt/yt_vlan_translate.c ****     CMM_PARAM_CHK((!(YT_DISPATCH(unit)->is_inited)), CMM_ERR_NOT_INIT);
 1878              		.loc 1 202 5 discriminator 3 view .LVU543
 1879 0068 FFF7FEFF 		bl	osal_printf
 1880              	.LVL246:
 1881 006c F5E7     		b	.L177
 1882              	.LVL247:
 1883              	.L188:
 202:../switch_sdk/core/yt/yt_vlan_translate.c ****     CMM_PARAM_CHK((!(YT_DISPATCH(unit)->is_inited)), CMM_ERR_NOT_INIT);
 1884              		.loc 1 202 5 discriminator 3 view .LVU544
 1885              	.LBE37:
 203:../switch_sdk/core/yt/yt_vlan_translate.c ****     CMM_PARAM_CHK((!(CMM_PORT_VALID(unit, port))), CMM_ERR_PORT);
 1886              		.loc 1 203 5 is_stmt 1 discriminator 1 view .LVU545
 203:../switch_sdk/core/yt/yt_vlan_translate.c ****     CMM_PARAM_CHK((!(CMM_PORT_VALID(unit, port))), CMM_ERR_PORT);
 1887              		.loc 1 203 5 discriminator 1 view .LVU546
 1888 006e 184B     		ldr	r3, .L195+12
 1889 0070 1B78     		ldrb	r3, [r3]	@ zero_extendqisi2
 1890 0072 012B     		cmp	r3, #1
 1891 0074 01D8     		bhi	.L192
 1892              	.LVL248:
 1893              	.L179:
 203:../switch_sdk/core/yt/yt_vlan_translate.c ****     CMM_PARAM_CHK((!(CMM_PORT_VALID(unit, port))), CMM_ERR_PORT);
 1894              		.loc 1 203 5 discriminator 5 view .LVU547
 203:../switch_sdk/core/yt/yt_vlan_translate.c ****     CMM_PARAM_CHK((!(CMM_PORT_VALID(unit, port))), CMM_ERR_PORT);
 1895              		.loc 1 203 5 discriminator 5 view .LVU548
 203:../switch_sdk/core/yt/yt_vlan_translate.c ****     CMM_PARAM_CHK((!(CMM_PORT_VALID(unit, port))), CMM_ERR_PORT);
 1896              		.loc 1 203 5 discriminator 5 view .LVU549
 1897 0076 0420     		movs	r0, #4
 1898 0078 DCE7     		b	.L172
 1899              	.LVL249:
 1900              	.L192:
 203:../switch_sdk/core/yt/yt_vlan_translate.c ****     CMM_PARAM_CHK((!(CMM_PORT_VALID(unit, port))), CMM_ERR_PORT);
 1901              		.loc 1 203 5 discriminator 3 view .LVU550
 1902              	.LBB38:
 203:../switch_sdk/core/yt/yt_vlan_translate.c ****     CMM_PARAM_CHK((!(CMM_PORT_VALID(unit, port))), CMM_ERR_PORT);
 1903              		.loc 1 203 5 discriminator 3 view .LVU551
 1904 007a 164B     		ldr	r3, .L195+16
 1905 007c 1A69     		ldr	r2, [r3, #16]
 1906              	.LVL250:
 203:../switch_sdk/core/yt/yt_vlan_translate.c ****     CMM_PARAM_CHK((!(CMM_PORT_VALID(unit, port))), CMM_ERR_PORT);
 1907              		.loc 1 203 5 is_stmt 0 discriminator 3 view .LVU552
 1908 007e 164B     		ldr	r3, .L195+20
 1909 0080 9968     		ldr	r1, [r3, #8]
 1910              	.LVL251:
 203:../switch_sdk/core/yt/yt_vlan_translate.c ****     CMM_PARAM_CHK((!(CMM_PORT_VALID(unit, port))), CMM_ERR_PORT);
 1911              		.loc 1 203 5 discriminator 3 view .LVU553
 1912 0082 1648     		ldr	r0, .L195+24
 1913 0084 FFF7FEFF 		bl	osal_printf
 1914              	.LVL252:
 1915 0088 F5E7     		b	.L179
 1916              	.LVL253:
 1917              	.L180:
 203:../switch_sdk/core/yt/yt_vlan_translate.c ****     CMM_PARAM_CHK((!(CMM_PORT_VALID(unit, port))), CMM_ERR_PORT);
 1918              		.loc 1 203 5 discriminator 3 view .LVU554
 1919              	.LBE38:
 204:../switch_sdk/core/yt/yt_vlan_translate.c ****     CMM_PARAM_CHK((VLAN_RANGE_TRANS_MODE_SVLAN < rangeMode ||
 1920              		.loc 1 204 5 is_stmt 1 discriminator 3 view .LVU555
 204:../switch_sdk/core/yt/yt_vlan_translate.c ****     CMM_PARAM_CHK((VLAN_RANGE_TRANS_MODE_SVLAN < rangeMode ||
 1921              		.loc 1 204 5 discriminator 3 view .LVU556
 1922 008a 114B     		ldr	r3, .L195+12
 1923 008c 1B78     		ldrb	r3, [r3]	@ zero_extendqisi2
 1924 008e 012B     		cmp	r3, #1
 1925 0090 01D8     		bhi	.L193
 1926              	.LVL254:
 1927              	.L182:
 204:../switch_sdk/core/yt/yt_vlan_translate.c ****     CMM_PARAM_CHK((VLAN_RANGE_TRANS_MODE_SVLAN < rangeMode ||
 1928              		.loc 1 204 5 discriminator 7 view .LVU557
 204:../switch_sdk/core/yt/yt_vlan_translate.c ****     CMM_PARAM_CHK((VLAN_RANGE_TRANS_MODE_SVLAN < rangeMode ||
 1929              		.loc 1 204 5 discriminator 7 view .LVU558
 204:../switch_sdk/core/yt/yt_vlan_translate.c ****     CMM_PARAM_CHK((VLAN_RANGE_TRANS_MODE_SVLAN < rangeMode ||
 1930              		.loc 1 204 5 discriminator 7 view .LVU559
 1931 0092 0E20     		movs	r0, #14
 1932 0094 CEE7     		b	.L172
 1933              	.LVL255:
 1934              	.L193:
 204:../switch_sdk/core/yt/yt_vlan_translate.c ****     CMM_PARAM_CHK((VLAN_RANGE_TRANS_MODE_SVLAN < rangeMode ||
 1935              		.loc 1 204 5 discriminator 5 view .LVU560
 1936              	.LBB39:
 204:../switch_sdk/core/yt/yt_vlan_translate.c ****     CMM_PARAM_CHK((VLAN_RANGE_TRANS_MODE_SVLAN < rangeMode ||
 1937              		.loc 1 204 5 discriminator 5 view .LVU561
 1938 0096 0F4B     		ldr	r3, .L195+16
 1939 0098 9A6B     		ldr	r2, [r3, #56]
 1940              	.LVL256:
 204:../switch_sdk/core/yt/yt_vlan_translate.c ****     CMM_PARAM_CHK((VLAN_RANGE_TRANS_MODE_SVLAN < rangeMode ||
 1941              		.loc 1 204 5 is_stmt 0 discriminator 5 view .LVU562
 1942 009a 0F4B     		ldr	r3, .L195+20
 1943 009c 9968     		ldr	r1, [r3, #8]
 1944              	.LVL257:
 204:../switch_sdk/core/yt/yt_vlan_translate.c ****     CMM_PARAM_CHK((VLAN_RANGE_TRANS_MODE_SVLAN < rangeMode ||
 1945              		.loc 1 204 5 discriminator 5 view .LVU563
 1946 009e 0F48     		ldr	r0, .L195+24
 1947 00a0 FFF7FEFF 		bl	osal_printf
 1948              	.LVL258:
 1949 00a4 F5E7     		b	.L182
 1950              	.LVL259:
 1951              	.L189:
 204:../switch_sdk/core/yt/yt_vlan_translate.c ****     CMM_PARAM_CHK((VLAN_RANGE_TRANS_MODE_SVLAN < rangeMode ||
 1952              		.loc 1 204 5 discriminator 5 view .LVU564
 1953              	.LBE39:
 205:../switch_sdk/core/yt/yt_vlan_translate.c ****         VLAN_RANGE_TRANS_MODE_CVLAN > rangeMode), CMM_ERR_INPUT);
 1954              		.loc 1 205 5 is_stmt 1 discriminator 1 view .LVU565
 205:../switch_sdk/core/yt/yt_vlan_translate.c ****         VLAN_RANGE_TRANS_MODE_CVLAN > rangeMode), CMM_ERR_INPUT);
 1955              		.loc 1 205 5 discriminator 1 view .LVU566
 1956 00a6 0A4B     		ldr	r3, .L195+12
 1957 00a8 1B78     		ldrb	r3, [r3]	@ zero_extendqisi2
 1958 00aa 012B     		cmp	r3, #1
 1959 00ac 01D8     		bhi	.L194
 1960              	.LVL260:
 1961              	.L184:
 205:../switch_sdk/core/yt/yt_vlan_translate.c ****         VLAN_RANGE_TRANS_MODE_CVLAN > rangeMode), CMM_ERR_INPUT);
 1962              		.loc 1 205 5 discriminator 5 view .LVU567
 205:../switch_sdk/core/yt/yt_vlan_translate.c ****         VLAN_RANGE_TRANS_MODE_CVLAN > rangeMode), CMM_ERR_INPUT);
 1963              		.loc 1 205 5 discriminator 5 view .LVU568
 205:../switch_sdk/core/yt/yt_vlan_translate.c ****         VLAN_RANGE_TRANS_MODE_CVLAN > rangeMode), CMM_ERR_INPUT);
 1964              		.loc 1 205 5 discriminator 5 view .LVU569
 1965 00ae 0520     		movs	r0, #5
 1966 00b0 C0E7     		b	.L172
 1967              	.LVL261:
 1968              	.L194:
 205:../switch_sdk/core/yt/yt_vlan_translate.c ****         VLAN_RANGE_TRANS_MODE_CVLAN > rangeMode), CMM_ERR_INPUT);
 1969              		.loc 1 205 5 discriminator 3 view .LVU570
 1970              	.LBB40:
 205:../switch_sdk/core/yt/yt_vlan_translate.c ****         VLAN_RANGE_TRANS_MODE_CVLAN > rangeMode), CMM_ERR_INPUT);
 1971              		.loc 1 205 5 discriminator 3 view .LVU571
 1972 00b2 084B     		ldr	r3, .L195+16
 1973 00b4 5A69     		ldr	r2, [r3, #20]
 1974              	.LVL262:
 205:../switch_sdk/core/yt/yt_vlan_translate.c ****         VLAN_RANGE_TRANS_MODE_CVLAN > rangeMode), CMM_ERR_INPUT);
 1975              		.loc 1 205 5 is_stmt 0 discriminator 3 view .LVU572
 1976 00b6 084B     		ldr	r3, .L195+20
 1977 00b8 9968     		ldr	r1, [r3, #8]
 1978              	.LVL263:
 205:../switch_sdk/core/yt/yt_vlan_translate.c ****         VLAN_RANGE_TRANS_MODE_CVLAN > rangeMode), CMM_ERR_INPUT);
 1979              		.loc 1 205 5 discriminator 3 view .LVU573
 1980 00ba 0848     		ldr	r0, .L195+24
 1981 00bc FFF7FEFF 		bl	osal_printf
 1982              	.LVL264:
 1983 00c0 F5E7     		b	.L184
 1984              	.L196:
 1985 00c2 00BF     		.align	2
 1986              	.L195:
 1987 00c4 00000000 		.word	gpfal_dispatch
 1988 00c8 00000000 		.word	gcal_inited
 1989 00cc 00000000 		.word	gpSwitchUnit
 1990 00d0 00000000 		.word	yt_debug_level
 1991 00d4 00000000 		.word	_yt_errmsg
 1992 00d8 00000000 		.word	_yt_prompt_msg
 1993 00dc 00000000 		.word	.LC0
 1994              	.LBE40:
 1995              		.cfi_endproc
 1996              	.LFE10:
 1998              		.section	.text.yt_vlan_trans_mode_get,"ax",%progbits
 1999              		.align	1
 2000              		.global	yt_vlan_trans_mode_get
 2001              		.syntax unified
 2002              		.thumb
 2003              		.thumb_func
 2005              	yt_vlan_trans_mode_get:
 2006              	.LVL265:
 2007              	.LFB11:
 210:../switch_sdk/core/yt/yt_vlan_translate.c **** 
 211:../switch_sdk/core/yt/yt_vlan_translate.c **** /**
 212:../switch_sdk/core/yt/yt_vlan_translate.c ****  * @internal      yt_vlan_trans_mode_get
 213:../switch_sdk/core/yt/yt_vlan_translate.c ****  * @endinternal
 214:../switch_sdk/core/yt/yt_vlan_translate.c ****  *
 215:../switch_sdk/core/yt/yt_vlan_translate.c ****  * @brief         Description
 216:../switch_sdk/core/yt/yt_vlan_translate.c ****  * @note          APPLICABLE DEVICES  -Tiger
 217:../switch_sdk/core/yt/yt_vlan_translate.c ****  * @param[in]     unit                -unit id
 218:../switch_sdk/core/yt/yt_vlan_translate.c ****  * @param[in]     port                -port num
 219:../switch_sdk/core/yt/yt_vlan_translate.c ****  * @param[out]    pRangeMode          -x
 220:../switch_sdk/core/yt/yt_vlan_translate.c ****  * @retval        CMM_ERR_OK          -on success
 221:../switch_sdk/core/yt/yt_vlan_translate.c ****  * @retval        CMM_ERR_FAIL        -on fail
 222:../switch_sdk/core/yt/yt_vlan_translate.c ****  */
 223:../switch_sdk/core/yt/yt_vlan_translate.c **** yt_ret_t  yt_vlan_trans_mode_get(yt_unit_t unit, yt_port_t  port, yt_vlan_range_trans_mode_t *pRang
 224:../switch_sdk/core/yt/yt_vlan_translate.c **** {
 2008              		.loc 1 224 1 is_stmt 1 view -0
 2009              		.cfi_startproc
 2010              		@ args = 0, pretend = 0, frame = 0
 2011              		@ frame_needed = 0, uses_anonymous_args = 0
 2012              		.loc 1 224 1 is_stmt 0 view .LVU575
 2013 0000 08B5     		push	{r3, lr}
 2014              		.cfi_def_cfa_offset 8
 2015              		.cfi_offset 3, -8
 2016              		.cfi_offset 14, -4
 225:../switch_sdk/core/yt/yt_vlan_translate.c ****     CMM_PARAM_CHK((YT_UNIT_NUM <= unit), CMM_ERR_INPUT);
 2017              		.loc 1 225 5 is_stmt 1 view .LVU576
 2018              		.loc 1 225 5 view .LVU577
 2019 0002 C0B9     		cbnz	r0, .L211
 2020 0004 8446     		mov	ip, r0
 2021              		.loc 1 225 5 discriminator 2 view .LVU578
 226:../switch_sdk/core/yt/yt_vlan_translate.c ****     CMM_PARAM_CHK(NULL == YT_DISPATCH(unit), CMM_ERR_NOT_INIT);
 2022              		.loc 1 226 5 discriminator 2 view .LVU579
 2023              		.loc 1 226 5 discriminator 2 view .LVU580
 2024 0006 2F4B     		ldr	r3, .L220
 2025 0008 53F82030 		ldr	r3, [r3, r0, lsl #2]
 2026 000c 0BB3     		cbz	r3, .L212
 2027              		.loc 1 226 5 discriminator 2 view .LVU581
 227:../switch_sdk/core/yt/yt_vlan_translate.c ****     CMM_PARAM_CHK((!(YT_DISPATCH(unit)->is_inited)), CMM_ERR_NOT_INIT);
 2028              		.loc 1 227 5 discriminator 2 view .LVU582
 2029              		.loc 1 227 5 discriminator 2 view .LVU583
 2030 000e 1878     		ldrb	r0, [r3]	@ zero_extendqisi2
 2031              	.LVL266:
 2032              		.loc 1 227 5 is_stmt 0 discriminator 2 view .LVU584
 2033 0010 0028     		cmp	r0, #0
 2034 0012 2CD0     		beq	.L213
 2035              		.loc 1 227 5 is_stmt 1 discriminator 2 view .LVU585
 228:../switch_sdk/core/yt/yt_vlan_translate.c ****     CMM_PARAM_CHK((!(CMM_PORT_VALID(unit, port))), CMM_ERR_PORT);
 2036              		.loc 1 228 5 discriminator 2 view .LVU586
 2037              		.loc 1 228 5 discriminator 2 view .LVU587
 2038 0014 2C48     		ldr	r0, .L220+4
 2039 0016 0078     		ldrb	r0, [r0]	@ zero_extendqisi2
 2040 0018 0028     		cmp	r0, #0
 2041 001a 36D0     		beq	.L205
 2042 001c 2B48     		ldr	r0, .L220+8
 2043 001e 50F82C00 		ldr	r0, [r0, ip, lsl #2]
 2044 0022 007D     		ldrb	r0, [r0, #20]	@ zero_extendqisi2
 2045 0024 8842     		cmp	r0, r1
 2046 0026 30D9     		bls	.L205
 2047              		.loc 1 228 5 discriminator 4 view .LVU588
 229:../switch_sdk/core/yt/yt_vlan_translate.c ****     CMM_PARAM_CHK((NULL == pRangeMode), CMM_ERR_NULL_POINT);
 2048              		.loc 1 229 5 discriminator 4 view .LVU589
 2049              		.loc 1 229 5 discriminator 4 view .LVU590
 2050 0028 002A     		cmp	r2, #0
 2051 002a 3CD0     		beq	.L214
 2052              		.loc 1 229 5 discriminator 2 view .LVU591
 230:../switch_sdk/core/yt/yt_vlan_translate.c **** 
 231:../switch_sdk/core/yt/yt_vlan_translate.c ****     return YT_DISPATCH(unit)->vlan_trans_mode_get(unit, port, pRangeMode);
 2053              		.loc 1 231 5 discriminator 2 view .LVU592
 2054              		.loc 1 231 29 is_stmt 0 discriminator 2 view .LVU593
 2055 002c D3F8BC30 		ldr	r3, [r3, #188]
 2056              		.loc 1 231 12 discriminator 2 view .LVU594
 2057 0030 6046     		mov	r0, ip
 2058 0032 9847     		blx	r3
 2059              	.LVL267:
 2060              	.L197:
 232:../switch_sdk/core/yt/yt_vlan_translate.c **** }
 2061              		.loc 1 232 1 view .LVU595
 2062 0034 08BD     		pop	{r3, pc}
 2063              	.LVL268:
 2064              	.L211:
 225:../switch_sdk/core/yt/yt_vlan_translate.c ****     CMM_PARAM_CHK(NULL == YT_DISPATCH(unit), CMM_ERR_NOT_INIT);
 2065              		.loc 1 225 5 is_stmt 1 discriminator 1 view .LVU596
 225:../switch_sdk/core/yt/yt_vlan_translate.c ****     CMM_PARAM_CHK(NULL == YT_DISPATCH(unit), CMM_ERR_NOT_INIT);
 2066              		.loc 1 225 5 discriminator 1 view .LVU597
 2067 0036 264B     		ldr	r3, .L220+12
 2068 0038 1B78     		ldrb	r3, [r3]	@ zero_extendqisi2
 2069 003a 012B     		cmp	r3, #1
 2070 003c 01D8     		bhi	.L215
 2071              	.LVL269:
 2072              	.L199:
 225:../switch_sdk/core/yt/yt_vlan_translate.c ****     CMM_PARAM_CHK(NULL == YT_DISPATCH(unit), CMM_ERR_NOT_INIT);
 2073              		.loc 1 225 5 discriminator 5 view .LVU598
 225:../switch_sdk/core/yt/yt_vlan_translate.c ****     CMM_PARAM_CHK(NULL == YT_DISPATCH(unit), CMM_ERR_NOT_INIT);
 2074              		.loc 1 225 5 discriminator 5 view .LVU599
 225:../switch_sdk/core/yt/yt_vlan_translate.c ****     CMM_PARAM_CHK(NULL == YT_DISPATCH(unit), CMM_ERR_NOT_INIT);
 2075              		.loc 1 225 5 discriminator 5 view .LVU600
 2076 003e 0520     		movs	r0, #5
 2077 0040 F8E7     		b	.L197
 2078              	.LVL270:
 2079              	.L215:
 225:../switch_sdk/core/yt/yt_vlan_translate.c ****     CMM_PARAM_CHK(NULL == YT_DISPATCH(unit), CMM_ERR_NOT_INIT);
 2080              		.loc 1 225 5 discriminator 3 view .LVU601
 2081              	.LBB41:
 225:../switch_sdk/core/yt/yt_vlan_translate.c ****     CMM_PARAM_CHK(NULL == YT_DISPATCH(unit), CMM_ERR_NOT_INIT);
 2082              		.loc 1 225 5 discriminator 3 view .LVU602
 2083 0042 244B     		ldr	r3, .L220+16
 2084 0044 5A69     		ldr	r2, [r3, #20]
 2085              	.LVL271:
 225:../switch_sdk/core/yt/yt_vlan_translate.c ****     CMM_PARAM_CHK(NULL == YT_DISPATCH(unit), CMM_ERR_NOT_INIT);
 2086              		.loc 1 225 5 is_stmt 0 discriminator 3 view .LVU603
 2087 0046 244B     		ldr	r3, .L220+20
 2088 0048 9968     		ldr	r1, [r3, #8]
 2089              	.LVL272:
 225:../switch_sdk/core/yt/yt_vlan_translate.c ****     CMM_PARAM_CHK(NULL == YT_DISPATCH(unit), CMM_ERR_NOT_INIT);
 2090              		.loc 1 225 5 discriminator 3 view .LVU604
 2091 004a 2448     		ldr	r0, .L220+24
 2092              	.LVL273:
 225:../switch_sdk/core/yt/yt_vlan_translate.c ****     CMM_PARAM_CHK(NULL == YT_DISPATCH(unit), CMM_ERR_NOT_INIT);
 2093              		.loc 1 225 5 discriminator 3 view .LVU605
 2094 004c FFF7FEFF 		bl	osal_printf
 2095              	.LVL274:
 2096 0050 F5E7     		b	.L199
 2097              	.LVL275:
 2098              	.L212:
 225:../switch_sdk/core/yt/yt_vlan_translate.c ****     CMM_PARAM_CHK(NULL == YT_DISPATCH(unit), CMM_ERR_NOT_INIT);
 2099              		.loc 1 225 5 discriminator 3 view .LVU606
 2100              	.LBE41:
 226:../switch_sdk/core/yt/yt_vlan_translate.c ****     CMM_PARAM_CHK((!(YT_DISPATCH(unit)->is_inited)), CMM_ERR_NOT_INIT);
 2101              		.loc 1 226 5 is_stmt 1 discriminator 1 view .LVU607
 226:../switch_sdk/core/yt/yt_vlan_translate.c ****     CMM_PARAM_CHK((!(YT_DISPATCH(unit)->is_inited)), CMM_ERR_NOT_INIT);
 2102              		.loc 1 226 5 discriminator 1 view .LVU608
 2103 0052 1F4B     		ldr	r3, .L220+12
 2104 0054 1B78     		ldrb	r3, [r3]	@ zero_extendqisi2
 2105 0056 012B     		cmp	r3, #1
 2106 0058 01D8     		bhi	.L216
 2107              	.LVL276:
 2108              	.L202:
 226:../switch_sdk/core/yt/yt_vlan_translate.c ****     CMM_PARAM_CHK((!(YT_DISPATCH(unit)->is_inited)), CMM_ERR_NOT_INIT);
 2109              		.loc 1 226 5 discriminator 5 view .LVU609
 226:../switch_sdk/core/yt/yt_vlan_translate.c ****     CMM_PARAM_CHK((!(YT_DISPATCH(unit)->is_inited)), CMM_ERR_NOT_INIT);
 2110              		.loc 1 226 5 discriminator 5 view .LVU610
 226:../switch_sdk/core/yt/yt_vlan_translate.c ****     CMM_PARAM_CHK((!(YT_DISPATCH(unit)->is_inited)), CMM_ERR_NOT_INIT);
 2111              		.loc 1 226 5 discriminator 5 view .LVU611
 2112 005a 0420     		movs	r0, #4
 2113 005c EAE7     		b	.L197
 2114              	.LVL277:
 2115              	.L216:
 226:../switch_sdk/core/yt/yt_vlan_translate.c ****     CMM_PARAM_CHK((!(YT_DISPATCH(unit)->is_inited)), CMM_ERR_NOT_INIT);
 2116              		.loc 1 226 5 discriminator 3 view .LVU612
 2117              	.LBB42:
 226:../switch_sdk/core/yt/yt_vlan_translate.c ****     CMM_PARAM_CHK((!(YT_DISPATCH(unit)->is_inited)), CMM_ERR_NOT_INIT);
 2118              		.loc 1 226 5 discriminator 3 view .LVU613
 2119 005e 1D4B     		ldr	r3, .L220+16
 2120 0060 1A69     		ldr	r2, [r3, #16]
 2121              	.LVL278:
 226:../switch_sdk/core/yt/yt_vlan_translate.c ****     CMM_PARAM_CHK((!(YT_DISPATCH(unit)->is_inited)), CMM_ERR_NOT_INIT);
 2122              		.loc 1 226 5 is_stmt 0 discriminator 3 view .LVU614
 2123 0062 1D4B     		ldr	r3, .L220+20
 2124 0064 9968     		ldr	r1, [r3, #8]
 2125              	.LVL279:
 226:../switch_sdk/core/yt/yt_vlan_translate.c ****     CMM_PARAM_CHK((!(YT_DISPATCH(unit)->is_inited)), CMM_ERR_NOT_INIT);
 2126              		.loc 1 226 5 discriminator 3 view .LVU615
 2127 0066 1D48     		ldr	r0, .L220+24
 2128              	.LVL280:
 226:../switch_sdk/core/yt/yt_vlan_translate.c ****     CMM_PARAM_CHK((!(YT_DISPATCH(unit)->is_inited)), CMM_ERR_NOT_INIT);
 2129              		.loc 1 226 5 discriminator 3 view .LVU616
 2130 0068 FFF7FEFF 		bl	osal_printf
 2131              	.LVL281:
 2132 006c F5E7     		b	.L202
 2133              	.LVL282:
 2134              	.L213:
 226:../switch_sdk/core/yt/yt_vlan_translate.c ****     CMM_PARAM_CHK((!(YT_DISPATCH(unit)->is_inited)), CMM_ERR_NOT_INIT);
 2135              		.loc 1 226 5 discriminator 3 view .LVU617
 2136              	.LBE42:
 227:../switch_sdk/core/yt/yt_vlan_translate.c ****     CMM_PARAM_CHK((!(CMM_PORT_VALID(unit, port))), CMM_ERR_PORT);
 2137              		.loc 1 227 5 is_stmt 1 discriminator 1 view .LVU618
 227:../switch_sdk/core/yt/yt_vlan_translate.c ****     CMM_PARAM_CHK((!(CMM_PORT_VALID(unit, port))), CMM_ERR_PORT);
 2138              		.loc 1 227 5 discriminator 1 view .LVU619
 2139 006e 184B     		ldr	r3, .L220+12
 2140 0070 1B78     		ldrb	r3, [r3]	@ zero_extendqisi2
 2141 0072 012B     		cmp	r3, #1
 2142 0074 01D8     		bhi	.L217
 2143              	.LVL283:
 2144              	.L204:
 227:../switch_sdk/core/yt/yt_vlan_translate.c ****     CMM_PARAM_CHK((!(CMM_PORT_VALID(unit, port))), CMM_ERR_PORT);
 2145              		.loc 1 227 5 discriminator 5 view .LVU620
 227:../switch_sdk/core/yt/yt_vlan_translate.c ****     CMM_PARAM_CHK((!(CMM_PORT_VALID(unit, port))), CMM_ERR_PORT);
 2146              		.loc 1 227 5 discriminator 5 view .LVU621
 227:../switch_sdk/core/yt/yt_vlan_translate.c ****     CMM_PARAM_CHK((!(CMM_PORT_VALID(unit, port))), CMM_ERR_PORT);
 2147              		.loc 1 227 5 discriminator 5 view .LVU622
 2148 0076 0420     		movs	r0, #4
 2149 0078 DCE7     		b	.L197
 2150              	.LVL284:
 2151              	.L217:
 227:../switch_sdk/core/yt/yt_vlan_translate.c ****     CMM_PARAM_CHK((!(CMM_PORT_VALID(unit, port))), CMM_ERR_PORT);
 2152              		.loc 1 227 5 discriminator 3 view .LVU623
 2153              	.LBB43:
 227:../switch_sdk/core/yt/yt_vlan_translate.c ****     CMM_PARAM_CHK((!(CMM_PORT_VALID(unit, port))), CMM_ERR_PORT);
 2154              		.loc 1 227 5 discriminator 3 view .LVU624
 2155 007a 164B     		ldr	r3, .L220+16
 2156 007c 1A69     		ldr	r2, [r3, #16]
 2157              	.LVL285:
 227:../switch_sdk/core/yt/yt_vlan_translate.c ****     CMM_PARAM_CHK((!(CMM_PORT_VALID(unit, port))), CMM_ERR_PORT);
 2158              		.loc 1 227 5 is_stmt 0 discriminator 3 view .LVU625
 2159 007e 164B     		ldr	r3, .L220+20
 2160 0080 9968     		ldr	r1, [r3, #8]
 2161              	.LVL286:
 227:../switch_sdk/core/yt/yt_vlan_translate.c ****     CMM_PARAM_CHK((!(CMM_PORT_VALID(unit, port))), CMM_ERR_PORT);
 2162              		.loc 1 227 5 discriminator 3 view .LVU626
 2163 0082 1648     		ldr	r0, .L220+24
 2164 0084 FFF7FEFF 		bl	osal_printf
 2165              	.LVL287:
 2166 0088 F5E7     		b	.L204
 2167              	.LVL288:
 2168              	.L205:
 227:../switch_sdk/core/yt/yt_vlan_translate.c ****     CMM_PARAM_CHK((!(CMM_PORT_VALID(unit, port))), CMM_ERR_PORT);
 2169              		.loc 1 227 5 discriminator 3 view .LVU627
 2170              	.LBE43:
 228:../switch_sdk/core/yt/yt_vlan_translate.c ****     CMM_PARAM_CHK((NULL == pRangeMode), CMM_ERR_NULL_POINT);
 2171              		.loc 1 228 5 is_stmt 1 discriminator 3 view .LVU628
 228:../switch_sdk/core/yt/yt_vlan_translate.c ****     CMM_PARAM_CHK((NULL == pRangeMode), CMM_ERR_NULL_POINT);
 2172              		.loc 1 228 5 discriminator 3 view .LVU629
 2173 008a 114B     		ldr	r3, .L220+12
 2174 008c 1B78     		ldrb	r3, [r3]	@ zero_extendqisi2
 2175 008e 012B     		cmp	r3, #1
 2176 0090 01D8     		bhi	.L218
 2177              	.LVL289:
 2178              	.L207:
 228:../switch_sdk/core/yt/yt_vlan_translate.c ****     CMM_PARAM_CHK((NULL == pRangeMode), CMM_ERR_NULL_POINT);
 2179              		.loc 1 228 5 discriminator 7 view .LVU630
 228:../switch_sdk/core/yt/yt_vlan_translate.c ****     CMM_PARAM_CHK((NULL == pRangeMode), CMM_ERR_NULL_POINT);
 2180              		.loc 1 228 5 discriminator 7 view .LVU631
 228:../switch_sdk/core/yt/yt_vlan_translate.c ****     CMM_PARAM_CHK((NULL == pRangeMode), CMM_ERR_NULL_POINT);
 2181              		.loc 1 228 5 discriminator 7 view .LVU632
 2182 0092 0E20     		movs	r0, #14
 2183 0094 CEE7     		b	.L197
 2184              	.LVL290:
 2185              	.L218:
 228:../switch_sdk/core/yt/yt_vlan_translate.c ****     CMM_PARAM_CHK((NULL == pRangeMode), CMM_ERR_NULL_POINT);
 2186              		.loc 1 228 5 discriminator 5 view .LVU633
 2187              	.LBB44:
 228:../switch_sdk/core/yt/yt_vlan_translate.c ****     CMM_PARAM_CHK((NULL == pRangeMode), CMM_ERR_NULL_POINT);
 2188              		.loc 1 228 5 discriminator 5 view .LVU634
 2189 0096 0F4B     		ldr	r3, .L220+16
 2190 0098 9A6B     		ldr	r2, [r3, #56]
 2191              	.LVL291:
 228:../switch_sdk/core/yt/yt_vlan_translate.c ****     CMM_PARAM_CHK((NULL == pRangeMode), CMM_ERR_NULL_POINT);
 2192              		.loc 1 228 5 is_stmt 0 discriminator 5 view .LVU635
 2193 009a 0F4B     		ldr	r3, .L220+20
 2194 009c 9968     		ldr	r1, [r3, #8]
 2195              	.LVL292:
 228:../switch_sdk/core/yt/yt_vlan_translate.c ****     CMM_PARAM_CHK((NULL == pRangeMode), CMM_ERR_NULL_POINT);
 2196              		.loc 1 228 5 discriminator 5 view .LVU636
 2197 009e 0F48     		ldr	r0, .L220+24
 2198 00a0 FFF7FEFF 		bl	osal_printf
 2199              	.LVL293:
 2200 00a4 F5E7     		b	.L207
 2201              	.LVL294:
 2202              	.L214:
 228:../switch_sdk/core/yt/yt_vlan_translate.c ****     CMM_PARAM_CHK((NULL == pRangeMode), CMM_ERR_NULL_POINT);
 2203              		.loc 1 228 5 discriminator 5 view .LVU637
 2204              	.LBE44:
 229:../switch_sdk/core/yt/yt_vlan_translate.c **** 
 2205              		.loc 1 229 5 is_stmt 1 discriminator 1 view .LVU638
 229:../switch_sdk/core/yt/yt_vlan_translate.c **** 
 2206              		.loc 1 229 5 discriminator 1 view .LVU639
 2207 00a6 0A4B     		ldr	r3, .L220+12
 2208 00a8 1B78     		ldrb	r3, [r3]	@ zero_extendqisi2
 2209 00aa 012B     		cmp	r3, #1
 2210 00ac 01D8     		bhi	.L219
 2211              	.LVL295:
 2212              	.L209:
 229:../switch_sdk/core/yt/yt_vlan_translate.c **** 
 2213              		.loc 1 229 5 discriminator 5 view .LVU640
 229:../switch_sdk/core/yt/yt_vlan_translate.c **** 
 2214              		.loc 1 229 5 discriminator 5 view .LVU641
 229:../switch_sdk/core/yt/yt_vlan_translate.c **** 
 2215              		.loc 1 229 5 discriminator 5 view .LVU642
 2216 00ae 0220     		movs	r0, #2
 2217 00b0 C0E7     		b	.L197
 2218              	.LVL296:
 2219              	.L219:
 229:../switch_sdk/core/yt/yt_vlan_translate.c **** 
 2220              		.loc 1 229 5 discriminator 3 view .LVU643
 2221              	.LBB45:
 229:../switch_sdk/core/yt/yt_vlan_translate.c **** 
 2222              		.loc 1 229 5 discriminator 3 view .LVU644
 2223 00b2 084B     		ldr	r3, .L220+16
 2224 00b4 9A68     		ldr	r2, [r3, #8]
 2225              	.LVL297:
 229:../switch_sdk/core/yt/yt_vlan_translate.c **** 
 2226              		.loc 1 229 5 is_stmt 0 discriminator 3 view .LVU645
 2227 00b6 084B     		ldr	r3, .L220+20
 2228 00b8 9968     		ldr	r1, [r3, #8]
 2229              	.LVL298:
 229:../switch_sdk/core/yt/yt_vlan_translate.c **** 
 2230              		.loc 1 229 5 discriminator 3 view .LVU646
 2231 00ba 0848     		ldr	r0, .L220+24
 2232 00bc FFF7FEFF 		bl	osal_printf
 2233              	.LVL299:
 2234 00c0 F5E7     		b	.L209
 2235              	.L221:
 2236 00c2 00BF     		.align	2
 2237              	.L220:
 2238 00c4 00000000 		.word	gpfal_dispatch
 2239 00c8 00000000 		.word	gcal_inited
 2240 00cc 00000000 		.word	gpSwitchUnit
 2241 00d0 00000000 		.word	yt_debug_level
 2242 00d4 00000000 		.word	_yt_errmsg
 2243 00d8 00000000 		.word	_yt_prompt_msg
 2244 00dc 00000000 		.word	.LC0
 2245              	.LBE45:
 2246              		.cfi_endproc
 2247              	.LFE11:
 2249              		.section	.text.yt_vlan_igr_trans_table_add,"ax",%progbits
 2250              		.align	1
 2251              		.global	yt_vlan_igr_trans_table_add
 2252              		.syntax unified
 2253              		.thumb
 2254              		.thumb_func
 2256              	yt_vlan_igr_trans_table_add:
 2257              	.LVL300:
 2258              	.LFB12:
 233:../switch_sdk/core/yt/yt_vlan_translate.c **** 
 234:../switch_sdk/core/yt/yt_vlan_translate.c **** /**
 235:../switch_sdk/core/yt/yt_vlan_translate.c ****  * @internal      yt_vlan_igr_trans_table_add
 236:../switch_sdk/core/yt/yt_vlan_translate.c ****  * @endinternal
 237:../switch_sdk/core/yt/yt_vlan_translate.c ****  *
 238:../switch_sdk/core/yt/yt_vlan_translate.c ****  * @brief         Add ingress vlan translate table and action
 239:../switch_sdk/core/yt/yt_vlan_translate.c ****  * @note          APPLICABLE DEVICES  -Tiger
 240:../switch_sdk/core/yt/yt_vlan_translate.c ****  * @param[in]     unit                -unit id
 241:../switch_sdk/core/yt/yt_vlan_translate.c ****  * @param[in]     pRuleTbl            -ingress vlan translate table info
 242:../switch_sdk/core/yt/yt_vlan_translate.c ****  * @param[in]     pAction             -ingress vlan translate action
 243:../switch_sdk/core/yt/yt_vlan_translate.c ****  * @param[out]     pEntry_id           -vlan translate table index
 244:../switch_sdk/core/yt/yt_vlan_translate.c ****  * @retval        CMM_ERR_OK          -on success
 245:../switch_sdk/core/yt/yt_vlan_translate.c ****  * @retval        CMM_ERR_FAIL        -on fail
 246:../switch_sdk/core/yt/yt_vlan_translate.c ****  * @retval        CMM_ERR_TABLE_FULL        -no free table entry
 247:../switch_sdk/core/yt/yt_vlan_translate.c ****  */
 248:../switch_sdk/core/yt/yt_vlan_translate.c **** yt_ret_t  yt_vlan_igr_trans_table_add(yt_unit_t unit, yt_vlan_trans_tbl_t *pRuleTbl,  yt_vlan_trans
 249:../switch_sdk/core/yt/yt_vlan_translate.c **** {
 2259              		.loc 1 249 1 is_stmt 1 view -0
 2260              		.cfi_startproc
 2261              		@ args = 0, pretend = 0, frame = 0
 2262              		@ frame_needed = 0, uses_anonymous_args = 0
 2263              		.loc 1 249 1 is_stmt 0 view .LVU648
 2264 0000 10B5     		push	{r4, lr}
 2265              		.cfi_def_cfa_offset 8
 2266              		.cfi_offset 4, -8
 2267              		.cfi_offset 14, -4
 250:../switch_sdk/core/yt/yt_vlan_translate.c ****     CMM_PARAM_CHK((YT_UNIT_NUM <= unit), CMM_ERR_INPUT);
 2268              		.loc 1 250 5 is_stmt 1 view .LVU649
 2269              		.loc 1 250 5 view .LVU650
 2270 0002 88B9     		cbnz	r0, .L237
 2271 0004 8446     		mov	ip, r0
 2272              		.loc 1 250 5 discriminator 2 view .LVU651
 251:../switch_sdk/core/yt/yt_vlan_translate.c ****     CMM_PARAM_CHK(NULL == YT_DISPATCH(unit), CMM_ERR_NOT_INIT);
 2273              		.loc 1 251 5 discriminator 2 view .LVU652
 2274              		.loc 1 251 5 discriminator 2 view .LVU653
 2275 0006 3248     		ldr	r0, .L249
 2276              	.LVL301:
 2277              		.loc 1 251 5 is_stmt 0 discriminator 2 view .LVU654
 2278 0008 50F82C40 		ldr	r4, [r0, ip, lsl #2]
 2279 000c D4B1     		cbz	r4, .L238
 2280              		.loc 1 251 5 is_stmt 1 discriminator 2 view .LVU655
 252:../switch_sdk/core/yt/yt_vlan_translate.c ****     CMM_PARAM_CHK((!(YT_DISPATCH(unit)->is_inited)), CMM_ERR_NOT_INIT);
 2281              		.loc 1 252 5 discriminator 2 view .LVU656
 2282              		.loc 1 252 5 discriminator 2 view .LVU657
 2283 000e 2078     		ldrb	r0, [r4]	@ zero_extendqisi2
 2284 0010 30B3     		cbz	r0, .L239
 2285              		.loc 1 252 5 discriminator 2 view .LVU658
 253:../switch_sdk/core/yt/yt_vlan_translate.c ****     CMM_PARAM_CHK((NULL == pRuleTbl), CMM_ERR_NULL_POINT);
 2286              		.loc 1 253 5 discriminator 2 view .LVU659
 2287              		.loc 1 253 5 discriminator 2 view .LVU660
 2288 0012 0029     		cmp	r1, #0
 2289 0014 32D0     		beq	.L240
 2290              		.loc 1 253 5 discriminator 2 view .LVU661
 254:../switch_sdk/core/yt/yt_vlan_translate.c ****     CMM_PARAM_CHK((NULL == pAction), CMM_ERR_NULL_POINT);
 2291              		.loc 1 254 5 discriminator 2 view .LVU662
 2292              		.loc 1 254 5 discriminator 2 view .LVU663
 2293 0016 002A     		cmp	r2, #0
 2294 0018 3ED0     		beq	.L241
 2295              		.loc 1 254 5 discriminator 2 view .LVU664
 255:../switch_sdk/core/yt/yt_vlan_translate.c ****     CMM_PARAM_CHK((NULL == pEntry_id), CMM_ERR_NULL_POINT);
 2296              		.loc 1 255 5 discriminator 2 view .LVU665
 2297              		.loc 1 255 5 discriminator 2 view .LVU666
 2298 001a 002B     		cmp	r3, #0
 2299 001c 4AD0     		beq	.L242
 2300              		.loc 1 255 5 discriminator 2 view .LVU667
 256:../switch_sdk/core/yt/yt_vlan_translate.c **** 
 257:../switch_sdk/core/yt/yt_vlan_translate.c ****     return YT_DISPATCH(unit)->vlan_igr_trans_table_add(unit, pRuleTbl, pAction, pEntry_id);
 2301              		.loc 1 257 5 discriminator 2 view .LVU668
 2302              		.loc 1 257 29 is_stmt 0 discriminator 2 view .LVU669
 2303 001e D4F8C040 		ldr	r4, [r4, #192]
 2304              		.loc 1 257 12 discriminator 2 view .LVU670
 2305 0022 6046     		mov	r0, ip
 2306 0024 A047     		blx	r4
 2307              	.LVL302:
 2308              	.L222:
 258:../switch_sdk/core/yt/yt_vlan_translate.c **** }
 2309              		.loc 1 258 1 view .LVU671
 2310 0026 10BD     		pop	{r4, pc}
 2311              	.LVL303:
 2312              	.L237:
 250:../switch_sdk/core/yt/yt_vlan_translate.c ****     CMM_PARAM_CHK(NULL == YT_DISPATCH(unit), CMM_ERR_NOT_INIT);
 2313              		.loc 1 250 5 is_stmt 1 discriminator 1 view .LVU672
 250:../switch_sdk/core/yt/yt_vlan_translate.c ****     CMM_PARAM_CHK(NULL == YT_DISPATCH(unit), CMM_ERR_NOT_INIT);
 2314              		.loc 1 250 5 discriminator 1 view .LVU673
 2315 0028 2A4B     		ldr	r3, .L249+4
 2316              	.LVL304:
 250:../switch_sdk/core/yt/yt_vlan_translate.c ****     CMM_PARAM_CHK(NULL == YT_DISPATCH(unit), CMM_ERR_NOT_INIT);
 2317              		.loc 1 250 5 is_stmt 0 discriminator 1 view .LVU674
 2318 002a 1B78     		ldrb	r3, [r3]	@ zero_extendqisi2
 2319 002c 012B     		cmp	r3, #1
 2320 002e 01D8     		bhi	.L243
 2321              	.LVL305:
 2322              	.L224:
 250:../switch_sdk/core/yt/yt_vlan_translate.c ****     CMM_PARAM_CHK(NULL == YT_DISPATCH(unit), CMM_ERR_NOT_INIT);
 2323              		.loc 1 250 5 is_stmt 1 discriminator 5 view .LVU675
 250:../switch_sdk/core/yt/yt_vlan_translate.c ****     CMM_PARAM_CHK(NULL == YT_DISPATCH(unit), CMM_ERR_NOT_INIT);
 2324              		.loc 1 250 5 discriminator 5 view .LVU676
 250:../switch_sdk/core/yt/yt_vlan_translate.c ****     CMM_PARAM_CHK(NULL == YT_DISPATCH(unit), CMM_ERR_NOT_INIT);
 2325              		.loc 1 250 5 discriminator 5 view .LVU677
 2326 0030 0520     		movs	r0, #5
 2327 0032 F8E7     		b	.L222
 2328              	.LVL306:
 2329              	.L243:
 250:../switch_sdk/core/yt/yt_vlan_translate.c ****     CMM_PARAM_CHK(NULL == YT_DISPATCH(unit), CMM_ERR_NOT_INIT);
 2330              		.loc 1 250 5 discriminator 3 view .LVU678
 2331              	.LBB46:
 250:../switch_sdk/core/yt/yt_vlan_translate.c ****     CMM_PARAM_CHK(NULL == YT_DISPATCH(unit), CMM_ERR_NOT_INIT);
 2332              		.loc 1 250 5 discriminator 3 view .LVU679
 2333 0034 284B     		ldr	r3, .L249+8
 2334 0036 5A69     		ldr	r2, [r3, #20]
 2335              	.LVL307:
 250:../switch_sdk/core/yt/yt_vlan_translate.c ****     CMM_PARAM_CHK(NULL == YT_DISPATCH(unit), CMM_ERR_NOT_INIT);
 2336              		.loc 1 250 5 is_stmt 0 discriminator 3 view .LVU680
 2337 0038 284B     		ldr	r3, .L249+12
 2338 003a 9968     		ldr	r1, [r3, #8]
 2339              	.LVL308:
 250:../switch_sdk/core/yt/yt_vlan_translate.c ****     CMM_PARAM_CHK(NULL == YT_DISPATCH(unit), CMM_ERR_NOT_INIT);
 2340              		.loc 1 250 5 discriminator 3 view .LVU681
 2341 003c 2848     		ldr	r0, .L249+16
 2342              	.LVL309:
 250:../switch_sdk/core/yt/yt_vlan_translate.c ****     CMM_PARAM_CHK(NULL == YT_DISPATCH(unit), CMM_ERR_NOT_INIT);
 2343              		.loc 1 250 5 discriminator 3 view .LVU682
 2344 003e FFF7FEFF 		bl	osal_printf
 2345              	.LVL310:
 2346 0042 F5E7     		b	.L224
 2347              	.LVL311:
 2348              	.L238:
 250:../switch_sdk/core/yt/yt_vlan_translate.c ****     CMM_PARAM_CHK(NULL == YT_DISPATCH(unit), CMM_ERR_NOT_INIT);
 2349              		.loc 1 250 5 discriminator 3 view .LVU683
 2350              	.LBE46:
 251:../switch_sdk/core/yt/yt_vlan_translate.c ****     CMM_PARAM_CHK((!(YT_DISPATCH(unit)->is_inited)), CMM_ERR_NOT_INIT);
 2351              		.loc 1 251 5 is_stmt 1 discriminator 1 view .LVU684
 251:../switch_sdk/core/yt/yt_vlan_translate.c ****     CMM_PARAM_CHK((!(YT_DISPATCH(unit)->is_inited)), CMM_ERR_NOT_INIT);
 2352              		.loc 1 251 5 discriminator 1 view .LVU685
 2353 0044 234B     		ldr	r3, .L249+4
 2354              	.LVL312:
 251:../switch_sdk/core/yt/yt_vlan_translate.c ****     CMM_PARAM_CHK((!(YT_DISPATCH(unit)->is_inited)), CMM_ERR_NOT_INIT);
 2355              		.loc 1 251 5 is_stmt 0 discriminator 1 view .LVU686
 2356 0046 1B78     		ldrb	r3, [r3]	@ zero_extendqisi2
 2357 0048 012B     		cmp	r3, #1
 2358 004a 01D8     		bhi	.L244
 2359              	.LVL313:
 2360              	.L227:
 251:../switch_sdk/core/yt/yt_vlan_translate.c ****     CMM_PARAM_CHK((!(YT_DISPATCH(unit)->is_inited)), CMM_ERR_NOT_INIT);
 2361              		.loc 1 251 5 is_stmt 1 discriminator 5 view .LVU687
 251:../switch_sdk/core/yt/yt_vlan_translate.c ****     CMM_PARAM_CHK((!(YT_DISPATCH(unit)->is_inited)), CMM_ERR_NOT_INIT);
 2362              		.loc 1 251 5 discriminator 5 view .LVU688
 251:../switch_sdk/core/yt/yt_vlan_translate.c ****     CMM_PARAM_CHK((!(YT_DISPATCH(unit)->is_inited)), CMM_ERR_NOT_INIT);
 2363              		.loc 1 251 5 discriminator 5 view .LVU689
 2364 004c 0420     		movs	r0, #4
 2365 004e EAE7     		b	.L222
 2366              	.LVL314:
 2367              	.L244:
 251:../switch_sdk/core/yt/yt_vlan_translate.c ****     CMM_PARAM_CHK((!(YT_DISPATCH(unit)->is_inited)), CMM_ERR_NOT_INIT);
 2368              		.loc 1 251 5 discriminator 3 view .LVU690
 2369              	.LBB47:
 251:../switch_sdk/core/yt/yt_vlan_translate.c ****     CMM_PARAM_CHK((!(YT_DISPATCH(unit)->is_inited)), CMM_ERR_NOT_INIT);
 2370              		.loc 1 251 5 discriminator 3 view .LVU691
 2371 0050 214B     		ldr	r3, .L249+8
 2372 0052 1A69     		ldr	r2, [r3, #16]
 2373              	.LVL315:
 251:../switch_sdk/core/yt/yt_vlan_translate.c ****     CMM_PARAM_CHK((!(YT_DISPATCH(unit)->is_inited)), CMM_ERR_NOT_INIT);
 2374              		.loc 1 251 5 is_stmt 0 discriminator 3 view .LVU692
 2375 0054 214B     		ldr	r3, .L249+12
 2376 0056 9968     		ldr	r1, [r3, #8]
 2377              	.LVL316:
 251:../switch_sdk/core/yt/yt_vlan_translate.c ****     CMM_PARAM_CHK((!(YT_DISPATCH(unit)->is_inited)), CMM_ERR_NOT_INIT);
 2378              		.loc 1 251 5 discriminator 3 view .LVU693
 2379 0058 2148     		ldr	r0, .L249+16
 2380 005a FFF7FEFF 		bl	osal_printf
 2381              	.LVL317:
 2382 005e F5E7     		b	.L227
 2383              	.LVL318:
 2384              	.L239:
 251:../switch_sdk/core/yt/yt_vlan_translate.c ****     CMM_PARAM_CHK((!(YT_DISPATCH(unit)->is_inited)), CMM_ERR_NOT_INIT);
 2385              		.loc 1 251 5 discriminator 3 view .LVU694
 2386              	.LBE47:
 252:../switch_sdk/core/yt/yt_vlan_translate.c ****     CMM_PARAM_CHK((NULL == pRuleTbl), CMM_ERR_NULL_POINT);
 2387              		.loc 1 252 5 is_stmt 1 discriminator 1 view .LVU695
 252:../switch_sdk/core/yt/yt_vlan_translate.c ****     CMM_PARAM_CHK((NULL == pRuleTbl), CMM_ERR_NULL_POINT);
 2388              		.loc 1 252 5 discriminator 1 view .LVU696
 2389 0060 1C4B     		ldr	r3, .L249+4
 2390              	.LVL319:
 252:../switch_sdk/core/yt/yt_vlan_translate.c ****     CMM_PARAM_CHK((NULL == pRuleTbl), CMM_ERR_NULL_POINT);
 2391              		.loc 1 252 5 is_stmt 0 discriminator 1 view .LVU697
 2392 0062 1B78     		ldrb	r3, [r3]	@ zero_extendqisi2
 2393 0064 012B     		cmp	r3, #1
 2394 0066 01D8     		bhi	.L245
 2395              	.LVL320:
 2396              	.L229:
 252:../switch_sdk/core/yt/yt_vlan_translate.c ****     CMM_PARAM_CHK((NULL == pRuleTbl), CMM_ERR_NULL_POINT);
 2397              		.loc 1 252 5 is_stmt 1 discriminator 5 view .LVU698
 252:../switch_sdk/core/yt/yt_vlan_translate.c ****     CMM_PARAM_CHK((NULL == pRuleTbl), CMM_ERR_NULL_POINT);
 2398              		.loc 1 252 5 discriminator 5 view .LVU699
 252:../switch_sdk/core/yt/yt_vlan_translate.c ****     CMM_PARAM_CHK((NULL == pRuleTbl), CMM_ERR_NULL_POINT);
 2399              		.loc 1 252 5 discriminator 5 view .LVU700
 2400 0068 0420     		movs	r0, #4
 2401 006a DCE7     		b	.L222
 2402              	.LVL321:
 2403              	.L245:
 252:../switch_sdk/core/yt/yt_vlan_translate.c ****     CMM_PARAM_CHK((NULL == pRuleTbl), CMM_ERR_NULL_POINT);
 2404              		.loc 1 252 5 discriminator 3 view .LVU701
 2405              	.LBB48:
 252:../switch_sdk/core/yt/yt_vlan_translate.c ****     CMM_PARAM_CHK((NULL == pRuleTbl), CMM_ERR_NULL_POINT);
 2406              		.loc 1 252 5 discriminator 3 view .LVU702
 2407 006c 1A4B     		ldr	r3, .L249+8
 2408 006e 1A69     		ldr	r2, [r3, #16]
 2409              	.LVL322:
 252:../switch_sdk/core/yt/yt_vlan_translate.c ****     CMM_PARAM_CHK((NULL == pRuleTbl), CMM_ERR_NULL_POINT);
 2410              		.loc 1 252 5 is_stmt 0 discriminator 3 view .LVU703
 2411 0070 1A4B     		ldr	r3, .L249+12
 2412 0072 9968     		ldr	r1, [r3, #8]
 2413              	.LVL323:
 252:../switch_sdk/core/yt/yt_vlan_translate.c ****     CMM_PARAM_CHK((NULL == pRuleTbl), CMM_ERR_NULL_POINT);
 2414              		.loc 1 252 5 discriminator 3 view .LVU704
 2415 0074 1A48     		ldr	r0, .L249+16
 2416 0076 FFF7FEFF 		bl	osal_printf
 2417              	.LVL324:
 2418 007a F5E7     		b	.L229
 2419              	.LVL325:
 2420              	.L240:
 252:../switch_sdk/core/yt/yt_vlan_translate.c ****     CMM_PARAM_CHK((NULL == pRuleTbl), CMM_ERR_NULL_POINT);
 2421              		.loc 1 252 5 discriminator 3 view .LVU705
 2422              	.LBE48:
 253:../switch_sdk/core/yt/yt_vlan_translate.c ****     CMM_PARAM_CHK((NULL == pAction), CMM_ERR_NULL_POINT);
 2423              		.loc 1 253 5 is_stmt 1 discriminator 1 view .LVU706
 253:../switch_sdk/core/yt/yt_vlan_translate.c ****     CMM_PARAM_CHK((NULL == pAction), CMM_ERR_NULL_POINT);
 2424              		.loc 1 253 5 discriminator 1 view .LVU707
 2425 007c 154B     		ldr	r3, .L249+4
 2426              	.LVL326:
 253:../switch_sdk/core/yt/yt_vlan_translate.c ****     CMM_PARAM_CHK((NULL == pAction), CMM_ERR_NULL_POINT);
 2427              		.loc 1 253 5 is_stmt 0 discriminator 1 view .LVU708
 2428 007e 1B78     		ldrb	r3, [r3]	@ zero_extendqisi2
 2429 0080 012B     		cmp	r3, #1
 2430 0082 01D8     		bhi	.L246
 2431              	.LVL327:
 2432              	.L231:
 253:../switch_sdk/core/yt/yt_vlan_translate.c ****     CMM_PARAM_CHK((NULL == pAction), CMM_ERR_NULL_POINT);
 2433              		.loc 1 253 5 is_stmt 1 discriminator 5 view .LVU709
 253:../switch_sdk/core/yt/yt_vlan_translate.c ****     CMM_PARAM_CHK((NULL == pAction), CMM_ERR_NULL_POINT);
 2434              		.loc 1 253 5 discriminator 5 view .LVU710
 253:../switch_sdk/core/yt/yt_vlan_translate.c ****     CMM_PARAM_CHK((NULL == pAction), CMM_ERR_NULL_POINT);
 2435              		.loc 1 253 5 discriminator 5 view .LVU711
 2436 0084 0220     		movs	r0, #2
 2437 0086 CEE7     		b	.L222
 2438              	.LVL328:
 2439              	.L246:
 253:../switch_sdk/core/yt/yt_vlan_translate.c ****     CMM_PARAM_CHK((NULL == pAction), CMM_ERR_NULL_POINT);
 2440              		.loc 1 253 5 discriminator 3 view .LVU712
 2441              	.LBB49:
 253:../switch_sdk/core/yt/yt_vlan_translate.c ****     CMM_PARAM_CHK((NULL == pAction), CMM_ERR_NULL_POINT);
 2442              		.loc 1 253 5 discriminator 3 view .LVU713
 2443 0088 134B     		ldr	r3, .L249+8
 2444 008a 9A68     		ldr	r2, [r3, #8]
 2445              	.LVL329:
 253:../switch_sdk/core/yt/yt_vlan_translate.c ****     CMM_PARAM_CHK((NULL == pAction), CMM_ERR_NULL_POINT);
 2446              		.loc 1 253 5 is_stmt 0 discriminator 3 view .LVU714
 2447 008c 134B     		ldr	r3, .L249+12
 2448 008e 9968     		ldr	r1, [r3, #8]
 2449              	.LVL330:
 253:../switch_sdk/core/yt/yt_vlan_translate.c ****     CMM_PARAM_CHK((NULL == pAction), CMM_ERR_NULL_POINT);
 2450              		.loc 1 253 5 discriminator 3 view .LVU715
 2451 0090 1348     		ldr	r0, .L249+16
 2452 0092 FFF7FEFF 		bl	osal_printf
 2453              	.LVL331:
 2454 0096 F5E7     		b	.L231
 2455              	.LVL332:
 2456              	.L241:
 253:../switch_sdk/core/yt/yt_vlan_translate.c ****     CMM_PARAM_CHK((NULL == pAction), CMM_ERR_NULL_POINT);
 2457              		.loc 1 253 5 discriminator 3 view .LVU716
 2458              	.LBE49:
 254:../switch_sdk/core/yt/yt_vlan_translate.c ****     CMM_PARAM_CHK((NULL == pEntry_id), CMM_ERR_NULL_POINT);
 2459              		.loc 1 254 5 is_stmt 1 discriminator 1 view .LVU717
 254:../switch_sdk/core/yt/yt_vlan_translate.c ****     CMM_PARAM_CHK((NULL == pEntry_id), CMM_ERR_NULL_POINT);
 2460              		.loc 1 254 5 discriminator 1 view .LVU718
 2461 0098 0E4B     		ldr	r3, .L249+4
 2462              	.LVL333:
 254:../switch_sdk/core/yt/yt_vlan_translate.c ****     CMM_PARAM_CHK((NULL == pEntry_id), CMM_ERR_NULL_POINT);
 2463              		.loc 1 254 5 is_stmt 0 discriminator 1 view .LVU719
 2464 009a 1B78     		ldrb	r3, [r3]	@ zero_extendqisi2
 2465 009c 012B     		cmp	r3, #1
 2466 009e 01D8     		bhi	.L247
 2467              	.LVL334:
 2468              	.L233:
 254:../switch_sdk/core/yt/yt_vlan_translate.c ****     CMM_PARAM_CHK((NULL == pEntry_id), CMM_ERR_NULL_POINT);
 2469              		.loc 1 254 5 is_stmt 1 discriminator 5 view .LVU720
 254:../switch_sdk/core/yt/yt_vlan_translate.c ****     CMM_PARAM_CHK((NULL == pEntry_id), CMM_ERR_NULL_POINT);
 2470              		.loc 1 254 5 discriminator 5 view .LVU721
 254:../switch_sdk/core/yt/yt_vlan_translate.c ****     CMM_PARAM_CHK((NULL == pEntry_id), CMM_ERR_NULL_POINT);
 2471              		.loc 1 254 5 discriminator 5 view .LVU722
 2472 00a0 0220     		movs	r0, #2
 2473 00a2 C0E7     		b	.L222
 2474              	.LVL335:
 2475              	.L247:
 254:../switch_sdk/core/yt/yt_vlan_translate.c ****     CMM_PARAM_CHK((NULL == pEntry_id), CMM_ERR_NULL_POINT);
 2476              		.loc 1 254 5 discriminator 3 view .LVU723
 2477              	.LBB50:
 254:../switch_sdk/core/yt/yt_vlan_translate.c ****     CMM_PARAM_CHK((NULL == pEntry_id), CMM_ERR_NULL_POINT);
 2478              		.loc 1 254 5 discriminator 3 view .LVU724
 2479 00a4 0C4B     		ldr	r3, .L249+8
 2480 00a6 9A68     		ldr	r2, [r3, #8]
 2481              	.LVL336:
 254:../switch_sdk/core/yt/yt_vlan_translate.c ****     CMM_PARAM_CHK((NULL == pEntry_id), CMM_ERR_NULL_POINT);
 2482              		.loc 1 254 5 is_stmt 0 discriminator 3 view .LVU725
 2483 00a8 0C4B     		ldr	r3, .L249+12
 2484 00aa 9968     		ldr	r1, [r3, #8]
 2485              	.LVL337:
 254:../switch_sdk/core/yt/yt_vlan_translate.c ****     CMM_PARAM_CHK((NULL == pEntry_id), CMM_ERR_NULL_POINT);
 2486              		.loc 1 254 5 discriminator 3 view .LVU726
 2487 00ac 0C48     		ldr	r0, .L249+16
 2488 00ae FFF7FEFF 		bl	osal_printf
 2489              	.LVL338:
 2490 00b2 F5E7     		b	.L233
 2491              	.LVL339:
 2492              	.L242:
 254:../switch_sdk/core/yt/yt_vlan_translate.c ****     CMM_PARAM_CHK((NULL == pEntry_id), CMM_ERR_NULL_POINT);
 2493              		.loc 1 254 5 discriminator 3 view .LVU727
 2494              	.LBE50:
 255:../switch_sdk/core/yt/yt_vlan_translate.c **** 
 2495              		.loc 1 255 5 is_stmt 1 discriminator 1 view .LVU728
 255:../switch_sdk/core/yt/yt_vlan_translate.c **** 
 2496              		.loc 1 255 5 discriminator 1 view .LVU729
 2497 00b4 074B     		ldr	r3, .L249+4
 2498              	.LVL340:
 255:../switch_sdk/core/yt/yt_vlan_translate.c **** 
 2499              		.loc 1 255 5 is_stmt 0 discriminator 1 view .LVU730
 2500 00b6 1B78     		ldrb	r3, [r3]	@ zero_extendqisi2
 2501 00b8 012B     		cmp	r3, #1
 2502 00ba 01D8     		bhi	.L248
 2503              	.LVL341:
 2504              	.L235:
 255:../switch_sdk/core/yt/yt_vlan_translate.c **** 
 2505              		.loc 1 255 5 is_stmt 1 discriminator 5 view .LVU731
 255:../switch_sdk/core/yt/yt_vlan_translate.c **** 
 2506              		.loc 1 255 5 discriminator 5 view .LVU732
 255:../switch_sdk/core/yt/yt_vlan_translate.c **** 
 2507              		.loc 1 255 5 discriminator 5 view .LVU733
 2508 00bc 0220     		movs	r0, #2
 2509 00be B2E7     		b	.L222
 2510              	.LVL342:
 2511              	.L248:
 255:../switch_sdk/core/yt/yt_vlan_translate.c **** 
 2512              		.loc 1 255 5 discriminator 3 view .LVU734
 2513              	.LBB51:
 255:../switch_sdk/core/yt/yt_vlan_translate.c **** 
 2514              		.loc 1 255 5 discriminator 3 view .LVU735
 2515 00c0 054B     		ldr	r3, .L249+8
 2516 00c2 9A68     		ldr	r2, [r3, #8]
 2517              	.LVL343:
 255:../switch_sdk/core/yt/yt_vlan_translate.c **** 
 2518              		.loc 1 255 5 is_stmt 0 discriminator 3 view .LVU736
 2519 00c4 054B     		ldr	r3, .L249+12
 2520 00c6 9968     		ldr	r1, [r3, #8]
 2521              	.LVL344:
 255:../switch_sdk/core/yt/yt_vlan_translate.c **** 
 2522              		.loc 1 255 5 discriminator 3 view .LVU737
 2523 00c8 0548     		ldr	r0, .L249+16
 2524 00ca FFF7FEFF 		bl	osal_printf
 2525              	.LVL345:
 2526 00ce F5E7     		b	.L235
 2527              	.L250:
 2528              		.align	2
 2529              	.L249:
 2530 00d0 00000000 		.word	gpfal_dispatch
 2531 00d4 00000000 		.word	yt_debug_level
 2532 00d8 00000000 		.word	_yt_errmsg
 2533 00dc 00000000 		.word	_yt_prompt_msg
 2534 00e0 00000000 		.word	.LC0
 2535              	.LBE51:
 2536              		.cfi_endproc
 2537              	.LFE12:
 2539              		.section	.text.yt_vlan_igr_trans_table_get,"ax",%progbits
 2540              		.align	1
 2541              		.global	yt_vlan_igr_trans_table_get
 2542              		.syntax unified
 2543              		.thumb
 2544              		.thumb_func
 2546              	yt_vlan_igr_trans_table_get:
 2547              	.LVL346:
 2548              	.LFB13:
 259:../switch_sdk/core/yt/yt_vlan_translate.c **** 
 260:../switch_sdk/core/yt/yt_vlan_translate.c **** /**
 261:../switch_sdk/core/yt/yt_vlan_translate.c ****  * @internal      yt_vlan_igr_trans_table_get
 262:../switch_sdk/core/yt/yt_vlan_translate.c ****  * @endinternal
 263:../switch_sdk/core/yt/yt_vlan_translate.c ****  *
 264:../switch_sdk/core/yt/yt_vlan_translate.c ****  * @brief         Description
 265:../switch_sdk/core/yt/yt_vlan_translate.c ****  * @note          APPLICABLE DEVICES  -Tiger
 266:../switch_sdk/core/yt/yt_vlan_translate.c ****  * @param[in]     unit                -unit id
 267:../switch_sdk/core/yt/yt_vlan_translate.c ****  * @param[in]     entry_id            -vlan translate table index
 268:../switch_sdk/core/yt/yt_vlan_translate.c ****  * @param[out]    pRuleTbl            -x
 269:../switch_sdk/core/yt/yt_vlan_translate.c ****  * @param[out]    pAction             -x
 270:../switch_sdk/core/yt/yt_vlan_translate.c ****  * @retval        CMM_ERR_OK          -on success
 271:../switch_sdk/core/yt/yt_vlan_translate.c ****  * @retval        CMM_ERR_FAIL        -on fail
 272:../switch_sdk/core/yt/yt_vlan_translate.c ****  */
 273:../switch_sdk/core/yt/yt_vlan_translate.c **** yt_ret_t  yt_vlan_igr_trans_table_get(yt_unit_t unit,  yt_trans_tbl_id_t entry_id, yt_vlan_trans_tb
 274:../switch_sdk/core/yt/yt_vlan_translate.c **** {
 2549              		.loc 1 274 1 is_stmt 1 view -0
 2550              		.cfi_startproc
 2551              		@ args = 0, pretend = 0, frame = 0
 2552              		@ frame_needed = 0, uses_anonymous_args = 0
 2553              		.loc 1 274 1 is_stmt 0 view .LVU739
 2554 0000 10B5     		push	{r4, lr}
 2555              		.cfi_def_cfa_offset 8
 2556              		.cfi_offset 4, -8
 2557              		.cfi_offset 14, -4
 275:../switch_sdk/core/yt/yt_vlan_translate.c ****     CMM_PARAM_CHK((YT_UNIT_NUM <= unit), CMM_ERR_INPUT);
 2558              		.loc 1 275 5 is_stmt 1 view .LVU740
 2559              		.loc 1 275 5 view .LVU741
 2560 0002 78B9     		cbnz	r0, .L264
 2561 0004 8446     		mov	ip, r0
 2562              		.loc 1 275 5 discriminator 2 view .LVU742
 276:../switch_sdk/core/yt/yt_vlan_translate.c ****     CMM_PARAM_CHK(NULL == YT_DISPATCH(unit), CMM_ERR_NOT_INIT);
 2563              		.loc 1 276 5 discriminator 2 view .LVU743
 2564              		.loc 1 276 5 discriminator 2 view .LVU744
 2565 0006 2A48     		ldr	r0, .L274
 2566              	.LVL347:
 2567              		.loc 1 276 5 is_stmt 0 discriminator 2 view .LVU745
 2568 0008 50F82C40 		ldr	r4, [r0, ip, lsl #2]
 2569 000c C4B1     		cbz	r4, .L265
 2570              		.loc 1 276 5 is_stmt 1 discriminator 2 view .LVU746
 277:../switch_sdk/core/yt/yt_vlan_translate.c ****     CMM_PARAM_CHK((!(YT_DISPATCH(unit)->is_inited)), CMM_ERR_NOT_INIT);
 2571              		.loc 1 277 5 discriminator 2 view .LVU747
 2572              		.loc 1 277 5 discriminator 2 view .LVU748
 2573 000e 2078     		ldrb	r0, [r4]	@ zero_extendqisi2
 2574 0010 20B3     		cbz	r0, .L266
 2575              		.loc 1 277 5 discriminator 2 view .LVU749
 278:../switch_sdk/core/yt/yt_vlan_translate.c ****     CMM_PARAM_CHK((NULL == pRuleTbl), CMM_ERR_NULL_POINT);
 2576              		.loc 1 278 5 discriminator 2 view .LVU750
 2577              		.loc 1 278 5 discriminator 2 view .LVU751
 2578 0012 002A     		cmp	r2, #0
 2579 0014 30D0     		beq	.L267
 2580              		.loc 1 278 5 discriminator 2 view .LVU752
 279:../switch_sdk/core/yt/yt_vlan_translate.c ****     CMM_PARAM_CHK((NULL == pAction), CMM_ERR_NULL_POINT);
 2581              		.loc 1 279 5 discriminator 2 view .LVU753
 2582              		.loc 1 279 5 discriminator 2 view .LVU754
 2583 0016 002B     		cmp	r3, #0
 2584 0018 3CD0     		beq	.L268
 2585              		.loc 1 279 5 discriminator 2 view .LVU755
 280:../switch_sdk/core/yt/yt_vlan_translate.c **** 
 281:../switch_sdk/core/yt/yt_vlan_translate.c ****     return YT_DISPATCH(unit)->vlan_igr_trans_table_get(unit, entry_id, pRuleTbl, pAction);
 2586              		.loc 1 281 5 discriminator 2 view .LVU756
 2587              		.loc 1 281 29 is_stmt 0 discriminator 2 view .LVU757
 2588 001a D4F8C440 		ldr	r4, [r4, #196]
 2589              		.loc 1 281 12 discriminator 2 view .LVU758
 2590 001e 6046     		mov	r0, ip
 2591 0020 A047     		blx	r4
 2592              	.LVL348:
 2593              	.L251:
 282:../switch_sdk/core/yt/yt_vlan_translate.c **** }
 2594              		.loc 1 282 1 view .LVU759
 2595 0022 10BD     		pop	{r4, pc}
 2596              	.LVL349:
 2597              	.L264:
 275:../switch_sdk/core/yt/yt_vlan_translate.c ****     CMM_PARAM_CHK(NULL == YT_DISPATCH(unit), CMM_ERR_NOT_INIT);
 2598              		.loc 1 275 5 is_stmt 1 discriminator 1 view .LVU760
 275:../switch_sdk/core/yt/yt_vlan_translate.c ****     CMM_PARAM_CHK(NULL == YT_DISPATCH(unit), CMM_ERR_NOT_INIT);
 2599              		.loc 1 275 5 discriminator 1 view .LVU761
 2600 0024 234B     		ldr	r3, .L274+4
 2601              	.LVL350:
 275:../switch_sdk/core/yt/yt_vlan_translate.c ****     CMM_PARAM_CHK(NULL == YT_DISPATCH(unit), CMM_ERR_NOT_INIT);
 2602              		.loc 1 275 5 is_stmt 0 discriminator 1 view .LVU762
 2603 0026 1B78     		ldrb	r3, [r3]	@ zero_extendqisi2
 2604 0028 012B     		cmp	r3, #1
 2605 002a 01D8     		bhi	.L269
 2606              	.LVL351:
 2607              	.L253:
 275:../switch_sdk/core/yt/yt_vlan_translate.c ****     CMM_PARAM_CHK(NULL == YT_DISPATCH(unit), CMM_ERR_NOT_INIT);
 2608              		.loc 1 275 5 is_stmt 1 discriminator 5 view .LVU763
 275:../switch_sdk/core/yt/yt_vlan_translate.c ****     CMM_PARAM_CHK(NULL == YT_DISPATCH(unit), CMM_ERR_NOT_INIT);
 2609              		.loc 1 275 5 discriminator 5 view .LVU764
 275:../switch_sdk/core/yt/yt_vlan_translate.c ****     CMM_PARAM_CHK(NULL == YT_DISPATCH(unit), CMM_ERR_NOT_INIT);
 2610              		.loc 1 275 5 discriminator 5 view .LVU765
 2611 002c 0520     		movs	r0, #5
 2612 002e F8E7     		b	.L251
 2613              	.LVL352:
 2614              	.L269:
 275:../switch_sdk/core/yt/yt_vlan_translate.c ****     CMM_PARAM_CHK(NULL == YT_DISPATCH(unit), CMM_ERR_NOT_INIT);
 2615              		.loc 1 275 5 discriminator 3 view .LVU766
 2616              	.LBB52:
 275:../switch_sdk/core/yt/yt_vlan_translate.c ****     CMM_PARAM_CHK(NULL == YT_DISPATCH(unit), CMM_ERR_NOT_INIT);
 2617              		.loc 1 275 5 discriminator 3 view .LVU767
 2618 0030 214B     		ldr	r3, .L274+8
 2619 0032 5A69     		ldr	r2, [r3, #20]
 2620              	.LVL353:
 275:../switch_sdk/core/yt/yt_vlan_translate.c ****     CMM_PARAM_CHK(NULL == YT_DISPATCH(unit), CMM_ERR_NOT_INIT);
 2621              		.loc 1 275 5 is_stmt 0 discriminator 3 view .LVU768
 2622 0034 214B     		ldr	r3, .L274+12
 2623 0036 9968     		ldr	r1, [r3, #8]
 2624              	.LVL354:
 275:../switch_sdk/core/yt/yt_vlan_translate.c ****     CMM_PARAM_CHK(NULL == YT_DISPATCH(unit), CMM_ERR_NOT_INIT);
 2625              		.loc 1 275 5 discriminator 3 view .LVU769
 2626 0038 2148     		ldr	r0, .L274+16
 2627              	.LVL355:
 275:../switch_sdk/core/yt/yt_vlan_translate.c ****     CMM_PARAM_CHK(NULL == YT_DISPATCH(unit), CMM_ERR_NOT_INIT);
 2628              		.loc 1 275 5 discriminator 3 view .LVU770
 2629 003a FFF7FEFF 		bl	osal_printf
 2630              	.LVL356:
 2631 003e F5E7     		b	.L253
 2632              	.LVL357:
 2633              	.L265:
 275:../switch_sdk/core/yt/yt_vlan_translate.c ****     CMM_PARAM_CHK(NULL == YT_DISPATCH(unit), CMM_ERR_NOT_INIT);
 2634              		.loc 1 275 5 discriminator 3 view .LVU771
 2635              	.LBE52:
 276:../switch_sdk/core/yt/yt_vlan_translate.c ****     CMM_PARAM_CHK((!(YT_DISPATCH(unit)->is_inited)), CMM_ERR_NOT_INIT);
 2636              		.loc 1 276 5 is_stmt 1 discriminator 1 view .LVU772
 276:../switch_sdk/core/yt/yt_vlan_translate.c ****     CMM_PARAM_CHK((!(YT_DISPATCH(unit)->is_inited)), CMM_ERR_NOT_INIT);
 2637              		.loc 1 276 5 discriminator 1 view .LVU773
 2638 0040 1C4B     		ldr	r3, .L274+4
 2639              	.LVL358:
 276:../switch_sdk/core/yt/yt_vlan_translate.c ****     CMM_PARAM_CHK((!(YT_DISPATCH(unit)->is_inited)), CMM_ERR_NOT_INIT);
 2640              		.loc 1 276 5 is_stmt 0 discriminator 1 view .LVU774
 2641 0042 1B78     		ldrb	r3, [r3]	@ zero_extendqisi2
 2642 0044 012B     		cmp	r3, #1
 2643 0046 01D8     		bhi	.L270
 2644              	.LVL359:
 2645              	.L256:
 276:../switch_sdk/core/yt/yt_vlan_translate.c ****     CMM_PARAM_CHK((!(YT_DISPATCH(unit)->is_inited)), CMM_ERR_NOT_INIT);
 2646              		.loc 1 276 5 is_stmt 1 discriminator 5 view .LVU775
 276:../switch_sdk/core/yt/yt_vlan_translate.c ****     CMM_PARAM_CHK((!(YT_DISPATCH(unit)->is_inited)), CMM_ERR_NOT_INIT);
 2647              		.loc 1 276 5 discriminator 5 view .LVU776
 276:../switch_sdk/core/yt/yt_vlan_translate.c ****     CMM_PARAM_CHK((!(YT_DISPATCH(unit)->is_inited)), CMM_ERR_NOT_INIT);
 2648              		.loc 1 276 5 discriminator 5 view .LVU777
 2649 0048 0420     		movs	r0, #4
 2650 004a EAE7     		b	.L251
 2651              	.LVL360:
 2652              	.L270:
 276:../switch_sdk/core/yt/yt_vlan_translate.c ****     CMM_PARAM_CHK((!(YT_DISPATCH(unit)->is_inited)), CMM_ERR_NOT_INIT);
 2653              		.loc 1 276 5 discriminator 3 view .LVU778
 2654              	.LBB53:
 276:../switch_sdk/core/yt/yt_vlan_translate.c ****     CMM_PARAM_CHK((!(YT_DISPATCH(unit)->is_inited)), CMM_ERR_NOT_INIT);
 2655              		.loc 1 276 5 discriminator 3 view .LVU779
 2656 004c 1A4B     		ldr	r3, .L274+8
 2657 004e 1A69     		ldr	r2, [r3, #16]
 2658              	.LVL361:
 276:../switch_sdk/core/yt/yt_vlan_translate.c ****     CMM_PARAM_CHK((!(YT_DISPATCH(unit)->is_inited)), CMM_ERR_NOT_INIT);
 2659              		.loc 1 276 5 is_stmt 0 discriminator 3 view .LVU780
 2660 0050 1A4B     		ldr	r3, .L274+12
 2661 0052 9968     		ldr	r1, [r3, #8]
 2662              	.LVL362:
 276:../switch_sdk/core/yt/yt_vlan_translate.c ****     CMM_PARAM_CHK((!(YT_DISPATCH(unit)->is_inited)), CMM_ERR_NOT_INIT);
 2663              		.loc 1 276 5 discriminator 3 view .LVU781
 2664 0054 1A48     		ldr	r0, .L274+16
 2665 0056 FFF7FEFF 		bl	osal_printf
 2666              	.LVL363:
 2667 005a F5E7     		b	.L256
 2668              	.LVL364:
 2669              	.L266:
 276:../switch_sdk/core/yt/yt_vlan_translate.c ****     CMM_PARAM_CHK((!(YT_DISPATCH(unit)->is_inited)), CMM_ERR_NOT_INIT);
 2670              		.loc 1 276 5 discriminator 3 view .LVU782
 2671              	.LBE53:
 277:../switch_sdk/core/yt/yt_vlan_translate.c ****     CMM_PARAM_CHK((NULL == pRuleTbl), CMM_ERR_NULL_POINT);
 2672              		.loc 1 277 5 is_stmt 1 discriminator 1 view .LVU783
 277:../switch_sdk/core/yt/yt_vlan_translate.c ****     CMM_PARAM_CHK((NULL == pRuleTbl), CMM_ERR_NULL_POINT);
 2673              		.loc 1 277 5 discriminator 1 view .LVU784
 2674 005c 154B     		ldr	r3, .L274+4
 2675              	.LVL365:
 277:../switch_sdk/core/yt/yt_vlan_translate.c ****     CMM_PARAM_CHK((NULL == pRuleTbl), CMM_ERR_NULL_POINT);
 2676              		.loc 1 277 5 is_stmt 0 discriminator 1 view .LVU785
 2677 005e 1B78     		ldrb	r3, [r3]	@ zero_extendqisi2
 2678 0060 012B     		cmp	r3, #1
 2679 0062 01D8     		bhi	.L271
 2680              	.LVL366:
 2681              	.L258:
 277:../switch_sdk/core/yt/yt_vlan_translate.c ****     CMM_PARAM_CHK((NULL == pRuleTbl), CMM_ERR_NULL_POINT);
 2682              		.loc 1 277 5 is_stmt 1 discriminator 5 view .LVU786
 277:../switch_sdk/core/yt/yt_vlan_translate.c ****     CMM_PARAM_CHK((NULL == pRuleTbl), CMM_ERR_NULL_POINT);
 2683              		.loc 1 277 5 discriminator 5 view .LVU787
 277:../switch_sdk/core/yt/yt_vlan_translate.c ****     CMM_PARAM_CHK((NULL == pRuleTbl), CMM_ERR_NULL_POINT);
 2684              		.loc 1 277 5 discriminator 5 view .LVU788
 2685 0064 0420     		movs	r0, #4
 2686 0066 DCE7     		b	.L251
 2687              	.LVL367:
 2688              	.L271:
 277:../switch_sdk/core/yt/yt_vlan_translate.c ****     CMM_PARAM_CHK((NULL == pRuleTbl), CMM_ERR_NULL_POINT);
 2689              		.loc 1 277 5 discriminator 3 view .LVU789
 2690              	.LBB54:
 277:../switch_sdk/core/yt/yt_vlan_translate.c ****     CMM_PARAM_CHK((NULL == pRuleTbl), CMM_ERR_NULL_POINT);
 2691              		.loc 1 277 5 discriminator 3 view .LVU790
 2692 0068 134B     		ldr	r3, .L274+8
 2693 006a 1A69     		ldr	r2, [r3, #16]
 2694              	.LVL368:
 277:../switch_sdk/core/yt/yt_vlan_translate.c ****     CMM_PARAM_CHK((NULL == pRuleTbl), CMM_ERR_NULL_POINT);
 2695              		.loc 1 277 5 is_stmt 0 discriminator 3 view .LVU791
 2696 006c 134B     		ldr	r3, .L274+12
 2697 006e 9968     		ldr	r1, [r3, #8]
 2698              	.LVL369:
 277:../switch_sdk/core/yt/yt_vlan_translate.c ****     CMM_PARAM_CHK((NULL == pRuleTbl), CMM_ERR_NULL_POINT);
 2699              		.loc 1 277 5 discriminator 3 view .LVU792
 2700 0070 1348     		ldr	r0, .L274+16
 2701 0072 FFF7FEFF 		bl	osal_printf
 2702              	.LVL370:
 2703 0076 F5E7     		b	.L258
 2704              	.LVL371:
 2705              	.L267:
 277:../switch_sdk/core/yt/yt_vlan_translate.c ****     CMM_PARAM_CHK((NULL == pRuleTbl), CMM_ERR_NULL_POINT);
 2706              		.loc 1 277 5 discriminator 3 view .LVU793
 2707              	.LBE54:
 278:../switch_sdk/core/yt/yt_vlan_translate.c ****     CMM_PARAM_CHK((NULL == pAction), CMM_ERR_NULL_POINT);
 2708              		.loc 1 278 5 is_stmt 1 discriminator 1 view .LVU794
 278:../switch_sdk/core/yt/yt_vlan_translate.c ****     CMM_PARAM_CHK((NULL == pAction), CMM_ERR_NULL_POINT);
 2709              		.loc 1 278 5 discriminator 1 view .LVU795
 2710 0078 0E4B     		ldr	r3, .L274+4
 2711              	.LVL372:
 278:../switch_sdk/core/yt/yt_vlan_translate.c ****     CMM_PARAM_CHK((NULL == pAction), CMM_ERR_NULL_POINT);
 2712              		.loc 1 278 5 is_stmt 0 discriminator 1 view .LVU796
 2713 007a 1B78     		ldrb	r3, [r3]	@ zero_extendqisi2
 2714 007c 012B     		cmp	r3, #1
 2715 007e 01D8     		bhi	.L272
 2716              	.LVL373:
 2717              	.L260:
 278:../switch_sdk/core/yt/yt_vlan_translate.c ****     CMM_PARAM_CHK((NULL == pAction), CMM_ERR_NULL_POINT);
 2718              		.loc 1 278 5 is_stmt 1 discriminator 5 view .LVU797
 278:../switch_sdk/core/yt/yt_vlan_translate.c ****     CMM_PARAM_CHK((NULL == pAction), CMM_ERR_NULL_POINT);
 2719              		.loc 1 278 5 discriminator 5 view .LVU798
 278:../switch_sdk/core/yt/yt_vlan_translate.c ****     CMM_PARAM_CHK((NULL == pAction), CMM_ERR_NULL_POINT);
 2720              		.loc 1 278 5 discriminator 5 view .LVU799
 2721 0080 0220     		movs	r0, #2
 2722 0082 CEE7     		b	.L251
 2723              	.LVL374:
 2724              	.L272:
 278:../switch_sdk/core/yt/yt_vlan_translate.c ****     CMM_PARAM_CHK((NULL == pAction), CMM_ERR_NULL_POINT);
 2725              		.loc 1 278 5 discriminator 3 view .LVU800
 2726              	.LBB55:
 278:../switch_sdk/core/yt/yt_vlan_translate.c ****     CMM_PARAM_CHK((NULL == pAction), CMM_ERR_NULL_POINT);
 2727              		.loc 1 278 5 discriminator 3 view .LVU801
 2728 0084 0C4B     		ldr	r3, .L274+8
 2729 0086 9A68     		ldr	r2, [r3, #8]
 2730              	.LVL375:
 278:../switch_sdk/core/yt/yt_vlan_translate.c ****     CMM_PARAM_CHK((NULL == pAction), CMM_ERR_NULL_POINT);
 2731              		.loc 1 278 5 is_stmt 0 discriminator 3 view .LVU802
 2732 0088 0C4B     		ldr	r3, .L274+12
 2733 008a 9968     		ldr	r1, [r3, #8]
 2734              	.LVL376:
 278:../switch_sdk/core/yt/yt_vlan_translate.c ****     CMM_PARAM_CHK((NULL == pAction), CMM_ERR_NULL_POINT);
 2735              		.loc 1 278 5 discriminator 3 view .LVU803
 2736 008c 0C48     		ldr	r0, .L274+16
 2737 008e FFF7FEFF 		bl	osal_printf
 2738              	.LVL377:
 2739 0092 F5E7     		b	.L260
 2740              	.LVL378:
 2741              	.L268:
 278:../switch_sdk/core/yt/yt_vlan_translate.c ****     CMM_PARAM_CHK((NULL == pAction), CMM_ERR_NULL_POINT);
 2742              		.loc 1 278 5 discriminator 3 view .LVU804
 2743              	.LBE55:
 279:../switch_sdk/core/yt/yt_vlan_translate.c **** 
 2744              		.loc 1 279 5 is_stmt 1 discriminator 1 view .LVU805
 279:../switch_sdk/core/yt/yt_vlan_translate.c **** 
 2745              		.loc 1 279 5 discriminator 1 view .LVU806
 2746 0094 074B     		ldr	r3, .L274+4
 2747              	.LVL379:
 279:../switch_sdk/core/yt/yt_vlan_translate.c **** 
 2748              		.loc 1 279 5 is_stmt 0 discriminator 1 view .LVU807
 2749 0096 1B78     		ldrb	r3, [r3]	@ zero_extendqisi2
 2750 0098 012B     		cmp	r3, #1
 2751 009a 01D8     		bhi	.L273
 2752              	.LVL380:
 2753              	.L262:
 279:../switch_sdk/core/yt/yt_vlan_translate.c **** 
 2754              		.loc 1 279 5 is_stmt 1 discriminator 5 view .LVU808
 279:../switch_sdk/core/yt/yt_vlan_translate.c **** 
 2755              		.loc 1 279 5 discriminator 5 view .LVU809
 279:../switch_sdk/core/yt/yt_vlan_translate.c **** 
 2756              		.loc 1 279 5 discriminator 5 view .LVU810
 2757 009c 0220     		movs	r0, #2
 2758 009e C0E7     		b	.L251
 2759              	.LVL381:
 2760              	.L273:
 279:../switch_sdk/core/yt/yt_vlan_translate.c **** 
 2761              		.loc 1 279 5 discriminator 3 view .LVU811
 2762              	.LBB56:
 279:../switch_sdk/core/yt/yt_vlan_translate.c **** 
 2763              		.loc 1 279 5 discriminator 3 view .LVU812
 2764 00a0 054B     		ldr	r3, .L274+8
 2765 00a2 9A68     		ldr	r2, [r3, #8]
 2766              	.LVL382:
 279:../switch_sdk/core/yt/yt_vlan_translate.c **** 
 2767              		.loc 1 279 5 is_stmt 0 discriminator 3 view .LVU813
 2768 00a4 054B     		ldr	r3, .L274+12
 2769 00a6 9968     		ldr	r1, [r3, #8]
 2770              	.LVL383:
 279:../switch_sdk/core/yt/yt_vlan_translate.c **** 
 2771              		.loc 1 279 5 discriminator 3 view .LVU814
 2772 00a8 0548     		ldr	r0, .L274+16
 2773 00aa FFF7FEFF 		bl	osal_printf
 2774              	.LVL384:
 2775 00ae F5E7     		b	.L262
 2776              	.L275:
 2777              		.align	2
 2778              	.L274:
 2779 00b0 00000000 		.word	gpfal_dispatch
 2780 00b4 00000000 		.word	yt_debug_level
 2781 00b8 00000000 		.word	_yt_errmsg
 2782 00bc 00000000 		.word	_yt_prompt_msg
 2783 00c0 00000000 		.word	.LC0
 2784              	.LBE56:
 2785              		.cfi_endproc
 2786              	.LFE13:
 2788              		.section	.text.yt_vlan_igr_trans_table_del,"ax",%progbits
 2789              		.align	1
 2790              		.global	yt_vlan_igr_trans_table_del
 2791              		.syntax unified
 2792              		.thumb
 2793              		.thumb_func
 2795              	yt_vlan_igr_trans_table_del:
 2796              	.LVL385:
 2797              	.LFB14:
 283:../switch_sdk/core/yt/yt_vlan_translate.c **** 
 284:../switch_sdk/core/yt/yt_vlan_translate.c **** /**
 285:../switch_sdk/core/yt/yt_vlan_translate.c ****  * @internal      yt_vlan_igr_trans_table_del
 286:../switch_sdk/core/yt/yt_vlan_translate.c ****  * @endinternal
 287:../switch_sdk/core/yt/yt_vlan_translate.c ****  *
 288:../switch_sdk/core/yt/yt_vlan_translate.c ****  * @brief         Description
 289:../switch_sdk/core/yt/yt_vlan_translate.c ****  * @note          APPLICABLE DEVICES  -Tiger
 290:../switch_sdk/core/yt/yt_vlan_translate.c ****  * @param[in]     unit                -unit id
 291:../switch_sdk/core/yt/yt_vlan_translate.c ****  * @param[in]     entry_id            -vlan translate table index
 292:../switch_sdk/core/yt/yt_vlan_translate.c ****  * @retval        CMM_ERR_OK          -on success
 293:../switch_sdk/core/yt/yt_vlan_translate.c ****  * @retval        CMM_ERR_FAIL        -on fail
 294:../switch_sdk/core/yt/yt_vlan_translate.c ****  */
 295:../switch_sdk/core/yt/yt_vlan_translate.c **** yt_ret_t  yt_vlan_igr_trans_table_del(yt_unit_t unit, yt_trans_tbl_id_t entry_id)
 296:../switch_sdk/core/yt/yt_vlan_translate.c **** {
 2798              		.loc 1 296 1 is_stmt 1 view -0
 2799              		.cfi_startproc
 2800              		@ args = 0, pretend = 0, frame = 0
 2801              		@ frame_needed = 0, uses_anonymous_args = 0
 2802              		.loc 1 296 1 is_stmt 0 view .LVU816
 2803 0000 08B5     		push	{r3, lr}
 2804              		.cfi_def_cfa_offset 8
 2805              		.cfi_offset 3, -8
 2806              		.cfi_offset 14, -4
 297:../switch_sdk/core/yt/yt_vlan_translate.c ****     CMM_PARAM_CHK((YT_UNIT_NUM <= unit), CMM_ERR_INPUT);
 2807              		.loc 1 297 5 is_stmt 1 view .LVU817
 2808              		.loc 1 297 5 view .LVU818
 2809 0002 58B9     		cbnz	r0, .L285
 2810 0004 0246     		mov	r2, r0
 2811              		.loc 1 297 5 discriminator 2 view .LVU819
 298:../switch_sdk/core/yt/yt_vlan_translate.c ****     CMM_PARAM_CHK(NULL == YT_DISPATCH(unit), CMM_ERR_NOT_INIT);
 2812              		.loc 1 298 5 discriminator 2 view .LVU820
 2813              		.loc 1 298 5 discriminator 2 view .LVU821
 2814 0006 1A4B     		ldr	r3, .L291
 2815 0008 53F82030 		ldr	r3, [r3, r0, lsl #2]
 2816 000c A3B1     		cbz	r3, .L286
 2817              		.loc 1 298 5 discriminator 2 view .LVU822
 299:../switch_sdk/core/yt/yt_vlan_translate.c ****     CMM_PARAM_CHK((!(YT_DISPATCH(unit)->is_inited)), CMM_ERR_NOT_INIT);
 2818              		.loc 1 299 5 discriminator 2 view .LVU823
 2819              		.loc 1 299 5 discriminator 2 view .LVU824
 2820 000e 1878     		ldrb	r0, [r3]	@ zero_extendqisi2
 2821              	.LVL386:
 2822              		.loc 1 299 5 is_stmt 0 discriminator 2 view .LVU825
 2823 0010 00B3     		cbz	r0, .L287
 2824              		.loc 1 299 5 is_stmt 1 discriminator 2 view .LVU826
 300:../switch_sdk/core/yt/yt_vlan_translate.c **** 
 301:../switch_sdk/core/yt/yt_vlan_translate.c ****     return YT_DISPATCH(unit)->vlan_igr_trans_table_del(unit, entry_id);
 2825              		.loc 1 301 5 discriminator 2 view .LVU827
 2826              		.loc 1 301 29 is_stmt 0 discriminator 2 view .LVU828
 2827 0012 D3F8C830 		ldr	r3, [r3, #200]
 2828              		.loc 1 301 12 discriminator 2 view .LVU829
 2829 0016 1046     		mov	r0, r2
 2830 0018 9847     		blx	r3
 2831              	.LVL387:
 2832              	.L276:
 302:../switch_sdk/core/yt/yt_vlan_translate.c **** }
 2833              		.loc 1 302 1 view .LVU830
 2834 001a 08BD     		pop	{r3, pc}
 2835              	.LVL388:
 2836              	.L285:
 297:../switch_sdk/core/yt/yt_vlan_translate.c ****     CMM_PARAM_CHK(NULL == YT_DISPATCH(unit), CMM_ERR_NOT_INIT);
 2837              		.loc 1 297 5 is_stmt 1 discriminator 1 view .LVU831
 297:../switch_sdk/core/yt/yt_vlan_translate.c ****     CMM_PARAM_CHK(NULL == YT_DISPATCH(unit), CMM_ERR_NOT_INIT);
 2838              		.loc 1 297 5 discriminator 1 view .LVU832
 2839 001c 154B     		ldr	r3, .L291+4
 2840 001e 1B78     		ldrb	r3, [r3]	@ zero_extendqisi2
 2841 0020 012B     		cmp	r3, #1
 2842 0022 01D8     		bhi	.L288
 2843              	.LVL389:
 2844              	.L278:
 297:../switch_sdk/core/yt/yt_vlan_translate.c ****     CMM_PARAM_CHK(NULL == YT_DISPATCH(unit), CMM_ERR_NOT_INIT);
 2845              		.loc 1 297 5 discriminator 5 view .LVU833
 297:../switch_sdk/core/yt/yt_vlan_translate.c ****     CMM_PARAM_CHK(NULL == YT_DISPATCH(unit), CMM_ERR_NOT_INIT);
 2846              		.loc 1 297 5 discriminator 5 view .LVU834
 297:../switch_sdk/core/yt/yt_vlan_translate.c ****     CMM_PARAM_CHK(NULL == YT_DISPATCH(unit), CMM_ERR_NOT_INIT);
 2847              		.loc 1 297 5 discriminator 5 view .LVU835
 2848 0024 0520     		movs	r0, #5
 2849 0026 F8E7     		b	.L276
 2850              	.LVL390:
 2851              	.L288:
 297:../switch_sdk/core/yt/yt_vlan_translate.c ****     CMM_PARAM_CHK(NULL == YT_DISPATCH(unit), CMM_ERR_NOT_INIT);
 2852              		.loc 1 297 5 discriminator 3 view .LVU836
 2853              	.LBB57:
 297:../switch_sdk/core/yt/yt_vlan_translate.c ****     CMM_PARAM_CHK(NULL == YT_DISPATCH(unit), CMM_ERR_NOT_INIT);
 2854              		.loc 1 297 5 discriminator 3 view .LVU837
 2855 0028 134B     		ldr	r3, .L291+8
 2856 002a 5A69     		ldr	r2, [r3, #20]
 2857 002c 134B     		ldr	r3, .L291+12
 2858 002e 9968     		ldr	r1, [r3, #8]
 2859              	.LVL391:
 297:../switch_sdk/core/yt/yt_vlan_translate.c ****     CMM_PARAM_CHK(NULL == YT_DISPATCH(unit), CMM_ERR_NOT_INIT);
 2860              		.loc 1 297 5 is_stmt 0 discriminator 3 view .LVU838
 2861 0030 1348     		ldr	r0, .L291+16
 2862              	.LVL392:
 297:../switch_sdk/core/yt/yt_vlan_translate.c ****     CMM_PARAM_CHK(NULL == YT_DISPATCH(unit), CMM_ERR_NOT_INIT);
 2863              		.loc 1 297 5 discriminator 3 view .LVU839
 2864 0032 FFF7FEFF 		bl	osal_printf
 2865              	.LVL393:
 2866 0036 F5E7     		b	.L278
 2867              	.LVL394:
 2868              	.L286:
 297:../switch_sdk/core/yt/yt_vlan_translate.c ****     CMM_PARAM_CHK(NULL == YT_DISPATCH(unit), CMM_ERR_NOT_INIT);
 2869              		.loc 1 297 5 discriminator 3 view .LVU840
 2870              	.LBE57:
 298:../switch_sdk/core/yt/yt_vlan_translate.c ****     CMM_PARAM_CHK((!(YT_DISPATCH(unit)->is_inited)), CMM_ERR_NOT_INIT);
 2871              		.loc 1 298 5 is_stmt 1 discriminator 1 view .LVU841
 298:../switch_sdk/core/yt/yt_vlan_translate.c ****     CMM_PARAM_CHK((!(YT_DISPATCH(unit)->is_inited)), CMM_ERR_NOT_INIT);
 2872              		.loc 1 298 5 discriminator 1 view .LVU842
 2873 0038 0E4B     		ldr	r3, .L291+4
 2874 003a 1B78     		ldrb	r3, [r3]	@ zero_extendqisi2
 2875 003c 012B     		cmp	r3, #1
 2876 003e 01D8     		bhi	.L289
 2877              	.LVL395:
 2878              	.L281:
 298:../switch_sdk/core/yt/yt_vlan_translate.c ****     CMM_PARAM_CHK((!(YT_DISPATCH(unit)->is_inited)), CMM_ERR_NOT_INIT);
 2879              		.loc 1 298 5 discriminator 5 view .LVU843
 298:../switch_sdk/core/yt/yt_vlan_translate.c ****     CMM_PARAM_CHK((!(YT_DISPATCH(unit)->is_inited)), CMM_ERR_NOT_INIT);
 2880              		.loc 1 298 5 discriminator 5 view .LVU844
 298:../switch_sdk/core/yt/yt_vlan_translate.c ****     CMM_PARAM_CHK((!(YT_DISPATCH(unit)->is_inited)), CMM_ERR_NOT_INIT);
 2881              		.loc 1 298 5 discriminator 5 view .LVU845
 2882 0040 0420     		movs	r0, #4
 2883 0042 EAE7     		b	.L276
 2884              	.LVL396:
 2885              	.L289:
 298:../switch_sdk/core/yt/yt_vlan_translate.c ****     CMM_PARAM_CHK((!(YT_DISPATCH(unit)->is_inited)), CMM_ERR_NOT_INIT);
 2886              		.loc 1 298 5 discriminator 3 view .LVU846
 2887              	.LBB58:
 298:../switch_sdk/core/yt/yt_vlan_translate.c ****     CMM_PARAM_CHK((!(YT_DISPATCH(unit)->is_inited)), CMM_ERR_NOT_INIT);
 2888              		.loc 1 298 5 discriminator 3 view .LVU847
 2889 0044 0C4B     		ldr	r3, .L291+8
 2890 0046 1A69     		ldr	r2, [r3, #16]
 2891 0048 0C4B     		ldr	r3, .L291+12
 2892 004a 9968     		ldr	r1, [r3, #8]
 2893              	.LVL397:
 298:../switch_sdk/core/yt/yt_vlan_translate.c ****     CMM_PARAM_CHK((!(YT_DISPATCH(unit)->is_inited)), CMM_ERR_NOT_INIT);
 2894              		.loc 1 298 5 is_stmt 0 discriminator 3 view .LVU848
 2895 004c 0C48     		ldr	r0, .L291+16
 2896              	.LVL398:
 298:../switch_sdk/core/yt/yt_vlan_translate.c ****     CMM_PARAM_CHK((!(YT_DISPATCH(unit)->is_inited)), CMM_ERR_NOT_INIT);
 2897              		.loc 1 298 5 discriminator 3 view .LVU849
 2898 004e FFF7FEFF 		bl	osal_printf
 2899              	.LVL399:
 2900 0052 F5E7     		b	.L281
 2901              	.LVL400:
 2902              	.L287:
 298:../switch_sdk/core/yt/yt_vlan_translate.c ****     CMM_PARAM_CHK((!(YT_DISPATCH(unit)->is_inited)), CMM_ERR_NOT_INIT);
 2903              		.loc 1 298 5 discriminator 3 view .LVU850
 2904              	.LBE58:
 299:../switch_sdk/core/yt/yt_vlan_translate.c **** 
 2905              		.loc 1 299 5 is_stmt 1 discriminator 1 view .LVU851
 299:../switch_sdk/core/yt/yt_vlan_translate.c **** 
 2906              		.loc 1 299 5 discriminator 1 view .LVU852
 2907 0054 074B     		ldr	r3, .L291+4
 2908 0056 1B78     		ldrb	r3, [r3]	@ zero_extendqisi2
 2909 0058 012B     		cmp	r3, #1
 2910 005a 01D8     		bhi	.L290
 2911              	.LVL401:
 2912              	.L283:
 299:../switch_sdk/core/yt/yt_vlan_translate.c **** 
 2913              		.loc 1 299 5 discriminator 5 view .LVU853
 299:../switch_sdk/core/yt/yt_vlan_translate.c **** 
 2914              		.loc 1 299 5 discriminator 5 view .LVU854
 299:../switch_sdk/core/yt/yt_vlan_translate.c **** 
 2915              		.loc 1 299 5 discriminator 5 view .LVU855
 2916 005c 0420     		movs	r0, #4
 2917 005e DCE7     		b	.L276
 2918              	.LVL402:
 2919              	.L290:
 299:../switch_sdk/core/yt/yt_vlan_translate.c **** 
 2920              		.loc 1 299 5 discriminator 3 view .LVU856
 2921              	.LBB59:
 299:../switch_sdk/core/yt/yt_vlan_translate.c **** 
 2922              		.loc 1 299 5 discriminator 3 view .LVU857
 2923 0060 054B     		ldr	r3, .L291+8
 2924 0062 1A69     		ldr	r2, [r3, #16]
 2925 0064 054B     		ldr	r3, .L291+12
 2926 0066 9968     		ldr	r1, [r3, #8]
 2927              	.LVL403:
 299:../switch_sdk/core/yt/yt_vlan_translate.c **** 
 2928              		.loc 1 299 5 is_stmt 0 discriminator 3 view .LVU858
 2929 0068 0548     		ldr	r0, .L291+16
 2930 006a FFF7FEFF 		bl	osal_printf
 2931              	.LVL404:
 2932 006e F5E7     		b	.L283
 2933              	.L292:
 2934              		.align	2
 2935              	.L291:
 2936 0070 00000000 		.word	gpfal_dispatch
 2937 0074 00000000 		.word	yt_debug_level
 2938 0078 00000000 		.word	_yt_errmsg
 2939 007c 00000000 		.word	_yt_prompt_msg
 2940 0080 00000000 		.word	.LC0
 2941              	.LBE59:
 2942              		.cfi_endproc
 2943              	.LFE14:
 2945              		.section	.text.yt_vlan_egr_trans_table_add,"ax",%progbits
 2946              		.align	1
 2947              		.global	yt_vlan_egr_trans_table_add
 2948              		.syntax unified
 2949              		.thumb
 2950              		.thumb_func
 2952              	yt_vlan_egr_trans_table_add:
 2953              	.LVL405:
 2954              	.LFB15:
 303:../switch_sdk/core/yt/yt_vlan_translate.c **** 
 304:../switch_sdk/core/yt/yt_vlan_translate.c **** /**
 305:../switch_sdk/core/yt/yt_vlan_translate.c ****  * @internal      yt_vlan_egr_trans_table_add
 306:../switch_sdk/core/yt/yt_vlan_translate.c ****  * @endinternal
 307:../switch_sdk/core/yt/yt_vlan_translate.c ****  *
 308:../switch_sdk/core/yt/yt_vlan_translate.c ****  * @brief         Add engress vlan translate table and action
 309:../switch_sdk/core/yt/yt_vlan_translate.c ****  * @note          APPLICABLE DEVICES  -Tiger
 310:../switch_sdk/core/yt/yt_vlan_translate.c ****  * @param[in]     unit                -unit id
 311:../switch_sdk/core/yt/yt_vlan_translate.c ****  * @param[in]     pRuleTbl            -egress vlan translate table info
 312:../switch_sdk/core/yt/yt_vlan_translate.c ****  * @param[in]     pAction             -egress vlan translate action
 313:../switch_sdk/core/yt/yt_vlan_translate.c ****  * @param[out]     pEntry_id           -vlan translate table index
 314:../switch_sdk/core/yt/yt_vlan_translate.c ****  * @retval        CMM_ERR_OK          -on success
 315:../switch_sdk/core/yt/yt_vlan_translate.c ****  * @retval        CMM_ERR_FAIL        -on fail
 316:../switch_sdk/core/yt/yt_vlan_translate.c ****  * @retval        CMM_ERR_TABLE_FULL        -no free table entry
 317:../switch_sdk/core/yt/yt_vlan_translate.c ****  */
 318:../switch_sdk/core/yt/yt_vlan_translate.c **** yt_ret_t yt_vlan_egr_trans_table_add(yt_unit_t unit, yt_egr_vlan_trans_tbl_t  *pRuleTbl, yt_egr_vla
 319:../switch_sdk/core/yt/yt_vlan_translate.c **** {
 2955              		.loc 1 319 1 is_stmt 1 view -0
 2956              		.cfi_startproc
 2957              		@ args = 0, pretend = 0, frame = 0
 2958              		@ frame_needed = 0, uses_anonymous_args = 0
 2959              		.loc 1 319 1 is_stmt 0 view .LVU860
 2960 0000 10B5     		push	{r4, lr}
 2961              		.cfi_def_cfa_offset 8
 2962              		.cfi_offset 4, -8
 2963              		.cfi_offset 14, -4
 320:../switch_sdk/core/yt/yt_vlan_translate.c ****     CMM_PARAM_CHK((YT_UNIT_NUM <= unit), CMM_ERR_INPUT);
 2964              		.loc 1 320 5 is_stmt 1 view .LVU861
 2965              		.loc 1 320 5 view .LVU862
 2966 0002 88B9     		cbnz	r0, .L308
 2967 0004 8446     		mov	ip, r0
 2968              		.loc 1 320 5 discriminator 2 view .LVU863
 321:../switch_sdk/core/yt/yt_vlan_translate.c ****     CMM_PARAM_CHK(NULL == YT_DISPATCH(unit), CMM_ERR_NOT_INIT);
 2969              		.loc 1 321 5 discriminator 2 view .LVU864
 2970              		.loc 1 321 5 discriminator 2 view .LVU865
 2971 0006 3248     		ldr	r0, .L320
 2972              	.LVL406:
 2973              		.loc 1 321 5 is_stmt 0 discriminator 2 view .LVU866
 2974 0008 50F82C40 		ldr	r4, [r0, ip, lsl #2]
 2975 000c D4B1     		cbz	r4, .L309
 2976              		.loc 1 321 5 is_stmt 1 discriminator 2 view .LVU867
 322:../switch_sdk/core/yt/yt_vlan_translate.c ****     CMM_PARAM_CHK((!(YT_DISPATCH(unit)->is_inited)), CMM_ERR_NOT_INIT);
 2977              		.loc 1 322 5 discriminator 2 view .LVU868
 2978              		.loc 1 322 5 discriminator 2 view .LVU869
 2979 000e 2078     		ldrb	r0, [r4]	@ zero_extendqisi2
 2980 0010 30B3     		cbz	r0, .L310
 2981              		.loc 1 322 5 discriminator 2 view .LVU870
 323:../switch_sdk/core/yt/yt_vlan_translate.c ****     CMM_PARAM_CHK((NULL == pRuleTbl), CMM_ERR_NULL_POINT);
 2982              		.loc 1 323 5 discriminator 2 view .LVU871
 2983              		.loc 1 323 5 discriminator 2 view .LVU872
 2984 0012 0029     		cmp	r1, #0
 2985 0014 32D0     		beq	.L311
 2986              		.loc 1 323 5 discriminator 2 view .LVU873
 324:../switch_sdk/core/yt/yt_vlan_translate.c ****     CMM_PARAM_CHK((NULL == pAction), CMM_ERR_NULL_POINT);
 2987              		.loc 1 324 5 discriminator 2 view .LVU874
 2988              		.loc 1 324 5 discriminator 2 view .LVU875
 2989 0016 002A     		cmp	r2, #0
 2990 0018 3ED0     		beq	.L312
 2991              		.loc 1 324 5 discriminator 2 view .LVU876
 325:../switch_sdk/core/yt/yt_vlan_translate.c ****     CMM_PARAM_CHK((NULL == pEntry_id), CMM_ERR_NULL_POINT);
 2992              		.loc 1 325 5 discriminator 2 view .LVU877
 2993              		.loc 1 325 5 discriminator 2 view .LVU878
 2994 001a 002B     		cmp	r3, #0
 2995 001c 4AD0     		beq	.L313
 2996              		.loc 1 325 5 discriminator 2 view .LVU879
 326:../switch_sdk/core/yt/yt_vlan_translate.c **** 
 327:../switch_sdk/core/yt/yt_vlan_translate.c ****     return YT_DISPATCH(unit)->vlan_egr_trans_table_add(unit, pRuleTbl, pAction, pEntry_id);
 2997              		.loc 1 327 5 discriminator 2 view .LVU880
 2998              		.loc 1 327 29 is_stmt 0 discriminator 2 view .LVU881
 2999 001e D4F8CC40 		ldr	r4, [r4, #204]
 3000              		.loc 1 327 12 discriminator 2 view .LVU882
 3001 0022 6046     		mov	r0, ip
 3002 0024 A047     		blx	r4
 3003              	.LVL407:
 3004              	.L293:
 328:../switch_sdk/core/yt/yt_vlan_translate.c **** }
 3005              		.loc 1 328 1 view .LVU883
 3006 0026 10BD     		pop	{r4, pc}
 3007              	.LVL408:
 3008              	.L308:
 320:../switch_sdk/core/yt/yt_vlan_translate.c ****     CMM_PARAM_CHK(NULL == YT_DISPATCH(unit), CMM_ERR_NOT_INIT);
 3009              		.loc 1 320 5 is_stmt 1 discriminator 1 view .LVU884
 320:../switch_sdk/core/yt/yt_vlan_translate.c ****     CMM_PARAM_CHK(NULL == YT_DISPATCH(unit), CMM_ERR_NOT_INIT);
 3010              		.loc 1 320 5 discriminator 1 view .LVU885
 3011 0028 2A4B     		ldr	r3, .L320+4
 3012              	.LVL409:
 320:../switch_sdk/core/yt/yt_vlan_translate.c ****     CMM_PARAM_CHK(NULL == YT_DISPATCH(unit), CMM_ERR_NOT_INIT);
 3013              		.loc 1 320 5 is_stmt 0 discriminator 1 view .LVU886
 3014 002a 1B78     		ldrb	r3, [r3]	@ zero_extendqisi2
 3015 002c 012B     		cmp	r3, #1
 3016 002e 01D8     		bhi	.L314
 3017              	.LVL410:
 3018              	.L295:
 320:../switch_sdk/core/yt/yt_vlan_translate.c ****     CMM_PARAM_CHK(NULL == YT_DISPATCH(unit), CMM_ERR_NOT_INIT);
 3019              		.loc 1 320 5 is_stmt 1 discriminator 5 view .LVU887
 320:../switch_sdk/core/yt/yt_vlan_translate.c ****     CMM_PARAM_CHK(NULL == YT_DISPATCH(unit), CMM_ERR_NOT_INIT);
 3020              		.loc 1 320 5 discriminator 5 view .LVU888
 320:../switch_sdk/core/yt/yt_vlan_translate.c ****     CMM_PARAM_CHK(NULL == YT_DISPATCH(unit), CMM_ERR_NOT_INIT);
 3021              		.loc 1 320 5 discriminator 5 view .LVU889
 3022 0030 0520     		movs	r0, #5
 3023 0032 F8E7     		b	.L293
 3024              	.LVL411:
 3025              	.L314:
 320:../switch_sdk/core/yt/yt_vlan_translate.c ****     CMM_PARAM_CHK(NULL == YT_DISPATCH(unit), CMM_ERR_NOT_INIT);
 3026              		.loc 1 320 5 discriminator 3 view .LVU890
 3027              	.LBB60:
 320:../switch_sdk/core/yt/yt_vlan_translate.c ****     CMM_PARAM_CHK(NULL == YT_DISPATCH(unit), CMM_ERR_NOT_INIT);
 3028              		.loc 1 320 5 discriminator 3 view .LVU891
 3029 0034 284B     		ldr	r3, .L320+8
 3030 0036 5A69     		ldr	r2, [r3, #20]
 3031              	.LVL412:
 320:../switch_sdk/core/yt/yt_vlan_translate.c ****     CMM_PARAM_CHK(NULL == YT_DISPATCH(unit), CMM_ERR_NOT_INIT);
 3032              		.loc 1 320 5 is_stmt 0 discriminator 3 view .LVU892
 3033 0038 284B     		ldr	r3, .L320+12
 3034 003a 9968     		ldr	r1, [r3, #8]
 3035              	.LVL413:
 320:../switch_sdk/core/yt/yt_vlan_translate.c ****     CMM_PARAM_CHK(NULL == YT_DISPATCH(unit), CMM_ERR_NOT_INIT);
 3036              		.loc 1 320 5 discriminator 3 view .LVU893
 3037 003c 2848     		ldr	r0, .L320+16
 3038              	.LVL414:
 320:../switch_sdk/core/yt/yt_vlan_translate.c ****     CMM_PARAM_CHK(NULL == YT_DISPATCH(unit), CMM_ERR_NOT_INIT);
 3039              		.loc 1 320 5 discriminator 3 view .LVU894
 3040 003e FFF7FEFF 		bl	osal_printf
 3041              	.LVL415:
 3042 0042 F5E7     		b	.L295
 3043              	.LVL416:
 3044              	.L309:
 320:../switch_sdk/core/yt/yt_vlan_translate.c ****     CMM_PARAM_CHK(NULL == YT_DISPATCH(unit), CMM_ERR_NOT_INIT);
 3045              		.loc 1 320 5 discriminator 3 view .LVU895
 3046              	.LBE60:
 321:../switch_sdk/core/yt/yt_vlan_translate.c ****     CMM_PARAM_CHK((!(YT_DISPATCH(unit)->is_inited)), CMM_ERR_NOT_INIT);
 3047              		.loc 1 321 5 is_stmt 1 discriminator 1 view .LVU896
 321:../switch_sdk/core/yt/yt_vlan_translate.c ****     CMM_PARAM_CHK((!(YT_DISPATCH(unit)->is_inited)), CMM_ERR_NOT_INIT);
 3048              		.loc 1 321 5 discriminator 1 view .LVU897
 3049 0044 234B     		ldr	r3, .L320+4
 3050              	.LVL417:
 321:../switch_sdk/core/yt/yt_vlan_translate.c ****     CMM_PARAM_CHK((!(YT_DISPATCH(unit)->is_inited)), CMM_ERR_NOT_INIT);
 3051              		.loc 1 321 5 is_stmt 0 discriminator 1 view .LVU898
 3052 0046 1B78     		ldrb	r3, [r3]	@ zero_extendqisi2
 3053 0048 012B     		cmp	r3, #1
 3054 004a 01D8     		bhi	.L315
 3055              	.LVL418:
 3056              	.L298:
 321:../switch_sdk/core/yt/yt_vlan_translate.c ****     CMM_PARAM_CHK((!(YT_DISPATCH(unit)->is_inited)), CMM_ERR_NOT_INIT);
 3057              		.loc 1 321 5 is_stmt 1 discriminator 5 view .LVU899
 321:../switch_sdk/core/yt/yt_vlan_translate.c ****     CMM_PARAM_CHK((!(YT_DISPATCH(unit)->is_inited)), CMM_ERR_NOT_INIT);
 3058              		.loc 1 321 5 discriminator 5 view .LVU900
 321:../switch_sdk/core/yt/yt_vlan_translate.c ****     CMM_PARAM_CHK((!(YT_DISPATCH(unit)->is_inited)), CMM_ERR_NOT_INIT);
 3059              		.loc 1 321 5 discriminator 5 view .LVU901
 3060 004c 0420     		movs	r0, #4
 3061 004e EAE7     		b	.L293
 3062              	.LVL419:
 3063              	.L315:
 321:../switch_sdk/core/yt/yt_vlan_translate.c ****     CMM_PARAM_CHK((!(YT_DISPATCH(unit)->is_inited)), CMM_ERR_NOT_INIT);
 3064              		.loc 1 321 5 discriminator 3 view .LVU902
 3065              	.LBB61:
 321:../switch_sdk/core/yt/yt_vlan_translate.c ****     CMM_PARAM_CHK((!(YT_DISPATCH(unit)->is_inited)), CMM_ERR_NOT_INIT);
 3066              		.loc 1 321 5 discriminator 3 view .LVU903
 3067 0050 214B     		ldr	r3, .L320+8
 3068 0052 1A69     		ldr	r2, [r3, #16]
 3069              	.LVL420:
 321:../switch_sdk/core/yt/yt_vlan_translate.c ****     CMM_PARAM_CHK((!(YT_DISPATCH(unit)->is_inited)), CMM_ERR_NOT_INIT);
 3070              		.loc 1 321 5 is_stmt 0 discriminator 3 view .LVU904
 3071 0054 214B     		ldr	r3, .L320+12
 3072 0056 9968     		ldr	r1, [r3, #8]
 3073              	.LVL421:
 321:../switch_sdk/core/yt/yt_vlan_translate.c ****     CMM_PARAM_CHK((!(YT_DISPATCH(unit)->is_inited)), CMM_ERR_NOT_INIT);
 3074              		.loc 1 321 5 discriminator 3 view .LVU905
 3075 0058 2148     		ldr	r0, .L320+16
 3076 005a FFF7FEFF 		bl	osal_printf
 3077              	.LVL422:
 3078 005e F5E7     		b	.L298
 3079              	.LVL423:
 3080              	.L310:
 321:../switch_sdk/core/yt/yt_vlan_translate.c ****     CMM_PARAM_CHK((!(YT_DISPATCH(unit)->is_inited)), CMM_ERR_NOT_INIT);
 3081              		.loc 1 321 5 discriminator 3 view .LVU906
 3082              	.LBE61:
 322:../switch_sdk/core/yt/yt_vlan_translate.c ****     CMM_PARAM_CHK((NULL == pRuleTbl), CMM_ERR_NULL_POINT);
 3083              		.loc 1 322 5 is_stmt 1 discriminator 1 view .LVU907
 322:../switch_sdk/core/yt/yt_vlan_translate.c ****     CMM_PARAM_CHK((NULL == pRuleTbl), CMM_ERR_NULL_POINT);
 3084              		.loc 1 322 5 discriminator 1 view .LVU908
 3085 0060 1C4B     		ldr	r3, .L320+4
 3086              	.LVL424:
 322:../switch_sdk/core/yt/yt_vlan_translate.c ****     CMM_PARAM_CHK((NULL == pRuleTbl), CMM_ERR_NULL_POINT);
 3087              		.loc 1 322 5 is_stmt 0 discriminator 1 view .LVU909
 3088 0062 1B78     		ldrb	r3, [r3]	@ zero_extendqisi2
 3089 0064 012B     		cmp	r3, #1
 3090 0066 01D8     		bhi	.L316
 3091              	.LVL425:
 3092              	.L300:
 322:../switch_sdk/core/yt/yt_vlan_translate.c ****     CMM_PARAM_CHK((NULL == pRuleTbl), CMM_ERR_NULL_POINT);
 3093              		.loc 1 322 5 is_stmt 1 discriminator 5 view .LVU910
 322:../switch_sdk/core/yt/yt_vlan_translate.c ****     CMM_PARAM_CHK((NULL == pRuleTbl), CMM_ERR_NULL_POINT);
 3094              		.loc 1 322 5 discriminator 5 view .LVU911
 322:../switch_sdk/core/yt/yt_vlan_translate.c ****     CMM_PARAM_CHK((NULL == pRuleTbl), CMM_ERR_NULL_POINT);
 3095              		.loc 1 322 5 discriminator 5 view .LVU912
 3096 0068 0420     		movs	r0, #4
 3097 006a DCE7     		b	.L293
 3098              	.LVL426:
 3099              	.L316:
 322:../switch_sdk/core/yt/yt_vlan_translate.c ****     CMM_PARAM_CHK((NULL == pRuleTbl), CMM_ERR_NULL_POINT);
 3100              		.loc 1 322 5 discriminator 3 view .LVU913
 3101              	.LBB62:
 322:../switch_sdk/core/yt/yt_vlan_translate.c ****     CMM_PARAM_CHK((NULL == pRuleTbl), CMM_ERR_NULL_POINT);
 3102              		.loc 1 322 5 discriminator 3 view .LVU914
 3103 006c 1A4B     		ldr	r3, .L320+8
 3104 006e 1A69     		ldr	r2, [r3, #16]
 3105              	.LVL427:
 322:../switch_sdk/core/yt/yt_vlan_translate.c ****     CMM_PARAM_CHK((NULL == pRuleTbl), CMM_ERR_NULL_POINT);
 3106              		.loc 1 322 5 is_stmt 0 discriminator 3 view .LVU915
 3107 0070 1A4B     		ldr	r3, .L320+12
 3108 0072 9968     		ldr	r1, [r3, #8]
 3109              	.LVL428:
 322:../switch_sdk/core/yt/yt_vlan_translate.c ****     CMM_PARAM_CHK((NULL == pRuleTbl), CMM_ERR_NULL_POINT);
 3110              		.loc 1 322 5 discriminator 3 view .LVU916
 3111 0074 1A48     		ldr	r0, .L320+16
 3112 0076 FFF7FEFF 		bl	osal_printf
 3113              	.LVL429:
 3114 007a F5E7     		b	.L300
 3115              	.LVL430:
 3116              	.L311:
 322:../switch_sdk/core/yt/yt_vlan_translate.c ****     CMM_PARAM_CHK((NULL == pRuleTbl), CMM_ERR_NULL_POINT);
 3117              		.loc 1 322 5 discriminator 3 view .LVU917
 3118              	.LBE62:
 323:../switch_sdk/core/yt/yt_vlan_translate.c ****     CMM_PARAM_CHK((NULL == pAction), CMM_ERR_NULL_POINT);
 3119              		.loc 1 323 5 is_stmt 1 discriminator 1 view .LVU918
 323:../switch_sdk/core/yt/yt_vlan_translate.c ****     CMM_PARAM_CHK((NULL == pAction), CMM_ERR_NULL_POINT);
 3120              		.loc 1 323 5 discriminator 1 view .LVU919
 3121 007c 154B     		ldr	r3, .L320+4
 3122              	.LVL431:
 323:../switch_sdk/core/yt/yt_vlan_translate.c ****     CMM_PARAM_CHK((NULL == pAction), CMM_ERR_NULL_POINT);
 3123              		.loc 1 323 5 is_stmt 0 discriminator 1 view .LVU920
 3124 007e 1B78     		ldrb	r3, [r3]	@ zero_extendqisi2
 3125 0080 012B     		cmp	r3, #1
 3126 0082 01D8     		bhi	.L317
 3127              	.LVL432:
 3128              	.L302:
 323:../switch_sdk/core/yt/yt_vlan_translate.c ****     CMM_PARAM_CHK((NULL == pAction), CMM_ERR_NULL_POINT);
 3129              		.loc 1 323 5 is_stmt 1 discriminator 5 view .LVU921
 323:../switch_sdk/core/yt/yt_vlan_translate.c ****     CMM_PARAM_CHK((NULL == pAction), CMM_ERR_NULL_POINT);
 3130              		.loc 1 323 5 discriminator 5 view .LVU922
 323:../switch_sdk/core/yt/yt_vlan_translate.c ****     CMM_PARAM_CHK((NULL == pAction), CMM_ERR_NULL_POINT);
 3131              		.loc 1 323 5 discriminator 5 view .LVU923
 3132 0084 0220     		movs	r0, #2
 3133 0086 CEE7     		b	.L293
 3134              	.LVL433:
 3135              	.L317:
 323:../switch_sdk/core/yt/yt_vlan_translate.c ****     CMM_PARAM_CHK((NULL == pAction), CMM_ERR_NULL_POINT);
 3136              		.loc 1 323 5 discriminator 3 view .LVU924
 3137              	.LBB63:
 323:../switch_sdk/core/yt/yt_vlan_translate.c ****     CMM_PARAM_CHK((NULL == pAction), CMM_ERR_NULL_POINT);
 3138              		.loc 1 323 5 discriminator 3 view .LVU925
 3139 0088 134B     		ldr	r3, .L320+8
 3140 008a 9A68     		ldr	r2, [r3, #8]
 3141              	.LVL434:
 323:../switch_sdk/core/yt/yt_vlan_translate.c ****     CMM_PARAM_CHK((NULL == pAction), CMM_ERR_NULL_POINT);
 3142              		.loc 1 323 5 is_stmt 0 discriminator 3 view .LVU926
 3143 008c 134B     		ldr	r3, .L320+12
 3144 008e 9968     		ldr	r1, [r3, #8]
 3145              	.LVL435:
 323:../switch_sdk/core/yt/yt_vlan_translate.c ****     CMM_PARAM_CHK((NULL == pAction), CMM_ERR_NULL_POINT);
 3146              		.loc 1 323 5 discriminator 3 view .LVU927
 3147 0090 1348     		ldr	r0, .L320+16
 3148 0092 FFF7FEFF 		bl	osal_printf
 3149              	.LVL436:
 3150 0096 F5E7     		b	.L302
 3151              	.LVL437:
 3152              	.L312:
 323:../switch_sdk/core/yt/yt_vlan_translate.c ****     CMM_PARAM_CHK((NULL == pAction), CMM_ERR_NULL_POINT);
 3153              		.loc 1 323 5 discriminator 3 view .LVU928
 3154              	.LBE63:
 324:../switch_sdk/core/yt/yt_vlan_translate.c ****     CMM_PARAM_CHK((NULL == pEntry_id), CMM_ERR_NULL_POINT);
 3155              		.loc 1 324 5 is_stmt 1 discriminator 1 view .LVU929
 324:../switch_sdk/core/yt/yt_vlan_translate.c ****     CMM_PARAM_CHK((NULL == pEntry_id), CMM_ERR_NULL_POINT);
 3156              		.loc 1 324 5 discriminator 1 view .LVU930
 3157 0098 0E4B     		ldr	r3, .L320+4
 3158              	.LVL438:
 324:../switch_sdk/core/yt/yt_vlan_translate.c ****     CMM_PARAM_CHK((NULL == pEntry_id), CMM_ERR_NULL_POINT);
 3159              		.loc 1 324 5 is_stmt 0 discriminator 1 view .LVU931
 3160 009a 1B78     		ldrb	r3, [r3]	@ zero_extendqisi2
 3161 009c 012B     		cmp	r3, #1
 3162 009e 01D8     		bhi	.L318
 3163              	.LVL439:
 3164              	.L304:
 324:../switch_sdk/core/yt/yt_vlan_translate.c ****     CMM_PARAM_CHK((NULL == pEntry_id), CMM_ERR_NULL_POINT);
 3165              		.loc 1 324 5 is_stmt 1 discriminator 5 view .LVU932
 324:../switch_sdk/core/yt/yt_vlan_translate.c ****     CMM_PARAM_CHK((NULL == pEntry_id), CMM_ERR_NULL_POINT);
 3166              		.loc 1 324 5 discriminator 5 view .LVU933
 324:../switch_sdk/core/yt/yt_vlan_translate.c ****     CMM_PARAM_CHK((NULL == pEntry_id), CMM_ERR_NULL_POINT);
 3167              		.loc 1 324 5 discriminator 5 view .LVU934
 3168 00a0 0220     		movs	r0, #2
 3169 00a2 C0E7     		b	.L293
 3170              	.LVL440:
 3171              	.L318:
 324:../switch_sdk/core/yt/yt_vlan_translate.c ****     CMM_PARAM_CHK((NULL == pEntry_id), CMM_ERR_NULL_POINT);
 3172              		.loc 1 324 5 discriminator 3 view .LVU935
 3173              	.LBB64:
 324:../switch_sdk/core/yt/yt_vlan_translate.c ****     CMM_PARAM_CHK((NULL == pEntry_id), CMM_ERR_NULL_POINT);
 3174              		.loc 1 324 5 discriminator 3 view .LVU936
 3175 00a4 0C4B     		ldr	r3, .L320+8
 3176 00a6 9A68     		ldr	r2, [r3, #8]
 3177              	.LVL441:
 324:../switch_sdk/core/yt/yt_vlan_translate.c ****     CMM_PARAM_CHK((NULL == pEntry_id), CMM_ERR_NULL_POINT);
 3178              		.loc 1 324 5 is_stmt 0 discriminator 3 view .LVU937
 3179 00a8 0C4B     		ldr	r3, .L320+12
 3180 00aa 9968     		ldr	r1, [r3, #8]
 3181              	.LVL442:
 324:../switch_sdk/core/yt/yt_vlan_translate.c ****     CMM_PARAM_CHK((NULL == pEntry_id), CMM_ERR_NULL_POINT);
 3182              		.loc 1 324 5 discriminator 3 view .LVU938
 3183 00ac 0C48     		ldr	r0, .L320+16
 3184 00ae FFF7FEFF 		bl	osal_printf
 3185              	.LVL443:
 3186 00b2 F5E7     		b	.L304
 3187              	.LVL444:
 3188              	.L313:
 324:../switch_sdk/core/yt/yt_vlan_translate.c ****     CMM_PARAM_CHK((NULL == pEntry_id), CMM_ERR_NULL_POINT);
 3189              		.loc 1 324 5 discriminator 3 view .LVU939
 3190              	.LBE64:
 325:../switch_sdk/core/yt/yt_vlan_translate.c **** 
 3191              		.loc 1 325 5 is_stmt 1 discriminator 1 view .LVU940
 325:../switch_sdk/core/yt/yt_vlan_translate.c **** 
 3192              		.loc 1 325 5 discriminator 1 view .LVU941
 3193 00b4 074B     		ldr	r3, .L320+4
 3194              	.LVL445:
 325:../switch_sdk/core/yt/yt_vlan_translate.c **** 
 3195              		.loc 1 325 5 is_stmt 0 discriminator 1 view .LVU942
 3196 00b6 1B78     		ldrb	r3, [r3]	@ zero_extendqisi2
 3197 00b8 012B     		cmp	r3, #1
 3198 00ba 01D8     		bhi	.L319
 3199              	.LVL446:
 3200              	.L306:
 325:../switch_sdk/core/yt/yt_vlan_translate.c **** 
 3201              		.loc 1 325 5 is_stmt 1 discriminator 5 view .LVU943
 325:../switch_sdk/core/yt/yt_vlan_translate.c **** 
 3202              		.loc 1 325 5 discriminator 5 view .LVU944
 325:../switch_sdk/core/yt/yt_vlan_translate.c **** 
 3203              		.loc 1 325 5 discriminator 5 view .LVU945
 3204 00bc 0220     		movs	r0, #2
 3205 00be B2E7     		b	.L293
 3206              	.LVL447:
 3207              	.L319:
 325:../switch_sdk/core/yt/yt_vlan_translate.c **** 
 3208              		.loc 1 325 5 discriminator 3 view .LVU946
 3209              	.LBB65:
 325:../switch_sdk/core/yt/yt_vlan_translate.c **** 
 3210              		.loc 1 325 5 discriminator 3 view .LVU947
 3211 00c0 054B     		ldr	r3, .L320+8
 3212 00c2 9A68     		ldr	r2, [r3, #8]
 3213              	.LVL448:
 325:../switch_sdk/core/yt/yt_vlan_translate.c **** 
 3214              		.loc 1 325 5 is_stmt 0 discriminator 3 view .LVU948
 3215 00c4 054B     		ldr	r3, .L320+12
 3216 00c6 9968     		ldr	r1, [r3, #8]
 3217              	.LVL449:
 325:../switch_sdk/core/yt/yt_vlan_translate.c **** 
 3218              		.loc 1 325 5 discriminator 3 view .LVU949
 3219 00c8 0548     		ldr	r0, .L320+16
 3220 00ca FFF7FEFF 		bl	osal_printf
 3221              	.LVL450:
 3222 00ce F5E7     		b	.L306
 3223              	.L321:
 3224              		.align	2
 3225              	.L320:
 3226 00d0 00000000 		.word	gpfal_dispatch
 3227 00d4 00000000 		.word	yt_debug_level
 3228 00d8 00000000 		.word	_yt_errmsg
 3229 00dc 00000000 		.word	_yt_prompt_msg
 3230 00e0 00000000 		.word	.LC0
 3231              	.LBE65:
 3232              		.cfi_endproc
 3233              	.LFE15:
 3235              		.section	.text.yt_vlan_egr_trans_table_get,"ax",%progbits
 3236              		.align	1
 3237              		.global	yt_vlan_egr_trans_table_get
 3238              		.syntax unified
 3239              		.thumb
 3240              		.thumb_func
 3242              	yt_vlan_egr_trans_table_get:
 3243              	.LVL451:
 3244              	.LFB16:
 329:../switch_sdk/core/yt/yt_vlan_translate.c **** 
 330:../switch_sdk/core/yt/yt_vlan_translate.c **** /**
 331:../switch_sdk/core/yt/yt_vlan_translate.c ****  * @internal      yt_vlan_egr_trans_table_get
 332:../switch_sdk/core/yt/yt_vlan_translate.c ****  * @endinternal
 333:../switch_sdk/core/yt/yt_vlan_translate.c ****  *
 334:../switch_sdk/core/yt/yt_vlan_translate.c ****  * @brief         Description
 335:../switch_sdk/core/yt/yt_vlan_translate.c ****  * @note          APPLICABLE DEVICES  -Tiger
 336:../switch_sdk/core/yt/yt_vlan_translate.c ****  * @param[in]     unit                -unit id
 337:../switch_sdk/core/yt/yt_vlan_translate.c ****  * @param[in]     entry_idx           -vlan translate table index
 338:../switch_sdk/core/yt/yt_vlan_translate.c ****  * @param[out]    pRuleTbl            -x
 339:../switch_sdk/core/yt/yt_vlan_translate.c ****  * @param[out]    pAction             -x
 340:../switch_sdk/core/yt/yt_vlan_translate.c ****  * @retval        CMM_ERR_OK          -on success
 341:../switch_sdk/core/yt/yt_vlan_translate.c ****  * @retval        CMM_ERR_FAIL        -on fail
 342:../switch_sdk/core/yt/yt_vlan_translate.c ****  */
 343:../switch_sdk/core/yt/yt_vlan_translate.c **** yt_ret_t yt_vlan_egr_trans_table_get(yt_unit_t unit, yt_trans_tbl_id_t entry_idx, yt_egr_vlan_trans
 344:../switch_sdk/core/yt/yt_vlan_translate.c **** {
 3245              		.loc 1 344 1 is_stmt 1 view -0
 3246              		.cfi_startproc
 3247              		@ args = 0, pretend = 0, frame = 0
 3248              		@ frame_needed = 0, uses_anonymous_args = 0
 3249              		.loc 1 344 1 is_stmt 0 view .LVU951
 3250 0000 10B5     		push	{r4, lr}
 3251              		.cfi_def_cfa_offset 8
 3252              		.cfi_offset 4, -8
 3253              		.cfi_offset 14, -4
 345:../switch_sdk/core/yt/yt_vlan_translate.c ****     CMM_PARAM_CHK((YT_UNIT_NUM <= unit), CMM_ERR_INPUT);
 3254              		.loc 1 345 5 is_stmt 1 view .LVU952
 3255              		.loc 1 345 5 view .LVU953
 3256 0002 78B9     		cbnz	r0, .L335
 3257 0004 8446     		mov	ip, r0
 3258              		.loc 1 345 5 discriminator 2 view .LVU954
 346:../switch_sdk/core/yt/yt_vlan_translate.c ****     CMM_PARAM_CHK(NULL == YT_DISPATCH(unit), CMM_ERR_NOT_INIT);
 3259              		.loc 1 346 5 discriminator 2 view .LVU955
 3260              		.loc 1 346 5 discriminator 2 view .LVU956
 3261 0006 2A48     		ldr	r0, .L345
 3262              	.LVL452:
 3263              		.loc 1 346 5 is_stmt 0 discriminator 2 view .LVU957
 3264 0008 50F82C40 		ldr	r4, [r0, ip, lsl #2]
 3265 000c C4B1     		cbz	r4, .L336
 3266              		.loc 1 346 5 is_stmt 1 discriminator 2 view .LVU958
 347:../switch_sdk/core/yt/yt_vlan_translate.c ****     CMM_PARAM_CHK((!(YT_DISPATCH(unit)->is_inited)), CMM_ERR_NOT_INIT);
 3267              		.loc 1 347 5 discriminator 2 view .LVU959
 3268              		.loc 1 347 5 discriminator 2 view .LVU960
 3269 000e 2078     		ldrb	r0, [r4]	@ zero_extendqisi2
 3270 0010 20B3     		cbz	r0, .L337
 3271              		.loc 1 347 5 discriminator 2 view .LVU961
 348:../switch_sdk/core/yt/yt_vlan_translate.c ****     CMM_PARAM_CHK((NULL == pRuleTbl), CMM_ERR_NULL_POINT);
 3272              		.loc 1 348 5 discriminator 2 view .LVU962
 3273              		.loc 1 348 5 discriminator 2 view .LVU963
 3274 0012 002A     		cmp	r2, #0
 3275 0014 30D0     		beq	.L338
 3276              		.loc 1 348 5 discriminator 2 view .LVU964
 349:../switch_sdk/core/yt/yt_vlan_translate.c ****     CMM_PARAM_CHK((NULL == pAction), CMM_ERR_NULL_POINT);
 3277              		.loc 1 349 5 discriminator 2 view .LVU965
 3278              		.loc 1 349 5 discriminator 2 view .LVU966
 3279 0016 002B     		cmp	r3, #0
 3280 0018 3CD0     		beq	.L339
 3281              		.loc 1 349 5 discriminator 2 view .LVU967
 350:../switch_sdk/core/yt/yt_vlan_translate.c **** 
 351:../switch_sdk/core/yt/yt_vlan_translate.c ****     return YT_DISPATCH(unit)->vlan_egr_trans_table_get(unit, entry_idx, pRuleTbl, pAction);
 3282              		.loc 1 351 5 discriminator 2 view .LVU968
 3283              		.loc 1 351 29 is_stmt 0 discriminator 2 view .LVU969
 3284 001a D4F8D040 		ldr	r4, [r4, #208]
 3285              		.loc 1 351 12 discriminator 2 view .LVU970
 3286 001e 6046     		mov	r0, ip
 3287 0020 A047     		blx	r4
 3288              	.LVL453:
 3289              	.L322:
 352:../switch_sdk/core/yt/yt_vlan_translate.c **** }
 3290              		.loc 1 352 1 view .LVU971
 3291 0022 10BD     		pop	{r4, pc}
 3292              	.LVL454:
 3293              	.L335:
 345:../switch_sdk/core/yt/yt_vlan_translate.c ****     CMM_PARAM_CHK(NULL == YT_DISPATCH(unit), CMM_ERR_NOT_INIT);
 3294              		.loc 1 345 5 is_stmt 1 discriminator 1 view .LVU972
 345:../switch_sdk/core/yt/yt_vlan_translate.c ****     CMM_PARAM_CHK(NULL == YT_DISPATCH(unit), CMM_ERR_NOT_INIT);
 3295              		.loc 1 345 5 discriminator 1 view .LVU973
 3296 0024 234B     		ldr	r3, .L345+4
 3297              	.LVL455:
 345:../switch_sdk/core/yt/yt_vlan_translate.c ****     CMM_PARAM_CHK(NULL == YT_DISPATCH(unit), CMM_ERR_NOT_INIT);
 3298              		.loc 1 345 5 is_stmt 0 discriminator 1 view .LVU974
 3299 0026 1B78     		ldrb	r3, [r3]	@ zero_extendqisi2
 3300 0028 012B     		cmp	r3, #1
 3301 002a 01D8     		bhi	.L340
 3302              	.LVL456:
 3303              	.L324:
 345:../switch_sdk/core/yt/yt_vlan_translate.c ****     CMM_PARAM_CHK(NULL == YT_DISPATCH(unit), CMM_ERR_NOT_INIT);
 3304              		.loc 1 345 5 is_stmt 1 discriminator 5 view .LVU975
 345:../switch_sdk/core/yt/yt_vlan_translate.c ****     CMM_PARAM_CHK(NULL == YT_DISPATCH(unit), CMM_ERR_NOT_INIT);
 3305              		.loc 1 345 5 discriminator 5 view .LVU976
 345:../switch_sdk/core/yt/yt_vlan_translate.c ****     CMM_PARAM_CHK(NULL == YT_DISPATCH(unit), CMM_ERR_NOT_INIT);
 3306              		.loc 1 345 5 discriminator 5 view .LVU977
 3307 002c 0520     		movs	r0, #5
 3308 002e F8E7     		b	.L322
 3309              	.LVL457:
 3310              	.L340:
 345:../switch_sdk/core/yt/yt_vlan_translate.c ****     CMM_PARAM_CHK(NULL == YT_DISPATCH(unit), CMM_ERR_NOT_INIT);
 3311              		.loc 1 345 5 discriminator 3 view .LVU978
 3312              	.LBB66:
 345:../switch_sdk/core/yt/yt_vlan_translate.c ****     CMM_PARAM_CHK(NULL == YT_DISPATCH(unit), CMM_ERR_NOT_INIT);
 3313              		.loc 1 345 5 discriminator 3 view .LVU979
 3314 0030 214B     		ldr	r3, .L345+8
 3315 0032 5A69     		ldr	r2, [r3, #20]
 3316              	.LVL458:
 345:../switch_sdk/core/yt/yt_vlan_translate.c ****     CMM_PARAM_CHK(NULL == YT_DISPATCH(unit), CMM_ERR_NOT_INIT);
 3317              		.loc 1 345 5 is_stmt 0 discriminator 3 view .LVU980
 3318 0034 214B     		ldr	r3, .L345+12
 3319 0036 9968     		ldr	r1, [r3, #8]
 3320              	.LVL459:
 345:../switch_sdk/core/yt/yt_vlan_translate.c ****     CMM_PARAM_CHK(NULL == YT_DISPATCH(unit), CMM_ERR_NOT_INIT);
 3321              		.loc 1 345 5 discriminator 3 view .LVU981
 3322 0038 2148     		ldr	r0, .L345+16
 3323              	.LVL460:
 345:../switch_sdk/core/yt/yt_vlan_translate.c ****     CMM_PARAM_CHK(NULL == YT_DISPATCH(unit), CMM_ERR_NOT_INIT);
 3324              		.loc 1 345 5 discriminator 3 view .LVU982
 3325 003a FFF7FEFF 		bl	osal_printf
 3326              	.LVL461:
 3327 003e F5E7     		b	.L324
 3328              	.LVL462:
 3329              	.L336:
 345:../switch_sdk/core/yt/yt_vlan_translate.c ****     CMM_PARAM_CHK(NULL == YT_DISPATCH(unit), CMM_ERR_NOT_INIT);
 3330              		.loc 1 345 5 discriminator 3 view .LVU983
 3331              	.LBE66:
 346:../switch_sdk/core/yt/yt_vlan_translate.c ****     CMM_PARAM_CHK((!(YT_DISPATCH(unit)->is_inited)), CMM_ERR_NOT_INIT);
 3332              		.loc 1 346 5 is_stmt 1 discriminator 1 view .LVU984
 346:../switch_sdk/core/yt/yt_vlan_translate.c ****     CMM_PARAM_CHK((!(YT_DISPATCH(unit)->is_inited)), CMM_ERR_NOT_INIT);
 3333              		.loc 1 346 5 discriminator 1 view .LVU985
 3334 0040 1C4B     		ldr	r3, .L345+4
 3335              	.LVL463:
 346:../switch_sdk/core/yt/yt_vlan_translate.c ****     CMM_PARAM_CHK((!(YT_DISPATCH(unit)->is_inited)), CMM_ERR_NOT_INIT);
 3336              		.loc 1 346 5 is_stmt 0 discriminator 1 view .LVU986
 3337 0042 1B78     		ldrb	r3, [r3]	@ zero_extendqisi2
 3338 0044 012B     		cmp	r3, #1
 3339 0046 01D8     		bhi	.L341
 3340              	.LVL464:
 3341              	.L327:
 346:../switch_sdk/core/yt/yt_vlan_translate.c ****     CMM_PARAM_CHK((!(YT_DISPATCH(unit)->is_inited)), CMM_ERR_NOT_INIT);
 3342              		.loc 1 346 5 is_stmt 1 discriminator 5 view .LVU987
 346:../switch_sdk/core/yt/yt_vlan_translate.c ****     CMM_PARAM_CHK((!(YT_DISPATCH(unit)->is_inited)), CMM_ERR_NOT_INIT);
 3343              		.loc 1 346 5 discriminator 5 view .LVU988
 346:../switch_sdk/core/yt/yt_vlan_translate.c ****     CMM_PARAM_CHK((!(YT_DISPATCH(unit)->is_inited)), CMM_ERR_NOT_INIT);
 3344              		.loc 1 346 5 discriminator 5 view .LVU989
 3345 0048 0420     		movs	r0, #4
 3346 004a EAE7     		b	.L322
 3347              	.LVL465:
 3348              	.L341:
 346:../switch_sdk/core/yt/yt_vlan_translate.c ****     CMM_PARAM_CHK((!(YT_DISPATCH(unit)->is_inited)), CMM_ERR_NOT_INIT);
