   1              		.cpu cortex-m3
   2              		.arch armv7-m
   3              		.fpu softvfp
   4              		.eabi_attribute 20, 1
   5              		.eabi_attribute 21, 1
   6              		.eabi_attribute 23, 3
   7              		.eabi_attribute 24, 1
   8              		.eabi_attribute 25, 1
   9              		.eabi_attribute 26, 1
  10              		.eabi_attribute 30, 1
  11              		.eabi_attribute 34, 1
  12              		.eabi_attribute 18, 4
  13              		.file	"sw_yt921x.c"
  14              		.text
  15              	.Ltext0:
  16              		.cfi_sections	.debug_frame
  17              		.file 1 "../switch_sdk/core/drv/mac/sw_yt921x.c"
  18              		.section	.text.yt9215_init,"ax",%progbits
  19              		.align	1
  20              		.global	yt9215_init
  21              		.syntax unified
  22              		.thumb
  23              		.thumb_func
  25              	yt9215_init:
  26              	.LVL0:
  27              	.LFB3:
   1:../switch_sdk/core/drv/mac/sw_yt921x.c **** /*******************************************************************************
   2:../switch_sdk/core/drv/mac/sw_yt921x.c **** *                                                                              *
   3:../switch_sdk/core/drv/mac/sw_yt921x.c **** *  Copyright (c), 2022, Motorcomm Electronic Technology Co.,Ltd.               *
   4:../switch_sdk/core/drv/mac/sw_yt921x.c **** *  Motorcomm Confidential and Proprietary.                                     *
   5:../switch_sdk/core/drv/mac/sw_yt921x.c **** *                                                                              *
   6:../switch_sdk/core/drv/mac/sw_yt921x.c **** ********************************************************************************
   7:../switch_sdk/core/drv/mac/sw_yt921x.c **** */
   8:../switch_sdk/core/drv/mac/sw_yt921x.c **** 
   9:../switch_sdk/core/drv/mac/sw_yt921x.c **** #include "sw_yt921x.h"
  10:../switch_sdk/core/drv/mac/sw_yt921x.c **** #include "hal_mem.h"
  11:../switch_sdk/core/drv/mac/sw_yt921x.c **** #include "yt_util.h"
  12:../switch_sdk/core/drv/mac/sw_yt921x.c **** 
  13:../switch_sdk/core/drv/mac/sw_yt921x.c **** yt_switch_drv_func_t yt9215_drv_func =
  14:../switch_sdk/core/drv/mac/sw_yt921x.c **** {
  15:../switch_sdk/core/drv/mac/sw_yt921x.c ****     .switch_init = yt9215_init,
  16:../switch_sdk/core/drv/mac/sw_yt921x.c ****     .switch_mac_config = yt9215_mac_config,
  17:../switch_sdk/core/drv/mac/sw_yt921x.c ****     .switch_led_config = yt9215_led_config,
  18:../switch_sdk/core/drv/mac/sw_yt921x.c ****     .switch_intif_read = yt9215_intif_read,
  19:../switch_sdk/core/drv/mac/sw_yt921x.c ****     .switch_intif_write = yt9215_intif_write,
  20:../switch_sdk/core/drv/mac/sw_yt921x.c ****     .switch_extif_read = yt9215_extif_read,
  21:../switch_sdk/core/drv/mac/sw_yt921x.c ****     .switch_extif_write = yt9215_extif_write,
  22:../switch_sdk/core/drv/mac/sw_yt921x.c ****     .switch_extif_polling_config = yt9215_extif_polling_config,
  23:../switch_sdk/core/drv/mac/sw_yt921x.c ****     .switch_edata_read = yt9215_edata_read,
  24:../switch_sdk/core/drv/mac/sw_yt921x.c **** };
  25:../switch_sdk/core/drv/mac/sw_yt921x.c **** 
  26:../switch_sdk/core/drv/mac/sw_yt921x.c **** yt_switch_drv_t yt9215_drv =
  27:../switch_sdk/core/drv/mac/sw_yt921x.c **** {
  28:../switch_sdk/core/drv/mac/sw_yt921x.c ****     .chip_id = YT_SW_ID_9215,
  29:../switch_sdk/core/drv/mac/sw_yt921x.c ****     .chip_model = YT_SW_MODEL_9215,
  30:../switch_sdk/core/drv/mac/sw_yt921x.c ****     .pDrvFunc = &yt9215_drv_func
  31:../switch_sdk/core/drv/mac/sw_yt921x.c **** };
  32:../switch_sdk/core/drv/mac/sw_yt921x.c **** 
  33:../switch_sdk/core/drv/mac/sw_yt921x.c **** yt_switch_drv_t yt9218_drv =
  34:../switch_sdk/core/drv/mac/sw_yt921x.c **** {
  35:../switch_sdk/core/drv/mac/sw_yt921x.c ****     .chip_id = YT_SW_ID_9218,
  36:../switch_sdk/core/drv/mac/sw_yt921x.c ****     .chip_model = YT_SW_MODEL_9218,
  37:../switch_sdk/core/drv/mac/sw_yt921x.c ****     .pDrvFunc = &yt9215_drv_func
  38:../switch_sdk/core/drv/mac/sw_yt921x.c **** };
  39:../switch_sdk/core/drv/mac/sw_yt921x.c **** 
  40:../switch_sdk/core/drv/mac/sw_yt921x.c **** yt_ret_t yt9215_init(yt_unit_t unit)
  41:../switch_sdk/core/drv/mac/sw_yt921x.c **** {
  28              		.loc 1 41 1 view -0
  29              		.cfi_startproc
  30              		@ args = 0, pretend = 0, frame = 0
  31              		@ frame_needed = 0, uses_anonymous_args = 0
  32              		@ link register save eliminated.
  42:../switch_sdk/core/drv/mac/sw_yt921x.c ****     CMM_UNUSED_PARAM(unit);
  33              		.loc 1 42 5 view .LVU1
  43:../switch_sdk/core/drv/mac/sw_yt921x.c ****     return CMM_ERR_OK;
  34              		.loc 1 43 5 view .LVU2
  44:../switch_sdk/core/drv/mac/sw_yt921x.c **** }
  35              		.loc 1 44 1 is_stmt 0 view .LVU3
  36 0000 0020     		movs	r0, #0
  37              	.LVL1:
  38              		.loc 1 44 1 view .LVU4
  39 0002 7047     		bx	lr
  40              		.cfi_endproc
  41              	.LFE3:
  43              		.section	.text.yt9215_mac_config,"ax",%progbits
  44              		.align	1
  45              		.global	yt9215_mac_config
  46              		.syntax unified
  47              		.thumb
  48              		.thumb_func
  50              	yt9215_mac_config:
  51              	.LVL2:
  52              	.LFB4:
  45:../switch_sdk/core/drv/mac/sw_yt921x.c **** 
  46:../switch_sdk/core/drv/mac/sw_yt921x.c **** yt_ret_t yt9215_mac_config(yt_unit_t unit)
  47:../switch_sdk/core/drv/mac/sw_yt921x.c **** {
  53              		.loc 1 47 1 is_stmt 1 view -0
  54              		.cfi_startproc
  55              		@ args = 0, pretend = 0, frame = 0
  56              		@ frame_needed = 0, uses_anonymous_args = 0
  57              		@ link register save eliminated.
  48:../switch_sdk/core/drv/mac/sw_yt921x.c ****     CMM_UNUSED_PARAM(unit);
  58              		.loc 1 48 5 view .LVU6
  49:../switch_sdk/core/drv/mac/sw_yt921x.c ****     return CMM_ERR_OK;
  59              		.loc 1 49 5 view .LVU7
  50:../switch_sdk/core/drv/mac/sw_yt921x.c **** }
  60              		.loc 1 50 1 is_stmt 0 view .LVU8
  61 0000 0020     		movs	r0, #0
  62              	.LVL3:
  63              		.loc 1 50 1 view .LVU9
  64 0002 7047     		bx	lr
  65              		.cfi_endproc
  66              	.LFE4:
  68              		.section	.text.yt9215_led_config,"ax",%progbits
  69              		.align	1
  70              		.global	yt9215_led_config
  71              		.syntax unified
  72              		.thumb
  73              		.thumb_func
  75              	yt9215_led_config:
  76              	.LVL4:
  77              	.LFB5:
  51:../switch_sdk/core/drv/mac/sw_yt921x.c **** 
  52:../switch_sdk/core/drv/mac/sw_yt921x.c **** yt_ret_t yt9215_led_config(yt_unit_t unit)
  53:../switch_sdk/core/drv/mac/sw_yt921x.c **** {
  78              		.loc 1 53 1 is_stmt 1 view -0
  79              		.cfi_startproc
  80              		@ args = 0, pretend = 0, frame = 0
  81              		@ frame_needed = 0, uses_anonymous_args = 0
  82              		@ link register save eliminated.
  54:../switch_sdk/core/drv/mac/sw_yt921x.c ****     CMM_UNUSED_PARAM(unit);
  83              		.loc 1 54 5 view .LVU11
  55:../switch_sdk/core/drv/mac/sw_yt921x.c ****     return CMM_ERR_OK;
  84              		.loc 1 55 5 view .LVU12
  56:../switch_sdk/core/drv/mac/sw_yt921x.c **** }
  85              		.loc 1 56 1 is_stmt 0 view .LVU13
  86 0000 0020     		movs	r0, #0
  87              	.LVL5:
  88              		.loc 1 56 1 view .LVU14
  89 0002 7047     		bx	lr
  90              		.cfi_endproc
  91              	.LFE5:
  93              		.section	.text.yt9215_extif_polling_config,"ax",%progbits
  94              		.align	1
  95              		.global	yt9215_extif_polling_config
  96              		.syntax unified
  97              		.thumb
  98              		.thumb_func
 100              	yt9215_extif_polling_config:
 101              	.LVL6:
 102              	.LFB10:
  57:../switch_sdk/core/drv/mac/sw_yt921x.c **** 
  58:../switch_sdk/core/drv/mac/sw_yt921x.c **** yt_ret_t yt9215_intif_read(yt_unit_t unit, uint8_t intif_addr, uint32_t regAddr, uint16_t *pData)
  59:../switch_sdk/core/drv/mac/sw_yt921x.c **** {
  60:../switch_sdk/core/drv/mac/sw_yt921x.c ****     cmm_err_t ret = CMM_ERR_OK;
  61:../switch_sdk/core/drv/mac/sw_yt921x.c ****     uint32_t base_data;
  62:../switch_sdk/core/drv/mac/sw_yt921x.c ****     uint32_t op_data = 0;
  63:../switch_sdk/core/drv/mac/sw_yt921x.c ****     uint32_t wait_count = 0;
  64:../switch_sdk/core/drv/mac/sw_yt921x.c **** 
  65:../switch_sdk/core/drv/mac/sw_yt921x.c ****     INT_SMI_LOCK();
  66:../switch_sdk/core/drv/mac/sw_yt921x.c **** 
  67:../switch_sdk/core/drv/mac/sw_yt921x.c ****     CMM_ERR_UNLOCK(HAL_MEM_DIRECT_READ(unit, INT_IF_ACCESS_ADDR_CTRL, &base_data), YT_INT_SMI_LOCK_
  68:../switch_sdk/core/drv/mac/sw_yt921x.c ****     base_data &= 0xFC00FFF1;
  69:../switch_sdk/core/drv/mac/sw_yt921x.c ****     base_data |= ((intif_addr&0x1f) << 21 | (regAddr&0x1f) << 16 | 2 << 2);
  70:../switch_sdk/core/drv/mac/sw_yt921x.c ****     CMM_ERR_UNLOCK(HAL_MEM_DIRECT_WRITE(unit, INT_IF_ACCESS_ADDR_CTRL, base_data), YT_INT_SMI_LOCK_
  71:../switch_sdk/core/drv/mac/sw_yt921x.c **** 
  72:../switch_sdk/core/drv/mac/sw_yt921x.c ****     op_data = 1;
  73:../switch_sdk/core/drv/mac/sw_yt921x.c ****     CMM_ERR_UNLOCK(HAL_MEM_DIRECT_WRITE(unit, INT_IF_ACCESS_FRAME_CTRL, op_data), YT_INT_SMI_LOCK_I
  74:../switch_sdk/core/drv/mac/sw_yt921x.c **** 
  75:../switch_sdk/core/drv/mac/sw_yt921x.c ****     while(MAX_BUSYING_WAIT_TIME > wait_count)
  76:../switch_sdk/core/drv/mac/sw_yt921x.c ****     {
  77:../switch_sdk/core/drv/mac/sw_yt921x.c ****         CMM_ERR_UNLOCK(HAL_MEM_DIRECT_READ(unit, INT_IF_ACCESS_FRAME_CTRL, &op_data), YT_INT_SMI_LO
  78:../switch_sdk/core/drv/mac/sw_yt921x.c **** 
  79:../switch_sdk/core/drv/mac/sw_yt921x.c ****         if(!op_data)
  80:../switch_sdk/core/drv/mac/sw_yt921x.c ****         {
  81:../switch_sdk/core/drv/mac/sw_yt921x.c ****             CMM_ERR_UNLOCK(HAL_MEM_DIRECT_READ(unit, INT_IF_ACCESS_DATA_1_ADDR, &base_data), YT_INT
  82:../switch_sdk/core/drv/mac/sw_yt921x.c ****             *pData = base_data;
  83:../switch_sdk/core/drv/mac/sw_yt921x.c ****             INT_SMI_UNLOCK();
  84:../switch_sdk/core/drv/mac/sw_yt921x.c ****             return CMM_ERR_OK;
  85:../switch_sdk/core/drv/mac/sw_yt921x.c ****         }
  86:../switch_sdk/core/drv/mac/sw_yt921x.c ****         wait_count ++;
  87:../switch_sdk/core/drv/mac/sw_yt921x.c ****     }
  88:../switch_sdk/core/drv/mac/sw_yt921x.c **** 
  89:../switch_sdk/core/drv/mac/sw_yt921x.c ****     INT_SMI_UNLOCK();
  90:../switch_sdk/core/drv/mac/sw_yt921x.c ****     return CMM_ERR_BUSYING_TIME;
  91:../switch_sdk/core/drv/mac/sw_yt921x.c **** }
  92:../switch_sdk/core/drv/mac/sw_yt921x.c **** 
  93:../switch_sdk/core/drv/mac/sw_yt921x.c **** yt_ret_t yt9215_intif_write(yt_unit_t unit, uint8_t intif_addr, uint32_t regAddr, uint16_t data)
  94:../switch_sdk/core/drv/mac/sw_yt921x.c **** {
  95:../switch_sdk/core/drv/mac/sw_yt921x.c ****     cmm_err_t ret = CMM_ERR_OK;
  96:../switch_sdk/core/drv/mac/sw_yt921x.c ****     uint32_t base_data;
  97:../switch_sdk/core/drv/mac/sw_yt921x.c ****     uint32_t op_data = 0;
  98:../switch_sdk/core/drv/mac/sw_yt921x.c ****     uint32_t wait_count = 0;
  99:../switch_sdk/core/drv/mac/sw_yt921x.c **** 
 100:../switch_sdk/core/drv/mac/sw_yt921x.c ****     INT_SMI_LOCK();
 101:../switch_sdk/core/drv/mac/sw_yt921x.c **** 
 102:../switch_sdk/core/drv/mac/sw_yt921x.c ****     CMM_ERR_UNLOCK(HAL_MEM_DIRECT_READ(unit, INT_IF_ACCESS_ADDR_CTRL, &base_data), YT_INT_SMI_LOCK_
 103:../switch_sdk/core/drv/mac/sw_yt921x.c ****     base_data &= 0xFC00FFF1;
 104:../switch_sdk/core/drv/mac/sw_yt921x.c ****     base_data |= ((intif_addr&0x1f) << 21 | (regAddr&0x1f) << 16 | 1 << 2);
 105:../switch_sdk/core/drv/mac/sw_yt921x.c ****     CMM_ERR_UNLOCK(HAL_MEM_DIRECT_WRITE(unit, INT_IF_ACCESS_ADDR_CTRL, base_data), YT_INT_SMI_LOCK_
 106:../switch_sdk/core/drv/mac/sw_yt921x.c ****     CMM_ERR_UNLOCK(HAL_MEM_DIRECT_WRITE(unit, INT_IF_ACCESS_DATA_0_ADDR, data), YT_INT_SMI_LOCK_ID,
 107:../switch_sdk/core/drv/mac/sw_yt921x.c **** 
 108:../switch_sdk/core/drv/mac/sw_yt921x.c ****     op_data = 1;
 109:../switch_sdk/core/drv/mac/sw_yt921x.c ****     CMM_ERR_UNLOCK(HAL_MEM_DIRECT_WRITE(unit, INT_IF_ACCESS_FRAME_CTRL, op_data), YT_INT_SMI_LOCK_I
 110:../switch_sdk/core/drv/mac/sw_yt921x.c **** 
 111:../switch_sdk/core/drv/mac/sw_yt921x.c ****     while(MAX_BUSYING_WAIT_TIME > wait_count)
 112:../switch_sdk/core/drv/mac/sw_yt921x.c ****     {
 113:../switch_sdk/core/drv/mac/sw_yt921x.c ****         CMM_ERR_UNLOCK(HAL_MEM_DIRECT_READ(unit, INT_IF_ACCESS_FRAME_CTRL, &op_data), YT_INT_SMI_LO
 114:../switch_sdk/core/drv/mac/sw_yt921x.c **** 
 115:../switch_sdk/core/drv/mac/sw_yt921x.c ****         if(!op_data)
 116:../switch_sdk/core/drv/mac/sw_yt921x.c ****         {
 117:../switch_sdk/core/drv/mac/sw_yt921x.c ****             INT_SMI_UNLOCK();
 118:../switch_sdk/core/drv/mac/sw_yt921x.c ****             return CMM_ERR_OK;
 119:../switch_sdk/core/drv/mac/sw_yt921x.c ****         }
 120:../switch_sdk/core/drv/mac/sw_yt921x.c **** 
 121:../switch_sdk/core/drv/mac/sw_yt921x.c ****         wait_count ++;
 122:../switch_sdk/core/drv/mac/sw_yt921x.c ****     }
 123:../switch_sdk/core/drv/mac/sw_yt921x.c **** 
 124:../switch_sdk/core/drv/mac/sw_yt921x.c ****     INT_SMI_UNLOCK();
 125:../switch_sdk/core/drv/mac/sw_yt921x.c ****     return CMM_ERR_BUSYING_TIME;
 126:../switch_sdk/core/drv/mac/sw_yt921x.c **** }
 127:../switch_sdk/core/drv/mac/sw_yt921x.c **** 
 128:../switch_sdk/core/drv/mac/sw_yt921x.c **** yt_ret_t yt9215_extif_read(yt_unit_t unit, uint8_t extif_addr, uint32_t regAddr, uint16_t *pData)
 129:../switch_sdk/core/drv/mac/sw_yt921x.c **** {
 130:../switch_sdk/core/drv/mac/sw_yt921x.c ****     cmm_err_t ret = CMM_ERR_OK;
 131:../switch_sdk/core/drv/mac/sw_yt921x.c ****     uint32_t base_data;
 132:../switch_sdk/core/drv/mac/sw_yt921x.c ****     uint32_t op_data = 0;
 133:../switch_sdk/core/drv/mac/sw_yt921x.c ****     uint32_t wait_count = 0;
 134:../switch_sdk/core/drv/mac/sw_yt921x.c **** 
 135:../switch_sdk/core/drv/mac/sw_yt921x.c ****     EXT_SMI_LOCK();
 136:../switch_sdk/core/drv/mac/sw_yt921x.c **** 
 137:../switch_sdk/core/drv/mac/sw_yt921x.c ****     CMM_ERR_UNLOCK(HAL_MEM_DIRECT_READ(unit, EXT_IF_ACCESS_ADDR_CTRL, &base_data), YT_EXT_SMI_LOCK_
 138:../switch_sdk/core/drv/mac/sw_yt921x.c ****     base_data &= 0xFC00F0F1;/*clause 22*/
 139:../switch_sdk/core/drv/mac/sw_yt921x.c ****     base_data |= ((extif_addr&0x1f) << 21 | (regAddr&0x1f) << 16 | 4<<8 | 2 << 2);
 140:../switch_sdk/core/drv/mac/sw_yt921x.c ****     CMM_ERR_UNLOCK(HAL_MEM_DIRECT_WRITE(unit, EXT_IF_ACCESS_ADDR_CTRL, base_data), YT_EXT_SMI_LOCK_
 141:../switch_sdk/core/drv/mac/sw_yt921x.c **** 
 142:../switch_sdk/core/drv/mac/sw_yt921x.c ****     op_data = 1;
 143:../switch_sdk/core/drv/mac/sw_yt921x.c ****     CMM_ERR_UNLOCK(HAL_MEM_DIRECT_WRITE(unit, EXT_IF_ACCESS_FRAME_CTRL, op_data), YT_EXT_SMI_LOCK_I
 144:../switch_sdk/core/drv/mac/sw_yt921x.c **** 
 145:../switch_sdk/core/drv/mac/sw_yt921x.c ****     while(MAX_BUSYING_WAIT_TIME > wait_count)
 146:../switch_sdk/core/drv/mac/sw_yt921x.c ****     {
 147:../switch_sdk/core/drv/mac/sw_yt921x.c ****         CMM_ERR_UNLOCK(HAL_MEM_DIRECT_READ(unit, EXT_IF_ACCESS_FRAME_CTRL, &op_data), YT_EXT_SMI_LO
 148:../switch_sdk/core/drv/mac/sw_yt921x.c **** 
 149:../switch_sdk/core/drv/mac/sw_yt921x.c ****         if(!op_data)
 150:../switch_sdk/core/drv/mac/sw_yt921x.c ****         {
 151:../switch_sdk/core/drv/mac/sw_yt921x.c ****             CMM_ERR_UNLOCK(HAL_MEM_DIRECT_READ(unit, EXT_IF_ACCESS_DATA_1_ADDR, &base_data), YT_EXT
 152:../switch_sdk/core/drv/mac/sw_yt921x.c ****             *pData = base_data;
 153:../switch_sdk/core/drv/mac/sw_yt921x.c ****             EXT_SMI_UNLOCK();
 154:../switch_sdk/core/drv/mac/sw_yt921x.c ****             return CMM_ERR_OK;
 155:../switch_sdk/core/drv/mac/sw_yt921x.c ****         }
 156:../switch_sdk/core/drv/mac/sw_yt921x.c ****         wait_count ++;
 157:../switch_sdk/core/drv/mac/sw_yt921x.c ****     }
 158:../switch_sdk/core/drv/mac/sw_yt921x.c **** 
 159:../switch_sdk/core/drv/mac/sw_yt921x.c ****     EXT_SMI_UNLOCK();
 160:../switch_sdk/core/drv/mac/sw_yt921x.c ****     return CMM_ERR_BUSYING_TIME;
 161:../switch_sdk/core/drv/mac/sw_yt921x.c **** }
 162:../switch_sdk/core/drv/mac/sw_yt921x.c **** 
 163:../switch_sdk/core/drv/mac/sw_yt921x.c **** yt_ret_t yt9215_extif_write(yt_unit_t unit, uint8_t extif_addr, uint32_t regAddr, uint16_t data)
 164:../switch_sdk/core/drv/mac/sw_yt921x.c **** {
 165:../switch_sdk/core/drv/mac/sw_yt921x.c ****     cmm_err_t ret = CMM_ERR_OK;
 166:../switch_sdk/core/drv/mac/sw_yt921x.c ****     uint32_t base_data;
 167:../switch_sdk/core/drv/mac/sw_yt921x.c ****     uint32_t op_data = 0;
 168:../switch_sdk/core/drv/mac/sw_yt921x.c ****     uint32_t wait_count = 0;
 169:../switch_sdk/core/drv/mac/sw_yt921x.c **** 
 170:../switch_sdk/core/drv/mac/sw_yt921x.c ****     EXT_SMI_LOCK();
 171:../switch_sdk/core/drv/mac/sw_yt921x.c **** 
 172:../switch_sdk/core/drv/mac/sw_yt921x.c ****     CMM_ERR_UNLOCK(HAL_MEM_DIRECT_READ(unit, EXT_IF_ACCESS_ADDR_CTRL, &base_data), YT_EXT_SMI_LOCK_
 173:../switch_sdk/core/drv/mac/sw_yt921x.c ****     base_data &= 0xFC00F0F1;/*clause 22*/
 174:../switch_sdk/core/drv/mac/sw_yt921x.c ****     base_data |= ((extif_addr&0x1f) << 21 | (regAddr&0x1f) << 16 | 4<<8 | 1 << 2);
 175:../switch_sdk/core/drv/mac/sw_yt921x.c ****     CMM_ERR_UNLOCK(HAL_MEM_DIRECT_WRITE(unit, EXT_IF_ACCESS_ADDR_CTRL, base_data), YT_EXT_SMI_LOCK_
 176:../switch_sdk/core/drv/mac/sw_yt921x.c ****     CMM_ERR_UNLOCK(HAL_MEM_DIRECT_WRITE(unit, EXT_IF_ACCESS_DATA_0_ADDR, data), YT_EXT_SMI_LOCK_ID,
 177:../switch_sdk/core/drv/mac/sw_yt921x.c **** 
 178:../switch_sdk/core/drv/mac/sw_yt921x.c ****     op_data = 1;
 179:../switch_sdk/core/drv/mac/sw_yt921x.c ****     CMM_ERR_UNLOCK(HAL_MEM_DIRECT_WRITE(unit, EXT_IF_ACCESS_FRAME_CTRL, op_data), YT_EXT_SMI_LOCK_I
 180:../switch_sdk/core/drv/mac/sw_yt921x.c **** 
 181:../switch_sdk/core/drv/mac/sw_yt921x.c ****     while(MAX_BUSYING_WAIT_TIME > wait_count)
 182:../switch_sdk/core/drv/mac/sw_yt921x.c ****     {
 183:../switch_sdk/core/drv/mac/sw_yt921x.c ****         CMM_ERR_UNLOCK(HAL_MEM_DIRECT_READ(unit, EXT_IF_ACCESS_FRAME_CTRL, &op_data), YT_EXT_SMI_LO
 184:../switch_sdk/core/drv/mac/sw_yt921x.c **** 
 185:../switch_sdk/core/drv/mac/sw_yt921x.c ****         if(!op_data)
 186:../switch_sdk/core/drv/mac/sw_yt921x.c ****         {
 187:../switch_sdk/core/drv/mac/sw_yt921x.c ****             EXT_SMI_UNLOCK();
 188:../switch_sdk/core/drv/mac/sw_yt921x.c ****             return CMM_ERR_OK;
 189:../switch_sdk/core/drv/mac/sw_yt921x.c ****         }
 190:../switch_sdk/core/drv/mac/sw_yt921x.c **** 
 191:../switch_sdk/core/drv/mac/sw_yt921x.c ****         wait_count ++;
 192:../switch_sdk/core/drv/mac/sw_yt921x.c ****     }
 193:../switch_sdk/core/drv/mac/sw_yt921x.c **** 
 194:../switch_sdk/core/drv/mac/sw_yt921x.c ****     EXT_SMI_UNLOCK();
 195:../switch_sdk/core/drv/mac/sw_yt921x.c ****     return CMM_ERR_BUSYING_TIME;
 196:../switch_sdk/core/drv/mac/sw_yt921x.c **** }
 197:../switch_sdk/core/drv/mac/sw_yt921x.c **** 
 198:../switch_sdk/core/drv/mac/sw_yt921x.c **** yt_ret_t yt9215_extif_polling_config(yt_unit_t unit)
 199:../switch_sdk/core/drv/mac/sw_yt921x.c **** {
 103              		.loc 1 199 1 is_stmt 1 view -0
 104              		.cfi_startproc
 105              		@ args = 0, pretend = 0, frame = 0
 106              		@ frame_needed = 0, uses_anonymous_args = 0
 107              		@ link register save eliminated.
 200:../switch_sdk/core/drv/mac/sw_yt921x.c ****     CMM_UNUSED_PARAM(unit);
 108              		.loc 1 200 5 view .LVU16
 201:../switch_sdk/core/drv/mac/sw_yt921x.c ****     return CMM_ERR_OK;
 109              		.loc 1 201 5 view .LVU17
 202:../switch_sdk/core/drv/mac/sw_yt921x.c **** }
 110              		.loc 1 202 1 is_stmt 0 view .LVU18
 111 0000 0020     		movs	r0, #0
 112              	.LVL7:
 113              		.loc 1 202 1 view .LVU19
 114 0002 7047     		bx	lr
 115              		.cfi_endproc
 116              	.LFE10:
 118              		.section	.text.yt9215_intif_read,"ax",%progbits
 119              		.align	1
 120              		.global	yt9215_intif_read
 121              		.syntax unified
 122              		.thumb
 123              		.thumb_func
 125              	yt9215_intif_read:
 126              	.LVL8:
 127              	.LFB6:
  59:../switch_sdk/core/drv/mac/sw_yt921x.c ****     cmm_err_t ret = CMM_ERR_OK;
 128              		.loc 1 59 1 is_stmt 1 view -0
 129              		.cfi_startproc
 130              		@ args = 0, pretend = 0, frame = 8
 131              		@ frame_needed = 0, uses_anonymous_args = 0
  59:../switch_sdk/core/drv/mac/sw_yt921x.c ****     cmm_err_t ret = CMM_ERR_OK;
 132              		.loc 1 59 1 is_stmt 0 view .LVU21
 133 0000 F0B5     		push	{r4, r5, r6, r7, lr}
 134              		.cfi_def_cfa_offset 20
 135              		.cfi_offset 4, -20
 136              		.cfi_offset 5, -16
 137              		.cfi_offset 6, -12
 138              		.cfi_offset 7, -8
 139              		.cfi_offset 14, -4
 140 0002 83B0     		sub	sp, sp, #12
 141              		.cfi_def_cfa_offset 32
 142 0004 0546     		mov	r5, r0
 143 0006 0C46     		mov	r4, r1
 144 0008 1746     		mov	r7, r2
 145 000a 1E46     		mov	r6, r3
  60:../switch_sdk/core/drv/mac/sw_yt921x.c ****     uint32_t base_data;
 146              		.loc 1 60 5 is_stmt 1 view .LVU22
 147              	.LVL9:
  61:../switch_sdk/core/drv/mac/sw_yt921x.c ****     uint32_t op_data = 0;
 148              		.loc 1 61 5 view .LVU23
  62:../switch_sdk/core/drv/mac/sw_yt921x.c ****     uint32_t wait_count = 0;
 149              		.loc 1 62 5 view .LVU24
  62:../switch_sdk/core/drv/mac/sw_yt921x.c ****     uint32_t wait_count = 0;
 150              		.loc 1 62 14 is_stmt 0 view .LVU25
 151 000c 0023     		movs	r3, #0
 152              	.LVL10:
  62:../switch_sdk/core/drv/mac/sw_yt921x.c ****     uint32_t wait_count = 0;
 153              		.loc 1 62 14 view .LVU26
 154 000e 0093     		str	r3, [sp]
  63:../switch_sdk/core/drv/mac/sw_yt921x.c **** 
 155              		.loc 1 63 5 is_stmt 1 view .LVU27
 156              	.LVL11:
  65:../switch_sdk/core/drv/mac/sw_yt921x.c **** 
 157              		.loc 1 65 5 view .LVU28
 158 0010 FFF7FEFF 		bl	INT_SMI_LOCK
 159              	.LVL12:
  67:../switch_sdk/core/drv/mac/sw_yt921x.c ****     base_data &= 0xFC00FFF1;
 160              		.loc 1 67 5 view .LVU29
  67:../switch_sdk/core/drv/mac/sw_yt921x.c ****     base_data &= 0xFC00FFF1;
 161              		.loc 1 67 5 view .LVU30
 162 0014 01AA     		add	r2, sp, #4
 163 0016 2A49     		ldr	r1, .L20
 164 0018 2846     		mov	r0, r5
 165 001a FFF7FEFF 		bl	hal_mem32_read
 166              	.LVL13:
  67:../switch_sdk/core/drv/mac/sw_yt921x.c ****     base_data &= 0xFC00FFF1;
 167              		.loc 1 67 5 is_stmt 0 view .LVU31
 168 001e 10F0FF0F 		tst	r0, #255
 169 0022 03D0     		beq	.L6
  67:../switch_sdk/core/drv/mac/sw_yt921x.c ****     base_data &= 0xFC00FFF1;
 170              		.loc 1 67 5 is_stmt 1 discriminator 3 view .LVU32
  67:../switch_sdk/core/drv/mac/sw_yt921x.c ****     base_data &= 0xFC00FFF1;
 171              		.loc 1 67 5 discriminator 3 view .LVU33
  67:../switch_sdk/core/drv/mac/sw_yt921x.c ****     base_data &= 0xFC00FFF1;
 172              		.loc 1 67 5 discriminator 3 view .LVU34
 173 0024 C4B2     		uxtb	r4, r0
 174              	.LVL14:
 175              	.L5:
  91:../switch_sdk/core/drv/mac/sw_yt921x.c **** 
 176              		.loc 1 91 1 is_stmt 0 view .LVU35
 177 0026 2046     		mov	r0, r4
 178 0028 03B0     		add	sp, sp, #12
 179              		.cfi_remember_state
 180              		.cfi_def_cfa_offset 20
 181              		@ sp needed
 182 002a F0BD     		pop	{r4, r5, r6, r7, pc}
 183              	.LVL15:
 184              	.L6:
 185              		.cfi_restore_state
  67:../switch_sdk/core/drv/mac/sw_yt921x.c ****     base_data &= 0xFC00FFF1;
 186              		.loc 1 67 5 is_stmt 1 discriminator 2 view .LVU36
  68:../switch_sdk/core/drv/mac/sw_yt921x.c ****     base_data |= ((intif_addr&0x1f) << 21 | (regAddr&0x1f) << 16 | 2 << 2);
 187              		.loc 1 68 5 discriminator 2 view .LVU37
  68:../switch_sdk/core/drv/mac/sw_yt921x.c ****     base_data |= ((intif_addr&0x1f) << 21 | (regAddr&0x1f) << 16 | 2 << 2);
 188              		.loc 1 68 15 is_stmt 0 discriminator 2 view .LVU38
 189 002c 254B     		ldr	r3, .L20+4
 190 002e 019A     		ldr	r2, [sp, #4]
 191 0030 1340     		ands	r3, r3, r2
 192 0032 0193     		str	r3, [sp, #4]
  69:../switch_sdk/core/drv/mac/sw_yt921x.c ****     CMM_ERR_UNLOCK(HAL_MEM_DIRECT_WRITE(unit, INT_IF_ACCESS_ADDR_CTRL, base_data), YT_INT_SMI_LOCK_
 193              		.loc 1 69 5 is_stmt 1 discriminator 2 view .LVU39
  69:../switch_sdk/core/drv/mac/sw_yt921x.c ****     CMM_ERR_UNLOCK(HAL_MEM_DIRECT_WRITE(unit, INT_IF_ACCESS_ADDR_CTRL, base_data), YT_INT_SMI_LOCK_
 194              		.loc 1 69 37 is_stmt 0 discriminator 2 view .LVU40
 195 0034 6405     		lsls	r4, r4, #21
 196 0036 04F07874 		and	r4, r4, #65011712
  69:../switch_sdk/core/drv/mac/sw_yt921x.c ****     CMM_ERR_UNLOCK(HAL_MEM_DIRECT_WRITE(unit, INT_IF_ACCESS_ADDR_CTRL, base_data), YT_INT_SMI_LOCK_
 197              		.loc 1 69 60 discriminator 2 view .LVU41
 198 003a 3F04     		lsls	r7, r7, #16
 199              	.LVL16:
  69:../switch_sdk/core/drv/mac/sw_yt921x.c ****     CMM_ERR_UNLOCK(HAL_MEM_DIRECT_WRITE(unit, INT_IF_ACCESS_ADDR_CTRL, base_data), YT_INT_SMI_LOCK_
 200              		.loc 1 69 60 discriminator 2 view .LVU42
 201 003c 07F4F817 		and	r7, r7, #2031616
  69:../switch_sdk/core/drv/mac/sw_yt921x.c ****     CMM_ERR_UNLOCK(HAL_MEM_DIRECT_WRITE(unit, INT_IF_ACCESS_ADDR_CTRL, base_data), YT_INT_SMI_LOCK_
 202              		.loc 1 69 43 discriminator 2 view .LVU43
 203 0040 44EA0702 		orr	r2, r4, r7
  69:../switch_sdk/core/drv/mac/sw_yt921x.c ****     CMM_ERR_UNLOCK(HAL_MEM_DIRECT_WRITE(unit, INT_IF_ACCESS_ADDR_CTRL, base_data), YT_INT_SMI_LOCK_
 204              		.loc 1 69 15 discriminator 2 view .LVU44
 205 0044 1A43     		orrs	r2, r2, r3
 206 0046 42F00802 		orr	r2, r2, #8
 207 004a 0192     		str	r2, [sp, #4]
  70:../switch_sdk/core/drv/mac/sw_yt921x.c **** 
 208              		.loc 1 70 5 is_stmt 1 discriminator 2 view .LVU45
  70:../switch_sdk/core/drv/mac/sw_yt921x.c **** 
 209              		.loc 1 70 5 discriminator 2 view .LVU46
 210 004c 1C49     		ldr	r1, .L20
 211 004e 2846     		mov	r0, r5
 212              	.LVL17:
  70:../switch_sdk/core/drv/mac/sw_yt921x.c **** 
 213              		.loc 1 70 5 is_stmt 0 discriminator 2 view .LVU47
 214 0050 FFF7FEFF 		bl	hal_mem32_write
 215              	.LVL18:
  70:../switch_sdk/core/drv/mac/sw_yt921x.c **** 
 216              		.loc 1 70 5 discriminator 2 view .LVU48
 217 0054 10F0FF0F 		tst	r0, #255
 218 0058 01D0     		beq	.L8
  70:../switch_sdk/core/drv/mac/sw_yt921x.c **** 
 219              		.loc 1 70 5 is_stmt 1 discriminator 3 view .LVU49
  70:../switch_sdk/core/drv/mac/sw_yt921x.c **** 
 220              		.loc 1 70 5 discriminator 3 view .LVU50
  70:../switch_sdk/core/drv/mac/sw_yt921x.c **** 
 221              		.loc 1 70 5 discriminator 3 view .LVU51
 222 005a C4B2     		uxtb	r4, r0
 223 005c E3E7     		b	.L5
 224              	.L8:
  70:../switch_sdk/core/drv/mac/sw_yt921x.c **** 
 225              		.loc 1 70 5 discriminator 2 view .LVU52
  72:../switch_sdk/core/drv/mac/sw_yt921x.c ****     CMM_ERR_UNLOCK(HAL_MEM_DIRECT_WRITE(unit, INT_IF_ACCESS_FRAME_CTRL, op_data), YT_INT_SMI_LOCK_I
 226              		.loc 1 72 5 discriminator 2 view .LVU53
  72:../switch_sdk/core/drv/mac/sw_yt921x.c ****     CMM_ERR_UNLOCK(HAL_MEM_DIRECT_WRITE(unit, INT_IF_ACCESS_FRAME_CTRL, op_data), YT_INT_SMI_LOCK_I
 227              		.loc 1 72 13 is_stmt 0 discriminator 2 view .LVU54
 228 005e 0122     		movs	r2, #1
 229 0060 0092     		str	r2, [sp]
  73:../switch_sdk/core/drv/mac/sw_yt921x.c **** 
 230              		.loc 1 73 5 is_stmt 1 discriminator 2 view .LVU55
  73:../switch_sdk/core/drv/mac/sw_yt921x.c **** 
 231              		.loc 1 73 5 discriminator 2 view .LVU56
 232 0062 4FF47021 		mov	r1, #983040
 233 0066 2846     		mov	r0, r5
 234              	.LVL19:
  73:../switch_sdk/core/drv/mac/sw_yt921x.c **** 
 235              		.loc 1 73 5 is_stmt 0 discriminator 2 view .LVU57
 236 0068 FFF7FEFF 		bl	hal_mem32_write
 237              	.LVL20:
  73:../switch_sdk/core/drv/mac/sw_yt921x.c **** 
 238              		.loc 1 73 5 discriminator 2 view .LVU58
 239 006c 10F0FF0F 		tst	r0, #255
 240 0070 0FD1     		bne	.L16
  63:../switch_sdk/core/drv/mac/sw_yt921x.c **** 
 241              		.loc 1 63 14 view .LVU59
 242 0072 0027     		movs	r7, #0
 243              	.LVL21:
 244              	.L9:
  75:../switch_sdk/core/drv/mac/sw_yt921x.c ****     {
 245              		.loc 1 75 33 is_stmt 1 view .LVU60
 246 0074 092F     		cmp	r7, #9
 247 0076 1FD8     		bhi	.L17
  77:../switch_sdk/core/drv/mac/sw_yt921x.c **** 
 248              		.loc 1 77 9 view .LVU61
  77:../switch_sdk/core/drv/mac/sw_yt921x.c **** 
 249              		.loc 1 77 9 view .LVU62
 250 0078 6A46     		mov	r2, sp
 251 007a 4FF47021 		mov	r1, #983040
 252 007e 2846     		mov	r0, r5
 253              	.LVL22:
  77:../switch_sdk/core/drv/mac/sw_yt921x.c **** 
 254              		.loc 1 77 9 is_stmt 0 view .LVU63
 255 0080 FFF7FEFF 		bl	hal_mem32_read
 256              	.LVL23:
  77:../switch_sdk/core/drv/mac/sw_yt921x.c **** 
 257              		.loc 1 77 9 view .LVU64
 258 0084 10F0FF0F 		tst	r0, #255
 259 0088 05D1     		bne	.L18
  77:../switch_sdk/core/drv/mac/sw_yt921x.c **** 
 260              		.loc 1 77 9 is_stmt 1 discriminator 2 view .LVU65
  79:../switch_sdk/core/drv/mac/sw_yt921x.c ****         {
 261              		.loc 1 79 9 discriminator 2 view .LVU66
  79:../switch_sdk/core/drv/mac/sw_yt921x.c ****         {
 262              		.loc 1 79 12 is_stmt 0 discriminator 2 view .LVU67
 263 008a 009C     		ldr	r4, [sp]
  79:../switch_sdk/core/drv/mac/sw_yt921x.c ****         {
 264              		.loc 1 79 11 discriminator 2 view .LVU68
 265 008c 2CB1     		cbz	r4, .L19
  86:../switch_sdk/core/drv/mac/sw_yt921x.c ****     }
 266              		.loc 1 86 9 is_stmt 1 view .LVU69
  86:../switch_sdk/core/drv/mac/sw_yt921x.c ****     }
 267              		.loc 1 86 20 is_stmt 0 view .LVU70
 268 008e 0137     		adds	r7, r7, #1
 269              	.LVL24:
  86:../switch_sdk/core/drv/mac/sw_yt921x.c ****     }
 270              		.loc 1 86 20 view .LVU71
 271 0090 F0E7     		b	.L9
 272              	.LVL25:
 273              	.L16:
  73:../switch_sdk/core/drv/mac/sw_yt921x.c **** 
 274              		.loc 1 73 5 is_stmt 1 discriminator 3 view .LVU72
  73:../switch_sdk/core/drv/mac/sw_yt921x.c **** 
 275              		.loc 1 73 5 discriminator 3 view .LVU73
  73:../switch_sdk/core/drv/mac/sw_yt921x.c **** 
 276              		.loc 1 73 5 discriminator 3 view .LVU74
 277 0092 C4B2     		uxtb	r4, r0
 278 0094 C7E7     		b	.L5
 279              	.LVL26:
 280              	.L18:
  77:../switch_sdk/core/drv/mac/sw_yt921x.c **** 
 281              		.loc 1 77 9 discriminator 3 view .LVU75
  77:../switch_sdk/core/drv/mac/sw_yt921x.c **** 
 282              		.loc 1 77 9 discriminator 3 view .LVU76
  77:../switch_sdk/core/drv/mac/sw_yt921x.c **** 
 283              		.loc 1 77 9 discriminator 3 view .LVU77
 284 0096 C4B2     		uxtb	r4, r0
 285 0098 C5E7     		b	.L5
 286              	.L19:
 287              	.LBB2:
  81:../switch_sdk/core/drv/mac/sw_yt921x.c ****             *pData = base_data;
 288              		.loc 1 81 13 view .LVU78
  81:../switch_sdk/core/drv/mac/sw_yt921x.c ****             *pData = base_data;
 289              		.loc 1 81 13 view .LVU79
 290 009a 01AA     		add	r2, sp, #4
 291 009c 0A49     		ldr	r1, .L20+8
 292 009e 2846     		mov	r0, r5
 293              	.LVL27:
  81:../switch_sdk/core/drv/mac/sw_yt921x.c ****             *pData = base_data;
 294              		.loc 1 81 13 is_stmt 0 view .LVU80
 295 00a0 FFF7FEFF 		bl	hal_mem32_read
 296              	.LVL28:
  81:../switch_sdk/core/drv/mac/sw_yt921x.c ****             *pData = base_data;
 297              		.loc 1 81 13 view .LVU81
 298 00a4 10F0FF0F 		tst	r0, #255
 299 00a8 01D0     		beq	.L12
  81:../switch_sdk/core/drv/mac/sw_yt921x.c ****             *pData = base_data;
 300              		.loc 1 81 13 is_stmt 1 discriminator 3 view .LVU82
  81:../switch_sdk/core/drv/mac/sw_yt921x.c ****             *pData = base_data;
 301              		.loc 1 81 13 discriminator 3 view .LVU83
  81:../switch_sdk/core/drv/mac/sw_yt921x.c ****             *pData = base_data;
 302              		.loc 1 81 13 discriminator 3 view .LVU84
 303 00aa C4B2     		uxtb	r4, r0
 304 00ac BBE7     		b	.L5
 305              	.L12:
  81:../switch_sdk/core/drv/mac/sw_yt921x.c ****             *pData = base_data;
 306              		.loc 1 81 13 discriminator 2 view .LVU85
  82:../switch_sdk/core/drv/mac/sw_yt921x.c ****             INT_SMI_UNLOCK();
 307              		.loc 1 82 13 discriminator 2 view .LVU86
  82:../switch_sdk/core/drv/mac/sw_yt921x.c ****             INT_SMI_UNLOCK();
 308              		.loc 1 82 20 is_stmt 0 discriminator 2 view .LVU87
 309 00ae 019B     		ldr	r3, [sp, #4]
 310 00b0 3380     		strh	r3, [r6]	@ movhi
  83:../switch_sdk/core/drv/mac/sw_yt921x.c ****             return CMM_ERR_OK;
 311              		.loc 1 83 13 is_stmt 1 discriminator 2 view .LVU88
 312 00b2 FFF7FEFF 		bl	INT_SMI_UNLOCK
 313              	.LVL29:
  84:../switch_sdk/core/drv/mac/sw_yt921x.c ****         }
 314              		.loc 1 84 13 discriminator 2 view .LVU89
  84:../switch_sdk/core/drv/mac/sw_yt921x.c ****         }
 315              		.loc 1 84 20 is_stmt 0 discriminator 2 view .LVU90
 316 00b6 B6E7     		b	.L5
 317              	.LVL30:
 318              	.L17:
  84:../switch_sdk/core/drv/mac/sw_yt921x.c ****         }
 319              		.loc 1 84 20 discriminator 2 view .LVU91
 320              	.LBE2:
  89:../switch_sdk/core/drv/mac/sw_yt921x.c ****     return CMM_ERR_BUSYING_TIME;
 321              		.loc 1 89 5 is_stmt 1 view .LVU92
 322 00b8 FFF7FEFF 		bl	INT_SMI_UNLOCK
 323              	.LVL31:
  90:../switch_sdk/core/drv/mac/sw_yt921x.c **** }
 324              		.loc 1 90 5 view .LVU93
  90:../switch_sdk/core/drv/mac/sw_yt921x.c **** }
 325              		.loc 1 90 12 is_stmt 0 view .LVU94
 326 00bc 1024     		movs	r4, #16
 327 00be B2E7     		b	.L5
 328              	.L21:
 329              		.align	2
 330              	.L20:
 331 00c0 04000F00 		.word	983044
 332 00c4 F1FF00FC 		.word	-67043343
 333 00c8 0C000F00 		.word	983052
 334              		.cfi_endproc
 335              	.LFE6:
 337              		.section	.text.yt9215_intif_write,"ax",%progbits
 338              		.align	1
 339              		.global	yt9215_intif_write
 340              		.syntax unified
 341              		.thumb
 342              		.thumb_func
 344              	yt9215_intif_write:
 345              	.LVL32:
 346              	.LFB7:
  94:../switch_sdk/core/drv/mac/sw_yt921x.c ****     cmm_err_t ret = CMM_ERR_OK;
 347              		.loc 1 94 1 is_stmt 1 view -0
 348              		.cfi_startproc
 349              		@ args = 0, pretend = 0, frame = 8
 350              		@ frame_needed = 0, uses_anonymous_args = 0
  94:../switch_sdk/core/drv/mac/sw_yt921x.c ****     cmm_err_t ret = CMM_ERR_OK;
 351              		.loc 1 94 1 is_stmt 0 view .LVU96
 352 0000 F0B5     		push	{r4, r5, r6, r7, lr}
 353              		.cfi_def_cfa_offset 20
 354              		.cfi_offset 4, -20
 355              		.cfi_offset 5, -16
 356              		.cfi_offset 6, -12
 357              		.cfi_offset 7, -8
 358              		.cfi_offset 14, -4
 359 0002 83B0     		sub	sp, sp, #12
 360              		.cfi_def_cfa_offset 32
 361 0004 0546     		mov	r5, r0
 362 0006 0C46     		mov	r4, r1
 363 0008 1746     		mov	r7, r2
 364 000a 1E46     		mov	r6, r3
  95:../switch_sdk/core/drv/mac/sw_yt921x.c ****     uint32_t base_data;
 365              		.loc 1 95 5 is_stmt 1 view .LVU97
 366              	.LVL33:
  96:../switch_sdk/core/drv/mac/sw_yt921x.c ****     uint32_t op_data = 0;
 367              		.loc 1 96 5 view .LVU98
  97:../switch_sdk/core/drv/mac/sw_yt921x.c ****     uint32_t wait_count = 0;
 368              		.loc 1 97 5 view .LVU99
  97:../switch_sdk/core/drv/mac/sw_yt921x.c ****     uint32_t wait_count = 0;
 369              		.loc 1 97 14 is_stmt 0 view .LVU100
 370 000c 0023     		movs	r3, #0
 371              	.LVL34:
  97:../switch_sdk/core/drv/mac/sw_yt921x.c ****     uint32_t wait_count = 0;
 372              		.loc 1 97 14 view .LVU101
 373 000e 0093     		str	r3, [sp]
  98:../switch_sdk/core/drv/mac/sw_yt921x.c **** 
 374              		.loc 1 98 5 is_stmt 1 view .LVU102
 375              	.LVL35:
 100:../switch_sdk/core/drv/mac/sw_yt921x.c **** 
 376              		.loc 1 100 5 view .LVU103
 377 0010 FFF7FEFF 		bl	INT_SMI_LOCK
 378              	.LVL36:
 102:../switch_sdk/core/drv/mac/sw_yt921x.c ****     base_data &= 0xFC00FFF1;
 379              		.loc 1 102 5 view .LVU104
 102:../switch_sdk/core/drv/mac/sw_yt921x.c ****     base_data &= 0xFC00FFF1;
 380              		.loc 1 102 5 view .LVU105
 381 0014 01AA     		add	r2, sp, #4
 382 0016 2A49     		ldr	r1, .L36
 383 0018 2846     		mov	r0, r5
 384 001a FFF7FEFF 		bl	hal_mem32_read
 385              	.LVL37:
 102:../switch_sdk/core/drv/mac/sw_yt921x.c ****     base_data &= 0xFC00FFF1;
 386              		.loc 1 102 5 is_stmt 0 view .LVU106
 387 001e 10F0FF0F 		tst	r0, #255
 388 0022 03D0     		beq	.L23
 102:../switch_sdk/core/drv/mac/sw_yt921x.c ****     base_data &= 0xFC00FFF1;
 389              		.loc 1 102 5 is_stmt 1 discriminator 3 view .LVU107
 102:../switch_sdk/core/drv/mac/sw_yt921x.c ****     base_data &= 0xFC00FFF1;
 390              		.loc 1 102 5 discriminator 3 view .LVU108
 102:../switch_sdk/core/drv/mac/sw_yt921x.c ****     base_data &= 0xFC00FFF1;
 391              		.loc 1 102 5 discriminator 3 view .LVU109
 392 0024 C4B2     		uxtb	r4, r0
 393              	.LVL38:
 394              	.L22:
 126:../switch_sdk/core/drv/mac/sw_yt921x.c **** 
 395              		.loc 1 126 1 is_stmt 0 view .LVU110
 396 0026 2046     		mov	r0, r4
 397 0028 03B0     		add	sp, sp, #12
 398              		.cfi_remember_state
 399              		.cfi_def_cfa_offset 20
 400              		@ sp needed
 401 002a F0BD     		pop	{r4, r5, r6, r7, pc}
 402              	.LVL39:
 403              	.L23:
 404              		.cfi_restore_state
 102:../switch_sdk/core/drv/mac/sw_yt921x.c ****     base_data &= 0xFC00FFF1;
 405              		.loc 1 102 5 is_stmt 1 discriminator 2 view .LVU111
 103:../switch_sdk/core/drv/mac/sw_yt921x.c ****     base_data |= ((intif_addr&0x1f) << 21 | (regAddr&0x1f) << 16 | 1 << 2);
 406              		.loc 1 103 5 discriminator 2 view .LVU112
 103:../switch_sdk/core/drv/mac/sw_yt921x.c ****     base_data |= ((intif_addr&0x1f) << 21 | (regAddr&0x1f) << 16 | 1 << 2);
 407              		.loc 1 103 15 is_stmt 0 discriminator 2 view .LVU113
 408 002c 2549     		ldr	r1, .L36+4
 409 002e 019B     		ldr	r3, [sp, #4]
 410 0030 1940     		ands	r1, r1, r3
 411 0032 0191     		str	r1, [sp, #4]
 104:../switch_sdk/core/drv/mac/sw_yt921x.c ****     CMM_ERR_UNLOCK(HAL_MEM_DIRECT_WRITE(unit, INT_IF_ACCESS_ADDR_CTRL, base_data), YT_INT_SMI_LOCK_
 412              		.loc 1 104 5 is_stmt 1 discriminator 2 view .LVU114
 104:../switch_sdk/core/drv/mac/sw_yt921x.c ****     CMM_ERR_UNLOCK(HAL_MEM_DIRECT_WRITE(unit, INT_IF_ACCESS_ADDR_CTRL, base_data), YT_INT_SMI_LOCK_
 413              		.loc 1 104 37 is_stmt 0 discriminator 2 view .LVU115
 414 0034 6405     		lsls	r4, r4, #21
 415 0036 04F07874 		and	r4, r4, #65011712
 104:../switch_sdk/core/drv/mac/sw_yt921x.c ****     CMM_ERR_UNLOCK(HAL_MEM_DIRECT_WRITE(unit, INT_IF_ACCESS_ADDR_CTRL, base_data), YT_INT_SMI_LOCK_
 416              		.loc 1 104 60 discriminator 2 view .LVU116
 417 003a 3F04     		lsls	r7, r7, #16
 418              	.LVL40:
 104:../switch_sdk/core/drv/mac/sw_yt921x.c ****     CMM_ERR_UNLOCK(HAL_MEM_DIRECT_WRITE(unit, INT_IF_ACCESS_ADDR_CTRL, base_data), YT_INT_SMI_LOCK_
 419              		.loc 1 104 60 discriminator 2 view .LVU117
 420 003c 07F4F817 		and	r7, r7, #2031616
 104:../switch_sdk/core/drv/mac/sw_yt921x.c ****     CMM_ERR_UNLOCK(HAL_MEM_DIRECT_WRITE(unit, INT_IF_ACCESS_ADDR_CTRL, base_data), YT_INT_SMI_LOCK_
 421              		.loc 1 104 43 discriminator 2 view .LVU118
 422 0040 44EA0702 		orr	r2, r4, r7
 104:../switch_sdk/core/drv/mac/sw_yt921x.c ****     CMM_ERR_UNLOCK(HAL_MEM_DIRECT_WRITE(unit, INT_IF_ACCESS_ADDR_CTRL, base_data), YT_INT_SMI_LOCK_
 423              		.loc 1 104 15 discriminator 2 view .LVU119
 424 0044 0A43     		orrs	r2, r2, r1
 425 0046 42F00402 		orr	r2, r2, #4
 426 004a 0192     		str	r2, [sp, #4]
 105:../switch_sdk/core/drv/mac/sw_yt921x.c ****     CMM_ERR_UNLOCK(HAL_MEM_DIRECT_WRITE(unit, INT_IF_ACCESS_DATA_0_ADDR, data), YT_INT_SMI_LOCK_ID,
 427              		.loc 1 105 5 is_stmt 1 discriminator 2 view .LVU120
 105:../switch_sdk/core/drv/mac/sw_yt921x.c ****     CMM_ERR_UNLOCK(HAL_MEM_DIRECT_WRITE(unit, INT_IF_ACCESS_DATA_0_ADDR, data), YT_INT_SMI_LOCK_ID,
 428              		.loc 1 105 5 discriminator 2 view .LVU121
 429 004c 1C49     		ldr	r1, .L36
 430 004e 2846     		mov	r0, r5
 431              	.LVL41:
 105:../switch_sdk/core/drv/mac/sw_yt921x.c ****     CMM_ERR_UNLOCK(HAL_MEM_DIRECT_WRITE(unit, INT_IF_ACCESS_DATA_0_ADDR, data), YT_INT_SMI_LOCK_ID,
 432              		.loc 1 105 5 is_stmt 0 discriminator 2 view .LVU122
 433 0050 FFF7FEFF 		bl	hal_mem32_write
 434              	.LVL42:
 105:../switch_sdk/core/drv/mac/sw_yt921x.c ****     CMM_ERR_UNLOCK(HAL_MEM_DIRECT_WRITE(unit, INT_IF_ACCESS_DATA_0_ADDR, data), YT_INT_SMI_LOCK_ID,
 435              		.loc 1 105 5 discriminator 2 view .LVU123
 436 0054 10F0FF0F 		tst	r0, #255
 437 0058 01D0     		beq	.L25
 105:../switch_sdk/core/drv/mac/sw_yt921x.c ****     CMM_ERR_UNLOCK(HAL_MEM_DIRECT_WRITE(unit, INT_IF_ACCESS_DATA_0_ADDR, data), YT_INT_SMI_LOCK_ID,
 438              		.loc 1 105 5 is_stmt 1 discriminator 3 view .LVU124
 105:../switch_sdk/core/drv/mac/sw_yt921x.c ****     CMM_ERR_UNLOCK(HAL_MEM_DIRECT_WRITE(unit, INT_IF_ACCESS_DATA_0_ADDR, data), YT_INT_SMI_LOCK_ID,
 439              		.loc 1 105 5 discriminator 3 view .LVU125
 105:../switch_sdk/core/drv/mac/sw_yt921x.c ****     CMM_ERR_UNLOCK(HAL_MEM_DIRECT_WRITE(unit, INT_IF_ACCESS_DATA_0_ADDR, data), YT_INT_SMI_LOCK_ID,
 440              		.loc 1 105 5 discriminator 3 view .LVU126
 441 005a C4B2     		uxtb	r4, r0
 442 005c E3E7     		b	.L22
 443              	.L25:
 105:../switch_sdk/core/drv/mac/sw_yt921x.c ****     CMM_ERR_UNLOCK(HAL_MEM_DIRECT_WRITE(unit, INT_IF_ACCESS_DATA_0_ADDR, data), YT_INT_SMI_LOCK_ID,
 444              		.loc 1 105 5 discriminator 2 view .LVU127
 106:../switch_sdk/core/drv/mac/sw_yt921x.c **** 
 445              		.loc 1 106 5 discriminator 2 view .LVU128
 106:../switch_sdk/core/drv/mac/sw_yt921x.c **** 
 446              		.loc 1 106 5 discriminator 2 view .LVU129
 447 005e 3246     		mov	r2, r6
 448 0060 1949     		ldr	r1, .L36+8
 449 0062 2846     		mov	r0, r5
 450              	.LVL43:
 106:../switch_sdk/core/drv/mac/sw_yt921x.c **** 
 451              		.loc 1 106 5 is_stmt 0 discriminator 2 view .LVU130
 452 0064 FFF7FEFF 		bl	hal_mem32_write
 453              	.LVL44:
 106:../switch_sdk/core/drv/mac/sw_yt921x.c **** 
 454              		.loc 1 106 5 discriminator 2 view .LVU131
 455 0068 10F0FF0F 		tst	r0, #255
 456 006c 01D0     		beq	.L26
 106:../switch_sdk/core/drv/mac/sw_yt921x.c **** 
 457              		.loc 1 106 5 is_stmt 1 discriminator 3 view .LVU132
 106:../switch_sdk/core/drv/mac/sw_yt921x.c **** 
 458              		.loc 1 106 5 discriminator 3 view .LVU133
 106:../switch_sdk/core/drv/mac/sw_yt921x.c **** 
 459              		.loc 1 106 5 discriminator 3 view .LVU134
 460 006e C4B2     		uxtb	r4, r0
 461 0070 D9E7     		b	.L22
 462              	.L26:
 106:../switch_sdk/core/drv/mac/sw_yt921x.c **** 
 463              		.loc 1 106 5 discriminator 2 view .LVU135
 108:../switch_sdk/core/drv/mac/sw_yt921x.c ****     CMM_ERR_UNLOCK(HAL_MEM_DIRECT_WRITE(unit, INT_IF_ACCESS_FRAME_CTRL, op_data), YT_INT_SMI_LOCK_I
 464              		.loc 1 108 5 discriminator 2 view .LVU136
 108:../switch_sdk/core/drv/mac/sw_yt921x.c ****     CMM_ERR_UNLOCK(HAL_MEM_DIRECT_WRITE(unit, INT_IF_ACCESS_FRAME_CTRL, op_data), YT_INT_SMI_LOCK_I
 465              		.loc 1 108 13 is_stmt 0 discriminator 2 view .LVU137
 466 0072 0122     		movs	r2, #1
 467 0074 0092     		str	r2, [sp]
 109:../switch_sdk/core/drv/mac/sw_yt921x.c **** 
 468              		.loc 1 109 5 is_stmt 1 discriminator 2 view .LVU138
 109:../switch_sdk/core/drv/mac/sw_yt921x.c **** 
 469              		.loc 1 109 5 discriminator 2 view .LVU139
 470 0076 4FF47021 		mov	r1, #983040
 471 007a 2846     		mov	r0, r5
 472              	.LVL45:
 109:../switch_sdk/core/drv/mac/sw_yt921x.c **** 
 473              		.loc 1 109 5 is_stmt 0 discriminator 2 view .LVU140
 474 007c FFF7FEFF 		bl	hal_mem32_write
 475              	.LVL46:
 109:../switch_sdk/core/drv/mac/sw_yt921x.c **** 
 476              		.loc 1 109 5 discriminator 2 view .LVU141
 477 0080 10F0FF0F 		tst	r0, #255
 478 0084 01D1     		bne	.L33
  98:../switch_sdk/core/drv/mac/sw_yt921x.c **** 
 479              		.loc 1 98 14 view .LVU142
 480 0086 0026     		movs	r6, #0
 481 0088 04E0     		b	.L27
 482              	.L33:
 109:../switch_sdk/core/drv/mac/sw_yt921x.c **** 
 483              		.loc 1 109 5 is_stmt 1 discriminator 3 view .LVU143
 109:../switch_sdk/core/drv/mac/sw_yt921x.c **** 
 484              		.loc 1 109 5 discriminator 3 view .LVU144
 109:../switch_sdk/core/drv/mac/sw_yt921x.c **** 
 485              		.loc 1 109 5 discriminator 3 view .LVU145
 486 008a C4B2     		uxtb	r4, r0
 487 008c CBE7     		b	.L22
 488              	.LVL47:
 489              	.L35:
 113:../switch_sdk/core/drv/mac/sw_yt921x.c **** 
 490              		.loc 1 113 9 discriminator 3 view .LVU146
 113:../switch_sdk/core/drv/mac/sw_yt921x.c **** 
 491              		.loc 1 113 9 discriminator 3 view .LVU147
 113:../switch_sdk/core/drv/mac/sw_yt921x.c **** 
 492              		.loc 1 113 9 discriminator 3 view .LVU148
 493 008e C4B2     		uxtb	r4, r0
 494 0090 C9E7     		b	.L22
 495              	.L29:
 121:../switch_sdk/core/drv/mac/sw_yt921x.c ****     }
 496              		.loc 1 121 9 view .LVU149
 121:../switch_sdk/core/drv/mac/sw_yt921x.c ****     }
 497              		.loc 1 121 20 is_stmt 0 view .LVU150
 498 0092 0136     		adds	r6, r6, #1
 499              	.LVL48:
 500              	.L27:
 111:../switch_sdk/core/drv/mac/sw_yt921x.c ****     {
 501              		.loc 1 111 33 is_stmt 1 view .LVU151
 502 0094 092E     		cmp	r6, #9
 503 0096 0ED8     		bhi	.L34
 113:../switch_sdk/core/drv/mac/sw_yt921x.c **** 
 504              		.loc 1 113 9 view .LVU152
 113:../switch_sdk/core/drv/mac/sw_yt921x.c **** 
 505              		.loc 1 113 9 view .LVU153
 506 0098 6A46     		mov	r2, sp
 507 009a 4FF47021 		mov	r1, #983040
 508 009e 2846     		mov	r0, r5
 509              	.LVL49:
 113:../switch_sdk/core/drv/mac/sw_yt921x.c **** 
 510              		.loc 1 113 9 is_stmt 0 view .LVU154
 511 00a0 FFF7FEFF 		bl	hal_mem32_read
 512              	.LVL50:
 113:../switch_sdk/core/drv/mac/sw_yt921x.c **** 
 513              		.loc 1 113 9 view .LVU155
 514 00a4 10F0FF0F 		tst	r0, #255
 515 00a8 F1D1     		bne	.L35
 113:../switch_sdk/core/drv/mac/sw_yt921x.c **** 
 516              		.loc 1 113 9 is_stmt 1 discriminator 2 view .LVU156
 115:../switch_sdk/core/drv/mac/sw_yt921x.c ****         {
 517              		.loc 1 115 9 discriminator 2 view .LVU157
 115:../switch_sdk/core/drv/mac/sw_yt921x.c ****         {
 518              		.loc 1 115 12 is_stmt 0 discriminator 2 view .LVU158
 519 00aa 009C     		ldr	r4, [sp]
 115:../switch_sdk/core/drv/mac/sw_yt921x.c ****         {
 520              		.loc 1 115 11 discriminator 2 view .LVU159
 521 00ac 002C     		cmp	r4, #0
 522 00ae F0D1     		bne	.L29
 523              	.LBB3:
 117:../switch_sdk/core/drv/mac/sw_yt921x.c ****             return CMM_ERR_OK;
 524              		.loc 1 117 13 is_stmt 1 view .LVU160
 525 00b0 FFF7FEFF 		bl	INT_SMI_UNLOCK
 526              	.LVL51:
 118:../switch_sdk/core/drv/mac/sw_yt921x.c ****         }
 527              		.loc 1 118 13 view .LVU161
 118:../switch_sdk/core/drv/mac/sw_yt921x.c ****         }
 528              		.loc 1 118 20 is_stmt 0 view .LVU162
 529 00b4 B7E7     		b	.L22
 530              	.LVL52:
 531              	.L34:
 118:../switch_sdk/core/drv/mac/sw_yt921x.c ****         }
 532              		.loc 1 118 20 view .LVU163
 533              	.LBE3:
 124:../switch_sdk/core/drv/mac/sw_yt921x.c ****     return CMM_ERR_BUSYING_TIME;
 534              		.loc 1 124 5 is_stmt 1 view .LVU164
 535 00b6 FFF7FEFF 		bl	INT_SMI_UNLOCK
 536              	.LVL53:
 125:../switch_sdk/core/drv/mac/sw_yt921x.c **** }
 537              		.loc 1 125 5 view .LVU165
 125:../switch_sdk/core/drv/mac/sw_yt921x.c **** }
 538              		.loc 1 125 12 is_stmt 0 view .LVU166
 539 00ba 1024     		movs	r4, #16
 540 00bc B3E7     		b	.L22
 541              	.L37:
 542 00be 00BF     		.align	2
 543              	.L36:
 544 00c0 04000F00 		.word	983044
 545 00c4 F1FF00FC 		.word	-67043343
 546 00c8 08000F00 		.word	983048
 547              		.cfi_endproc
 548              	.LFE7:
 550              		.section	.text.yt9215_extif_read,"ax",%progbits
 551              		.align	1
 552              		.global	yt9215_extif_read
 553              		.syntax unified
 554              		.thumb
 555              		.thumb_func
 557              	yt9215_extif_read:
 558              	.LVL54:
 559              	.LFB8:
 129:../switch_sdk/core/drv/mac/sw_yt921x.c ****     cmm_err_t ret = CMM_ERR_OK;
 560              		.loc 1 129 1 is_stmt 1 view -0
 561              		.cfi_startproc
 562              		@ args = 0, pretend = 0, frame = 8
 563              		@ frame_needed = 0, uses_anonymous_args = 0
 129:../switch_sdk/core/drv/mac/sw_yt921x.c ****     cmm_err_t ret = CMM_ERR_OK;
 564              		.loc 1 129 1 is_stmt 0 view .LVU168
 565 0000 F0B5     		push	{r4, r5, r6, r7, lr}
 566              		.cfi_def_cfa_offset 20
 567              		.cfi_offset 4, -20
 568              		.cfi_offset 5, -16
 569              		.cfi_offset 6, -12
 570              		.cfi_offset 7, -8
 571              		.cfi_offset 14, -4
 572 0002 83B0     		sub	sp, sp, #12
 573              		.cfi_def_cfa_offset 32
 574 0004 0546     		mov	r5, r0
 575 0006 0C46     		mov	r4, r1
 576 0008 1746     		mov	r7, r2
 577 000a 1E46     		mov	r6, r3
 130:../switch_sdk/core/drv/mac/sw_yt921x.c ****     uint32_t base_data;
 578              		.loc 1 130 5 is_stmt 1 view .LVU169
 579              	.LVL55:
 131:../switch_sdk/core/drv/mac/sw_yt921x.c ****     uint32_t op_data = 0;
 580              		.loc 1 131 5 view .LVU170
 132:../switch_sdk/core/drv/mac/sw_yt921x.c ****     uint32_t wait_count = 0;
 581              		.loc 1 132 5 view .LVU171
 132:../switch_sdk/core/drv/mac/sw_yt921x.c ****     uint32_t wait_count = 0;
 582              		.loc 1 132 14 is_stmt 0 view .LVU172
 583 000c 0023     		movs	r3, #0
 584              	.LVL56:
 132:../switch_sdk/core/drv/mac/sw_yt921x.c ****     uint32_t wait_count = 0;
 585              		.loc 1 132 14 view .LVU173
 586 000e 0093     		str	r3, [sp]
 133:../switch_sdk/core/drv/mac/sw_yt921x.c **** 
 587              		.loc 1 133 5 is_stmt 1 view .LVU174
 588              	.LVL57:
 135:../switch_sdk/core/drv/mac/sw_yt921x.c **** 
 589              		.loc 1 135 5 view .LVU175
 590 0010 FFF7FEFF 		bl	EXT_SMI_LOCK
 591              	.LVL58:
 137:../switch_sdk/core/drv/mac/sw_yt921x.c ****     base_data &= 0xFC00F0F1;/*clause 22*/
 592              		.loc 1 137 5 view .LVU176
 137:../switch_sdk/core/drv/mac/sw_yt921x.c ****     base_data &= 0xFC00F0F1;/*clause 22*/
 593              		.loc 1 137 5 view .LVU177
 594 0014 01AA     		add	r2, sp, #4
 595 0016 2A49     		ldr	r1, .L53
 596 0018 2846     		mov	r0, r5
 597 001a FFF7FEFF 		bl	hal_mem32_read
 598              	.LVL59:
 137:../switch_sdk/core/drv/mac/sw_yt921x.c ****     base_data &= 0xFC00F0F1;/*clause 22*/
 599              		.loc 1 137 5 is_stmt 0 view .LVU178
 600 001e 10F0FF0F 		tst	r0, #255
 601 0022 03D0     		beq	.L39
 137:../switch_sdk/core/drv/mac/sw_yt921x.c ****     base_data &= 0xFC00F0F1;/*clause 22*/
 602              		.loc 1 137 5 is_stmt 1 discriminator 3 view .LVU179
 137:../switch_sdk/core/drv/mac/sw_yt921x.c ****     base_data &= 0xFC00F0F1;/*clause 22*/
 603              		.loc 1 137 5 discriminator 3 view .LVU180
 137:../switch_sdk/core/drv/mac/sw_yt921x.c ****     base_data &= 0xFC00F0F1;/*clause 22*/
 604              		.loc 1 137 5 discriminator 3 view .LVU181
 605 0024 C4B2     		uxtb	r4, r0
 606              	.LVL60:
 607              	.L38:
 161:../switch_sdk/core/drv/mac/sw_yt921x.c **** 
 608              		.loc 1 161 1 is_stmt 0 view .LVU182
 609 0026 2046     		mov	r0, r4
 610 0028 03B0     		add	sp, sp, #12
 611              		.cfi_remember_state
 612              		.cfi_def_cfa_offset 20
 613              		@ sp needed
 614 002a F0BD     		pop	{r4, r5, r6, r7, pc}
 615              	.LVL61:
 616              	.L39:
 617              		.cfi_restore_state
 137:../switch_sdk/core/drv/mac/sw_yt921x.c ****     base_data &= 0xFC00F0F1;/*clause 22*/
 618              		.loc 1 137 5 is_stmt 1 discriminator 2 view .LVU183
 138:../switch_sdk/core/drv/mac/sw_yt921x.c ****     base_data |= ((extif_addr&0x1f) << 21 | (regAddr&0x1f) << 16 | 4<<8 | 2 << 2);
 619              		.loc 1 138 5 discriminator 2 view .LVU184
 138:../switch_sdk/core/drv/mac/sw_yt921x.c ****     base_data |= ((extif_addr&0x1f) << 21 | (regAddr&0x1f) << 16 | 4<<8 | 2 << 2);
 620              		.loc 1 138 15 is_stmt 0 discriminator 2 view .LVU185
 621 002c 254B     		ldr	r3, .L53+4
 622 002e 019A     		ldr	r2, [sp, #4]
 623 0030 1340     		ands	r3, r3, r2
 624 0032 0193     		str	r3, [sp, #4]
 139:../switch_sdk/core/drv/mac/sw_yt921x.c ****     CMM_ERR_UNLOCK(HAL_MEM_DIRECT_WRITE(unit, EXT_IF_ACCESS_ADDR_CTRL, base_data), YT_EXT_SMI_LOCK_
 625              		.loc 1 139 5 is_stmt 1 discriminator 2 view .LVU186
 139:../switch_sdk/core/drv/mac/sw_yt921x.c ****     CMM_ERR_UNLOCK(HAL_MEM_DIRECT_WRITE(unit, EXT_IF_ACCESS_ADDR_CTRL, base_data), YT_EXT_SMI_LOCK_
 626              		.loc 1 139 37 is_stmt 0 discriminator 2 view .LVU187
 627 0034 6405     		lsls	r4, r4, #21
 628 0036 04F07874 		and	r4, r4, #65011712
 139:../switch_sdk/core/drv/mac/sw_yt921x.c ****     CMM_ERR_UNLOCK(HAL_MEM_DIRECT_WRITE(unit, EXT_IF_ACCESS_ADDR_CTRL, base_data), YT_EXT_SMI_LOCK_
 629              		.loc 1 139 60 discriminator 2 view .LVU188
 630 003a 3F04     		lsls	r7, r7, #16
 631              	.LVL62:
 139:../switch_sdk/core/drv/mac/sw_yt921x.c ****     CMM_ERR_UNLOCK(HAL_MEM_DIRECT_WRITE(unit, EXT_IF_ACCESS_ADDR_CTRL, base_data), YT_EXT_SMI_LOCK_
 632              		.loc 1 139 60 discriminator 2 view .LVU189
 633 003c 07F4F817 		and	r7, r7, #2031616
 139:../switch_sdk/core/drv/mac/sw_yt921x.c ****     CMM_ERR_UNLOCK(HAL_MEM_DIRECT_WRITE(unit, EXT_IF_ACCESS_ADDR_CTRL, base_data), YT_EXT_SMI_LOCK_
 634              		.loc 1 139 43 discriminator 2 view .LVU190
 635 0040 44EA0702 		orr	r2, r4, r7
 139:../switch_sdk/core/drv/mac/sw_yt921x.c ****     CMM_ERR_UNLOCK(HAL_MEM_DIRECT_WRITE(unit, EXT_IF_ACCESS_ADDR_CTRL, base_data), YT_EXT_SMI_LOCK_
 636              		.loc 1 139 15 discriminator 2 view .LVU191
 637 0044 1A43     		orrs	r2, r2, r3
 638 0046 42F48162 		orr	r2, r2, #1032
 639 004a 0192     		str	r2, [sp, #4]
 140:../switch_sdk/core/drv/mac/sw_yt921x.c **** 
 640              		.loc 1 140 5 is_stmt 1 discriminator 2 view .LVU192
 140:../switch_sdk/core/drv/mac/sw_yt921x.c **** 
 641              		.loc 1 140 5 discriminator 2 view .LVU193
 642 004c 1C49     		ldr	r1, .L53
 643 004e 2846     		mov	r0, r5
 644              	.LVL63:
 140:../switch_sdk/core/drv/mac/sw_yt921x.c **** 
 645              		.loc 1 140 5 is_stmt 0 discriminator 2 view .LVU194
 646 0050 FFF7FEFF 		bl	hal_mem32_write
 647              	.LVL64:
 140:../switch_sdk/core/drv/mac/sw_yt921x.c **** 
 648              		.loc 1 140 5 discriminator 2 view .LVU195
 649 0054 10F0FF0F 		tst	r0, #255
 650 0058 01D0     		beq	.L41
 140:../switch_sdk/core/drv/mac/sw_yt921x.c **** 
 651              		.loc 1 140 5 is_stmt 1 discriminator 3 view .LVU196
 140:../switch_sdk/core/drv/mac/sw_yt921x.c **** 
 652              		.loc 1 140 5 discriminator 3 view .LVU197
 140:../switch_sdk/core/drv/mac/sw_yt921x.c **** 
 653              		.loc 1 140 5 discriminator 3 view .LVU198
 654 005a C4B2     		uxtb	r4, r0
 655 005c E3E7     		b	.L38
 656              	.L41:
 140:../switch_sdk/core/drv/mac/sw_yt921x.c **** 
 657              		.loc 1 140 5 discriminator 2 view .LVU199
 142:../switch_sdk/core/drv/mac/sw_yt921x.c ****     CMM_ERR_UNLOCK(HAL_MEM_DIRECT_WRITE(unit, EXT_IF_ACCESS_FRAME_CTRL, op_data), YT_EXT_SMI_LOCK_I
 658              		.loc 1 142 5 discriminator 2 view .LVU200
 142:../switch_sdk/core/drv/mac/sw_yt921x.c ****     CMM_ERR_UNLOCK(HAL_MEM_DIRECT_WRITE(unit, EXT_IF_ACCESS_FRAME_CTRL, op_data), YT_EXT_SMI_LOCK_I
 659              		.loc 1 142 13 is_stmt 0 discriminator 2 view .LVU201
 660 005e 0122     		movs	r2, #1
 661 0060 0092     		str	r2, [sp]
 143:../switch_sdk/core/drv/mac/sw_yt921x.c **** 
 662              		.loc 1 143 5 is_stmt 1 discriminator 2 view .LVU202
 143:../switch_sdk/core/drv/mac/sw_yt921x.c **** 
 663              		.loc 1 143 5 discriminator 2 view .LVU203
 664 0062 4FF4D421 		mov	r1, #434176
 665 0066 2846     		mov	r0, r5
 666              	.LVL65:
 143:../switch_sdk/core/drv/mac/sw_yt921x.c **** 
 667              		.loc 1 143 5 is_stmt 0 discriminator 2 view .LVU204
 668 0068 FFF7FEFF 		bl	hal_mem32_write
 669              	.LVL66:
 143:../switch_sdk/core/drv/mac/sw_yt921x.c **** 
 670              		.loc 1 143 5 discriminator 2 view .LVU205
 671 006c 10F0FF0F 		tst	r0, #255
 672 0070 0FD1     		bne	.L49
 133:../switch_sdk/core/drv/mac/sw_yt921x.c **** 
 673              		.loc 1 133 14 view .LVU206
 674 0072 0027     		movs	r7, #0
 675              	.LVL67:
 676              	.L42:
 145:../switch_sdk/core/drv/mac/sw_yt921x.c ****     {
 677              		.loc 1 145 33 is_stmt 1 view .LVU207
 678 0074 092F     		cmp	r7, #9
 679 0076 1FD8     		bhi	.L50
 147:../switch_sdk/core/drv/mac/sw_yt921x.c **** 
 680              		.loc 1 147 9 view .LVU208
 147:../switch_sdk/core/drv/mac/sw_yt921x.c **** 
 681              		.loc 1 147 9 view .LVU209
 682 0078 6A46     		mov	r2, sp
 683 007a 4FF4D421 		mov	r1, #434176
 684 007e 2846     		mov	r0, r5
 685              	.LVL68:
 147:../switch_sdk/core/drv/mac/sw_yt921x.c **** 
 686              		.loc 1 147 9 is_stmt 0 view .LVU210
 687 0080 FFF7FEFF 		bl	hal_mem32_read
 688              	.LVL69:
 147:../switch_sdk/core/drv/mac/sw_yt921x.c **** 
 689              		.loc 1 147 9 view .LVU211
 690 0084 10F0FF0F 		tst	r0, #255
 691 0088 05D1     		bne	.L51
 147:../switch_sdk/core/drv/mac/sw_yt921x.c **** 
 692              		.loc 1 147 9 is_stmt 1 discriminator 2 view .LVU212
 149:../switch_sdk/core/drv/mac/sw_yt921x.c ****         {
 693              		.loc 1 149 9 discriminator 2 view .LVU213
 149:../switch_sdk/core/drv/mac/sw_yt921x.c ****         {
 694              		.loc 1 149 12 is_stmt 0 discriminator 2 view .LVU214
 695 008a 009C     		ldr	r4, [sp]
 149:../switch_sdk/core/drv/mac/sw_yt921x.c ****         {
 696              		.loc 1 149 11 discriminator 2 view .LVU215
 697 008c 2CB1     		cbz	r4, .L52
 156:../switch_sdk/core/drv/mac/sw_yt921x.c ****     }
 698              		.loc 1 156 9 is_stmt 1 view .LVU216
 156:../switch_sdk/core/drv/mac/sw_yt921x.c ****     }
 699              		.loc 1 156 20 is_stmt 0 view .LVU217
 700 008e 0137     		adds	r7, r7, #1
 701              	.LVL70:
 156:../switch_sdk/core/drv/mac/sw_yt921x.c ****     }
 702              		.loc 1 156 20 view .LVU218
 703 0090 F0E7     		b	.L42
 704              	.LVL71:
 705              	.L49:
 143:../switch_sdk/core/drv/mac/sw_yt921x.c **** 
 706              		.loc 1 143 5 is_stmt 1 discriminator 3 view .LVU219
 143:../switch_sdk/core/drv/mac/sw_yt921x.c **** 
 707              		.loc 1 143 5 discriminator 3 view .LVU220
 143:../switch_sdk/core/drv/mac/sw_yt921x.c **** 
 708              		.loc 1 143 5 discriminator 3 view .LVU221
 709 0092 C4B2     		uxtb	r4, r0
 710 0094 C7E7     		b	.L38
 711              	.LVL72:
 712              	.L51:
 147:../switch_sdk/core/drv/mac/sw_yt921x.c **** 
 713              		.loc 1 147 9 discriminator 3 view .LVU222
 147:../switch_sdk/core/drv/mac/sw_yt921x.c **** 
 714              		.loc 1 147 9 discriminator 3 view .LVU223
 147:../switch_sdk/core/drv/mac/sw_yt921x.c **** 
 715              		.loc 1 147 9 discriminator 3 view .LVU224
 716 0096 C4B2     		uxtb	r4, r0
 717 0098 C5E7     		b	.L38
 718              	.L52:
 719              	.LBB4:
 151:../switch_sdk/core/drv/mac/sw_yt921x.c ****             *pData = base_data;
 720              		.loc 1 151 13 view .LVU225
 151:../switch_sdk/core/drv/mac/sw_yt921x.c ****             *pData = base_data;
 721              		.loc 1 151 13 view .LVU226
 722 009a 01AA     		add	r2, sp, #4
 723 009c 0A49     		ldr	r1, .L53+8
 724 009e 2846     		mov	r0, r5
 725              	.LVL73:
 151:../switch_sdk/core/drv/mac/sw_yt921x.c ****             *pData = base_data;
 726              		.loc 1 151 13 is_stmt 0 view .LVU227
 727 00a0 FFF7FEFF 		bl	hal_mem32_read
 728              	.LVL74:
 151:../switch_sdk/core/drv/mac/sw_yt921x.c ****             *pData = base_data;
 729              		.loc 1 151 13 view .LVU228
 730 00a4 10F0FF0F 		tst	r0, #255
 731 00a8 01D0     		beq	.L45
 151:../switch_sdk/core/drv/mac/sw_yt921x.c ****             *pData = base_data;
 732              		.loc 1 151 13 is_stmt 1 discriminator 3 view .LVU229
 151:../switch_sdk/core/drv/mac/sw_yt921x.c ****             *pData = base_data;
 733              		.loc 1 151 13 discriminator 3 view .LVU230
 151:../switch_sdk/core/drv/mac/sw_yt921x.c ****             *pData = base_data;
 734              		.loc 1 151 13 discriminator 3 view .LVU231
 735 00aa C4B2     		uxtb	r4, r0
 736 00ac BBE7     		b	.L38
 737              	.L45:
 151:../switch_sdk/core/drv/mac/sw_yt921x.c ****             *pData = base_data;
 738              		.loc 1 151 13 discriminator 2 view .LVU232
 152:../switch_sdk/core/drv/mac/sw_yt921x.c ****             EXT_SMI_UNLOCK();
 739              		.loc 1 152 13 discriminator 2 view .LVU233
 152:../switch_sdk/core/drv/mac/sw_yt921x.c ****             EXT_SMI_UNLOCK();
 740              		.loc 1 152 20 is_stmt 0 discriminator 2 view .LVU234
 741 00ae 019B     		ldr	r3, [sp, #4]
 742 00b0 3380     		strh	r3, [r6]	@ movhi
 153:../switch_sdk/core/drv/mac/sw_yt921x.c ****             return CMM_ERR_OK;
 743              		.loc 1 153 13 is_stmt 1 discriminator 2 view .LVU235
 744 00b2 FFF7FEFF 		bl	EXT_SMI_UNLOCK
 745              	.LVL75:
 154:../switch_sdk/core/drv/mac/sw_yt921x.c ****         }
 746              		.loc 1 154 13 discriminator 2 view .LVU236
 154:../switch_sdk/core/drv/mac/sw_yt921x.c ****         }
 747              		.loc 1 154 20 is_stmt 0 discriminator 2 view .LVU237
 748 00b6 B6E7     		b	.L38
 749              	.LVL76:
 750              	.L50:
 154:../switch_sdk/core/drv/mac/sw_yt921x.c ****         }
 751              		.loc 1 154 20 discriminator 2 view .LVU238
 752              	.LBE4:
 159:../switch_sdk/core/drv/mac/sw_yt921x.c ****     return CMM_ERR_BUSYING_TIME;
 753              		.loc 1 159 5 is_stmt 1 view .LVU239
 754 00b8 FFF7FEFF 		bl	EXT_SMI_UNLOCK
 755              	.LVL77:
 160:../switch_sdk/core/drv/mac/sw_yt921x.c **** }
 756              		.loc 1 160 5 view .LVU240
 160:../switch_sdk/core/drv/mac/sw_yt921x.c **** }
 757              		.loc 1 160 12 is_stmt 0 view .LVU241
 758 00bc 1024     		movs	r4, #16
 759 00be B2E7     		b	.L38
 760              	.L54:
 761              		.align	2
 762              	.L53:
 763 00c0 04A00600 		.word	434180
 764 00c4 F1F000FC 		.word	-67047183
 765 00c8 0CA00600 		.word	434188
 766              		.cfi_endproc
 767              	.LFE8:
 769              		.section	.text.yt9215_extif_write,"ax",%progbits
 770              		.align	1
 771              		.global	yt9215_extif_write
 772              		.syntax unified
 773              		.thumb
 774              		.thumb_func
 776              	yt9215_extif_write:
 777              	.LVL78:
 778              	.LFB9:
 164:../switch_sdk/core/drv/mac/sw_yt921x.c ****     cmm_err_t ret = CMM_ERR_OK;
 779              		.loc 1 164 1 is_stmt 1 view -0
 780              		.cfi_startproc
 781              		@ args = 0, pretend = 0, frame = 8
 782              		@ frame_needed = 0, uses_anonymous_args = 0
 164:../switch_sdk/core/drv/mac/sw_yt921x.c ****     cmm_err_t ret = CMM_ERR_OK;
 783              		.loc 1 164 1 is_stmt 0 view .LVU243
 784 0000 F0B5     		push	{r4, r5, r6, r7, lr}
 785              		.cfi_def_cfa_offset 20
 786              		.cfi_offset 4, -20
 787              		.cfi_offset 5, -16
 788              		.cfi_offset 6, -12
 789              		.cfi_offset 7, -8
 790              		.cfi_offset 14, -4
 791 0002 83B0     		sub	sp, sp, #12
 792              		.cfi_def_cfa_offset 32
 793 0004 0546     		mov	r5, r0
 794 0006 0C46     		mov	r4, r1
 795 0008 1746     		mov	r7, r2
 796 000a 1E46     		mov	r6, r3
 165:../switch_sdk/core/drv/mac/sw_yt921x.c ****     uint32_t base_data;
 797              		.loc 1 165 5 is_stmt 1 view .LVU244
 798              	.LVL79:
 166:../switch_sdk/core/drv/mac/sw_yt921x.c ****     uint32_t op_data = 0;
 799              		.loc 1 166 5 view .LVU245
 167:../switch_sdk/core/drv/mac/sw_yt921x.c ****     uint32_t wait_count = 0;
 800              		.loc 1 167 5 view .LVU246
 167:../switch_sdk/core/drv/mac/sw_yt921x.c ****     uint32_t wait_count = 0;
 801              		.loc 1 167 14 is_stmt 0 view .LVU247
 802 000c 0023     		movs	r3, #0
 803              	.LVL80:
 167:../switch_sdk/core/drv/mac/sw_yt921x.c ****     uint32_t wait_count = 0;
 804              		.loc 1 167 14 view .LVU248
 805 000e 0093     		str	r3, [sp]
 168:../switch_sdk/core/drv/mac/sw_yt921x.c **** 
 806              		.loc 1 168 5 is_stmt 1 view .LVU249
 807              	.LVL81:
 170:../switch_sdk/core/drv/mac/sw_yt921x.c **** 
 808              		.loc 1 170 5 view .LVU250
 809 0010 FFF7FEFF 		bl	EXT_SMI_LOCK
 810              	.LVL82:
 172:../switch_sdk/core/drv/mac/sw_yt921x.c ****     base_data &= 0xFC00F0F1;/*clause 22*/
 811              		.loc 1 172 5 view .LVU251
 172:../switch_sdk/core/drv/mac/sw_yt921x.c ****     base_data &= 0xFC00F0F1;/*clause 22*/
 812              		.loc 1 172 5 view .LVU252
 813 0014 01AA     		add	r2, sp, #4
 814 0016 2B49     		ldr	r1, .L69
 815 0018 2846     		mov	r0, r5
 816 001a FFF7FEFF 		bl	hal_mem32_read
 817              	.LVL83:
 172:../switch_sdk/core/drv/mac/sw_yt921x.c ****     base_data &= 0xFC00F0F1;/*clause 22*/
 818              		.loc 1 172 5 is_stmt 0 view .LVU253
 819 001e 10F0FF0F 		tst	r0, #255
 820 0022 03D0     		beq	.L56
 172:../switch_sdk/core/drv/mac/sw_yt921x.c ****     base_data &= 0xFC00F0F1;/*clause 22*/
 821              		.loc 1 172 5 is_stmt 1 discriminator 3 view .LVU254
 172:../switch_sdk/core/drv/mac/sw_yt921x.c ****     base_data &= 0xFC00F0F1;/*clause 22*/
 822              		.loc 1 172 5 discriminator 3 view .LVU255
 172:../switch_sdk/core/drv/mac/sw_yt921x.c ****     base_data &= 0xFC00F0F1;/*clause 22*/
 823              		.loc 1 172 5 discriminator 3 view .LVU256
 824 0024 C4B2     		uxtb	r4, r0
 825              	.LVL84:
 826              	.L55:
 196:../switch_sdk/core/drv/mac/sw_yt921x.c **** 
 827              		.loc 1 196 1 is_stmt 0 view .LVU257
 828 0026 2046     		mov	r0, r4
 829 0028 03B0     		add	sp, sp, #12
 830              		.cfi_remember_state
 831              		.cfi_def_cfa_offset 20
 832              		@ sp needed
 833 002a F0BD     		pop	{r4, r5, r6, r7, pc}
 834              	.LVL85:
 835              	.L56:
 836              		.cfi_restore_state
 172:../switch_sdk/core/drv/mac/sw_yt921x.c ****     base_data &= 0xFC00F0F1;/*clause 22*/
 837              		.loc 1 172 5 is_stmt 1 discriminator 2 view .LVU258
 173:../switch_sdk/core/drv/mac/sw_yt921x.c ****     base_data |= ((extif_addr&0x1f) << 21 | (regAddr&0x1f) << 16 | 4<<8 | 1 << 2);
 838              		.loc 1 173 5 discriminator 2 view .LVU259
 173:../switch_sdk/core/drv/mac/sw_yt921x.c ****     base_data |= ((extif_addr&0x1f) << 21 | (regAddr&0x1f) << 16 | 4<<8 | 1 << 2);
 839              		.loc 1 173 15 is_stmt 0 discriminator 2 view .LVU260
 840 002c 264B     		ldr	r3, .L69+4
 841 002e 019A     		ldr	r2, [sp, #4]
 842 0030 1340     		ands	r3, r3, r2
 843 0032 0193     		str	r3, [sp, #4]
 174:../switch_sdk/core/drv/mac/sw_yt921x.c ****     CMM_ERR_UNLOCK(HAL_MEM_DIRECT_WRITE(unit, EXT_IF_ACCESS_ADDR_CTRL, base_data), YT_EXT_SMI_LOCK_
 844              		.loc 1 174 5 is_stmt 1 discriminator 2 view .LVU261
 174:../switch_sdk/core/drv/mac/sw_yt921x.c ****     CMM_ERR_UNLOCK(HAL_MEM_DIRECT_WRITE(unit, EXT_IF_ACCESS_ADDR_CTRL, base_data), YT_EXT_SMI_LOCK_
 845              		.loc 1 174 37 is_stmt 0 discriminator 2 view .LVU262
 846 0034 6405     		lsls	r4, r4, #21
 847 0036 04F07874 		and	r4, r4, #65011712
 174:../switch_sdk/core/drv/mac/sw_yt921x.c ****     CMM_ERR_UNLOCK(HAL_MEM_DIRECT_WRITE(unit, EXT_IF_ACCESS_ADDR_CTRL, base_data), YT_EXT_SMI_LOCK_
 848              		.loc 1 174 60 discriminator 2 view .LVU263
 849 003a 3F04     		lsls	r7, r7, #16
 850              	.LVL86:
 174:../switch_sdk/core/drv/mac/sw_yt921x.c ****     CMM_ERR_UNLOCK(HAL_MEM_DIRECT_WRITE(unit, EXT_IF_ACCESS_ADDR_CTRL, base_data), YT_EXT_SMI_LOCK_
 851              		.loc 1 174 60 discriminator 2 view .LVU264
 852 003c 07F4F817 		and	r7, r7, #2031616
 174:../switch_sdk/core/drv/mac/sw_yt921x.c ****     CMM_ERR_UNLOCK(HAL_MEM_DIRECT_WRITE(unit, EXT_IF_ACCESS_ADDR_CTRL, base_data), YT_EXT_SMI_LOCK_
 853              		.loc 1 174 43 discriminator 2 view .LVU265
 854 0040 44EA0702 		orr	r2, r4, r7
 174:../switch_sdk/core/drv/mac/sw_yt921x.c ****     CMM_ERR_UNLOCK(HAL_MEM_DIRECT_WRITE(unit, EXT_IF_ACCESS_ADDR_CTRL, base_data), YT_EXT_SMI_LOCK_
 855              		.loc 1 174 15 discriminator 2 view .LVU266
 856 0044 1A43     		orrs	r2, r2, r3
 857 0046 42F48062 		orr	r2, r2, #1024
 858 004a 42F00402 		orr	r2, r2, #4
 859 004e 0192     		str	r2, [sp, #4]
 175:../switch_sdk/core/drv/mac/sw_yt921x.c ****     CMM_ERR_UNLOCK(HAL_MEM_DIRECT_WRITE(unit, EXT_IF_ACCESS_DATA_0_ADDR, data), YT_EXT_SMI_LOCK_ID,
 860              		.loc 1 175 5 is_stmt 1 discriminator 2 view .LVU267
 175:../switch_sdk/core/drv/mac/sw_yt921x.c ****     CMM_ERR_UNLOCK(HAL_MEM_DIRECT_WRITE(unit, EXT_IF_ACCESS_DATA_0_ADDR, data), YT_EXT_SMI_LOCK_ID,
 861              		.loc 1 175 5 discriminator 2 view .LVU268
 862 0050 1C49     		ldr	r1, .L69
 863 0052 2846     		mov	r0, r5
 864              	.LVL87:
 175:../switch_sdk/core/drv/mac/sw_yt921x.c ****     CMM_ERR_UNLOCK(HAL_MEM_DIRECT_WRITE(unit, EXT_IF_ACCESS_DATA_0_ADDR, data), YT_EXT_SMI_LOCK_ID,
 865              		.loc 1 175 5 is_stmt 0 discriminator 2 view .LVU269
 866 0054 FFF7FEFF 		bl	hal_mem32_write
 867              	.LVL88:
 175:../switch_sdk/core/drv/mac/sw_yt921x.c ****     CMM_ERR_UNLOCK(HAL_MEM_DIRECT_WRITE(unit, EXT_IF_ACCESS_DATA_0_ADDR, data), YT_EXT_SMI_LOCK_ID,
 868              		.loc 1 175 5 discriminator 2 view .LVU270
 869 0058 10F0FF0F 		tst	r0, #255
 870 005c 01D0     		beq	.L58
 175:../switch_sdk/core/drv/mac/sw_yt921x.c ****     CMM_ERR_UNLOCK(HAL_MEM_DIRECT_WRITE(unit, EXT_IF_ACCESS_DATA_0_ADDR, data), YT_EXT_SMI_LOCK_ID,
 871              		.loc 1 175 5 is_stmt 1 discriminator 3 view .LVU271
 175:../switch_sdk/core/drv/mac/sw_yt921x.c ****     CMM_ERR_UNLOCK(HAL_MEM_DIRECT_WRITE(unit, EXT_IF_ACCESS_DATA_0_ADDR, data), YT_EXT_SMI_LOCK_ID,
 872              		.loc 1 175 5 discriminator 3 view .LVU272
 175:../switch_sdk/core/drv/mac/sw_yt921x.c ****     CMM_ERR_UNLOCK(HAL_MEM_DIRECT_WRITE(unit, EXT_IF_ACCESS_DATA_0_ADDR, data), YT_EXT_SMI_LOCK_ID,
 873              		.loc 1 175 5 discriminator 3 view .LVU273
 874 005e C4B2     		uxtb	r4, r0
 875 0060 E1E7     		b	.L55
 876              	.L58:
 175:../switch_sdk/core/drv/mac/sw_yt921x.c ****     CMM_ERR_UNLOCK(HAL_MEM_DIRECT_WRITE(unit, EXT_IF_ACCESS_DATA_0_ADDR, data), YT_EXT_SMI_LOCK_ID,
 877              		.loc 1 175 5 discriminator 2 view .LVU274
 176:../switch_sdk/core/drv/mac/sw_yt921x.c **** 
 878              		.loc 1 176 5 discriminator 2 view .LVU275
 176:../switch_sdk/core/drv/mac/sw_yt921x.c **** 
 879              		.loc 1 176 5 discriminator 2 view .LVU276
 880 0062 3246     		mov	r2, r6
 881 0064 1949     		ldr	r1, .L69+8
 882 0066 2846     		mov	r0, r5
 883              	.LVL89:
 176:../switch_sdk/core/drv/mac/sw_yt921x.c **** 
 884              		.loc 1 176 5 is_stmt 0 discriminator 2 view .LVU277
 885 0068 FFF7FEFF 		bl	hal_mem32_write
 886              	.LVL90:
 176:../switch_sdk/core/drv/mac/sw_yt921x.c **** 
 887              		.loc 1 176 5 discriminator 2 view .LVU278
 888 006c 10F0FF0F 		tst	r0, #255
 889 0070 01D0     		beq	.L59
 176:../switch_sdk/core/drv/mac/sw_yt921x.c **** 
 890              		.loc 1 176 5 is_stmt 1 discriminator 3 view .LVU279
 176:../switch_sdk/core/drv/mac/sw_yt921x.c **** 
 891              		.loc 1 176 5 discriminator 3 view .LVU280
 176:../switch_sdk/core/drv/mac/sw_yt921x.c **** 
 892              		.loc 1 176 5 discriminator 3 view .LVU281
 893 0072 C4B2     		uxtb	r4, r0
 894 0074 D7E7     		b	.L55
 895              	.L59:
 176:../switch_sdk/core/drv/mac/sw_yt921x.c **** 
 896              		.loc 1 176 5 discriminator 2 view .LVU282
 178:../switch_sdk/core/drv/mac/sw_yt921x.c ****     CMM_ERR_UNLOCK(HAL_MEM_DIRECT_WRITE(unit, EXT_IF_ACCESS_FRAME_CTRL, op_data), YT_EXT_SMI_LOCK_I
 897              		.loc 1 178 5 discriminator 2 view .LVU283
 178:../switch_sdk/core/drv/mac/sw_yt921x.c ****     CMM_ERR_UNLOCK(HAL_MEM_DIRECT_WRITE(unit, EXT_IF_ACCESS_FRAME_CTRL, op_data), YT_EXT_SMI_LOCK_I
 898              		.loc 1 178 13 is_stmt 0 discriminator 2 view .LVU284
 899 0076 0122     		movs	r2, #1
 900 0078 0092     		str	r2, [sp]
 179:../switch_sdk/core/drv/mac/sw_yt921x.c **** 
 901              		.loc 1 179 5 is_stmt 1 discriminator 2 view .LVU285
 179:../switch_sdk/core/drv/mac/sw_yt921x.c **** 
 902              		.loc 1 179 5 discriminator 2 view .LVU286
 903 007a 4FF4D421 		mov	r1, #434176
 904 007e 2846     		mov	r0, r5
 905              	.LVL91:
 179:../switch_sdk/core/drv/mac/sw_yt921x.c **** 
 906              		.loc 1 179 5 is_stmt 0 discriminator 2 view .LVU287
 907 0080 FFF7FEFF 		bl	hal_mem32_write
 908              	.LVL92:
 179:../switch_sdk/core/drv/mac/sw_yt921x.c **** 
 909              		.loc 1 179 5 discriminator 2 view .LVU288
 910 0084 10F0FF0F 		tst	r0, #255
 911 0088 01D1     		bne	.L66
 168:../switch_sdk/core/drv/mac/sw_yt921x.c **** 
 912              		.loc 1 168 14 view .LVU289
 913 008a 0026     		movs	r6, #0
 914 008c 04E0     		b	.L60
 915              	.L66:
 179:../switch_sdk/core/drv/mac/sw_yt921x.c **** 
 916              		.loc 1 179 5 is_stmt 1 discriminator 3 view .LVU290
 179:../switch_sdk/core/drv/mac/sw_yt921x.c **** 
 917              		.loc 1 179 5 discriminator 3 view .LVU291
 179:../switch_sdk/core/drv/mac/sw_yt921x.c **** 
 918              		.loc 1 179 5 discriminator 3 view .LVU292
 919 008e C4B2     		uxtb	r4, r0
 920 0090 C9E7     		b	.L55
 921              	.LVL93:
 922              	.L68:
 183:../switch_sdk/core/drv/mac/sw_yt921x.c **** 
 923              		.loc 1 183 9 discriminator 3 view .LVU293
 183:../switch_sdk/core/drv/mac/sw_yt921x.c **** 
 924              		.loc 1 183 9 discriminator 3 view .LVU294
 183:../switch_sdk/core/drv/mac/sw_yt921x.c **** 
 925              		.loc 1 183 9 discriminator 3 view .LVU295
 926 0092 C4B2     		uxtb	r4, r0
 927 0094 C7E7     		b	.L55
 928              	.L62:
 191:../switch_sdk/core/drv/mac/sw_yt921x.c ****     }
 929              		.loc 1 191 9 view .LVU296
 191:../switch_sdk/core/drv/mac/sw_yt921x.c ****     }
 930              		.loc 1 191 20 is_stmt 0 view .LVU297
 931 0096 0136     		adds	r6, r6, #1
 932              	.LVL94:
 933              	.L60:
 181:../switch_sdk/core/drv/mac/sw_yt921x.c ****     {
 934              		.loc 1 181 33 is_stmt 1 view .LVU298
 935 0098 092E     		cmp	r6, #9
 936 009a 0ED8     		bhi	.L67
 183:../switch_sdk/core/drv/mac/sw_yt921x.c **** 
 937              		.loc 1 183 9 view .LVU299
 183:../switch_sdk/core/drv/mac/sw_yt921x.c **** 
 938              		.loc 1 183 9 view .LVU300
 939 009c 6A46     		mov	r2, sp
 940 009e 4FF4D421 		mov	r1, #434176
 941 00a2 2846     		mov	r0, r5
 942              	.LVL95:
 183:../switch_sdk/core/drv/mac/sw_yt921x.c **** 
 943              		.loc 1 183 9 is_stmt 0 view .LVU301
 944 00a4 FFF7FEFF 		bl	hal_mem32_read
 945              	.LVL96:
 183:../switch_sdk/core/drv/mac/sw_yt921x.c **** 
 946              		.loc 1 183 9 view .LVU302
 947 00a8 10F0FF0F 		tst	r0, #255
 948 00ac F1D1     		bne	.L68
 183:../switch_sdk/core/drv/mac/sw_yt921x.c **** 
 949              		.loc 1 183 9 is_stmt 1 discriminator 2 view .LVU303
 185:../switch_sdk/core/drv/mac/sw_yt921x.c ****         {
 950              		.loc 1 185 9 discriminator 2 view .LVU304
 185:../switch_sdk/core/drv/mac/sw_yt921x.c ****         {
 951              		.loc 1 185 12 is_stmt 0 discriminator 2 view .LVU305
 952 00ae 009C     		ldr	r4, [sp]
 185:../switch_sdk/core/drv/mac/sw_yt921x.c ****         {
 953              		.loc 1 185 11 discriminator 2 view .LVU306
 954 00b0 002C     		cmp	r4, #0
 955 00b2 F0D1     		bne	.L62
 956              	.LBB5:
 187:../switch_sdk/core/drv/mac/sw_yt921x.c ****             return CMM_ERR_OK;
 957              		.loc 1 187 13 is_stmt 1 view .LVU307
 958 00b4 FFF7FEFF 		bl	EXT_SMI_UNLOCK
 959              	.LVL97:
 188:../switch_sdk/core/drv/mac/sw_yt921x.c ****         }
 960              		.loc 1 188 13 view .LVU308
 188:../switch_sdk/core/drv/mac/sw_yt921x.c ****         }
 961              		.loc 1 188 20 is_stmt 0 view .LVU309
 962 00b8 B5E7     		b	.L55
 963              	.LVL98:
 964              	.L67:
 188:../switch_sdk/core/drv/mac/sw_yt921x.c ****         }
 965              		.loc 1 188 20 view .LVU310
 966              	.LBE5:
 194:../switch_sdk/core/drv/mac/sw_yt921x.c ****     return CMM_ERR_BUSYING_TIME;
 967              		.loc 1 194 5 is_stmt 1 view .LVU311
 968 00ba FFF7FEFF 		bl	EXT_SMI_UNLOCK
 969              	.LVL99:
 195:../switch_sdk/core/drv/mac/sw_yt921x.c **** }
 970              		.loc 1 195 5 view .LVU312
 195:../switch_sdk/core/drv/mac/sw_yt921x.c **** }
 971              		.loc 1 195 12 is_stmt 0 view .LVU313
 972 00be 1024     		movs	r4, #16
 973 00c0 B1E7     		b	.L55
 974              	.L70:
 975 00c2 00BF     		.align	2
 976              	.L69:
 977 00c4 04A00600 		.word	434180
 978 00c8 F1F000FC 		.word	-67047183
 979 00cc 08A00600 		.word	434184
 980              		.cfi_endproc
 981              	.LFE9:
 983              		.section	.rodata.yt9215_edata_read.str1.4,"aMS",%progbits,1
 984              		.align	2
 985              	.LC0:
 986 0000 68616C5F 		.ascii	"hal_mem32_write(unit, (0xE0000), op_data)\000"
 986      6D656D33 
 986      325F7772 
 986      69746528 
 986      756E6974 
 987 002a 0000     		.align	2
 988              	.LC1:
 989 002c 25732573 		.ascii	"%s%s of \"%s\" in %s\015\012\000"
 989      206F6620 
 989      22257322 
 989      20696E20 
 989      25730D0A 
 990 0041 000000   		.align	2
 991              	.LC2:
 992 0044 68616C5F 		.ascii	"hal_mem32_read(unit, (0xE0004), &op_data)\000"
 992      6D656D33 
 992      325F7265 
 992      61642875 
 992      6E69742C 
 993              		.section	.text.yt9215_edata_read,"ax",%progbits
 994              		.align	1
 995              		.global	yt9215_edata_read
 996              		.syntax unified
 997              		.thumb
 998              		.thumb_func
 1000              	yt9215_edata_read:
 1001              	.LVL100:
 1002              	.LFB11:
 203:../switch_sdk/core/drv/mac/sw_yt921x.c **** 
 204:../switch_sdk/core/drv/mac/sw_yt921x.c **** yt_ret_t yt9215_edata_read(yt_unit_t unit, uint8_t addr, uint8_t *pData)
 205:../switch_sdk/core/drv/mac/sw_yt921x.c **** {
 1003              		.loc 1 205 1 is_stmt 1 view -0
 1004              		.cfi_startproc
 1005              		@ args = 0, pretend = 0, frame = 8
 1006              		@ frame_needed = 0, uses_anonymous_args = 0
 1007              		.loc 1 205 1 is_stmt 0 view .LVU315
 1008 0000 F0B5     		push	{r4, r5, r6, r7, lr}
 1009              		.cfi_def_cfa_offset 20
 1010              		.cfi_offset 4, -20
 1011              		.cfi_offset 5, -16
 1012              		.cfi_offset 6, -12
 1013              		.cfi_offset 7, -8
 1014              		.cfi_offset 14, -4
 1015 0002 85B0     		sub	sp, sp, #20
 1016              		.cfi_def_cfa_offset 40
 1017 0004 0746     		mov	r7, r0
 1018 0006 1646     		mov	r6, r2
 206:../switch_sdk/core/drv/mac/sw_yt921x.c ****     cmm_err_t ret = CMM_ERR_OK;
 1019              		.loc 1 206 5 is_stmt 1 view .LVU316
 1020              	.LVL101:
 207:../switch_sdk/core/drv/mac/sw_yt921x.c ****     uint32_t op_data = 0;
 1021              		.loc 1 207 5 view .LVU317
 1022              		.loc 1 207 14 is_stmt 0 view .LVU318
 1023 0008 0023     		movs	r3, #0
 1024 000a 0393     		str	r3, [sp, #12]
 208:../switch_sdk/core/drv/mac/sw_yt921x.c ****     uint32_t wait_count = 0;
 1025              		.loc 1 208 5 is_stmt 1 view .LVU319
 1026              	.LVL102:
 209:../switch_sdk/core/drv/mac/sw_yt921x.c **** 
 210:../switch_sdk/core/drv/mac/sw_yt921x.c ****     op_data = 0x05 | ((addr << 8) & 0xFF00);
 1027              		.loc 1 210 5 view .LVU320
 1028              		.loc 1 210 35 is_stmt 0 view .LVU321
 1029 000c 0A02     		lsls	r2, r1, #8
 1030              	.LVL103:
 1031              		.loc 1 210 20 view .LVU322
 1032 000e 42F00502 		orr	r2, r2, #5
 1033              		.loc 1 210 13 view .LVU323
 1034 0012 0392     		str	r2, [sp, #12]
 211:../switch_sdk/core/drv/mac/sw_yt921x.c ****     CMM_ERR_CHK(HAL_MEM_DIRECT_WRITE(unit, E_OP_CTRL_0, op_data), ret);
 1035              		.loc 1 211 5 is_stmt 1 view .LVU324
 1036              		.loc 1 211 5 view .LVU325
 1037 0014 4FF46021 		mov	r1, #917504
 1038              	.LVL104:
 1039              		.loc 1 211 5 is_stmt 0 view .LVU326
 1040 0018 FFF7FEFF 		bl	hal_mem32_write
 1041              	.LVL105:
 1042              		.loc 1 211 5 view .LVU327
 1043 001c 10F0FF03 		ands	r3, r0, #255
 1044 0020 01D1     		bne	.L81
 208:../switch_sdk/core/drv/mac/sw_yt921x.c ****     uint32_t wait_count = 0;
 1045              		.loc 1 208 14 view .LVU328
 1046 0022 0025     		movs	r5, #0
 1047 0024 2DE0     		b	.L72
 1048              	.L81:
 1049 0026 0446     		mov	r4, r0
 1050              		.loc 1 211 5 is_stmt 1 discriminator 1 view .LVU329
 1051              		.loc 1 211 5 discriminator 1 view .LVU330
 1052 0028 214A     		ldr	r2, .L86
 1053 002a 1278     		ldrb	r2, [r2]	@ zero_extendqisi2
 1054 002c 012A     		cmp	r2, #1
 1055 002e 01D8     		bhi	.L82
 1056              	.LVL106:
 1057              	.L73:
 1058              		.loc 1 211 5 discriminator 5 view .LVU331
 1059              		.loc 1 211 5 discriminator 5 view .LVU332
 1060              		.loc 1 211 5 discriminator 5 view .LVU333
 1061 0030 E0B2     		uxtb	r0, r4
 1062 0032 3BE0     		b	.L71
 1063              	.LVL107:
 1064              	.L82:
 1065              		.loc 1 211 5 discriminator 3 view .LVU334
 1066              	.LBB6:
 1067              		.loc 1 211 5 discriminator 3 view .LVU335
 1068 0034 142B     		cmp	r3, #20
 1069 0036 28BF     		it	cs
 1070 0038 1423     		movcs	r3, #20
 1071 003a 1A46     		mov	r2, r3
 1072 003c 1D4B     		ldr	r3, .L86+4
 1073 003e 0093     		str	r3, [sp]
 1074 0040 1D4B     		ldr	r3, .L86+8
 1075 0042 1E49     		ldr	r1, .L86+12
 1076 0044 51F82220 		ldr	r2, [r1, r2, lsl #2]
 1077 0048 1D49     		ldr	r1, .L86+16
 1078 004a 8968     		ldr	r1, [r1, #8]
 1079 004c 1D48     		ldr	r0, .L86+20
 1080              	.LVL108:
 1081              		.loc 1 211 5 is_stmt 0 discriminator 3 view .LVU336
 1082 004e FFF7FEFF 		bl	osal_printf
 1083              	.LVL109:
 1084 0052 EDE7     		b	.L73
 1085              	.LVL110:
 1086              	.L85:
 1087              		.loc 1 211 5 discriminator 3 view .LVU337
 1088              	.LBE6:
 212:../switch_sdk/core/drv/mac/sw_yt921x.c ****     while(MAX_BUSYING_WAIT_TIME > wait_count)
 213:../switch_sdk/core/drv/mac/sw_yt921x.c ****     {
 214:../switch_sdk/core/drv/mac/sw_yt921x.c ****         CMM_ERR_CHK(HAL_MEM_DIRECT_READ(unit, E_OP_CTRL_1, &op_data), ret);
 1089              		.loc 1 214 9 is_stmt 1 discriminator 1 view .LVU338
 1090              		.loc 1 214 9 discriminator 1 view .LVU339
 1091 0054 164A     		ldr	r2, .L86
 1092 0056 1278     		ldrb	r2, [r2]	@ zero_extendqisi2
 1093 0058 012A     		cmp	r2, #1
 1094 005a 01D8     		bhi	.L83
 1095              	.LVL111:
 1096              	.L76:
 1097              		.loc 1 214 9 discriminator 5 view .LVU340
 1098              		.loc 1 214 9 discriminator 5 view .LVU341
 1099              		.loc 1 214 9 discriminator 5 view .LVU342
 1100 005c E0B2     		uxtb	r0, r4
 1101 005e 25E0     		b	.L71
 1102              	.LVL112:
 1103              	.L83:
 1104              		.loc 1 214 9 discriminator 3 view .LVU343
 1105              	.LBB7:
 1106              		.loc 1 214 9 discriminator 3 view .LVU344
 1107 0060 142B     		cmp	r3, #20
 1108 0062 28BF     		it	cs
 1109 0064 1423     		movcs	r3, #20
 1110 0066 1A46     		mov	r2, r3
 1111 0068 124B     		ldr	r3, .L86+4
 1112 006a 0093     		str	r3, [sp]
 1113 006c 164B     		ldr	r3, .L86+24
 1114 006e 1349     		ldr	r1, .L86+12
 1115 0070 51F82220 		ldr	r2, [r1, r2, lsl #2]
 1116 0074 1249     		ldr	r1, .L86+16
 1117 0076 8968     		ldr	r1, [r1, #8]
 1118 0078 1248     		ldr	r0, .L86+20
 1119              	.LVL113:
 1120              		.loc 1 214 9 is_stmt 0 discriminator 3 view .LVU345
 1121 007a FFF7FEFF 		bl	osal_printf
 1122              	.LVL114:
 1123 007e EDE7     		b	.L76
 1124              	.LVL115:
 1125              	.L77:
 1126              		.loc 1 214 9 discriminator 3 view .LVU346
 1127              	.LBE7:
 215:../switch_sdk/core/drv/mac/sw_yt921x.c **** 
 216:../switch_sdk/core/drv/mac/sw_yt921x.c ****         if( (op_data & 0x0F) == 0x03)
 217:../switch_sdk/core/drv/mac/sw_yt921x.c ****         {
 218:../switch_sdk/core/drv/mac/sw_yt921x.c ****             *pData = (op_data >> 24) & 0xFF;
 219:../switch_sdk/core/drv/mac/sw_yt921x.c ****             return CMM_ERR_OK;
 220:../switch_sdk/core/drv/mac/sw_yt921x.c ****         }
 221:../switch_sdk/core/drv/mac/sw_yt921x.c ****         wait_count++;
 1128              		.loc 1 221 9 is_stmt 1 view .LVU347
 1129              		.loc 1 221 19 is_stmt 0 view .LVU348
 1130 0080 0135     		adds	r5, r5, #1
 1131              	.LVL116:
 1132              	.L72:
 212:../switch_sdk/core/drv/mac/sw_yt921x.c ****     while(MAX_BUSYING_WAIT_TIME > wait_count)
 1133              		.loc 1 212 33 is_stmt 1 view .LVU349
 1134 0082 092D     		cmp	r5, #9
 1135 0084 11D8     		bhi	.L84
 214:../switch_sdk/core/drv/mac/sw_yt921x.c **** 
 1136              		.loc 1 214 9 view .LVU350
 214:../switch_sdk/core/drv/mac/sw_yt921x.c **** 
 1137              		.loc 1 214 9 view .LVU351
 1138 0086 03AA     		add	r2, sp, #12
 1139 0088 1049     		ldr	r1, .L86+28
 1140 008a 3846     		mov	r0, r7
 1141 008c FFF7FEFF 		bl	hal_mem32_read
 1142              	.LVL117:
 1143 0090 0446     		mov	r4, r0
 1144              	.LVL118:
 214:../switch_sdk/core/drv/mac/sw_yt921x.c **** 
 1145              		.loc 1 214 9 is_stmt 0 view .LVU352
 1146 0092 10F0FF03 		ands	r3, r0, #255
 1147 0096 DDD1     		bne	.L85
 214:../switch_sdk/core/drv/mac/sw_yt921x.c **** 
 1148              		.loc 1 214 9 is_stmt 1 discriminator 2 view .LVU353
 216:../switch_sdk/core/drv/mac/sw_yt921x.c ****         {
 1149              		.loc 1 216 9 discriminator 2 view .LVU354
 216:../switch_sdk/core/drv/mac/sw_yt921x.c ****         {
 1150              		.loc 1 216 22 is_stmt 0 discriminator 2 view .LVU355
 1151 0098 039B     		ldr	r3, [sp, #12]
 1152 009a 03F00F01 		and	r1, r3, #15
 216:../switch_sdk/core/drv/mac/sw_yt921x.c ****         {
 1153              		.loc 1 216 11 discriminator 2 view .LVU356
 1154 009e 0329     		cmp	r1, #3
 1155 00a0 EED1     		bne	.L77
 218:../switch_sdk/core/drv/mac/sw_yt921x.c ****             return CMM_ERR_OK;
 1156              		.loc 1 218 13 is_stmt 1 view .LVU357
 218:../switch_sdk/core/drv/mac/sw_yt921x.c ****             return CMM_ERR_OK;
 1157              		.loc 1 218 38 is_stmt 0 view .LVU358
 1158 00a2 1B0E     		lsrs	r3, r3, #24
 218:../switch_sdk/core/drv/mac/sw_yt921x.c ****             return CMM_ERR_OK;
 1159              		.loc 1 218 20 view .LVU359
 1160 00a4 3370     		strb	r3, [r6]
 219:../switch_sdk/core/drv/mac/sw_yt921x.c ****         }
 1161              		.loc 1 219 13 is_stmt 1 view .LVU360
 219:../switch_sdk/core/drv/mac/sw_yt921x.c ****         }
 1162              		.loc 1 219 20 is_stmt 0 view .LVU361
 1163 00a6 0020     		movs	r0, #0
 1164              	.LVL119:
 219:../switch_sdk/core/drv/mac/sw_yt921x.c ****         }
 1165              		.loc 1 219 20 view .LVU362
 1166 00a8 00E0     		b	.L71
 1167              	.LVL120:
 1168              	.L84:
 222:../switch_sdk/core/drv/mac/sw_yt921x.c ****     }
 223:../switch_sdk/core/drv/mac/sw_yt921x.c **** 
 224:../switch_sdk/core/drv/mac/sw_yt921x.c ****     return CMM_ERR_BUSYING_TIME;
 1169              		.loc 1 224 12 view .LVU363
 1170 00aa 1020     		movs	r0, #16
 1171              	.LVL121:
 1172              	.L71:
 225:../switch_sdk/core/drv/mac/sw_yt921x.c **** }
 1173              		.loc 1 225 1 view .LVU364
 1174 00ac 05B0     		add	sp, sp, #20
 1175              		.cfi_def_cfa_offset 20
 1176              		@ sp needed
 1177 00ae F0BD     		pop	{r4, r5, r6, r7, pc}
 1178              	.LVL122:
 1179              	.L87:
 1180              		.loc 1 225 1 view .LVU365
 1181              		.align	2
 1182              	.L86:
 1183 00b0 00000000 		.word	yt_debug_level
 1184 00b4 00000000 		.word	__FUNCTION__.0
 1185 00b8 00000000 		.word	.LC0
 1186 00bc 00000000 		.word	_yt_errmsg
 1187 00c0 00000000 		.word	_yt_prompt_msg
 1188 00c4 2C000000 		.word	.LC1
 1189 00c8 44000000 		.word	.LC2
 1190 00cc 04000E00 		.word	917508
 1191              		.cfi_endproc
 1192              	.LFE11:
 1194              		.section	.rodata.__FUNCTION__.0,"a"
 1195              		.align	2
 1198              	__FUNCTION__.0:
 1199 0000 79743932 		.ascii	"yt9215_edata_read\000"
 1199      31355F65 
 1199      64617461 
 1199      5F726561 
 1199      6400
 1200              		.global	yt9218_drv
 1201              		.section	.data.yt9218_drv,"aw"
 1202              		.align	2
 1205              	yt9218_drv:
 1206 0000 0190     		.short	-28671
 1207 0002 01       		.byte	1
 1208 0003 00       		.space	1
 1209 0004 00000000 		.word	yt9215_drv_func
 1210              		.global	yt9215_drv
 1211              		.section	.data.yt9215_drv,"aw"
 1212              		.align	2
 1215              	yt9215_drv:
 1216 0000 0290     		.short	-28670
 1217 0002 00       		.byte	0
 1218 0003 00       		.space	1
 1219 0004 00000000 		.word	yt9215_drv_func
 1220              		.global	yt9215_drv_func
 1221              		.section	.data.yt9215_drv_func,"aw"
 1222              		.align	2
 1225              	yt9215_drv_func:
 1226 0000 00000000 		.word	yt9215_init
 1227 0004 00000000 		.word	yt9215_mac_config
 1228 0008 00000000 		.word	yt9215_led_config
 1229 000c 00000000 		.word	yt9215_intif_read
 1230 0010 00000000 		.word	yt9215_intif_write
 1231 0014 00000000 		.word	yt9215_extif_read
 1232 0018 00000000 		.word	yt9215_extif_write
 1233 001c 00000000 		.word	yt9215_extif_polling_config
 1234 0020 00000000 		.word	yt9215_edata_read
 1235              		.text
 1236              	.Letext0:
 1237              		.file 2 "C:\\Users\\Dmitriy\\Desktop\\GD32F10x\\switch_sdk\\common\\include/yt_types.h"
 1238              		.file 3 "C:\\Users\\Dmitriy\\Desktop\\GD32F10x\\switch_sdk\\core\\fal\\chipdef/chipdef.h"
 1239              		.file 4 "C:\\Users\\Dmitriy\\Desktop\\GD32F10x\\switch_sdk\\common\\include/yt_lock.h"
 1240              		.file 5 "C:\\Users\\Dmitriy\\Desktop\\GD32F10x\\switch_sdk\\common\\include/yt_error.h"
 1241              		.file 6 "../switch_sdk/core/drv/mac/sw_drv.h"
 1242              		.file 7 "../switch_sdk/core/drv/mac/sw_yt921x.h"
 1243              		.file 8 "C:\\Users\\Dmitriy\\Desktop\\GD32F10x\\switch_sdk\\core\\hal/hal_mem.h"