   1              		.cpu cortex-m3
   2              		.arch armv7-m
   3              		.fpu softvfp
   4              		.eabi_attribute 20, 1
   5              		.eabi_attribute 21, 1
   6              		.eabi_attribute 23, 3
   7              		.eabi_attribute 24, 1
   8              		.eabi_attribute 25, 1
   9              		.eabi_attribute 26, 1
  10              		.eabi_attribute 30, 1
  11              		.eabi_attribute 34, 1
  12              		.eabi_attribute 18, 4
  13              		.file	"phy_int_serdes.c"
  14              		.text
  15              	.Ltext0:
  16              		.cfi_sections	.debug_frame
  17              		.file 1 "../switch_sdk/core/drv/phy/phy_int_serdes.c"
  18              		.section	.text.int_serdes_init,"ax",%progbits
  19              		.align	1
  20              		.global	int_serdes_init
  21              		.syntax unified
  22              		.thumb
  23              		.thumb_func
  25              	int_serdes_init:
  26              	.LVL0:
  27              	.LFB3:
   1:../switch_sdk/core/drv/phy/phy_int_serdes.c **** /*******************************************************************************
   2:../switch_sdk/core/drv/phy/phy_int_serdes.c **** *                                                                              *
   3:../switch_sdk/core/drv/phy/phy_int_serdes.c **** *  Copyright (c), 2023, Motorcomm Electronic Technology Co.,Ltd.               *
   4:../switch_sdk/core/drv/phy/phy_int_serdes.c **** *  Motorcomm Confidential and Proprietary.                                     *
   5:../switch_sdk/core/drv/phy/phy_int_serdes.c **** *                                                                              *
   6:../switch_sdk/core/drv/phy/phy_int_serdes.c **** ********************************************************************************
   7:../switch_sdk/core/drv/phy/phy_int_serdes.c **** */
   8:../switch_sdk/core/drv/phy/phy_int_serdes.c **** #include "phy_int_serdes.h"
   9:../switch_sdk/core/drv/phy/phy_int_serdes.c **** #include "hal_ctrl.h"
  10:../switch_sdk/core/drv/phy/phy_int_serdes.c **** #include "yt_error.h"
  11:../switch_sdk/core/drv/phy/phy_int_serdes.c **** #include "yt_util.h"
  12:../switch_sdk/core/drv/phy/phy_int_serdes.c **** 
  13:../switch_sdk/core/drv/phy/phy_int_serdes.c **** yt_phy_drv_func_t int_serdes_drv_func =
  14:../switch_sdk/core/drv/phy/phy_int_serdes.c **** {
  15:../switch_sdk/core/drv/phy/phy_int_serdes.c ****     .phy_num = 2,
  16:../switch_sdk/core/drv/phy/phy_int_serdes.c ****     .phy_init = int_serdes_init,
  17:../switch_sdk/core/drv/phy/phy_int_serdes.c ****     .phy_restart = int_serdes_restart,
  18:../switch_sdk/core/drv/phy/phy_int_serdes.c ****     .phy_enable_set = int_serdes_enable_set,
  19:../switch_sdk/core/drv/phy/phy_int_serdes.c ****     .phy_enable_get = int_serdes_enable_get,
  20:../switch_sdk/core/drv/phy/phy_int_serdes.c ****     .phy_medium_set = int_serdes_medium_set,
  21:../switch_sdk/core/drv/phy/phy_int_serdes.c ****     .phy_medium_get = int_serdes_medium_get,
  22:../switch_sdk/core/drv/phy/phy_int_serdes.c ****     .phy_autoNeg_enable_set = int_serdes_autoNeg_enable_set,
  23:../switch_sdk/core/drv/phy/phy_int_serdes.c ****     .phy_autoNeg_enable_get = int_serdes_autoNeg_enable_get,
  24:../switch_sdk/core/drv/phy/phy_int_serdes.c ****     .phy_autoNeg_ability_set = int_serdes_autoNeg_ability_set,
  25:../switch_sdk/core/drv/phy/phy_int_serdes.c ****     .phy_autoNeg_ability_get = int_serdes_autoNeg_ability_get,
  26:../switch_sdk/core/drv/phy/phy_int_serdes.c ****     .phy_force_speed_duplex_set = int_serdes_force_speed_duplex_set,
  27:../switch_sdk/core/drv/phy/phy_int_serdes.c ****     .phy_force_speed_duplex_get = int_serdes_force_speed_duplex_get,
  28:../switch_sdk/core/drv/phy/phy_int_serdes.c ****     .phy_link_status_get = int_serdes_link_status_get,
  29:../switch_sdk/core/drv/phy/phy_int_serdes.c ****     .phy_eee_enable_set = int_serdes_eee_enable_set,
  30:../switch_sdk/core/drv/phy/phy_int_serdes.c ****     .phy_eee_enable_get = int_serdes_eee_enable_get,
  31:../switch_sdk/core/drv/phy/phy_int_serdes.c ****     .phy_combo_mode_set = int_serdes_combo_mode_set,
  32:../switch_sdk/core/drv/phy/phy_int_serdes.c ****     .phy_combo_mode_get = int_serdes_combo_mode_get,
  33:../switch_sdk/core/drv/phy/phy_int_serdes.c ****     .phy_cable_diag = int_serdes_cable_diag,
  34:../switch_sdk/core/drv/phy/phy_int_serdes.c ****     .phy_interrupt_status_get = int_serdes_interrupt_status_get,
  35:../switch_sdk/core/drv/phy/phy_int_serdes.c ****     .phy_test_template = int_serdes_test_template,
  36:../switch_sdk/core/drv/phy/phy_int_serdes.c ****     .phy_loopback_set = int_serdes_loopback_set,
  37:../switch_sdk/core/drv/phy/phy_int_serdes.c ****     .phy_green_enable_set = int_serdes_green_enable_set,
  38:../switch_sdk/core/drv/phy/phy_int_serdes.c ****     .phy_green_enable_get = int_serdes_green_enable_get,
  39:../switch_sdk/core/drv/phy/phy_int_serdes.c ****     .phy_parallel_detection_set = int_serdes_parallel_detection_set,
  40:../switch_sdk/core/drv/phy/phy_int_serdes.c ****     .phy_parallel_detection_get = int_serdes_parallel_detection_get,
  41:../switch_sdk/core/drv/phy/phy_int_serdes.c **** };
  42:../switch_sdk/core/drv/phy/phy_int_serdes.c **** 
  43:../switch_sdk/core/drv/phy/phy_int_serdes.c **** yt_phy_drv_t int_serdes_drv =
  44:../switch_sdk/core/drv/phy/phy_int_serdes.c **** {
  45:../switch_sdk/core/drv/phy/phy_int_serdes.c ****     .chip_id = YT_PHY_ID_INTSERDES,
  46:../switch_sdk/core/drv/phy/phy_int_serdes.c ****     .chip_model = YT_PHY_MODEL_INTSERDES,
  47:../switch_sdk/core/drv/phy/phy_int_serdes.c ****     .pDrvFunc = &int_serdes_drv_func
  48:../switch_sdk/core/drv/phy/phy_int_serdes.c **** };
  49:../switch_sdk/core/drv/phy/phy_int_serdes.c **** 
  50:../switch_sdk/core/drv/phy/phy_int_serdes.c **** yt_ret_t int_serdes_init(yt_unit_t unit)
  51:../switch_sdk/core/drv/phy/phy_int_serdes.c **** {
  28              		.loc 1 51 1 view -0
  29              		.cfi_startproc
  30              		@ args = 0, pretend = 0, frame = 0
  31              		@ frame_needed = 0, uses_anonymous_args = 0
  32              		@ link register save eliminated.
  52:../switch_sdk/core/drv/phy/phy_int_serdes.c ****     CMM_UNUSED_PARAM(unit);
  33              		.loc 1 52 5 view .LVU1
  53:../switch_sdk/core/drv/phy/phy_int_serdes.c ****     return CMM_ERR_OK;
  34              		.loc 1 53 5 view .LVU2
  54:../switch_sdk/core/drv/phy/phy_int_serdes.c **** }
  35              		.loc 1 54 1 is_stmt 0 view .LVU3
  36 0000 0020     		movs	r0, #0
  37              	.LVL1:
  38              		.loc 1 54 1 view .LVU4
  39 0002 7047     		bx	lr
  40              		.cfi_endproc
  41              	.LFE3:
  43              		.section	.text.int_serdes_restart,"ax",%progbits
  44              		.align	1
  45              		.global	int_serdes_restart
  46              		.syntax unified
  47              		.thumb
  48              		.thumb_func
  50              	int_serdes_restart:
  51              	.LVL2:
  52              	.LFB4:
  55:../switch_sdk/core/drv/phy/phy_int_serdes.c **** 
  56:../switch_sdk/core/drv/phy/phy_int_serdes.c **** yt_ret_t int_serdes_restart(yt_unit_t unit, uint8_t phyAddr)
  57:../switch_sdk/core/drv/phy/phy_int_serdes.c **** {
  53              		.loc 1 57 1 is_stmt 1 view -0
  54              		.cfi_startproc
  55              		@ args = 0, pretend = 0, frame = 0
  56              		@ frame_needed = 0, uses_anonymous_args = 0
  57              		@ link register save eliminated.
  58:../switch_sdk/core/drv/phy/phy_int_serdes.c ****     CMM_UNUSED_PARAM(unit);
  58              		.loc 1 58 5 view .LVU6
  59:../switch_sdk/core/drv/phy/phy_int_serdes.c ****     CMM_UNUSED_PARAM(phyAddr);
  59              		.loc 1 59 5 view .LVU7
  60:../switch_sdk/core/drv/phy/phy_int_serdes.c ****     return CMM_ERR_OK;
  60              		.loc 1 60 5 view .LVU8
  61:../switch_sdk/core/drv/phy/phy_int_serdes.c **** }
  61              		.loc 1 61 1 is_stmt 0 view .LVU9
  62 0000 0020     		movs	r0, #0
  63              	.LVL3:
  64              		.loc 1 61 1 view .LVU10
  65 0002 7047     		bx	lr
  66              		.cfi_endproc
  67              	.LFE4:
  69              		.section	.text.int_serdes_medium_set,"ax",%progbits
  70              		.align	1
  71              		.global	int_serdes_medium_set
  72              		.syntax unified
  73              		.thumb
  74              		.thumb_func
  76              	int_serdes_medium_set:
  77              	.LVL4:
  78              	.LFB7:
  62:../switch_sdk/core/drv/phy/phy_int_serdes.c **** 
  63:../switch_sdk/core/drv/phy/phy_int_serdes.c **** yt_ret_t int_serdes_enable_set(yt_unit_t unit, uint8_t phyAddr, yt_enable_t enable)
  64:../switch_sdk/core/drv/phy/phy_int_serdes.c **** {
  65:../switch_sdk/core/drv/phy/phy_int_serdes.c ****     cmm_err_t ret = CMM_ERR_OK;
  66:../switch_sdk/core/drv/phy/phy_int_serdes.c ****     uint16_t phyData = 0;
  67:../switch_sdk/core/drv/phy/phy_int_serdes.c **** 
  68:../switch_sdk/core/drv/phy/phy_int_serdes.c ****     CMM_ERR_CHK(HALSWDRV_FUNC(unit)->switch_intif_read(unit, phyAddr, PHY_BASE_CTRL_REG_0, &phyData
  69:../switch_sdk/core/drv/phy/phy_int_serdes.c ****     if(YT_ENABLE == enable)
  70:../switch_sdk/core/drv/phy/phy_int_serdes.c ****     {
  71:../switch_sdk/core/drv/phy/phy_int_serdes.c ****         CLEAR_BIT(phyData, 11);
  72:../switch_sdk/core/drv/phy/phy_int_serdes.c ****         SET_BIT(phyData, 9);
  73:../switch_sdk/core/drv/phy/phy_int_serdes.c ****     }
  74:../switch_sdk/core/drv/phy/phy_int_serdes.c ****     else
  75:../switch_sdk/core/drv/phy/phy_int_serdes.c ****     {
  76:../switch_sdk/core/drv/phy/phy_int_serdes.c ****         SET_BIT(phyData, 11);
  77:../switch_sdk/core/drv/phy/phy_int_serdes.c ****     }
  78:../switch_sdk/core/drv/phy/phy_int_serdes.c ****     CMM_ERR_CHK(HALSWDRV_FUNC(unit)->switch_intif_write(unit, phyAddr, PHY_BASE_CTRL_REG_0, phyData
  79:../switch_sdk/core/drv/phy/phy_int_serdes.c **** 
  80:../switch_sdk/core/drv/phy/phy_int_serdes.c ****     return CMM_ERR_OK;
  81:../switch_sdk/core/drv/phy/phy_int_serdes.c **** }
  82:../switch_sdk/core/drv/phy/phy_int_serdes.c **** 
  83:../switch_sdk/core/drv/phy/phy_int_serdes.c **** yt_ret_t int_serdes_enable_get(yt_unit_t unit, uint8_t phyAddr, yt_enable_t *pEnable)
  84:../switch_sdk/core/drv/phy/phy_int_serdes.c **** {
  85:../switch_sdk/core/drv/phy/phy_int_serdes.c ****     cmm_err_t ret = CMM_ERR_OK;
  86:../switch_sdk/core/drv/phy/phy_int_serdes.c ****     uint16_t phyData = 0;
  87:../switch_sdk/core/drv/phy/phy_int_serdes.c **** 
  88:../switch_sdk/core/drv/phy/phy_int_serdes.c ****     CMM_ERR_CHK(HALSWDRV_FUNC(unit)->switch_intif_read(unit, phyAddr, PHY_BASE_CTRL_REG_0, &phyData
  89:../switch_sdk/core/drv/phy/phy_int_serdes.c ****     *pEnable = IS_BIT_SET(phyData, 11) ? YT_DISABLE : YT_ENABLE;
  90:../switch_sdk/core/drv/phy/phy_int_serdes.c **** 
  91:../switch_sdk/core/drv/phy/phy_int_serdes.c ****     return CMM_ERR_OK;
  92:../switch_sdk/core/drv/phy/phy_int_serdes.c **** }
  93:../switch_sdk/core/drv/phy/phy_int_serdes.c **** 
  94:../switch_sdk/core/drv/phy/phy_int_serdes.c **** yt_ret_t int_serdes_medium_set(yt_unit_t unit, uint8_t phyAddr, yt_port_medium_t medium)
  95:../switch_sdk/core/drv/phy/phy_int_serdes.c **** {
  79              		.loc 1 95 1 is_stmt 1 view -0
  80              		.cfi_startproc
  81              		@ args = 0, pretend = 0, frame = 0
  82              		@ frame_needed = 0, uses_anonymous_args = 0
  83              		@ link register save eliminated.
  96:../switch_sdk/core/drv/phy/phy_int_serdes.c ****     CMM_UNUSED_PARAM(unit);
  84              		.loc 1 96 5 view .LVU12
  97:../switch_sdk/core/drv/phy/phy_int_serdes.c ****     CMM_UNUSED_PARAM(phyAddr);
  85              		.loc 1 97 5 view .LVU13
  98:../switch_sdk/core/drv/phy/phy_int_serdes.c ****     CMM_UNUSED_PARAM(medium);
  86              		.loc 1 98 5 view .LVU14
  99:../switch_sdk/core/drv/phy/phy_int_serdes.c ****     return CMM_ERR_OK;
  87              		.loc 1 99 5 view .LVU15
 100:../switch_sdk/core/drv/phy/phy_int_serdes.c **** }
  88              		.loc 1 100 1 is_stmt 0 view .LVU16
  89 0000 0020     		movs	r0, #0
  90              	.LVL5:
  91              		.loc 1 100 1 view .LVU17
  92 0002 7047     		bx	lr
  93              		.cfi_endproc
  94              	.LFE7:
  96              		.section	.text.int_serdes_medium_get,"ax",%progbits
  97              		.align	1
  98              		.global	int_serdes_medium_get
  99              		.syntax unified
 100              		.thumb
 101              		.thumb_func
 103              	int_serdes_medium_get:
 104              	.LVL6:
 105              	.LFB8:
 101:../switch_sdk/core/drv/phy/phy_int_serdes.c **** 
 102:../switch_sdk/core/drv/phy/phy_int_serdes.c **** yt_ret_t int_serdes_medium_get(yt_unit_t unit, uint8_t phyAddr, yt_port_medium_t *pMedium)
 103:../switch_sdk/core/drv/phy/phy_int_serdes.c **** {
 106              		.loc 1 103 1 is_stmt 1 view -0
 107              		.cfi_startproc
 108              		@ args = 0, pretend = 0, frame = 0
 109              		@ frame_needed = 0, uses_anonymous_args = 0
 110              		@ link register save eliminated.
 104:../switch_sdk/core/drv/phy/phy_int_serdes.c ****     CMM_UNUSED_PARAM(unit);
 111              		.loc 1 104 5 view .LVU19
 105:../switch_sdk/core/drv/phy/phy_int_serdes.c ****     CMM_UNUSED_PARAM(phyAddr);
 112              		.loc 1 105 5 view .LVU20
 106:../switch_sdk/core/drv/phy/phy_int_serdes.c ****     CMM_UNUSED_PARAM(pMedium);
 113              		.loc 1 106 5 view .LVU21
 107:../switch_sdk/core/drv/phy/phy_int_serdes.c ****     return CMM_ERR_OK;
 114              		.loc 1 107 5 view .LVU22
 108:../switch_sdk/core/drv/phy/phy_int_serdes.c **** }
 115              		.loc 1 108 1 is_stmt 0 view .LVU23
 116 0000 0020     		movs	r0, #0
 117              	.LVL7:
 118              		.loc 1 108 1 view .LVU24
 119 0002 7047     		bx	lr
 120              		.cfi_endproc
 121              	.LFE8:
 123              		.section	.text.int_serdes_autoNeg_enable_set,"ax",%progbits
 124              		.align	1
 125              		.global	int_serdes_autoNeg_enable_set
 126              		.syntax unified
 127              		.thumb
 128              		.thumb_func
 130              	int_serdes_autoNeg_enable_set:
 131              	.LVL8:
 132              	.LFB9:
 109:../switch_sdk/core/drv/phy/phy_int_serdes.c **** 
 110:../switch_sdk/core/drv/phy/phy_int_serdes.c **** yt_ret_t int_serdes_autoNeg_enable_set(yt_unit_t unit, uint8_t phyAddr, yt_enable_t enable)
 111:../switch_sdk/core/drv/phy/phy_int_serdes.c **** {
 133              		.loc 1 111 1 is_stmt 1 view -0
 134              		.cfi_startproc
 135              		@ args = 0, pretend = 0, frame = 0
 136              		@ frame_needed = 0, uses_anonymous_args = 0
 137              		@ link register save eliminated.
 112:../switch_sdk/core/drv/phy/phy_int_serdes.c ****     CMM_UNUSED_PARAM(unit);
 138              		.loc 1 112 5 view .LVU26
 113:../switch_sdk/core/drv/phy/phy_int_serdes.c ****     CMM_UNUSED_PARAM(phyAddr);
 139              		.loc 1 113 5 view .LVU27
 114:../switch_sdk/core/drv/phy/phy_int_serdes.c ****     CMM_UNUSED_PARAM(enable);
 140              		.loc 1 114 5 view .LVU28
 115:../switch_sdk/core/drv/phy/phy_int_serdes.c ****     return CMM_ERR_OK;
 141              		.loc 1 115 5 view .LVU29
 116:../switch_sdk/core/drv/phy/phy_int_serdes.c **** }
 142              		.loc 1 116 1 is_stmt 0 view .LVU30
 143 0000 0020     		movs	r0, #0
 144              	.LVL9:
 145              		.loc 1 116 1 view .LVU31
 146 0002 7047     		bx	lr
 147              		.cfi_endproc
 148              	.LFE9:
 150              		.section	.text.int_serdes_autoNeg_enable_get,"ax",%progbits
 151              		.align	1
 152              		.global	int_serdes_autoNeg_enable_get
 153              		.syntax unified
 154              		.thumb
 155              		.thumb_func
 157              	int_serdes_autoNeg_enable_get:
 158              	.LVL10:
 159              	.LFB10:
 117:../switch_sdk/core/drv/phy/phy_int_serdes.c **** 
 118:../switch_sdk/core/drv/phy/phy_int_serdes.c **** yt_ret_t int_serdes_autoNeg_enable_get(yt_unit_t unit, uint8_t phyAddr, yt_enable_t *pEnable)
 119:../switch_sdk/core/drv/phy/phy_int_serdes.c **** {
 160              		.loc 1 119 1 is_stmt 1 view -0
 161              		.cfi_startproc
 162              		@ args = 0, pretend = 0, frame = 0
 163              		@ frame_needed = 0, uses_anonymous_args = 0
 164              		@ link register save eliminated.
 120:../switch_sdk/core/drv/phy/phy_int_serdes.c ****     CMM_UNUSED_PARAM(unit);
 165              		.loc 1 120 5 view .LVU33
 121:../switch_sdk/core/drv/phy/phy_int_serdes.c ****     CMM_UNUSED_PARAM(phyAddr);
 166              		.loc 1 121 5 view .LVU34
 122:../switch_sdk/core/drv/phy/phy_int_serdes.c ****     CMM_UNUSED_PARAM(pEnable);
 167              		.loc 1 122 5 view .LVU35
 123:../switch_sdk/core/drv/phy/phy_int_serdes.c ****     return CMM_ERR_OK;
 168              		.loc 1 123 5 view .LVU36
 124:../switch_sdk/core/drv/phy/phy_int_serdes.c **** }
 169              		.loc 1 124 1 is_stmt 0 view .LVU37
 170 0000 0020     		movs	r0, #0
 171              	.LVL11:
 172              		.loc 1 124 1 view .LVU38
 173 0002 7047     		bx	lr
 174              		.cfi_endproc
 175              	.LFE10:
 177              		.section	.text.int_serdes_autoNeg_ability_set,"ax",%progbits
 178              		.align	1
 179              		.global	int_serdes_autoNeg_ability_set
 180              		.syntax unified
 181              		.thumb
 182              		.thumb_func
 184              	int_serdes_autoNeg_ability_set:
 185              	.LVL12:
 186              	.LFB11:
 125:../switch_sdk/core/drv/phy/phy_int_serdes.c **** 
 126:../switch_sdk/core/drv/phy/phy_int_serdes.c **** yt_ret_t int_serdes_autoNeg_ability_set(yt_unit_t unit, uint8_t phyAddr, yt_port_an_ability_t abili
 127:../switch_sdk/core/drv/phy/phy_int_serdes.c **** {
 187              		.loc 1 127 1 is_stmt 1 view -0
 188              		.cfi_startproc
 189              		@ args = 0, pretend = 0, frame = 8
 190              		@ frame_needed = 0, uses_anonymous_args = 0
 191              		@ link register save eliminated.
 192              		.loc 1 127 1 is_stmt 0 view .LVU40
 193 0000 82B0     		sub	sp, sp, #8
 194              		.cfi_def_cfa_offset 8
 195 0002 02A9     		add	r1, sp, #8
 196              	.LVL13:
 197              		.loc 1 127 1 view .LVU41
 198 0004 01E90C00 		stmdb	r1, {r2, r3}
 128:../switch_sdk/core/drv/phy/phy_int_serdes.c ****     CMM_UNUSED_PARAM(unit);
 199              		.loc 1 128 5 is_stmt 1 view .LVU42
 129:../switch_sdk/core/drv/phy/phy_int_serdes.c ****     CMM_UNUSED_PARAM(phyAddr);
 200              		.loc 1 129 5 view .LVU43
 130:../switch_sdk/core/drv/phy/phy_int_serdes.c ****     CMM_UNUSED_PARAM(ability);
 201              		.loc 1 130 5 view .LVU44
 131:../switch_sdk/core/drv/phy/phy_int_serdes.c ****     return CMM_ERR_OK;
 202              		.loc 1 131 5 view .LVU45
 132:../switch_sdk/core/drv/phy/phy_int_serdes.c **** }
 203              		.loc 1 132 1 is_stmt 0 view .LVU46
 204 0008 0020     		movs	r0, #0
 205              	.LVL14:
 206              		.loc 1 132 1 view .LVU47
 207 000a 02B0     		add	sp, sp, #8
 208              		.cfi_def_cfa_offset 0
 209              		@ sp needed
 210 000c 7047     		bx	lr
 211              		.cfi_endproc
 212              	.LFE11:
 214              		.section	.text.int_serdes_autoNeg_ability_get,"ax",%progbits
 215              		.align	1
 216              		.global	int_serdes_autoNeg_ability_get
 217              		.syntax unified
 218              		.thumb
 219              		.thumb_func
 221              	int_serdes_autoNeg_ability_get:
 222              	.LVL15:
 223              	.LFB12:
 133:../switch_sdk/core/drv/phy/phy_int_serdes.c **** 
 134:../switch_sdk/core/drv/phy/phy_int_serdes.c **** yt_ret_t int_serdes_autoNeg_ability_get(yt_unit_t unit, uint8_t phyAddr, yt_port_an_ability_t *pAbi
 135:../switch_sdk/core/drv/phy/phy_int_serdes.c **** {
 224              		.loc 1 135 1 is_stmt 1 view -0
 225              		.cfi_startproc
 226              		@ args = 0, pretend = 0, frame = 0
 227              		@ frame_needed = 0, uses_anonymous_args = 0
 228              		@ link register save eliminated.
 136:../switch_sdk/core/drv/phy/phy_int_serdes.c ****     CMM_UNUSED_PARAM(unit);
 229              		.loc 1 136 5 view .LVU49
 137:../switch_sdk/core/drv/phy/phy_int_serdes.c ****     CMM_UNUSED_PARAM(phyAddr);
 230              		.loc 1 137 5 view .LVU50
 138:../switch_sdk/core/drv/phy/phy_int_serdes.c ****     CMM_UNUSED_PARAM(pAbility);
 231              		.loc 1 138 5 view .LVU51
 139:../switch_sdk/core/drv/phy/phy_int_serdes.c ****     return CMM_ERR_OK;
 232              		.loc 1 139 5 view .LVU52
 140:../switch_sdk/core/drv/phy/phy_int_serdes.c **** }
 233              		.loc 1 140 1 is_stmt 0 view .LVU53
 234 0000 0020     		movs	r0, #0
 235              	.LVL16:
 236              		.loc 1 140 1 view .LVU54
 237 0002 7047     		bx	lr
 238              		.cfi_endproc
 239              	.LFE12:
 241              		.section	.text.int_serdes_force_speed_duplex_set,"ax",%progbits
 242              		.align	1
 243              		.global	int_serdes_force_speed_duplex_set
 244              		.syntax unified
 245              		.thumb
 246              		.thumb_func
 248              	int_serdes_force_speed_duplex_set:
 249              	.LVL17:
 250              	.LFB13:
 141:../switch_sdk/core/drv/phy/phy_int_serdes.c **** 
 142:../switch_sdk/core/drv/phy/phy_int_serdes.c **** yt_ret_t int_serdes_force_speed_duplex_set(yt_unit_t unit, uint8_t phyAddr, yt_port_speed_duplex_t 
 143:../switch_sdk/core/drv/phy/phy_int_serdes.c **** {
 251              		.loc 1 143 1 is_stmt 1 view -0
 252              		.cfi_startproc
 253              		@ args = 0, pretend = 0, frame = 0
 254              		@ frame_needed = 0, uses_anonymous_args = 0
 255              		@ link register save eliminated.
 144:../switch_sdk/core/drv/phy/phy_int_serdes.c ****     CMM_UNUSED_PARAM(unit);
 256              		.loc 1 144 5 view .LVU56
 145:../switch_sdk/core/drv/phy/phy_int_serdes.c ****     CMM_UNUSED_PARAM(phyAddr);
 257              		.loc 1 145 5 view .LVU57
 146:../switch_sdk/core/drv/phy/phy_int_serdes.c ****     CMM_UNUSED_PARAM(speed_dup);
 258              		.loc 1 146 5 view .LVU58
 147:../switch_sdk/core/drv/phy/phy_int_serdes.c ****     return CMM_ERR_OK;
 259              		.loc 1 147 5 view .LVU59
 148:../switch_sdk/core/drv/phy/phy_int_serdes.c **** }
 260              		.loc 1 148 1 is_stmt 0 view .LVU60
 261 0000 0020     		movs	r0, #0
 262              	.LVL18:
 263              		.loc 1 148 1 view .LVU61
 264 0002 7047     		bx	lr
 265              		.cfi_endproc
 266              	.LFE13:
 268              		.section	.text.int_serdes_force_speed_duplex_get,"ax",%progbits
 269              		.align	1
 270              		.global	int_serdes_force_speed_duplex_get
 271              		.syntax unified
 272              		.thumb
 273              		.thumb_func
 275              	int_serdes_force_speed_duplex_get:
 276              	.LVL19:
 277              	.LFB14:
 149:../switch_sdk/core/drv/phy/phy_int_serdes.c **** 
 150:../switch_sdk/core/drv/phy/phy_int_serdes.c **** yt_ret_t int_serdes_force_speed_duplex_get(yt_unit_t unit, uint8_t phyAddr, yt_port_speed_duplex_t 
 151:../switch_sdk/core/drv/phy/phy_int_serdes.c **** {
 278              		.loc 1 151 1 is_stmt 1 view -0
 279              		.cfi_startproc
 280              		@ args = 0, pretend = 0, frame = 0
 281              		@ frame_needed = 0, uses_anonymous_args = 0
 282              		@ link register save eliminated.
 152:../switch_sdk/core/drv/phy/phy_int_serdes.c ****     CMM_UNUSED_PARAM(unit);
 283              		.loc 1 152 5 view .LVU63
 153:../switch_sdk/core/drv/phy/phy_int_serdes.c ****     CMM_UNUSED_PARAM(phyAddr);
 284              		.loc 1 153 5 view .LVU64
 154:../switch_sdk/core/drv/phy/phy_int_serdes.c ****     CMM_UNUSED_PARAM(pSpeedDup);
 285              		.loc 1 154 5 view .LVU65
 155:../switch_sdk/core/drv/phy/phy_int_serdes.c ****     return CMM_ERR_OK;
 286              		.loc 1 155 5 view .LVU66
 156:../switch_sdk/core/drv/phy/phy_int_serdes.c **** }
 287              		.loc 1 156 1 is_stmt 0 view .LVU67
 288 0000 0020     		movs	r0, #0
 289              	.LVL20:
 290              		.loc 1 156 1 view .LVU68
 291 0002 7047     		bx	lr
 292              		.cfi_endproc
 293              	.LFE14:
 295              		.section	.text.int_serdes_link_status_get,"ax",%progbits
 296              		.align	1
 297              		.global	int_serdes_link_status_get
 298              		.syntax unified
 299              		.thumb
 300              		.thumb_func
 302              	int_serdes_link_status_get:
 303              	.LVL21:
 304              	.LFB15:
 157:../switch_sdk/core/drv/phy/phy_int_serdes.c **** 
 158:../switch_sdk/core/drv/phy/phy_int_serdes.c **** yt_ret_t int_serdes_link_status_get(yt_unit_t unit, uint8_t phyAddr, yt_port_linkStatus_all_t *pLin
 159:../switch_sdk/core/drv/phy/phy_int_serdes.c **** {
 305              		.loc 1 159 1 is_stmt 1 view -0
 306              		.cfi_startproc
 307              		@ args = 0, pretend = 0, frame = 0
 308              		@ frame_needed = 0, uses_anonymous_args = 0
 309              		@ link register save eliminated.
 160:../switch_sdk/core/drv/phy/phy_int_serdes.c ****     CMM_UNUSED_PARAM(unit);
 310              		.loc 1 160 5 view .LVU70
 161:../switch_sdk/core/drv/phy/phy_int_serdes.c ****     CMM_UNUSED_PARAM(phyAddr);
 311              		.loc 1 161 5 view .LVU71
 162:../switch_sdk/core/drv/phy/phy_int_serdes.c ****     CMM_UNUSED_PARAM(pLinkStatus);
 312              		.loc 1 162 5 view .LVU72
 163:../switch_sdk/core/drv/phy/phy_int_serdes.c ****     return CMM_ERR_OK;
 313              		.loc 1 163 5 view .LVU73
 164:../switch_sdk/core/drv/phy/phy_int_serdes.c **** }
 314              		.loc 1 164 1 is_stmt 0 view .LVU74
 315 0000 0020     		movs	r0, #0
 316              	.LVL22:
 317              		.loc 1 164 1 view .LVU75
 318 0002 7047     		bx	lr
 319              		.cfi_endproc
 320              	.LFE15:
 322              		.section	.text.int_serdes_eee_enable_set,"ax",%progbits
 323              		.align	1
 324              		.global	int_serdes_eee_enable_set
 325              		.syntax unified
 326              		.thumb
 327              		.thumb_func
 329              	int_serdes_eee_enable_set:
 330              	.LVL23:
 331              	.LFB16:
 165:../switch_sdk/core/drv/phy/phy_int_serdes.c **** 
 166:../switch_sdk/core/drv/phy/phy_int_serdes.c **** yt_ret_t int_serdes_eee_enable_set(yt_unit_t unit, uint8_t phyAddr, yt_enable_t enable)
 167:../switch_sdk/core/drv/phy/phy_int_serdes.c **** {
 332              		.loc 1 167 1 is_stmt 1 view -0
 333              		.cfi_startproc
 334              		@ args = 0, pretend = 0, frame = 0
 335              		@ frame_needed = 0, uses_anonymous_args = 0
 336              		@ link register save eliminated.
 168:../switch_sdk/core/drv/phy/phy_int_serdes.c ****     CMM_UNUSED_PARAM(unit);
 337              		.loc 1 168 5 view .LVU77
 169:../switch_sdk/core/drv/phy/phy_int_serdes.c ****     CMM_UNUSED_PARAM(phyAddr);
 338              		.loc 1 169 5 view .LVU78
 170:../switch_sdk/core/drv/phy/phy_int_serdes.c ****     CMM_UNUSED_PARAM(enable);
 339              		.loc 1 170 5 view .LVU79
 171:../switch_sdk/core/drv/phy/phy_int_serdes.c ****     return CMM_ERR_OK;
 340              		.loc 1 171 5 view .LVU80
 172:../switch_sdk/core/drv/phy/phy_int_serdes.c **** }
 341              		.loc 1 172 1 is_stmt 0 view .LVU81
 342 0000 0020     		movs	r0, #0
 343              	.LVL24:
 344              		.loc 1 172 1 view .LVU82
 345 0002 7047     		bx	lr
 346              		.cfi_endproc
 347              	.LFE16:
 349              		.section	.text.int_serdes_eee_enable_get,"ax",%progbits
 350              		.align	1
 351              		.global	int_serdes_eee_enable_get
 352              		.syntax unified
 353              		.thumb
 354              		.thumb_func
 356              	int_serdes_eee_enable_get:
 357              	.LVL25:
 358              	.LFB17:
 173:../switch_sdk/core/drv/phy/phy_int_serdes.c **** 
 174:../switch_sdk/core/drv/phy/phy_int_serdes.c **** yt_ret_t int_serdes_eee_enable_get(yt_unit_t unit, uint8_t phyAddr, yt_enable_t *pEnable)
 175:../switch_sdk/core/drv/phy/phy_int_serdes.c **** {
 359              		.loc 1 175 1 is_stmt 1 view -0
 360              		.cfi_startproc
 361              		@ args = 0, pretend = 0, frame = 0
 362              		@ frame_needed = 0, uses_anonymous_args = 0
 363              		@ link register save eliminated.
 176:../switch_sdk/core/drv/phy/phy_int_serdes.c ****     CMM_UNUSED_PARAM(unit);
 364              		.loc 1 176 5 view .LVU84
 177:../switch_sdk/core/drv/phy/phy_int_serdes.c ****     CMM_UNUSED_PARAM(phyAddr);
 365              		.loc 1 177 5 view .LVU85
 178:../switch_sdk/core/drv/phy/phy_int_serdes.c ****     CMM_UNUSED_PARAM(pEnable);
 366              		.loc 1 178 5 view .LVU86
 179:../switch_sdk/core/drv/phy/phy_int_serdes.c ****     return CMM_ERR_OK;
 367              		.loc 1 179 5 view .LVU87
 180:../switch_sdk/core/drv/phy/phy_int_serdes.c **** }
 368              		.loc 1 180 1 is_stmt 0 view .LVU88
 369 0000 0020     		movs	r0, #0
 370              	.LVL26:
 371              		.loc 1 180 1 view .LVU89
 372 0002 7047     		bx	lr
 373              		.cfi_endproc
 374              	.LFE17:
 376              		.section	.text.int_serdes_combo_mode_set,"ax",%progbits
 377              		.align	1
 378              		.global	int_serdes_combo_mode_set
 379              		.syntax unified
 380              		.thumb
 381              		.thumb_func
 383              	int_serdes_combo_mode_set:
 384              	.LVL27:
 385              	.LFB18:
 181:../switch_sdk/core/drv/phy/phy_int_serdes.c **** 
 182:../switch_sdk/core/drv/phy/phy_int_serdes.c **** yt_ret_t int_serdes_combo_mode_set(yt_unit_t unit, uint8_t phyAddr, yt_combo_mode_t mode)
 183:../switch_sdk/core/drv/phy/phy_int_serdes.c **** {
 386              		.loc 1 183 1 is_stmt 1 view -0
 387              		.cfi_startproc
 388              		@ args = 0, pretend = 0, frame = 0
 389              		@ frame_needed = 0, uses_anonymous_args = 0
 390              		@ link register save eliminated.
 184:../switch_sdk/core/drv/phy/phy_int_serdes.c ****     CMM_UNUSED_PARAM(unit);
 391              		.loc 1 184 5 view .LVU91
 185:../switch_sdk/core/drv/phy/phy_int_serdes.c ****     CMM_UNUSED_PARAM(phyAddr);
 392              		.loc 1 185 5 view .LVU92
 186:../switch_sdk/core/drv/phy/phy_int_serdes.c ****     CMM_UNUSED_PARAM(mode);
 393              		.loc 1 186 5 view .LVU93
 187:../switch_sdk/core/drv/phy/phy_int_serdes.c ****     return CMM_ERR_OK;
 394              		.loc 1 187 5 view .LVU94
 188:../switch_sdk/core/drv/phy/phy_int_serdes.c **** }
 395              		.loc 1 188 1 is_stmt 0 view .LVU95
 396 0000 0020     		movs	r0, #0
 397              	.LVL28:
 398              		.loc 1 188 1 view .LVU96
 399 0002 7047     		bx	lr
 400              		.cfi_endproc
 401              	.LFE18:
 403              		.section	.text.int_serdes_combo_mode_get,"ax",%progbits
 404              		.align	1
 405              		.global	int_serdes_combo_mode_get
 406              		.syntax unified
 407              		.thumb
 408              		.thumb_func
 410              	int_serdes_combo_mode_get:
 411              	.LVL29:
 412              	.LFB19:
 189:../switch_sdk/core/drv/phy/phy_int_serdes.c **** 
 190:../switch_sdk/core/drv/phy/phy_int_serdes.c **** yt_ret_t int_serdes_combo_mode_get(yt_unit_t unit, uint8_t phyAddr, yt_combo_mode_t *pMode)
 191:../switch_sdk/core/drv/phy/phy_int_serdes.c **** {
 413              		.loc 1 191 1 is_stmt 1 view -0
 414              		.cfi_startproc
 415              		@ args = 0, pretend = 0, frame = 0
 416              		@ frame_needed = 0, uses_anonymous_args = 0
 417              		@ link register save eliminated.
 192:../switch_sdk/core/drv/phy/phy_int_serdes.c ****     CMM_UNUSED_PARAM(unit);
 418              		.loc 1 192 5 view .LVU98
 193:../switch_sdk/core/drv/phy/phy_int_serdes.c ****     CMM_UNUSED_PARAM(phyAddr);
 419              		.loc 1 193 5 view .LVU99
 194:../switch_sdk/core/drv/phy/phy_int_serdes.c ****     CMM_UNUSED_PARAM(pMode);
 420              		.loc 1 194 5 view .LVU100
 195:../switch_sdk/core/drv/phy/phy_int_serdes.c ****     return CMM_ERR_OK;
 421              		.loc 1 195 5 view .LVU101
 196:../switch_sdk/core/drv/phy/phy_int_serdes.c **** }
 422              		.loc 1 196 1 is_stmt 0 view .LVU102
 423 0000 0020     		movs	r0, #0
 424              	.LVL30:
 425              		.loc 1 196 1 view .LVU103
 426 0002 7047     		bx	lr
 427              		.cfi_endproc
 428              	.LFE19:
 430              		.section	.text.int_serdes_cable_diag,"ax",%progbits
 431              		.align	1
 432              		.global	int_serdes_cable_diag
 433              		.syntax unified
 434              		.thumb
 435              		.thumb_func
 437              	int_serdes_cable_diag:
 438              	.LVL31:
 439              	.LFB20:
 197:../switch_sdk/core/drv/phy/phy_int_serdes.c **** 
 198:../switch_sdk/core/drv/phy/phy_int_serdes.c **** yt_ret_t int_serdes_cable_diag(yt_unit_t unit, uint8_t phyAddr, yt_port_cableDiag_t *pCableDiagStat
 199:../switch_sdk/core/drv/phy/phy_int_serdes.c **** {
 440              		.loc 1 199 1 is_stmt 1 view -0
 441              		.cfi_startproc
 442              		@ args = 0, pretend = 0, frame = 0
 443              		@ frame_needed = 0, uses_anonymous_args = 0
 444              		@ link register save eliminated.
 200:../switch_sdk/core/drv/phy/phy_int_serdes.c ****     CMM_UNUSED_PARAM(unit);
 445              		.loc 1 200 5 view .LVU105
 201:../switch_sdk/core/drv/phy/phy_int_serdes.c ****     CMM_UNUSED_PARAM(phyAddr);
 446              		.loc 1 201 5 view .LVU106
 202:../switch_sdk/core/drv/phy/phy_int_serdes.c ****     CMM_UNUSED_PARAM(pCableDiagStatus);
 447              		.loc 1 202 5 view .LVU107
 203:../switch_sdk/core/drv/phy/phy_int_serdes.c ****     return CMM_ERR_OK;
 448              		.loc 1 203 5 view .LVU108
 204:../switch_sdk/core/drv/phy/phy_int_serdes.c **** }
 449              		.loc 1 204 1 is_stmt 0 view .LVU109
 450 0000 0020     		movs	r0, #0
 451              	.LVL32:
 452              		.loc 1 204 1 view .LVU110
 453 0002 7047     		bx	lr
 454              		.cfi_endproc
 455              	.LFE20:
 457              		.section	.text.int_serdes_interrupt_status_get,"ax",%progbits
 458              		.align	1
 459              		.global	int_serdes_interrupt_status_get
 460              		.syntax unified
 461              		.thumb
 462              		.thumb_func
 464              	int_serdes_interrupt_status_get:
 465              	.LVL33:
 466              	.LFB21:
 205:../switch_sdk/core/drv/phy/phy_int_serdes.c **** 
 206:../switch_sdk/core/drv/phy/phy_int_serdes.c **** yt_ret_t int_serdes_interrupt_status_get(yt_unit_t unit, uint8_t phyAddr, uint16_t *pStatusData)
 207:../switch_sdk/core/drv/phy/phy_int_serdes.c **** {
 467              		.loc 1 207 1 is_stmt 1 view -0
 468              		.cfi_startproc
 469              		@ args = 0, pretend = 0, frame = 0
 470              		@ frame_needed = 0, uses_anonymous_args = 0
 471              		@ link register save eliminated.
 208:../switch_sdk/core/drv/phy/phy_int_serdes.c ****     CMM_UNUSED_PARAM(unit);
 472              		.loc 1 208 5 view .LVU112
 209:../switch_sdk/core/drv/phy/phy_int_serdes.c ****     CMM_UNUSED_PARAM(phyAddr);
 473              		.loc 1 209 5 view .LVU113
 210:../switch_sdk/core/drv/phy/phy_int_serdes.c ****     CMM_UNUSED_PARAM(pStatusData);
 474              		.loc 1 210 5 view .LVU114
 211:../switch_sdk/core/drv/phy/phy_int_serdes.c ****     return CMM_ERR_OK;
 475              		.loc 1 211 5 view .LVU115
 212:../switch_sdk/core/drv/phy/phy_int_serdes.c **** }
 476              		.loc 1 212 1 is_stmt 0 view .LVU116
 477 0000 0020     		movs	r0, #0
 478              	.LVL34:
 479              		.loc 1 212 1 view .LVU117
 480 0002 7047     		bx	lr
 481              		.cfi_endproc
 482              	.LFE21:
 484              		.section	.text.int_serdes_green_enable_set,"ax",%progbits
 485              		.align	1
 486              		.global	int_serdes_green_enable_set
 487              		.syntax unified
 488              		.thumb
 489              		.thumb_func
 491              	int_serdes_green_enable_set:
 492              	.LVL35:
 493              	.LFB24:
 213:../switch_sdk/core/drv/phy/phy_int_serdes.c **** 
 214:../switch_sdk/core/drv/phy/phy_int_serdes.c **** yt_ret_t int_serdes_test_template(yt_unit_t unit, uint8_t phyAddr, yt_utp_template_testmode_t mode)
 215:../switch_sdk/core/drv/phy/phy_int_serdes.c **** {
 216:../switch_sdk/core/drv/phy/phy_int_serdes.c ****     cmm_err_t ret = CMM_ERR_OK;
 217:../switch_sdk/core/drv/phy/phy_int_serdes.c **** 
 218:../switch_sdk/core/drv/phy/phy_int_serdes.c ****     if(mode < YT_UTP_TEMPLATE_TMODE_SDS2500M || mode > YT_UTP_TEMPLATE_TMODE_SDS1000M)
 219:../switch_sdk/core/drv/phy/phy_int_serdes.c ****     {
 220:../switch_sdk/core/drv/phy/phy_int_serdes.c ****         return CMM_ERR_INPUT;
 221:../switch_sdk/core/drv/phy/phy_int_serdes.c ****     }
 222:../switch_sdk/core/drv/phy/phy_int_serdes.c **** 
 223:../switch_sdk/core/drv/phy/phy_int_serdes.c ****     switch(mode)
 224:../switch_sdk/core/drv/phy/phy_int_serdes.c ****     {
 225:../switch_sdk/core/drv/phy/phy_int_serdes.c ****         case YT_UTP_TEMPLATE_TMODE_SDS2500M:
 226:../switch_sdk/core/drv/phy/phy_int_serdes.c ****         case YT_UTP_TEMPLATE_TMODE_SDS1000M:
 227:../switch_sdk/core/drv/phy/phy_int_serdes.c ****             /*CMM_ERR_CHK(int_phy_ext_reg_write(unit, phyAddr, 0x5, 0xc100), ret);*/
 228:../switch_sdk/core/drv/phy/phy_int_serdes.c ****             CMM_ERR_CHK(int_phy_ext_reg_write(unit, phyAddr, 0xa0, 0x8c00), ret);
 229:../switch_sdk/core/drv/phy/phy_int_serdes.c ****             break;
 230:../switch_sdk/core/drv/phy/phy_int_serdes.c ****         default:
 231:../switch_sdk/core/drv/phy/phy_int_serdes.c ****             return CMM_ERR_INPUT;
 232:../switch_sdk/core/drv/phy/phy_int_serdes.c ****     }
 233:../switch_sdk/core/drv/phy/phy_int_serdes.c **** 
 234:../switch_sdk/core/drv/phy/phy_int_serdes.c ****     return CMM_ERR_OK;
 235:../switch_sdk/core/drv/phy/phy_int_serdes.c **** }
 236:../switch_sdk/core/drv/phy/phy_int_serdes.c **** 
 237:../switch_sdk/core/drv/phy/phy_int_serdes.c **** yt_ret_t int_serdes_loopback_set(yt_unit_t unit, uint8_t phy_addr, yt_phy_loopback_mode_t mode)
 238:../switch_sdk/core/drv/phy/phy_int_serdes.c **** {
 239:../switch_sdk/core/drv/phy/phy_int_serdes.c ****     yt_ret_t ret;
 240:../switch_sdk/core/drv/phy/phy_int_serdes.c ****     uint16_t data;
 241:../switch_sdk/core/drv/phy/phy_int_serdes.c **** 
 242:../switch_sdk/core/drv/phy/phy_int_serdes.c ****     switch(mode)
 243:../switch_sdk/core/drv/phy/phy_int_serdes.c ****     {
 244:../switch_sdk/core/drv/phy/phy_int_serdes.c ****         case YT_PHY_LOOPBACK_MODE_INTERNAL:
 245:../switch_sdk/core/drv/phy/phy_int_serdes.c ****             CMM_ERR_CHK(HALSWDRV_FUNC(unit)->switch_intif_read(unit, phy_addr, PHY_BASE_CTRL_REG_0,
 246:../switch_sdk/core/drv/phy/phy_int_serdes.c ****             SET_BIT(data, 14);
 247:../switch_sdk/core/drv/phy/phy_int_serdes.c ****             CMM_ERR_CHK(HALSWDRV_FUNC(unit)->switch_intif_write(unit, phy_addr, PHY_BASE_CTRL_REG_0
 248:../switch_sdk/core/drv/phy/phy_int_serdes.c ****             break;
 249:../switch_sdk/core/drv/phy/phy_int_serdes.c ****         case YT_PHY_LOOPBACK_MODE_EXTERNAL:
 250:../switch_sdk/core/drv/phy/phy_int_serdes.c ****             break;
 251:../switch_sdk/core/drv/phy/phy_int_serdes.c ****         case YT_PHY_LOOPBACK_MODE_REMOTE:
 252:../switch_sdk/core/drv/phy/phy_int_serdes.c ****             CMM_ERR_CHK(int_phy_ext_reg_write(unit, phy_addr, 0x0, 0x470), ret);
 253:../switch_sdk/core/drv/phy/phy_int_serdes.c ****             break;
 254:../switch_sdk/core/drv/phy/phy_int_serdes.c ****         default:
 255:../switch_sdk/core/drv/phy/phy_int_serdes.c ****             return CMM_ERR_INPUT;
 256:../switch_sdk/core/drv/phy/phy_int_serdes.c ****     }
 257:../switch_sdk/core/drv/phy/phy_int_serdes.c **** 
 258:../switch_sdk/core/drv/phy/phy_int_serdes.c ****     return CMM_ERR_OK;
 259:../switch_sdk/core/drv/phy/phy_int_serdes.c **** }
 260:../switch_sdk/core/drv/phy/phy_int_serdes.c **** 
 261:../switch_sdk/core/drv/phy/phy_int_serdes.c **** yt_ret_t int_serdes_green_enable_set(yt_unit_t unit, uint8_t phy_addr, yt_enable_t enable)
 262:../switch_sdk/core/drv/phy/phy_int_serdes.c **** {
 494              		.loc 1 262 1 is_stmt 1 view -0
 495              		.cfi_startproc
 496              		@ args = 0, pretend = 0, frame = 0
 497              		@ frame_needed = 0, uses_anonymous_args = 0
 498              		@ link register save eliminated.
 263:../switch_sdk/core/drv/phy/phy_int_serdes.c ****     CMM_UNUSED_PARAM(unit);
 499              		.loc 1 263 5 view .LVU119
 264:../switch_sdk/core/drv/phy/phy_int_serdes.c ****     CMM_UNUSED_PARAM(phy_addr);
 500              		.loc 1 264 5 view .LVU120
 265:../switch_sdk/core/drv/phy/phy_int_serdes.c ****     CMM_UNUSED_PARAM(enable);
 501              		.loc 1 265 5 view .LVU121
 266:../switch_sdk/core/drv/phy/phy_int_serdes.c ****     return CMM_ERR_NOT_SUPPORT;
 502              		.loc 1 266 5 view .LVU122
 267:../switch_sdk/core/drv/phy/phy_int_serdes.c **** }
 503              		.loc 1 267 1 is_stmt 0 view .LVU123
 504 0000 0320     		movs	r0, #3
 505              	.LVL36:
 506              		.loc 1 267 1 view .LVU124
 507 0002 7047     		bx	lr
 508              		.cfi_endproc
 509              	.LFE24:
 511              		.section	.text.int_serdes_green_enable_get,"ax",%progbits
 512              		.align	1
 513              		.global	int_serdes_green_enable_get
 514              		.syntax unified
 515              		.thumb
 516              		.thumb_func
 518              	int_serdes_green_enable_get:
 519              	.LVL37:
 520              	.LFB25:
 268:../switch_sdk/core/drv/phy/phy_int_serdes.c **** 
 269:../switch_sdk/core/drv/phy/phy_int_serdes.c **** yt_ret_t int_serdes_green_enable_get(yt_unit_t unit, uint8_t phy_addr, yt_enable_t *pEnable)
 270:../switch_sdk/core/drv/phy/phy_int_serdes.c **** {
 521              		.loc 1 270 1 is_stmt 1 view -0
 522              		.cfi_startproc
 523              		@ args = 0, pretend = 0, frame = 0
 524              		@ frame_needed = 0, uses_anonymous_args = 0
 525              		@ link register save eliminated.
 271:../switch_sdk/core/drv/phy/phy_int_serdes.c ****     CMM_UNUSED_PARAM(unit);
 526              		.loc 1 271 5 view .LVU126
 272:../switch_sdk/core/drv/phy/phy_int_serdes.c ****     CMM_UNUSED_PARAM(phy_addr);
 527              		.loc 1 272 5 view .LVU127
 273:../switch_sdk/core/drv/phy/phy_int_serdes.c ****     CMM_UNUSED_PARAM(pEnable);
 528              		.loc 1 273 5 view .LVU128
 274:../switch_sdk/core/drv/phy/phy_int_serdes.c ****     return CMM_ERR_NOT_SUPPORT;
 529              		.loc 1 274 5 view .LVU129
 275:../switch_sdk/core/drv/phy/phy_int_serdes.c **** }
 530              		.loc 1 275 1 is_stmt 0 view .LVU130
 531 0000 0320     		movs	r0, #3
 532              	.LVL38:
 533              		.loc 1 275 1 view .LVU131
 534 0002 7047     		bx	lr
 535              		.cfi_endproc
 536              	.LFE25:
 538              		.section	.rodata.int_serdes_enable_set.str1.4,"aMS",%progbits,1
 539              		.align	2
 540              	.LC0:
 541 0000 6748616C 		.ascii	"gHalCtrl[unit].pHalSwDrv->pDrvFunc->switch_intif_re"
 541      4374726C 
 541      5B756E69 
 541      745D2E70 
 541      48616C53 
 542 0033 61642875 		.ascii	"ad(unit, phyAddr, (0), &phyData)\000"
 542      6E69742C 
 542      20706879 
 542      41646472 
 542      2C202830 
 543              		.align	2
 544              	.LC1:
 545 0054 25732573 		.ascii	"%s%s of \"%s\" in %s\015\012\000"
 545      206F6620 
 545      22257322 
 545      20696E20 
 545      25730D0A 
 546 0069 000000   		.align	2
 547              	.LC2:
 548 006c 6748616C 		.ascii	"gHalCtrl[unit].pHalSwDrv->pDrvFunc->switch_intif_wr"
 548      4374726C 
 548      5B756E69 
 548      745D2E70 
 548      48616C53 
 549 009f 69746528 		.ascii	"ite(unit, phyAddr, (0), phyData)\000"
 549      756E6974 
 549      2C207068 
 549      79416464 
 549      722C2028 
 550              		.section	.text.int_serdes_enable_set,"ax",%progbits
 551              		.align	1
 552              		.global	int_serdes_enable_set
 553              		.syntax unified
 554              		.thumb
 555              		.thumb_func
 557              	int_serdes_enable_set:
 558              	.LVL39:
 559              	.LFB5:
  64:../switch_sdk/core/drv/phy/phy_int_serdes.c ****     cmm_err_t ret = CMM_ERR_OK;
 560              		.loc 1 64 1 is_stmt 1 view -0
 561              		.cfi_startproc
 562              		@ args = 0, pretend = 0, frame = 8
 563              		@ frame_needed = 0, uses_anonymous_args = 0
  64:../switch_sdk/core/drv/phy/phy_int_serdes.c ****     cmm_err_t ret = CMM_ERR_OK;
 564              		.loc 1 64 1 is_stmt 0 view .LVU133
 565 0000 F0B5     		push	{r4, r5, r6, r7, lr}
 566              		.cfi_def_cfa_offset 20
 567              		.cfi_offset 4, -20
 568              		.cfi_offset 5, -16
 569              		.cfi_offset 6, -12
 570              		.cfi_offset 7, -8
 571              		.cfi_offset 14, -4
 572 0002 85B0     		sub	sp, sp, #20
 573              		.cfi_def_cfa_offset 40
 574 0004 0546     		mov	r5, r0
 575 0006 0E46     		mov	r6, r1
 576 0008 1746     		mov	r7, r2
  65:../switch_sdk/core/drv/phy/phy_int_serdes.c ****     uint16_t phyData = 0;
 577              		.loc 1 65 5 is_stmt 1 view .LVU134
 578              	.LVL40:
  66:../switch_sdk/core/drv/phy/phy_int_serdes.c **** 
 579              		.loc 1 66 5 view .LVU135
  66:../switch_sdk/core/drv/phy/phy_int_serdes.c **** 
 580              		.loc 1 66 14 is_stmt 0 view .LVU136
 581 000a 0022     		movs	r2, #0
 582              	.LVL41:
  66:../switch_sdk/core/drv/phy/phy_int_serdes.c **** 
 583              		.loc 1 66 14 view .LVU137
 584 000c ADF80E20 		strh	r2, [sp, #14]	@ movhi
  68:../switch_sdk/core/drv/phy/phy_int_serdes.c ****     if(YT_ENABLE == enable)
 585              		.loc 1 68 5 is_stmt 1 view .LVU138
  68:../switch_sdk/core/drv/phy/phy_int_serdes.c ****     if(YT_ENABLE == enable)
 586              		.loc 1 68 5 view .LVU139
 587 0010 7423     		movs	r3, #116
 588 0012 00FB03F3 		mul	r3, r0, r3
 589 0016 2F4C     		ldr	r4, .L35
 590 0018 E358     		ldr	r3, [r4, r3]
 591 001a 5B68     		ldr	r3, [r3, #4]
 592 001c DC68     		ldr	r4, [r3, #12]
 593 001e 0DF10E03 		add	r3, sp, #14
 594 0022 A047     		blx	r4
 595              	.LVL42:
  68:../switch_sdk/core/drv/phy/phy_int_serdes.c ****     if(YT_ENABLE == enable)
 596              		.loc 1 68 5 is_stmt 0 view .LVU140
 597 0024 10F0FF03 		ands	r3, r0, #255
 598 0028 1BD1     		bne	.L30
  68:../switch_sdk/core/drv/phy/phy_int_serdes.c ****     if(YT_ENABLE == enable)
 599              		.loc 1 68 5 is_stmt 1 discriminator 2 view .LVU141
  69:../switch_sdk/core/drv/phy/phy_int_serdes.c ****     {
 600              		.loc 1 69 5 discriminator 2 view .LVU142
  69:../switch_sdk/core/drv/phy/phy_int_serdes.c ****     {
 601              		.loc 1 69 7 is_stmt 0 discriminator 2 view .LVU143
 602 002a 012F     		cmp	r7, #1
 603 002c 30D0     		beq	.L31
  76:../switch_sdk/core/drv/phy/phy_int_serdes.c ****     }
 604              		.loc 1 76 9 is_stmt 1 view .LVU144
 605 002e BDF80E30 		ldrh	r3, [sp, #14]
 606 0032 43F40063 		orr	r3, r3, #2048
 607 0036 ADF80E30 		strh	r3, [sp, #14]	@ movhi
 608              	.L26:
  78:../switch_sdk/core/drv/phy/phy_int_serdes.c **** 
 609              		.loc 1 78 5 view .LVU145
  78:../switch_sdk/core/drv/phy/phy_int_serdes.c **** 
 610              		.loc 1 78 5 view .LVU146
 611 003a 7423     		movs	r3, #116
 612 003c 05FB03F3 		mul	r3, r5, r3
 613 0040 244A     		ldr	r2, .L35
 614 0042 D358     		ldr	r3, [r2, r3]
 615 0044 5B68     		ldr	r3, [r3, #4]
 616 0046 1C69     		ldr	r4, [r3, #16]
 617 0048 BDF80E30 		ldrh	r3, [sp, #14]
 618 004c 0022     		movs	r2, #0
 619 004e 3146     		mov	r1, r6
 620 0050 2846     		mov	r0, r5
 621              	.LVL43:
  78:../switch_sdk/core/drv/phy/phy_int_serdes.c **** 
 622              		.loc 1 78 5 is_stmt 0 view .LVU147
 623 0052 A047     		blx	r4
 624              	.LVL44:
 625 0054 0446     		mov	r4, r0
 626              	.LVL45:
  78:../switch_sdk/core/drv/phy/phy_int_serdes.c **** 
 627              		.loc 1 78 5 view .LVU148
 628 0056 10F0FF03 		ands	r3, r0, #255
 629 005a 25D1     		bne	.L32
  80:../switch_sdk/core/drv/phy/phy_int_serdes.c **** }
 630              		.loc 1 80 12 view .LVU149
 631 005c 0020     		movs	r0, #0
 632              	.LVL46:
 633              	.L21:
  81:../switch_sdk/core/drv/phy/phy_int_serdes.c **** 
 634              		.loc 1 81 1 view .LVU150
 635 005e 05B0     		add	sp, sp, #20
 636              		.cfi_remember_state
 637              		.cfi_def_cfa_offset 20
 638              		@ sp needed
 639 0060 F0BD     		pop	{r4, r5, r6, r7, pc}
 640              	.LVL47:
 641              	.L30:
 642              		.cfi_restore_state
  81:../switch_sdk/core/drv/phy/phy_int_serdes.c **** 
 643              		.loc 1 81 1 view .LVU151
 644 0062 0446     		mov	r4, r0
  68:../switch_sdk/core/drv/phy/phy_int_serdes.c ****     if(YT_ENABLE == enable)
 645              		.loc 1 68 5 is_stmt 1 discriminator 1 view .LVU152
  68:../switch_sdk/core/drv/phy/phy_int_serdes.c ****     if(YT_ENABLE == enable)
 646              		.loc 1 68 5 discriminator 1 view .LVU153
 647 0064 1C4A     		ldr	r2, .L35+4
 648 0066 1278     		ldrb	r2, [r2]	@ zero_extendqisi2
 649 0068 012A     		cmp	r2, #1
 650 006a 01D8     		bhi	.L33
 651              	.LVL48:
 652              	.L23:
  68:../switch_sdk/core/drv/phy/phy_int_serdes.c ****     if(YT_ENABLE == enable)
 653              		.loc 1 68 5 discriminator 5 view .LVU154
  68:../switch_sdk/core/drv/phy/phy_int_serdes.c ****     if(YT_ENABLE == enable)
 654              		.loc 1 68 5 discriminator 5 view .LVU155
  68:../switch_sdk/core/drv/phy/phy_int_serdes.c ****     if(YT_ENABLE == enable)
 655              		.loc 1 68 5 discriminator 5 view .LVU156
 656 006c E0B2     		uxtb	r0, r4
 657 006e F6E7     		b	.L21
 658              	.LVL49:
 659              	.L33:
  68:../switch_sdk/core/drv/phy/phy_int_serdes.c ****     if(YT_ENABLE == enable)
 660              		.loc 1 68 5 discriminator 3 view .LVU157
 661              	.LBB2:
  68:../switch_sdk/core/drv/phy/phy_int_serdes.c ****     if(YT_ENABLE == enable)
 662              		.loc 1 68 5 discriminator 3 view .LVU158
 663 0070 142B     		cmp	r3, #20
 664 0072 28BF     		it	cs
 665 0074 1423     		movcs	r3, #20
 666 0076 1A46     		mov	r2, r3
 667 0078 184B     		ldr	r3, .L35+8
 668 007a 0093     		str	r3, [sp]
 669 007c 184B     		ldr	r3, .L35+12
 670 007e 1949     		ldr	r1, .L35+16
 671 0080 51F82220 		ldr	r2, [r1, r2, lsl #2]
 672 0084 1849     		ldr	r1, .L35+20
 673 0086 8968     		ldr	r1, [r1, #8]
 674 0088 1848     		ldr	r0, .L35+24
 675              	.LVL50:
  68:../switch_sdk/core/drv/phy/phy_int_serdes.c ****     if(YT_ENABLE == enable)
 676              		.loc 1 68 5 is_stmt 0 discriminator 3 view .LVU159
 677 008a FFF7FEFF 		bl	osal_printf
 678              	.LVL51:
 679 008e EDE7     		b	.L23
 680              	.LVL52:
 681              	.L31:
  68:../switch_sdk/core/drv/phy/phy_int_serdes.c ****     if(YT_ENABLE == enable)
 682              		.loc 1 68 5 discriminator 3 view .LVU160
 683              	.LBE2:
  71:../switch_sdk/core/drv/phy/phy_int_serdes.c ****         SET_BIT(phyData, 9);
 684              		.loc 1 71 9 is_stmt 1 view .LVU161
 685 0090 BDF80E30 		ldrh	r3, [sp, #14]
 686 0094 23F40063 		bic	r3, r3, #2048
 687 0098 9BB2     		uxth	r3, r3
 688 009a ADF80E30 		strh	r3, [sp, #14]	@ movhi
  72:../switch_sdk/core/drv/phy/phy_int_serdes.c ****     }
 689              		.loc 1 72 9 view .LVU162
 690 009e 43F40073 		orr	r3, r3, #512
 691 00a2 ADF80E30 		strh	r3, [sp, #14]	@ movhi
 692 00a6 C8E7     		b	.L26
 693              	.L32:
  78:../switch_sdk/core/drv/phy/phy_int_serdes.c **** 
 694              		.loc 1 78 5 discriminator 1 view .LVU163
  78:../switch_sdk/core/drv/phy/phy_int_serdes.c **** 
 695              		.loc 1 78 5 discriminator 1 view .LVU164
 696 00a8 0B4A     		ldr	r2, .L35+4
 697 00aa 1278     		ldrb	r2, [r2]	@ zero_extendqisi2
 698 00ac 012A     		cmp	r2, #1
 699 00ae 01D8     		bhi	.L34
 700              	.LVL53:
 701              	.L27:
  78:../switch_sdk/core/drv/phy/phy_int_serdes.c **** 
 702              		.loc 1 78 5 discriminator 5 view .LVU165
  78:../switch_sdk/core/drv/phy/phy_int_serdes.c **** 
 703              		.loc 1 78 5 discriminator 5 view .LVU166
  78:../switch_sdk/core/drv/phy/phy_int_serdes.c **** 
 704              		.loc 1 78 5 discriminator 5 view .LVU167
 705 00b0 E0B2     		uxtb	r0, r4
 706 00b2 D4E7     		b	.L21
 707              	.LVL54:
 708              	.L34:
  78:../switch_sdk/core/drv/phy/phy_int_serdes.c **** 
 709              		.loc 1 78 5 discriminator 3 view .LVU168
 710              	.LBB3:
  78:../switch_sdk/core/drv/phy/phy_int_serdes.c **** 
 711              		.loc 1 78 5 discriminator 3 view .LVU169
 712 00b4 142B     		cmp	r3, #20
 713 00b6 28BF     		it	cs
 714 00b8 1423     		movcs	r3, #20
 715 00ba 1A46     		mov	r2, r3
 716 00bc 074B     		ldr	r3, .L35+8
 717 00be 0093     		str	r3, [sp]
 718 00c0 0B4B     		ldr	r3, .L35+28
 719 00c2 0849     		ldr	r1, .L35+16
 720 00c4 51F82220 		ldr	r2, [r1, r2, lsl #2]
 721 00c8 0749     		ldr	r1, .L35+20
 722 00ca 8968     		ldr	r1, [r1, #8]
 723 00cc 0748     		ldr	r0, .L35+24
 724              	.LVL55:
  78:../switch_sdk/core/drv/phy/phy_int_serdes.c **** 
 725              		.loc 1 78 5 is_stmt 0 discriminator 3 view .LVU170
 726 00ce FFF7FEFF 		bl	osal_printf
 727              	.LVL56:
 728 00d2 EDE7     		b	.L27
 729              	.L36:
 730              		.align	2
 731              	.L35:
 732 00d4 00000000 		.word	gHalCtrl
 733 00d8 00000000 		.word	yt_debug_level
 734 00dc 00000000 		.word	__FUNCTION__.5
 735 00e0 00000000 		.word	.LC0
 736 00e4 00000000 		.word	_yt_errmsg
 737 00e8 00000000 		.word	_yt_prompt_msg
 738 00ec 54000000 		.word	.LC1
 739 00f0 6C000000 		.word	.LC2
 740              	.LBE3:
 741              		.cfi_endproc
 742              	.LFE5:
 744              		.section	.text.int_serdes_enable_get,"ax",%progbits
 745              		.align	1
 746              		.global	int_serdes_enable_get
 747              		.syntax unified
 748              		.thumb
 749              		.thumb_func
 751              	int_serdes_enable_get:
 752              	.LVL57:
 753              	.LFB6:
  84:../switch_sdk/core/drv/phy/phy_int_serdes.c ****     cmm_err_t ret = CMM_ERR_OK;
 754              		.loc 1 84 1 is_stmt 1 view -0
 755              		.cfi_startproc
 756              		@ args = 0, pretend = 0, frame = 8
 757              		@ frame_needed = 0, uses_anonymous_args = 0
  84:../switch_sdk/core/drv/phy/phy_int_serdes.c ****     cmm_err_t ret = CMM_ERR_OK;
 758              		.loc 1 84 1 is_stmt 0 view .LVU172
 759 0000 30B5     		push	{r4, r5, lr}
 760              		.cfi_def_cfa_offset 12
 761              		.cfi_offset 4, -12
 762              		.cfi_offset 5, -8
 763              		.cfi_offset 14, -4
 764 0002 85B0     		sub	sp, sp, #20
 765              		.cfi_def_cfa_offset 32
 766 0004 1546     		mov	r5, r2
  85:../switch_sdk/core/drv/phy/phy_int_serdes.c ****     uint16_t phyData = 0;
 767              		.loc 1 85 5 is_stmt 1 view .LVU173
 768              	.LVL58:
  86:../switch_sdk/core/drv/phy/phy_int_serdes.c **** 
 769              		.loc 1 86 5 view .LVU174
  86:../switch_sdk/core/drv/phy/phy_int_serdes.c **** 
 770              		.loc 1 86 14 is_stmt 0 view .LVU175
 771 0006 0022     		movs	r2, #0
 772              	.LVL59:
  86:../switch_sdk/core/drv/phy/phy_int_serdes.c **** 
 773              		.loc 1 86 14 view .LVU176
 774 0008 ADF80E20 		strh	r2, [sp, #14]	@ movhi
  88:../switch_sdk/core/drv/phy/phy_int_serdes.c ****     *pEnable = IS_BIT_SET(phyData, 11) ? YT_DISABLE : YT_ENABLE;
 775              		.loc 1 88 5 is_stmt 1 view .LVU177
  88:../switch_sdk/core/drv/phy/phy_int_serdes.c ****     *pEnable = IS_BIT_SET(phyData, 11) ? YT_DISABLE : YT_ENABLE;
 776              		.loc 1 88 5 view .LVU178
 777 000c 7423     		movs	r3, #116
 778 000e 00FB03F3 		mul	r3, r0, r3
 779 0012 164C     		ldr	r4, .L44
 780 0014 E358     		ldr	r3, [r4, r3]
 781 0016 5B68     		ldr	r3, [r3, #4]
 782 0018 DC68     		ldr	r4, [r3, #12]
 783 001a 0DF10E03 		add	r3, sp, #14
 784 001e A047     		blx	r4
 785              	.LVL60:
  88:../switch_sdk/core/drv/phy/phy_int_serdes.c ****     *pEnable = IS_BIT_SET(phyData, 11) ? YT_DISABLE : YT_ENABLE;
 786              		.loc 1 88 5 is_stmt 0 view .LVU179
 787 0020 10F0FF03 		ands	r3, r0, #255
 788 0024 0AD1     		bne	.L42
  88:../switch_sdk/core/drv/phy/phy_int_serdes.c ****     *pEnable = IS_BIT_SET(phyData, 11) ? YT_DISABLE : YT_ENABLE;
 789              		.loc 1 88 5 is_stmt 1 discriminator 2 view .LVU180
  89:../switch_sdk/core/drv/phy/phy_int_serdes.c **** 
 790              		.loc 1 89 5 discriminator 2 view .LVU181
  89:../switch_sdk/core/drv/phy/phy_int_serdes.c **** 
 791              		.loc 1 89 16 is_stmt 0 discriminator 2 view .LVU182
 792 0026 BDF80E30 		ldrh	r3, [sp, #14]
 793 002a DB0A     		lsrs	r3, r3, #11
  89:../switch_sdk/core/drv/phy/phy_int_serdes.c **** 
 794              		.loc 1 89 53 discriminator 2 view .LVU183
 795 002c 83F00103 		eor	r3, r3, #1
 796 0030 03F00103 		and	r3, r3, #1
  89:../switch_sdk/core/drv/phy/phy_int_serdes.c **** 
 797              		.loc 1 89 14 discriminator 2 view .LVU184
 798 0034 2B70     		strb	r3, [r5]
  91:../switch_sdk/core/drv/phy/phy_int_serdes.c **** }
 799              		.loc 1 91 5 is_stmt 1 discriminator 2 view .LVU185
  91:../switch_sdk/core/drv/phy/phy_int_serdes.c **** }
 800              		.loc 1 91 12 is_stmt 0 discriminator 2 view .LVU186
 801 0036 0020     		movs	r0, #0
 802              	.LVL61:
 803              	.L37:
  92:../switch_sdk/core/drv/phy/phy_int_serdes.c **** 
 804              		.loc 1 92 1 view .LVU187
 805 0038 05B0     		add	sp, sp, #20
 806              		.cfi_remember_state
 807              		.cfi_def_cfa_offset 12
 808              		@ sp needed
 809 003a 30BD     		pop	{r4, r5, pc}
 810              	.LVL62:
 811              	.L42:
 812              		.cfi_restore_state
  92:../switch_sdk/core/drv/phy/phy_int_serdes.c **** 
 813              		.loc 1 92 1 view .LVU188
 814 003c 0446     		mov	r4, r0
  88:../switch_sdk/core/drv/phy/phy_int_serdes.c ****     *pEnable = IS_BIT_SET(phyData, 11) ? YT_DISABLE : YT_ENABLE;
 815              		.loc 1 88 5 is_stmt 1 discriminator 1 view .LVU189
  88:../switch_sdk/core/drv/phy/phy_int_serdes.c ****     *pEnable = IS_BIT_SET(phyData, 11) ? YT_DISABLE : YT_ENABLE;
 816              		.loc 1 88 5 discriminator 1 view .LVU190
 817 003e 0C4A     		ldr	r2, .L44+4
 818 0040 1278     		ldrb	r2, [r2]	@ zero_extendqisi2
 819 0042 012A     		cmp	r2, #1
 820 0044 01D8     		bhi	.L43
 821              	.LVL63:
 822              	.L39:
  88:../switch_sdk/core/drv/phy/phy_int_serdes.c ****     *pEnable = IS_BIT_SET(phyData, 11) ? YT_DISABLE : YT_ENABLE;
 823              		.loc 1 88 5 discriminator 5 view .LVU191
  88:../switch_sdk/core/drv/phy/phy_int_serdes.c ****     *pEnable = IS_BIT_SET(phyData, 11) ? YT_DISABLE : YT_ENABLE;
 824              		.loc 1 88 5 discriminator 5 view .LVU192
  88:../switch_sdk/core/drv/phy/phy_int_serdes.c ****     *pEnable = IS_BIT_SET(phyData, 11) ? YT_DISABLE : YT_ENABLE;
 825              		.loc 1 88 5 discriminator 5 view .LVU193
 826 0046 E0B2     		uxtb	r0, r4
 827 0048 F6E7     		b	.L37
 828              	.LVL64:
 829              	.L43:
  88:../switch_sdk/core/drv/phy/phy_int_serdes.c ****     *pEnable = IS_BIT_SET(phyData, 11) ? YT_DISABLE : YT_ENABLE;
 830              		.loc 1 88 5 discriminator 3 view .LVU194
 831              	.LBB4:
  88:../switch_sdk/core/drv/phy/phy_int_serdes.c ****     *pEnable = IS_BIT_SET(phyData, 11) ? YT_DISABLE : YT_ENABLE;
 832              		.loc 1 88 5 discriminator 3 view .LVU195
 833 004a 142B     		cmp	r3, #20
 834 004c 28BF     		it	cs
 835 004e 1423     		movcs	r3, #20
 836 0050 1A46     		mov	r2, r3
 837 0052 084B     		ldr	r3, .L44+8
 838 0054 0093     		str	r3, [sp]
 839 0056 084B     		ldr	r3, .L44+12
 840 0058 0849     		ldr	r1, .L44+16
 841 005a 51F82220 		ldr	r2, [r1, r2, lsl #2]
 842 005e 0849     		ldr	r1, .L44+20
 843 0060 8968     		ldr	r1, [r1, #8]
 844 0062 0848     		ldr	r0, .L44+24
 845              	.LVL65:
  88:../switch_sdk/core/drv/phy/phy_int_serdes.c ****     *pEnable = IS_BIT_SET(phyData, 11) ? YT_DISABLE : YT_ENABLE;
 846              		.loc 1 88 5 is_stmt 0 discriminator 3 view .LVU196
 847 0064 FFF7FEFF 		bl	osal_printf
 848              	.LVL66:
 849 0068 EDE7     		b	.L39
 850              	.L45:
 851 006a 00BF     		.align	2
 852              	.L44:
 853 006c 00000000 		.word	gHalCtrl
 854 0070 00000000 		.word	yt_debug_level
 855 0074 00000000 		.word	__FUNCTION__.4
 856 0078 00000000 		.word	.LC0
 857 007c 00000000 		.word	_yt_errmsg
 858 0080 00000000 		.word	_yt_prompt_msg
 859 0084 54000000 		.word	.LC1
 860              	.LBE4:
 861              		.cfi_endproc
 862              	.LFE6:
 864              		.section	.rodata.int_serdes_test_template.str1.4,"aMS",%progbits,1
 865              		.align	2
 866              	.LC3:
 867 0000 696E745F 		.ascii	"int_phy_ext_reg_write(unit, phyAddr, 0xa0, 0x8c00)\000"
 867      7068795F 
 867      6578745F 
 867      7265675F 
 867      77726974 
 868              		.section	.text.int_serdes_test_template,"ax",%progbits
 869              		.align	1
 870              		.global	int_serdes_test_template
 871              		.syntax unified
 872              		.thumb
 873              		.thumb_func
 875              	int_serdes_test_template:
 876              	.LVL67:
 877              	.LFB22:
 215:../switch_sdk/core/drv/phy/phy_int_serdes.c ****     cmm_err_t ret = CMM_ERR_OK;
 878              		.loc 1 215 1 is_stmt 1 view -0
 879              		.cfi_startproc
 880              		@ args = 0, pretend = 0, frame = 0
 881              		@ frame_needed = 0, uses_anonymous_args = 0
 216:../switch_sdk/core/drv/phy/phy_int_serdes.c **** 
 882              		.loc 1 216 5 view .LVU198
 218:../switch_sdk/core/drv/phy/phy_int_serdes.c ****     {
 883              		.loc 1 218 5 view .LVU199
 218:../switch_sdk/core/drv/phy/phy_int_serdes.c ****     {
 884              		.loc 1 218 46 is_stmt 0 view .LVU200
 885 0000 0B3A     		subs	r2, r2, #11
 886              	.LVL68:
 218:../switch_sdk/core/drv/phy/phy_int_serdes.c ****     {
 887              		.loc 1 218 46 view .LVU201
 888 0002 D2B2     		uxtb	r2, r2
 218:../switch_sdk/core/drv/phy/phy_int_serdes.c ****     {
 889              		.loc 1 218 7 view .LVU202
 890 0004 012A     		cmp	r2, #1
 891 0006 23D8     		bhi	.L49
 215:../switch_sdk/core/drv/phy/phy_int_serdes.c ****     cmm_err_t ret = CMM_ERR_OK;
 892              		.loc 1 215 1 view .LVU203
 893 0008 10B5     		push	{r4, lr}
 894              		.cfi_def_cfa_offset 8
 895              		.cfi_offset 4, -8
 896              		.cfi_offset 14, -4
 897 000a 82B0     		sub	sp, sp, #8
 898              		.cfi_def_cfa_offset 16
 223:../switch_sdk/core/drv/phy/phy_int_serdes.c ****     {
 899              		.loc 1 223 5 is_stmt 1 view .LVU204
 228:../switch_sdk/core/drv/phy/phy_int_serdes.c ****             break;
 900              		.loc 1 228 13 view .LVU205
 228:../switch_sdk/core/drv/phy/phy_int_serdes.c ****             break;
 901              		.loc 1 228 13 view .LVU206
 902 000c 4FF40C43 		mov	r3, #35840
 903 0010 A022     		movs	r2, #160
 904 0012 FFF7FEFF 		bl	int_phy_ext_reg_write
 905              	.LVL69:
 228:../switch_sdk/core/drv/phy/phy_int_serdes.c ****             break;
 906              		.loc 1 228 13 is_stmt 0 view .LVU207
 907 0016 0446     		mov	r4, r0
 908              	.LVL70:
 228:../switch_sdk/core/drv/phy/phy_int_serdes.c ****             break;
 909              		.loc 1 228 13 view .LVU208
 910 0018 10F0FF03 		ands	r3, r0, #255
 911 001c 02D1     		bne	.L55
 234:../switch_sdk/core/drv/phy/phy_int_serdes.c **** }
 912              		.loc 1 234 12 view .LVU209
 913 001e 0020     		movs	r0, #0
 914              	.LVL71:
 915              	.L46:
 235:../switch_sdk/core/drv/phy/phy_int_serdes.c **** 
 916              		.loc 1 235 1 view .LVU210
 917 0020 02B0     		add	sp, sp, #8
 918              		.cfi_remember_state
 919              		.cfi_def_cfa_offset 8
 920              		@ sp needed
 921 0022 10BD     		pop	{r4, pc}
 922              	.LVL72:
 923              	.L55:
 924              		.cfi_restore_state
 228:../switch_sdk/core/drv/phy/phy_int_serdes.c ****             break;
 925              		.loc 1 228 13 is_stmt 1 discriminator 1 view .LVU211
 228:../switch_sdk/core/drv/phy/phy_int_serdes.c ****             break;
 926              		.loc 1 228 13 discriminator 1 view .LVU212
 927 0024 0B4A     		ldr	r2, .L57
 928 0026 1278     		ldrb	r2, [r2]	@ zero_extendqisi2
 929 0028 012A     		cmp	r2, #1
 930 002a 01D8     		bhi	.L56
 931              	.LVL73:
 932              	.L48:
 228:../switch_sdk/core/drv/phy/phy_int_serdes.c ****             break;
 933              		.loc 1 228 13 discriminator 5 view .LVU213
 228:../switch_sdk/core/drv/phy/phy_int_serdes.c ****             break;
 934              		.loc 1 228 13 discriminator 5 view .LVU214
 228:../switch_sdk/core/drv/phy/phy_int_serdes.c ****             break;
 935              		.loc 1 228 13 discriminator 5 view .LVU215
 936 002c E0B2     		uxtb	r0, r4
 937 002e F7E7     		b	.L46
 938              	.LVL74:
 939              	.L56:
 228:../switch_sdk/core/drv/phy/phy_int_serdes.c ****             break;
 940              		.loc 1 228 13 discriminator 3 view .LVU216
 941              	.LBB5:
 228:../switch_sdk/core/drv/phy/phy_int_serdes.c ****             break;
 942              		.loc 1 228 13 discriminator 3 view .LVU217
 943 0030 142B     		cmp	r3, #20
 944 0032 28BF     		it	cs
 945 0034 1423     		movcs	r3, #20
 946 0036 1A46     		mov	r2, r3
 947 0038 074B     		ldr	r3, .L57+4
 948 003a 0093     		str	r3, [sp]
 949 003c 074B     		ldr	r3, .L57+8
 950 003e 0849     		ldr	r1, .L57+12
 951 0040 51F82220 		ldr	r2, [r1, r2, lsl #2]
 952 0044 0749     		ldr	r1, .L57+16
 953 0046 8968     		ldr	r1, [r1, #8]
 954 0048 0748     		ldr	r0, .L57+20
 955              	.LVL75:
 228:../switch_sdk/core/drv/phy/phy_int_serdes.c ****             break;
 956              		.loc 1 228 13 is_stmt 0 discriminator 3 view .LVU218
 957 004a FFF7FEFF 		bl	osal_printf
 958              	.LVL76:
 959 004e EDE7     		b	.L48
 960              	.LVL77:
 961              	.L49:
 962              		.cfi_def_cfa_offset 0
 963              		.cfi_restore 4
 964              		.cfi_restore 14
 228:../switch_sdk/core/drv/phy/phy_int_serdes.c ****             break;
 965              		.loc 1 228 13 discriminator 3 view .LVU219
 966              	.LBE5:
 220:../switch_sdk/core/drv/phy/phy_int_serdes.c ****     }
 967              		.loc 1 220 16 view .LVU220
 968 0050 0520     		movs	r0, #5
 969              	.LVL78:
 235:../switch_sdk/core/drv/phy/phy_int_serdes.c **** 
 970              		.loc 1 235 1 view .LVU221
 971 0052 7047     		bx	lr
 972              	.L58:
 973              		.align	2
 974              	.L57:
 975 0054 00000000 		.word	yt_debug_level
 976 0058 00000000 		.word	__FUNCTION__.3
 977 005c 00000000 		.word	.LC3
 978 0060 00000000 		.word	_yt_errmsg
 979 0064 00000000 		.word	_yt_prompt_msg
 980 0068 54000000 		.word	.LC1
 981              		.cfi_endproc
 982              	.LFE22:
 984              		.section	.rodata.int_serdes_loopback_set.str1.4,"aMS",%progbits,1
 985              		.align	2
 986              	.LC4:
 987 0000 6748616C 		.ascii	"gHalCtrl[unit].pHalSwDrv->pDrvFunc->switch_intif_re"
 987      4374726C 
 987      5B756E69 
 987      745D2E70 
 987      48616C53 
 988 0033 61642875 		.ascii	"ad(unit, phy_addr, (0), &data)\000"
 988      6E69742C 
 988      20706879 
 988      5F616464 
 988      722C2028 
 989 0052 0000     		.align	2
 990              	.LC5:
 991 0054 6748616C 		.ascii	"gHalCtrl[unit].pHalSwDrv->pDrvFunc->switch_intif_wr"
 991      4374726C 
 991      5B756E69 
 991      745D2E70 
 991      48616C53 
 992 0087 69746528 		.ascii	"ite(unit, phy_addr, (0), data)\000"
 992      756E6974 
 992      2C207068 
 992      795F6164 
 992      64722C20 
 993 00a6 0000     		.align	2
 994              	.LC6:
 995 00a8 696E745F 		.ascii	"int_phy_ext_reg_write(unit, phy_addr, 0x0, 0x470)\000"
 995      7068795F 
 995      6578745F 
 995      7265675F 
 995      77726974 
 996              		.section	.text.int_serdes_loopback_set,"ax",%progbits
 997              		.align	1
 998              		.global	int_serdes_loopback_set
 999              		.syntax unified
 1000              		.thumb
 1001              		.thumb_func
 1003              	int_serdes_loopback_set:
 1004              	.LVL79:
 1005              	.LFB23:
 238:../switch_sdk/core/drv/phy/phy_int_serdes.c ****     yt_ret_t ret;
 1006              		.loc 1 238 1 is_stmt 1 view -0
 1007              		.cfi_startproc
 1008              		@ args = 0, pretend = 0, frame = 8
 1009              		@ frame_needed = 0, uses_anonymous_args = 0
 238:../switch_sdk/core/drv/phy/phy_int_serdes.c ****     yt_ret_t ret;
 1010              		.loc 1 238 1 is_stmt 0 view .LVU223
 1011 0000 70B5     		push	{r4, r5, r6, lr}
 1012              		.cfi_def_cfa_offset 16
 1013              		.cfi_offset 4, -16
 1014              		.cfi_offset 5, -12
 1015              		.cfi_offset 6, -8
 1016              		.cfi_offset 14, -4
 1017 0002 84B0     		sub	sp, sp, #16
 1018              		.cfi_def_cfa_offset 32
 239:../switch_sdk/core/drv/phy/phy_int_serdes.c ****     uint16_t data;
 1019              		.loc 1 239 5 is_stmt 1 view .LVU224
 240:../switch_sdk/core/drv/phy/phy_int_serdes.c **** 
 1020              		.loc 1 240 5 view .LVU225
 242:../switch_sdk/core/drv/phy/phy_int_serdes.c ****     {
 1021              		.loc 1 242 5 view .LVU226
 1022 0004 012A     		cmp	r2, #1
 1023 0006 6ED0     		beq	.L66
 1024 0008 0446     		mov	r4, r0
 1025 000a 0E46     		mov	r6, r1
 1026 000c 022A     		cmp	r2, #2
 1027 000e 4ED0     		beq	.L61
 1028 0010 1AB1     		cbz	r2, .L69
 1029 0012 0525     		movs	r5, #5
 1030              	.LVL80:
 1031              	.L59:
 259:../switch_sdk/core/drv/phy/phy_int_serdes.c **** 
 1032              		.loc 1 259 1 is_stmt 0 view .LVU227
 1033 0014 2846     		mov	r0, r5
 1034 0016 04B0     		add	sp, sp, #16
 1035              		.cfi_remember_state
 1036              		.cfi_def_cfa_offset 16
 1037              		@ sp needed
 1038 0018 70BD     		pop	{r4, r5, r6, pc}
 1039              	.LVL81:
 1040              	.L69:
 1041              		.cfi_restore_state
 245:../switch_sdk/core/drv/phy/phy_int_serdes.c ****             SET_BIT(data, 14);
 1042              		.loc 1 245 13 is_stmt 1 view .LVU228
 245:../switch_sdk/core/drv/phy/phy_int_serdes.c ****             SET_BIT(data, 14);
 1043              		.loc 1 245 13 view .LVU229
 1044 001a 7423     		movs	r3, #116
 1045 001c 00FB03F3 		mul	r3, r0, r3
 1046 0020 324A     		ldr	r2, .L71
 1047              	.LVL82:
 245:../switch_sdk/core/drv/phy/phy_int_serdes.c ****             SET_BIT(data, 14);
 1048              		.loc 1 245 13 is_stmt 0 view .LVU230
 1049 0022 D358     		ldr	r3, [r2, r3]
 1050 0024 5B68     		ldr	r3, [r3, #4]
 1051 0026 DD68     		ldr	r5, [r3, #12]
 1052 0028 0DF10E03 		add	r3, sp, #14
 1053 002c 0022     		movs	r2, #0
 1054 002e A847     		blx	r5
 1055              	.LVL83:
 245:../switch_sdk/core/drv/phy/phy_int_serdes.c ****             SET_BIT(data, 14);
 1056              		.loc 1 245 13 view .LVU231
 1057 0030 0546     		mov	r5, r0
 1058 0032 40BB     		cbnz	r0, .L70
 245:../switch_sdk/core/drv/phy/phy_int_serdes.c ****             SET_BIT(data, 14);
 1059              		.loc 1 245 13 is_stmt 1 discriminator 2 view .LVU232
 246:../switch_sdk/core/drv/phy/phy_int_serdes.c ****             CMM_ERR_CHK(HALSWDRV_FUNC(unit)->switch_intif_write(unit, phy_addr, PHY_BASE_CTRL_REG_0
 1060              		.loc 1 246 13 discriminator 2 view .LVU233
 1061 0034 BDF80E30 		ldrh	r3, [sp, #14]
 1062 0038 43F48043 		orr	r3, r3, #16384
 1063 003c 9BB2     		uxth	r3, r3
 1064 003e ADF80E30 		strh	r3, [sp, #14]	@ movhi
 247:../switch_sdk/core/drv/phy/phy_int_serdes.c ****             break;
 1065              		.loc 1 247 13 discriminator 2 view .LVU234
 247:../switch_sdk/core/drv/phy/phy_int_serdes.c ****             break;
 1066              		.loc 1 247 13 discriminator 2 view .LVU235
 1067 0042 7422     		movs	r2, #116
 1068 0044 04FB02F2 		mul	r2, r4, r2
 1069 0048 2849     		ldr	r1, .L71
 1070 004a 8A58     		ldr	r2, [r1, r2]
 1071 004c 5268     		ldr	r2, [r2, #4]
 1072 004e 1569     		ldr	r5, [r2, #16]
 1073 0050 0022     		movs	r2, #0
 1074 0052 3146     		mov	r1, r6
 1075 0054 2046     		mov	r0, r4
 1076              	.LVL84:
 247:../switch_sdk/core/drv/phy/phy_int_serdes.c ****             break;
 1077              		.loc 1 247 13 is_stmt 0 discriminator 2 view .LVU236
 1078 0056 A847     		blx	r5
 1079              	.LVL85:
 247:../switch_sdk/core/drv/phy/phy_int_serdes.c ****             break;
 1080              		.loc 1 247 13 discriminator 2 view .LVU237
 1081 0058 0546     		mov	r5, r0
 1082 005a 0028     		cmp	r0, #0
 1083 005c DAD0     		beq	.L59
 247:../switch_sdk/core/drv/phy/phy_int_serdes.c ****             break;
 1084              		.loc 1 247 13 is_stmt 1 discriminator 1 view .LVU238
 247:../switch_sdk/core/drv/phy/phy_int_serdes.c ****             break;
 1085              		.loc 1 247 13 discriminator 1 view .LVU239
 1086 005e 244B     		ldr	r3, .L71+4
 1087 0060 1B78     		ldrb	r3, [r3]	@ zero_extendqisi2
 1088 0062 012B     		cmp	r3, #1
 1089 0064 D6D9     		bls	.L59
 247:../switch_sdk/core/drv/phy/phy_int_serdes.c ****             break;
 1090              		.loc 1 247 13 discriminator 3 view .LVU240
 1091              	.LBB6:
 247:../switch_sdk/core/drv/phy/phy_int_serdes.c ****             break;
 1092              		.loc 1 247 13 discriminator 3 view .LVU241
 1093 0066 0146     		mov	r1, r0
 1094 0068 1428     		cmp	r0, #20
 1095 006a 28BF     		it	cs
 1096 006c 1421     		movcs	r1, #20
 1097 006e 214B     		ldr	r3, .L71+8
 1098 0070 0093     		str	r3, [sp]
 1099 0072 214B     		ldr	r3, .L71+12
 1100 0074 214A     		ldr	r2, .L71+16
 1101 0076 52F82120 		ldr	r2, [r2, r1, lsl #2]
 1102 007a 2149     		ldr	r1, .L71+20
 1103 007c 8968     		ldr	r1, [r1, #8]
 1104 007e 2148     		ldr	r0, .L71+24
 1105              	.LVL86:
 247:../switch_sdk/core/drv/phy/phy_int_serdes.c ****             break;
 1106              		.loc 1 247 13 is_stmt 0 discriminator 3 view .LVU242
 1107 0080 FFF7FEFF 		bl	osal_printf
 1108              	.LVL87:
 1109              	.LBE6:
 247:../switch_sdk/core/drv/phy/phy_int_serdes.c ****             break;
 1110              		.loc 1 247 13 is_stmt 1 discriminator 3 view .LVU243
 247:../switch_sdk/core/drv/phy/phy_int_serdes.c ****             break;
 1111              		.loc 1 247 13 discriminator 3 view .LVU244
 247:../switch_sdk/core/drv/phy/phy_int_serdes.c ****             break;
 1112              		.loc 1 247 13 discriminator 3 view .LVU245
 1113 0084 C6E7     		b	.L59
 1114              	.LVL88:
 1115              	.L70:
 245:../switch_sdk/core/drv/phy/phy_int_serdes.c ****             SET_BIT(data, 14);
 1116              		.loc 1 245 13 discriminator 1 view .LVU246
 245:../switch_sdk/core/drv/phy/phy_int_serdes.c ****             SET_BIT(data, 14);
 1117              		.loc 1 245 13 discriminator 1 view .LVU247
 1118 0086 1A4B     		ldr	r3, .L71+4
 1119 0088 1B78     		ldrb	r3, [r3]	@ zero_extendqisi2
 1120 008a 012B     		cmp	r3, #1
 1121 008c C2D9     		bls	.L59
 245:../switch_sdk/core/drv/phy/phy_int_serdes.c ****             SET_BIT(data, 14);
 1122              		.loc 1 245 13 discriminator 3 view .LVU248
 1123              	.LBB7:
 245:../switch_sdk/core/drv/phy/phy_int_serdes.c ****             SET_BIT(data, 14);
 1124              		.loc 1 245 13 discriminator 3 view .LVU249
 1125 008e 0146     		mov	r1, r0
 1126 0090 1428     		cmp	r0, #20
 1127 0092 28BF     		it	cs
 1128 0094 1421     		movcs	r1, #20
 1129 0096 174B     		ldr	r3, .L71+8
 1130 0098 0093     		str	r3, [sp]
 1131 009a 1B4B     		ldr	r3, .L71+28
 1132 009c 174A     		ldr	r2, .L71+16
 1133 009e 52F82120 		ldr	r2, [r2, r1, lsl #2]
 1134 00a2 1749     		ldr	r1, .L71+20
 1135 00a4 8968     		ldr	r1, [r1, #8]
 1136 00a6 1748     		ldr	r0, .L71+24
 1137              	.LVL89:
 245:../switch_sdk/core/drv/phy/phy_int_serdes.c ****             SET_BIT(data, 14);
 1138              		.loc 1 245 13 is_stmt 0 discriminator 3 view .LVU250
 1139 00a8 FFF7FEFF 		bl	osal_printf
 1140              	.LVL90:
 1141              	.LBE7:
 245:../switch_sdk/core/drv/phy/phy_int_serdes.c ****             SET_BIT(data, 14);
 1142              		.loc 1 245 13 is_stmt 1 discriminator 3 view .LVU251
 245:../switch_sdk/core/drv/phy/phy_int_serdes.c ****             SET_BIT(data, 14);
 1143              		.loc 1 245 13 discriminator 3 view .LVU252
 245:../switch_sdk/core/drv/phy/phy_int_serdes.c ****             SET_BIT(data, 14);
 1144              		.loc 1 245 13 discriminator 3 view .LVU253
 1145 00ac B2E7     		b	.L59
 1146              	.LVL91:
 1147              	.L61:
 252:../switch_sdk/core/drv/phy/phy_int_serdes.c ****             break;
 1148              		.loc 1 252 13 view .LVU254
 252:../switch_sdk/core/drv/phy/phy_int_serdes.c ****             break;
 1149              		.loc 1 252 13 view .LVU255
 1150 00ae 4FF48E63 		mov	r3, #1136
 1151 00b2 0022     		movs	r2, #0
 1152              	.LVL92:
 252:../switch_sdk/core/drv/phy/phy_int_serdes.c ****             break;
 1153              		.loc 1 252 13 is_stmt 0 view .LVU256
 1154 00b4 FFF7FEFF 		bl	int_phy_ext_reg_write
 1155              	.LVL93:
 252:../switch_sdk/core/drv/phy/phy_int_serdes.c ****             break;
 1156              		.loc 1 252 13 view .LVU257
 1157 00b8 0546     		mov	r5, r0
 1158 00ba 0028     		cmp	r0, #0
 1159 00bc AAD0     		beq	.L59
 252:../switch_sdk/core/drv/phy/phy_int_serdes.c ****             break;
 1160              		.loc 1 252 13 is_stmt 1 discriminator 1 view .LVU258
 252:../switch_sdk/core/drv/phy/phy_int_serdes.c ****             break;
 1161              		.loc 1 252 13 discriminator 1 view .LVU259
 1162 00be 0C4B     		ldr	r3, .L71+4
 1163 00c0 1B78     		ldrb	r3, [r3]	@ zero_extendqisi2
 1164 00c2 012B     		cmp	r3, #1
 1165 00c4 A6D9     		bls	.L59
 252:../switch_sdk/core/drv/phy/phy_int_serdes.c ****             break;
 1166              		.loc 1 252 13 discriminator 3 view .LVU260
 1167              	.LBB8:
 252:../switch_sdk/core/drv/phy/phy_int_serdes.c ****             break;
 1168              		.loc 1 252 13 discriminator 3 view .LVU261
 1169 00c6 0146     		mov	r1, r0
 1170 00c8 1428     		cmp	r0, #20
 1171 00ca 28BF     		it	cs
 1172 00cc 1421     		movcs	r1, #20
 1173 00ce 094B     		ldr	r3, .L71+8
 1174 00d0 0093     		str	r3, [sp]
 1175 00d2 0E4B     		ldr	r3, .L71+32
 1176 00d4 094A     		ldr	r2, .L71+16
 1177 00d6 52F82120 		ldr	r2, [r2, r1, lsl #2]
 1178 00da 0949     		ldr	r1, .L71+20
 1179 00dc 8968     		ldr	r1, [r1, #8]
 1180 00de 0948     		ldr	r0, .L71+24
 1181              	.LVL94:
 252:../switch_sdk/core/drv/phy/phy_int_serdes.c ****             break;
 1182              		.loc 1 252 13 is_stmt 0 discriminator 3 view .LVU262
 1183 00e0 FFF7FEFF 		bl	osal_printf
 1184              	.LVL95:
 1185              	.LBE8:
 252:../switch_sdk/core/drv/phy/phy_int_serdes.c ****             break;
 1186              		.loc 1 252 13 is_stmt 1 discriminator 3 view .LVU263
 252:../switch_sdk/core/drv/phy/phy_int_serdes.c ****             break;
 1187              		.loc 1 252 13 discriminator 3 view .LVU264
 252:../switch_sdk/core/drv/phy/phy_int_serdes.c ****             break;
 1188              		.loc 1 252 13 discriminator 3 view .LVU265
 1189 00e4 96E7     		b	.L59
 1190              	.LVL96:
 1191              	.L66:
 258:../switch_sdk/core/drv/phy/phy_int_serdes.c **** }
 1192              		.loc 1 258 12 is_stmt 0 view .LVU266
 1193 00e6 0025     		movs	r5, #0
 1194 00e8 94E7     		b	.L59
 1195              	.L72:
 1196 00ea 00BF     		.align	2
 1197              	.L71:
 1198 00ec 00000000 		.word	gHalCtrl
 1199 00f0 00000000 		.word	yt_debug_level
 1200 00f4 00000000 		.word	__FUNCTION__.2
 1201 00f8 54000000 		.word	.LC5
 1202 00fc 00000000 		.word	_yt_errmsg
 1203 0100 00000000 		.word	_yt_prompt_msg
 1204 0104 54000000 		.word	.LC1
 1205 0108 00000000 		.word	.LC4
 1206 010c A8000000 		.word	.LC6
 1207              		.cfi_endproc
 1208              	.LFE23:
 1210              		.section	.rodata.int_serdes_parallel_detection_set.str1.4,"aMS",%progbits,1
 1211              		.align	2
 1212              	.LC7:
 1213 0000 696E745F 		.ascii	"int_phy_ext_reg_read(unit, phy_addr, 0xdb, &regData"
 1213      7068795F 
 1213      6578745F 
 1213      7265675F 
 1213      72656164 
 1214 0033 2900     		.ascii	")\000"
 1215 0035 000000   		.align	2
 1216              	.LC8:
 1217 0038 696E745F 		.ascii	"int_phy_ext_reg_write(unit, phy_addr, 0xdb, regData"
 1217      7068795F 
 1217      6578745F 
 1217      7265675F 
 1217      77726974 
 1218 006b 2900     		.ascii	")\000"
 1219              		.section	.text.int_serdes_parallel_detection_set,"ax",%progbits
 1220              		.align	1
 1221              		.global	int_serdes_parallel_detection_set
 1222              		.syntax unified
 1223              		.thumb
 1224              		.thumb_func
 1226              	int_serdes_parallel_detection_set:
 1227              	.LVL97:
 1228              	.LFB26:
 276:../switch_sdk/core/drv/phy/phy_int_serdes.c **** 
 277:../switch_sdk/core/drv/phy/phy_int_serdes.c **** yt_ret_t int_serdes_parallel_detection_set(yt_unit_t unit, uint8_t phy_addr, yt_enable_t enable)
 278:../switch_sdk/core/drv/phy/phy_int_serdes.c **** {
 1229              		.loc 1 278 1 is_stmt 1 view -0
 1230              		.cfi_startproc
 1231              		@ args = 0, pretend = 0, frame = 8
 1232              		@ frame_needed = 0, uses_anonymous_args = 0
 1233              		.loc 1 278 1 is_stmt 0 view .LVU268
 1234 0000 F0B5     		push	{r4, r5, r6, r7, lr}
 1235              		.cfi_def_cfa_offset 20
 1236              		.cfi_offset 4, -20
 1237              		.cfi_offset 5, -16
 1238              		.cfi_offset 6, -12
 1239              		.cfi_offset 7, -8
 1240              		.cfi_offset 14, -4
 1241 0002 85B0     		sub	sp, sp, #20
 1242              		.cfi_def_cfa_offset 40
 1243 0004 0746     		mov	r7, r0
 1244 0006 0E46     		mov	r6, r1
 1245 0008 1446     		mov	r4, r2
 279:../switch_sdk/core/drv/phy/phy_int_serdes.c ****     yt_ret_t ret;
 1246              		.loc 1 279 5 is_stmt 1 view .LVU269
 280:../switch_sdk/core/drv/phy/phy_int_serdes.c ****     uint16_t regData = 0;
 1247              		.loc 1 280 5 view .LVU270
 1248              		.loc 1 280 14 is_stmt 0 view .LVU271
 1249 000a 0023     		movs	r3, #0
 1250 000c ADF80E30 		strh	r3, [sp, #14]	@ movhi
 281:../switch_sdk/core/drv/phy/phy_int_serdes.c **** 
 282:../switch_sdk/core/drv/phy/phy_int_serdes.c ****     CMM_ERR_CHK(int_phy_ext_reg_read(unit, phy_addr, 0xdb, &regData), ret);
 1251              		.loc 1 282 5 is_stmt 1 view .LVU272
 1252              		.loc 1 282 5 view .LVU273
 1253 0010 0DF10E03 		add	r3, sp, #14
 1254 0014 DB22     		movs	r2, #219
 1255              	.LVL98:
 1256              		.loc 1 282 5 is_stmt 0 view .LVU274
 1257 0016 FFF7FEFF 		bl	int_phy_ext_reg_read
 1258              	.LVL99:
 1259              		.loc 1 282 5 view .LVU275
 1260 001a A0B9     		cbnz	r0, .L81
 1261              		.loc 1 282 5 is_stmt 1 discriminator 2 view .LVU276
 283:../switch_sdk/core/drv/phy/phy_int_serdes.c ****     if (enable)
 1262              		.loc 1 283 5 discriminator 2 view .LVU277
 1263              		.loc 1 283 8 is_stmt 0 discriminator 2 view .LVU278
 1264 001c 44B3     		cbz	r4, .L77
 284:../switch_sdk/core/drv/phy/phy_int_serdes.c ****     {
 285:../switch_sdk/core/drv/phy/phy_int_serdes.c ****         SET_BIT(regData, 15);
 1265              		.loc 1 285 9 is_stmt 1 view .LVU279
 1266 001e BDF80E30 		ldrh	r3, [sp, #14]
 1267 0022 6FEA4343 		mvn	r3, r3, lsl #17
 1268 0026 6FEA5343 		mvn	r3, r3, lsr #17
 1269 002a ADF80E30 		strh	r3, [sp, #14]	@ movhi
 1270              	.L78:
 286:../switch_sdk/core/drv/phy/phy_int_serdes.c ****     }
 287:../switch_sdk/core/drv/phy/phy_int_serdes.c ****     else
 288:../switch_sdk/core/drv/phy/phy_int_serdes.c ****     {
 289:../switch_sdk/core/drv/phy/phy_int_serdes.c ****         CLEAR_BIT(regData, 15);
 290:../switch_sdk/core/drv/phy/phy_int_serdes.c ****     }
 291:../switch_sdk/core/drv/phy/phy_int_serdes.c ****     CMM_ERR_CHK(int_phy_ext_reg_write(unit, phy_addr, 0xdb, regData), ret);
 1271              		.loc 1 291 5 view .LVU280
 1272              		.loc 1 291 5 view .LVU281
 1273 002e BDF80E30 		ldrh	r3, [sp, #14]
 1274 0032 DB22     		movs	r2, #219
 1275 0034 3146     		mov	r1, r6
 1276 0036 3846     		mov	r0, r7
 1277              	.LVL100:
 1278              		.loc 1 291 5 is_stmt 0 view .LVU282
 1279 0038 FFF7FEFF 		bl	int_phy_ext_reg_write
 1280              	.LVL101:
 1281              		.loc 1 291 5 view .LVU283
 1282 003c 0546     		mov	r5, r0
 1283 003e F0B9     		cbnz	r0, .L82
 1284              	.LVL102:
 1285              	.L73:
 292:../switch_sdk/core/drv/phy/phy_int_serdes.c ****     return CMM_ERR_OK;
 293:../switch_sdk/core/drv/phy/phy_int_serdes.c **** }
 1286              		.loc 1 293 1 view .LVU284
 1287 0040 2846     		mov	r0, r5
 1288 0042 05B0     		add	sp, sp, #20
 1289              		.cfi_remember_state
 1290              		.cfi_def_cfa_offset 20
 1291              		@ sp needed
 1292 0044 F0BD     		pop	{r4, r5, r6, r7, pc}
 1293              	.LVL103:
 1294              	.L81:
 1295              		.cfi_restore_state
 1296              		.loc 1 293 1 view .LVU285
 1297 0046 0546     		mov	r5, r0
 282:../switch_sdk/core/drv/phy/phy_int_serdes.c ****     if (enable)
 1298              		.loc 1 282 5 is_stmt 1 discriminator 1 view .LVU286
 282:../switch_sdk/core/drv/phy/phy_int_serdes.c ****     if (enable)
 1299              		.loc 1 282 5 discriminator 1 view .LVU287
 1300 0048 174B     		ldr	r3, .L83
 1301 004a 1B78     		ldrb	r3, [r3]	@ zero_extendqisi2
 1302 004c 012B     		cmp	r3, #1
 1303 004e F7D9     		bls	.L73
 282:../switch_sdk/core/drv/phy/phy_int_serdes.c ****     if (enable)
 1304              		.loc 1 282 5 discriminator 3 view .LVU288
 1305              	.LBB9:
 282:../switch_sdk/core/drv/phy/phy_int_serdes.c ****     if (enable)
 1306              		.loc 1 282 5 discriminator 3 view .LVU289
 1307 0050 0146     		mov	r1, r0
 1308 0052 1428     		cmp	r0, #20
 1309 0054 28BF     		it	cs
 1310 0056 1421     		movcs	r1, #20
 1311 0058 144B     		ldr	r3, .L83+4
 1312 005a 0093     		str	r3, [sp]
 1313 005c 144B     		ldr	r3, .L83+8
 1314 005e 154A     		ldr	r2, .L83+12
 1315 0060 52F82120 		ldr	r2, [r2, r1, lsl #2]
 1316 0064 1449     		ldr	r1, .L83+16
 1317 0066 8968     		ldr	r1, [r1, #8]
 1318 0068 1448     		ldr	r0, .L83+20
 1319              	.LVL104:
 282:../switch_sdk/core/drv/phy/phy_int_serdes.c ****     if (enable)
 1320              		.loc 1 282 5 is_stmt 0 discriminator 3 view .LVU290
 1321 006a FFF7FEFF 		bl	osal_printf
 1322              	.LVL105:
 1323              	.LBE9:
 282:../switch_sdk/core/drv/phy/phy_int_serdes.c ****     if (enable)
 1324              		.loc 1 282 5 is_stmt 1 discriminator 3 view .LVU291
 282:../switch_sdk/core/drv/phy/phy_int_serdes.c ****     if (enable)
 1325              		.loc 1 282 5 discriminator 3 view .LVU292
 282:../switch_sdk/core/drv/phy/phy_int_serdes.c ****     if (enable)
 1326              		.loc 1 282 5 discriminator 3 view .LVU293
 1327 006e E7E7     		b	.L73
 1328              	.LVL106:
 1329              	.L77:
 289:../switch_sdk/core/drv/phy/phy_int_serdes.c ****     }
 1330              		.loc 1 289 9 view .LVU294
 1331 0070 BDF80E30 		ldrh	r3, [sp, #14]
 1332 0074 C3F30E03 		ubfx	r3, r3, #0, #15
 1333 0078 ADF80E30 		strh	r3, [sp, #14]	@ movhi
 1334 007c D7E7     		b	.L78
 1335              	.L82:
 291:../switch_sdk/core/drv/phy/phy_int_serdes.c ****     return CMM_ERR_OK;
 1336              		.loc 1 291 5 discriminator 1 view .LVU295
 291:../switch_sdk/core/drv/phy/phy_int_serdes.c ****     return CMM_ERR_OK;
 1337              		.loc 1 291 5 discriminator 1 view .LVU296
 1338 007e 0A4B     		ldr	r3, .L83
 1339 0080 1B78     		ldrb	r3, [r3]	@ zero_extendqisi2
 1340 0082 012B     		cmp	r3, #1
 1341 0084 DCD9     		bls	.L73
 291:../switch_sdk/core/drv/phy/phy_int_serdes.c ****     return CMM_ERR_OK;
 1342              		.loc 1 291 5 discriminator 3 view .LVU297
 1343              	.LBB10:
 291:../switch_sdk/core/drv/phy/phy_int_serdes.c ****     return CMM_ERR_OK;
 1344              		.loc 1 291 5 discriminator 3 view .LVU298
 1345 0086 0146     		mov	r1, r0
 1346 0088 1428     		cmp	r0, #20
 1347 008a 28BF     		it	cs
 1348 008c 1421     		movcs	r1, #20
 1349 008e 074B     		ldr	r3, .L83+4
 1350 0090 0093     		str	r3, [sp]
 1351 0092 0B4B     		ldr	r3, .L83+24
 1352 0094 074A     		ldr	r2, .L83+12
 1353 0096 52F82120 		ldr	r2, [r2, r1, lsl #2]
 1354 009a 0749     		ldr	r1, .L83+16
 1355 009c 8968     		ldr	r1, [r1, #8]
 1356 009e 0748     		ldr	r0, .L83+20
 1357              	.LVL107:
 291:../switch_sdk/core/drv/phy/phy_int_serdes.c ****     return CMM_ERR_OK;
 1358              		.loc 1 291 5 is_stmt 0 discriminator 3 view .LVU299
 1359 00a0 FFF7FEFF 		bl	osal_printf
 1360              	.LVL108:
 1361              	.LBE10:
 291:../switch_sdk/core/drv/phy/phy_int_serdes.c ****     return CMM_ERR_OK;
 1362              		.loc 1 291 5 is_stmt 1 discriminator 3 view .LVU300
 291:../switch_sdk/core/drv/phy/phy_int_serdes.c ****     return CMM_ERR_OK;
 1363              		.loc 1 291 5 discriminator 3 view .LVU301
 291:../switch_sdk/core/drv/phy/phy_int_serdes.c ****     return CMM_ERR_OK;
 1364              		.loc 1 291 5 discriminator 3 view .LVU302
 1365 00a4 CCE7     		b	.L73
 1366              	.L84:
 1367 00a6 00BF     		.align	2
 1368              	.L83:
 1369 00a8 00000000 		.word	yt_debug_level
 1370 00ac 00000000 		.word	__FUNCTION__.1
 1371 00b0 00000000 		.word	.LC7
 1372 00b4 00000000 		.word	_yt_errmsg
 1373 00b8 00000000 		.word	_yt_prompt_msg
 1374 00bc 54000000 		.word	.LC1
 1375 00c0 38000000 		.word	.LC8
 1376              		.cfi_endproc
 1377              	.LFE26:
 1379              		.section	.text.int_serdes_parallel_detection_get,"ax",%progbits
 1380              		.align	1
 1381              		.global	int_serdes_parallel_detection_get
 1382              		.syntax unified
 1383              		.thumb
 1384              		.thumb_func
 1386              	int_serdes_parallel_detection_get:
 1387              	.LVL109:
 1388              	.LFB27:
 294:../switch_sdk/core/drv/phy/phy_int_serdes.c **** 
 295:../switch_sdk/core/drv/phy/phy_int_serdes.c **** yt_ret_t int_serdes_parallel_detection_get(yt_unit_t unit, uint8_t phy_addr, yt_enable_t *pEnable)
 296:../switch_sdk/core/drv/phy/phy_int_serdes.c **** {
 1389              		.loc 1 296 1 view -0
 1390              		.cfi_startproc
 1391              		@ args = 0, pretend = 0, frame = 8
 1392              		@ frame_needed = 0, uses_anonymous_args = 0
 1393              		.loc 1 296 1 is_stmt 0 view .LVU304
 1394 0000 30B5     		push	{r4, r5, lr}
 1395              		.cfi_def_cfa_offset 12
 1396              		.cfi_offset 4, -12
 1397              		.cfi_offset 5, -8
 1398              		.cfi_offset 14, -4
 1399 0002 85B0     		sub	sp, sp, #20
 1400              		.cfi_def_cfa_offset 32
 1401 0004 1446     		mov	r4, r2
 297:../switch_sdk/core/drv/phy/phy_int_serdes.c ****     yt_ret_t ret;
 1402              		.loc 1 297 5 is_stmt 1 view .LVU305
 298:../switch_sdk/core/drv/phy/phy_int_serdes.c ****     uint16_t regData = 0;
 1403              		.loc 1 298 5 view .LVU306
 1404              		.loc 1 298 14 is_stmt 0 view .LVU307
 1405 0006 0023     		movs	r3, #0
 1406 0008 ADF80E30 		strh	r3, [sp, #14]	@ movhi
 299:../switch_sdk/core/drv/phy/phy_int_serdes.c **** 
 300:../switch_sdk/core/drv/phy/phy_int_serdes.c ****     CMM_ERR_CHK(int_phy_ext_reg_read(unit, phy_addr, 0xdb, &regData), ret);
 1407              		.loc 1 300 5 is_stmt 1 view .LVU308
 1408              		.loc 1 300 5 view .LVU309
 1409 000c 0DF10E03 		add	r3, sp, #14
 1410 0010 DB22     		movs	r2, #219
 1411              	.LVL110:
 1412              		.loc 1 300 5 is_stmt 0 view .LVU310
 1413 0012 FFF7FEFF 		bl	int_phy_ext_reg_read
 1414              	.LVL111:
 1415              		.loc 1 300 5 view .LVU311
 1416 0016 0546     		mov	r5, r0
 1417 0018 40B9     		cbnz	r0, .L90
 1418              		.loc 1 300 5 is_stmt 1 discriminator 2 view .LVU312
 301:../switch_sdk/core/drv/phy/phy_int_serdes.c ****     regData = (regData>>15) & 0x1;
 1419              		.loc 1 301 5 discriminator 2 view .LVU313
 1420              		.loc 1 301 13 is_stmt 0 discriminator 2 view .LVU314
 1421 001a BDF80E30 		ldrh	r3, [sp, #14]
 1422 001e DB0B     		lsrs	r3, r3, #15
 1423 0020 ADF80E30 		strh	r3, [sp, #14]	@ movhi
 302:../switch_sdk/core/drv/phy/phy_int_serdes.c ****     *pEnable = regData ? YT_ENABLE : YT_DISABLE;
 1424              		.loc 1 302 5 is_stmt 1 discriminator 2 view .LVU315
 1425              		.loc 1 302 14 is_stmt 0 discriminator 2 view .LVU316
 1426 0024 2370     		strb	r3, [r4]
 303:../switch_sdk/core/drv/phy/phy_int_serdes.c ****     return CMM_ERR_OK;
 1427              		.loc 1 303 5 is_stmt 1 discriminator 2 view .LVU317
 1428              	.LVL112:
 1429              	.L85:
 304:../switch_sdk/core/drv/phy/phy_int_serdes.c **** }...
 1430              		.loc 1 304 1 is_stmt 0 view .LVU318
 1431 0026 2846     		mov	r0, r5
 1432 0028 05B0     		add	sp, sp, #20
 1433              		.cfi_remember_state
 1434              		.cfi_def_cfa_offset 12
 1435              		@ sp needed
 1436 002a 30BD     		pop	{r4, r5, pc}
 1437              	.LVL113:
 1438              	.L90:
 1439              		.cfi_restore_state
 300:../switch_sdk/core/drv/phy/phy_int_serdes.c ****     CMM_ERR_CHK(int_phy_ext_reg_read(unit, phy_addr, 0xdb, &regData), ret);
 1440              		.loc 1 300 5 is_stmt 1 discriminator 1 view .LVU319
 300:../switch_sdk/core/drv/phy/phy_int_serdes.c ****     CMM_ERR_CHK(int_phy_ext_reg_read(unit, phy_addr, 0xdb, &regData), ret);
 1441              		.loc 1 300 5 discriminator 1 view .LVU320
 1442 002c 094B     		ldr	r3, .L91
 1443 002e 1B78     		ldrb	r3, [r3]	@ zero_extendqisi2
 1444 0030 012B     		cmp	r3, #1
 1445 0032 F8D9     		bls	.L85
 300:../switch_sdk/core/drv/phy/phy_int_serdes.c ****     CMM_ERR_CHK(int_phy_ext_reg_read(unit, phy_addr, 0xdb, &regData), ret);
 1446              		.loc 1 300 5 discriminator 3 view .LVU321
 1447              	.LBB11:
 300:../switch_sdk/core/drv/phy/phy_int_serdes.c ****     CMM_ERR_CHK(int_phy_ext_reg_read(unit, phy_addr, 0xdb, &regData), ret);
 1448              		.loc 1 300 5 discriminator 3 view .LVU322
 1449 0034 0146     		mov	r1, r0
 1450 0036 1428     		cmp	r0, #20
 1451 0038 28BF     		it	cs
 1452 003a 1421     		movcs	r1, #20
 1453 003c 064B     		ldr	r3, .L91+4
 1454 003e 0093     		str	r3, [sp]
 1455 0040 064B     		ldr	r3, .L91+8
 1456 0042 074A     		ldr	r2, .L91+12
 1457 0044 52F82120 		ldr	r2, [r2, r1, lsl #2]
 1458 0048 0649     		ldr	r1, .L91+16
 1459 004a 8968     		ldr	r1, [r1, #8]
 1460 004c 0648     		ldr	r0, .L91+20
 1461              	.LVL114:
 300:../switch_sdk/core/drv/phy/phy_int_serdes.c ****     CMM_ERR_CHK(int_phy_ext_reg_read(unit, phy_addr, 0xdb, &regData), ret);
 1462              		.loc 1 300 5 is_stmt 0 discriminator 3 view .LVU323
 1463 004e FFF7FEFF 		bl	osal_printf
 1464              	.LVL115:
 1465              	.LBE11:
 300:../switch_sdk/core/drv/phy/phy_int_serdes.c ****     CMM_ERR_CHK(int_phy_ext_reg_read(unit, phy_addr, 0xdb, &regData), ret);
 1466              		.loc 1 300 5 is_stmt 1 discriminator 3 view .LVU324
 300:../switch_sdk/core/drv/phy/phy_int_serdes.c ****     CMM_ERR_CHK(int_phy_ext_reg_read(unit, phy_addr, 0xdb, &regData), ret);
 1467              		.loc 1 300 5 discriminator 3 view .LVU325
 300:../switch_sdk/core/drv/phy/phy_int_serdes.c ****     CMM_ERR_CHK(int_phy_ext_reg_read(unit, phy_addr, 0xdb, &regData), ret);
 1468              		.loc 1 300 5 discriminator 3 view .LVU326
 1469 0052 E8E7     		b	.L85
 1470              	.L92:
 1471              		.align	2
 1472              	.L91:
 1473 0054 00000000 		.word	yt_debug_level
 1474 0058 00000000 		.word	__FUNCTION__.0
 1475 005c 00000000 		.word	.LC7
 1476 0060 00000000 		.word	_yt_errmsg
 1477 0064 00000000 		.word	_yt_prompt_msg
 1478 0068 54000000 		.word	.LC1
 1479              		.cfi_endproc
 1480              	.LFE27:
 1482              		.section	.rodata.__FUNCTION__.0,"a"
 1483              		.align	2
 1486              	__FUNCTION__.0:
 1487 0000 696E745F 		.ascii	"int_serdes_parallel_detection_get\000"
 1487      73657264 
 1487      65735F70 
 1487      6172616C 
 1487      6C656C5F 
 1488              		.section	.rodata.__FUNCTION__.1,"a"
 1489              		.align	2
 1492              	__FUNCTION__.1:
 1493 0000 696E745F 		.ascii	"int_serdes_parallel_detection_set\000"
 1493      73657264 
 1493      65735F70 
 1493      6172616C 
 1493      6C656C5F 
 1494              		.section	.rodata.__FUNCTION__.2,"a"
 1495              		.align	2
 1498              	__FUNCTION__.2:
 1499 0000 696E745F 		.ascii	"int_serdes_loopback_set\000"
 1499      73657264 
 1499      65735F6C 
 1499      6F6F7062 
 1499      61636B5F 
 1500              		.section	.rodata.__FUNCTION__.3,"a"
 1501              		.align	2
 1504              	__FUNCTION__.3:
 1505 0000 696E745F 		.ascii	"int_serdes_test_template\000"
 1505      73657264 
 1505      65735F74 
 1505      6573745F 
 1505      74656D70 
 1506              		.section	.rodata.__FUNCTION__.4,"a"
 1507              		.align	2
 1510              	__FUNCTION__.4:
 1511 0000 696E745F 		.ascii	"int_serdes_enable_get\000"
 1511      73657264 
 1511      65735F65 
 1511      6E61626C 
 1511      655F6765 
 1512              		.section	.rodata.__FUNCTION__.5,"a"
 1513              		.align	2
 1516              	__FUNCTION__.5:
 1517 0000 696E745F 		.ascii	"int_serdes_enable_set\000"
 1517      73657264 
 1517      65735F65 
 1517      6E61626C 
 1517      655F7365 
 1518              		.global	int_serdes_drv
 1519              		.section	.data.int_serdes_drv,"aw"
 1520              		.align	2
 1523              	int_serdes_drv:
 1524 0000 01E8514F 		.word	1330767873
 1525 0004 02       		.byte	2
 1526 0005 000000   		.space	3
 1527 0008 00000000 		.word	int_serdes_drv_func
 1528              		.global	int_serdes_drv_func
 1529              		.section	.data.int_serdes_drv_func,"aw"
 1530              		.align	2
 1533              	int_serdes_drv_func:
 1534 0000 02       		.byte	2
 1535 0001 000000   		.space	3
 1536 0004 00000000 		.word	int_serdes_init
 1537 0008 00000000 		.word	int_serdes_restart
 1538 000c 00000000 		.word	int_serdes_enable_set
 1539 0010 00000000 		.word	int_serdes_enable_get
 1540 0014 00000000 		.word	int_serdes_medium_set
 1541 0018 00000000 		.word	int_serdes_medium_get
 1542 001c 00000000 		.word	int_serdes_autoNeg_enable_set
 1543 0020 00000000 		.word	int_serdes_autoNeg_enable_get
 1544 0024 00000000 		.word	int_serdes_autoNeg_ability_set
 1545 0028 00000000 		.word	int_serdes_autoNeg_ability_get
 1546 002c 00000000 		.word	int_serdes_force_speed_duplex_set
 1547 0030 00000000 		.word	int_serdes_force_speed_duplex_get
 1548 0034 00000000 		.word	int_serdes_link_status_get
 1549 0038 00000000 		.word	int_serdes_eee_enable_set
 1550 003c 00000000 		.word	int_serdes_eee_enable_get
 1551 0040 00000000 		.word	int_serdes_combo_mode_set
 1552 0044 00000000 		.word	int_serdes_combo_mode_get
 1553 0048 00000000 		.word	int_serdes_cable_diag
 1554 004c 00000000 		.word	int_serdes_interrupt_status_get
 1555 0050 00000000 		.word	int_serdes_test_template
 1556 0054 00000000 		.space	12
 1556      00000000 
 1556      00000000 
 1557 0060 00000000 		.word	int_serdes_loopback_set
 1558 0064 00000000 		.word	int_serdes_green_enable_set
 1559 0068 00000000 		.word	int_serdes_green_enable_get
 1560 006c 00000000 		.word	int_serdes_parallel_detection_set
 1561 0070 00000000 		.word	int_serdes_parallel_detection_get
 1562              		.text
 1563              	.Letext0:
 1564              		.file 2 "C:\\Users\\Dmitriy\\Desktop\\GD32F10x\\switch_sdk\\common\\include/yt_types.h"
 1565              		.file 3 "../switch_sdk/core/drv/phy/phy_chipdef.h"
 1566              		.file 4 "C:\\Users\\Dmitriy\\Desktop\\GD32F10x\\switch_sdk\\common\\include/yt_error.h"
 1567              		.file 5 "C:\\Users\\Dmitriy\\Desktop\\GD32F10x\\switch_sdk\\core\\fal\\chipdef/chipdef.h"
 1568              		.file 6 "C:\\Users\\Dmitriy\\Desktop\\GD32F10x\\switch_sdk\\include/yt_port.h"
 1569              		.file 7 "C:\\Users\\Dmitriy\\Desktop\\GD32F10x\\switch_sdk\\include/yt_debug.h"
 1570              		.file 8 "../switch_sdk/core/drv/phy/phy_drv.h"
 1571              		.file 9 "../switch_sdk/core/drv/phy/phy_int_serdes.h"
 1572              		.file 10 "C:\\Users\\Dmitriy\\Desktop\\GD32F10x\\switch_sdk\\core\\drv\\mac/sw_drv.h"
 1573              		.file 11 "C:\\Users\\Dmitriy\\Desktop\\GD32F10x\\switch_sdk\\core\\hal/hal_ctrl.h"