   1              		.cpu cortex-m3
   2              		.arch armv7-m
   3              		.fpu softvfp
   4              		.eabi_attribute 20, 1
   5              		.eabi_attribute 21, 1
   6              		.eabi_attribute 23, 3
   7              		.eabi_attribute 24, 1
   8              		.eabi_attribute 25, 1
   9              		.eabi_attribute 26, 1
  10              		.eabi_attribute 30, 1
  11              		.eabi_attribute 34, 1
  12              		.eabi_attribute 18, 4
  13              		.file	"hal_ctrl.c"
  14              		.text
  15              	.Ltext0:
  16              		.cfi_sections	.debug_frame
  17              		.file 1 "../switch_sdk/core/hal/hal_ctrl.c"
  18              		.section	.text.hal_ctrl_init,"ax",%progbits
  19              		.align	1
  20              		.global	hal_ctrl_init
  21              		.syntax unified
  22              		.thumb
  23              		.thumb_func
  25              	hal_ctrl_init:
  26              	.LFB3:
   1:../switch_sdk/core/hal/hal_ctrl.c **** /*******************************************************************************
   2:../switch_sdk/core/hal/hal_ctrl.c **** *                                                                              *
   3:../switch_sdk/core/hal/hal_ctrl.c **** *  Copyright (c), 2022, Motorcomm Electronic Technology Co.,Ltd.               *
   4:../switch_sdk/core/hal/hal_ctrl.c **** *  Motorcomm Confidential and Proprietary.                                     *
   5:../switch_sdk/core/hal/hal_ctrl.c **** *                                                                              *
   6:../switch_sdk/core/hal/hal_ctrl.c **** ********************************************************************************
   7:../switch_sdk/core/hal/hal_ctrl.c **** */
   8:../switch_sdk/core/hal/hal_ctrl.c **** 
   9:../switch_sdk/core/hal/hal_ctrl.c **** #include "hal_ctrl.h"
  10:../switch_sdk/core/hal/hal_ctrl.c **** #include "cal_cmm.h"
  11:../switch_sdk/core/hal/hal_ctrl.c **** #include "yt_error.h"
  12:../switch_sdk/core/hal/hal_ctrl.c **** 
  13:../switch_sdk/core/hal/hal_ctrl.c **** yt_hal_ctrl_t gHalCtrl[YT_UNIT_NUM];
  14:../switch_sdk/core/hal/hal_ctrl.c **** 
  15:../switch_sdk/core/hal/hal_ctrl.c **** uint32_t hal_ctrl_init(void)
  16:../switch_sdk/core/hal/hal_ctrl.c **** {
  27              		.loc 1 16 1 view -0
  28              		.cfi_startproc
  29              		@ args = 0, pretend = 0, frame = 0
  30              		@ frame_needed = 0, uses_anonymous_args = 0
  31 0000 70B5     		push	{r4, r5, r6, lr}
  32              		.cfi_def_cfa_offset 16
  33              		.cfi_offset 4, -16
  34              		.cfi_offset 5, -12
  35              		.cfi_offset 6, -8
  36              		.cfi_offset 14, -4
  17:../switch_sdk/core/hal/hal_ctrl.c ****     yt_unit_t unit;
  37              		.loc 1 17 5 view .LVU1
  18:../switch_sdk/core/hal/hal_ctrl.c ****     yt_port_t port_id;
  38              		.loc 1 18 5 view .LVU2
  19:../switch_sdk/core/hal/hal_ctrl.c ****     yt_macid_t mac_id;
  39              		.loc 1 19 5 view .LVU3
  20:../switch_sdk/core/hal/hal_ctrl.c ****     yt_switch_chip_model_t swModel;
  40              		.loc 1 20 5 view .LVU4
  21:../switch_sdk/core/hal/hal_ctrl.c ****     yt_phy_chip_model_t phyModel;
  41              		.loc 1 21 5 view .LVU5
  22:../switch_sdk/core/hal/hal_ctrl.c **** 
  23:../switch_sdk/core/hal/hal_ctrl.c ****     for(unit = 0; unit < YT_UNIT_NUM; unit++)
  42              		.loc 1 23 5 view .LVU6
  43              	.LVL0:
  44              		.loc 1 23 14 is_stmt 0 view .LVU7
  45 0002 0026     		movs	r6, #0
  46              	.LVL1:
  47              	.L2:
  48              		.loc 1 23 24 is_stmt 1 discriminator 1 view .LVU8
  49 0004 0EB1     		cbz	r6, .L9
  24:../switch_sdk/core/hal/hal_ctrl.c ****     {
  25:../switch_sdk/core/hal/hal_ctrl.c ****         swModel = CAL_SWCHIP_MODEL(unit);
  26:../switch_sdk/core/hal/hal_ctrl.c ****         if(swModel >= YT_SW_MODEL_END)
  27:../switch_sdk/core/hal/hal_ctrl.c ****         {
  28:../switch_sdk/core/hal/hal_ctrl.c ****             return CMM_ERR_FAIL;
  29:../switch_sdk/core/hal/hal_ctrl.c ****         }
  30:../switch_sdk/core/hal/hal_ctrl.c ****         gHalCtrl[unit].pHalSwDrv = gpSwDrvList[swModel];
  31:../switch_sdk/core/hal/hal_ctrl.c **** 
  32:../switch_sdk/core/hal/hal_ctrl.c ****         for(port_id = 0; port_id < CAL_PORT_NUM_ON_UNIT(unit); port_id++)
  33:../switch_sdk/core/hal/hal_ctrl.c ****         {
  34:../switch_sdk/core/hal/hal_ctrl.c ****             if(CAL_IS_SERDES(unit, port_id))
  35:../switch_sdk/core/hal/hal_ctrl.c ****             {
  36:../switch_sdk/core/hal/hal_ctrl.c ****                 mac_id = CAL_YTP_TO_MAC(unit, port_id);
  37:../switch_sdk/core/hal/hal_ctrl.c ****                 gHalCtrl[unit].pHalPhyDrv[mac_id] = gpPhyDrvList[YT_PHY_MODEL_INTSERDES];
  38:../switch_sdk/core/hal/hal_ctrl.c ****             }
  39:../switch_sdk/core/hal/hal_ctrl.c ****             else if(CAL_IS_PHY_PORT(unit, port_id))
  40:../switch_sdk/core/hal/hal_ctrl.c ****             {
  41:../switch_sdk/core/hal/hal_ctrl.c ****                 phyModel = CAL_PHYCHIP_MODEL(unit, port_id);
  42:../switch_sdk/core/hal/hal_ctrl.c ****                 if(phyModel >= YT_PHY_MODEL_END)
  43:../switch_sdk/core/hal/hal_ctrl.c ****                 {
  44:../switch_sdk/core/hal/hal_ctrl.c ****                     return CMM_ERR_FAIL;
  45:../switch_sdk/core/hal/hal_ctrl.c ****                 }
  46:../switch_sdk/core/hal/hal_ctrl.c ****                 mac_id = CAL_YTP_TO_MAC(unit, port_id);
  47:../switch_sdk/core/hal/hal_ctrl.c ****                 gHalCtrl[unit].pHalPhyDrv[mac_id] = gpPhyDrvList[phyModel];
  48:../switch_sdk/core/hal/hal_ctrl.c ****             }
  49:../switch_sdk/core/hal/hal_ctrl.c ****         }
  50:../switch_sdk/core/hal/hal_ctrl.c ****     }
  51:../switch_sdk/core/hal/hal_ctrl.c **** 
  52:../switch_sdk/core/hal/hal_ctrl.c ****     return CMM_ERR_OK;
  50              		.loc 1 52 12 is_stmt 0 view .LVU9
  51 0006 0020     		movs	r0, #0
  52              	.L1:
  53:../switch_sdk/core/hal/hal_ctrl.c **** }
  53              		.loc 1 53 1 view .LVU10
  54 0008 70BD     		pop	{r4, r5, r6, pc}
  55              	.LVL2:
  56              	.L9:
  25:../switch_sdk/core/hal/hal_ctrl.c ****         if(swModel >= YT_SW_MODEL_END)
  57              		.loc 1 25 9 is_stmt 1 view .LVU11
  25:../switch_sdk/core/hal/hal_ctrl.c ****         if(swModel >= YT_SW_MODEL_END)
  58              		.loc 1 25 19 is_stmt 0 view .LVU12
  59 000a 3546     		mov	r5, r6
  60 000c 2F4B     		ldr	r3, .L17
  61 000e 53F82630 		ldr	r3, [r3, r6, lsl #2]
  25:../switch_sdk/core/hal/hal_ctrl.c ****         if(swModel >= YT_SW_MODEL_END)
  62              		.loc 1 25 17 view .LVU13
  63 0012 9B78     		ldrb	r3, [r3, #2]	@ zero_extendqisi2
  64              	.LVL3:
  26:../switch_sdk/core/hal/hal_ctrl.c ****         {
  65              		.loc 1 26 9 is_stmt 1 view .LVU14
  26:../switch_sdk/core/hal/hal_ctrl.c ****         {
  66              		.loc 1 26 11 is_stmt 0 view .LVU15
  67 0014 032B     		cmp	r3, #3
  68 0016 55D8     		bhi	.L10
  30:../switch_sdk/core/hal/hal_ctrl.c **** 
  69              		.loc 1 30 9 is_stmt 1 view .LVU16
  30:../switch_sdk/core/hal/hal_ctrl.c **** 
  70              		.loc 1 30 47 is_stmt 0 view .LVU17
  71 0018 2D4A     		ldr	r2, .L17+4
  72 001a 52F82310 		ldr	r1, [r2, r3, lsl #2]
  30:../switch_sdk/core/hal/hal_ctrl.c **** 
  73              		.loc 1 30 34 view .LVU18
  74 001e 7423     		movs	r3, #116
  75              	.LVL4:
  30:../switch_sdk/core/hal/hal_ctrl.c **** 
  76              		.loc 1 30 34 view .LVU19
  77 0020 06FB03F3 		mul	r3, r6, r3
  78 0024 2B4A     		ldr	r2, .L17+8
  79 0026 D150     		str	r1, [r2, r3]
  80              	.LVL5:
  32:../switch_sdk/core/hal/hal_ctrl.c ****         {
  81              		.loc 1 32 9 is_stmt 1 view .LVU20
  32:../switch_sdk/core/hal/hal_ctrl.c ****         {
  82              		.loc 1 32 21 is_stmt 0 view .LVU21
  83 0028 0024     		movs	r4, #0
  32:../switch_sdk/core/hal/hal_ctrl.c ****         {
  84              		.loc 1 32 9 view .LVU22
  85 002a 07E0     		b	.L4
  86              	.LVL6:
  87              	.L5:
  39:../switch_sdk/core/hal/hal_ctrl.c ****             {
  88              		.loc 1 39 18 is_stmt 1 view .LVU23
  39:../switch_sdk/core/hal/hal_ctrl.c ****             {
  89              		.loc 1 39 20 is_stmt 0 view .LVU24
  90 002c 2AB1     		cbz	r2, .L6
  39:../switch_sdk/core/hal/hal_ctrl.c ****             {
  91              		.loc 1 39 21 discriminator 2 view .LVU25
  92 002e A21D     		adds	r2, r4, #6
  93 0030 53F82230 		ldr	r3, [r3, r2, lsl #2]
  94 0034 9B78     		ldrb	r3, [r3, #2]	@ zero_extendqisi2
  95 0036 FF2B     		cmp	r3, #255
  96 0038 1DD1     		bne	.L15
  97              	.L6:
  32:../switch_sdk/core/hal/hal_ctrl.c ****         {
  98              		.loc 1 32 71 is_stmt 1 discriminator 2 view .LVU26
  99 003a 0134     		adds	r4, r4, #1
 100              	.LVL7:
 101              	.L4:
  32:../switch_sdk/core/hal/hal_ctrl.c ****         {
 102              		.loc 1 32 34 discriminator 1 view .LVU27
  32:../switch_sdk/core/hal/hal_ctrl.c ****         {
 103              		.loc 1 32 36 is_stmt 0 discriminator 1 view .LVU28
 104 003c 234B     		ldr	r3, .L17
 105 003e 53F82530 		ldr	r3, [r3, r5, lsl #2]
 106 0042 1A7D     		ldrb	r2, [r3, #20]	@ zero_extendqisi2
  32:../switch_sdk/core/hal/hal_ctrl.c ****         {
 107              		.loc 1 32 34 discriminator 1 view .LVU29
 108 0044 A242     		cmp	r2, r4
 109 0046 3AD9     		bls	.L16
  34:../switch_sdk/core/hal/hal_ctrl.c ****             {
 110              		.loc 1 34 13 is_stmt 1 view .LVU30
  34:../switch_sdk/core/hal/hal_ctrl.c ****             {
 111              		.loc 1 34 16 is_stmt 0 view .LVU31
 112 0048 234A     		ldr	r2, .L17+12
 113 004a 1278     		ldrb	r2, [r2]	@ zero_extendqisi2
  34:../switch_sdk/core/hal/hal_ctrl.c ****             {
 114              		.loc 1 34 15 view .LVU32
 115 004c 002A     		cmp	r2, #0
 116 004e EDD0     		beq	.L5
  34:../switch_sdk/core/hal/hal_ctrl.c ****             {
 117              		.loc 1 34 16 discriminator 2 view .LVU33
 118 0050 A11D     		adds	r1, r4, #6
 119 0052 53F82110 		ldr	r1, [r3, r1, lsl #2]
 120 0056 0879     		ldrb	r0, [r1, #4]	@ zero_extendqisi2
 121 0058 FF28     		cmp	r0, #255
 122 005a E7D0     		beq	.L5
  36:../switch_sdk/core/hal/hal_ctrl.c ****                 gHalCtrl[unit].pHalPhyDrv[mac_id] = gpPhyDrvList[YT_PHY_MODEL_INTSERDES];
 123              		.loc 1 36 17 is_stmt 1 discriminator 3 view .LVU34
  36:../switch_sdk/core/hal/hal_ctrl.c ****                 gHalCtrl[unit].pHalPhyDrv[mac_id] = gpPhyDrvList[YT_PHY_MODEL_INTSERDES];
 124              		.loc 1 36 26 is_stmt 0 discriminator 3 view .LVU35
 125 005c 0A78     		ldrb	r2, [r1]	@ zero_extendqisi2
 126              	.LVL8:
  37:../switch_sdk/core/hal/hal_ctrl.c ****             }
 127              		.loc 1 37 17 is_stmt 1 discriminator 3 view .LVU36
  37:../switch_sdk/core/hal/hal_ctrl.c ****             }
 128              		.loc 1 37 65 is_stmt 0 discriminator 3 view .LVU37
 129 005e 1F4B     		ldr	r3, .L17+16
 130 0060 9968     		ldr	r1, [r3, #8]
  37:../switch_sdk/core/hal/hal_ctrl.c ****             }
 131              		.loc 1 37 51 discriminator 3 view .LVU38
 132 0062 C5EBC503 		rsb	r3, r5, r5, lsl #3
 133 0066 05EB8303 		add	r3, r5, r3, lsl #2
 134 006a 1344     		add	r3, r3, r2
 135 006c 194A     		ldr	r2, .L17+8
 136              	.LVL9:
  37:../switch_sdk/core/hal/hal_ctrl.c ****             }
 137              		.loc 1 37 51 discriminator 3 view .LVU39
 138 006e 02EB8303 		add	r3, r2, r3, lsl #2
 139 0072 5960     		str	r1, [r3, #4]
 140              	.LVL10:
  37:../switch_sdk/core/hal/hal_ctrl.c ****             }
 141              		.loc 1 37 51 discriminator 3 view .LVU40
 142 0074 E1E7     		b	.L6
 143              	.LVL11:
 144              	.L15:
  41:../switch_sdk/core/hal/hal_ctrl.c ****                 if(phyModel >= YT_PHY_MODEL_END)
 145              		.loc 1 41 17 is_stmt 1 view .LVU41
  41:../switch_sdk/core/hal/hal_ctrl.c ****                 if(phyModel >= YT_PHY_MODEL_END)
 146              		.loc 1 41 28 is_stmt 0 view .LVU42
 147 0076 2146     		mov	r1, r4
 148 0078 3046     		mov	r0, r6
 149 007a FFF7FEFF 		bl	cal_phy_model_get
 150              	.LVL12:
  42:../switch_sdk/core/hal/hal_ctrl.c ****                 {
 151              		.loc 1 42 17 is_stmt 1 view .LVU43
  42:../switch_sdk/core/hal/hal_ctrl.c ****                 {
 152              		.loc 1 42 19 is_stmt 0 view .LVU44
 153 007e 0228     		cmp	r0, #2
 154 0080 22D8     		bhi	.L11
  46:../switch_sdk/core/hal/hal_ctrl.c ****                 gHalCtrl[unit].pHalPhyDrv[mac_id] = gpPhyDrvList[phyModel];
 155              		.loc 1 46 17 is_stmt 1 view .LVU45
  46:../switch_sdk/core/hal/hal_ctrl.c ****                 gHalCtrl[unit].pHalPhyDrv[mac_id] = gpPhyDrvList[phyModel];
 156              		.loc 1 46 26 is_stmt 0 view .LVU46
 157 0082 154B     		ldr	r3, .L17+12
 158 0084 1B78     		ldrb	r3, [r3]	@ zero_extendqisi2
 159 0086 53B1     		cbz	r3, .L12
  46:../switch_sdk/core/hal/hal_ctrl.c ****                 gHalCtrl[unit].pHalPhyDrv[mac_id] = gpPhyDrvList[phyModel];
 160              		.loc 1 46 26 discriminator 1 view .LVU47
 161 0088 104B     		ldr	r3, .L17
 162 008a 53F82530 		ldr	r3, [r3, r5, lsl #2]
 163 008e 1A7D     		ldrb	r2, [r3, #20]	@ zero_extendqisi2
 164 0090 A242     		cmp	r2, r4
 165 0092 12D9     		bls	.L13
  46:../switch_sdk/core/hal/hal_ctrl.c ****                 gHalCtrl[unit].pHalPhyDrv[mac_id] = gpPhyDrvList[phyModel];
 166              		.loc 1 46 26 discriminator 3 view .LVU48
 167 0094 A21D     		adds	r2, r4, #6
 168 0096 53F82230 		ldr	r3, [r3, r2, lsl #2]
 169 009a 1A78     		ldrb	r2, [r3]	@ zero_extendqisi2
 170 009c 00E0     		b	.L7
 171              	.L12:
  46:../switch_sdk/core/hal/hal_ctrl.c ****                 gHalCtrl[unit].pHalPhyDrv[mac_id] = gpPhyDrvList[phyModel];
 172              		.loc 1 46 26 view .LVU49
 173 009e FF22     		movs	r2, #255
 174              	.L7:
 175              	.LVL13:
  47:../switch_sdk/core/hal/hal_ctrl.c ****             }
 176              		.loc 1 47 17 is_stmt 1 discriminator 6 view .LVU50
  47:../switch_sdk/core/hal/hal_ctrl.c ****             }
 177              		.loc 1 47 65 is_stmt 0 discriminator 6 view .LVU51
 178 00a0 0E4B     		ldr	r3, .L17+16
 179 00a2 53F82010 		ldr	r1, [r3, r0, lsl #2]
  47:../switch_sdk/core/hal/hal_ctrl.c ****             }
 180              		.loc 1 47 51 discriminator 6 view .LVU52
 181 00a6 C5EBC503 		rsb	r3, r5, r5, lsl #3
 182 00aa 05EB8303 		add	r3, r5, r3, lsl #2
 183 00ae 1344     		add	r3, r3, r2
 184 00b0 084A     		ldr	r2, .L17+8
 185              	.LVL14:
  47:../switch_sdk/core/hal/hal_ctrl.c ****             }
 186              		.loc 1 47 51 discriminator 6 view .LVU53
 187 00b2 02EB8303 		add	r3, r2, r3, lsl #2
 188 00b6 5960     		str	r1, [r3, #4]
 189 00b8 BFE7     		b	.L6
 190              	.LVL15:
 191              	.L13:
  46:../switch_sdk/core/hal/hal_ctrl.c ****                 gHalCtrl[unit].pHalPhyDrv[mac_id] = gpPhyDrvList[phyModel];
 192              		.loc 1 46 26 view .LVU54
 193 00ba FF22     		movs	r2, #255
 194 00bc F0E7     		b	.L7
 195              	.LVL16:
 196              	.L16:
  23:../switch_sdk/core/hal/hal_ctrl.c ****     {
 197              		.loc 1 23 43 is_stmt 1 discriminator 2 view .LVU55
 198 00be 0136     		adds	r6, r6, #1
 199              	.LVL17:
  23:../switch_sdk/core/hal/hal_ctrl.c ****     {
 200              		.loc 1 23 43 is_stmt 0 discriminator 2 view .LVU56
 201 00c0 F6B2     		uxtb	r6, r6
 202              	.LVL18:
  23:../switch_sdk/core/hal/hal_ctrl.c ****     {
 203              		.loc 1 23 43 discriminator 2 view .LVU57
 204 00c2 9FE7     		b	.L2
 205              	.LVL19:
 206              	.L10:
  28:../switch_sdk/core/hal/hal_ctrl.c ****         }
 207              		.loc 1 28 20 view .LVU58
 208 00c4 0120     		movs	r0, #1
 209 00c6 9FE7     		b	.L1
 210              	.LVL20:
 211              	.L11:
  44:../switch_sdk/core/hal/hal_ctrl.c ****                 }
 212              		.loc 1 44 28 view .LVU59
 213 00c8 0120     		movs	r0, #1
 214              	.LVL21:
  44:../switch_sdk/core/hal/hal_ctrl.c ****                 }
 215              		.loc 1 44 28 view .LVU60
 216 00ca 9DE7     		b	.L1
 217              	.L18:
 218              		.align	2
 219              	.L17:
 220 00cc 00000000 		.word	gpSwitchUnit
 221 00d0 00000000 		.word	gpSwDrvList
 222 00d4 00000000 		.word	gHalCtrl
 223 00d8 00000000 		.word	gcal_inited
 224 00dc 00000000 		.word	gpPhyDrvList
 225              		.cfi_endproc
 226              	.LFE3:
 228              		.global	gHalCtrl
 229              		.section	.bss.gHalCtrl,"aw",%nobits
 230              		.align	2
 233              	gHalCtrl:
 234 0000 00000000 		.space	116
 234      00000000 
 234      00000000 
 234      00000000 
 234      00000000 
 235              		.text
 236              	.Letext0:
 237              		.file 2 "C:\\Users\\Dmitriy\\Desktop\\GD32F10x\\switch_sdk\\common\\include/yt_types.h"
 238              		.file 3 "C:\\Users\\Dmitriy\\Desktop\\GD32F10x\\switch_sdk\\common\\include/yt_error.h"
 239              		.file 4 "C:\\Users\\Dmitriy\\Desktop\\GD32F10x\\switch_sdk\\core\\fal\\chipdef/chipdef.h"
 240              		.file 5 "C:\\Users\\Dmitriy\\Desktop\\GD32F10x\\switch_sdk\\core\\drv\\phy/phy_chipdef.h"
 241              		.file 6 "C:\\Users\\Dmitriy\\Desktop\\GD32F10x\\switch_sdk\\core\\cal/cal_bprofile.h"
 242              		.file 7 "C:\\Users\\Dmitriy\\Desktop\\GD32F10x\\switch_sdk\\core\\cal/cal_mgm.h"
 243              		.file 8 "C:\\Users\\Dmitriy\\Desktop\\GD32F10x\\switch_sdk\\core\\drv\\mac/sw_drv.h"
 244              		.file 9 "C:\\Users\\Dmitriy\\Desktop\\GD32F10x\\switch_sdk\\include/yt_port.h"
 245              		.file 10 "C:\\Users\\Dmitriy\\Desktop\\GD32F10x\\switch_sdk\\include/yt_debug.h"
 246              		.file 11 "C:\\Users\\Dmitriy\\Desktop\\GD32F10x\\switch_sdk\\core\\drv\\phy/phy_drv.h"
 247              		.file 12 "../switch_sdk/core/hal/hal_ctrl.h"
 248              		.file 13 "C:\\Users\\Dmitriy\\Desktop\\GD32F10x\\switch_sdk\\core\\cal/cal_cmm.h"
DEFINED SYMBOLS
                            *ABS*:00000000 hal_ctrl.c
C:\Users\Dmitriy\AppData\Local\Temp\ccxsl4AG.s:19     .text.hal_ctrl_init:00000000 $t
C:\Users\Dmitriy\AppData\Local\Temp\ccxsl4AG.s:25     .text.hal_ctrl_init:00000000 hal_ctrl_init
C:\Users\Dmitriy\AppData\Local\Temp\ccxsl4AG.s:220    .text.hal_ctrl_init:000000cc $d
C:\Users\Dmitriy\AppData\Local\Temp\ccxsl4AG.s:233    .bss.gHalCtrl:00000000 gHalCtrl
C:\Users\Dmitriy\AppData\Local\Temp\ccxsl4AG.s:230    .bss.gHalCtrl:00000000 $d
                           .group:00000000 wm4.0.3ac34e011645c1b8d95761511e5c0518
                           .group:00000000 wm4._newlib_version.h.4.6d111ab2e95434b664b53815e5c8ccba
                           .group:00000000 wm4.newlib.h.27.d4bf77c18f14f545101dac22f0b54118
                           .group:00000000 wm4.ieeefp.h.77.0ee3146e9d892bb10bc0066c30189af1
                           .group:00000000 wm4.features.h.22.7877b139107948f7dadcf3660cc79cfd
                           .group:00000000 wm4.config.h.224.10ee1ad185d877c6e334e6581faab44d
                           .group:00000000 wm4._ansi.h.31.de524f58584151836e90d8620a16f8e8
                           .group:00000000 wm4.stdio.h.31.7c0e28c411445f3f9c5b11accf882760
                           .group:00000000 wm4._default_types.h.6.959254cf5f09734ea7516c89e8bb21bd
                           .group:00000000 wm4.stddef.h.185.cbb642e1ccd385e8aa504b15cb7fb086
                           .group:00000000 wm4.cdefs.h.49.f93868eb904b9ca05b5c0257d31128ca
                           .group:00000000 wm4.stddef.h.39.0e5f0dabba1c666ccadf0408e0d47322
                           .group:00000000 wm4.stdarg.h.34.3a23a216c0c293b3d2ea2e89281481e6
                           .group:00000000 wm4._types.h.20.dd0d04dca3800a0d2a6129b87f3adbb2
                           .group:00000000 wm4.stddef.h.158.5f30652bb2ea05b142c1bbee9108c999
                           .group:00000000 wm4._types.h.127.3bdfe3ff8ea2d0985b03d9cbe93480e3
                           .group:00000000 wm4.reent.h.17.e292bf8b0bec6c96e131a54347145a30
                           .group:00000000 wm4.lock.h.2.1461d1fff82dffe8bfddc23307f6484f
                           .group:00000000 wm4.reent.h.77.89f7dde66c62b1f1dee32bdb6ab2d544
                           .group:00000000 wm4.stdio.h.67.0cf8a9c281ab0b348aef5c02e7e48825
                           .group:00000000 wm4.stdio.h.2.4aa87247282eca6c8f36f9de33d8df1a
                           .group:00000000 wm4.stdio.h.87.a1e20d2651f9bfb66e51bfbe849db00a
                           .group:00000000 wm4.string.h.8.c4b8571ce60dff2817f43fec8b86aecd
                           .group:00000000 wm4.stddef.h.158.bfed30416c9480cd13bc4a25427d538f
                           .group:00000000 wm4.stdbool.h.29.4a1c88fe569adb8d03217dd16982ca34
                           .group:00000000 wm4.malloc.h.4.62bd13b8107d5245f60bd92bb5994838
                           .group:00000000 wm4.malloc.h.152.f5d1d9a9aabeac59da0ef41ede16d2b0
                           .group:00000000 wm4.yt_types.h.31.64aa050cf4c68d28514ce99f5dc2ddb9
                           .group:00000000 wm4.yt_util.h.17.08ae57e3898b218a2bbe57b2147a81bd
                           .group:00000000 wm4.yt_lock.h.9.ec67e8f6d308980d310512269a06d32b
                           .group:00000000 wm4.yt_error.h.38.7d21fcd141776eb0b18825b154fad62e
                           .group:00000000 wm4.chipdef_tiger.h.10.ae557adb3508daebcdc97f8fb0dc9e1a
                           .group:00000000 wm4.phy_chipdef.h.9.9a1a2dbb46f5503e32a84083ab1dbc9f
                           .group:00000000 wm4.cal_bprofile.h.23.d6ecfc2230abc149b4da600a40b20e5b
                           .group:00000000 wm4.bprofile_YT9215_default_demo.h.15.13aa65ba4a73c41dc1ffa3c5f8dcfda3
                           .group:00000000 wm4.cal_cmm.h.46.d022146a9e55e93d62d578a666b2c2f5
                           .group:00000000 wm4.yt_cmm.h.12.5273de39c1b049d4c73c2c31caf670b1
                           .group:00000000 wm4.yt_port.h.26.cd095c4f9e5cbf044bc6839a51827ee8
                           .group:00000000 wm4.hal_ctrl.h.25.367b449f63494da8a1fabadd8a862957

UNDEFINED SYMBOLS
cal_phy_model_get
gpSwitchUnit
gpSwDrvList
gcal_inited
gpPhyDrvList
